 samp_a

 Timestamp is 46d73846 (Fri Aug 31 07:36:06 2007)

 Preferred load address is 77f00000

 Start         Length     Name                   Class
 0001:00000000 0004fb25H .text                   CODE
 0001:0004fb30 00000f8fH .text$x                 CODE
 0001:00050ac0 000000c3H .text$yc                CODE
 0001:00050b90 000000c7H .text$yd                CODE
 0002:00000000 00000298H .idata$5                DATA
 0002:000002a0 0000c858H .rdata                  DATA
 0002:0000caf8 00000168H .rdata$r                DATA
 0002:0000cc60 000001a0H .rdata$sxdata           DATA
 0002:0000ce00 00000004H .rtc$IAA                DATA
 0002:0000ce04 00000004H .rtc$IZZ                DATA
 0002:0000ce08 00000004H .rtc$TAA                DATA
 0002:0000ce0c 00000004H .rtc$TZZ                DATA
 0002:0000ce10 0000273cH .xdata$x                DATA
 0002:0000f54c 00000078H .idata$2                DATA
 0002:0000f5c4 00000014H .idata$3                DATA
 0002:0000f5d8 00000298H .idata$4                DATA
 0002:0000f870 00000a20H .idata$6                DATA
 0002:00010290 00000000H .edata                  DATA
 0003:00000000 00000004H .CRT$XCA                DATA
 0003:00000004 00000004H .CRT$XCAA               DATA
 0003:00000008 00000018H .CRT$XCU                DATA
 0003:00000020 00000004H .CRT$XCZ                DATA
 0003:00000024 00000004H .CRT$XIA                DATA
 0003:00000028 00000010H .CRT$XIC                DATA
 0003:00000038 00000004H .CRT$XIY                DATA
 0003:0000003c 00000004H .CRT$XIZ                DATA
 0003:00000040 00000004H .CRT$XPA                DATA
 0003:00000044 00000004H .CRT$XPX                DATA
 0003:00000048 00000004H .CRT$XPZ                DATA
 0003:0000004c 00000004H .CRT$XTA                DATA
 0003:00000050 00000004H .CRT$XTB                DATA
 0003:00000054 00000004H .CRT$XTZ                DATA
 0003:00000060 00007adcH .data                   DATA
 0003:00007b40 00057d70H .bss                    DATA
 0004:00000000 00000058H .rsrc$01                DATA
 0004:00000060 00000288H .rsrc$02                DATA

  Address         Publics by Value              Rva+Base     Lib:Object

 0000:00000000       __except_list              00000000     <absolute>
 0000:00000068       ___safe_se_handler_count   00000068     <absolute>
 0001:00000000       ?GameStoreLocalPlayerCameraExtZoom@@YGXXZ 77f01000 f   aimstuff.obj
 0001:00000010       ?GameSetLocalPlayerCameraExtZoom@@YGXXZ 77f01010 f   aimstuff.obj
 0001:00000020       ?GameSetPlayerCameraExtZoom@@YGXEM@Z 77f01020 f   aimstuff.obj
 0001:00000040       ?GameGetLocalPlayerCameraExtZoom@@YGMXZ 77f01040 f   aimstuff.obj
 0001:00000060       ?GameSetRemotePlayerCameraExtZoom@@YGXE@Z 77f01060 f   aimstuff.obj
 0001:00000090       ?GameSetPlayerCameraMode@@YGXEE@Z 77f01090 f   aimstuff.obj
 0001:000000b0       ?GameGetPlayerCameraMode@@YGEE@Z 77f010b0 f   aimstuff.obj
 0001:000000c0       ?GameGetLocalPlayerCameraMode@@YGEXZ 77f010c0 f   aimstuff.obj
 0001:000000d0       ?GameAimSyncInit@@YGXXZ    77f010d0 f   aimstuff.obj
 0001:00000120       ?GameStoreLocalPlayerAim@@YGXXZ 77f01120 f   aimstuff.obj
 0001:00000140       ?GameSetLocalPlayerAim@@YGXXZ 77f01140 f   aimstuff.obj
 0001:00000160       ?GameGetInternalAim@@YGPAU_CAMERA_AIM@@XZ 77f01160 f   aimstuff.obj
 0001:00000170       ?GameStoreRemotePlayerAim@@YGXHPAU_CAMERA_AIM@@@Z 77f01170 f   aimstuff.obj
 0001:000001a0       ?GameSetRemotePlayerAim@@YGXH@Z 77f011a0 f   aimstuff.obj
 0001:000001d0       ?GameGetRemotePlayerAim@@YGPAU_CAMERA_AIM@@H@Z 77f011d0 f   aimstuff.obj
 0001:000001f0       ?SetBehindPlayer@CCamera@@QAEXXZ 77f011f0 f   camera.obj
 0001:00000210       ?SetPosition@CCamera@@QAEXMMMMMM@Z 77f01210 f   camera.obj
 0001:00000260       ?LookAtPoint@CCamera@@QAEXMMMH@Z 77f01260 f   camera.obj
 0001:00000290       ?Restore@CCamera@@QAEXXZ   77f01290 f   camera.obj
 0001:000002a0       ?GetMatrix@CCamera@@QAEXPAU_MATRIX4X4@@@Z 77f012a0 f   camera.obj
 0001:00000310       ?FindPlayerPed@CGame@@QAEPAVCPlayerPed@@XZ 77f01310 f i cheats.obj
 0001:00000370       ?DoCheatDataStoring@@YAXXZ 77f01370 f   cheats.obj
 0001:00000440       ?CheckDuplicateD3D9Dlls@@YAXXZ 77f01440 f   cheats.obj
 0001:00000560       ?DoCheatDataComparing@@YAXXZ 77f01560 f   cheats.obj
 0001:00000660       ?GameDebugEntity@@YAXKKH@Z 77f01660 f   debug.obj
 0001:00000680       ?GameBuildRecreateVehicle@@YAXXZ 77f01680 f   debug.obj
 0001:000006d0       ?GameBuildSelectVehicle@@YAXXZ 77f016d0 f   debug.obj
 0001:00000a30       ?GameDebugDrawDebugScreens@@YAXXZ 77f01a30 f   debug.obj
 0001:00000a50       ?GetLocalPlayer@CPlayerPool@@QAEPAVCLocalPlayer@@XZ 77f01a50 f i entity.obj
 0001:00000a60       ?GetPlayerPool@CNetGame@@QAEPAVCPlayerPool@@XZ 77f01a60 f i entity.obj
 0001:00000a70       ?GetMatrix@CEntity@@QAEXPAU_MATRIX4X4@@@Z 77f01a70 f   entity.obj
 0001:00000b10       ?SetMatrix@CEntity@@QAEXU_MATRIX4X4@@@Z 77f01b10 f   entity.obj
 0001:00000bb0       ?GetMoveSpeedVector@CEntity@@QAEXPAU_VECTOR@@@Z 77f01bb0 f   entity.obj
 0001:00000be0       ?SetMoveSpeedVector@CEntity@@QAEXU_VECTOR@@@Z 77f01be0 f   entity.obj
 0001:00000c10       ?SetTurnSpeedVector@CEntity@@QAEXU_VECTOR@@@Z 77f01c10 f   entity.obj
 0001:00000c40       ?SetModelIndex@CEntity@@QAEXI@Z 77f01c40 f   entity.obj
 0001:00000ce0       ?GetModelIndex@CEntity@@QAEIXZ 77f01ce0 f   entity.obj
 0001:00000cf0       ?TeleportTo@CEntity@@QAEXMMM@Z 77f01cf0 f   entity.obj
 0001:00000d60       ?GetDistanceFromLocalPlayerPed@CEntity@@QAEMXZ 77f01d60 f   entity.obj
 0001:00000e30       ?Add@CEntity@@UAEXXZ       77f01e30 f   entity.obj
 0001:00000f00       ?IsAdded@CEntity@@QAEHXZ   77f01f00 f   entity.obj
 0001:00000f30       ?Remove@CEntity@@UAEXXZ    77f01f30 f   entity.obj
 0001:00000f50       ?EnforceWorldBoundries@CEntity@@QAEHMMMM@Z 77f01f50 f   entity.obj
 0001:000010f0       ?HasExceededWorldBoundries@CEntity@@QAEHMMMM@Z 77f020f0 f   entity.obj
 0001:00001160       ??0CGame@@QAE@XZ           77f02160 f   game.obj
 0001:000011a0       ?NewPlayer@CGame@@QAEPAVCPlayerPed@@HHMMMME@Z 77f021a0 f   game.obj
 0001:00001220       ?NewVehicle@CGame@@QAEPAVCVehicle@@HMMMMPAD@Z 77f02220 f   game.obj
 0001:000012a0       ?NewObject@CGame@@QAEPAVCObject@@HMMMU_VECTOR@@@Z 77f022a0 f   game.obj
 0001:00001330       ?FindGroundZForCoord@CGame@@QAEMMMM@Z 77f02330 f   game.obj
 0001:00001370       ?ProcessInputDisabling@CGame@@QAEXXZ 77f02370 f   game.obj
 0001:000013d0       ?ToggleKeyInputsDisabled@CGame@@QAEXH@Z 77f023d0 f   game.obj
 0001:00001400       ?InitGame@CGame@@QAEXXZ    77f02400 f   game.obj
 0001:00001450       ?StartGame@CGame@@QAEXXZ   77f02450 f   game.obj
 0001:00001480       ?IsMenuActive@CGame@@QAEHXZ 77f02480 f   game.obj
 0001:00001490       ?IsGameLoaded@CGame@@QAEHXZ 77f02490 f   game.obj
 0001:000014a0       ?RequestModel@CGame@@QAEXH@Z 77f024a0 f   game.obj
 0001:000014c0       ?LoadRequestedModels@CGame@@QAEXXZ 77f024c0 f   game.obj
 0001:000014d0       ?IsModelLoaded@CGame@@QAEHH@Z 77f024d0 f   game.obj
 0001:000014f0       ?RemoveModel@CGame@@QAEXH@Z 77f024f0 f   game.obj
 0001:00001520       ?GetWorldTime@CGame@@QAEXPAH0@Z 77f02520 f   game.obj
 0001:00001520       ?SetWorldTime@CGame@@QAEXHH@Z 77f02520 f   game.obj
 0001:00001540       ?SetWorldWeather@CGame@@QAEXH@Z 77f02540 f   game.obj
 0001:00001560       ?SetMaxStats@CGame@@QAEXXZ 77f02560 f   game.obj
 0001:00001570       ?DisableTrainTraffic@CGame@@QAEXXZ 77f02570 f   game.obj
 0001:00001580       ?RefreshStreamingAt@CGame@@QAEXMM@Z 77f02580 f   game.obj
 0001:000015b0       ?RequestAnimation@CGame@@QAEXPAD@Z 77f025b0 f   game.obj
 0001:000015d0       ?IsAnimationLoaded@CGame@@QAEHPAD@Z 77f025d0 f   game.obj
 0001:000015f0       ?DisplayGameText@CGame@@QAEXPADHH@Z 77f025f0 f   game.obj
 0001:00001640       ?PlaySoundA@CGame@@QAEXHMMM@Z 77f02640 f   game.obj
 0001:00001670       ?CreateRadarMarkerIcon@CGame@@QAEKHMMMH@Z 77f02670 f   game.obj
 0001:000016d0       ?GetActiveInterior@CGame@@QAEEXZ 77f026d0 f   game.obj
 0001:000016f0       ?AddToLocalMoney@CGame@@QAEXH@Z 77f026f0 f   game.obj
 0001:00001710       ?GetLocalMoney@CGame@@QAEHXZ 77f02710 f   game.obj
 0001:00001720       ?GetWeaponName@CGame@@QAEQADH@Z 77f02720 f   game.obj
 0001:00001970       ?CreatePickup@CGame@@QAEKHHMMM@Z 77f02970 f   game.obj
 0001:00001a10       ?GetD3DDevice@CGame@@QAEKXZ 77f02a10 f   game.obj
 0001:00001a50       ?SetGravity@CGame@@QAEXM@Z 77f02a50 f   game.obj
 0001:00001a70       ?SetWantedLevel@CGame@@QAEXE@Z 77f02a70 f   game.obj
 0001:00001a80       ?SetGameTextCount@CGame@@QAEXG@Z 77f02a80 f   game.obj
 0001:00001a90       ?DrawGangZone@CGame@@QAEXPAMK@Z 77f02a90 f   game.obj
 0001:00001ab0       ?EnableClock@CGame@@QAEXE@Z 77f02ab0 f   game.obj
 0001:00001b30       ?EnableZoneNames@CGame@@QAEXE@Z 77f02b30 f   game.obj
 0001:00001b50       ?EnableStuntBonus@CGame@@QAEX_N@Z 77f02b50 f   game.obj
 0001:00001b70       ?DisableEnterExits@CGame@@QAEXXZ 77f02b70 f   game.obj
 0001:00001bc0       ?DisplayHud@CGame@@QAEXH@Z 77f02bc0 f   game.obj
 0001:00001c00       ?SetCheckpointInformation@CGame@@QAEXPAU_VECTOR@@0@Z 77f02c00 f   game.obj
 0001:00001c80       ?MakeRaceCheckpoint@CGame@@QAEXXZ 77f02c80 f   game.obj
 0001:00001d00       ?UpdateCheckpoints@CGame@@QAEXXZ 77f02d00 f   game.obj
 0001:00001e00       ?ResetLocalMoney@CGame@@QAEXXZ 77f02e00 f   game.obj
 0001:00001e40       ?SetRaceCheckpointInformation@CGame@@QAEXEPAU_VECTOR@@0M@Z 77f02e40 f   game.obj
 0001:00001ed0       ?GetAt@CPlayerPool@@QAEPAVCRemotePlayer@@E@Z 77f02ed0 f i hooks.obj
 0001:00001ef0       ?GetSlotState@CPlayerPool@@QAEHE@Z 77f02ef0 f i hooks.obj
 0001:00001f10       ?GetAt@CVehiclePool@@QAEPAVCVehicle@@G@Z 77f02f10 f i hooks.obj
 0001:00001f40       ?GetSlotState@CVehiclePool@@QAEHG@Z 77f02f40 f i hooks.obj
 0001:00001f60       ?GetVehiclePool@CNetGame@@QAEPAVCVehiclePool@@XZ 77f02f60 f i hooks.obj
 0001:00001f70       ?GetMenuPool@CNetGame@@QAEPAVCMenuPool@@XZ 77f02f70 f i hooks.obj
 0001:00001f80       ?GetTextDrawPool@CNetGame@@QAEPAVCTextDrawPool@@XZ 77f02f80 f i hooks.obj
 0001:00001f80       ?IsCellphoneEnabled@CPlayerPed@@QAEHXZ 77f02f80 f i playerped.obj
 0001:00001f90       ?GameProcessHook@@YAXXZ    77f02f90 f   hooks.obj
 0001:00001fb0       ?CPlayerPed_ProcessControl_Hook@@YAXXZ 77f02fb0 f   hooks.obj
 0001:000021b0       ?TaskUseGun_Hook@@YAXXZ    77f031b0 f   hooks.obj
 0001:00002310       ?AllVehicles_ProcessControl_TankTurret_Hook@@YAXXZ 77f03310 f   hooks.obj
 0001:000023e0       ?AllVehicles_ProcessControl_WaterTurret_Hook@@YAXXZ 77f033e0 f   hooks.obj
 0001:000024b0       ?AllVehicles_ProcessControl_Hook@@YAXXZ 77f034b0 f   hooks.obj
 0001:00002680       ?NotifyEnterVehicle@@YAHXZ 77f03680 f   hooks.obj
 0001:00002730       ?TaskEnterVehicleDriver_Hook@@YAXXZ 77f03730 f   hooks.obj
 0001:00002790       ?TaskExitVehicle@@YAXXZ    77f03790 f   hooks.obj
 0001:00002870       ?RadarTranslateColor@@YAXXZ 77f03870 f   hooks.obj
 0001:00002890       ?CheatProcessorHook@@YAXXZ 77f03890 f   hooks.obj
 0001:000028b0       ?CGameShutdownHook@@YAXXZ  77f038b0 f   hooks.obj
 0001:000028f0       ?IsFriendlyFire@@YGHPAU_PED_TYPE@@0@Z 77f038f0 f   hooks.obj
 0001:000029c0       ?ProcessInstagib@@YGXPAU_PED_TYPE@@0@Z 77f039c0 f   hooks.obj
 0001:00002a10       ?PedDamage_Hook@@YAXXZ     77f03a10 f   hooks.obj
 0001:00002a70       ?CTrain_ProcessControl_Derailment@@YAXXZ 77f03a70 f   hooks.obj
 0001:00002a90       ?AnimCrashFixHook@@YAXXZ   77f03a90 f   hooks.obj
 0001:00002ab0       ?GetText_Hook@@YAXXZ       77f03ab0 f   hooks.obj
 0001:00002bc0       ?CPed_Render_Hook@@YAXXZ   77f03bc0 f   hooks.obj
 0001:00002bf0       ?ZoneOverlay_Hook@@YAXXZ   77f03bf0 f   hooks.obj
 0001:00002c10       ?PlayerWalk_Hook@@YAXXZ    77f03c10 f   hooks.obj
 0001:00002c30       ?PickUpPickup_Hook@@YAXXZ  77f03c30 f   hooks.obj
 0001:00002c70       ?InstallHook@@YAXKKKPAEH@Z 77f03c70 f   hooks.obj
 0001:00002ce0       ?InstallGameAndGraphicsLoopHooks@@YAXXZ 77f03ce0 f   hooks.obj
 0001:00002df0       ?GameInstallHooks@@YAXXZ   77f03df0 f   hooks.obj
 0001:00003240       ?GameKeyStatesInit@@YAXXZ  77f04240 f   keystuff.obj
 0001:00003260       ?GameStoreLocalPlayerKeys@@YAXXZ 77f04260 f   keystuff.obj
 0001:000032a0       ?GameSetLocalPlayerKeys@@YAXXZ 77f042a0 f   keystuff.obj
 0001:000032e0       ?GameStoreRemotePlayerKeys@@YAXHPAU_GTA_CONTROLSET@@@Z 77f042e0 f   keystuff.obj
 0001:00003300       ?GameSetRemotePlayerKeys@@YAXH@Z 77f04300 f   keystuff.obj
 0001:00003350       ?GameGetInternalKeys@@YAPAU_GTA_CONTROLSET@@XZ 77f04350 f   keystuff.obj
 0001:00003360       ?GameGetPlayerKeys@@YAPAU_GTA_CONTROLSET@@H@Z 77f04360 f   keystuff.obj
 0001:00003370       ??0CMenu@@QAE@PADMMEMMPAUMENU_INT@@@Z 77f04370 f   menu.obj
 0001:00003410       ?AddMenuItem@CMenu@@QAEXEEPAD@Z 77f04410 f   menu.obj
 0001:00003440       ?SetColumnTitle@CMenu@@QAEXEPAD@Z 77f04440 f   menu.obj
 0001:00003470       ?Hide@CMenu@@QAEXXZ        77f04470 f   menu.obj
 0001:00003490       ?GetMenuItem@CMenu@@QAEPADEE@Z 77f04490 f   menu.obj
 0001:000034b0       ?GetMenuTitle@CMenu@@QAEPADXZ 77f044b0 f   menu.obj
 0001:000034c0       ?GetMenuHeader@CMenu@@QAEPADE@Z 77f044c0 f   menu.obj
 0001:000034e0       ?GetSelectedRow@CMenu@@QAEEXZ 77f044e0 f   menu.obj
 0001:00003510       ?Show@CMenu@@QAEXXZ        77f04510 f   menu.obj
 0001:00003890       ??1CEntity@@UAE@XZ         77f04890 f i object.obj
 0001:00003890       ??1CPlayerPed@@UAE@XZ      77f04890 f i playerped.obj
 0001:000038a0       ??_ECEntity@@UAEPAXI@Z     77f048a0 f i object.obj
 0001:000038a0       ??_GCEntity@@UAEPAXI@Z     77f048a0 f i object.obj
 0001:000038c0       ??1CObject@@UAE@XZ         77f048c0 f   object.obj
 0001:00003930       ?MoveTo@CObject@@QAEXMMMM@Z 77f04930 f   object.obj
 0001:00003960       ?InstantRotate@CObject@@QAEXMMM@Z 77f04960 f   object.obj
 0001:00003990       ??0CObject@@QAE@HMMMU_VECTOR@@@Z 77f04990 f   object.obj
 0001:00003a80       ??_GCObject@@UAEPAXI@Z     77f04a80 f i object.obj
 0001:00003a80       ??_ECObject@@UAEPAXI@Z     77f04a80 f i object.obj
 0001:00003aa0       ?Process@CObject@@QAEXM@Z  77f04aa0 f   object.obj
 0001:00003b80       ?UnFuck@@YAXKH@Z           77f04b80 f   patches.obj
 0001:00003ba0       ?ApplyPreGamePatches@@YAHXZ 77f04ba0 f   patches.obj
 0001:00003cc0       ?RelocatePedsListHack@@YAXXZ 77f04cc0 f   patches.obj
 0001:00003d10       ?RelocateScanListHack@@YAXXZ 77f04d10 f   patches.obj
 0001:00003e50       ?ApplyInGamePatches@@YAXXZ 77f04e50 f   patches.obj
 0001:00004630       ?ResetForRespawn@CPlayerPed@@QAEXXZ 77f05630 f   playerped.obj
 0001:00004650       ?SetInitialState@CPlayerPed@@QAEXXZ 77f05650 f   playerped.obj
 0001:00004670       ?GetCurrentAim@CPlayerPed@@QAEPAU_CAMERA_AIM@@XZ 77f05670 f   playerped.obj
 0001:00004680       ?SetCurrentAim@CPlayerPed@@QAEXPAU_CAMERA_AIM@@@Z 77f05680 f   playerped.obj
 0001:000046a0       ?GetCurrentWeapon@CPlayerPed@@QAEEXZ 77f056a0 f   playerped.obj
 0001:000046e0       ?GetHealth@CPlayerPed@@QAEMXZ 77f056e0 f   playerped.obj
 0001:00004700       ?SetHealth@CPlayerPed@@QAEXM@Z 77f05700 f   playerped.obj
 0001:00004720       ?GetArmour@CPlayerPed@@QAEMXZ 77f05720 f   playerped.obj
 0001:00004740       ?SetArmour@CPlayerPed@@QAEXM@Z 77f05740 f   playerped.obj
 0001:00004760       ?IsDead@CPlayerPed@@QAEHXZ 77f05760 f   playerped.obj
 0001:00004790       ?GetActionTrigger@CPlayerPed@@QAEEXZ 77f05790 f   playerped.obj
 0001:000047a0       ?SetActionTrigger@CPlayerPed@@QAEXE@Z 77f057a0 f   playerped.obj
 0001:000047c0       ?IsInVehicle@CPlayerPed@@QAEHXZ 77f057c0 f   playerped.obj
 0001:000047e0       ?GetTargetRotation@CPlayerPed@@QAEMXZ 77f057e0 f   playerped.obj
 0001:00004800       ?ForceTargetRotation@CPlayerPed@@QAEXM@Z 77f05800 f   playerped.obj
 0001:00004860       ?IsAPassenger@CPlayerPed@@QAEHXZ 77f05860 f   playerped.obj
 0001:000048a0       ?GetGtaVehicle@CPlayerPed@@QAEPAU_VEHICLE_TYPE@@XZ 77f058a0 f   playerped.obj
 0001:000048b0       ?ClearAllWeapons@CPlayerPed@@QAEXXZ 77f058b0 f   playerped.obj
 0001:000048f0       ?SetArmedWeapon@CPlayerPed@@QAEXH@Z 77f058f0 f   playerped.obj
 0001:00004920       ?GetCurrentWeaponSlot@CPlayerPed@@QAEPAU_WEAPON_SLOT_TYPE@@XZ 77f05920 f   playerped.obj
 0001:00004940       ?GetVehicleSeatID@CPlayerPed@@QAEHXZ 77f05940 f   playerped.obj
 0001:000049d0       ?PutDirectlyInVehicle@CPlayerPed@@QAEXHH@Z 77f059d0 f   playerped.obj
 0001:00004b00       ?EnterVehicle@CPlayerPed@@QAEXHH@Z 77f05b00 f   playerped.obj
 0001:00004b90       ?ExitCurrentVehicle@CPlayerPed@@QAEXXZ 77f05b90 f   playerped.obj
 0001:00004bf0       ?RemoveFromVehicleAndPutAt@CPlayerPed@@QAEXMMM@Z 77f05bf0 f   playerped.obj
 0001:00004c50       ?RestartIfWastedAt@CPlayerPed@@QAEXPAU_VECTOR@@M@Z 77f05c50 f   playerped.obj
 0001:00004c90       ?TogglePlayerControllable@CPlayerPed@@QAEXH@Z 77f05c90 f   playerped.obj
 0001:00004d40       ?FindDeathReasonAndResponsiblePlayer@CPlayerPed@@QAEEPAE@Z 77f05d40 f   playerped.obj
 0001:00004ee0       ?HandsUp@CPlayerPed@@QAEXXZ 77f05ee0 f   playerped.obj
 0001:00004f30       ?HasHandsUp@CPlayerPed@@QAEHXZ 77f05f30 f   playerped.obj
 0001:00004f90       ?StartJetpack@CPlayerPed@@QAEXXZ 77f05f90 f   playerped.obj
 0001:00004fc0       ?StopJetpack@CPlayerPed@@QAEXXZ 77f05fc0 f   playerped.obj
 0001:00005020       ?IsInJetpackMode@CPlayerPed@@QAEHXZ 77f06020 f   playerped.obj
 0001:00005060       ?StartPassengerDriveByMode@CPlayerPed@@QAEHXZ 77f06060 f   playerped.obj
 0001:00005100       ?ExtinguishFire@CPlayerPed@@QAEXXZ 77f06100 f   playerped.obj
 0001:00005160       ?GetAmmo@CPlayerPed@@QAEGXZ 77f06160 f   playerped.obj
 0001:000051a0       ?FindWeaponSlot@CPlayerPed@@QAEPAU_WEAPON_SLOT_TYPE@@K@Z 77f061a0 f   playerped.obj
 0001:000051e0       ?ApplyAnimation@CPlayerPed@@QAEXPAD0MHHHHH@Z 77f061e0 f   playerped.obj
 0001:000052f0       ?SetInterior@CPlayerPed@@QAEXE@Z 77f062f0 f   playerped.obj
 0001:00005360       ?CheckVehicleParachute@CPlayerPed@@QAEXXZ 77f06360 f   playerped.obj
 0001:000053c0       ?ProcessParachuteSkydiving@CPlayerPed@@QAEXXZ 77f063c0 f   playerped.obj
 0001:000055b0       ?ProcessParachuting@CPlayerPed@@QAEXXZ 77f065b0 f   playerped.obj
 0001:00005690       ?IsOnGround@CPlayerPed@@QAEHXZ 77f06690 f   playerped.obj
 0001:000056b0       ?ResetDamageEntity@CPlayerPed@@QAEXXZ 77f066b0 f   playerped.obj
 0001:000056d0       ?GetAimZ@CPlayerPed@@QAEMXZ 77f066d0 f   playerped.obj
 0001:00005710       ?SetAimZ@CPlayerPed@@QAEXM@Z 77f06710 f   playerped.obj
 0001:00005740       ?GetGtaContactVehicle@CPlayerPed@@QAEPAU_VEHICLE_TYPE@@XZ 77f06740 f   playerped.obj
 0001:00005750       ?IsPerformingCustomAnim@CPlayerPed@@QAEHXZ 77f06750 f   playerped.obj
 0001:00005780       ?StartDancing@CPlayerPed@@QAEXH@Z 77f06780 f   playerped.obj
 0001:00005800       ?StopDancing@CPlayerPed@@QAEXXZ 77f06800 f   playerped.obj
 0001:00005840       ?IsDancing@CPlayerPed@@QAEHXZ 77f06840 f   playerped.obj
 0001:00005850       ?GetDanceAnimForMove@CPlayerPed@@QAEPADH@Z 77f06850 f   playerped.obj
 0001:000058e0       ?ApplyCommandTask@CPlayerPed@@QAEXPADHHHPAU_VECTOR@@HMHHH@Z 77f068e0 f   playerped.obj
 0001:00005930       ?DestroyFollowPedTask@CPlayerPed@@QAEXXZ 77f06930 f   playerped.obj
 0001:00005970       ?ToggleCellphone@CPlayerPed@@QAEXH@Z 77f06970 f   playerped.obj
 0001:000059a0       ??0CPlayerPed@@QAE@XZ      77f069a0 f   playerped.obj
 0001:00005a40       ??_GCPlayerPed@@UAEPAXI@Z  77f06a40 f i playerped.obj
 0001:00005a40       ??_ECPlayerPed@@UAEPAXI@Z  77f06a40 f i playerped.obj
 0001:00005a60       ?Destroy@CPlayerPed@@QAEXXZ 77f06a60 f   playerped.obj
 0001:00005b40       ?SetKeys@CPlayerPed@@QAEXGGG@Z 77f06b40 f   playerped.obj
 0001:00005dc0       ?GetKeys@CPlayerPed@@QAEGPAG0@Z 77f06dc0 f   playerped.obj
 0001:00005f10       ?ShowMarker@CPlayerPed@@QAEXXZ 77f06f10 f   playerped.obj
 0001:00005f70       ?SetTargetRotation@CPlayerPed@@QAEXM@Z 77f06f70 f   playerped.obj
 0001:00005fe0       ?GiveWeapon@CPlayerPed@@QAEXHH@Z 77f06fe0 f   playerped.obj
 0001:000060c0       ?SetModelIndex@CPlayerPed@@QAEXI@Z 77f070c0 f   playerped.obj
 0001:00006130       ?SetDead@CPlayerPed@@QAEXXZ 77f07130 f   playerped.obj
 0001:000061c0       ?SetAmmo@CPlayerPed@@QAEXEG@Z 77f071c0 f   playerped.obj
 0001:000061f0       ?ProcessParachutes@CPlayerPed@@QAEXXZ 77f071f0 f   playerped.obj
 0001:00006390       ?ProcessDancing@CPlayerPed@@QAEXXZ 77f07390 f   playerped.obj
 0001:000065a0       ?ProcessMarkers@CPlayerPed@@QAEXHMH@Z 77f075a0 f   playerped.obj
 0001:00006610       ??0CPlayerPed@@QAE@HHMMMME@Z 77f07610 f   playerped.obj
 0001:00006760       ?ExecuteScriptBuf@@YAHXZ   77f07760 f   scripting.obj
 0001:000067a0       ?ScriptCommand@@YAHPBUSCRIPT_COMMAND@@ZZ 77f077a0 f   scripting.obj
 0001:00006990       ?InitScripting@@YAXXZ      77f07990 f   scripting.obj
 0001:000069c0       ??0CTextDraw@@QAE@EPAU_TEXT_DRAW_TRANSMIT@@PADE@Z 77f079c0 f   textdraw.obj
 0001:00006ae0       ?MoveTo@CTextDraw@@QAEXE@Z 77f07ae0 f   textdraw.obj
 0001:00006b20       ?SetText@CTextDraw@@QAEXPAD@Z 77f07b20 f   textdraw.obj
 0001:00006b40       ?WorldAddEntity@@YGXPAK@Z  77f07b40 f   util.obj
 0001:00006b60       ?WorldRemoveEntity@@YGXPAK@Z 77f07b60 f   util.obj
 0001:00006b80       ?GamePool_Ped_GetAt@@YGPAU_PED_TYPE@@H@Z 77f07b80 f   util.obj
 0001:00006bb0       ?GamePool_Vehicle_GetAt@@YGPAU_VEHICLE_TYPE@@H@Z 77f07bb0 f   util.obj
 0001:00006be0       ?GamePool_Vehicle_GetIndex@@YGKPAU_VEHICLE_TYPE@@@Z 77f07be0 f   util.obj
 0001:00006c10       ?GamePool_Object_GetAt@@YGPAU_ENTITY_TYPE@@H@Z 77f07c10 f   util.obj
 0001:00006c40       ?GamePool_FindPlayerPed@@YGPAU_PED_TYPE@@XZ 77f07c40 f   util.obj
 0001:00006c50       ?GameGetWeaponModelIDFromWeaponID@@YGHH@Z 77f07c50 f   util.obj
 0001:00006e80       ?SetRadarColor@@YGXEK@Z    77f07e80 f   util.obj
 0001:00006ea0       ?TranslateColorCodeToRGBA@@YGKH@Z 77f07ea0 f   util.obj
 0001:00006ef0       ?Game_PedStatPrim@@YAHH@Z  77f07ef0 f   util.obj
 0001:00006f00       ?GameResetRadarColors@@YAXXZ 77f07f00 f   util.obj
 0001:00006f20       ?GamePrepareTrain@@YGXPAU_VEHICLE_TYPE@@@Z 77f07f20 f   util.obj
 0001:00006f60       ?SetPlayerPedPtrRecord@@YGXEK@Z 77f07f60 f   util.obj
 0001:00006f80       ?FindPlayerNumFromPedPtr@@YGEK@Z 77f07f80 f   util.obj
 0001:00006fb0       ?FloatDifference@@YAMMM@Z  77f07fb0 f   util.obj
 0001:00006fc0       ?FloatOffset@@YAMMM@Z      77f07fc0 f   util.obj
 0001:00006ff0       ?CompressNormalVector@@YAXPAU_VECTOR@@PAU_C_VECTOR1@@@Z 77f07ff0 f   util.obj
 0001:00007070       ?DecompressNormalVector@@YAXPAU_VECTOR@@PAU_C_VECTOR1@@@Z 77f08070 f   util.obj
 0001:00007110       ?DegToRad@@YAMM@Z          77f08110 f   util.obj
 0001:00007180       ?IsNumeric@@YA_NPAD@Z      77f08180 f   util.obj
 0001:000071b0       ?GameForcedExitHelper@@YAXXZ 77f081b0 f   util.obj
 0001:000071f0       ?GameForcedExit@@YAXH@Z    77f081f0 f   util.obj
 0001:00007310       ??1CVehicle@@UAE@XZ        77f08310 f   vehicle.obj
 0001:00007390       ?LinkToInterior@CVehicle@@QAEXH@Z 77f08390 f   vehicle.obj
 0001:000073c0       ?IsOccupied@CVehicle@@QAEHXZ 77f083c0 f   vehicle.obj
 0001:00007420       ?SetInvulnerable@CVehicle@@QAEXH@Z 77f08420 f   vehicle.obj
 0001:000074d0       ?GetHealth@CVehicle@@QAEMXZ 77f084d0 f   vehicle.obj
 0001:000074f0       ?SetHealth@CVehicle@@QAEXM@Z 77f084f0 f   vehicle.obj
 0001:00007510       ?SetColor@CVehicle@@QAEXHH@Z 77f08510 f   vehicle.obj
 0001:00007540       ?GetVehicleSubtype@CVehicle@@QAEIXZ 77f08540 f   vehicle.obj
 0001:000075b0       ?HasSunk@CVehicle@@QAEHXZ  77f085b0 f   vehicle.obj
 0001:000075d0       ?IsDriverLocalPlayer@CVehicle@@QAEHXZ 77f085d0 f   vehicle.obj
 0001:00007600       ?IsATrainPart@CVehicle@@QAEHXZ 77f08600 f   vehicle.obj
 0001:00007640       ?HasTurret@CVehicle@@QAEHXZ 77f08640 f   vehicle.obj
 0001:00007670       ?SetSirenOn@CVehicle@@QAEXH@Z 77f08670 f   vehicle.obj
 0001:00007690       ?IsSirenOn@CVehicle@@QAEHXZ 77f08690 f   vehicle.obj
 0001:000076b0       ?SetLandingGearState@CVehicle@@QAEXW4eLandingGearState@@@Z 77f086b0 f   vehicle.obj
 0001:000076e0       ?GetLandingGearState@CVehicle@@QAE?AW4eLandingGearState@@XZ 77f086e0 f   vehicle.obj
 0001:00007720       ?SetHydraThrusters@CVehicle@@QAEXK@Z 77f08720 f   vehicle.obj
 0001:00007740       ?GetHydraThrusters@CVehicle@@QAEKXZ 77f08740 f   vehicle.obj
 0001:00007760       ?ProcessMarkers@CVehicle@@QAEXXZ 77f08760 f   vehicle.obj
 0001:000078a0       ?SetDoorState@CVehicle@@QAEXH@Z 77f088a0 f   vehicle.obj
 0001:000078d0       ?UpdateLastDrivenTime@CVehicle@@QAEHXZ 77f088d0 f   vehicle.obj
 0001:00007900       ?GetTrainSpeed@CVehicle@@QAEMXZ 77f08900 f   vehicle.obj
 0001:00007910       ?SetTrainSpeed@CVehicle@@QAEXM@Z 77f08910 f   vehicle.obj
 0001:00007920       ?SetWheelPopped@CVehicle@@QAEXKK@Z 77f08920 f   vehicle.obj
 0001:00007960       ?GetWheelPopped@CVehicle@@QAEEK@Z 77f08960 f   vehicle.obj
 0001:000079a0       ?AttachTrailer@CVehicle@@QAEXXZ 77f089a0 f   vehicle.obj
 0001:000079c0       ?DetachTrailer@CVehicle@@QAEXXZ 77f089c0 f   vehicle.obj
 0001:000079e0       ?SetTrailer@CVehicle@@QAEXPAV1@@Z 77f089e0 f   vehicle.obj
 0001:000079f0       ?GetTrailer@CVehicle@@QAEPAV1@XZ 77f089f0 f   vehicle.obj
 0001:00007a40       ?IsRCVehicle@CVehicle@@QAEHXZ 77f08a40 f   vehicle.obj
 0001:00007a80       ??_ECVehicle@@UAEPAXI@Z    77f08a80 f i vehicle.obj
 0001:00007a80       ??_GCVehicle@@UAEPAXI@Z    77f08a80 f i vehicle.obj
 0001:00007aa0       ?Add@CVehicle@@UAEXXZ      77f08aa0 f   vehicle.obj
 0001:00007ad0       ?Remove@CVehicle@@UAEXXZ   77f08ad0 f   vehicle.obj
 0001:00007b00       ??0CVehicle@@QAE@HMMMMPAD@Z 77f08b00 f   vehicle.obj
 0001:00007ee0       ?ProcessIncommingEvent@@YAXEHKKK@Z 77f08ee0 f   events.obj
 0001:00008040       ?SendScmEvent@@YAXHKKK@Z   77f09040 f   events.obj
 0001:00008130       ?ProcessOutgoingEvent@@YAXHKKK@Z 77f09130 f   events.obj
 0001:00008240       ?SetEventCustomOpcode@@YAXXZ 77f09240 f   events.obj
 0001:000082b0       ?InstallSCMEventsProcessor@@YAXXZ 77f092b0 f   events.obj
 0001:000082c0       ??0CGangZonePool@@QAE@XZ   77f092c0 f   gangzonepool.obj
 0001:000082f0       ??1CGangZonePool@@QAE@XZ   77f092f0 f   gangzonepool.obj
 0001:00008320       ?New@CGangZonePool@@QAEXGMMMMK@Z 77f09320 f   gangzonepool.obj
 0001:000083a0       ?Flash@CGangZonePool@@QAEXGK@Z 77f093a0 f   gangzonepool.obj
 0001:000083c0       ?StopFlash@CGangZonePool@@QAEXG@Z 77f093c0 f   gangzonepool.obj
 0001:000083e0       ?Delete@CGangZonePool@@QAEXG@Z 77f093e0 f   gangzonepool.obj
 0001:00008410       ?Draw@CGangZonePool@@QAEXXZ 77f09410 f   gangzonepool.obj
 0001:00008480       ??0CHttpClient@@QAE@XZ     77f09480 f   httpclient.obj
 0001:000084e0       ??1CHttpClient@@QAE@XZ     77f094e0 f   httpclient.obj
 0001:00008550       ?GetHeaderValue@CHttpClient@@QAE_NPAD0H@Z 77f09550 f   httpclient.obj
 0001:000085e0       ?InitRequest@CHttpClient@@AAEXHPAD00@Z 77f095e0 f   httpclient.obj
 0001:000087b0       ?HandleEntity@CHttpClient@@AAEXXZ 77f097b0 f   httpclient.obj
 0001:00008ad0       ?Connect@CHttpClient@@AAE_NPADH@Z 77f09ad0 f   httpclient.obj
 0001:00008b90       ?Process@CHttpClient@@AAEXXZ 77f09b90 f   httpclient.obj
 0001:00008d70       ?ProcessURL@CHttpClient@@QAEHHPAD00@Z 77f09d70 f   httpclient.obj
 0001:00008da0       ?ResetAllSyncAttributes@CLocalPlayer@@QAEXXZ 77f09da0 f   localplayer.obj
 0001:00008dc0       ?ApplySpecialAction@CLocalPlayer@@QAEXE@Z 77f09dc0 f   localplayer.obj
 0001:00008ec0       ?GetSpecialAction@CLocalPlayer@@QAEEXZ 77f09ec0 f   localplayer.obj
 0001:00008f50       ?GetOptimumInCarSendRate@CLocalPlayer@@QAEHH@Z 77f09f50 f   localplayer.obj
 0001:00009040       ?GetOptimumOnFootSendRate@CLocalPlayer@@QAEHH@Z 77f0a040 f   localplayer.obj
 0001:00009130       ?RequestSpawn@CLocalPlayer@@QAEXXZ 77f0a130 f   localplayer.obj
 0001:000091b0       ?SetSpawnInfo@CLocalPlayer@@QAEXPAU_PLAYER_SPAWN_INFO@@@Z 77f0a1b0 f   localplayer.obj
 0001:000091d0       ?Spawn@CLocalPlayer@@QAEHXZ 77f0a1d0 f   localplayer.obj
 0001:000093f0       ?SetPlayerColor@CLocalPlayer@@QAEXK@Z 77f0a3f0 f   localplayer.obj
 0001:00009410       ?GetPlayerColorAsARGB@CLocalPlayer@@QAEKXZ 77f0a410 f   localplayer.obj
 0001:00009430       ?ProcessOnFootWorldBounds@CLocalPlayer@@QAEXXZ 77f0a430 f   localplayer.obj
 0001:00009490       ?ProcessInCarWorldBounds@CLocalPlayer@@QAEXXZ 77f0a490 f   localplayer.obj
 0001:00009520       ?HandleClassSelectionOutcome@CLocalPlayer@@QAEXH@Z 77f0a520 f   localplayer.obj
 0001:00009560       ?DetermineNumberOfPlayersInLocalRange@CLocalPlayer@@QAEHXZ 77f0a560 f   localplayer.obj
 0001:000095e0       ?ToggleSpectating@CLocalPlayer@@QAEXH@Z 77f0a5e0 f   localplayer.obj
 0001:00009630       ?SpectateVehicle@CLocalPlayer@@QAEXG@Z 77f0a630 f   localplayer.obj
 0001:00009670       ?SpectatePlayer@CLocalPlayer@@QAEXE@Z 77f0a670 f   localplayer.obj
 0001:000096c0       ??0CLocalPlayer@@QAE@XZ    77f0a6c0 f   localplayer.obj
 0001:000097a0       ?SendOnFootFullSyncData@CLocalPlayer@@QAEXXZ 77f0a7a0 f   localplayer.obj
 0001:00009a10       ?SendAimSyncData@CLocalPlayer@@QAEXXZ 77f0aa10 f   localplayer.obj
 0001:00009b90       ?SendInCarFullSyncData@CLocalPlayer@@QAEXXZ 77f0ab90 f   localplayer.obj
 0001:0000a010       ?SendPassengerFullSyncData@CLocalPlayer@@QAEXXZ 77f0b010 f   localplayer.obj
 0001:0000a1a0       ?SendWastedNotification@CLocalPlayer@@QAEXXZ 77f0b1a0 f   localplayer.obj
 0001:0000a260       ?RequestClass@CLocalPlayer@@QAEXH@Z 77f0b260 f   localplayer.obj
 0001:0000a300       ?UpdateRemoteInterior@CLocalPlayer@@QAEXE@Z 77f0b300 f   localplayer.obj
 0001:0000a3a0       ?Say@CLocalPlayer@@QAEXPAD@Z 77f0b3a0 f   localplayer.obj
 0001:0000a460       ?Msg@CLocalPlayer@@QAEXEPAD@Z 77f0b460 f   localplayer.obj
 0001:0000a5a0       ?TeamMsg@CLocalPlayer@@QAEXPAD@Z 77f0b5a0 f   localplayer.obj
 0001:0000a660       ?SendEnterVehicleNotification@CLocalPlayer@@QAEXGH@Z 77f0b660 f   localplayer.obj
 0001:0000a770       ?SendExitVehicleNotification@CLocalPlayer@@QAEXG@Z 77f0b770 f   localplayer.obj
 0001:0000a870       ?SendStatsUpdate@CLocalPlayer@@QAEXXZ 77f0b870 f   localplayer.obj
 0001:0000a950       ?ProcessClassSelection@CLocalPlayer@@QAEXXZ 77f0b950 f   localplayer.obj
 0001:0000abe0       ?HandleClassSelection@CLocalPlayer@@QAEXXZ 77f0bbe0 f   localplayer.obj
 0001:0000ac50       ?CheckWeapons@CLocalPlayer@@QAEXXZ 77f0bc50 f   localplayer.obj
 0001:0000adf0       ?ProcessSpectating@CLocalPlayer@@QAEXXZ 77f0bdf0 f   localplayer.obj
 0001:0000b0f0       ?HandlePassengerEntry@CLocalPlayer@@QAEXXZ 77f0c0f0 f   localplayer.obj
 0001:0000b190       ?Process@CLocalPlayer@@QAEHXZ 77f0c190 f   localplayer.obj
 0001:0000b960       ??0CMenuPool@@QAE@XZ       77f0c960 f   menupool.obj
 0001:0000b990       ?New@CMenuPool@@QAEPAVCMenu@@EPADMMEMMPAUMENU_INT@@@Z 77f0c990 f   menupool.obj
 0001:0000ba60       ?Delete@CMenuPool@@QAEHE@Z 77f0ca60 f   menupool.obj
 0001:0000bab0       ?ShowMenu@CMenuPool@@QAEXE@Z 77f0cab0 f   menupool.obj
 0001:0000bb10       ?HideMenu@CMenuPool@@QAEXE@Z 77f0cb10 f   menupool.obj
 0001:0000bb50       ?GetTextPointer@CMenuPool@@QAEPADPAD@Z 77f0cb50 f   menupool.obj
 0001:0000bcb0       ??1CMenuPool@@QAE@XZ       77f0ccb0 f   menupool.obj
 0001:0000bcf0       ?Process@CMenuPool@@QAEXXZ 77f0ccf0 f   menupool.obj
 0001:0000be50       ??$Read@_N@BitStream@RakNet@@QAE_NAA_N@Z 77f0ce50 f i netgame.obj
 0001:0000beb0       ??0CPickupPool@@QAE@XZ     77f0ceb0 f i netgame.obj
 0001:0000bef0       ??0CNetGame@@QAE@PADH00@Z  77f0cef0 f   netgame.obj
 0001:0000c220       ?InitGameLogic@CNetGame@@QAEXXZ 77f0d220 f   netgame.obj
 0001:0000c240       ?UpdatePlayerScoresAndPings@CNetGame@@QAEXXZ 77f0d240 f   netgame.obj
 0001:0000c2e0       ?ResetVehiclePool@CNetGame@@QAEXXZ 77f0d2e0 f   netgame.obj
 0001:0000c360       ?ResetPickupPool@CNetGame@@QAEXXZ 77f0d360 f   netgame.obj
 0001:0000c3b0       ?ResetMenuPool@CNetGame@@QAEXXZ 77f0d3b0 f   netgame.obj
 0001:0000c430       ?ResetTextDrawPool@CNetGame@@QAEXXZ 77f0d430 f   netgame.obj
 0001:0000c4b0       ?ResetObjectPool@CNetGame@@QAEXXZ 77f0d4b0 f   netgame.obj
 0001:0000c530       ?ResetGangZonePool@CNetGame@@QAEXXZ 77f0d530 f   netgame.obj
 0001:0000c5b0       ?DisableMapIcon@CNetGame@@QAEXE@Z 77f0d5b0 f   netgame.obj
 0001:0000c5e0       ??1CNetGame@@QAE@XZ        77f0d5e0 f   netgame.obj
 0001:0000c6d0       ?ShutdownForGameModeRestart@CNetGame@@QAEXXZ 77f0d6d0 f   netgame.obj
 0001:0000c890       ?Packet_PlayerSync@CNetGame@@AAEXPAUPacket@@@Z 77f0d890 f   netgame.obj
 0001:0000cb60       ?Packet_AimSync@CNetGame@@AAEXPAUPacket@@@Z 77f0db60 f   netgame.obj
 0001:0000cc40       ?Packet_VehicleSync@CNetGame@@AAEXPAUPacket@@@Z 77f0dc40 f   netgame.obj
 0001:0000cf50       ?Packet_PassengerSync@CNetGame@@AAEXPAUPacket@@@Z 77f0df50 f   netgame.obj
 0001:0000d030       ?Packet_TrailerSync@CNetGame@@AAEXPAUPacket@@@Z 77f0e030 f   netgame.obj
 0001:0000d110       ?Packet_ConnectionSucceeded@CNetGame@@AAEXPAUPacket@@@Z 77f0e110 f   netgame.obj
 0001:0000d220       ?SetMapIcon@CNetGame@@QAEXEMMMEK@Z 77f0e220 f   netgame.obj
 0001:0000d280       ?UpdateNetwork@CNetGame@@AAEXXZ 77f0e280 f   netgame.obj
 0001:0000d450       ?Process@CNetGame@@QAEXXZ  77f0e450 f   netgame.obj
 0001:0000d930       ?DisableCheckpoint@@YAXPAURPCParameters@@@Z 77f0e930 f   netrpc.obj
 0001:0000d940       ?DisableRaceCheckpoint@@YAXPAURPCParameters@@@Z 77f0e940 f   netrpc.obj
 0001:0000d950       ?SvrStats@@YAXPAURPCParameters@@@Z 77f0e950 f   netrpc.obj
 0001:0000d9e0       ?GameModeRestart@@YAXPAURPCParameters@@@Z 77f0e9e0 f   netrpc.obj
 0001:0000d9f0       ?Instagib@@YAXPAURPCParameters@@@Z 77f0e9f0 f   netrpc.obj
 0001:0000da40       ?ACServerProtected@@YAXPAURPCParameters@@@Z 77f0ea40 f   netrpc.obj
 0001:0000da80       ?UnRegisterRPCs@@YAXPAVRakClientInterface@@@Z 77f0ea80 f   netrpc.obj
 0001:0000dc20       ?ServerJoin@@YAXPAURPCParameters@@@Z 77f0ec20 f   netrpc.obj
 0001:0000dd00       ?ServerQuit@@YAXPAURPCParameters@@@Z 77f0ed00 f   netrpc.obj
 0001:0000ddc0       ?InitGame@@YAXPAURPCParameters@@@Z 77f0edc0 f   netrpc.obj
 0001:0000e0e0       ?Chat@@YAXPAURPCParameters@@@Z 77f0f0e0 f   netrpc.obj
 0001:0000e220       ?Privmsg@@YAXPAURPCParameters@@@Z 77f0f220 f   netrpc.obj
 0001:0000e380       ?TeamPrivmsg@@YAXPAURPCParameters@@@Z 77f0f380 f   netrpc.obj
 0001:0000e4c0       ?RequestClass@@YAXPAURPCParameters@@@Z 77f0f4c0 f   netrpc.obj
 0001:0000e590       ?RequestSpawn@@YAXPAURPCParameters@@@Z 77f0f590 f   netrpc.obj
 0001:0000e660       ?Spawn@@YAXPAURPCParameters@@@Z 77f0f660 f   netrpc.obj
 0001:0000e7c0       ?Death@@YAXPAURPCParameters@@@Z 77f0f7c0 f   netrpc.obj
 0001:0000e870       ?EnterVehicle@@YAXPAURPCParameters@@@Z 77f0f870 f   netrpc.obj
 0001:0000e960       ?ExitVehicle@@YAXPAURPCParameters@@@Z 77f0f960 f   netrpc.obj
 0001:0000ea30       ?VehicleSpawn@@YAXPAURPCParameters@@@Z 77f0fa30 f   netrpc.obj
 0001:0000edd0       ?SetCheckpoint@@YAXPAURPCParameters@@@Z 77f0fdd0 f   netrpc.obj
 0001:0000eee0       ?SetRaceCheckpoint@@YAXPAURPCParameters@@@Z 77f0fee0 f   netrpc.obj
 0001:0000f040       ?UpdateScoresPingsIPs@@YAXPAURPCParameters@@@Z 77f10040 f   netrpc.obj
 0001:0000f180       ?ConnectionRejected@@YAXPAURPCParameters@@@Z 77f10180 f   netrpc.obj
 0001:0000f2d0       ?ClientMessage@@YAXPAURPCParameters@@@Z 77f102d0 f   netrpc.obj
 0001:0000f3b0       ?WorldTime@@YAXPAURPCParameters@@@Z 77f103b0 f   netrpc.obj
 0001:0000f450       ?Pickup@@YAXPAURPCParameters@@@Z 77f10450 f   netrpc.obj
 0001:0000f500       ?DestroyPickup@@YAXPAURPCParameters@@@Z 77f10500 f   netrpc.obj
 0001:0000f5a0       ?DestroyWeaponPickup@@YAXPAURPCParameters@@@Z 77f105a0 f   netrpc.obj
 0001:0000f640       ?ScmEvent@@YAXPAURPCParameters@@@Z 77f10640 f   netrpc.obj
 0001:0000f730       ?Weather@@YAXPAURPCParameters@@@Z 77f10730 f   netrpc.obj
 0001:0000f7d0       ?SetTimeEx@@YAXPAURPCParameters@@@Z 77f107d0 f   netrpc.obj
 0001:0000f8a0       ?ToggleClock@@YAXPAURPCParameters@@@Z 77f108a0 f   netrpc.obj
 0001:0000f970       ?VehicleDestroy@@YAXPAURPCParameters@@@Z 77f10970 f   netrpc.obj
 0001:0000fa70       ?RegisterRPCs@@YAXPAVRakClientInterface@@@Z 77f10a70 f   netrpc.obj
 0001:0000fcb0       ??0CObjectPool@@QAE@XZ     77f10cb0 f   objectpool.obj
 0001:0000fce0       ?Delete@CObjectPool@@QAEHE@Z 77f10ce0 f   objectpool.obj
 0001:0000fd30       ?New@CObjectPool@@QAEHEHU_VECTOR@@0@Z 77f10d30 f   objectpool.obj
 0001:0000fdb0       ?Process@CObjectPool@@QAEXXZ 77f10db0 f   objectpool.obj
 0001:0000fe30       ??1CObjectPool@@QAE@XZ     77f10e30 f   objectpool.obj
 0001:0000fe80       ?New@CPickupPool@@QAEXPAU_PICKUP@@H@Z 77f10e80 f   pickuppool.obj
 0001:0000ff20       ?Destroy@CPickupPool@@QAEXH@Z 77f10f20 f   pickuppool.obj
 0001:0000ff80       ?DestroyDropped@CPickupPool@@QAEXE@Z 77f10f80 f   pickuppool.obj
 0001:0000fff0       ??1CPickupPool@@QAE@XZ     77f10ff0 f   pickuppool.obj
 0001:00010020       ?PickedUp@CPickupPool@@QAEXH@Z 77f11020 f   pickuppool.obj
 0001:00010100       ?Process@CPickupPool@@QAEXXZ 77f11100 f   pickuppool.obj
 0001:000101f0       ??0CPlayerPool@@QAE@XZ     77f111f0 f   playerpool.obj
 0001:00010280       ?New@CPlayerPool@@QAEHEPAD@Z 77f11280 f   playerpool.obj
 0001:00010330       ?Process@CPlayerPool@@QAEHXZ 77f11330 f   playerpool.obj
 0001:00010430       ?FindRemotePlayerIDFromGtaPtr@CPlayerPool@@QAEEPAU_PED_TYPE@@@Z 77f11430 f   playerpool.obj
 0001:00010490       ?GetCount@CPlayerPool@@QAEEXZ 77f11490 f   playerpool.obj
 0001:000104b0       ?DeactivateAll@CPlayerPool@@QAEXXZ 77f114b0 f   playerpool.obj
 0001:000104f0       ?Delete@CPlayerPool@@QAEHEE@Z 77f114f0 f   playerpool.obj
 0001:00010570       ??1CPlayerPool@@QAE@XZ     77f11570 f   playerpool.obj
 0001:000105b0       ??1CRemotePlayer@@QAE@XZ   77f115b0 f   remoteplayer.obj
 0001:000105e0       ?HandlePlayerPedStreaming@CRemotePlayer@@QAEXXZ 77f115e0 f   remoteplayer.obj
 0001:000106a0       ?HandleVehicleEntryExit@CRemotePlayer@@QAEXXZ 77f116a0 f   remoteplayer.obj
 0001:00010740       ?ProcessSpecialActions@CRemotePlayer@@QAEXE@Z 77f11740 f   remoteplayer.obj
 0001:00010950       ?UpdateOnFootPositionAndSpeed@CRemotePlayer@@QAEXPAU_VECTOR@@0@Z 77f11950 f   remoteplayer.obj
 0001:00010ad0       ?UpdateInCarMatrixAndSpeed@CRemotePlayer@@QAEXU_MATRIX4X4@@U_VECTOR@@@Z 77f11ad0 f   remoteplayer.obj
 0001:00010e40       ?UpdateTrainDriverMatrixAndSpeed@CRemotePlayer@@QAEXPAU_MATRIX4X4@@PAU_VECTOR@@M@Z 77f11e40 f   remoteplayer.obj
 0001:00010f40       ?UpdateAimFromSyncData@CRemotePlayer@@QAEXPAU_AIM_SYNC_DATA@@@Z 77f11f40 f   remoteplayer.obj
 0001:00011060       ?StoreTrailerFullSyncData@CRemotePlayer@@QAEXPAU_TRAILER_SYNC_DATA@@@Z 77f12060 f   remoteplayer.obj
 0001:00011110       ?ResetAllSyncAttributes@CRemotePlayer@@QAEXXZ 77f12110 f   remoteplayer.obj
 0001:00011190       ?Privmsg@CRemotePlayer@@QAEXPAD@Z 77f12190 f   remoteplayer.obj
 0001:000111f0       ?TeamPrivmsg@CRemotePlayer@@QAEXPAD@Z 77f121f0 f   remoteplayer.obj
 0001:00011250       ?GetDistanceFromLocalPlayer@CRemotePlayer@@QAEMXZ 77f12250 f   remoteplayer.obj
 0001:00011280       ?SetPlayerColor@CRemotePlayer@@QAEXK@Z 77f12280 f   remoteplayer.obj
 0001:000112a0       ?GetPlayerColorAsARGB@CRemotePlayer@@QAEKXZ 77f122a0 f   remoteplayer.obj
 0001:000112c0       ?StateChange@CRemotePlayer@@QAEXEE@Z 77f122c0 f   remoteplayer.obj
 0001:00011370       ??0CRemotePlayer@@QAE@XZ   77f12370 f   remoteplayer.obj
 0001:000113c0       ?Process@CRemotePlayer@@QAEXE@Z 77f123c0 f   remoteplayer.obj
 0001:00011aa0       ?StoreOnFootFullSyncData@CRemotePlayer@@QAEXPAU_ONFOOT_SYNC_DATA@@@Z 77f12aa0 f   remoteplayer.obj
 0001:00011b10       ?StoreInCarFullSyncData@CRemotePlayer@@QAEXPAU_INCAR_SYNC_DATA@@@Z 77f12b10 f   remoteplayer.obj
 0001:00011bb0       ?StorePassengerFullSyncData@CRemotePlayer@@QAEXPAU_PASSENGER_SYNC_DATA@@@Z 77f12bb0 f   remoteplayer.obj
 0001:00011c70       ?Spawn@CRemotePlayer@@QAEHEHPAU_VECTOR@@MK@Z 77f12c70 f   remoteplayer.obj
 0001:00011d40       ?HandleDeath@CRemotePlayer@@QAEXXZ 77f12d40 f   remoteplayer.obj
 0001:00011d70       ?Say@CRemotePlayer@@QAEXPAE@Z 77f12d70 f   remoteplayer.obj
 0001:00011db0       ?EnterVehicle@CRemotePlayer@@QAEXGH@Z 77f12db0 f   remoteplayer.obj
 0001:00011e40       ?ExitVehicle@CRemotePlayer@@QAEXXZ 77f12e40 f   remoteplayer.obj
 0001:00011ea0       ?Util_stristr@@YAPADPBD0@Z 77f12ea0 f   runutil.obj
 0001:00011f60       ?Util_Base64Encode@@YAXPAD0@Z 77f12f60 f   runutil.obj
 0001:00012010       ?ScrSetSpawnInfo@@YAXPAURPCParameters@@@Z 77f13010 f   scriptrpc.obj
 0001:000120b0       ?ScrRemovePlayerFromVehicle@@YAXPAURPCParameters@@@Z 77f130b0 f   scriptrpc.obj
 0001:00012140       ?ScrSetCameraBehindPlayer@@YAXPAURPCParameters@@@Z 77f13140 f   scriptrpc.obj
 0001:00012150       ?ScrResetMoney@@YAXPAURPCParameters@@@Z 77f13150 f   scriptrpc.obj
 0001:00012160       ?ScrResetPlayerWeapons@@YAXPAURPCParameters@@@Z 77f13160 f   scriptrpc.obj
 0001:00012180       ?ScrForceSpawnSelection@@YAXPAURPCParameters@@@Z 77f13180 f   scriptrpc.obj
 0001:000121a0       ?ScrEnableStuntBonus@@YAXPAURPCParameters@@@Z 77f131a0 f   scriptrpc.obj
 0001:00012230       ?UnRegisterScriptRPCs@@YAXPAVRakClientInterface@@@Z 77f13230 f   scriptrpc.obj
 0001:00012580       ?ScrSetPlayerTeam@@YAXPAURPCParameters@@@Z 77f13580 f   scriptrpc.obj
 0001:00012660       ?ScrSetPlayerName@@YAXPAURPCParameters@@@Z 77f13660 f   scriptrpc.obj
 0001:00012790       ?ScrSetPlayerSkin@@YAXPAURPCParameters@@@Z 77f13790 f   scriptrpc.obj
 0001:00012880       ?ScrSetPlayerPos@@YAXPAURPCParameters@@@Z 77f13880 f   scriptrpc.obj
 0001:00012960       ?ScrSetPlayerPosFindZ@@YAXPAURPCParameters@@@Z 77f13960 f   scriptrpc.obj
 0001:00012a60       ?ScrSetPlayerHealth@@YAXPAURPCParameters@@@Z 77f13a60 f   scriptrpc.obj
 0001:00012b10       ?ScrPutPlayerInVehicle@@YAXPAURPCParameters@@@Z 77f13b10 f   scriptrpc.obj
 0001:00012c30       ?ScrSetPlayerColor@@YAXPAURPCParameters@@@Z 77f13c30 f   scriptrpc.obj
 0001:00012d10       ?ScrDisplayGameText@@YAXPAURPCParameters@@@Z 77f13d10 f   scriptrpc.obj
 0001:00012e00       ?ScrSetInterior@@YAXPAURPCParameters@@@Z 77f13e00 f   scriptrpc.obj
 0001:00012ea0       ?ScrSetCameraPos@@YAXPAURPCParameters@@@Z 77f13ea0 f   scriptrpc.obj
 0001:00012f70       ?ScrSetCameraLookAt@@YAXPAURPCParameters@@@Z 77f13f70 f   scriptrpc.obj
 0001:00013040       ?ScrSetVehiclePos@@YAXPAURPCParameters@@@Z 77f14040 f   scriptrpc.obj
 0001:00013140       ?ScrSetVehicleZAngle@@YAXPAURPCParameters@@@Z 77f14140 f   scriptrpc.obj
 0001:00013220       ?ScrVehicleParams@@YAXPAURPCParameters@@@Z 77f14220 f   scriptrpc.obj
 0001:000132f0       ?ScrLinkVehicle@@YAXPAURPCParameters@@@Z 77f142f0 f   scriptrpc.obj
 0001:000133a0       ?ScrTogglePlayerControllable@@YAXPAURPCParameters@@@Z 77f143a0 f   scriptrpc.obj
 0001:00013450       ?ScrPlaySound@@YAXPAURPCParameters@@@Z 77f14450 f   scriptrpc.obj
 0001:00013530       ?ScrSetWorldBounds@@YAXPAURPCParameters@@@Z 77f14530 f   scriptrpc.obj
 0001:00013600       ?ScrHaveSomeMoney@@YAXPAURPCParameters@@@Z 77f14600 f   scriptrpc.obj
 0001:000136a0       ?ScrSetPlayerFacingAngle@@YAXPAURPCParameters@@@Z 77f146a0 f   scriptrpc.obj
 0001:00013740       ?ScrGivePlayerWeapon@@YAXPAURPCParameters@@@Z 77f14740 f   scriptrpc.obj
 0001:00013800       ?ScrRespawnVehicle@@YAXPAURPCParameters@@@Z 77f14800 f   scriptrpc.obj
 0001:00013910       ?ScrDeathMessage@@YAXPAURPCParameters@@@Z 77f14910 f   scriptrpc.obj
 0001:00013ab0       ?ScrSetMapIcon@@YAXPAURPCParameters@@@Z 77f14ab0 f   scriptrpc.obj
 0001:00013bc0       ?ScrDisableMapIcon@@YAXPAURPCParameters@@@Z 77f14bc0 f   scriptrpc.obj
 0001:00013c60       ?ScrSetPlayerArmour@@YAXPAURPCParameters@@@Z 77f14c60 f   scriptrpc.obj
 0001:00013d10       ?ScrSetWeaponAmmo@@YAXPAURPCParameters@@@Z 77f14d10 f   scriptrpc.obj
 0001:00013dd0       ?ScrSetGravity@@YAXPAURPCParameters@@@Z 77f14dd0 f   scriptrpc.obj
 0001:00013e70       ?ScrSetVehicleHealth@@YAXPAURPCParameters@@@Z 77f14e70 f   scriptrpc.obj
 0001:00013f40       ?ScrAttachTrailerToVehicle@@YAXPAURPCParameters@@@Z 77f14f40 f   scriptrpc.obj
 0001:00014030       ?ScrDetachTrailerFromVehicle@@YAXPAURPCParameters@@@Z 77f15030 f   scriptrpc.obj
 0001:000140f0       ?ScrCreateObject@@YAXPAURPCParameters@@@Z 77f150f0 f   scriptrpc.obj
 0001:00014240       ?ScrSetObjectPos@@YAXPAURPCParameters@@@Z 77f15240 f   scriptrpc.obj
 0001:00014350       ?ScrSetObjectRotation@@YAXPAURPCParameters@@@Z 77f15350 f   scriptrpc.obj
 0001:00014450       ?ScrDestroyObject@@YAXPAURPCParameters@@@Z 77f15450 f   scriptrpc.obj
 0001:00014510       ?ScrSetPlayerVirtualWorld@@YAXPAURPCParameters@@@Z 77f15510 f   scriptrpc.obj
 0001:00014610       ?ScrSetVehicleVirtualWorld@@YAXPAURPCParameters@@@Z 77f15610 f   scriptrpc.obj
 0001:000146e0       ?ScrCreateExplosion@@YAXPAURPCParameters@@@Z 77f156e0 f   scriptrpc.obj
 0001:000147f0       ?ScrShowNameTag@@YAXPAURPCParameters@@@Z 77f157f0 f   scriptrpc.obj
 0001:000148c0       ?ScrMoveObject@@YAXPAURPCParameters@@@Z 77f158c0 f   scriptrpc.obj
 0001:00014a20       ?ScrStopObject@@YAXPAURPCParameters@@@Z 77f15a20 f   scriptrpc.obj
 0001:00014b20       ?ScrNumberPlate@@YAXPAURPCParameters@@@Z 77f15b20 f   scriptrpc.obj
 0001:00014be0       ?ScrTogglePlayerSpectating@@YAXPAURPCParameters@@@Z 77f15be0 f   scriptrpc.obj
 0001:00014c80       ?ScrSetPlayerSpectating@@YAXPAURPCParameters@@@Z 77f15c80 f   scriptrpc.obj
 0001:00014d50       ?ScrPlayerSpectatePlayer@@YAXPAURPCParameters@@@Z 77f15d50 f   scriptrpc.obj
 0001:00014e20       ?ScrPlayerSpectateVehicle@@YAXPAURPCParameters@@@Z 77f15e20 f   scriptrpc.obj
 0001:00014ef0       ?ScrRemoveComponent@@YAXPAURPCParameters@@@Z 77f15ef0 f   scriptrpc.obj
 0001:00014fc0       ?ScrAttachObjectToPlayer@@YAXPAURPCParameters@@@Z 77f15fc0 f   scriptrpc.obj
 0001:000151a0       ?ScrInitMenu@@YAXPAURPCParameters@@@Z 77f161a0 f   scriptrpc.obj
 0001:00015460       ?ScrShowMenu@@YAXPAURPCParameters@@@Z 77f16460 f   scriptrpc.obj
 0001:00015500       ?ScrHideMenu@@YAXPAURPCParameters@@@Z 77f16500 f   scriptrpc.obj
 0001:000155a0       ?ScrSetPlayerWantedLevel@@YAXPAURPCParameters@@@Z 77f165a0 f   scriptrpc.obj
 0001:00015640       ?ScrShowTextDraw@@YAXPAURPCParameters@@@Z 77f16640 f   scriptrpc.obj
 0001:00015720       ?ScrHideTextDraw@@YAXPAURPCParameters@@@Z 77f16720 f   scriptrpc.obj
 0001:000157c0       ?ScrEditTextDraw@@YAXPAURPCParameters@@@Z 77f167c0 f   scriptrpc.obj
 0001:000158a0       ?ScrAddGangZone@@YAXPAURPCParameters@@@Z 77f168a0 f   scriptrpc.obj
 0001:000159c0       ?ScrRemoveGangZone@@YAXPAURPCParameters@@@Z 77f169c0 f   scriptrpc.obj
 0001:00015a60       ?ScrFlashGangZone@@YAXPAURPCParameters@@@Z 77f16a60 f   scriptrpc.obj
 0001:00015b20       ?ScrStopFlashGangZone@@YAXPAURPCParameters@@@Z 77f16b20 f   scriptrpc.obj
 0001:00015bc0       ?ScrApplyAnimation@@YAXPAURPCParameters@@@Z 77f16bc0 f   scriptrpc.obj
 0001:00015db0       ?ScrClearAnimations@@YAXPAURPCParameters@@@Z 77f16db0 f   scriptrpc.obj
 0001:00015ea0       ?ScrSetSpecialAction@@YAXPAURPCParameters@@@Z 77f16ea0 f   scriptrpc.obj
 0001:00015f50       ?RegisterScriptRPCs@@YAXPAVRakClientInterface@@@Z 77f16f50 f   scriptrpc.obj
 0001:00016400       ??0CTextDrawPool@@QAE@XZ   77f17400 f   textdrawpool.obj
 0001:00016440       ?New@CTextDrawPool@@QAEPAVCTextDraw@@GPAU_TEXT_DRAW_TRANSMIT@@PAD@Z 77f17440 f   textdrawpool.obj
 0001:00016530       ?Delete@CTextDrawPool@@QAEXG@Z 77f17530 f   textdrawpool.obj
 0001:000165b0       ?Process@CTextDrawPool@@QAEXXZ 77f175b0 f   textdrawpool.obj
 0001:000165d0       ?GetTextPointer@CTextDrawPool@@QAEPADPAD@Z 77f175d0 f   textdrawpool.obj
 0001:00016600       ??1CTextDrawPool@@QAE@XZ   77f17600 f   textdrawpool.obj
 0001:00016650       ??0CVehiclePool@@QAE@XZ    77f17650 f   vehiclepool.obj
 0001:00016690       ?Delete@CVehiclePool@@QAEHG@Z 77f17690 f   vehiclepool.obj
 0001:000166e0       ?LinkToInterior@CVehiclePool@@QAEXGH@Z 77f176e0 f   vehiclepool.obj
 0001:00016710       ?AssignSpecialParamsToVehicle@CVehiclePool@@QAEXGEE@Z 77f17710 f   vehiclepool.obj
 0001:00016780       ?FindIDFromGtaPtr@CVehiclePool@@QAEGPAU_VEHICLE_TYPE@@@Z 77f17780 f   vehiclepool.obj
 0001:000167b0       ?FindGtaIDFromID@CVehiclePool@@QAEHH@Z 77f177b0 f   vehiclepool.obj
 0001:000167d0       ?FindGtaIDFromGtaPtr@CVehiclePool@@QAEHPAU_VEHICLE_TYPE@@@Z 77f177d0 f   vehiclepool.obj
 0001:000167e0       ?SetForRespawn@CVehiclePool@@QAEXGH@Z 77f177e0 f   vehiclepool.obj
 0001:00016820       ?FindNearestToLocalPlayerPed@CVehiclePool@@QAEHXZ 77f17820 f   vehiclepool.obj
 0001:00016890       ??1CVehiclePool@@QAE@XZ    77f17890 f   vehiclepool.obj
 0001:000168e0       ?Spawn@CVehiclePool@@QAEHGHPAU_VECTOR@@MHHHPADHH@Z 77f178e0 f   vehiclepool.obj
 0001:000169f0       ?NotifyVehicleDeath@CVehiclePool@@QAEXG@Z 77f179f0 f   vehiclepool.obj
 0001:00016aa0       ?New@CVehiclePool@@QAEHGHPAU_VECTOR@@MHH0MHPAD@Z 77f17aa0 f   vehiclepool.obj
 0001:00016b50       ?Process@CVehiclePool@@QAEXXZ 77f17b50 f   vehiclepool.obj
 0001:00016db0       ??0CACGhost@@QAE@XZ        77f17db0 f   acghost.obj
 0001:00016dc0       ??1CACGhost@@QAE@XZ        77f17dc0 f   acghost.obj
 0001:00016e10       ?InitializeAsArchive@CACGhost@@AAEXAAVBitStream@RakNet@@@Z 77f17e10 f   acghost.obj
 0001:00016f50       ?DownloadAndInitialize@CACGhost@@QAEHXZ 77f17f50 f   acghost.obj
 0001:000170f0       ??0CAntiCheat@@QAE@XZ      77f180f0 f   anticheat.obj
 0001:00017100       ??1CAntiCheat@@QAE@XZ      77f18100 f   anticheat.obj
 0001:00017100       ?Disable@CAntiCheat@@QAEXXZ 77f18100 f   anticheat.obj
 0001:00017150       ?Enable@CAntiCheat@@QAEXXZ 77f18150 f   anticheat.obj
 0001:000172a0       ??0CChatWindow@@QAE@PAUIDirect3DDevice9@@PAUID3DXFont@@@Z 77f182a0 f   chatwindow.obj
 0001:00017350       ?ResetDialogControls@CChatWindow@@QAEXPAVCDXUTDialog@@@Z 77f18350 f   chatwindow.obj
 0001:00017460       ?ScrollBarPosFromCurrentPage@CChatWindow@@QAEXXZ 77f18460 f   chatwindow.obj
 0001:000174d0       ?PageUp@CChatWindow@@QAEXXZ 77f184d0 f   chatwindow.obj
 0001:000174f0       ?PageDown@CChatWindow@@QAEXXZ 77f184f0 f   chatwindow.obj
 0001:00017510       ?PushBack@CChatWindow@@AAEXXZ 77f18510 f   chatwindow.obj
 0001:00017540       ?RenderText@CChatWindow@@QAEXPADUtagRECT@@K@Z 77f18540 f   chatwindow.obj
 0001:00017650       ?Draw@CChatWindow@@QAEXXZ  77f18650 f   chatwindow.obj
 0001:000177d0       ?AddToChatWindowBuffer@CChatWindow@@AAEXW4eChatMessageType@@PAD1KK@Z 77f187d0 f   chatwindow.obj
 0001:00017970       ?AddChatMessage@CChatWindow@@QAEXPADK0@Z 77f18970 f   chatwindow.obj
 0001:000179c0       ?AddInfoMessage@CChatWindow@@QAAXPADZZ 77f189c0 f   chatwindow.obj
 0001:00017a40       ?AddDebugMessage@CChatWindow@@QAAXPADZZ 77f18a40 f   chatwindow.obj
 0001:00017ac0       ?AddClientMessage@CChatWindow@@QAEXKPAD@Z 77f18ac0 f   chatwindow.obj
 0001:00017b10       ?cmdDefaultCmdProc@@YAXPAD@Z 77f18b10 f   cmdprocs.obj
 0001:00017b30       ?cmdMsg@@YAXPAD@Z          77f18b30 f   cmdprocs.obj
 0001:00017be0       ?cmdTeamMsg@@YAXPAD@Z      77f18be0 f   cmdprocs.obj
 0001:00017c20       ?cmdDiscon@@YAXPAD@Z       77f18c20 f   cmdprocs.obj
 0001:00017d10       ?cmdQuit@@YAXPAD@Z         77f18d10 f   cmdprocs.obj
 0001:00017d20       ?cmdCmpStat@@YAXPAD@Z      77f18d20 f   cmdprocs.obj
 0001:00017db0       ?cmdSavePos@@YAXPAD@Z      77f18db0 f   cmdprocs.obj
 0001:00017ee0       ?cmdPlayerSkin@@YAXPAD@Z   77f18ee0 f   cmdprocs.obj
 0001:00017f50       ?cmdCreateVehicle@@YAXPAD@Z 77f18f50 f   cmdprocs.obj
 0001:00018090       ?cmdSelectVehicle@@YAXPAD@Z 77f19090 f   cmdprocs.obj
 0001:000180b0       ?cmdShowInterior@@YAXPAD@Z 77f190b0 f   cmdprocs.obj
 0001:000180e0       ?cmdRcon@@YAXPAD@Z         77f190e0 f   cmdprocs.obj
 0001:000181b0       ?SetupCommands@@YAXXZ      77f191b0 f   cmdprocs.obj
 0001:00018310       ??0CCmdWindow@@QAE@PAUIDirect3DDevice9@@@Z 77f19310 f   cmdwindow.obj
 0001:00018370       ?Enable@CCmdWindow@@QAEXXZ 77f19370 f   cmdwindow.obj
 0001:000183d0       ?Disable@CCmdWindow@@QAEXXZ 77f193d0 f   cmdwindow.obj
 0001:00018410       ?AddToRecallBuffer@CCmdWindow@@QAEXPAD@Z 77f19410 f   cmdwindow.obj
 0001:00018470       ?RecallUp@CCmdWindow@@QAEXXZ 77f19470 f   cmdwindow.obj
 0001:000184e0       ?RecallDown@CCmdWindow@@QAEXXZ 77f194e0 f   cmdwindow.obj
 0001:00018530       ?GetCmdHandler@CCmdWindow@@QAEP6AXPAD@Z0@Z 77f19530 f   cmdwindow.obj
 0001:00018590       ?AddDefaultCmdProc@CCmdWindow@@QAEXP6AXPAD@Z@Z 77f19590 f   cmdwindow.obj
 0001:000185a0       ?AddCmdProc@CCmdWindow@@QAEXPADP6AX0@Z@Z 77f195a0 f   cmdwindow.obj
 0001:00018610       ?MsgProc@CCmdWindow@@QAEHIKK@Z 77f19610 f   cmdwindow.obj
 0001:00018660       ?ResetDialogControls@CCmdWindow@@QAEXPAVCDXUTDialog@@@Z 77f19660 f   cmdwindow.obj
 0001:000187c0       ?SendToServer@CCmdWindow@@QAEXPAD@Z 77f197c0 f   cmdwindow.obj
 0001:00018890       ?ProcessInput@CCmdWindow@@QAEXXZ 77f19890 f   cmdwindow.obj
 0001:000189f0       ?CreateFonts@CDeathWindow@@QAEXXZ 77f199f0 f   deathwindow.obj
 0001:00018b10       ?RenderText@CDeathWindow@@QAEXPADUtagRECT@@KK@Z 77f19b10 f   deathwindow.obj
 0001:00018b90       ?SpriteIDForWeapon@CDeathWindow@@QAEPADE@Z 77f19b90 f   deathwindow.obj
 0001:00018e90       ??0CDeathWindow@@QAE@PAUIDirect3DDevice9@@@Z 77f19e90 f   deathwindow.obj
 0001:00018ee0       ?Draw@CDeathWindow@@QAEXXZ 77f19ee0 f   deathwindow.obj
 0001:00019200       ?AddToDeathWindowBuffer@CDeathWindow@@AAEXPAD0KKE@Z 77f1a200 f   deathwindow.obj
 0001:00019280       ?AddMessage@CDeathWindow@@QAEXPAD0KKE@Z 77f1a280 f   deathwindow.obj
 0001:00019290       ?DumpNetworkStateInformation@@YAXPAD@Z 77f1a290 f   exceptions.obj
 0001:000193c0       ?DumpMemory@@YAXPAEKPADH@Z 77f1a3c0 f   exceptions.obj
 0001:00019550       ?DumpLoadedModules@@YAXPAD@Z 77f1a550 f   exceptions.obj
 0001:000196e0       ?DumpMain@@YAXH@Z          77f1a6e0 f   exceptions.obj
 0001:000198e0       ?DoCrashReportingStuff@@YAXXZ 77f1a8e0 f   exceptions.obj
 0001:000199b0       ?GuiDlgProcMain@@YGHPAUHWND__@@IIJ@Z 77f1a9b0 f   exceptions.obj
 0001:00019ab0       ?exc_handler@@YGJPAU_EXCEPTION_POINTERS@@@Z 77f1aab0 f   exceptions.obj
 0001:00019af0       ??0CFileSystem@@QAE@XZ     77f1aaf0 f   filesystem.obj
 0001:00019b10       ?Unload@CFileSystem@@UAEXXZ 77f1ab10 f   filesystem.obj
 0001:00019b70       ?GetFileIndex@CFileSystem@@UAEKPAD@Z 77f1ab70 f   filesystem.obj
 0001:00019bd0       ?GetFileSize@CFileSystem@@UAEKK@Z 77f1abd0 f   filesystem.obj
 0001:00019c00       ?GetFileData@CFileSystem@@UAEPAEK@Z 77f1ac00 f   filesystem.obj
 0001:00019c30       ?DecryptData@CFileSystem@@QAEXPAEKG@Z 77f1ac30 f   filesystem.obj
 0001:00019c80       ??1CFileSystem@@UAE@XZ     77f1ac80 f   filesystem.obj
 0001:00019ca0       ?Load@CFileSystem@@UAE_NPAD@Z 77f1aca0 f   filesystem.obj
 0001:00019d70       ??_GCFileSystem@@UAEPAXI@Z 77f1ad70 f i filesystem.obj
 0001:00019d70       ??_ECFileSystem@@UAEPAXI@Z 77f1ad70 f i filesystem.obj
 0001:00019da0       ?CreateFonts@CFontRender@@QAEXXZ 77f1ada0 f   fontrender.obj
 0001:00019e10       ?DeleteDeviceObjects@CFontRender@@QAEXXZ 77f1ae10 f   fontrender.obj
 0001:00019e20       ?RestoreDeviceObjects@CFontRender@@QAEXXZ 77f1ae20 f   fontrender.obj
 0001:00019e30       ?MeasureText@CFontRender@@QAE?AUtagSIZE@@PAD@Z 77f1ae30 f   fontrender.obj
 0001:00019e80       ?RenderText@CFontRender@@QAEXPADUtagRECT@@K@Z 77f1ae80 f   fontrender.obj
 0001:00019ef0       ??0CFontRender@@QAE@PAUIDirect3DDevice9@@@Z 77f1aef0 f   fontrender.obj
 0001:00019f10       ??0CHelpDialog@@QAE@PAUIDirect3DDevice9@@@Z 77f1af10 f   helpdialog.obj
 0001:00019f20       ?Draw@CHelpDialog@@QAEXXZ  77f1af20 f   helpdialog.obj
 0001:0001a0f0       ??0CLabel@@QAE@PAUIDirect3DDevice9@@PAD_N@Z 77f1b0f0 f   label.obj
 0001:0001a150       ?DeleteDeviceObjects@CLabel@@QAEXXZ 77f1b150 f   label.obj
 0001:0001a170       ?RestoreDeviceObjects@CLabel@@QAEXXZ 77f1b170 f   label.obj
 0001:0001a4f0       _MemoryGetProcAddress      77f1b4f0 f   MemoryModule.obj
 0001:0001a590       _MemoryFreeLibrary         77f1b590 f   MemoryModule.obj
 0001:0001a620       _MemoryLoadLibrary         77f1b620 f   MemoryModule.obj
 0001:0001a760       ??0CNetStats@@QAE@PAUIDirect3DDevice9@@@Z 77f1b760 f   netstats.obj
 0001:0001a790       ?Draw@CNetStats@@QAEXXZ    77f1b790 f   netstats.obj
 0001:0001aa10       ??0CNewPlayerTags@@QAE@PAUIDirect3DDevice9@@@Z 77f1ba10 f   newplayertags.obj
 0001:0001aa30       ?Draw@CNewPlayerTags@@QAEXPAUD3DXVECTOR3@@PADKMMM@Z 77f1ba30 f   newplayertags.obj
 0001:0001b0a0       ?DeleteDeviceObjects@CNewPlayerTags@@QAEXXZ 77f1c0a0 f   newplayertags.obj
 0001:0001b0d0       ?RestoreDeviceObjects@CNewPlayerTags@@QAEXXZ 77f1c0d0 f   newplayertags.obj
 0001:0001b4d0       ?Begin@CNewPlayerTags@@QAEXXZ 77f1c4d0 f   newplayertags.obj
 0001:0001b510       ?End@CNewPlayerTags@@QAEXXZ 77f1c510 f   newplayertags.obj
 0001:0001b540       ??0CScoreBoard@@QAE@PAUIDirect3DDevice9@@H@Z 77f1c540 f   scoreboard.obj
 0001:0001b7d0       ?DeleteDeviceObjects@CScoreBoard@@QAEXXZ 77f1c7d0 f   scoreboard.obj
 0001:0001b820       ?RestoreDeviceObjects@CScoreBoard@@QAEXXZ 77f1c820 f   scoreboard.obj
 0001:0001bb30       ?Draw@CScoreBoard@@QAEXXZ  77f1cb30 f   scoreboard.obj
 0001:0001c310       ??0_D3DTLVERTEX@@QAE@XZ    77f1d310 f i spawnscreen.obj
 0001:0001c310       ??0MapNode@?$Map@HPAVHuffmanEncodingTree@@$1??$defaultMapKeyComparison@H@DataStructures@@YAHABH0@Z@DataStructures@@QAE@XZ 77f1d310 f i StringCompressor.obj
 0001:0001c310       ??0?$RangeNode@G@DataStructures@@QAE@XZ 77f1d310 f i ReliabilityLayer.obj
 0001:0001c320       ?SetSpawnText@CSpawnScreen@@QAEXPAD@Z 77f1d320 f   spawnscreen.obj
 0001:0001c380       ??_H@YGXPAXIHP6EPAX0@Z@Z   77f1d380 f i spawnscreen.obj
 0001:0001c3b0       ?RestoreDeviceObjects@CSpawnScreen@@QAEXXZ 77f1d3b0 f   spawnscreen.obj
 0001:0001c660       ?DeleteDeviceObjects@CSpawnScreen@@QAEXXZ 77f1d660 f   spawnscreen.obj
 0001:0001c6b0       ??0CSpawnScreen@@QAE@PAUIDirect3DDevice9@@@Z 77f1d6b0 f   spawnscreen.obj
 0001:0001c6f0       ?Draw@CSpawnScreen@@QAEXXZ 77f1d6f0 f   spawnscreen.obj
 0001:0001c980       ?CycleMode@CChatWindow@@QAEXXZ 77f1d980 f i subclass.obj
 0001:0001c9b0       ?SwitchWindowedMode@@YAXXZ 77f1d9b0 f   subclass.obj
 0001:0001ca00       ?HandleKeyPress@@YAHK@Z    77f1da00 f   subclass.obj
 0001:0001ccf0       ?HandleCharacterInput@@YAHK@Z 77f1dcf0 f   subclass.obj
 0001:0001cd40       ?NewWndProc@@YGJPAUHWND__@@IIJ@Z 77f1dd40 f   subclass.obj
 0001:0001cde0       ?SubclassGameWindow@@YAHXZ 77f1dde0 f   subclass.obj
 0001:0001ce20       ?find_last_of@?$basic_string@DU?$char_traits@D@std@@V?$allocator@D@2@@std@@QBEIPBDII@Z 77f1de20 f i subclass.obj
 0001:0001ceb0       ?_Eos@?$basic_string@DU?$char_traits@D@std@@V?$allocator@D@2@@std@@IAEXI@Z 77f1deb0 f i subclass.obj
 0001:0001ced0       ?_Tidy@?$basic_string@DU?$char_traits@D@std@@V?$allocator@D@2@@std@@IAEX_NI@Z 77f1ded0 f i subclass.obj
 0001:0001cf30       ?erase@?$basic_string@DU?$char_traits@D@std@@V?$allocator@D@2@@std@@QAEAAV12@II@Z 77f1df30 f i subclass.obj
 0001:0001cfb0       ??1?$basic_string@DU?$char_traits@D@std@@V?$allocator@D@2@@std@@QAE@XZ 77f1dfb0 f i subclass.obj
 0001:0001cfe0       ?_Copy@?$basic_string@DU?$char_traits@D@std@@V?$allocator@D@2@@std@@IAEXII@Z 77f1dfe0 f i subclass.obj
 0001:0001d120       ?append@?$basic_string@DU?$char_traits@D@std@@V?$allocator@D@2@@std@@QAEAAV12@ABV12@II@Z 77f1e120 f i subclass.obj
 0001:0001d210       ?assign@?$basic_string@DU?$char_traits@D@std@@V?$allocator@D@2@@std@@QAEAAV12@ABV12@II@Z 77f1e210 f i subclass.obj
 0001:0001d300       ?assign@?$basic_string@DU?$char_traits@D@std@@V?$allocator@D@2@@std@@QAEAAV12@PBDI@Z 77f1e300 f i subclass.obj
 0001:0001d3f0       ?append@?$basic_string@DU?$char_traits@D@std@@V?$allocator@D@2@@std@@QAEAAV12@PBDI@Z 77f1e3f0 f i subclass.obj
 0001:0001d500       ??0?$basic_string@DU?$char_traits@D@std@@V?$allocator@D@2@@std@@QAE@ABV01@@Z 77f1e500 f i subclass.obj
 0001:0001d530       ?assign@?$basic_string@DU?$char_traits@D@std@@V?$allocator@D@2@@std@@QAEAAV12@PBD@Z 77f1e530 f i subclass.obj
 0001:0001d560       ?substr@?$basic_string@DU?$char_traits@D@std@@V?$allocator@D@2@@std@@QBE?AV12@II@Z 77f1e560 f i subclass.obj
 0001:0001d5a0       ??$?HDU?$char_traits@D@std@@V?$allocator@D@1@@std@@YA?AV?$basic_string@DU?$char_traits@D@std@@V?$allocator@D@2@@0@ABV10@PBD@Z 77f1e5a0 f i subclass.obj
 0001:0001d650       ?GetScreenshotFileName@@YAXAAV?$basic_string@DU?$char_traits@D@std@@V?$allocator@D@2@@std@@@Z 77f1e650 f   subclass.obj
 0001:0001d800       ??0CSvrNetStats@@QAE@PAUIDirect3DDevice9@@@Z 77f1e800 f   svrnetstats.obj
 0001:0001d840       ?Draw@CCmdWindow@@QAEXXZ   77f1e840 f   cmdwindow.obj
 0001:0001d840       ?OnHotkey@CDXUTControl@@UAEXXZ 77f1e840 f   DXUTgui.obj
 0001:0001d840       ??1DataBlockEncryptor@@QAE@XZ 77f1e840 f   DataBlockEncryptor.obj
 0001:0001d840       ?CCameraCamShake_Sniper_Hook@@YAXXZ 77f1e840 f   hooks.obj
 0001:0001d840       ??1CTinyEncrypt@@QAE@XZ    77f1e840 f   TinyEncrypt.obj
 0001:0001d840       ??1?$RangeNode@G@DataStructures@@QAE@XZ 77f1e840 f   ReliabilityLayer.obj
 0001:0001d840       ?Draw@CSvrNetStats@@QAEXXZ 77f1e840 f   svrnetstats.obj
 0001:0001d850       ?RenderPlayerTags@@YGXXZ   77f1e850 f   IDirect3DDevice9Hook.obj
 0001:0001da60       ?QueryInterface@IDirect3DDevice9Hook@@UAGJABU_GUID@@PAPAX@Z 77f1ea60 f   IDirect3DDevice9Hook.obj
 0001:0001da70       ?AddRef@IDirect3DDevice9Hook@@UAGKXZ 77f1ea70 f   IDirect3DDevice9Hook.obj
 0001:0001da80       ?Release@IDirect3DDevice9Hook@@UAGKXZ 77f1ea80 f   IDirect3DDevice9Hook.obj
 0001:0001da90       ?TestCooperativeLevel@IDirect3DDevice9Hook@@UAGJXZ 77f1ea90 f   IDirect3DDevice9Hook.obj
 0001:0001daa0       ?GetAvailableTextureMem@IDirect3DDevice9Hook@@UAGIXZ 77f1eaa0 f   IDirect3DDevice9Hook.obj
 0001:0001dab0       ?EvictManagedResources@IDirect3DDevice9Hook@@UAGJXZ 77f1eab0 f   IDirect3DDevice9Hook.obj
 0001:0001dac0       ?GetDirect3D@IDirect3DDevice9Hook@@UAGJPAPAUIDirect3D9@@@Z 77f1eac0 f   IDirect3DDevice9Hook.obj
 0001:0001dad0       ?GetDeviceCaps@IDirect3DDevice9Hook@@UAGJPAU_D3DCAPS9@@@Z 77f1ead0 f   IDirect3DDevice9Hook.obj
 0001:0001dae0       ?GetDisplayMode@IDirect3DDevice9Hook@@UAGJIPAU_D3DDISPLAYMODE@@@Z 77f1eae0 f   IDirect3DDevice9Hook.obj
 0001:0001daf0       ?GetCreationParameters@IDirect3DDevice9Hook@@UAGJPAU_D3DDEVICE_CREATION_PARAMETERS@@@Z 77f1eaf0 f   IDirect3DDevice9Hook.obj
 0001:0001db00       ?SetCursorProperties@IDirect3DDevice9Hook@@UAGJIIPAUIDirect3DSurface9@@@Z 77f1eb00 f   IDirect3DDevice9Hook.obj
 0001:0001db10       ?SetCursorPosition@IDirect3DDevice9Hook@@UAGXHHK@Z 77f1eb10 f   IDirect3DDevice9Hook.obj
 0001:0001db20       ?ShowCursor@IDirect3DDevice9Hook@@UAGHH@Z 77f1eb20 f   IDirect3DDevice9Hook.obj
 0001:0001db30       ?CreateAdditionalSwapChain@IDirect3DDevice9Hook@@UAGJPAU_D3DPRESENT_PARAMETERS_@@PAPAUIDirect3DSwapChain9@@@Z 77f1eb30 f   IDirect3DDevice9Hook.obj
 0001:0001db40       ?GetSwapChain@IDirect3DDevice9Hook@@UAGJIPAPAUIDirect3DSwapChain9@@@Z 77f1eb40 f   IDirect3DDevice9Hook.obj
 0001:0001db50       ?GetNumberOfSwapChains@IDirect3DDevice9Hook@@UAGIXZ 77f1eb50 f   IDirect3DDevice9Hook.obj
 0001:0001db60       ?Reset@IDirect3DDevice9Hook@@UAGJPAU_D3DPRESENT_PARAMETERS_@@@Z 77f1eb60 f   IDirect3DDevice9Hook.obj
 0001:0001db90       ?GetBackBuffer@IDirect3DDevice9Hook@@UAGJIIW4_D3DBACKBUFFER_TYPE@@PAPAUIDirect3DSurface9@@@Z 77f1eb90 f   IDirect3DDevice9Hook.obj
 0001:0001dba0       ?GetRasterStatus@IDirect3DDevice9Hook@@UAGJIPAU_D3DRASTER_STATUS@@@Z 77f1eba0 f   IDirect3DDevice9Hook.obj
 0001:0001dbb0       ?SetDialogBoxMode@IDirect3DDevice9Hook@@UAGJH@Z 77f1ebb0 f   IDirect3DDevice9Hook.obj
 0001:0001dbc0       ?SetGammaRamp@IDirect3DDevice9Hook@@UAGXIKPBU_D3DGAMMARAMP@@@Z 77f1ebc0 f   IDirect3DDevice9Hook.obj
 0001:0001dbd0       ?GetGammaRamp@IDirect3DDevice9Hook@@UAGXIPAU_D3DGAMMARAMP@@@Z 77f1ebd0 f   IDirect3DDevice9Hook.obj
 0001:0001dbe0       ?CreateTexture@IDirect3DDevice9Hook@@UAGJIIIKW4_D3DFORMAT@@W4_D3DPOOL@@PAPAUIDirect3DTexture9@@PAPAX@Z 77f1ebe0 f   IDirect3DDevice9Hook.obj
 0001:0001dbf0       ?CreateVolumeTexture@IDirect3DDevice9Hook@@UAGJIIIIKW4_D3DFORMAT@@W4_D3DPOOL@@PAPAUIDirect3DVolumeTexture9@@PAPAX@Z 77f1ebf0 f   IDirect3DDevice9Hook.obj
 0001:0001dc00       ?CreateCubeTexture@IDirect3DDevice9Hook@@UAGJIIKW4_D3DFORMAT@@W4_D3DPOOL@@PAPAUIDirect3DCubeTexture9@@PAPAX@Z 77f1ec00 f   IDirect3DDevice9Hook.obj
 0001:0001dc10       ?CreateVertexBuffer@IDirect3DDevice9Hook@@UAGJIKKW4_D3DPOOL@@PAPAUIDirect3DVertexBuffer9@@PAPAX@Z 77f1ec10 f   IDirect3DDevice9Hook.obj
 0001:0001dc20       ?CreateIndexBuffer@IDirect3DDevice9Hook@@UAGJIKW4_D3DFORMAT@@W4_D3DPOOL@@PAPAUIDirect3DIndexBuffer9@@PAPAX@Z 77f1ec20 f   IDirect3DDevice9Hook.obj
 0001:0001dc30       ?CreateRenderTarget@IDirect3DDevice9Hook@@UAGJIIW4_D3DFORMAT@@W4_D3DMULTISAMPLE_TYPE@@KHPAPAUIDirect3DSurface9@@PAPAX@Z 77f1ec30 f   IDirect3DDevice9Hook.obj
 0001:0001dc40       ?CreateDepthStencilSurface@IDirect3DDevice9Hook@@UAGJIIW4_D3DFORMAT@@W4_D3DMULTISAMPLE_TYPE@@KHPAPAUIDirect3DSurface9@@PAPAX@Z 77f1ec40 f   IDirect3DDevice9Hook.obj
 0001:0001dc50       ?UpdateSurface@IDirect3DDevice9Hook@@UAGJPAUIDirect3DSurface9@@PBUtagRECT@@0PBUtagPOINT@@@Z 77f1ec50 f   IDirect3DDevice9Hook.obj
 0001:0001dc60       ?UpdateTexture@IDirect3DDevice9Hook@@UAGJPAUIDirect3DBaseTexture9@@0@Z 77f1ec60 f   IDirect3DDevice9Hook.obj
 0001:0001dc70       ?GetRenderTargetData@IDirect3DDevice9Hook@@UAGJPAUIDirect3DSurface9@@0@Z 77f1ec70 f   IDirect3DDevice9Hook.obj
 0001:0001dc90       ?GetFrontBufferData@IDirect3DDevice9Hook@@UAGJIPAUIDirect3DSurface9@@@Z 77f1ec90 f   IDirect3DDevice9Hook.obj
 0001:0001dcb0       ?StretchRect@IDirect3DDevice9Hook@@UAGJPAUIDirect3DSurface9@@PBUtagRECT@@01W4_D3DTEXTUREFILTERTYPE@@@Z 77f1ecb0 f   IDirect3DDevice9Hook.obj
 0001:0001dcd0       ?ColorFill@IDirect3DDevice9Hook@@UAGJPAUIDirect3DSurface9@@PBUtagRECT@@K@Z 77f1ecd0 f   IDirect3DDevice9Hook.obj
 0001:0001dcf0       ?CreateOffscreenPlainSurface@IDirect3DDevice9Hook@@UAGJIIW4_D3DFORMAT@@W4_D3DPOOL@@PAPAUIDirect3DSurface9@@PAPAX@Z 77f1ecf0 f   IDirect3DDevice9Hook.obj
 0001:0001dd10       ?SetRenderTarget@IDirect3DDevice9Hook@@UAGJKPAUIDirect3DSurface9@@@Z 77f1ed10 f   IDirect3DDevice9Hook.obj
 0001:0001dd30       ?GetRenderTarget@IDirect3DDevice9Hook@@UAGJKPAPAUIDirect3DSurface9@@@Z 77f1ed30 f   IDirect3DDevice9Hook.obj
 0001:0001dd50       ?SetDepthStencilSurface@IDirect3DDevice9Hook@@UAGJPAUIDirect3DSurface9@@@Z 77f1ed50 f   IDirect3DDevice9Hook.obj
 0001:0001dd70       ?GetDepthStencilSurface@IDirect3DDevice9Hook@@UAGJPAPAUIDirect3DSurface9@@@Z 77f1ed70 f   IDirect3DDevice9Hook.obj
 0001:0001dd90       ?BeginScene@IDirect3DDevice9Hook@@UAGJXZ 77f1ed90 f   IDirect3DDevice9Hook.obj
 0001:0001de00       ?EndScene@IDirect3DDevice9Hook@@UAGJXZ 77f1ee00 f   IDirect3DDevice9Hook.obj
 0001:0001de70       ?Clear@IDirect3DDevice9Hook@@UAGJKPBU_D3DRECT@@KKMK@Z 77f1ee70 f   IDirect3DDevice9Hook.obj
 0001:0001de90       ?SetTransform@IDirect3DDevice9Hook@@UAGJW4_D3DTRANSFORMSTATETYPE@@PBU_D3DMATRIX@@@Z 77f1ee90 f   IDirect3DDevice9Hook.obj
 0001:0001ded0       ?GetTransform@IDirect3DDevice9Hook@@UAGJW4_D3DTRANSFORMSTATETYPE@@PAU_D3DMATRIX@@@Z 77f1eed0 f   IDirect3DDevice9Hook.obj
 0001:0001def0       ?MultiplyTransform@IDirect3DDevice9Hook@@UAGJW4_D3DTRANSFORMSTATETYPE@@PBU_D3DMATRIX@@@Z 77f1eef0 f   IDirect3DDevice9Hook.obj
 0001:0001df10       ?SetViewport@IDirect3DDevice9Hook@@UAGJPBU_D3DVIEWPORT9@@@Z 77f1ef10 f   IDirect3DDevice9Hook.obj
 0001:0001df30       ?GetViewport@IDirect3DDevice9Hook@@UAGJPAU_D3DVIEWPORT9@@@Z 77f1ef30 f   IDirect3DDevice9Hook.obj
 0001:0001df50       ?SetMaterial@IDirect3DDevice9Hook@@UAGJPBU_D3DMATERIAL9@@@Z 77f1ef50 f   IDirect3DDevice9Hook.obj
 0001:0001df70       ?GetMaterial@IDirect3DDevice9Hook@@UAGJPAU_D3DMATERIAL9@@@Z 77f1ef70 f   IDirect3DDevice9Hook.obj
 0001:0001df90       ?SetLight@IDirect3DDevice9Hook@@UAGJKPBU_D3DLIGHT9@@@Z 77f1ef90 f   IDirect3DDevice9Hook.obj
 0001:0001dfb0       ?GetLight@IDirect3DDevice9Hook@@UAGJKPAU_D3DLIGHT9@@@Z 77f1efb0 f   IDirect3DDevice9Hook.obj
 0001:0001dfd0       ?LightEnable@IDirect3DDevice9Hook@@UAGJKH@Z 77f1efd0 f   IDirect3DDevice9Hook.obj
 0001:0001dff0       ?GetLightEnable@IDirect3DDevice9Hook@@UAGJKPAH@Z 77f1eff0 f   IDirect3DDevice9Hook.obj
 0001:0001e010       ?SetClipPlane@IDirect3DDevice9Hook@@UAGJKPBM@Z 77f1f010 f   IDirect3DDevice9Hook.obj
 0001:0001e030       ?GetClipPlane@IDirect3DDevice9Hook@@UAGJKPAM@Z 77f1f030 f   IDirect3DDevice9Hook.obj
 0001:0001e050       ?SetRenderState@IDirect3DDevice9Hook@@UAGJW4_D3DRENDERSTATETYPE@@K@Z 77f1f050 f   IDirect3DDevice9Hook.obj
 0001:0001e070       ?GetRenderState@IDirect3DDevice9Hook@@UAGJW4_D3DRENDERSTATETYPE@@PAK@Z 77f1f070 f   IDirect3DDevice9Hook.obj
 0001:0001e090       ?CreateStateBlock@IDirect3DDevice9Hook@@UAGJW4_D3DSTATEBLOCKTYPE@@PAPAUIDirect3DStateBlock9@@@Z 77f1f090 f   IDirect3DDevice9Hook.obj
 0001:0001e0b0       ?BeginStateBlock@IDirect3DDevice9Hook@@UAGJXZ 77f1f0b0 f   IDirect3DDevice9Hook.obj
 0001:0001e0d0       ?EndStateBlock@IDirect3DDevice9Hook@@UAGJPAPAUIDirect3DStateBlock9@@@Z 77f1f0d0 f   IDirect3DDevice9Hook.obj
 0001:0001e0f0       ?SetClipStatus@IDirect3DDevice9Hook@@UAGJPBU_D3DCLIPSTATUS9@@@Z 77f1f0f0 f   IDirect3DDevice9Hook.obj
 0001:0001e110       ?GetClipStatus@IDirect3DDevice9Hook@@UAGJPAU_D3DCLIPSTATUS9@@@Z 77f1f110 f   IDirect3DDevice9Hook.obj
 0001:0001e130       ?GetTexture@IDirect3DDevice9Hook@@UAGJKPAPAUIDirect3DBaseTexture9@@@Z 77f1f130 f   IDirect3DDevice9Hook.obj
 0001:0001e150       ?SetTexture@IDirect3DDevice9Hook@@UAGJKPAUIDirect3DBaseTexture9@@@Z 77f1f150 f   IDirect3DDevice9Hook.obj
 0001:0001e170       ?GetTextureStageState@IDirect3DDevice9Hook@@UAGJKW4_D3DTEXTURESTAGESTATETYPE@@PAK@Z 77f1f170 f   IDirect3DDevice9Hook.obj
 0001:0001e190       ?SetTextureStageState@IDirect3DDevice9Hook@@UAGJKW4_D3DTEXTURESTAGESTATETYPE@@K@Z 77f1f190 f   IDirect3DDevice9Hook.obj
 0001:0001e1b0       ?GetSamplerState@IDirect3DDevice9Hook@@UAGJKW4_D3DSAMPLERSTATETYPE@@PAK@Z 77f1f1b0 f   IDirect3DDevice9Hook.obj
 0001:0001e1d0       ?SetSamplerState@IDirect3DDevice9Hook@@UAGJKW4_D3DSAMPLERSTATETYPE@@K@Z 77f1f1d0 f   IDirect3DDevice9Hook.obj
 0001:0001e1f0       ?ValidateDevice@IDirect3DDevice9Hook@@UAGJPAK@Z 77f1f1f0 f   IDirect3DDevice9Hook.obj
 0001:0001e210       ?SetPaletteEntries@IDirect3DDevice9Hook@@UAGJIPBUtagPALETTEENTRY@@@Z 77f1f210 f   IDirect3DDevice9Hook.obj
 0001:0001e230       ?GetPaletteEntries@IDirect3DDevice9Hook@@UAGJIPAUtagPALETTEENTRY@@@Z 77f1f230 f   IDirect3DDevice9Hook.obj
 0001:0001e250       ?SetCurrentTexturePalette@IDirect3DDevice9Hook@@UAGJI@Z 77f1f250 f   IDirect3DDevice9Hook.obj
 0001:0001e270       ?GetCurrentTexturePalette@IDirect3DDevice9Hook@@UAGJPAI@Z 77f1f270 f   IDirect3DDevice9Hook.obj
 0001:0001e290       ?SetScissorRect@IDirect3DDevice9Hook@@UAGJPBUtagRECT@@@Z 77f1f290 f   IDirect3DDevice9Hook.obj
 0001:0001e2b0       ?GetScissorRect@IDirect3DDevice9Hook@@UAGJPAUtagRECT@@@Z 77f1f2b0 f   IDirect3DDevice9Hook.obj
 0001:0001e2d0       ?SetSoftwareVertexProcessing@IDirect3DDevice9Hook@@UAGJH@Z 77f1f2d0 f   IDirect3DDevice9Hook.obj
 0001:0001e2f0       ?GetSoftwareVertexProcessing@IDirect3DDevice9Hook@@UAGHXZ 77f1f2f0 f   IDirect3DDevice9Hook.obj
 0001:0001e310       ?SetNPatchMode@IDirect3DDevice9Hook@@UAGJM@Z 77f1f310 f   IDirect3DDevice9Hook.obj
 0001:0001e330       ?GetNPatchMode@IDirect3DDevice9Hook@@UAGMXZ 77f1f330 f   IDirect3DDevice9Hook.obj
 0001:0001e350       ?DrawPrimitive@IDirect3DDevice9Hook@@UAGJW4_D3DPRIMITIVETYPE@@II@Z 77f1f350 f   IDirect3DDevice9Hook.obj
 0001:0001e370       ?DrawIndexedPrimitive@IDirect3DDevice9Hook@@UAGJW4_D3DPRIMITIVETYPE@@HIIII@Z 77f1f370 f   IDirect3DDevice9Hook.obj
 0001:0001e390       ?DrawPrimitiveUP@IDirect3DDevice9Hook@@UAGJW4_D3DPRIMITIVETYPE@@IPBXI@Z 77f1f390 f   IDirect3DDevice9Hook.obj
 0001:0001e3b0       ?DrawIndexedPrimitiveUP@IDirect3DDevice9Hook@@UAGJW4_D3DPRIMITIVETYPE@@IIIPBXW4_D3DFORMAT@@1I@Z 77f1f3b0 f   IDirect3DDevice9Hook.obj
 0001:0001e3d0       ?ProcessVertices@IDirect3DDevice9Hook@@UAGJIIIPAUIDirect3DVertexBuffer9@@PAUIDirect3DVertexDeclaration9@@K@Z 77f1f3d0 f   IDirect3DDevice9Hook.obj
 0001:0001e3f0       ?CreateVertexDeclaration@IDirect3DDevice9Hook@@UAGJPBU_D3DVERTEXELEMENT9@@PAPAUIDirect3DVertexDeclaration9@@@Z 77f1f3f0 f   IDirect3DDevice9Hook.obj
 0001:0001e410       ?SetVertexDeclaration@IDirect3DDevice9Hook@@UAGJPAUIDirect3DVertexDeclaration9@@@Z 77f1f410 f   IDirect3DDevice9Hook.obj
 0001:0001e430       ?GetVertexDeclaration@IDirect3DDevice9Hook@@UAGJPAPAUIDirect3DVertexDeclaration9@@@Z 77f1f430 f   IDirect3DDevice9Hook.obj
 0001:0001e450       ?SetFVF@IDirect3DDevice9Hook@@UAGJK@Z 77f1f450 f   IDirect3DDevice9Hook.obj
 0001:0001e470       ?GetFVF@IDirect3DDevice9Hook@@UAGJPAK@Z 77f1f470 f   IDirect3DDevice9Hook.obj
 0001:0001e490       ?CreateVertexShader@IDirect3DDevice9Hook@@UAGJPBKPAPAUIDirect3DVertexShader9@@@Z 77f1f490 f   IDirect3DDevice9Hook.obj
 0001:0001e4b0       ?SetVertexShader@IDirect3DDevice9Hook@@UAGJPAUIDirect3DVertexShader9@@@Z 77f1f4b0 f   IDirect3DDevice9Hook.obj
 0001:0001e4d0       ?GetVertexShader@IDirect3DDevice9Hook@@UAGJPAPAUIDirect3DVertexShader9@@@Z 77f1f4d0 f   IDirect3DDevice9Hook.obj
 0001:0001e4f0       ?SetVertexShaderConstantF@IDirect3DDevice9Hook@@UAGJIPBMI@Z 77f1f4f0 f   IDirect3DDevice9Hook.obj
 0001:0001e510       ?GetVertexShaderConstantF@IDirect3DDevice9Hook@@UAGJIPAMI@Z 77f1f510 f   IDirect3DDevice9Hook.obj
 0001:0001e530       ?SetVertexShaderConstantI@IDirect3DDevice9Hook@@UAGJIPBHI@Z 77f1f530 f   IDirect3DDevice9Hook.obj
 0001:0001e550       ?GetVertexShaderConstantI@IDirect3DDevice9Hook@@UAGJIPAHI@Z 77f1f550 f   IDirect3DDevice9Hook.obj
 0001:0001e570       ?SetVertexShaderConstantB@IDirect3DDevice9Hook@@UAGJIPBHI@Z 77f1f570 f   IDirect3DDevice9Hook.obj
 0001:0001e590       ?GetVertexShaderConstantB@IDirect3DDevice9Hook@@UAGJIPAHI@Z 77f1f590 f   IDirect3DDevice9Hook.obj
 0001:0001e5b0       ?SetStreamSource@IDirect3DDevice9Hook@@UAGJIPAUIDirect3DVertexBuffer9@@II@Z 77f1f5b0 f   IDirect3DDevice9Hook.obj
 0001:0001e5d0       ?GetStreamSource@IDirect3DDevice9Hook@@UAGJIPAPAUIDirect3DVertexBuffer9@@PAI1@Z 77f1f5d0 f   IDirect3DDevice9Hook.obj
 0001:0001e5f0       ?SetStreamSourceFreq@IDirect3DDevice9Hook@@UAGJII@Z 77f1f5f0 f   IDirect3DDevice9Hook.obj
 0001:0001e610       ?GetStreamSourceFreq@IDirect3DDevice9Hook@@UAGJIPAI@Z 77f1f610 f   IDirect3DDevice9Hook.obj
 0001:0001e630       ?SetIndices@IDirect3DDevice9Hook@@UAGJPAUIDirect3DIndexBuffer9@@@Z 77f1f630 f   IDirect3DDevice9Hook.obj
 0001:0001e650       ?GetIndices@IDirect3DDevice9Hook@@UAGJPAPAUIDirect3DIndexBuffer9@@@Z 77f1f650 f   IDirect3DDevice9Hook.obj
 0001:0001e670       ?CreatePixelShader@IDirect3DDevice9Hook@@UAGJPBKPAPAUIDirect3DPixelShader9@@@Z 77f1f670 f   IDirect3DDevice9Hook.obj
 0001:0001e690       ?SetPixelShader@IDirect3DDevice9Hook@@UAGJPAUIDirect3DPixelShader9@@@Z 77f1f690 f   IDirect3DDevice9Hook.obj
 0001:0001e6b0       ?GetPixelShader@IDirect3DDevice9Hook@@UAGJPAPAUIDirect3DPixelShader9@@@Z 77f1f6b0 f   IDirect3DDevice9Hook.obj
 0001:0001e6d0       ?SetPixelShaderConstantF@IDirect3DDevice9Hook@@UAGJIPBMI@Z 77f1f6d0 f   IDirect3DDevice9Hook.obj
 0001:0001e6f0       ?GetPixelShaderConstantF@IDirect3DDevice9Hook@@UAGJIPAMI@Z 77f1f6f0 f   IDirect3DDevice9Hook.obj
 0001:0001e710       ?SetPixelShaderConstantI@IDirect3DDevice9Hook@@UAGJIPBHI@Z 77f1f710 f   IDirect3DDevice9Hook.obj
 0001:0001e730       ?GetPixelShaderConstantI@IDirect3DDevice9Hook@@UAGJIPAHI@Z 77f1f730 f   IDirect3DDevice9Hook.obj
 0001:0001e750       ?SetPixelShaderConstantB@IDirect3DDevice9Hook@@UAGJIPBHI@Z 77f1f750 f   IDirect3DDevice9Hook.obj
 0001:0001e770       ?GetPixelShaderConstantB@IDirect3DDevice9Hook@@UAGJIPAHI@Z 77f1f770 f   IDirect3DDevice9Hook.obj
 0001:0001e790       ?DrawRectPatch@IDirect3DDevice9Hook@@UAGJIPBMPBU_D3DRECTPATCH_INFO@@@Z 77f1f790 f   IDirect3DDevice9Hook.obj
 0001:0001e7b0       ?DrawTriPatch@IDirect3DDevice9Hook@@UAGJIPBMPBU_D3DTRIPATCH_INFO@@@Z 77f1f7b0 f   IDirect3DDevice9Hook.obj
 0001:0001e7d0       ?DeletePatch@IDirect3DDevice9Hook@@UAGJI@Z 77f1f7d0 f   IDirect3DDevice9Hook.obj
 0001:0001e7f0       ?CreateQuery@IDirect3DDevice9Hook@@UAGJW4_D3DQUERYTYPE@@PAPAUIDirect3DQuery9@@@Z 77f1f7f0 f   IDirect3DDevice9Hook.obj
 0001:0001e810       ?Present@IDirect3DDevice9Hook@@UAGJPBUtagRECT@@0PAUHWND__@@PBU_RGNDATA@@@Z 77f1f810 f   IDirect3DDevice9Hook.obj
 0001:0001eca0       ?StringCopyWorkerA@@YGJPADIPBD@Z 77f1fca0 f i DXUT.obj
 0001:0001ecf0       ?StringVPrintfWorkerA@@YGJPADIPBD0@Z 77f1fcf0 f i DXUT.obj
 0001:0001ed50       ?Create@DXUTState@@QAEXXZ  77f1fd50 f i DXUT.obj
 0001:0001edb0       ?SetD3D@DXUTState@@QAEXPAUIDirect3D9@@@Z 77f1fdb0 f i DXUT.obj
 0001:0001edf0       ?GetD3D@DXUTState@@QAEPAUIDirect3D9@@XZ 77f1fdf0 f i DXUT.obj
 0001:0001ee30       ?SetD3DDevice@DXUTState@@QAEXPAUIDirect3DDevice9@@@Z 77f1fe30 f i DXUT.obj
 0001:0001ee70       ?GetD3DDevice@DXUTState@@QAEPAUIDirect3DDevice9@@XZ 77f1fe70 f i DXUT.obj
 0001:0001eeb0       ?SetD3DEnumeration@DXUTState@@QAEXPAVCD3DEnumeration@@@Z 77f1feb0 f i DXUT.obj
 0001:0001eef0       ?SetCurrentDeviceSettings@DXUTState@@QAEXPAUDXUTDeviceSettings@@@Z 77f1fef0 f i DXUT.obj
 0001:0001ef30       ?GetCurrentDeviceSettings@DXUTState@@QAEPAUDXUTDeviceSettings@@XZ 77f1ff30 f i DXUT.obj
 0001:0001ef70       ?GetBackBufferSurfaceDesc@DXUTState@@QAEPAU_D3DSURFACE_DESC@@XZ 77f1ff70 f i DXUT.obj
 0001:0001efb0       ?GetCaps@DXUTState@@QAEPAU_D3DCAPS9@@XZ 77f1ffb0 f i DXUT.obj
 0001:0001eff0       ?GetHWNDDeviceFullScreen@DXUTState@@QAEPAUHWND__@@XZ 77f1fff0 f i DXUT.obj
 0001:0001f030       ?GetHWNDDeviceWindowed@DXUTState@@QAEPAUHWND__@@XZ 77f20030 f i DXUT.obj
 0001:0001f070       ?GetTime@DXUTState@@QAENXZ 77f20070 f i DXUT.obj
 0001:0001f0c0       ?SetAllowShortcutKeys@DXUTState@@QAEX_N@Z 77f200c0 f i DXUT.obj
 0001:0001f100       ?GetShowMsgBoxOnError@DXUTState@@QAE_NXZ 77f20100 f i DXUT.obj
 0001:0001f140       ?SetExitCode@DXUTState@@QAEXH@Z 77f20140 f i DXUT.obj
 0001:0001f180       ?SetDeviceCreated@DXUTState@@QAEX_N@Z 77f20180 f i DXUT.obj
 0001:0001f1c0       ?SetInsideDeviceCallback@DXUTState@@QAEX_N@Z 77f201c0 f i DXUT.obj
 0001:0001f200       ?SetDeviceObjectsCreated@DXUTState@@QAEX_N@Z 77f20200 f i DXUT.obj
 0001:0001f240       ?GetDeviceObjectsCreated@DXUTState@@QAE_NXZ 77f20240 f i DXUT.obj
 0001:0001f280       ?SetDeviceObjectsReset@DXUTState@@QAEX_N@Z 77f20280 f i DXUT.obj
 0001:0001f2c0       ?GetDeviceObjectsReset@DXUTState@@QAE_NXZ 77f202c0 f i DXUT.obj
 0001:0001f300       ?GetDeviceLostFunc@DXUTState@@QAEP6GXPAX@ZXZ 77f20300 f i DXUT.obj
 0001:0001f340       ?GetDeviceDestroyedFunc@DXUTState@@QAEP6GXPAX@ZXZ 77f20340 f i DXUT.obj
 0001:0001f380       ?GetDeviceLostFuncUserContext@DXUTState@@QAEPAXXZ 77f20380 f i DXUT.obj
 0001:0001f3c0       ?GetDeviceDestroyedFuncUserContext@DXUTState@@QAEPAXXZ 77f203c0 f i DXUT.obj
 0001:0001f400       ?GetWindowTitle@DXUTState@@QAEPADXZ 77f20400 f i DXUT.obj
 0001:0001f440       ?StringCchCopyA@@YGJPADIPBD@Z 77f20440 f i DXUT.obj
 0001:0001f460       ?StringCchPrintfA@@YAJPADIPBDZZ 77f20460 f i DXUT.obj
 0001:0001f490       ?DXUTGetHWND@@YAPAUHWND__@@XZ 77f20490 f   DXUT.obj
 0001:0001f4d0       ?DXUTDisplayErrorMessage@@YAXJ@Z 77f204d0 f   DXUT.obj
 0001:0001f800       ?DXUTCleanup3DEnvironment@@YAX_N@Z 77f20800 f   DXUT.obj
 0001:0001f970       ?DXUTShutdown@@YAXH@Z      77f20970 f   DXUT.obj
 0001:0001fa20       ?GetDXUTState@@YAAAVDXUTState@@XZ 77f20a20 f   DXUT.obj
 0001:0001fa80       ?DXUTGetTime@@YANXZ        77f20a80 f   DXUT.obj
 0001:0001fa90       ?OnFocusIn@CDXUTControl@@UAEXXZ 77f20a90 f i DXUTgui.obj
 0001:0001faa0       ?OnFocusOut@CDXUTControl@@UAEXXZ 77f20aa0 f i DXUTgui.obj
 0001:0001fab0       ?Dummy_ScriptApplyDigitSubstitution@CUniBuffer@@CGJPBUtag_SCRIPT_DIGITSUBSTITUTE@@PAUtag_SCRIPT_CONTROL@@PAUtag_SCRIPT_STATE@@@Z 77f20ab0 f i DXUTgui.obj
 0001:0001fac0       ?Dummy_ScriptStringAnalyse@CUniBuffer@@CGJPAUHDC__@@PBXHHHKHPAUtag_SCRIPT_CONTROL@@PAUtag_SCRIPT_STATE@@PBHPAUtag_SCRIPT_TABDEF@@PBEPAPAX@Z 77f20ac0 f i DXUTgui.obj
 0001:0001fad0       ?Dummy_ScriptStringXtoCP@CUniBuffer@@CGJPAXHPAH1@Z 77f20ad0 f i DXUTgui.obj
 0001:0001fad0       ?Dummy_ScriptStringCPtoX@CUniBuffer@@CGJPAXHHPAH@Z 77f20ad0 f i DXUTgui.obj
 0001:0001fae0       ?Dummy_ScriptStringFree@CUniBuffer@@CGJPAPAX@Z 77f20ae0 f i DXUTgui.obj
 0001:0001faf0       ?Dummy_ScriptString_pcOutChars@CUniBuffer@@CGPBHPAX@Z 77f20af0 f i DXUTgui.obj
 0001:0001faf0       ?Dummy_ImmGetVirtualKey@CDXUTIMEEditBox@@KGIPAUHWND__@@@Z 77f20af0 f i DXUTgui.obj
 0001:0001faf0       ?Dummy_ImmGetOpenStatus@CDXUTIMEEditBox@@KGHPAUHIMC__@@@Z 77f20af0 f i DXUTgui.obj
 0001:0001faf0       ?Dummy_ImmUnlockIMC@CDXUTIMEEditBox@@KGHPAUHIMC__@@@Z 77f20af0 f i DXUTgui.obj
 0001:0001faf0       ?Dummy_ImmIsIME@CDXUTIMEEditBox@@KGHPAUHKL__@@@Z 77f20af0 f i DXUTgui.obj
 0001:0001faf0       ?Dummy_ImmGetDefaultIMEWnd@CDXUTIMEEditBox@@KGPAUHWND__@@PAU2@@Z 77f20af0 f i DXUTgui.obj
 0001:0001faf0       ?Dummy_ImmLockIMC@CDXUTIMEEditBox@@KGPAU__MIDL___MIDL_itf_dimm_0000_0012@@PAUHIMC__@@@Z 77f20af0 f i DXUTgui.obj
 0001:0001faf0       ?Dummy_ScriptString_pLogAttr@CUniBuffer@@CGPBUtag_SCRIPT_LOGATTR@@PAX@Z 77f20af0 f i DXUTgui.obj
 0001:0001faf0       ?Dummy_ImmLockIMCC@CDXUTIMEEditBox@@KGPAXPAUHIMCC__@@@Z 77f20af0 f i DXUTgui.obj
 0001:0001faf0       ?Dummy_ImmUnlockIMCC@CDXUTIMEEditBox@@KGHPAUHIMCC__@@@Z 77f20af0 f i DXUTgui.obj
 0001:0001faf0       ?Dummy_ImmGetContext@CDXUTIMEEditBox@@KGPAUHIMC__@@PAUHWND__@@@Z 77f20af0 f i DXUTgui.obj
 0001:0001fb00       ?Dummy_ImmDisableTextFrameService@CDXUTIMEEditBox@@KGHK@Z 77f20b00 f i DXUTgui.obj
 0001:0001fb10       ?Dummy_ImmGetCompositionStringW@CDXUTIMEEditBox@@KGJPAUHIMC__@@KPAXK@Z 77f20b10 f i DXUTgui.obj
 0001:0001fb20       ?Dummy_GetFileVersionInfoA@CDXUTIMEEditBox@@KGHPADKKPAX@Z 77f20b20 f i DXUTgui.obj
 0001:0001fb20       ?Dummy_ImmNotifyIME@CDXUTIMEEditBox@@KGHPAUHIMC__@@KKK@Z 77f20b20 f i DXUTgui.obj
 0001:0001fb20       ?Dummy_ImmGetCandidateListW@CDXUTIMEEditBox@@KGKPAUHIMC__@@KPAUtagCANDIDATELIST@@K@Z 77f20b20 f i DXUTgui.obj
 0001:0001fb20       ?Dummy_VerQueryValueA@CDXUTIMEEditBox@@KGHQAXPADPAPAXPAI@Z 77f20b20 f i DXUTgui.obj
 0001:0001fb30       ?Dummy_ShowReadingWindow@CDXUTIMEEditBox@@KGHPAUHIMC__@@H@Z 77f20b30 f i DXUTgui.obj
 0001:0001fb30       ?Dummy_ImmSetOpenStatus@CDXUTIMEEditBox@@KGHPAUHIMC__@@H@Z 77f20b30 f i DXUTgui.obj
 0001:0001fb30       ?Dummy_ImmReleaseContext@CDXUTIMEEditBox@@KGHPAUHWND__@@PAUHIMC__@@@Z 77f20b30 f i DXUTgui.obj
 0001:0001fb30       ?Dummy_ImmAssociateContext@CDXUTIMEEditBox@@KGPAUHIMC__@@PAUHWND__@@PAU2@@Z 77f20b30 f i DXUTgui.obj
 0001:0001fb30       ?Dummy_ImmSimulateHotKey@CDXUTIMEEditBox@@KGHPAUHWND__@@K@Z 77f20b30 f i DXUTgui.obj
 0001:0001fb30       ?Dummy_GetFileVersionInfoSizeA@CDXUTIMEEditBox@@KGKPADPAK@Z 77f20b30 f i DXUTgui.obj
 0001:0001fb40       ?Dummy_ImmGetConversionStatus@CDXUTIMEEditBox@@KGHPAUHIMC__@@PAK1@Z 77f20b40 f i DXUTgui.obj
 0001:0001fb40       ?Dummy_ImmGetIMEFileNameA@CDXUTIMEEditBox@@KGIPAUHKL__@@PADI@Z 77f20b40 f i DXUTgui.obj
 0001:0001fb40       ?Dummy_ImmSetConversionStatus@CDXUTIMEEditBox@@KGHPAUHIMC__@@KK@Z 77f20b40 f i DXUTgui.obj
 0001:0001fb50       ?Dummy_GetReadingString@CDXUTIMEEditBox@@KGIPAUHIMC__@@IPADPAH2PAI@Z 77f20b50 f i DXUTgui.obj
 0001:0001fb60       ?SetCallback@CDXUTDialog@@QAEXP6GXIHPAVCDXUTControl@@PAX@Z1@Z 77f20b60 f   DXUTgui.obj
 0001:0001fb80       ?RequestFocus@CDXUTDialog@@QAEXPAVCDXUTControl@@@Z 77f20b80 f   DXUTgui.obj
 0001:0001fbc0       ?DrawRect@CDXUTDialog@@QAEJPAUtagRECT@@K@Z 77f20bc0 f   DXUTgui.obj
 0001:0001fdc0       ?UpdateRects@CDXUTControl@@MAEXXZ 77f20dc0 f   DXUTgui.obj
 0001:0001fdf0       ?UpdateThumbRect@CDXUTScrollBar@@IAEXXZ 77f20df0 f   DXUTgui.obj
 0001:0001fe80       ?ShowItem@CDXUTScrollBar@@QAEXH@Z 77f20e80 f   DXUTgui.obj
 0001:0001fec0       ?Cap@CDXUTScrollBar@@IAEXXZ 77f20ec0 f   DXUTgui.obj
 0001:0001ff10       ?UpdateRects@CDXUTEditBox@@UAEXXZ 77f20f10 f   DXUTgui.obj
 0001:00020060       ?CopyToClipboard@CDXUTEditBox@@IAEXXZ 77f21060 f   DXUTgui.obj
 0001:00020120       ?SetBufferSize@CUniBuffer@@QAE_NH@Z 77f21120 f   DXUTgui.obj
 0001:000201f0       ?Analyse@CUniBuffer@@AAEJXZ 77f211f0 f   DXUTgui.obj
 0001:000202b0       ??1CUniBuffer@@QAE@XZ      77f212b0 f   DXUTgui.obj
 0001:000202e0       ?InsertChar@CUniBuffer@@QAE_NHD@Z 77f212e0 f   DXUTgui.obj
 0001:00020380       ?RemoveChar@CUniBuffer@@QAE_NH@Z 77f21380 f   DXUTgui.obj
 0001:000203e0       ?InsertString@CUniBuffer@@QAE_NHPBDH@Z 77f213e0 f   DXUTgui.obj
 0001:000204a0       ?CPtoX@CUniBuffer@@QAEJHHPAH@Z 77f214a0 f   DXUTgui.obj
 0001:000204e0       ?XtoCP@CUniBuffer@@QAEJHPAH0@Z 77f214e0 f   DXUTgui.obj
 0001:00020570       ?GetPriorItemPos@CUniBuffer@@QAEXHPAH@Z 77f21570 f   DXUTgui.obj
 0001:00020600       ?GetNextItemPos@CUniBuffer@@QAEXHPAH@Z 77f21600 f   DXUTgui.obj
 0001:000206d0       ?ResetCaretBlink@CDXUTEditBox@@IAEXXZ 77f216d0 f   DXUTgui.obj
 0001:000206f0       ?Init@DXUTBlendColor@@QAEXKKK@Z 77f216f0 f   DXUTgui.obj
 0001:000207a0       ?Blend@DXUTBlendColor@@QAEXIMM@Z 77f217a0 f   DXUTgui.obj
 0001:00020870       ?Refresh@CDXUTElement@@QAEXXZ 77f21870 f   DXUTgui.obj
 0001:00020970       ?SetSizeInternal@?$CGrowableArray@PAUDXUTElementHolder@@@@IAEJH@Z 77f21970 f i DXUTgui.obj
 0001:00020970       ?SetSizeInternal@?$CGrowableArray@PAVCDXUTElement@@@@IAEJH@Z 77f21970 f i DXUTgui.obj
 0001:00020970       ?SetSizeInternal@?$CGrowableArray@H@@IAEJH@Z 77f21970 f i DXUT.obj
 0001:00020970       ?SetSizeInternal@?$CGrowableArray@PAUDXUTTextureNode@@@@IAEJH@Z 77f21970 f i DXUTgui.obj
 0001:00020970       ?SetSizeInternal@?$CGrowableArray@PAUDXUTFontNode@@@@IAEJH@Z 77f21970 f i DXUTgui.obj
 0001:00020970       ?SetSizeInternal@?$CGrowableArray@PAVCDXUTControl@@@@IAEJH@Z 77f21970 f i DXUTgui.obj
 0001:00020a00       ?OnResetDevice@CDXUTDialogResourceManager@@QAEJXZ 77f21a00 f   DXUTgui.obj
 0001:00020a60       ?OnLostDevice@CDXUTDialogResourceManager@@QAEXXZ 77f21a60 f   DXUTgui.obj
 0001:00020ac0       ?OnDestroyDevice@CDXUTDialogResourceManager@@QAEXXZ 77f21ac0 f   DXUTgui.obj
 0001:00020b40       ?DrawSprite@CDXUTDialog@@QAEJPAVCDXUTElement@@PAUtagRECT@@@Z 77f21b40 f   DXUTgui.obj
 0001:00020e10       ?FocusDefaultControl@CDXUTDialog@@QAEXXZ 77f21e10 f   DXUTgui.obj
 0001:00020e70       ?CreateFontA@CDXUTDialogResourceManager@@QAEJI@Z 77f21e70 f   DXUTgui.obj
 0001:00020ed0       ?CreateTexture@CDXUTDialogResourceManager@@QAEJI@Z 77f21ed0 f   DXUTgui.obj
 0001:00020f70       ?SetTextColor@CDXUTControl@@UAEXK@Z 77f21f70 f   DXUTgui.obj
 0001:00020f90       ?Refresh@CDXUTControl@@UAEXXZ 77f21f90 f   DXUTgui.obj
 0001:00020fc0       ?UpdateRects@CDXUTScrollBar@@UAEXXZ 77f21fc0 f   DXUTgui.obj
 0001:00021050       ?Scroll@CDXUTScrollBar@@QAEXH@Z 77f22050 f   DXUTgui.obj
 0001:000210b0       ?HandleMouse@CDXUTScrollBar@@UAE_NIUtagPOINT@@IJ@Z 77f220b0 f   DXUTgui.obj
 0001:00021330       ?Render@CDXUTScrollBar@@UAEXPAUIDirect3DDevice9@@M@Z 77f22330 f   DXUTgui.obj
 0001:00021530       ?SetTrackRange@CDXUTScrollBar@@QAEXHH@Z 77f22530 f   DXUTgui.obj
 0001:00021590       ?PlaceCaret@CDXUTEditBox@@IAEXH@Z 77f22590 f   DXUTgui.obj
 0001:000216e0       ?DeleteSelectionText@CDXUTEditBox@@IAEXXZ 77f226e0 f   DXUTgui.obj
 0001:00021770       ?PasteFromClipboard@CDXUTEditBox@@IAEXXZ 77f22770 f   DXUTgui.obj
 0001:000217f0       ?HandleKeyboard@CDXUTEditBox@@UAE_NIIJ@Z 77f227f0 f   DXUTgui.obj
 0001:00021a60       ?HandleMouse@CDXUTEditBox@@UAE_NIUtagPOINT@@IJ@Z 77f22a60 f   DXUTgui.obj
 0001:00021c00       ?OnFocusIn@CDXUTEditBox@@UAEXXZ 77f22c00 f   DXUTgui.obj
 0001:00021c30       ?MsgProc@CDXUTEditBox@@UAE_NIIJ@Z 77f22c30 f   DXUTgui.obj
 0001:00021ea0       ??1CCandList@CDXUTIMEEditBox@@QAE@XZ 77f22ea0 f i DXUTgui.obj
 0001:00021ed0       ?SetText@CUniBuffer@@QAE_NPBD@Z 77f22ed0 f   DXUTgui.obj
 0001:00021f40       ?OnCreateDevice@CDXUTDialogResourceManager@@QAEJPAUIDirect3DDevice9@@@Z 77f22f40 f   DXUTgui.obj
 0001:00022010       ?Refresh@CDXUTDialog@@QAEXXZ 77f23010 f   DXUTgui.obj
 0001:00022090       ?AddFont@CDXUTDialogResourceManager@@QAEHPBDJJ@Z 77f23090 f   DXUTgui.obj
 0001:00022190       ?SetFont@CDXUTDialog@@QAEJIPBDJJ@Z 77f23190 f   DXUTgui.obj
 0001:00022210       ?AddTexture@CDXUTDialogResourceManager@@QAEHPBD@Z 77f23210 f   DXUTgui.obj
 0001:000222e0       ?SetTexture@CDXUTDialog@@QAEJIPBD@Z 77f232e0 f   DXUTgui.obj
 0001:00022350       ?SetDefaultElement@CDXUTDialog@@QAEJIIPAVCDXUTElement@@@Z 77f23350 f   DXUTgui.obj
 0001:00022400       ?DrawTextA@CDXUTDialog@@QAEJPBDPAVCDXUTElement@@PAUtagRECT@@_NH@Z 77f23400 f   DXUTgui.obj
 0001:000227a0       ?InitDefaultElements@CDXUTDialog@@AAEXXZ 77f237a0 f   DXUTgui.obj
 0001:000237f0       ?SetElement@CDXUTControl@@QAEJIPAVCDXUTElement@@@Z 77f247f0 f   DXUTgui.obj
 0001:00023890       ?SetText@CDXUTEditBox@@QAEXPBD_N@Z 77f24890 f   DXUTgui.obj
 0001:000238f0       ?Render@CDXUTEditBox@@UAEXPAUIDirect3DDevice9@@M@Z 77f248f0 f   DXUTgui.obj
 0001:00023cc0       ?Initialize@CUniBuffer@@SAXXZ 77f24cc0 f   DXUTgui.obj
 0001:00023e10       ?Init@CDXUTDialog@@QAEXPAVCDXUTDialogResourceManager@@@Z 77f24e10 f   DXUTgui.obj
 0001:00023e30       ?RemoveAllControls@CDXUTDialog@@QAEXXZ 77f24e30 f   DXUTgui.obj
 0001:00023ec0       ?OnRender@CDXUTDialog@@QAEJM@Z 77f24ec0 f   DXUTgui.obj
 0001:000242b0       ?InitControl@CDXUTDialog@@QAEJPAVCDXUTControl@@@Z 77f252b0 f   DXUTgui.obj
 0001:00024320       ?AddControl@CDXUTDialog@@QAEJPAVCDXUTControl@@@Z 77f25320 f   DXUTgui.obj
 0001:00024360       ??0CCandList@CDXUTIMEEditBox@@QAE@XZ 77f25360 f i DXUTgui.obj
 0001:00024390       ??0CDXUTDialog@@QAE@XZ     77f25390 f   DXUTgui.obj
 0001:00024460       ??1CDXUTDialog@@QAE@XZ     77f25460 f   DXUTgui.obj
 0001:000245d0       ??0CDXUTDialogResourceManager@@QAE@XZ 77f255d0 f   DXUTgui.obj
 0001:000245f0       ?OnInit@CDXUTControl@@UAEJXZ 77f255f0 f i DXUTgui.obj
 0001:00024600       ?Render@CDXUTControl@@UAEXPAUIDirect3DDevice9@@M@Z 77f25600 f i DXUTgui.obj
 0001:00024610       ?HandleKeyboard@CDXUTScrollBar@@UAE_NIIJ@Z 77f25610 f i DXUTgui.obj
 0001:00024610       ?MsgProc@CDXUTControl@@UAE_NIIJ@Z 77f25610 f i DXUTgui.obj
 0001:00024610       ?HandleKeyboard@CDXUTControl@@UAE_NIIJ@Z 77f25610 f i DXUTgui.obj
 0001:00024620       ?HandleMouse@CDXUTControl@@UAE_NIUtagPOINT@@IJ@Z 77f25620 f i DXUTgui.obj
 0001:00024630       ?CanHaveFocus@CDXUTControl@@UAE_NXZ 77f25630 f i DXUTgui.obj
 0001:00024640       ?OnMouseEnter@CDXUTControl@@UAEXXZ 77f25640 f i DXUTgui.obj
 0001:00024650       ?OnMouseLeave@CDXUTControl@@UAEXXZ 77f25650 f i DXUTgui.obj
 0001:00024660       ?ContainsPoint@CDXUTControl@@UAEHUtagPOINT@@@Z 77f25660 f i DXUTgui.obj
 0001:00024680       ?SetEnabled@CDXUTControl@@UAEX_N@Z 77f25680 f i DXUTgui.obj
 0001:00024690       ?GetEnabled@CDXUTControl@@UAE_NXZ 77f25690 f i DXUTgui.obj
 0001:000246a0       ?SetVisible@CDXUTControl@@UAEX_N@Z 77f256a0 f i DXUTgui.obj
 0001:000246b0       ?GetVisible@CDXUTControl@@UAE_NXZ 77f256b0 f i DXUTgui.obj
 0001:000246c0       ??1CDXUTControl@@UAE@XZ    77f256c0 f   DXUTgui.obj
 0001:00024750       ??0CDXUTScrollBar@@QAE@PAVCDXUTDialog@@@Z 77f25750 f   DXUTgui.obj
 0001:00024820       ??1CDXUTScrollBar@@UAE@XZ  77f25820 f   DXUTgui.obj
 0001:00024830       ??0CDXUTEditBox@@QAE@PAVCDXUTDialog@@@Z 77f25830 f   DXUTgui.obj
 0001:00024990       ?CanHaveFocus@CDXUTEditBox@@UAE_NXZ 77f25990 f i DXUTgui.obj
 0001:000249b0       ?SetTextColor@CDXUTEditBox@@UAEXK@Z 77f259b0 f i DXUTgui.obj
 0001:000249c0       ??1CDXUTEditBox@@UAE@XZ    77f259c0 f   DXUTgui.obj
 0001:00024a30       ?AddEditBox@CDXUTDialog@@QAEJHPBDHHHH_NPAPAVCDXUTEditBox@@@Z 77f25a30 f   DXUTgui.obj
 0001:00024b80       ??_ECDXUTControl@@UAEPAXI@Z 77f25b80 f i DXUTgui.obj
 0001:00024b80       ??_GCDXUTControl@@UAEPAXI@Z 77f25b80 f i DXUTgui.obj
 0001:00024ba0       ??_ECDXUTScrollBar@@UAEPAXI@Z 77f25ba0 f i DXUTgui.obj
 0001:00024ba0       ??_GCDXUTScrollBar@@UAEPAXI@Z 77f25ba0 f i DXUTgui.obj
 0001:00024bc0       ??_ECDXUTEditBox@@UAEPAXI@Z 77f25bc0 f i DXUTgui.obj
 0001:00024bc0       ??_GCDXUTEditBox@@UAEPAXI@Z 77f25bc0 f i DXUTgui.obj
 0001:00024be0       ??0CDXUTTimer@@QAE@XZ      77f25be0 f   DXUTmisc.obj
 0001:00024c30       ?GetAbsoluteTime@CDXUTTimer@@QAENXZ 77f25c30 f   DXUTmisc.obj
 0001:00024c90       ?DXUTGetGlobalTimer@@YAPAVCDXUTTimer@@XZ 77f25c90 f   DXUTmisc.obj
 0001:00024cc0       ?DXUTFindMediaSearchTypicalDirs@@YA_NPADHPBD00@Z 77f25cc0 f   DXUTmisc.obj
 0001:00024e20       ?DXUTFindMediaSearchParentDirs@@YA_NPADH00@Z 77f25e20 f   DXUTmisc.obj
 0001:00024f60       ?DXUTFindDXSDKMediaFileCch@@YAJPADHPBD@Z 77f25f60 f   DXUTmisc.obj
 0001:000251a0       ?OnLostDevice@CDXUTResourceCache@@QAEJXZ 77f261a0 f   DXUTmisc.obj
 0001:00025290       ?OnDestroyDevice@CDXUTResourceCache@@QAEJXZ 77f26290 f   DXUTmisc.obj
 0001:000253f0       ??1?$CGrowableArray@PAVCDXUTControl@@@@QAE@XZ 77f263f0 f i DXUTgui.obj
 0001:000253f0       ??1?$CGrowableArray@PAUDXUTElementHolder@@@@QAE@XZ 77f263f0 f i DXUTgui.obj
 0001:000253f0       ??1?$CGrowableArray@H@@QAE@XZ 77f263f0 f i DXUT.obj
 0001:000253f0       ??1?$CGrowableArray@UDXUTCache_Effect@@@@QAE@XZ 77f263f0 f i DXUTmisc.obj
 0001:000253f0       ??1?$CGrowableArray@UDXUTCache_Font@@@@QAE@XZ 77f263f0 f i DXUTmisc.obj
 0001:000253f0       ??1?$CGrowableArray@UDXUTCache_Texture@@@@QAE@XZ 77f263f0 f i DXUTmisc.obj
 0001:000253f0       ??1?$CGrowableArray@PAVCDXUTElement@@@@QAE@XZ 77f263f0 f i DXUTgui.obj
 0001:00025410       ??1CDXUTResourceCache@@QAE@XZ 77f26410 f   DXUTmisc.obj
 0001:000254e0       ?DXUTGetGlobalResourceCache@@YAAAVCDXUTResourceCache@@XZ 77f264e0 f   DXUTmisc.obj
 0001:00025540       ??0BitStream@RakNet@@QAE@XZ 77f26540 f   BitStream.obj
 0001:00025570       ??0BitStream@RakNet@@QAE@H@Z 77f26570 f   BitStream.obj
 0001:000255d0       ??0BitStream@RakNet@@QAE@PAEI_N@Z 77f265d0 f   BitStream.obj
 0001:000255d0       ??0BitStream@RakNet@@QAE@PADI_N@Z 77f265d0 f   BitStream.obj
 0001:00025650       ??1BitStream@RakNet@@QAE@XZ 77f26650 f   BitStream.obj
 0001:00025670       ?Reset@BitStream@RakNet@@QAEXXZ 77f26670 f   BitStream.obj
 0001:00025680       ?ResetWritePointer@BitStream@RakNet@@QAEXXZ 77f26680 f   BitStream.obj
 0001:00025690       ?ReadBit@BitStream@RakNet@@QAE_NXZ 77f26690 f   BitStream.obj
 0001:000256d0       ?ReadBits@BitStream@RakNet@@QAE_NPAEH_N@Z 77f266d0 f   BitStream.obj
 0001:00025790       ?ReadCompressed@BitStream@RakNet@@AAE_NPAEH_N@Z 77f26790 f   BitStream.obj
 0001:00025890       ?AddBitsAndReallocate@BitStream@RakNet@@QAEXH@Z 77f26890 f   BitStream.obj
 0001:00025920       ?CopyData@BitStream@RakNet@@QBEHPAPAE@Z 77f26920 f   BitStream.obj
 0001:00025960       ?IgnoreBits@BitStream@RakNet@@QAEXH@Z 77f26960 f   BitStream.obj
 0001:00025970       ?SetWriteOffset@BitStream@RakNet@@QAEXH@Z 77f26970 f   BitStream.obj
 0001:00025980       ?Write@BitStream@RakNet@@QAEXPAV12@H@Z 77f26980 f   BitStream.obj
 0001:00025a60       ?Read@BitStream@RakNet@@QAE_NPADH@Z 77f26a60 f   BitStream.obj
 0001:00025ad0       ?Write0@BitStream@RakNet@@QAEXXZ 77f26ad0 f   BitStream.obj
 0001:00025af0       ?Write1@BitStream@RakNet@@QAEXXZ 77f26af0 f   BitStream.obj
 0001:00025b30       ?ReadAlignedBytes@BitStream@RakNet@@QAE_NPAEH@Z 77f26b30 f   BitStream.obj
 0001:00025ba0       ?WriteBits@BitStream@RakNet@@QAEXPBEH_N@Z 77f26ba0 f   BitStream.obj
 0001:00025c50       ??$Write@_N@BitStream@RakNet@@QAEX_N@Z 77f26c50 f i BitStream.obj
 0001:00025cb0       ?Write@BitStream@RakNet@@QAEXPBDH@Z 77f26cb0 f   BitStream.obj
 0001:00025d20       ?WriteAlignedBytes@BitStream@RakNet@@QAEXPBEH@Z 77f26d20 f   BitStream.obj
 0001:00025d40       ?WriteCompressed@BitStream@RakNet@@AAEXPBEH_N@Z 77f26d40 f   BitStream.obj
 0001:00025f10       ?Add@CheckSum@@QAEXPAEI@Z  77f26f10 f   CheckSum.obj
 0001:00025f60       ??0DataBlockEncryptor@@QAE@XZ 77f26f60 f   DataBlockEncryptor.obj
 0001:00025f70       ??0HuffmanEncodingTree@@QAE@XZ 77f26f70 f   DS_HuffmanEncodingTree.obj
 0001:00025f80       ?DecodeArray@HuffmanEncodingTree@@QAEIPAVBitStream@RakNet@@IIPAE@Z 77f26f80 f   DS_HuffmanEncodingTree.obj
 0001:00025fe0       ?DecodeArray@HuffmanEncodingTree@@QAEXPAEIPAVBitStream@RakNet@@@Z 77f26fe0 f   DS_HuffmanEncodingTree.obj
 0001:000260b0       ?Push@?$Queue@PAUPacket@@@DataStructures@@QAEXABQAUPacket@@@Z 77f270b0 f i RakPeer.obj
 0001:000260b0       ?Push@?$Queue@PAUInternalPacket@@@DataStructures@@QAEXABQAUInternalPacket@@@Z 77f270b0 f i InternalPacketPool.obj
 0001:000260b0       ?Push@?$Queue@PAU?$Page@GPAUInternalPacket@@$0CA@@DataStructures@@@DataStructures@@QAEXABQAU?$Page@GPAUInternalPacket@@$0CA@@2@@Z 77f270b0 f i ReliabilityLayer.obj
 0001:000260b0       ?Push@?$Queue@PAUHuffmanEncodingTreeNode@@@DataStructures@@QAEXABQAUHuffmanEncodingTreeNode@@@Z 77f270b0 f i DS_HuffmanEncodingTree.obj
 0001:00026170       ?Insert@?$CircularLinkedList@PAUHuffmanEncodingTreeNode@@@DataStructures@@QAEXABQAUHuffmanEncodingTreeNode@@@Z 77f27170 f i DS_HuffmanEncodingTree.obj
 0001:00026240       ?FreeMemory@HuffmanEncodingTree@@QAEXXZ 77f27240 f   DS_HuffmanEncodingTree.obj
 0001:00026390       ?EncodeArray@HuffmanEncodingTree@@QAEXPAEIPAVBitStream@RakNet@@@Z 77f27390 f   DS_HuffmanEncodingTree.obj
 0001:00026430       ?InsertNodeIntoSortedList@HuffmanEncodingTree@@ABEXPAUHuffmanEncodingTreeNode@@PAV?$LinkedList@PAUHuffmanEncodingTreeNode@@@DataStructures@@@Z 77f27430 f   DS_HuffmanEncodingTree.obj
 0001:000264c0       ??1?$LinkedList@PAUHuffmanEncodingTreeNode@@@DataStructures@@QAE@XZ 77f274c0 f i DS_HuffmanEncodingTree.obj
 0001:00026510       ??1HuffmanEncodingTree@@QAE@XZ 77f27510 f   DS_HuffmanEncodingTree.obj
 0001:00026520       ?GenerateFromFrequencyTable@HuffmanEncodingTree@@QAEXQAI@Z 77f27520 f   DS_HuffmanEncodingTree.obj
 0001:000267b0       ?GetTime@RakNet@@YAIXZ     77f277b0 f   GetTime.obj
 0001:00026810       ?GetTimeNS@RakNet@@YA_JXZ  77f27810 f   GetTime.obj
 0001:000268b0       ??0?$Queue@PAUInternalPacket@@@DataStructures@@QAE@XZ 77f278b0 f i InternalPacketPool.obj
 0001:000268e0       ??1?$Queue@PAU?$Page@GPAUInternalPacket@@$0CA@@DataStructures@@@DataStructures@@QAE@XZ 77f278e0 f i ReliabilityLayer.obj
 0001:000268e0       ??1?$Queue@PAUHuffmanEncodingTreeNode@@@DataStructures@@QAE@XZ 77f278e0 f i DS_HuffmanEncodingTree.obj
 0001:000268e0       ??1?$Queue@PAUPacket@@@DataStructures@@QAE@XZ 77f278e0 f i RakPeer.obj
 0001:000268e0       ??1?$Queue@PAUInternalPacket@@@DataStructures@@QAE@XZ 77f278e0 f i InternalPacketPool.obj
 0001:000268e0       ??1?$Queue@_J@DataStructures@@QAE@XZ 77f278e0 f i ReliabilityLayer.obj
 0001:00026900       ??0InternalPacketPool@@QAE@XZ 77f27900 f   InternalPacketPool.obj
 0001:000269a0       ?ClearPool@InternalPacketPool@@QAEXXZ 77f279a0 f   InternalPacketPool.obj
 0001:00026a10       ?ReleasePointer@InternalPacketPool@@QAEXPAUInternalPacket@@@Z 77f27a10 f   InternalPacketPool.obj
 0001:00026a30       ??1InternalPacketPool@@QAE@XZ 77f27a30 f   InternalPacketPool.obj
 0001:00026a90       ?Find@?$BinarySearchTree@UNetworkIDNode@@@DataStructures@@IAEAAPAUnode@12@ABUNetworkIDNode@@PAPAU312@@Z 77f27a90 f i NetworkIDGenerator.obj
 0001:00026b90       ?Clear@?$BinarySearchTree@UNetworkIDNode@@@DataStructures@@QAEXXZ 77f27b90 f i NetworkIDGenerator.obj
 0001:00026c30       ?GET_BASE_OBJECT_FROM_ID@NetworkIDGenerator@@SAPAXUNetworkID@@@Z 77f27c30 f   NetworkIDGenerator.obj
 0001:00026cb0       ?GET_OBJECT_FROM_ID@NetworkIDGenerator@@SAPAXUNetworkID@@@Z 77f27cb0 f   NetworkIDGenerator.obj
 0001:00026cf0       ??1?$BinarySearchTree@UNetworkIDNode@@@DataStructures@@UAE@XZ 77f27cf0 f i NetworkIDGenerator.obj
 0001:00026d00       ??1?$AVLBalancedBinarySearchTree@UNetworkIDNode@@@DataStructures@@UAE@XZ 77f27d00 f i NetworkIDGenerator.obj
 0001:00026d60       ??_E?$BinarySearchTree@UNetworkIDNode@@@DataStructures@@UAEPAXI@Z 77f27d60 f i NetworkIDGenerator.obj
 0001:00026d60       ??_G?$BinarySearchTree@UNetworkIDNode@@@DataStructures@@UAEPAXI@Z 77f27d60 f i NetworkIDGenerator.obj
 0001:00026d90       ??0?$AVLBalancedBinarySearchTree@UNetworkIDNode@@@DataStructures@@QAE@XZ 77f27d90 f i NetworkIDGenerator.obj
 0001:00026db0       ??_E?$AVLBalancedBinarySearchTree@UNetworkIDNode@@@DataStructures@@UAEPAXI@Z 77f27db0 f i NetworkIDGenerator.obj
 0001:00026db0       ??_G?$AVLBalancedBinarySearchTree@UNetworkIDNode@@@DataStructures@@UAEPAXI@Z 77f27db0 f i NetworkIDGenerator.obj
 0001:00026dd0       ??8PlayerID@@QBE_NABU0@@Z  77f27dd0 f   NetworkTypes.obj
 0001:00026e00       ??9PlayerID@@QBE_NABU0@@Z  77f27e00 f   NetworkTypes.obj
 0001:00026e30       ??MPlayerID@@QBE_NABU0@@Z  77f27e30 f   NetworkTypes.obj
 0001:00026e60       ??4NetworkID@@QAEAAU0@ABU0@@Z 77f27e60 f   NetworkTypes.obj
 0001:00026e80       ??8NetworkID@@QBE_NABU0@@Z 77f27e80 f   NetworkTypes.obj
 0001:00026ed0       ??ONetworkID@@QBE_NABU0@@Z 77f27ed0 f   NetworkTypes.obj
 0001:00026f30       ??MNetworkID@@QBE_NABU0@@Z 77f27f30 f   NetworkTypes.obj
 0001:00026f90       ?IsPeerToPeerMode@NetworkID@@SA_NXZ 77f27f90 f   NetworkTypes.obj
 0001:00026fa0       ??1RakClientInterface@@UAE@XZ 77f27fa0 f i RakClient.obj
 0001:00026fb0       ??_ERakClientInterface@@UAEPAXI@Z 77f27fb0 f i RakClient.obj
 0001:00026fb0       ??_GRakClientInterface@@UAEPAXI@Z 77f27fb0 f i RakClient.obj
 0001:00026fd0       ??0OtherClientsStruct@RakClient@@QAE@XZ 77f27fd0 f i RakClient.obj
 0001:00026fe0       ??1OtherClientsStruct@RakClient@@QAE@XZ 77f27fe0 f i RakClient.obj
 0001:00026ff0       ??1RakClient@@UAE@XZ       77f27ff0 f   RakClient.obj
 0001:00027080       ?Connect@RakClient@@UAE_NPBDGGIH@Z 77f28080 f   RakClient.obj
 0001:00027140       ?Disconnect@RakClient@@UAEXIE@Z 77f28140 f   RakClient.obj
 0001:00027150       ?InitializeSecurity@RakClient@@UAEXPBD0@Z 77f28150 f   RakClient.obj
 0001:00027170       ?SetPassword@RakClient@@UAEXPBD@Z 77f28170 f   RakClient.obj
 0001:000271c0       ?HasPassword@RakClient@@UBE_NXZ 77f281c0 f   RakClient.obj
 0001:000271e0       ?Send@RakClient@@UAE_NPBDHW4PacketPriority@@W4PacketReliability@@D@Z 77f281e0 f   RakClient.obj
 0001:00027230       ?Send@RakClient@@UAE_NPAVBitStream@RakNet@@W4PacketPriority@@W4PacketReliability@@D@Z 77f28230 f   RakClient.obj
 0001:00027280       ?DeallocatePacket@RakClient@@UAEXPAUPacket@@@Z 77f28280 f   RakClient.obj
 0001:00027290       ?PingServer@RakClient@@UAEXXZ 77f28290 f   RakClient.obj
 0001:000272c0       ?PingServer@RakClient@@UAEXPBDGG_N@Z 77f282c0 f   RakClient.obj
 0001:00027300       ?GetAveragePing@RakClient@@UAEHXZ 77f28300 f   RakClient.obj
 0001:00027330       ?GetLastPing@RakClient@@UBEHXZ 77f28330 f   RakClient.obj
 0001:00027360       ?GetLowestPing@RakClient@@UBEHXZ 77f28360 f   RakClient.obj
 0001:00027390       ?GetPlayerPing@RakClient@@UAEHUPlayerID@@@Z 77f28390 f   RakClient.obj
 0001:000273e0       ?StartOccasionalPing@RakClient@@UAEXXZ 77f283e0 f   RakClient.obj
 0001:000273f0       ?StopOccasionalPing@RakClient@@UAEXXZ 77f283f0 f   RakClient.obj
 0001:00027400       ?IsConnected@RakClient@@UBE_NXZ 77f28400 f   RakClient.obj
 0001:00027420       ?GetSynchronizedRandomInteger@RakClient@@UBEIXZ 77f28420 f   RakClient.obj
 0001:00027440       ?GenerateCompressionLayer@RakClient@@UAE_NQAI_N@Z 77f28440 f   RakClient.obj
 0001:00027450       ?DeleteCompressionLayer@RakClient@@UAE_N_N@Z 77f28450 f   RakClient.obj
 0001:00027460       ?RegisterAsRemoteProcedureCall@RakClient@@UAEXPADP6AXPAURPCParameters@@@Z@Z 77f28460 f   RakClient.obj
 0001:00027470       ?RegisterClassMemberRPC@RakClient@@UAEXPADPAX@Z 77f28470 f   RakClient.obj
 0001:00027480       ?UnregisterAsRemoteProcedureCall@RakClient@@UAEXPAD@Z 77f28480 f   RakClient.obj
 0001:00027490       ?RPC@RakClient@@UAE_NPADPBDIW4PacketPriority@@W4PacketReliability@@D_NUNetworkID@@PAVBitStream@RakNet@@@Z 77f28490 f   RakClient.obj
 0001:00027500       ?RPC@RakClient@@UAE_NPADPAVBitStream@RakNet@@W4PacketPriority@@W4PacketReliability@@D_NUNetworkID@@1@Z 77f28500 f   RakClient.obj
 0001:00027570       ?RPC@RakClient@@UAE_NPADPAVBitStream@RakNet@@W4PacketPriority@@W4PacketReliability@@D_N@Z 77f28570 f   RakClient.obj
 0001:000275e0       ?SetTrackFrequencyTable@RakClient@@UAEX_N@Z 77f285e0 f   RakClient.obj
 0001:000275f0       ?GetSendFrequencyTable@RakClient@@UAE_NQAI@Z 77f285f0 f   RakClient.obj
 0001:00027600       ?GetCompressionRatio@RakClient@@UBEMXZ 77f28600 f   RakClient.obj
 0001:00027610       ?GetDecompressionRatio@RakClient@@UBEMXZ 77f28610 f   RakClient.obj
 0001:00027620       ?AttachPlugin@RakClient@@UAEXPAVPluginInterface@@@Z 77f28620 f   RakClient.obj
 0001:00027630       ?DetachPlugin@RakClient@@UAEXPAVPluginInterface@@@Z 77f28630 f   RakClient.obj
 0001:00027640       ?GetStaticServerData@RakClient@@UAEPAVBitStream@RakNet@@XZ 77f28640 f   RakClient.obj
 0001:00027670       ?SetStaticServerData@RakClient@@UAEXPBDH@Z 77f28670 f   RakClient.obj
 0001:000276b0       ?SendStaticClientDataToServer@RakClient@@UAEXXZ 77f286b0 f   RakClient.obj
 0001:000276e0       ?GetServerID@RakClient@@UBE?AUPlayerID@@XZ 77f286e0 f   RakClient.obj
 0001:00027720       ?GetPlayerID@RakClient@@UBE?AUPlayerID@@XZ 77f28720 f   RakClient.obj
 0001:000277c0       ?GetInternalID@RakClient@@UBE?AUPlayerID@@XZ 77f287c0 f   RakClient.obj
 0001:000277e0       ?PlayerIDToDottedIP@RakClient@@UBEPBDUPlayerID@@@Z 77f287e0 f   RakClient.obj
 0001:00027800       ?PushBackPacket@RakClient@@UAEXPAUPacket@@_N@Z 77f28800 f   RakClient.obj
 0001:00027810       ?SetRouterInterface@RakClient@@UAEXPAVRouterInterface@@@Z 77f28810 f   RakClient.obj
 0001:00027820       ?RemoveRouterInterface@RakClient@@UAEXPAVRouterInterface@@@Z 77f28820 f   RakClient.obj
 0001:00027830       ?SetTimeoutTime@RakClient@@UAEXI@Z 77f28830 f   RakClient.obj
 0001:00027870       ?SetMTUSize@RakClient@@UAE_NH@Z 77f28870 f   RakClient.obj
 0001:00027880       ?GetMTUSize@RakClient@@UBEHXZ 77f28880 f   RakClient.obj
 0001:00027890       ?AllowConnectionResponseIPMigration@RakClient@@UAEX_N@Z 77f28890 f   RakClient.obj
 0001:000278a0       ?AdvertiseSystem@RakClient@@UAEXPBDG0H@Z 77f288a0 f   RakClient.obj
 0001:000278b0       ?GetStatistics@RakClient@@UAEQAURakNetStatisticsStruct@@XZ 77f288b0 f   RakClient.obj
 0001:000278e0       ?ApplyNetworkSimulator@RakClient@@UAEXNGG@Z 77f288e0 f   RakClient.obj
 0001:00027900       ?IsNetworkSimulatorActive@RakClient@@UAE_NXZ 77f28900 f   RakClient.obj
 0001:00027910       ?GetOtherClientIndexByPlayerID@RakClient@@AAEHUPlayerID@@@Z 77f28910 f   RakClient.obj
 0001:00027950       ?GetFreeOtherClientIndex@RakClient@@AAEHXZ 77f28950 f   RakClient.obj
 0001:00027970       ?GetPlayerIndex@RakClient@@UAEGXZ 77f28970 f   RakClient.obj
 0001:00027980       ??_ERakClient@@WJOK@AEPAXI@Z 77f28980 f i RakClient.obj
 0001:00027990       ?Disconnect@RakClient@@WJOK@AEXIE@Z 77f28990 f i RakClient.obj
 0001:000279a0       ?DeallocatePacket@RakClient@@WJOK@AEXPAUPacket@@@Z 77f289a0 f i RakClient.obj
 0001:000279b0       ?GenerateCompressionLayer@RakClient@@WJOK@AE_NQAI_N@Z 77f289b0 f i RakClient.obj
 0001:000279c0       ?DeleteCompressionLayer@RakClient@@WJOK@AE_N_N@Z 77f289c0 f i RakClient.obj
 0001:000279d0       ?RegisterAsRemoteProcedureCall@RakClient@@WJOK@AEXPADP6AXPAURPCParameters@@@Z@Z 77f289d0 f i RakClient.obj
 0001:000279e0       ?RegisterClassMemberRPC@RakClient@@WJOK@AEXPADPAX@Z 77f289e0 f i RakClient.obj
 0001:000279f0       ?UnregisterAsRemoteProcedureCall@RakClient@@WJOK@AEXPAD@Z 77f289f0 f i RakClient.obj
 0001:00027a00       ?GetCompressionRatio@RakClient@@WJOK@BEMXZ 77f28a00 f i RakClient.obj
 0001:00027a10       ?GetDecompressionRatio@RakClient@@WJOK@BEMXZ 77f28a10 f i RakClient.obj
 0001:00027a20       ?AttachPlugin@RakClient@@WJOK@AEXPAVPluginInterface@@@Z 77f28a20 f i RakClient.obj
 0001:00027a30       ?DetachPlugin@RakClient@@WJOK@AEXPAVPluginInterface@@@Z 77f28a30 f i RakClient.obj
 0001:00027a40       ?GetInternalID@RakClient@@WJOK@BE?AUPlayerID@@XZ 77f28a40 f i RakClient.obj
 0001:00027a50       ?PlayerIDToDottedIP@RakClient@@WJOK@BEPBDUPlayerID@@@Z 77f28a50 f i RakClient.obj
 0001:00027a60       ?PushBackPacket@RakClient@@WJOK@AEXPAUPacket@@_N@Z 77f28a60 f i RakClient.obj
 0001:00027a70       ?SetRouterInterface@RakClient@@WJOK@AEXPAVRouterInterface@@@Z 77f28a70 f i RakClient.obj
 0001:00027a80       ?RemoveRouterInterface@RakClient@@WJOK@AEXPAVRouterInterface@@@Z 77f28a80 f i RakClient.obj
 0001:00027a90       ?SetMTUSize@RakClient@@WJOK@AE_NH@Z 77f28a90 f i RakClient.obj
 0001:00027aa0       ?GetMTUSize@RakClient@@WJOK@BEHXZ 77f28aa0 f i RakClient.obj
 0001:00027ab0       ?AllowConnectionResponseIPMigration@RakClient@@WJOK@AEX_N@Z 77f28ab0 f i RakClient.obj
 0001:00027ac0       ?AdvertiseSystem@RakClient@@WJOK@AEXPBDG0H@Z 77f28ac0 f i RakClient.obj
 0001:00027ad0       ?ApplyNetworkSimulator@RakClient@@WJOK@AEXNGG@Z 77f28ad0 f i RakClient.obj
 0001:00027ae0       ?IsNetworkSimulatorActive@RakClient@@WJOK@AE_NXZ 77f28ae0 f i RakClient.obj
 0001:00027af0       ??0RakClient@@QAE@XZ       77f28af0 f   RakClient.obj
 0001:00027ba0       ??_GRakClient@@UAEPAXI@Z   77f28ba0 f i RakClient.obj
 0001:00027ba0       ??_ERakClient@@UAEPAXI@Z   77f28ba0 f i RakClient.obj
 0001:00027bc0       ?Receive@RakClient@@UAEPAUPacket@@XZ 77f28bc0 f   RakClient.obj
 0001:00028030       ?GetStaticClientData@RakClient@@UAEPAVBitStream@RakNet@@UPlayerID@@@Z 77f29030 f   RakClient.obj
 0001:00028090       ?SetStaticClientData@RakClient@@UAEXUPlayerID@@PBDH@Z 77f29090 f   RakClient.obj
 0001:00028150       ?Receive@RakClient@@WJOK@AEPAUPacket@@XZ 77f29150 f i RakClient.obj
 0001:00028160       ?StatisticsToString@@YAXPAURakNetStatisticsStruct@@PADH@Z 77f29160 f   RakNetStatistics.obj
 0001:000285a0       ?GetRakClientInterface@RakNetworkFactory@@SAPAVRakClientInterface@@XZ 77f295a0 f   RakNetworkFactory.obj
 0001:00028610       ?DestroyRakClientInterface@RakNetworkFactory@@SAXPAVRakClientInterface@@@Z 77f29610 f   RakNetworkFactory.obj
 0001:00028630       ??1RakPeerInterface@@UAE@XZ 77f29630 f i RakPeer.obj
 0001:00028640       ??_GRakPeerInterface@@UAEPAXI@Z 77f29640 f i RakPeer.obj
 0001:00028640       ??_ERakPeerInterface@@UAEPAXI@Z 77f29640 f i RakPeer.obj
 0001:00028660       ?AllocPacket@@YAPAUPacket@@I@Z 77f29660 f   RakPeer.obj
 0001:00028680       ?AllocPacket@@YAPAUPacket@@IPAE@Z 77f29680 f   RakPeer.obj
 0001:000286a0       ??0RemoteSystemStruct@RakPeer@@QAE@XZ 77f296a0 f i RakPeer.obj
 0001:00028700       ??1RemoteSystemStruct@RakPeer@@QAE@XZ 77f29700 f i RakPeer.obj
 0001:00028760       ?DisableSecurity@RakPeer@@UAEXXZ 77f29760 f   RakPeer.obj
 0001:00028770       ?SetMaximumIncomingConnections@RakPeer@@UAEXG@Z 77f29770 f   RakPeer.obj
 0001:00028780       ?GetMaximumIncomingConnections@RakPeer@@UBEGXZ 77f29780 f   RakPeer.obj
 0001:00028790       ?SetIncomingPassword@RakPeer@@UAEXPBDH@Z 77f29790 f   RakPeer.obj
 0001:000287e0       ?GetIncomingPassword@RakPeer@@UAEXPADPAH@Z 77f297e0 f   RakPeer.obj
 0001:00028830       ?GetConnectionList@RakPeer@@UBE_NPAUPlayerID@@PAG@Z 77f29830 f   RakPeer.obj
 0001:00028910       ?DeallocatePacket@RakPeer@@UAEXPAUPacket@@@Z 77f29910 f   RakPeer.obj
 0001:00028940       ?GetMaximumNumberOfPeers@RakPeer@@UBEGXZ 77f29940 f   RakPeer.obj
 0001:00028950       ?RegisterAsRemoteProcedureCall@RakPeer@@UAEXPADP6AXPAURPCParameters@@@Z@Z 77f29950 f   RakPeer.obj
 0001:00028980       ?RegisterClassMemberRPC@RakPeer@@UAEXPADPAX@Z 77f29980 f   RakPeer.obj
 0001:000289b0       ?UnregisterAsRemoteProcedureCall@RakPeer@@UAEXPAD@Z 77f299b0 f   RakPeer.obj
 0001:000289d0       ?GetPlayerIDFromIndex@RakPeer@@UAE?AUPlayerID@@H@Z 77f299d0 f   RakPeer.obj
 0001:00028a30       ?SetOccasionalPing@RakPeer@@UAEX_N@Z 77f29a30 f   RakPeer.obj
 0001:00028a40       ?SetOfflinePingResponse@RakPeer@@UAEXPBDI@Z 77f29a40 f   RakPeer.obj
 0001:00028a90       ?GetInternalID@RakPeer@@UBE?AUPlayerID@@XZ 77f29a90 f   RakPeer.obj
 0001:00028ab0       ?GetExternalID@RakPeer@@UBE?AUPlayerID@@U2@@Z 77f29ab0 f   RakPeer.obj
 0001:00028b70       ?SetMTUSize@RakPeer@@UAE_NH@Z 77f29b70 f   RakPeer.obj
 0001:00028bc0       ?GetMTUSize@RakPeer@@UBEHXZ 77f29bc0 f   RakPeer.obj
 0001:00028bd0       ?GetNumberOfAddresses@RakPeer@@UAEIXZ 77f29bd0 f   RakPeer.obj
 0001:00028c20       ?PlayerIDToDottedIP@RakPeer@@UBEPBDUPlayerID@@@Z 77f29c20 f   RakPeer.obj
 0001:00028c30       ?GetLocalIP@RakPeer@@UAEPBDI@Z 77f29c30 f   RakPeer.obj
 0001:00028c70       ?AllowConnectionResponseIPMigration@RakPeer@@UAEX_N@Z 77f29c70 f   RakPeer.obj
 0001:00028c80       ?SetSplitMessageProgressInterval@RakPeer@@UAEXH@Z 77f29c80 f   RakPeer.obj
 0001:00028cd0       ?SetUnreliableTimeout@RakPeer@@UAEXI@Z 77f29cd0 f   RakPeer.obj
 0001:00028d20       ?SetCompileFrequencyTable@RakPeer@@UAEX_N@Z 77f29d20 f   RakPeer.obj
 0001:00028d30       ?GetOutgoingFrequencyTable@RakPeer@@UAE_NQAI@Z 77f29d30 f   RakPeer.obj
 0001:00028d70       ?GenerateCompressionLayer@RakPeer@@UAE_NQAI_N@Z 77f29d70 f   RakPeer.obj
 0001:00028e40       ?GetCompressionRatio@RakPeer@@UBEMXZ 77f29e40 f   RakPeer.obj
 0001:00028e80       ?GetDecompressionRatio@RakPeer@@UBEMXZ 77f29e80 f   RakPeer.obj
 0001:00028ec0       ?SetRouterInterface@RakPeer@@UAEXPAVRouterInterface@@@Z 77f29ec0 f   RakPeer.obj
 0001:00028ed0       ?RemoveRouterInterface@RakPeer@@UAEXPAVRouterInterface@@@Z 77f29ed0 f   RakPeer.obj
 0001:00028ef0       ?ApplyNetworkSimulator@RakPeer@@UAEXNGG@Z 77f29ef0 f   RakPeer.obj
 0001:00028f70       ?IsNetworkSimulatorActive@RakPeer@@UAE_NXZ 77f29f70 f   RakPeer.obj
 0001:00028fa0       ?IPToPlayerID@RakPeer@@UAEXPBDGPAUPlayerID@@@Z 77f29fa0 f   RakPeer.obj
 0001:00028fd0       ?GetNumberOfRemoteInitiatedConnections@RakPeer@@IBEGXZ 77f29fd0 f   RakPeer.obj
 0001:00029020       ?GenerateSYNCookieRandomNumber@RakPeer@@IAEXXZ 77f2a020 f   RakPeer.obj
 0001:00029080       ?ValidSendTarget@RakPeer@@IAE_NUPlayerID@@_N@Z 77f2a080 f   RakPeer.obj
 0001:00029100       ?Insert@?$List@PAURPCNode@@@DataStructures@@QAEXQAURPCNode@@@Z 77f2a100 f i RPCMap.obj
 0001:00029100       ?Insert@?$List@PAUInternalPacket@@@DataStructures@@QAEXQAUInternalPacket@@@Z 77f2a100 f i ReliabilityLayer.obj
 0001:00029100       ?Insert@?$List@PAUDataAndTime@ReliabilityLayer@@@DataStructures@@QAEXQAUDataAndTime@ReliabilityLayer@@@Z 77f2a100 f i ReliabilityLayer.obj
 0001:00029100       ?Insert@?$List@PAUSplitPacketChannel@@@DataStructures@@QAEXQAUSplitPacketChannel@@@Z 77f2a100 f i ReliabilityLayer.obj
 0001:00029100       ?Insert@?$List@PAVPluginInterface@@@DataStructures@@QAEXQAVPluginInterface@@@Z 77f2a100 f i RakPeer.obj
 0001:00029100       ?Insert@?$List@PAUBanStruct@RakPeer@@@DataStructures@@QAEXQAUBanStruct@RakPeer@@@Z 77f2a100 f i RakPeer.obj
 0001:00029100       ?Insert@?$List@PAU?$Page@GPAUInternalPacket@@$0CA@@DataStructures@@@DataStructures@@QAEXQAU?$Page@GPAUInternalPacket@@$0CA@@2@@Z 77f2a100 f i ReliabilityLayer.obj
 0001:00029170       ??0?$SingleProducerConsumer@URequestedConnectionStruct@RakPeer@@@DataStructures@@QAE@XZ 77f2a170 f i RakPeer.obj
 0001:000291f0       ??1?$SingleProducerConsumer@URequestedConnectionStruct@RakPeer@@@DataStructures@@QAE@XZ 77f2a1f0 f i RakPeer.obj
 0001:00029240       ?WriteLock@?$SingleProducerConsumer@URequestedConnectionStruct@RakPeer@@@DataStructures@@QAEPAURequestedConnectionStruct@RakPeer@@XZ 77f2a240 f i RakPeer.obj
 0001:000292a0       ?Clear@?$SingleProducerConsumer@URequestedConnectionStruct@RakPeer@@@DataStructures@@QAEXXZ 77f2a2a0 f i RakPeer.obj
 0001:00029310       ??0?$SingleProducerConsumer@UBufferedCommandStruct@RakPeer@@@DataStructures@@QAE@XZ 77f2a310 f i RakPeer.obj
 0001:00029380       ??1?$SingleProducerConsumer@UBufferedCommandStruct@RakPeer@@@DataStructures@@QAE@XZ 77f2a380 f i RakPeer.obj
 0001:000293c0       ?WriteLock@?$SingleProducerConsumer@UBufferedCommandStruct@RakPeer@@@DataStructures@@QAEPAUBufferedCommandStruct@RakPeer@@XZ 77f2a3c0 f i RakPeer.obj
 0001:00029400       ?Clear@?$SingleProducerConsumer@UBufferedCommandStruct@RakPeer@@@DataStructures@@QAEXXZ 77f2a400 f i RakPeer.obj
 0001:00029470       ??0?$SingleProducerConsumer@PAUPacket@@@DataStructures@@QAE@XZ 77f2a470 f i RakPeer.obj
 0001:000294e0       ??1?$SingleProducerConsumer@PAUPacket@@@DataStructures@@QAE@XZ 77f2a4e0 f i RakPeer.obj
 0001:00029520       ?Clear@?$SingleProducerConsumer@PAUPacket@@@DataStructures@@QAEXXZ 77f2a520 f i RakPeer.obj
 0001:00029590       ??1?$List@PAUSplitPacketChannel@@@DataStructures@@QAE@XZ 77f2a590 f i ReliabilityLayer.obj
 0001:00029590       ??1?$List@PAVPluginInterface@@@DataStructures@@QAE@XZ 77f2a590 f i RakPeer.obj
 0001:00029590       ??1?$List@UStrAndBool@@@DataStructures@@QAE@XZ 77f2a590 f i StringTable.obj
 0001:00029590       ??1?$List@PAV?$LinkedList@PAUInternalPacket@@@DataStructures@@@DataStructures@@QAE@XZ 77f2a590 f i ReliabilityLayer.obj
 0001:00029590       ??1?$List@PAUInternalPacket@@@DataStructures@@QAE@XZ 77f2a590 f i ReliabilityLayer.obj
 0001:00029590       ??1?$List@UMapNode@?$Map@HPAVHuffmanEncodingTree@@$1??$defaultMapKeyComparison@H@DataStructures@@YAHABH0@Z@DataStructures@@@DataStructures@@QAE@XZ 77f2a590 f i StringCompressor.obj
 0001:00029590       ??1?$List@PAURPCNode@@@DataStructures@@QAE@XZ 77f2a590 f i RPCMap.obj
 0001:00029590       ??1?$List@PAUDataAndTime@ReliabilityLayer@@@DataStructures@@QAE@XZ 77f2a590 f i ReliabilityLayer.obj
 0001:00029590       ??1?$List@UPlayerIDAndIndex@@@DataStructures@@QAE@XZ 77f2a590 f i RakPeer.obj
 0001:00029590       ??1?$List@PAU?$Page@GPAUInternalPacket@@$0CA@@DataStructures@@@DataStructures@@QAE@XZ 77f2a590 f i ReliabilityLayer.obj
 0001:00029590       ??1?$List@PAUBanStruct@RakPeer@@@DataStructures@@QAE@XZ 77f2a590 f i RakPeer.obj
 0001:000295b0       ??$ugreater@$$BY03I@big@@YA_NAAY03I0@Z 77f2a5b0 f i RakPeer.obj
 0001:000295f0       ??$decrement@$$BY0BA@I@big@@YAXAAY0BA@I@Z 77f2a5f0 f i RakPeer.obj
 0001:00029640       ??$subtract@$$BY03I@big@@YAXAAY03I0@Z 77f2a640 f i RakPeer.obj
 0001:000296a0       ??$add@$$BY03I@big@@YAXAAY03I0@Z 77f2a6a0 f i RakPeer.obj
 0001:00029700       ??$add@$$BY07I@big@@YAXAAY07I0@Z 77f2a700 f i RakPeer.obj
 0001:00029760       ??$shiftLeft@$$BY07I@big@@YAXAAY07II@Z 77f2a760 f i RakPeer.obj
 0001:00029840       ??$ugreater@$$BY07I@big@@YA_NAAY07I0@Z 77f2a840 f i RakPeer.obj
 0001:00029880       ??$subtract@$$BY07I@big@@YAXAAY07I0@Z 77f2a880 f i RakPeer.obj
 0001:000298e0       ??$ugreater@$$BY0BA@I@big@@YA_NAAY0BA@I0@Z 77f2a8e0 f i RakPeer.obj
 0001:00029920       ??$shiftLeft@$$BY0BA@I@big@@YAXAAY0BA@II@Z 77f2a920 f i RakPeer.obj
 0001:000299b0       ??$ushiftRight1@$$BY0BA@I@big@@YAXAAY0BA@I@Z 77f2a9b0 f i RakPeer.obj
 0001:000299e0       ??$ushiftRight1@$$BY07I@big@@YAXAAY07I@Z 77f2a9e0 f i RakPeer.obj
 0001:00029a60       ??$usquare@$$BY07I@big@@YAXAAY07I@Z 77f2aa60 f i RakPeer.obj
 0001:00029b70       ??$shiftLeft@$$BY03I@big@@YAXAAY03II@Z 77f2ab70 f i RakPeer.obj
 0001:00029c00       ??$umultiply@$$BY03I$$BY07I@big@@YAXAAY07IAAY03I@Z 77f2ac00 f i RakPeer.obj
 0001:00029d10       ??$umultiply@$$BY07I$$BY0BA@I@big@@YAXAAY0BA@IAAY07I@Z 77f2ad10 f i RakPeer.obj
 0001:00029e10       ??$Write@UNetworkID@@@BitStream@RakNet@@QAEXUNetworkID@@@Z 77f2ae10 f i RakPeer.obj
 0001:00029e70       ??$Read@UNetworkID@@@BitStream@RakNet@@QAE_NAAUNetworkID@@@Z 77f2ae70 f i RakPeer.obj
 0001:00029eb0       ?RPC@RakPeer@@UAE_NPADPAVBitStream@RakNet@@W4PacketPriority@@W4PacketReliability@@DUPlayerID@@_N5UNetworkID@@1@Z 77f2aeb0 f   RakPeer.obj
 0001:00029f60       ?AddToBanList@RakPeer@@UAEXPBDI@Z 77f2af60 f   RakPeer.obj
 0001:0002a0d0       ?ClearBanList@RakPeer@@UAEXXZ 77f2b0d0 f   RakPeer.obj
 0001:0002a170       ?Ping@RakPeer@@UAEXPBDG_N@Z 77f2b170 f   RakPeer.obj
 0001:0002a2d0       ?AdvertiseSystem@RakPeer@@UAEXPBDG0H@Z 77f2b2d0 f   RakPeer.obj
 0001:0002a440       ?DeleteCompressionLayer@RakPeer@@UAE_N_N@Z 77f2b440 f   RakPeer.obj
 0001:0002a4c0       ?AttachPlugin@RakPeer@@UAEXPAVPluginInterface@@@Z 77f2b4c0 f   RakPeer.obj
 0001:0002a520       ?DetachPlugin@RakPeer@@UAEXPAVPluginInterface@@@Z 77f2b520 f   RakPeer.obj
 0001:0002a590       ?PushBackPacket@RakPeer@@UAEXPAUPacket@@_N@Z 77f2b590 f   RakPeer.obj
 0001:0002a5c0       ?SendBuffered@RakPeer@@IAEXPBDHW4PacketPriority@@W4PacketReliability@@DUPlayerID@@_NW4ConnectMode@RemoteSystemStruct@1@@Z 77f2b5c0 f   RakPeer.obj
 0001:0002a6b0       ?ClearBufferedCommands@RakPeer@@IAEXXZ 77f2b6b0 f   RakPeer.obj
 0001:0002a700       ?ClearRequestedConnectionList@RakPeer@@IAEXXZ 77f2b700 f   RakPeer.obj
 0001:0002a760       ?AddPacketToProducer@RakPeer@@IAEXPAUPacket@@@Z 77f2b760 f i RakPeer.obj
 0001:0002a7e0       ?reset@?$RSACrypt@$$BY07I@big@@QAEXXZ 77f2b7e0 f i RakPeer.obj
 0001:0002a840       ?GetIndexFromKey@?$OrderedList@UPlayerID@@UPlayerIDAndIndex@@$1?PlayerIDAndIndexComp@@YAHABU1@ABU2@@Z@DataStructures@@QBEIABUPlayerID@@PA_N@Z 77f2b840 f i RakPeer.obj
 0001:0002a8e0       ?Insert@?$List@UPlayerIDAndIndex@@@DataStructures@@QAEXUPlayerIDAndIndex@@@Z 77f2b8e0 f i RakPeer.obj
 0001:0002a970       ?Insert@?$List@UPlayerIDAndIndex@@@DataStructures@@QAEXUPlayerIDAndIndex@@I@Z 77f2b970 f i RakPeer.obj
 0001:0002aa20       ??$umultiply@$$BY03I$$BY07I@big@@YAXAAY03I0AAY07I@Z 77f2ba20 f i RakPeer.obj
 0001:0002ab40       ??$udivide@$$BY0BA@I@big@@YAXAAY0BA@I000@Z 77f2bb40 f i RakPeer.obj
 0001:0002ad60       ??$umodulo@$$BY0BA@I@big@@YAXAAY0BA@I00@Z 77f2bd60 f i RakPeer.obj
 0001:0002af40       ??$umodulo@$$BY07I@big@@YAXAAY07I00@Z 77f2bf40 f i RakPeer.obj
 0001:0002b280       ??$umultiply@$$BY07I$$BY07I@big@@YAXAAY07I0@Z 77f2c280 f i RakPeer.obj
 0001:0002b390       ??$usquare@$$BY0BA@I@big@@YAXAAY0BA@I@Z 77f2c390 f i RakPeer.obj
 0001:0002b4a0       ??$umultiply@$$BY0BA@I$$BY0BA@I@big@@YAXAAY0BA@I00@Z 77f2c4a0 f i RakPeer.obj
 0001:0002b5a0       ??$GCD@$$BY07I@big@@YAXAAY07I00@Z 77f2c5a0 f i RakPeer.obj
 0001:0002b660       ??$udivide@$$BY03I@big@@YAXAAY03I000@Z 77f2c660 f i RakPeer.obj
 0001:0002b930       ??$SubMulMod@$$BY03I@big@@YAXAAY03I0000@Z 77f2c930 f i RakPeer.obj
 0001:0002ba60       ??$udivide@$$BY07I@big@@YAXAAY07I000@Z 77f2ca60 f i RakPeer.obj
 0001:0002be30       ??$umodulo@$$BY03I@big@@YAXAAY03I00@Z 77f2ce30 f i RakPeer.obj
 0001:0002c090       ??$SubMulMod@$$BY07I@big@@YAXAAY07I0000@Z 77f2d090 f i RakPeer.obj
 0001:0002c1d0       ??$umultiply@$$BY07I$$BY07I@big@@YAXAAY07I00@Z 77f2d1d0 f i RakPeer.obj
 0001:0002c2e0       ?Send@RakPeer@@UAE_NPBDHW4PacketPriority@@W4PacketReliability@@DUPlayerID@@_N@Z 77f2d2e0 f   RakPeer.obj
 0001:0002c3f0       ?Send@RakPeer@@UAE_NPAVBitStream@RakNet@@W4PacketPriority@@W4PacketReliability@@DUPlayerID@@_N@Z 77f2d3f0 f   RakPeer.obj
 0001:0002c4f0       ?RemoveFromBanList@RakPeer@@UAEXPBD@Z 77f2d4f0 f   RakPeer.obj
 0001:0002c620       ?IsBanned@RakPeer@@UAE_NPBD@Z 77f2d620 f   RakPeer.obj
 0001:0002c770       ?GetIndexFromPlayerID@RakPeer@@IAEHUPlayerID@@_N@Z 77f2d770 f   RakPeer.obj
 0001:0002c810       ?GetRemoteSystemFromPlayerID@RakPeer@@IBEPAURemoteSystemStruct@1@UPlayerID@@_N1@Z 77f2d810 f   RakPeer.obj
 0001:0002c910       ?GetBestClockDifferential@RakPeer@@IBEIUPlayerID@@@Z 77f2d910 f   RakPeer.obj
 0001:0002c980       ?HandleRPCPacket@RakPeer@@IAE_NPBDHUPlayerID@@@Z 77f2d980 f   RakPeer.obj
 0001:0002cdd0       ?SendImmediate@RakPeer@@IAE_NPADHW4PacketPriority@@W4PacketReliability@@DUPlayerID@@_N4_J@Z 77f2ddd0 f   RakPeer.obj
 0001:0002d0e0       ??1?$RSACrypt@$$BY07I@big@@QAE@XZ 77f2e0e0 f i RakPeer.obj
 0001:0002d0f0       ??1?$OrderedList@UPlayerID@@UPlayerIDAndIndex@@$1?PlayerIDAndIndexComp@@YAHABU1@ABU2@@Z@DataStructures@@QAE@XZ 77f2e0f0 f i RakPeer.obj
 0001:0002d170       ?Insert@?$OrderedList@UPlayerID@@UPlayerIDAndIndex@@$1?PlayerIDAndIndexComp@@YAHABU1@ABU2@@Z@DataStructures@@QAEIABUPlayerID@@ABUPlayerIDAndIndex@@@Z 77f2e170 f i RakPeer.obj
 0001:0002d200       ?Remove@?$OrderedList@UPlayerID@@UPlayerIDAndIndex@@$1?PlayerIDAndIndexComp@@YAHABU1@ABU2@@Z@DataStructures@@QAEIABUPlayerID@@@Z 77f2e200 f i RakPeer.obj
 0001:0002d260       ??$rModn@$$BY07I@big@@YAXAAY07I0@Z 77f2e260 f i RakPeer.obj
 0001:0002d330       ??$simpleModExp@$$BY07I@big@@YAXAAY07I000@Z 77f2e330 f i RakPeer.obj
 0001:0002d4d0       ??$computePublicExponent@$$BY07I@big@@YAXAAY07I0@Z 77f2e4d0 f i RakPeer.obj
 0001:0002d600       ??$computeModularInverse@$$BY03I@big@@YAXAAY03I00@Z 77f2e600 f i RakPeer.obj
 0001:0002d8b0       ??$rModn@$$BY03I@big@@YAXAAY03I0@Z 77f2e8b0 f i RakPeer.obj
 0001:0002d950       ??$computeRinverse@$$BY07I@big@@YAXAAY07I0@Z 77f2e950 f i RakPeer.obj
 0001:0002dc50       ??$simpleModExp@$$BY03I@big@@YAXAAY03I000@Z 77f2ec50 f i RakPeer.obj
 0001:0002ddf0       ??$computeModularInverse@$$BY07I@big@@YAXAAY07I00@Z 77f2edf0 f i RakPeer.obj
 0001:0002e080       ??$computeRinverse@$$BY03I@big@@YAXAAY03I0@Z 77f2f080 f i RakPeer.obj
 0001:0002e350       ??0RakPeer@@QAE@XZ         77f2f350 f   RakPeer.obj
 0001:0002e570       ?IsActive@RakPeer@@UBE_NXZ 77f2f570 f i RakPeer.obj
 0001:0002e580       ?RPC@RakPeer@@UAE_NPADPBDIW4PacketPriority@@W4PacketReliability@@DUPlayerID@@_N5UNetworkID@@PAVBitStream@RakNet@@@Z 77f2f580 f   RakPeer.obj
 0001:0002ea30       ?GetIndexFromPlayerID@RakPeer@@UAEHUPlayerID@@@Z 77f2fa30 f   RakPeer.obj
 0001:0002ea50       ?GetAveragePing@RakPeer@@UAEHUPlayerID@@@Z 77f2fa50 f   RakPeer.obj
 0001:0002eab0       ?GetLastPing@RakPeer@@UBEHUPlayerID@@@Z 77f2fab0 f   RakPeer.obj
 0001:0002eb00       ?GetLowestPing@RakPeer@@UBEHUPlayerID@@@Z 77f2fb00 f   RakPeer.obj
 0001:0002eb40       ?GetRemoteStaticData@RakPeer@@UAEPAVBitStream@RakNet@@UPlayerID@@@Z 77f2fb40 f   RakPeer.obj
 0001:0002eb90       ?SetRemoteStaticData@RakPeer@@UAEXUPlayerID@@PBDH@Z 77f2fb90 f   RakPeer.obj
 0001:0002ec20       ?SetTimeoutTime@RakPeer@@UAEXIUPlayerID@@@Z 77f2fc20 f   RakPeer.obj
 0001:0002ec60       ?GetRPCMap@RakPeer@@UAEPAURPCMap@@UPlayerID@@@Z 77f2fc60 f   RakPeer.obj
 0001:0002ecc0       ?GetStatistics@RakPeer@@UAEQAURakNetStatisticsStruct@@UPlayerID@@@Z 77f2fcc0 f   RakPeer.obj
 0001:0002ed70       ?SendConnectionRequest@RakPeer@@IAE_NPBDGPADH@Z 77f2fd70 f   RakPeer.obj
 0001:0002ee50       ?OnConnectionRequest@RakPeer@@IAEXPAURemoteSystemStruct@1@PAE_N@Z 77f2fe50 f   RakPeer.obj
 0001:0002efc0       ?NotifyAndFlagForDisconnect@RakPeer@@IAEXUPlayerID@@_NE@Z 77f2ffc0 f   RakPeer.obj
 0001:0002f0f0       ?AssignPlayerIDToRemoteSystemList@RakPeer@@IAEPAURemoteSystemStruct@1@UPlayerID@@W4ConnectMode@21@@Z 77f300f0 f   RakPeer.obj
 0001:0002f240       ?ShiftIncomingTimestamp@RakPeer@@IBEXPAEUPlayerID@@@Z 77f30240 f   RakPeer.obj
 0001:0002f310       ?SecuredConnectionResponse@RakPeer@@IAEXUPlayerID@@@Z 77f30310 f   RakPeer.obj
 0001:0002f460       ?SendStaticDataInternal@RakPeer@@IAEXUPlayerID@@_N@Z 77f30460 f   RakPeer.obj
 0001:0002f5d0       ?PingInternal@RakPeer@@IAEXUPlayerID@@_N@Z 77f305d0 f   RakPeer.obj
 0001:0002f6f0       ?CloseConnectionInternal@RakPeer@@IAEXUPlayerID@@_N1E@Z 77f306f0 f   RakPeer.obj
 0001:0002f880       ?ProcessNetworkPacket@@YGXIGPBDHPAVRakPeer@@@Z 77f30880 f   RakPeer.obj
 0001:000303d0       ??$computeNRinverse@$$BY07I@big@@YAXAAY07I0@Z 77f313d0 f i RakPeer.obj
 0001:000304a0       ??$CRTModExp@$$BY03I$$BY07I@big@@YAXAAY07I00AAY03I111111@Z 77f314a0 f i RakPeer.obj
 0001:00030780       ??$computeNRinverse@$$BY03I@big@@YAXAAY03I0@Z 77f31780 f i RakPeer.obj
 0001:00030850       ??$RabinMillerPrimalityTest@$$BY03I@big@@YA_NAAY03II@Z 77f31850 f i RakPeer.obj
 0001:00030b00       ?Connect@RakPeer@@UAE_NPBDGPADH@Z 77f31b00 f   RakPeer.obj
 0001:00030bd0       ?Disconnect@RakPeer@@UAEXIE@Z 77f31bd0 f   RakPeer.obj
 0001:00030ea0       ?ReceiveIgnoreRPC@RakPeer@@IAEPAUPacket@@XZ 77f31ea0 f   RakPeer.obj
 0001:000310d0       ?CloseConnection@RakPeer@@UAEXUPlayerID@@_NE@Z 77f320d0 f   RakPeer.obj
 0001:00031100       ?Ping@RakPeer@@UAEXUPlayerID@@@Z 77f32100 f   RakPeer.obj
 0001:00031120       ?SendStaticData@RakPeer@@UAEXUPlayerID@@@Z 77f32120 f   RakPeer.obj
 0001:00031140       ?ParseConnectionRequestPacket@RakPeer@@IAEXPAURemoteSystemStruct@1@UPlayerID@@PBDH@Z 77f32140 f   RakPeer.obj
 0001:00031260       ?encrypt@?$RSACrypt@$$BY07I@big@@QAEXAAY07I0@Z 77f32260 f i RakPeer.obj
 0001:000312d0       ?decrypt@?$RSACrypt@$$BY07I@big@@QAEXAAY07I0@Z 77f322d0 f i RakPeer.obj
 0001:00031330       ??$setPrivateKey@$$BY03I@?$RSACrypt@$$BY07I@big@@QAEXAAY03I0@Z 77f32330 f i RakPeer.obj
 0001:000314f0       ??$generateStrongPseudoPrime@$$BY03I@big@@YAXAAY03I@Z 77f324f0 f i RakPeer.obj
 0001:00031530       ??1RakPeer@@UAE@XZ         77f32530 f   RakPeer.obj
 0001:000316a0       ?Receive@RakPeer@@UAEPAUPacket@@XZ 77f326a0 f   RakPeer.obj
 0001:00031710       ?SecuredConnectionConfirmation@RakPeer@@IAEXPAURemoteSystemStruct@1@PAD@Z 77f32710 f   RakPeer.obj
 0001:00031b10       ?RunUpdateCycle@RakPeer@@IAE_NXZ 77f32b10 f   RakPeer.obj
 0001:00032ee0       ?UpdateNetworkLoop@@YGIPAX@Z 77f33ee0 f   RakPeer.obj
 0001:00032f20       ?generateKeys@?$RSACrypt@$$BY07I@big@@QAEXXZ 77f33f20 f i RakPeer.obj
 0001:00032f60       ??_ERakPeer@@UAEPAXI@Z     77f33f60 f i RakPeer.obj
 0001:00032f60       ??_GRakPeer@@UAEPAXI@Z     77f33f60 f i RakPeer.obj
 0001:00032f80       ?Initialize@RakPeer@@UAE_NGGHPBD@Z 77f33f80 f   RakPeer.obj
 0001:00033240       ?InitializeSecurity@RakPeer@@UAEXPBD000@Z 77f34240 f   RakPeer.obj
 0001:00033340       ?RakSleep@@YAXI@Z          77f34340 f   RakSleep.obj
 0001:00033350       ?seedMT@@YAXI@Z            77f34350 f   Rand.obj
 0001:00033380       ?reloadMT@@YAIXZ           77f34380 f   Rand.obj
 0001:000334a0       ?randomMT@@YAIXZ           77f344a0 f   Rand.obj
 0001:000334f0       ?frandomMT@@YAMXZ          77f344f0 f   Rand.obj
 0001:00033550       ?SetEncryptionKey@ReliabilityLayer@@QAEXPBE@Z 77f34550 f   ReliabilityLayer.obj
 0001:00033570       ?SetTimeoutTime@ReliabilityLayer@@QAEXI@Z 77f34570 f   ReliabilityLayer.obj
 0001:00033580       ?GetTimeoutTime@ReliabilityLayer@@QAEIXZ 77f34580 f   ReliabilityLayer.obj
 0001:00033590       ?SendBitStream@ReliabilityLayer@@AAEXIUPlayerID@@PAVBitStream@RakNet@@@Z 77f34590 f   ReliabilityLayer.obj
 0001:00033680       ?ApplyNetworkSimulator@ReliabilityLayer@@QAEXNII@Z 77f34680 f   ReliabilityLayer.obj
 0001:000336c0       ?SetSplitMessageProgressInterval@ReliabilityLayer@@QAEXH@Z 77f346c0 f   ReliabilityLayer.obj
 0001:000336d0       ?SetUnreliableTimeout@ReliabilityLayer@@QAEXI@Z 77f346d0 f   ReliabilityLayer.obj
 0001:000336f0       ?IsCheater@ReliabilityLayer@@QBE_NXZ 77f346f0 f   ReliabilityLayer.obj
 0001:00033700       ?IsDeadConnection@ReliabilityLayer@@QBE_NXZ 77f34700 f   ReliabilityLayer.obj
 0001:00033710       ?PushAtHead@?$Queue@PAUPacket@@@DataStructures@@QAEXABQAUPacket@@I@Z 77f34710 f i RakPeer.obj
 0001:00033710       ?PushAtHead@?$Queue@PAUInternalPacket@@@DataStructures@@QAEXABQAUInternalPacket@@I@Z 77f34710 f i ReliabilityLayer.obj
 0001:000337f0       ?Push@?$Queue@_J@DataStructures@@QAEXAB_J@Z 77f347f0 f i ReliabilityLayer.obj
 0001:000338d0       ?Compress@?$Queue@_J@DataStructures@@QAEXXZ 77f348d0 f i ReliabilityLayer.obj
 0001:00033980       ?Add@?$CircularLinkedList@PAUInternalPacket@@@DataStructures@@QAEAAPAUInternalPacket@@ABQAU3@@Z 77f34980 f i ReliabilityLayer.obj
 0001:00033980       ?Add@?$CircularLinkedList@PAUHuffmanEncodingTreeNode@@@DataStructures@@QAEAAPAUHuffmanEncodingTreeNode@@ABQAU3@@Z 77f34980 f i DS_HuffmanEncodingTree.obj
 0001:00033a40       ?Insert@?$List@PAUSplitPacketChannel@@@DataStructures@@QAEXQAUSplitPacketChannel@@I@Z 77f34a40 f i ReliabilityLayer.obj
 0001:00033a40       ?Insert@?$List@PAUInternalPacket@@@DataStructures@@QAEXQAUInternalPacket@@I@Z 77f34a40 f i ReliabilityLayer.obj
 0001:00033ad0       ?GetIndexFromKey@?$OrderedList@IPAUInternalPacket@@$1?SplitPacketIndexComp@@YAHABIABQAU1@@Z@DataStructures@@QBEIABIPA_N@Z 77f34ad0 f i ReliabilityLayer.obj
 0001:00033b50       ?DeleteFromPageAtIndex@?$BPlusTree@GPAUInternalPacket@@$0CA@@DataStructures@@IAEXHPAU?$Page@GPAUInternalPacket@@$0CA@@2@@Z 77f34b50 f i ReliabilityLayer.obj
 0001:00033be0       ?GetIndexOf@?$BPlusTree@GPAUInternalPacket@@$0CA@@DataStructures@@IBE_NGPAU?$Page@GPAUInternalPacket@@$0CA@@2@PAH@Z 77f34be0 f i ReliabilityLayer.obj
 0001:00033c50       ?Del@?$CircularLinkedList@PAUInternalPacket@@@DataStructures@@QAEXXZ 77f34c50 f i ReliabilityLayer.obj
 0001:00033cc0       ?Clear@?$CircularLinkedList@PAUInternalPacket@@@DataStructures@@QAEXXZ 77f34cc0 f i ReliabilityLayer.obj
 0001:00033cc0       ?Clear@?$CircularLinkedList@PAUHuffmanEncodingTreeNode@@@DataStructures@@QAEXXZ 77f34cc0 f i DS_HuffmanEncodingTree.obj
 0001:00033d10       ?CanRotateLeft@?$BPlusTree@GPAUInternalPacket@@$0CA@@DataStructures@@IAE_NPAU?$Page@GPAUInternalPacket@@$0CA@@2@H@Z 77f34d10 f i ReliabilityLayer.obj
 0001:00033d40       ?CanRotateRight@?$BPlusTree@GPAUInternalPacket@@$0CA@@DataStructures@@IAE_NPAU?$Page@GPAUInternalPacket@@$0CA@@2@H@Z 77f34d40 f i ReliabilityLayer.obj
 0001:00033d70       ?RotateRight@?$BPlusTree@GPAUInternalPacket@@$0CA@@DataStructures@@IAEXPAU?$Page@GPAUInternalPacket@@$0CA@@2@HPAUReturnAction@12@@Z 77f34d70 f i ReliabilityLayer.obj
 0001:00033e10       ?RotateLeft@?$BPlusTree@GPAUInternalPacket@@$0CA@@DataStructures@@IAEXPAU?$Page@GPAUInternalPacket@@$0CA@@2@HPAUReturnAction@12@@Z 77f34e10 f i ReliabilityLayer.obj
 0001:00033eb0       ?ShiftNodeLeft@?$BPlusTree@GPAUInternalPacket@@$0CA@@DataStructures@@IAEXPAU?$Page@GPAUInternalPacket@@$0CA@@2@@Z 77f34eb0 f i ReliabilityLayer.obj
 0001:00033f30       ?ShiftNodeRight@?$BPlusTree@GPAUInternalPacket@@$0CA@@DataStructures@@IAEXPAU?$Page@GPAUInternalPacket@@$0CA@@2@@Z 77f34f30 f i ReliabilityLayer.obj
 0001:00033fa0       ?GetPointer@InternalPacketPool@@QAEPAUInternalPacket@@XZ 77f34fa0 f i ReliabilityLayer.obj
 0001:00034000       ?Receive@ReliabilityLayer@@QAEHPAPAE@Z 77f35000 f   ReliabilityLayer.obj
 0001:00034080       ?WriteToBitStreamFromInternalPacket@ReliabilityLayer@@AAEHPAVBitStream@RakNet@@QBUInternalPacket@@@Z 77f35080 f   ReliabilityLayer.obj
 0001:000341a0       ?CreateInternalPacketFromBitStream@ReliabilityLayer@@AAEPAUInternalPacket@@PAVBitStream@RakNet@@_J@Z 77f351a0 f   ReliabilityLayer.obj
 0001:00034340       ?SplitPacket@ReliabilityLayer@@AAEXPAUInternalPacket@@H@Z 77f35340 f   ReliabilityLayer.obj
 0001:00034610       ?SetPing@ReliabilityLayer@@QAEXI@Z 77f35610 f   ReliabilityLayer.obj
 0001:000346a0       ?Insert@?$OrderedList@IPAUInternalPacket@@$1?SplitPacketIndexComp@@YAHABIABQAU1@@Z@DataStructures@@QAEIABIABQAUInternalPacket@@@Z 77f356a0 f i ReliabilityLayer.obj
 0001:00034700       ?GetIndexFromKey@?$OrderedList@GPAUSplitPacketChannel@@$1?SplitPacketChannelComp@@YAHABGABQAU1@@Z@DataStructures@@QBEIABGPA_N@Z 77f35700 f i ReliabilityLayer.obj
 0001:00034780       ?Insert@?$OrderedList@GPAUSplitPacketChannel@@$1?SplitPacketChannelComp@@YAHABGABQAU1@@Z@DataStructures@@QAEIABGABQAUSplitPacketChannel@@@Z 77f35780 f i ReliabilityLayer.obj
 0001:000347e0       ??1?$CircularLinkedList@PAUInternalPacket@@@DataStructures@@QAE@XZ 77f357e0 f i ReliabilityLayer.obj
 0001:000347e0       ??1?$CircularLinkedList@PAUHuffmanEncodingTreeNode@@@DataStructures@@QAE@XZ 77f357e0 f i DS_HuffmanEncodingTree.obj
 0001:000347f0       ??1?$LinkedList@PAUInternalPacket@@@DataStructures@@QAE@XZ 77f357f0 f i ReliabilityLayer.obj
 0001:00034840       ?GetIndexFromKey@?$OrderedList@GU?$RangeNode@G@DataStructures@@$1??$RangeNodeComp@G@2@YAHABGABU12@@Z@DataStructures@@QBEIABGPA_N@Z 77f35840 f i ReliabilityLayer.obj
 0001:000348c0       ??1?$MemoryPool@U?$Page@GPAUInternalPacket@@$0CA@@DataStructures@@@DataStructures@@QAE@XZ 77f358c0 f i ReliabilityLayer.obj
 0001:00034940       ?Preallocate@?$MemoryPool@U?$Page@GPAUInternalPacket@@$0CA@@DataStructures@@@DataStructures@@QAEXI@Z 77f35940 f i ReliabilityLayer.obj
 0001:000349f0       ??1?$List@U?$RangeNode@G@DataStructures@@@DataStructures@@QAE@XZ 77f359f0 f i ReliabilityLayer.obj
 0001:00034a20       ?Insert@?$List@U?$RangeNode@G@DataStructures@@@DataStructures@@QAEXU?$RangeNode@G@2@@Z 77f35a20 f i ReliabilityLayer.obj
 0001:00034b10       ?Insert@?$List@U?$RangeNode@G@DataStructures@@@DataStructures@@QAEXU?$RangeNode@G@2@I@Z 77f35b10 f i ReliabilityLayer.obj
 0001:00034c10       ?InsertIntoNode@?$BPlusTree@GPAUInternalPacket@@$0CA@@DataStructures@@IAEPAU?$Page@GPAUInternalPacket@@$0CA@@2@GABQAUInternalPacket@@HPAU32@1PAUReturnAction@12@@Z 77f35c10 f i ReliabilityLayer.obj
 0001:00035020       ?FixUnderflow@?$BPlusTree@GPAUInternalPacket@@$0CA@@DataStructures@@IAE_NHPAU?$Page@GPAUInternalPacket@@$0CA@@2@GPAUReturnAction@12@@Z 77f36020 f i ReliabilityLayer.obj
 0001:000352e0       ?Send@ReliabilityLayer@@QAE_NPADHW4PacketPriority@@W4PacketReliability@@E_NH_J@Z 77f362e0 f   ReliabilityLayer.obj
 0001:000354a0       ?IsDataWaiting@ReliabilityLayer@@QAE_NXZ 77f364a0 f   ReliabilityLayer.obj
 0001:00035520       ?AreAcksWaiting@ReliabilityLayer@@QAE_NXZ 77f36520 f   ReliabilityLayer.obj
 0001:00035530       ??1?$OrderedList@GPAUSplitPacketChannel@@$1?SplitPacketChannelComp@@YAHABGABQAU1@@Z@DataStructures@@QAE@XZ 77f36530 f i ReliabilityLayer.obj
 0001:00035530       ??1?$OrderedList@IPAUInternalPacket@@$1?SplitPacketIndexComp@@YAHABIABQAU1@@Z@DataStructures@@QAE@XZ 77f36530 f i ReliabilityLayer.obj
 0001:000355b0       ?Serialize@?$RangeList@G@DataStructures@@QAEIPAVBitStream@RakNet@@H_N@Z 77f365b0 f i ReliabilityLayer.obj
 0001:00035750       ?Insert@?$OrderedList@GU?$RangeNode@G@DataStructures@@$1??$RangeNodeComp@G@2@YAHABGABU12@@Z@DataStructures@@QAEIABGABU?$RangeNode@G@2@@Z 77f36750 f i ReliabilityLayer.obj
 0001:000357b0       ?RemoveAtIndex@?$OrderedList@GU?$RangeNode@G@DataStructures@@$1??$RangeNodeComp@G@2@YAHABGABU12@@Z@DataStructures@@QAEXI@Z 77f367b0 f i ReliabilityLayer.obj
 0001:000357b0       ?RemoveAtIndex@?$List@PAUBanStruct@RakPeer@@@DataStructures@@QAEXI@Z 77f367b0 f i RakPeer.obj
 0001:000357f0       ?FreePages@?$BPlusTree@GPAUInternalPacket@@$0CA@@DataStructures@@IAEXXZ 77f367f0 f i ReliabilityLayer.obj
 0001:00035960       ?InsertBranchDown@?$BPlusTree@GPAUInternalPacket@@$0CA@@DataStructures@@IAEPAU?$Page@GPAUInternalPacket@@$0CA@@2@GABQAUInternalPacket@@PAU32@PAUReturnAction@12@PA_N@Z 77f36960 f i ReliabilityLayer.obj
 0001:00035be0       ?FindDeleteRebalance@?$BPlusTree@GPAUInternalPacket@@$0CA@@DataStructures@@IAE_NGPAU?$Page@GPAUInternalPacket@@$0CA@@2@PA_NGPAUReturnAction@12@AAPAUInternalPacket@@@Z 77f36be0 f i ReliabilityLayer.obj
 0001:00035d60       ?InitializeVariables@ReliabilityLayer@@AAEXXZ 77f36d60 f   ReliabilityLayer.obj
 0001:00035ec0       ??1SplitPacketChannel@@QAE@XZ 77f36ec0 f i ReliabilityLayer.obj
 0001:00035ed0       ?AddToOrderingList@ReliabilityLayer@@AAEXPAUInternalPacket@@@Z 77f36ed0 f   ReliabilityLayer.obj
 0001:00035f70       ?GetStatistics@ReliabilityLayer@@QAEQAURakNetStatisticsStruct@@XZ 77f36f70 f   ReliabilityLayer.obj
 0001:00036090       ?Insert@?$RangeList@G@DataStructures@@QAEXG@Z 77f37090 f i ReliabilityLayer.obj
 0001:000361f0       ?Deserialize@?$RangeList@G@DataStructures@@QAE_NPAVBitStream@RakNet@@@Z 77f371f0 f i ReliabilityLayer.obj
 0001:00036320       ?Delete@?$BPlusTree@GPAUInternalPacket@@$0CA@@DataStructures@@QAE_NGAAPAUInternalPacket@@@Z 77f37320 f i ReliabilityLayer.obj
 0001:00036400       ?Insert@?$BPlusTree@GPAUInternalPacket@@$0CA@@DataStructures@@QAE_NGABQAUInternalPacket@@@Z 77f37400 f i ReliabilityLayer.obj
 0001:00036530       ??1?$OrderedList@GU?$RangeNode@G@DataStructures@@$1??$RangeNodeComp@G@2@YAHABGABU12@@Z@DataStructures@@QAE@XZ 77f37530 f i ReliabilityLayer.obj
 0001:000365e0       ?GenerateDatagram@ReliabilityLayer@@AAEIPAVBitStream@RakNet@@HPA_N_JUPlayerID@@AAV?$List@PAVPluginInterface@@@DataStructures@@@Z 77f375e0 f   ReliabilityLayer.obj
 0001:00036be0       ?RemovePacketFromResendListAndDeleteOlderReliableSequenced@ReliabilityLayer@@AAEIG_J@Z 77f37be0 f   ReliabilityLayer.obj
 0001:00036c30       ?InsertIntoSplitPacketList@ReliabilityLayer@@AAEXPAUInternalPacket@@_J@Z 77f37c30 f   ReliabilityLayer.obj
 0001:00036dc0       ?BuildPacketFromSplitPacketList@ReliabilityLayer@@AAEPAUInternalPacket@@G_J@Z 77f37dc0 f   ReliabilityLayer.obj
 0001:00036fb0       ?DeleteOldUnreliableSplitPackets@ReliabilityLayer@@AAEX_J@Z 77f37fb0 f   ReliabilityLayer.obj
 0001:000370d0       ??1?$RangeList@G@DataStructures@@QAE@XZ 77f380d0 f i ReliabilityLayer.obj
 0001:00037160       ??1?$BPlusTree@GPAUInternalPacket@@$0CA@@DataStructures@@QAE@XZ 77f38160 f i ReliabilityLayer.obj
 0001:000371c0       ??0ReliabilityLayer@@QAE@XZ 77f381c0 f   ReliabilityLayer.obj
 0001:00037330       ?FreeThreadSafeMemory@ReliabilityLayer@@AAEXXZ 77f38330 f   ReliabilityLayer.obj
 0001:000377b0       ?HandleSocketReceiveFromConnectedPlayer@ReliabilityLayer@@QAE_NPBDHUPlayerID@@AAV?$List@PAVPluginInterface@@@DataStructures@@H@Z 77f387b0 f   ReliabilityLayer.obj
 0001:00037fd0       ?Update@ReliabilityLayer@@QAEXIUPlayerID@@H_JAAV?$List@PAVPluginInterface@@@DataStructures@@@Z 77f38fd0 f   ReliabilityLayer.obj
 0001:000386b0       ??1ReliabilityLayer@@QAE@XZ 77f396b0 f   ReliabilityLayer.obj
 0001:000387f0       ?Reset@ReliabilityLayer@@QAEX_N@Z 77f397f0 f   ReliabilityLayer.obj
 0001:00038810       ?Replace@?$List@PAURPCNode@@@DataStructures@@QAEXQAURPCNode@@0I@Z 77f39810 f i RPCMap.obj
 0001:00038810       ?Replace@?$List@PAV?$LinkedList@PAUInternalPacket@@@DataStructures@@@DataStructures@@QAEXQAV?$LinkedList@PAUInternalPacket@@@2@0I@Z 77f39810 f i ReliabilityLayer.obj
 0001:000388b0       ??0RPCMap@@QAE@XZ          77f398b0 f   RPCMap.obj
 0001:000388c0       ?Clear@RPCMap@@QAEXXZ      77f398c0 f   RPCMap.obj
 0001:00038930       ?GetNodeFromIndex@RPCMap@@QAEPAURPCNode@@E@Z 77f39930 f   RPCMap.obj
 0001:00038950       ?GetIndexFromFunctionName@RPCMap@@QAEEPAD@Z 77f39950 f   RPCMap.obj
 0001:000389b0       ?AddIdentifierWithFunction@RPCMap@@QAEXPADPAX_N@Z 77f399b0 f   RPCMap.obj
 0001:00038a40       ?AddIdentifierAtIndex@RPCMap@@QAEXPADE@Z 77f39a40 f   RPCMap.obj
 0001:00038b00       ?RemoveNode@RPCMap@@QAEXPAD@Z 77f39b00 f   RPCMap.obj
 0001:00038b40       ??1RPCMap@@QAE@XZ          77f39b40 f   RPCMap.obj
 0001:00038ba0       ?Reset@CSHA1@@QAEXXZ       77f39ba0 f   SHA1.obj
 0001:00038bd0       ?Transform@CSHA1@@AAEXQAIQAE@Z 77f39bd0 f   SHA1.obj
 0001:0003a7f0       ?Update@CSHA1@@QAEXPAEI@Z  77f3b7f0 f   SHA1.obj
 0001:0003a8c0       ?Final@CSHA1@@QAEXXZ       77f3b8c0 f   SHA1.obj
 0001:0003a9c0       ?GetHash@CSHA1@@QBEPAEXZ   77f3b9c0 f   SHA1.obj
 0001:0003a9d0       ??0CSHA1@@QAE@XZ           77f3b9d0 f   SHA1.obj
 0001:0003aa10       ??1CSHA1@@UAE@XZ           77f3ba10 f   SHA1.obj
 0001:0003aa50       ??_GCSHA1@@UAEPAXI@Z       77f3ba50 f i SHA1.obj
 0001:0003aa50       ??_ECSHA1@@UAEPAXI@Z       77f3ba50 f i SHA1.obj
 0001:0003aaa0       ??0SimpleMutex@@QAE@XZ     77f3baa0 f   SimpleMutex.obj
 0001:0003aab0       ??1SimpleMutex@@QAE@XZ     77f3bab0 f   SimpleMutex.obj
 0001:0003aac0       ?Lock@SimpleMutex@@QAEXXZ  77f3bac0 f   SimpleMutex.obj
 0001:0003aad0       ?Unlock@SimpleMutex@@QAEXXZ 77f3bad0 f   SimpleMutex.obj
 0001:0003aae0       ?CreateBoundSocket@SocketLayer@@QAEIG_NPBD@Z 77f3bae0 f   SocketLayer.obj
 0001:0003abf0       ?DomainNameToIP@SocketLayer@@QAEPBDPBD@Z 77f3bbf0 f   SocketLayer.obj
 0001:0003ac20       ?RecvFrom@SocketLayer@@QAEHIPAVRakPeer@@PAH@Z 77f3bc20 f   SocketLayer.obj
 0001:0003acf0       ?SendTo@SocketLayer@@QAEHIPBDHIG@Z 77f3bcf0 f   SocketLayer.obj
 0001:0003ade0       ?SendTo@SocketLayer@@QAEHIPBDHQADG@Z 77f3bde0 f   SocketLayer.obj
 0001:0003ae10       ?GetMyIP@SocketLayer@@QAEXQAY0BA@D@Z 77f3be10 f   SocketLayer.obj
 0001:0003ae90       ?GetLocalPort@SocketLayer@@QAEGI@Z 77f3be90 f   SocketLayer.obj
 0001:0003aed0       ?Instance@StringCompressor@@SAPAV1@XZ 77f3bed0 f   StringCompressor.obj
 0001:0003aee0       ?GetIndexFromKey@?$OrderedList@HUMapNode@?$Map@HPAVHuffmanEncodingTree@@$1??$defaultMapKeyComparison@H@DataStructures@@YAHABH0@Z@DataStructures@@$1?NodeComparisonFunc@23@SAHABHABU123@@Z@DataStructures@@QBEIABHPA_N@Z 77f3bee0 f i StringCompressor.obj
 0001:0003af50       ?Insert@?$List@UMapNode@?$Map@HPAVHuffmanEncodingTree@@$1??$defaultMapKeyComparison@H@DataStructures@@YAHABH0@Z@DataStructures@@@DataStructures@@QAEXUMapNode@?$Map@HPAVHuffmanEncodingTree@@$1??$defaultMapKeyComparison@H@DataStructures@@YAHABH0@Z@2@@Z 77f3bf50 f i StringCompressor.obj
 0001:0003b020       ?Insert@?$List@UMapNode@?$Map@HPAVHuffmanEncodingTree@@$1??$defaultMapKeyComparison@H@DataStructures@@YAHABH0@Z@DataStructures@@@DataStructures@@QAEXUMapNode@?$Map@HPAVHuffmanEncodingTree@@$1??$defaultMapKeyComparison@H@DataStructures@@YAHABH0@Z@2@I@Z 77f3c020 f i StringCompressor.obj
 0001:0003b110       ?Get@?$Map@HPAVHuffmanEncodingTree@@$1??$defaultMapKeyComparison@H@DataStructures@@YAHABH0@Z@DataStructures@@QAEAAPAVHuffmanEncodingTree@@ABH@Z 77f3c110 f i StringCompressor.obj
 0001:0003b160       ??1?$OrderedList@HUMapNode@?$Map@HPAVHuffmanEncodingTree@@$1??$defaultMapKeyComparison@H@DataStructures@@YAHABH0@Z@DataStructures@@$1?NodeComparisonFunc@23@SAHABHABU123@@Z@DataStructures@@QAE@XZ 77f3c160 f i StringCompressor.obj
 0001:0003b1e0       ?Insert@?$OrderedList@HUMapNode@?$Map@HPAVHuffmanEncodingTree@@$1??$defaultMapKeyComparison@H@DataStructures@@YAHABH0@Z@DataStructures@@$1?NodeComparisonFunc@23@SAHABHABU123@@Z@DataStructures@@QAEIABHABUMapNode@?$Map@HPAVHuffmanEncodingTree@@$1??$defaultMapKeyComparison@H@DataStructures@@YAHABH0@Z@2@@Z 77f3c1e0 f i StringCompressor.obj
 0001:0003b240       ?EncodeString@StringCompressor@@QAEXPBDHPAVBitStream@RakNet@@H@Z 77f3c240 f   StringCompressor.obj
 0001:0003b390       ?DecodeString@StringCompressor@@QAE_NPADHPAVBitStream@RakNet@@H@Z 77f3c390 f   StringCompressor.obj
 0001:0003b460       ??1?$Map@HPAVHuffmanEncodingTree@@$1??$defaultMapKeyComparison@H@DataStructures@@YAHABH0@Z@DataStructures@@QAE@XZ 77f3c460 f i StringCompressor.obj
 0001:0003b4d0       ?Set@?$Map@HPAVHuffmanEncodingTree@@$1??$defaultMapKeyComparison@H@DataStructures@@YAHABH0@Z@DataStructures@@QAEXABHABQAVHuffmanEncodingTree@@@Z 77f3c4d0 f i StringCompressor.obj
 0001:0003b570       ??0StringCompressor@@AAE@XZ 77f3c570 f   StringCompressor.obj
 0001:0003b610       ??1StringCompressor@@QAE@XZ 77f3c610 f   StringCompressor.obj
 0001:0003b690       ?AddReference@StringCompressor@@SAXXZ 77f3c690 f   StringCompressor.obj
 0001:0003b700       ?RemoveReference@StringCompressor@@SAXXZ 77f3c700 f   StringCompressor.obj
 0001:0003b740       ??1?$OrderedList@PADUStrAndBool@@$1?StrAndBoolComp@@YAHABQADABU1@@Z@DataStructures@@QAE@XZ 77f3c740 f i StringTable.obj
 0001:0003b7c0       ??1StringTable@@QAE@XZ     77f3c7c0 f   StringTable.obj
 0001:0003b840       ?AddReference@StringTable@@SAXXZ 77f3c840 f   StringTable.obj
 0001:0003b880       ?RemoveReference@StringTable@@SAXXZ 77f3c880 f   StringTable.obj
 0001:0003b8c0       ??0TEABlockEncryptor@@QAE@XZ 77f3c8c0 f   TEABlockEncryptor.obj
 0001:0003b8f0       ??1TEABlockEncryptor@@QAE@XZ 77f3c8f0 f   TEABlockEncryptor.obj
 0001:0003b900       ?IsKeySet@TEABlockEncryptor@@QBE_NXZ 77f3c900 f   TEABlockEncryptor.obj
 0001:0003b910       ?SetKey@TEABlockEncryptor@@QAEXQBE@Z 77f3c910 f   TEABlockEncryptor.obj
 0001:0003b920       ?UnsetKey@TEABlockEncryptor@@QAEXXZ 77f3c920 f   TEABlockEncryptor.obj
 0001:0003b930       ?EncryptBlock@TEABlockEncryptor@@IAEXAAI0@Z 77f3c930 f   TEABlockEncryptor.obj
 0001:0003bab0       ?DecryptBlock@TEABlockEncryptor@@IAEXAAI0@Z 77f3cab0 f   TEABlockEncryptor.obj
 0001:0003bc40       ?Encrypt@TEABlockEncryptor@@QAEXPAEH0PAH@Z 77f3cc40 f   TEABlockEncryptor.obj
 0001:0003bd50       ?Decrypt@TEABlockEncryptor@@QAE_NPAEH0PAH@Z 77f3cd50 f   TEABlockEncryptor.obj
 0001:0003be50       _adler32                   77f3ce50 f   adler32.obj
 0001:0003c0a0       _compress2                 77f3d0a0 f   compress.obj
 0001:0003c430       _crc32                     77f3d430 f   crc32.obj
 0001:0003c4f0       _deflate                   77f3d4f0 f   deflate.obj
 0001:0003cd60       _deflateEnd                77f3dd60 f   deflate.obj
 0001:0003dc50       _deflateReset              77f3ec50 f   deflate.obj
 0001:0003dcf0       _deflateInit2_             77f3ecf0 f   deflate.obj
 0001:0003df30       _deflateInit_              77f3ef30 f   deflate.obj
 0001:0003f1c0       __tr_init                  77f401c0 f   trees.obj
 0001:0003f520       __tr_stored_block          77f40520 f   trees.obj
 0001:0003f5c0       __tr_align                 77f405c0 f   trees.obj
 0001:0003f7c0       __tr_flush_block           77f407c0 f   trees.obj
 0001:0003f9d0       _zcalloc                   77f409d0 f   zutil.obj
 0001:0003f9f0       _zcfree                    77f409f0 f   zutil.obj
 0001:0003fa00       ??1CAbstractStream@@UAE@XZ 77f40a00 f i ArchiveFS.obj
 0001:0003fa10       ?Read@CAbstractStream@@UAEIPAXHH@Z 77f40a10 f i ArchiveFS.obj
 0001:0003fa30       ?Write@CAbstractStream@@UAEIPBXHH@Z 77f40a30 f i ArchiveFS.obj
 0001:0003fa50       ?Seek@CAbstractStream@@UAEXH@Z 77f40a50 f i ArchiveFS.obj
 0001:0003fa60       ??_GCAbstractStream@@UAEPAXI@Z 77f40a60 f i ArchiveFS.obj
 0001:0003fa60       ??_ECAbstractStream@@UAEPAXI@Z 77f40a60 f i ArchiveFS.obj
 0001:0003fa80       ?Open@CFileStream@@UAE_NPBDW4eType@1@W4eMode@1@@Z 77f40a80 f i ArchiveFS.obj
 0001:0003fb30       ?Read@CMemoryStream@@UAEIPAXH@Z 77f40b30 f i ArchiveFS.obj
 0001:0003fb80       ?Write@CMemoryStream@@UAEIPBXH@Z 77f40b80 f i ArchiveFS.obj
 0001:0003fbd0       ?Seek@CMemoryStream@@UAEXHW4eSeek@CAbstractStream@@@Z 77f40bd0 f i ArchiveFS.obj
 0001:0003fc10       ?Tell@CMemoryStream@@UAEIXZ 77f40c10 f i ArchiveFS.obj
 0001:0003fc20       ??_GCMemoryStream@@UAEPAXI@Z 77f40c20 f i ArchiveFS.obj
 0001:0003fc20       ??_ECMemoryStream@@UAEPAXI@Z 77f40c20 f i ArchiveFS.obj
 0001:0003fc40       ??1CMemoryStream@@UAE@XZ   77f40c40 f i ArchiveFS.obj
 0001:0003fc70       ?AddEntry@_AFS_ENTRYBT_NODE@@QAEXPAU_SAA_ENTRY@@@Z 77f40c70 f i ArchiveFS.obj
 0001:0003fd00       ?FindEntry@_AFS_ENTRYBT_NODE@@QAEPAU1@K@Z 77f40d00 f i ArchiveFS.obj
 0001:0003fd30       ?HashString@CArchiveFS@@AAEKPAD@Z 77f40d30 f   ArchiveFS.obj
 0001:0003ff80       ?LoadEntries@CArchiveFS@@AAEXXZ 77f40f80 f   ArchiveFS.obj
 0001:000401e0       ?Load@CArchiveFS@@UAE_NPAEK@Z 77f411e0 f   ArchiveFS.obj
 0001:000402c0       ?Unload@CArchiveFS@@UAEXXZ 77f412c0 f   ArchiveFS.obj
 0001:000402f0       ?GetFileIndex@CArchiveFS@@UAEKK@Z 77f412f0 f   ArchiveFS.obj
 0001:000403a0       ?GetFileIndex@CArchiveFS@@UAEKPAD@Z 77f413a0 f   ArchiveFS.obj
 0001:00040400       ?GetFileSize@CArchiveFS@@UAEKK@Z 77f41400 f   ArchiveFS.obj
 0001:00040440       ?GetFileData@CArchiveFS@@UAEPAEK@Z 77f41440 f   ArchiveFS.obj
 0001:00040630       ?UnloadData@CArchiveFS@@UAEXK@Z 77f41630 f   ArchiveFS.obj
 0001:00040650       ??0CFileStream@@QAE@PBDW4eType@0@W4eMode@0@@Z 77f41650 f i ArchiveFS.obj
 0001:000406b0       ?IsOpen@CFileStream@@UAE_NXZ 77f416b0 f i ArchiveFS.obj
 0001:000406c0       ?Close@CFileStream@@UAEXXZ 77f416c0 f i ArchiveFS.obj
 0001:000406e0       ?Read@CFileStream@@UAEIPAXH@Z 77f416e0 f i ArchiveFS.obj
 0001:00040700       ?Read@CFileStream@@UAEIPAXHH@Z 77f41700 f i ArchiveFS.obj
 0001:00040720       ?Write@CFileStream@@UAEIPBXH@Z 77f41720 f i ArchiveFS.obj
 0001:00040740       ?Write@CFileStream@@UAEIPBXHH@Z 77f41740 f i ArchiveFS.obj
 0001:00040760       ?Seek@CFileStream@@UAEXHW4eSeek@CAbstractStream@@@Z 77f41760 f i ArchiveFS.obj
 0001:00040780       ?Tell@CFileStream@@UAEIXZ  77f41780 f i ArchiveFS.obj
 0001:00040790       ??_ECFileStream@@UAEPAXI@Z 77f41790 f i ArchiveFS.obj
 0001:00040790       ??_GCFileStream@@UAEPAXI@Z 77f41790 f i ArchiveFS.obj
 0001:000407b0       ??1CFileStream@@UAE@XZ     77f417b0 f i ArchiveFS.obj
 0001:000407e0       ??1_AFS_ENTRYBT_NODE@@QAE@XZ 77f417e0 f i ArchiveFS.obj
 0001:00040830       ??0CArchiveFS@@QAE@XZ      77f41830 f   ArchiveFS.obj
 0001:00040880       ??0CArchiveFS@@QAE@KK@Z    77f41880 f   ArchiveFS.obj
 0001:000408e0       ??1CArchiveFS@@UAE@XZ      77f418e0 f   ArchiveFS.obj
 0001:00040980       ?Load@CArchiveFS@@UAE_NPAD@Z 77f41980 f   ArchiveFS.obj
 0001:00040a70       ??_GCArchiveFS@@UAEPAXI@Z  77f41a70 f i ArchiveFS.obj
 0001:00040a70       ??_ECArchiveFS@@UAEPAXI@Z  77f41a70 f i ArchiveFS.obj
 0001:00040a90       ??0CCryptoContext@@QAE@XZ  77f41a90 f   CryptoContext.obj
 0001:00040b00       ??1CCryptoContext@@QAE@XZ  77f41b00 f   CryptoContext.obj
 0001:00040b40       ?xCryptGetFunction@@YAP6GHXZPADK@Z 77f41b40 f   CryptoFns.obj
 0001:00040bc0       ?xCryptCallAcquireContext@@YGHPAKPBD1KK@Z 77f41bc0 f   CryptoFns.obj
 0001:00040bf0       ?xCryptCallReleaseContext@@YGHKK@Z 77f41bf0 f   CryptoFns.obj
 0001:00040c20       ?xCryptCallCreateHash@@YGHKIKKPAK@Z 77f41c20 f   CryptoFns.obj
 0001:00040c50       ?xCryptCallDestroyHash@@YGHK@Z 77f41c50 f   CryptoFns.obj
 0001:00040c80       ?xCryptCallHashData@@YGHKPAEKK@Z 77f41c80 f   CryptoFns.obj
 0001:00040cb0       ?xCryptCallDestroyKey@@YGHK@Z 77f41cb0 f   CryptoFns.obj
 0001:00040ce0       ?xCryptCallImportKey@@YGHKPAEKKKPAK@Z 77f41ce0 f   CryptoFns.obj
 0001:00040d10       ?xCryptCallVerifySignature@@YGHKPAEKKPBDK@Z 77f41d10 f   CryptoFns.obj
 0001:00040d40       ??0CHasher@@QAE@PAVCCryptoContext@@@Z 77f41d40 f   Hasher.obj
 0001:00040d70       ??1CHasher@@QAE@XZ         77f41d70 f   Hasher.obj
 0001:00040d80       ?AddData@CHasher@@QAEXKPAE@Z 77f41d80 f   Hasher.obj
 0001:00040da0       ??0CKeyPair@@QAE@PAVCCryptoContext@@@Z 77f41da0 f   KeyPair.obj
 0001:00040dc0       ?LoadFromMemory@CKeyPair@@QAEXKPAEE@Z 77f41dc0 f   KeyPair.obj
 0001:00040e40       ?GetContainer@CHasher@@QAEKXZ 77f41e40 f   Hasher.obj
 0001:00040e40       ?GetProvider@CCryptoContext@@QAEKXZ 77f41e40 f   CryptoContext.obj
 0001:00040e40       ?GetContainer@CKeyPair@@QAEKXZ 77f41e40 f   KeyPair.obj
 0001:00040e50       ??1CKeyPair@@QAE@XZ        77f41e50 f   KeyPair.obj
 0001:00040e70       ??0CSigner@@QAE@XZ         77f41e70 f   Signer.obj
 0001:00040e80       ??1CSigner@@QAE@XZ         77f41e80 f   Signer.obj
 0001:00040e90       ?SetSignature@CSigner@@QAEXKPAE@Z 77f41e90 f   Signer.obj
 0001:00040ee0       ?VerifySignature@CSigner@@QAEHPAVCHasher@@PAVCKeyPair@@@Z 77f41ee0 f   Signer.obj
 0001:00040f10       ??0CTinyEncrypt@@QAE@XZ    77f41f10 f   TinyEncrypt.obj
 0001:00040f60       ?SetKey@CTinyEncrypt@@QAEXPAEE@Z 77f41f60 f   TinyEncrypt.obj
 0001:00040fa0       ?DecryptBlock@CTinyEncrypt@@AAEXAAK0@Z 77f41fa0 f   TinyEncrypt.obj
 0001:00041060       ?DecryptData@CTinyEncrypt@@QAEXKPAE@Z 77f42060 f   TinyEncrypt.obj
 0001:000410a0       ?LaunchMonitor@@YAXPAX@Z   77f420a0 f   main.obj
 0001:00041130       ?SetupD3DFog@@YAXH@Z       77f42130 f   main.obj
 0001:00041180       ?RwRenderStateSetHook@@YAXXZ 77f42180 f   main.obj
 0001:000411f0       ?TheGameLoop@@YAXXZ        77f421f0 f   main.obj
 0001:00041200       ?QuitGame@@YAXXZ           77f42200 f   main.obj
 0001:00041240       ?OnGUIEvent@@YGXIHPAVCDXUTControl@@PAX@Z 77f42240 f   main.obj
 0001:00041270       ?SetStringFromCommandLine@@YAXPAD0@Z 77f42270 f   main.obj
 0001:000412c0       ?d3d9DestroyDeviceObjects@@YAXXZ 77f422c0 f   main.obj
 0001:00041390       ?d3d9RestoreDeviceObjects@@YAXXZ 77f42390 f   main.obj
 0001:00041480       ?SetupGameUI@@YAXXZ        77f42480 f   main.obj
 0001:00041590       ?InitSettings@@YAXXZ       77f42590 f   main.obj
 0001:00041660       ?DoInitStuff@@YAXXZ        77f42660 f   main.obj
 0001:00041a70       ?TheGraphicsLoop@@YAXXZ    77f42a70 f   main.obj
 0001:00041b50       _DllMain@12                77f42b50 f   main.obj
 0001:00041cf4       _D3DXCreateSprite@8        77f42cf4 f   d3dx9:d3dx9_25.dll
 0001:00041cfa       _D3DXCreateFontA@48        77f42cfa f   d3dx9:d3dx9_25.dll
 0001:00041d00       _D3DXVec3Project@24        77f42d00 f   d3dx9:d3dx9_25.dll
 0001:00041d06       _D3DXCreateTextureFromFileExA@56 77f42d06 f   d3dx9:d3dx9_25.dll
 0001:00041d0c       _D3DXCreateTextureFromFileInMemory@16 77f42d0c f   d3dx9:d3dx9_25.dll
 0001:00041d12       _D3DXSaveSurfaceToFileA@20 77f42d12 f   d3dx9:d3dx9_25.dll
 0001:00041d18       _D3DXMatrixScaling@16      77f42d18 f   d3dx9:d3dx9_25.dll
 0001:00041d1e       _Module32Next@8            77f42d1e f   kernel32:KERNEL32.dll
 0001:00041d24       _Module32First@8           77f42d24 f   kernel32:KERNEL32.dll
 0001:00041d2a       _CreateToolhelp32Snapshot@8 77f42d2a f   kernel32:KERNEL32.dll
 0001:00041d30       _WSAStartup@8              77f42d30 f   wsock32:WSOCK32.dll
 0001:00041d36       _WSACleanup@0              77f42d36 f   wsock32:WSOCK32.dll
 0001:00041d3c       _closesocket@4             77f42d3c f   wsock32:WSOCK32.dll
 0001:00041d42       _send@16                   77f42d42 f   wsock32:WSOCK32.dll
 0001:00041d48       _recv@16                   77f42d48 f   wsock32:WSOCK32.dll
 0001:00041d4e       _connect@12                77f42d4e f   wsock32:WSOCK32.dll
 0001:00041d54       _socket@12                 77f42d54 f   wsock32:WSOCK32.dll
 0001:00041d5a       _htons@4                   77f42d5a f   wsock32:WSOCK32.dll
 0001:00041d60       _gethostbyname@4           77f42d60 f   wsock32:WSOCK32.dll
 0001:00041d66       __fpclear                  77f42d66 f   LIBCMT:fpinit.obj
 0001:00041d67       __cfltcvt_init             77f42d67 f   LIBCMT:fpinit.obj
 0001:00041d9f       __fpmath                   77f42d9f f   LIBCMT:fpinit.obj
 0001:00041dbd       ??3@YAXPAX@Z               77f42dbd f   LIBCMT:delete.obj
 0001:00041dc2       ??2@YAPAXI@Z               77f42dc2 f   LIBCMT:new.obj
 0001:00041dd0       ?_JumpToContinuation@@YGXPAXPAUEHRegistrationNode@@@Z 77f42dd0 f   LIBCMT:trnsctrl.obj
 0001:00041e00       ?_CallMemberFunction2@@YGXPAX00H@Z 77f42e00 f   LIBCMT:trnsctrl.obj
 0001:00041e00       ?_CallMemberFunction0@@YGXPAX0@Z 77f42e00 f   LIBCMT:trnsctrl.obj
 0001:00041e00       ?_CallMemberFunction1@@YGXPAX00@Z 77f42e00 f   LIBCMT:trnsctrl.obj
 0001:00041e07       ?_UnwindNestedFrames@@YGXPAUEHRegistrationNode@@PAUEHExceptionRecord@@@Z 77f42e07 f   LIBCMT:trnsctrl.obj
 0001:00041e59       ___CxxFrameHandler         77f42e59 f   LIBCMT:trnsctrl.obj
 0001:00041eca       ?_CallSETranslator@@YAHPAUEHExceptionRecord@@PAUEHRegistrationNode@@PAX2PBU_s_FuncInfo@@H1@Z 77f42eca f   LIBCMT:trnsctrl.obj
 0001:00042043       ?_GetRangeOfTrysToCheck@@YAPBU_s_TryBlockMapEntry@@PBU_s_FuncInfo@@HHPAI1@Z 77f43043 f   LIBCMT:trnsctrl.obj
 0001:000420bd       ?_CreateFrameInfo@@YAPAUFrameInfo@@PAU1@PAX@Z 77f430bd f   LIBCMT:trnsctrl.obj
 0001:000420e5       ?IsExceptionObjectToBeDestroyed@@YAHPAX@Z 77f430e5 f   LIBCMT:trnsctrl.obj
 0001:00042106       ?_FindAndUnlinkFrame@@YAXPAUFrameInfo@@@Z 77f43106 f   LIBCMT:trnsctrl.obj
 0001:00042152       ?_CallCatchBlock2@@YAPAXPAUEHRegistrationNode@@PBU_s_FuncInfo@@PAXHK@Z 77f43152 f   LIBCMT:trnsctrl.obj
 0001:000421ac       __global_unwind2           77f431ac f   LIBCMT:exsup.obj
 0001:000421ee       __local_unwind2            77f431ee f   LIBCMT:exsup.obj
 0001:00042246       __NLG_Return2              77f43246     LIBCMT:exsup.obj
 0001:00042256       __abnormal_termination     77f43256 f   LIBCMT:exsup.obj
 0001:00042279       __NLG_Notify1              77f43279 f   LIBCMT:exsup.obj
 0001:00042282       __NLG_Notify               77f43282 f   LIBCMT:exsup.obj
 0001:00042295       __NLG_Dispatch             77f43295     LIBCMT:exsup.obj
 0001:0004229a       _sprintf                   77f4329a f   LIBCMT:sprintf.obj
 0001:000422f2       __heap_alloc               77f432f2 f   LIBCMT:malloc.obj
 0001:0004236d       __nh_malloc                77f4336d f   LIBCMT:malloc.obj
 0001:00042399       _malloc                    77f43399 f   LIBCMT:malloc.obj
 0001:000423ac       __ftol2                    77f433ac f   LIBCMT:ftol2.obj
 0001:00042430       _strncpy                   77f43430 f   LIBCMT:strncpy.obj
 0001:00042554       _srand                     77f43554 f   LIBCMT:rand.obj
 0001:00042561       _rand                      77f43561 f   LIBCMT:rand.obj
 0001:00042583       _time                      77f43583 f   LIBCMT:time.obj
 0001:000425bc       _free                      77f435bc f   LIBCMT:free.obj
 0001:00042640       _strchr                    77f43640 f   LIBCMT:strchr.obj
 0001:00042646       ___from_strstr_to_strchr   77f43646     LIBCMT:strchr.obj
 0001:000426fe       _atol                      77f436fe f   LIBCMT:atox.obj
 0001:00042786       _atoi                      77f43786 f   LIBCMT:atox.obj
 0001:00042790       _memmove                   77f43790 f   LIBCMT:memmove.obj
 0001:00042ad0       _strstr                    77f43ad0 f   LIBCMT:strstr.obj
 0001:00042b56       _realloc                   77f43b56 f   LIBCMT:realloc.obj
 0001:00042d03       __fclose_lk                77f43d03 f   LIBCMT:fclose.obj
 0001:00042d4f       _fclose                    77f43d4f f   LIBCMT:fclose.obj
 0001:00042da0       __fsopen                   77f43da0 f   LIBCMT:fopen.obj
 0001:00042dfc       _fopen                     77f43dfc f   LIBCMT:fopen.obj
 0001:00042e0f       __fwrite_lk                77f43e0f f   LIBCMT:fwrite.obj
 0001:00042f16       _fwrite                    77f43f16 f   LIBCMT:fwrite.obj
 0001:00042f62       _vsprintf                  77f43f62 f   LIBCMT:vsprintf.obj
 0001:00042fb9       _strtok                    77f43fb9 f   LIBCMT:strtok.obj
 0001:0004306e       _fprintf                   77f4406e f   LIBCMT:fprintf.obj
 0001:000430d0       __chkstk                   77f440d0 f   LIBCMT:chkstk.obj
 0001:000430d0       __alloca_probe             77f440d0     LIBCMT:chkstk.obj
 0001:0004310d       __stricmp                  77f4410d f   LIBCMT:stricmp.obj
 0001:0004310d       _stricmp                   77f4410d f   LIBCMT:stricmp.obj
 0001:00043176       __fread_lk                 77f44176 f   LIBCMT:fread.obj
 0001:0004325f       _fread                     77f4425f f   LIBCMT:fread.obj
 0001:000432b0       _memchr                    77f442b0 f   LIBCMT:memchr.obj
 0001:0004335d       __CxxThrowException@8      77f4435d f   LIBCMT:throw.obj
 0001:000433a0       __alldiv                   77f443a0 f   LIBCMT:lldiv.obj
 0001:00043450       _strrchr                   77f44450 f   LIBCMT:strrchr.obj
 0001:0004347d       __vsnprintf                77f4447d f   LIBCMT:vsnprint.obj
 0001:00043553       ___onexitinit              77f44553 f   LIBCMT:onexit.obj
 0001:0004357b       __onexit                   77f4457b f   LIBCMT:onexit.obj
 0001:000435b3       _atexit                    77f445b3 f   LIBCMT:onexit.obj
 0001:000435c5       __strnicmp                 77f445c5 f   LIBCMT:strnicmp.obj
 0001:00043650       _pow                       77f44650 f   LIBCMT:pow.obj
 0001:00043690       __CIpow                    77f44690 f   LIBCMT:pow.obj
 0001:000436cb       __CIpow_default            77f446cb f   LIBCMT:pow.obj
 0001:000436e4       __pow_default              77f446e4     LIBCMT:pow.obj
 0001:000438da       ___tolower_mt              77f448da f   LIBCMT:tolower.obj
 0001:000439a2       _tolower                   77f449a2 f   LIBCMT:tolower.obj
 0001:000439c4       __purecall                 77f449c4 f   LIBCMT:purevirt.obj
 0001:000439d8       ?__ArrayUnwind@@YGXPAXIHP6EX0@Z@Z 77f449d8 f   LIBCMT:ehvecdtr.obj
 0001:00043a36       ??_M@YGXPAXIHP6EX0@Z@Z     77f44a36 f   LIBCMT:ehvecdtr.obj
 0001:00043a96       ??_L@YGXPAXIHP6EX0@Z1@Z    77f44a96 f   LIBCMT:ehvecctr.obj
 0001:00043af8       __ftell_lk                 77f44af8 f   LIBCMT:ftell.obj
 0001:00043c5a       _ftell                     77f44c5a f   LIBCMT:ftell.obj
 0001:00043c9b       __fseek_lk                 77f44c9b f   LIBCMT:fseek.obj
 0001:00043d2a       _fseek                     77f44d2a f   LIBCMT:fseek.obj
 0001:00043d80       __allmul                   77f44d80 f   LIBCMT:llmul.obj
 0001:00043dc0       __alldvrm                  77f44dc0 f   LIBCMT:lldvrm.obj
 0001:00043edd       _itoa                      77f44edd f   LIBCMT:xtoa.obj
 0001:00043edd       __itoa                     77f44edd f   LIBCMT:xtoa.obj
 0001:00043f07       __endthreadex              77f44f07 f   LIBCMT:threadex.obj
 0001:00043fcd       __beginthreadex            77f44fcd f   LIBCMT:threadex.obj
 0001:00044058       __errno                    77f45058 f   LIBCMT:dosmap.obj
 0001:00044061       ___doserrno                77f45061 f   LIBCMT:dosmap.obj
 0001:0004406a       __dosmaperr                77f4506a f   LIBCMT:dosmap.obj
 0001:000440dd       __flush                    77f450dd f   LIBCMT:fflush.obj
 0001:0004413a       __fflush_lk                77f4513a f   LIBCMT:fflush.obj
 0001:0004423d       __flushall                 77f4523d f   LIBCMT:fflush.obj
 0001:00044246       __strlwr                   77f45246 f   LIBCMT:strlwr.obj
 0001:0004435a       ??1type_info@@UAE@XZ       77f4535a f   LIBCMT:typinfo.obj
 0001:000443a0       ??_Gtype_info@@UAEPAXI@Z   77f453a0 f i LIBCMT:typinfo.obj
 0001:000443a0       ??_Etype_info@@UAEPAXI@Z   77f453a0 f i LIBCMT:typinfo.obj
 0001:000443bc       __endthread                77f453bc f   LIBCMT:thread.obj
 0001:0004448c       __beginthread              77f4548c f   LIBCMT:thread.obj
 0001:0004451d       __CRT_INIT@12              77f4551d f   LIBCMT:dllcrt0.obj
 0001:0004469e       __DllMainCRTStartup@12     77f4569e f   LIBCMT:dllcrt0.obj
 0001:00044782       __amsg_exit                77f45782 f   LIBCMT:dllcrt0.obj
 0001:000447b5       __forcdecpt                77f457b5 f   LIBCMT:cvt.obj
 0001:000447f1       __cropzeros                77f457f1 f   LIBCMT:cvt.obj
 0001:0004483c       __positive                 77f4583c f   LIBCMT:cvt.obj
 0001:00044856       __fassign                  77f45856 f   LIBCMT:cvt.obj
 0001:0004495f       __cftoe                    77f4595f f   LIBCMT:cvt.obj
 0001:00044a67       __cftof                    77f45a67 f   LIBCMT:cvt.obj
 0001:00044ac9       __cftog                    77f45ac9 f   LIBCMT:cvt.obj
 0001:00044b63       __cfltcvt                  77f45b63 f   LIBCMT:cvt.obj
 0001:00044bb4       __setdefaultprecision      77f45bb4 f   LIBCMT:fp8.obj
 0001:00044bc6       __ms_p5_test_fdiv          77f45bc6 f   LIBCMT:testfdiv.obj
 0001:00044c06       __ms_p5_mp_test_fdiv       77f45c06 f   LIBCMT:testfdiv.obj
 0001:00044c9c       ___FrameUnwindToState      77f45c9c f   LIBCMT:frame.obj
 0001:00044d6a       ___DestructExceptionObject 77f45d6a f   LIBCMT:frame.obj
 0001:00045437       ___InternalCxxFrameHandler 77f46437 f   LIBCMT:frame.obj
 0001:000454d9       ___crtTlsAlloc@4           77f464d9 f   LIBCMT:tidtable.obj
 0001:000454e2       __mtterm                   77f464e2 f   LIBCMT:tidtable.obj
 0001:000454ff       __initptd                  77f464ff f   LIBCMT:tidtable.obj
 0001:00045512       __getptd                   77f46512 f   LIBCMT:tidtable.obj
 0001:00045583       __freefls@4                77f46583 f   LIBCMT:tidtable.obj
 0001:000456ca       __freeptd                  77f466ca f   LIBCMT:tidtable.obj
 0001:000456f9       __mtinit                   77f466f9 f   LIBCMT:tidtable.obj
 0001:000457e8       ?terminate@@YAXXZ          77f467e8 f   LIBCMT:hooks.obj
 0001:0004581d       ?_inconsistency@@YAXXZ     77f4681d f   LIBCMT:hooks.obj
 0001:00045850       __CallSettingFrame@12      77f46850 f   LIBCMT:lowhelpr.obj
 0001:00045877       __NLG_Return               77f46877     LIBCMT:lowhelpr.obj
 0001:0004589c       __flsbuf                   77f4689c f   LIBCMT:_flsbuf.obj
 0001:00045a43       __output                   77f46a43 f   LIBCMT:output.obj
 0001:0004623d       __mtinitlocks              77f4723d f   LIBCMT:mlock.obj
 0001:00046286       __mtdeletelocks            77f47286 f   LIBCMT:mlock.obj
 0001:000462db       __unlock                   77f472db f   LIBCMT:mlock.obj
 0001:000462f0       __mtinitlocknum            77f472f0 f   LIBCMT:mlock.obj
 0001:00046390       __lock                     77f47390 f   LIBCMT:mlock.obj
 0001:000463c1       ___heap_select             77f473c1 f   LIBCMT:heapinit.obj
 0001:000463db       __heap_init                77f473db f   LIBCMT:heapinit.obj
 0001:0004642c       __heap_term                77f4742c f   LIBCMT:heapinit.obj
 0001:000464ab       ___sbh_heap_init           77f474ab f   LIBCMT:sbheap.obj
 0001:000464f3       ___sbh_find_block          77f474f3 f   LIBCMT:sbheap.obj
 0001:0004651e       ___sbh_free_block          77f4751e f   LIBCMT:sbheap.obj
 0001:00046836       ___sbh_alloc_new_region    77f47836 f   LIBCMT:sbheap.obj
 0001:000468ed       ___sbh_alloc_new_group     77f478ed f   LIBCMT:sbheap.obj
 0001:000469f3       ___sbh_resize_block        77f479f3 f   LIBCMT:sbheap.obj
 0001:00046cd2       ___sbh_alloc_block         77f47cd2 f   LIBCMT:sbheap.obj
 0001:00046fd0       __SEH_prolog               77f47fd0 f   LIBCMT:sehprolg.obj
 0001:0004700b       __SEH_epilog               77f4800b f   LIBCMT:sehprolg.obj
 0001:00047024       __except_handler3          77f48024 f   LIBCMT:exsup3.obj
 0001:0004710a       __seh_longjmp_unwind@4     77f4810a f   LIBCMT:exsup3.obj
 0001:00047125       __callnewh                 77f48125 f   LIBCMT:handler.obj
 0001:00047140       __aulldiv                  77f48140 f   LIBCMT:ulldiv.obj
 0001:000471a8       ___isctype_mt              77f481a8 f   LIBCMT:isctype.obj
 0001:0004721f       ___freetlocinfo            77f4821f f   LIBCMT:setlocal.obj
 0001:000473b0       ___updatetlocinfo          77f483b0 f   LIBCMT:setlocal.obj
 0001:000473f0       _memcpy                    77f483f0 f   LIBCMT:memcpy.obj
 0001:0004772d       __close_lk                 77f4872d f   LIBCMT:close.obj
 0001:000477b0       __close                    77f487b0 f   LIBCMT:close.obj
 0001:0004784b       __freebuf                  77f4884b f   LIBCMT:_freebuf.obj
 0001:00047876       ___initstdio               77f48876 f   LIBCMT:_file.obj
 0001:0004791f       ___endstdio                77f4891f f   LIBCMT:_file.obj
 0001:00047933       __lock_file                77f48933 f   LIBCMT:_file.obj
 0001:00047962       __lock_file2               77f48962 f   LIBCMT:_file.obj
 0001:00047985       __unlock_file              77f48985 f   LIBCMT:_file.obj
 0001:000479b4       __unlock_file2             77f489b4 f   LIBCMT:_file.obj
 0001:000479d7       __openfile                 77f489d7 f   LIBCMT:_open.obj
 0001:00047b3f       __getstream                77f48b3f f   LIBCMT:stream.obj
 0001:00047c61       __write_lk                 77f48c61 f   LIBCMT:write.obj
 0001:00047e2f       __write                    77f48e2f f   LIBCMT:write.obj
 0001:00047f0b       @__security_check_cookie@4 77f48f0b f   LIBCMT:secchk.obj
 0001:00047f19       __stbuf                    77f48f19 f   LIBCMT:_sftbuf.obj
 0001:00047fa1       __ftbuf                    77f48fa1 f   LIBCMT:_sftbuf.obj
 0001:00047fd0       ___ascii_stricmp           77f48fd0 f   LIBCMT:_stricmp.obj
 0001:0004801e       __filbuf                   77f4901e f   LIBCMT:_filbuf.obj
 0001:000480ff       __read_lk                  77f490ff f   LIBCMT:read.obj
 0001:000482da       __read                     77f492da f   LIBCMT:read.obj
 0001:00048385       ?__CxxUnhandledExceptionFilter@@YGJPAU_EXCEPTION_POINTERS@@@Z 77f49385 f   LIBCMT:unhandld.obj
 0001:000483d3       ?__CxxSetUnhandledExceptionFilter@@YAHXZ 77f493d3 f   LIBCMT:unhandld.obj
 0001:000483e6       ?__CxxRestoreUnhandledExceptionFilter@@YAXXZ 77f493e6 f   LIBCMT:unhandld.obj
 0001:00048400       _strlen                    77f49400 f   LIBCMT:strlen.obj
 0001:0004848b       ___crtExitProcess          77f4948b f   LIBCMT:crt0dat.obj
 0001:000484bb       __lockexit                 77f494bb f   LIBCMT:crt0dat.obj
 0001:000484c4       __unlockexit               77f494c4 f   LIBCMT:crt0dat.obj
 0001:000484e5       __cinit                    77f494e5 f   LIBCMT:crt0dat.obj
 0001:00048612       __exit                     77f49612 f   LIBCMT:crt0dat.obj
 0001:00048623       __cexit                    77f49623 f   LIBCMT:crt0dat.obj
 0001:00048632       __msize                    77f49632 f   LIBCMT:msize.obj
 0001:000486a8       _isdigit                   77f496a8 f   LIBCMT:_ctype.obj
 0001:000486f0       ___ascii_strnicmp          77f496f0 f   LIBCMT:_strnicm.obj
 0001:00048786       ___sse2_available_init     77f49786 f   LIBCMT:cpu_disp.obj
 0001:00048860       __CIpow_pentium4           77f49860 f   LIBCMT:pow_pentium4.obj
 0001:00048879       __pow_pentium4             77f49879     LIBCMT:pow_pentium4.obj
 0001:000493c1       __fFEXP                    77f4a3c1     LIBCMT:87tran.obj
 0001:00049428       __rtinfpopse               77f4a428     LIBCMT:87tran.obj
 0001:0004942a       __rtinfnpopse              77f4a42a     LIBCMT:87tran.obj
 0001:0004943a       __fFLN                     77f4a43a     LIBCMT:87tran.obj
 0001:000494ef       __rtinfpop                 77f4a4ef     LIBCMT:87tran.obj
 0001:000494f1       __rtinfnpop                77f4a4f1     LIBCMT:87tran.obj
 0001:0004950e       __ffexpm1                  77f4a50e     LIBCMT:87tran.obj
 0001:000495c0       __trandisp1                77f4a5c0 f   LIBCMT:87disp.obj
 0001:00049627       __trandisp2                77f4a627 f   LIBCMT:87disp.obj
 0001:000496b3       __rttospopde               77f4a6b3     LIBCMT:87disp.obj
 0001:000496b8       __rttospop                 77f4a6b8     LIBCMT:87disp.obj
 0001:000496ba       __rtnospop                 77f4a6ba     LIBCMT:87disp.obj
 0001:000496bc       __rttosnpop                77f4a6bc     LIBCMT:87disp.obj
 0001:000496bd       __rtnospopde               77f4a6bd     LIBCMT:87disp.obj
 0001:000496c4       __rtzeropop                77f4a6c4     LIBCMT:87disp.obj
 0001:000496c6       __rtzeronpop               77f4a6c6     LIBCMT:87disp.obj
 0001:000496cb       __rtonepop                 77f4a6cb     LIBCMT:87disp.obj
 0001:000496cd       __rtonenpop                77f4a6cd     LIBCMT:87disp.obj
 0001:000496d2       __tosnan1                  77f4a6d2     LIBCMT:87disp.obj
 0001:000496fd       __nosnan2                  77f4a6fd     LIBCMT:87disp.obj
 0001:000496ff       __tosnan2                  77f4a6ff     LIBCMT:87disp.obj
 0001:00049727       __nan2                     77f4a727     LIBCMT:87disp.obj
 0001:00049766       __rtindfpop                77f4a766     LIBCMT:87disp.obj
 0001:00049768       __rtindfnpop               77f4a768     LIBCMT:87disp.obj
 0001:00049779       __rttosnpopde              77f4a779     LIBCMT:87disp.obj
 0001:00049783       __rtchsifneg               77f4a783     LIBCMT:87disp.obj
 0001:00049790       __startTwoArgErrorHandling 77f4a790 f   LIBCMT:genexcep.obj
 0001:000497a7       __startOneArgErrorHandling 77f4a7a7 f   LIBCMT:genexcep.obj
 0001:000497f0       __twoToTOS                 77f4a7f0 f   LIBCMT:common.obj
 0001:00049805       __load_CW                  77f4a805 f   LIBCMT:common.obj
 0001:0004981c       __convertTOStoQNaN         77f4a81c f   LIBCMT:common.obj
 0001:00049835       __fload_withFB             77f4a835 f   LIBCMT:common.obj
 0001:00049878       __checkTOS_withFB          77f4a878 f   LIBCMT:common.obj
 0001:0004988e       __fast_exit                77f4a88e f   LIBCMT:common.obj
 0001:0004989b       __math_exit                77f4a89b f   LIBCMT:common.obj
 0001:000498c5       __check_overflow_exit      77f4a8c5 f   LIBCMT:common.obj
 0001:000498d9       __check_range_exit         77f4a8d9 f   LIBCMT:common.obj
 0001:0004997c       __d_inttype                77f4a97c f   LIBCMT:powhlp.obj
 0001:000499ea       __powhlp                   77f4a9ea f   LIBCMT:powhlp.obj
 0001:00049b4c       ___crtLCMapStringA         77f4ab4c f   LIBCMT:a_map.obj
 0001:00049f10       _strcpy                    77f4af10 f   LIBCMT:strcat.obj
 0001:00049f20       _strcat                    77f4af20 f   LIBCMT:strcat.obj
 0001:0004a008       __ioinit                   77f4b008 f   LIBCMT:ioinit.obj
 0001:0004a206       __ioterm                   77f4b206 f   LIBCMT:ioinit.obj
 0001:0004a252       __lseek_lk                 77f4b252 f   LIBCMT:lseek.obj
 0001:0004a2c6       __lseek                    77f4b2c6 f   LIBCMT:lseek.obj
 0001:0004a380       __aulldvrm                 77f4b380 f   LIBCMT:ulldvrm.obj
 0001:0004a415       __XcptFilter               77f4b415 f   LIBCMT:winxfltr.obj
 0001:0004a579       ___CppXcptFilter           77f4b579 f   LIBCMT:winxfltr.obj
 0001:0004a594       _calloc                    77f4b594 f   LIBCMT:calloc.obj
 0001:0004a64f       __commit                   77f4b64f f   LIBCMT:commit.obj
 0001:0004a70b       __resetstkoflw             77f4b70b f   LIBCMT:resetstk.obj
 0001:0004a7f0       _strcmp                    77f4b7f0 f   LIBCMT:strcmp.obj
 0001:0004a878       __setenvp                  77f4b878 f   LIBCMT:stdenvp.obj
 0001:0004aaab       __setargv                  77f4baab f   LIBCMT:stdargv.obj
 0001:0004ab4d       ___crtGetEnvironmentStringsA 77f4bb4d f   LIBCMT:a_env.obj
 0001:0004ac6f       __RTC_Initialize           77f4bc6f f   LIBCMT:initsect.obj
 0001:0004acb3       __RTC_Terminate            77f4bcb3 f   LIBCMT:initsect.obj
 0001:0004acf7       __NMSG_WRITE               77f4bcf7 f   LIBCMT:crt0msg.obj
 0001:0004ae6e       __FF_MSGBANNER             77f4be6e f   LIBCMT:crt0msg.obj
 0001:0004aea7       __ZeroTail                 77f4bea7 f   LIBCMT:intrncvt.obj
 0001:0004aed9       __IncMan                   77f4bed9 f   LIBCMT:intrncvt.obj
 0001:0004af26       __RoundMan                 77f4bf26 f   LIBCMT:intrncvt.obj
 0001:0004af98       __CopyMan                  77f4bf98 f   LIBCMT:intrncvt.obj
 0001:0004afb3       __IsZeroMan                77f4bfb3 f   LIBCMT:intrncvt.obj
 0001:0004afcc       __ShrMan                   77f4bfcc f   LIBCMT:intrncvt.obj
 0001:0004b047       __ld12cvt                  77f4c047 f   LIBCMT:intrncvt.obj
 0001:0004b19f       __ld12tod                  77f4c19f f   LIBCMT:intrncvt.obj
 0001:0004b1b5       __ld12tof                  77f4c1b5 f   LIBCMT:intrncvt.obj
 0001:0004b1cb       __atodbl                   77f4c1cb f   LIBCMT:intrncvt.obj
 0001:0004b208       __atoflt                   77f4c208 f   LIBCMT:intrncvt.obj
 0001:0004b245       __fptostr                  77f4c245 f   LIBCMT:_fptostr.obj
 0001:0004b2bc       ___dtold                   77f4c2bc f   LIBCMT:cfout.obj
 0001:0004b376       __fltout2                  77f4c376 f   LIBCMT:cfout.obj
 0001:0004b3f0       _memset                    77f4c3f0 f   LIBCMT:memset.obj
 0001:0004b450       __fptrap                   77f4c450 f   LIBCMT:crt0fp.obj
 0001:0004b579       __control87                77f4c579 f   LIBCMT:ieee87.obj
 0001:0004b5ab       __controlfp                77f4c5ab f   LIBCMT:ieee87.obj
 0001:0004b5c1       ?_ValidateRead@@YAHPBXI@Z  77f4c5c1 f   LIBCMT:validate.obj
 0001:0004b5dd       ?_ValidateWrite@@YAHPAXI@Z 77f4c5dd f   LIBCMT:validate.obj
 0001:0004b5f9       ?_ValidateExecute@@YAHP6GHXZ@Z 77f4c5f9 f   LIBCMT:validate.obj
 0001:0004b985       __setmbcp                  77f4c985 f   LIBCMT:mbctype.obj
 0001:0004bad5       ___initmbctable            77f4cad5 f   LIBCMT:mbctype.obj
 0001:0004baf3       _abort                     77f4caf3 f   LIBCMT:abort.obj
 0001:0004bb0b       __getbuf                   77f4cb0b f   LIBCMT:_getbuf.obj
 0001:0004bb4f       __isatty                   77f4cb4f f   LIBCMT:isatty.obj
 0001:0004bb79       ___wctomb_mt               77f4cb79 f   LIBCMT:wctomb.obj
 0001:0004bbd9       _wctomb                    77f4cbd9 f   LIBCMT:wctomb.obj
 0001:0004bc10       ___crtInitCritSecAndSpinCount 77f4cc10 f   LIBCMT:initcrit.obj
 0001:0004bc9b       __ValidateEH3RN            77f4cc9b f   LIBCMT:eh3valid.obj
 0001:0004bec4       ___crtGetStringTypeA       77f4cec4 f   LIBCMT:a_str.obj
 0001:0004c07e       ___free_lc_time            77f4d07e f   LIBCMT:inittime.obj
 0001:0004c20e       ___free_lconv_num          77f4d20e f   LIBCMT:initnum.obj
 0001:0004c26d       ___free_lconv_mon          77f4d26d f   LIBCMT:initmon.obj
 0001:0004c350       _strcspn                   77f4d350 f   LIBCMT:strcspn.obj
 0001:0004c3a0       _memcmp                    77f4d3a0 f   LIBCMT:memcmp.obj
 0001:0004c460       _strncmp                   77f4d460 f   LIBCMT:strncmp.obj
 0001:0004c4a0       _strpbrk                   77f4d4a0 f   LIBCMT:strpbrk.obj
 0001:0004c4e0       __set_osfhnd               77f4d4e0 f   LIBCMT:osfinfo.obj
 0001:0004c55c       __free_osfhnd              77f4d55c f   LIBCMT:osfinfo.obj
 0001:0004c5db       __get_osfhandle            77f4d5db f   LIBCMT:osfinfo.obj
 0001:0004c61c       __lock_fhandle             77f4d61c f   LIBCMT:osfinfo.obj
 0001:0004c6bc       __unlock_fhandle           77f4d6bc f   LIBCMT:osfinfo.obj
 0001:0004c6de       __alloc_osfhnd             77f4d6de f   LIBCMT:osfinfo.obj
 0001:0004c85a       __fcloseall                77f4d85a f   LIBCMT:closeall.obj
 0001:0004cbdc       __sopen                    77f4dbdc f   LIBCMT:open.obj
 0001:0004cc31       __lseeki64_lk              77f4dc31 f   LIBCMT:lseeki64.obj
 0001:0004ccb4       ___security_init_cookie    77f4dcb4 f   LIBCMT:seccinit.obj
 0001:0004cd1a       ___security_error_handler  77f4dd1a f   LIBCMT:secfail.obj
 0001:0004ce62       ___strgtold12              77f4de62 f   LIBCMT:strgtold.obj
 0001:0004d296       ___libm_error_support      77f4e296 f   LIBCMT:libm_error.obj
 0001:0004d530       _fdiv_main_routine         77f4e530 f   LIBCMT:adj_fdiv.obj
 0001:0004d647       __adj_fdiv_r               77f4e647 f   LIBCMT:adj_fdiv.obj
 0001:0004dae6       __fdivp_sti_st             77f4eae6 f   LIBCMT:adj_fdiv.obj
 0001:0004daf9       __fdivrp_sti_st            77f4eaf9 f   LIBCMT:adj_fdiv.obj
 0001:0004db0c       __adj_fdiv_m32             77f4eb0c f   LIBCMT:adj_fdiv.obj
 0001:0004db58       __adj_fdiv_m64             77f4eb58 f   LIBCMT:adj_fdiv.obj
 0001:0004dba4       __adj_fdiv_m16i            77f4eba4 f   LIBCMT:adj_fdiv.obj
 0001:0004dbd8       __adj_fdiv_m32i            77f4ebd8 f   LIBCMT:adj_fdiv.obj
 0001:0004dc0c       __adj_fdivr_m32            77f4ec0c f   LIBCMT:adj_fdiv.obj
 0001:0004dc58       __adj_fdivr_m64            77f4ec58 f   LIBCMT:adj_fdiv.obj
 0001:0004dca4       __adj_fdivr_m16i           77f4eca4 f   LIBCMT:adj_fdiv.obj
 0001:0004dcd8       __adj_fdivr_m32i           77f4ecd8 f   LIBCMT:adj_fdiv.obj
 0001:0004dd0c       __safe_fdiv                77f4ed0c f   LIBCMT:adj_fdiv.obj
 0001:0004dd21       __safe_fdivr               77f4ed21 f   LIBCMT:adj_fdiv.obj
 0001:0004dd36       __fprem_common             77f4ed36 f   LIBCMT:adj_fdiv.obj
 0001:0004df3c       __adj_fprem                77f4ef3c f   LIBCMT:adj_fdiv.obj
 0001:0004dfee       __fprem1_common            77f4efee f   LIBCMT:adj_fdiv.obj
 0001:0004e1f4       __adj_fprem1               77f4f1f4 f   LIBCMT:adj_fdiv.obj
 0001:0004e2a9       __safe_fprem               77f4f2a9 f   LIBCMT:adj_fdiv.obj
 0001:0004e2af       __safe_fprem1              77f4f2af f   LIBCMT:adj_fdiv.obj
 0001:0004e2b5       __adj_fpatan               77f4f2b5 f   LIBCMT:adj_fdiv.obj
 0001:0004e2b8       __adj_fptan                77f4f2b8 f   LIBCMT:adj_fdiv.obj
 0001:0004e2bb       __87except                 77f4f2bb f   LIBCMT:87except.obj
 0001:0004e3b3       __frnd                     77f4f3b3 f   LIBCMT:frnd.obj
 0001:0004e3c4       __fpclass                  77f4f3c4 f   LIBCMT:ieeemisc.obj
 0001:0004e460       __set_exp                  77f4f460 f   LIBCMT:util.obj
 0001:0004e48a       __sptype                   77f4f48a f   LIBCMT:util.obj
 0001:0004e4e5       __decomp                   77f4f4e5 f   LIBCMT:util.obj
 0001:0004e5a1       ___ansicp                  77f4f5a1 f   LIBCMT:convrtcp.obj
 0001:0004e5e4       ___convertcp               77f4f5e4 f   LIBCMT:convrtcp.obj
 0001:0004e7ad       ___crtMessageBoxA          77f4f7ad f   LIBCMT:crtmbox.obj
 0001:0004e8a6       ___addl                    77f4f8a6 f   LIBCMT:mantold.obj
 0001:0004e8c7       ___add_12                  77f4f8c7 f   LIBCMT:mantold.obj
 0001:0004e925       ___shl_12                  77f4f925 f   LIBCMT:mantold.obj
 0001:0004e953       ___shr_12                  77f4f953 f   LIBCMT:mantold.obj
 0001:0004e980       ___mtold12                 77f4f980 f   LIBCMT:mantold.obj
 0001:0004ea5e       _$I10_OUTPUT               77f4fa5e f   LIBCMT:x10fout.obj
 0001:0004ed1a       _raise                     77f4fd1a f   LIBCMT:winsig.obj
 0001:0004ee93       __chsize_lk                77f4fe93 f   LIBCMT:chsize.obj
 0001:0004efd4       ___ld12mul                 77f4ffd4 f   LIBCMT:tenpow.obj
 0001:0004f206       ___multtenpow12            77f50206 f   LIBCMT:tenpow.obj
 0001:0004f28c       __matherr                  77f5028c f   LIBCMT:matherr.obj
 0001:0004f28f       __raise_exc                77f5028f f   LIBCMT:fpexcept.obj
 0001:0004f534       __handle_exc               77f50534 f   LIBCMT:fpexcept.obj
 0001:0004f758       __set_errno                77f50758 f   LIBCMT:fpexcept.obj
 0001:0004f780       __statfp                   77f50780 f   LIBCMT:fpctrl.obj
 0001:0004f78b       __clrfp                    77f5078b f   LIBCMT:fpctrl.obj
 0001:0004f797       __ctrlfp                   77f50797 f   LIBCMT:fpctrl.obj
 0001:0004f7bb       __set_statfp               77f507bb f   LIBCMT:fpctrl.obj
 0001:0004f811       __setmode_lk               77f50811 f   LIBCMT:setmode.obj
 0001:0004f87d       ??0logic_error@std@@QAE@ABV?$basic_string@DU?$char_traits@D@std@@V?$allocator@D@2@@1@@Z 77f5087d f i libcpmt:string.obj
 0001:0004f8b9       ?what@logic_error@std@@UBEPBDXZ 77f508b9 f i libcpmt:string.obj
 0001:0004f8c7       ??1logic_error@std@@UAE@XZ 77f508c7 f i libcpmt:string.obj
 0001:0004f8e4       ??_Elogic_error@std@@UAEPAXI@Z 77f508e4 f i libcpmt:string.obj
 0001:0004f8e4       ??_Glogic_error@std@@UAEPAXI@Z 77f508e4 f i libcpmt:string.obj
 0001:0004f900       ??_Glength_error@std@@UAEPAXI@Z 77f50900 f i libcpmt:string.obj
 0001:0004f900       ??_Elength_error@std@@UAEPAXI@Z 77f50900 f i libcpmt:string.obj
 0001:0004f91c       ??1length_error@std@@UAE@XZ 77f5091c f i libcpmt:string.obj
 0001:0004f927       ??_Gout_of_range@std@@UAEPAXI@Z 77f50927 f i libcpmt:string.obj
 0001:0004f927       ??_Eout_of_range@std@@UAEPAXI@Z 77f50927 f i libcpmt:string.obj
 0001:0004f943       ??1out_of_range@std@@UAE@XZ 77f50943 f i libcpmt:string.obj
 0001:0004f94e       ?_Xran@_String_base@std@@QBEXXZ 77f5094e f   libcpmt:string.obj
 0001:0004f98e       ??0logic_error@std@@QAE@ABV01@@Z 77f5098e f i libcpmt:string.obj
 0001:0004f9d1       ??0out_of_range@std@@QAE@ABV01@@Z 77f509d1 f i libcpmt:string.obj
 0001:0004f9e9       ??0?$basic_string@DU?$char_traits@D@std@@V?$allocator@D@2@@std@@QAE@PBD@Z 77f509e9 f i libcpmt:string.obj
 0001:0004fa0b       ?_Xlen@_String_base@std@@QBEXXZ 77f50a0b f   libcpmt:string.obj
 0001:0004fa4b       ??0length_error@std@@QAE@ABV01@@Z 77f50a4b f i libcpmt:string.obj
 0001:0004fa64       _RtlUnwind@16              77f50a64 f   kernel32:KERNEL32.dll
 0001:0004fa6c       __EH_prolog                77f50a6c f   LIBCMT:ehprolog.obj
 0001:0004fa8b       ??0exception@@QAE@XZ       77f50a8b f   LIBCMT:stdexcpt.obj
 0001:0004fa9c       ??0exception@@QAE@ABV0@@Z  77f50a9c f   LIBCMT:stdexcpt.obj
 0001:0004fae6       ??1exception@@UAE@XZ       77f50ae6 f   LIBCMT:stdexcpt.obj
 0001:0004fafc       ?what@exception@@UBEPBDXZ  77f50afc f   LIBCMT:stdexcpt.obj
 0001:0004fb09       ??_Eexception@@UAEPAXI@Z   77f50b09 f i LIBCMT:stdexcpt.obj
 0001:0004fb09       ??_Gexception@@UAEPAXI@Z   77f50b09 f i LIBCMT:stdexcpt.obj
 0002:00000000       __imp__GetCPInfo@8         77f52000     kernel32:KERNEL32.dll
 0002:00000004       __imp__GetOEMCP@0          77f52004     kernel32:KERNEL32.dll
 0002:00000008       __imp__GetACP@0            77f52008     kernel32:KERNEL32.dll
 0002:0000000c       __imp__IsBadCodePtr@4      77f5200c     kernel32:KERNEL32.dll
 0002:00000010       __imp__GetEnvironmentStringsW@0 77f52010     kernel32:KERNEL32.dll
 0002:00000014       __imp__FreeEnvironmentStringsW@4 77f52014     kernel32:KERNEL32.dll
 0002:00000018       __imp__GetEnvironmentStrings@0 77f52018     kernel32:KERNEL32.dll
 0002:0000001c       __imp__FreeEnvironmentStringsA@4 77f5201c     kernel32:KERNEL32.dll
 0002:00000020       __imp__VirtualQuery@12     77f52020     kernel32:KERNEL32.dll
 0002:00000024       __imp__GetSystemInfo@4     77f52024     kernel32:KERNEL32.dll
 0002:00000028       __imp__FlushFileBuffers@4  77f52028     kernel32:KERNEL32.dll
 0002:0000002c       __imp__UnhandledExceptionFilter@4 77f5202c     kernel32:KERNEL32.dll
 0002:00000030       __imp__SetFilePointer@16   77f52030     kernel32:KERNEL32.dll
 0002:00000034       __imp__GetStartupInfoA@4   77f52034     kernel32:KERNEL32.dll
 0002:00000038       __imp__GetFileType@4       77f52038     kernel32:KERNEL32.dll
 0002:0000003c       __imp__GetStdHandle@4      77f5203c     kernel32:KERNEL32.dll
 0002:00000040       __imp__SetHandleCount@4    77f52040     kernel32:KERNEL32.dll
 0002:00000044       __imp__LCMapStringW@24     77f52044     kernel32:KERNEL32.dll
 0002:00000048       __imp__LCMapStringA@24     77f52048     kernel32:KERNEL32.dll
 0002:0000004c       __imp__HeapSize@12         77f5204c     kernel32:KERNEL32.dll
 0002:00000050       __imp__GetCurrentProcess@0 77f52050     kernel32:KERNEL32.dll
 0002:00000054       __imp__TerminateProcess@8  77f52054     kernel32:KERNEL32.dll
 0002:00000058       __imp__ReadFile@20         77f52058     kernel32:KERNEL32.dll
 0002:0000005c       __imp__WriteFile@20        77f5205c     kernel32:KERNEL32.dll
 0002:00000060       __imp__IsBadWritePtr@8     77f52060     kernel32:KERNEL32.dll
 0002:00000064       __imp__HeapCreate@12       77f52064     kernel32:KERNEL32.dll
 0002:00000068       __imp__HeapDestroy@4       77f52068     kernel32:KERNEL32.dll
 0002:0000006c       __imp__TlsGetValue@4       77f5206c     kernel32:KERNEL32.dll
 0002:00000070       __imp__TlsSetValue@8       77f52070     kernel32:KERNEL32.dll
 0002:00000074       __imp__TlsFree@4           77f52074     kernel32:KERNEL32.dll
 0002:00000078       __imp__SetLastError@4      77f52078     kernel32:KERNEL32.dll
 0002:0000007c       __imp__TlsAlloc@0          77f5207c     kernel32:KERNEL32.dll
 0002:00000080       __imp__ResumeThread@4      77f52080     kernel32:KERNEL32.dll
 0002:00000084       __imp__CreateThread@24     77f52084     kernel32:KERNEL32.dll
 0002:00000088       __imp__GetCurrentThreadId@0 77f52088     kernel32:KERNEL32.dll
 0002:0000008c       __imp__RaiseException@16   77f5208c     kernel32:KERNEL32.dll
 0002:00000090       __imp__HeapReAlloc@16      77f52090     kernel32:KERNEL32.dll
 0002:00000094       __imp__GetSystemTimeAsFileTime@4 77f52094     kernel32:KERNEL32.dll
 0002:00000098       __imp__RtlUnwind@16        77f52098     kernel32:KERNEL32.dll
 0002:0000009c       __imp__InterlockedExchange@8 77f5209c     kernel32:KERNEL32.dll
 0002:000000a0       __imp__GetStringTypeA@20   77f520a0     kernel32:KERNEL32.dll
 0002:000000a4       __imp__GetStringTypeW@16   77f520a4     kernel32:KERNEL32.dll
 0002:000000a8       __imp__SetStdHandle@8      77f520a8     kernel32:KERNEL32.dll
 0002:000000ac       __imp__SetUnhandledExceptionFilter@4 77f520ac     kernel32:KERNEL32.dll
 0002:000000b0       __imp__ExitThread@4        77f520b0     kernel32:KERNEL32.dll
 0002:000000b4       __imp__GetLocaleInfoA@16   77f520b4     kernel32:KERNEL32.dll
 0002:000000b8       __imp__GlobalAlloc@8       77f520b8     kernel32:KERNEL32.dll
 0002:000000bc       __imp__GlobalLock@4        77f520bc     kernel32:KERNEL32.dll
 0002:000000c0       __imp__GlobalUnlock@4      77f520c0     kernel32:KERNEL32.dll
 0002:000000c4       __imp__GlobalFree@4        77f520c4     kernel32:KERNEL32.dll
 0002:000000c8       __imp__GetLastError@0      77f520c8     kernel32:KERNEL32.dll
 0002:000000cc       __imp__GetSystemDirectoryA@8 77f520cc     kernel32:KERNEL32.dll
 0002:000000d0       __imp__GetCommandLineA@0   77f520d0     kernel32:KERNEL32.dll
 0002:000000d4       __imp__DeleteCriticalSection@4 77f520d4     kernel32:KERNEL32.dll
 0002:000000d8       __imp__InitializeCriticalSection@4 77f520d8     kernel32:KERNEL32.dll
 0002:000000dc       __imp__LeaveCriticalSection@4 77f520dc     kernel32:KERNEL32.dll
 0002:000000e0       __imp__EnterCriticalSection@4 77f520e0     kernel32:KERNEL32.dll
 0002:000000e4       __imp__GetModuleHandleA@4  77f520e4     kernel32:KERNEL32.dll
 0002:000000e8       __imp__GetVersionExA@4     77f520e8     kernel32:KERNEL32.dll
 0002:000000ec       __imp__WideCharToMultiByte@32 77f520ec     kernel32:KERNEL32.dll
 0002:000000f0       __imp__MultiByteToWideChar@24 77f520f0     kernel32:KERNEL32.dll
 0002:000000f4       __imp__QueryPerformanceFrequency@4 77f520f4     kernel32:KERNEL32.dll
 0002:000000f8       __imp__QueryPerformanceCounter@4 77f520f8     kernel32:KERNEL32.dll
 0002:000000fc       __imp__GetFullPathNameA@16 77f520fc     kernel32:KERNEL32.dll
 0002:00000100       __imp__GetFileAttributesA@4 77f52100     kernel32:KERNEL32.dll
 0002:00000104       __imp__lstrlenA@4          77f52104     kernel32:KERNEL32.dll
 0002:00000108       __imp__OutputDebugStringA@4 77f52108     kernel32:KERNEL32.dll
 0002:0000010c       __imp__GetModuleFileNameA@12 77f5210c     kernel32:KERNEL32.dll
 0002:00000110       __imp__FindFirstFileA@8    77f52110     kernel32:KERNEL32.dll
 0002:00000114       __imp__FindClose@4         77f52114     kernel32:KERNEL32.dll
 0002:00000118       __imp__HeapAlloc@12        77f52118     kernel32:KERNEL32.dll
 0002:0000011c       __imp__GetProcessHeap@0    77f5211c     kernel32:KERNEL32.dll
 0002:00000120       __imp__HeapFree@12         77f52120     kernel32:KERNEL32.dll
 0002:00000124       __imp__IsBadReadPtr@8      77f52124     kernel32:KERNEL32.dll
 0002:00000128       __imp__VirtualFree@12      77f52128     kernel32:KERNEL32.dll
 0002:0000012c       __imp__VirtualAlloc@16     77f5212c     kernel32:KERNEL32.dll
 0002:00000130       __imp__GetTempPathA@8      77f52130     kernel32:KERNEL32.dll
 0002:00000134       __imp__GetTempFileNameA@16 77f52134     kernel32:KERNEL32.dll
 0002:00000138       __imp__LoadLibraryA@4      77f52138     kernel32:KERNEL32.dll
 0002:0000013c       __imp__FreeLibrary@4       77f5213c     kernel32:KERNEL32.dll
 0002:00000140       __imp__DeleteFileA@4       77f52140     kernel32:KERNEL32.dll
 0002:00000144       __imp__VirtualProtect@16   77f52144     kernel32:KERNEL32.dll
 0002:00000148       __imp__GetTickCount@0      77f52148     kernel32:KERNEL32.dll
 0002:0000014c       __imp__ExitProcess@4       77f5214c     kernel32:KERNEL32.dll
 0002:00000150       __imp__Sleep@4             77f52150     kernel32:KERNEL32.dll
 0002:00000154       __imp__GetCurrentProcessId@0 77f52154     kernel32:KERNEL32.dll
 0002:00000158       __imp__CreateToolhelp32Snapshot@8 77f52158     kernel32:KERNEL32.dll
 0002:0000015c       __imp__CreateFileA@28      77f5215c     kernel32:KERNEL32.dll
 0002:00000160       __imp__SetEndOfFile@4      77f52160     kernel32:KERNEL32.dll
 0002:00000164       __imp__GetProcAddress@8    77f52164     kernel32:KERNEL32.dll
 0002:00000168       __imp__Module32Next@8      77f52168     kernel32:KERNEL32.dll
 0002:0000016c       __imp__CloseHandle@4       77f5216c     kernel32:KERNEL32.dll
 0002:00000170       __imp__Module32First@8     77f52170     kernel32:KERNEL32.dll
 0002:00000174       \177KERNEL32_NULL_THUNK_DATA 77f52174     kernel32:KERNEL32.dll
 0002:00000178       __imp__GetCaretBlinkTime@0 77f52178     User32:USER32.dll
 0002:0000017c       __imp__GetKeyState@4       77f5217c     User32:USER32.dll
 0002:00000180       __imp__GetClipboardData@4  77f52180     User32:USER32.dll
 0002:00000184       __imp__OpenClipboard@4     77f52184     User32:USER32.dll
 0002:00000188       __imp__EmptyClipboard@0    77f52188     User32:USER32.dll
 0002:0000018c       __imp__SetClipboardData@8  77f5218c     User32:USER32.dll
 0002:00000190       __imp__CloseClipboard@0    77f52190     User32:USER32.dll
 0002:00000194       __imp__InflateRect@12      77f52194     User32:USER32.dll
 0002:00000198       __imp__PtInRect@12         77f52198     User32:USER32.dll
 0002:0000019c       __imp__SetCapture@4        77f5219c     User32:USER32.dll
 0002:000001a0       __imp__ReleaseCapture@0    77f521a0     User32:USER32.dll
 0002:000001a4       __imp__SetRect@20          77f521a4     User32:USER32.dll
 0002:000001a8       __imp__SendMessageA@16     77f521a8     User32:USER32.dll
 0002:000001ac       __imp__OffsetRect@12       77f521ac     User32:USER32.dll
 0002:000001b0       __imp__IntersectRect@12    77f521b0     User32:USER32.dll
 0002:000001b4       __imp__GetAsyncKeyState@4  77f521b4     User32:USER32.dll
 0002:000001b8       __imp__EnableWindow@8      77f521b8     User32:USER32.dll
 0002:000001bc       __imp__EndDialog@8         77f521bc     User32:USER32.dll
 0002:000001c0       __imp__SetFocus@4          77f521c0     User32:USER32.dll
 0002:000001c4       __imp__SetForegroundWindow@4 77f521c4     User32:USER32.dll
 0002:000001c8       __imp__GetDlgItem@8        77f521c8     User32:USER32.dll
 0002:000001cc       __imp__SetDlgItemTextA@12  77f521cc     User32:USER32.dll
 0002:000001d0       __imp__ShowCursor@4        77f521d0     User32:USER32.dll
 0002:000001d4       __imp__SetCursor@4         77f521d4     User32:USER32.dll
 0002:000001d8       __imp__DialogBoxParamA@20  77f521d8     User32:USER32.dll
 0002:000001dc       __imp__ShowWindow@8        77f521dc     User32:USER32.dll
 0002:000001e0       __imp__GetClientRect@8     77f521e0     User32:USER32.dll
 0002:000001e4       __imp__CallWindowProcA@20  77f521e4     User32:USER32.dll
 0002:000001e8       __imp__SetWindowLongA@12   77f521e8     User32:USER32.dll
 0002:000001ec       __imp__GetWindowLongA@8    77f521ec     User32:USER32.dll
 0002:000001f0       __imp__SetWindowTextA@8    77f521f0     User32:USER32.dll
 0002:000001f4       __imp__wsprintfA           77f521f4     User32:USER32.dll
 0002:000001f8       __imp__ClientToScreen@8    77f521f8     User32:USER32.dll
 0002:000001fc       __imp__GetSystemMetrics@4  77f521fc     User32:USER32.dll
 0002:00000200       __imp__MessageBoxA@16      77f52200     User32:USER32.dll
 0002:00000204       \177USER32_NULL_THUNK_DATA 77f52204     User32:USER32.dll
 0002:00000208       __imp__InternetOpenA@20    77f52208     wininet:WININET.dll
 0002:0000020c       __imp__InternetOpenUrlA@24 77f5220c     wininet:WININET.dll
 0002:00000210       __imp__InternetCloseHandle@4 77f52210     wininet:WININET.dll
 0002:00000214       __imp__InternetReadFile@16 77f52214     wininet:WININET.dll
 0002:00000218       \177WININET_NULL_THUNK_DATA 77f52218     wininet:WININET.dll
 0002:0000021c       __imp__timeBeginPeriod@4   77f5221c     winmm:WINMM.dll
 0002:00000220       \177WINMM_NULL_THUNK_DATA  77f52220     winmm:WINMM.dll
 0002:00000224       __imp__getsockname@12      77f52224     wsock32:WSOCK32.dll
 0002:00000228       __imp__gethostname@8       77f52228     wsock32:WSOCK32.dll
 0002:0000022c       __imp__sendto@24           77f5222c     wsock32:WSOCK32.dll
 0002:00000230       __imp__WSAGetLastError@0   77f52230     wsock32:WSOCK32.dll
 0002:00000234       __imp__recvfrom@24         77f52234     wsock32:WSOCK32.dll
 0002:00000238       __imp__ntohs@4             77f52238     wsock32:WSOCK32.dll
 0002:0000023c       __imp__setsockopt@20       77f5223c     wsock32:WSOCK32.dll
 0002:00000240       __imp__ioctlsocket@12      77f52240     wsock32:WSOCK32.dll
 0002:00000244       __imp__bind@12             77f52244     wsock32:WSOCK32.dll
 0002:00000248       __imp__inet_addr@4         77f52248     wsock32:WSOCK32.dll
 0002:0000024c       __imp__inet_ntoa@4         77f5224c     wsock32:WSOCK32.dll
 0002:00000250       __imp__gethostbyname@4     77f52250     wsock32:WSOCK32.dll
 0002:00000254       __imp__htons@4             77f52254     wsock32:WSOCK32.dll
 0002:00000258       __imp__socket@12           77f52258     wsock32:WSOCK32.dll
 0002:0000025c       __imp__connect@12          77f5225c     wsock32:WSOCK32.dll
 0002:00000260       __imp__recv@16             77f52260     wsock32:WSOCK32.dll
 0002:00000264       __imp__send@16             77f52264     wsock32:WSOCK32.dll
 0002:00000268       __imp__closesocket@4       77f52268     wsock32:WSOCK32.dll
 0002:0000026c       __imp__WSACleanup@0        77f5226c     wsock32:WSOCK32.dll
 0002:00000270       __imp__WSAStartup@8        77f52270     wsock32:WSOCK32.dll
 0002:00000274       \177WSOCK32_NULL_THUNK_DATA 77f52274     wsock32:WSOCK32.dll
 0002:00000278       __imp__D3DXMatrixScaling@16 77f52278     d3dx9:d3dx9_25.dll
 0002:0000027c       __imp__D3DXSaveSurfaceToFileA@20 77f5227c     d3dx9:d3dx9_25.dll
 0002:00000280       __imp__D3DXCreateTextureFromFileInMemory@16 77f52280     d3dx9:d3dx9_25.dll
 0002:00000284       __imp__D3DXCreateTextureFromFileExA@56 77f52284     d3dx9:d3dx9_25.dll
 0002:00000288       __imp__D3DXVec3Project@24  77f52288     d3dx9:d3dx9_25.dll
 0002:0000028c       __imp__D3DXCreateFontA@48  77f5228c     d3dx9:d3dx9_25.dll
 0002:00000290       __imp__D3DXCreateSprite@8  77f52290     d3dx9:d3dx9_25.dll
 0002:00000294       \177d3dx9_25_NULL_THUNK_DATA 77f52294     d3dx9:d3dx9_25.dll
 0002:000002a0       __real@3cea0ea1            77f522a0     aimstuff.obj
 0002:000002a4       __real@420c0000            77f522a4     aimstuff.obj
 0002:000002a8       __real@3f800000            77f522a8     aimstuff.obj
 0002:00000310       __real@40a00000            77f52310     debug.obj
 0002:00000314       ??_C@_07MNBIJLFM@TYPE_?$CFd?$AA@ 77f52314     debug.obj
 0002:0000031c       ??_C@_0P@JLKJPJHJ@Vehicle?5Select?$AA@ 77f5231c     debug.obj
 0002:00000340       __real@00000000            77f52340     entity.obj
 0002:00000344       __real@461c4000            77f52344     entity.obj
 0002:00000348       __real@3d23d70a            77f52348     entity.obj
 0002:00000558       ??_C@_0EM@DFJJIKMA@I?5can?8t?5determine?5your?5GTA?5versi@ 77f52558     game.obj
 0002:000005a4       ??_C@_0O@KKCHHJBD@Version?5Error?$AA@ 77f525a4     game.obj
 0002:000005b2       ??_C@_00CNPNBAHC@?$AA@     77f525b2     game.obj
 0002:000005b4       ??_C@_05EOEDJBJE@Splat?$AA@ 77f525b4     game.obj
 0002:000005bc       ??_C@_07GKNJILIL@Drowned?$AA@ 77f525bc     game.obj
 0002:000005c4       ??_C@_07NAELNENF@Vehicle?$AA@ 77f525c4     game.obj
 0002:000005cc       ??_C@_09BNHMBLCC@Parachute?$AA@ 77f525cc     game.obj
 0002:000005d8       ??_C@_06JCBBMBIP@Camera?$AA@ 77f525d8     game.obj
 0002:000005e0       ??_C@_0BC@PHGBOEPB@Fire?5Extinguisher?$AA@ 77f525e0     game.obj
 0002:000005f4       ??_C@_09KLGHNLEL@Spray?5Can?$AA@ 77f525f4     game.obj
 0002:00000600       ??_C@_04GPGPLFMI@Bomb?$AA@ 77f52600     game.obj
 0002:00000608       ??_C@_0BD@ILKAJFBP@Satchel?5Explosives?$AA@ 77f52608     game.obj
 0002:0000061c       ??_C@_07JPACKGKC@Minigun?$AA@ 77f5261c     game.obj
 0002:00000624       ??_C@_0N@LDKIPHF@Flamethrower?$AA@ 77f52624     game.obj
 0002:00000634       ??_C@_0M@KILOAMKG@Heat?5Seaker?$AA@ 77f52634     game.obj
 0002:00000640       ??_C@_0BA@DJIGCIDL@Rocket?5Launcher?$AA@ 77f52640     game.obj
 0002:00000650       ??_C@_0N@PNCKKCNC@Sniper?5Rifle?$AA@ 77f52650     game.obj
 0002:00000660       ??_C@_05NMFDOHOF@Rifle?$AA@ 77f52660     game.obj
 0002:00000668       ??_C@_04CENMHHMF@TEC9?$AA@ 77f52668     game.obj
 0002:00000670       ??_C@_02MDNGMLIJ@M4?$AA@   77f52670     game.obj
 0002:00000674       ??_C@_04KDDOELFP@AK47?$AA@ 77f52674     game.obj
 0002:0000067c       ??_C@_03HJEIEMAF@MP5?$AA@  77f5267c     game.obj
 0002:00000680       ??_C@_03GCPIIAFJ@UZI?$AA@  77f52680     game.obj
 0002:00000684       ??_C@_0P@NBOJFOMC@Combat?5Shotgun?$AA@ 77f52684     game.obj
 0002:00000694       ??_C@_0BB@LDOHOGFE@Sawn?9off?5Shotgun?$AA@ 77f52694     game.obj
 0002:000006a8       ??_C@_07DGIAOJJ@Shotgun?$AA@ 77f526a8     game.obj
 0002:000006b0       ??_C@_0N@FAMDEIAF@Desert?5Eagle?$AA@ 77f526b0     game.obj
 0002:000006c0       ??_C@_0BA@GIMNGNFL@Silenced?5Pistol?$AA@ 77f526c0     game.obj
 0002:000006d0       ??_C@_07BCDEHAHO@Colt?545?$AA@ 77f526d0     game.obj
 0002:000006d8       ??_C@_07OPFMIBLN@Molotov?$AA@ 77f526d8     game.obj
 0002:000006e0       ??_C@_07DJHDJFCA@Teargas?$AA@ 77f526e0     game.obj
 0002:000006e8       ??_C@_07GIIHBBNN@Grenade?$AA@ 77f526e8     game.obj
 0002:000006f0       ??_C@_04PPNHMDNF@Cane?$AA@ 77f526f0     game.obj
 0002:000006f8       ??_C@_07NEPGNNAH@Flowers?$AA@ 77f526f8     game.obj
 0002:00000700       ??_C@_08JDFEGHGE@Vibrator?$AA@ 77f52700     game.obj
 0002:0000070c       ??_C@_05JCJNFPDF@Dildo?$AA@ 77f5270c     game.obj
 0002:00000714       ??_C@_08IJDOPOCG@Chainsaw?$AA@ 77f52714     game.obj
 0002:00000720       ??_C@_06FGFALHFI@Katana?$AA@ 77f52720     game.obj
 0002:00000728       ??_C@_08GCHHAGJD@Pool?5Cue?$AA@ 77f52728     game.obj
 0002:00000734       ??_C@_06EGGLGMCA@Shovel?$AA@ 77f52734     game.obj
 0002:0000073c       ??_C@_0N@GBMNAENM@Baseball?5Bat?$AA@ 77f5273c     game.obj
 0002:0000074c       ??_C@_05BPFOPNCG@Knife?$AA@ 77f5274c     game.obj
 0002:00000754       ??_C@_0L@MLLDBFBA@Nite?5Stick?$AA@ 77f52754     game.obj
 0002:00000760       ??_C@_09OABFMFIE@Golf?5Club?$AA@ 77f52760     game.obj
 0002:0000076c       ??_C@_0P@JFPGKGND@Brass?5Knuckles?$AA@ 77f5276c     game.obj
 0002:000007f4       ??_C@_05FAECCOPD@DUMMY?$AA@ 77f527f4     menu.obj
 0002:000007fc       ??_C@_07MNFKNHGK@SAMPRW2?$AA@ 77f527fc     menu.obj
 0002:00000804       ??_C@_07OGHHIEKJ@SAMPRW1?$AA@ 77f52804     menu.obj
 0002:0000080c       ??_C@_07JEDJMJPP@SAMPHED?$AA@ 77f5280c     menu.obj
 0002:00000864       ??_7CEntity@@6B@           77f52864     object.obj
 0002:00000870       ??_7CObject@@6B@           77f52870     object.obj
 0002:0000087c       ??_C@_05PHLGJONK@title?$AA@ 77f5287c     patches.obj
 0002:00000c20       __real@0000000000000000    77f52c20     playerped.obj
 0002:00000c28       __real@4072c00000000000    77f52c28     playerped.obj
 0002:00000c30       ??_C@_08KDFFPJKK@PAULNMAC?$AA@ 77f52c30     playerped.obj
 0002:00000c3c       ??_C@_08NGBGMOFO@BLOWJOBZ?$AA@ 77f52c3c     playerped.obj
 0002:00000c48       ??_C@_03DINABBCN@SNM?$AA@  77f52c48     playerped.obj
 0002:00000c4c       ??_C@_03DDABINI@SEX?$AA@   77f52c4c     playerped.obj
 0002:00000c50       __real@3ff0000000000000    77f52c50     playerped.obj
 0002:00000c58       ??_C@_0M@BCINMKPP@PARA_OPEN_O?$AA@ 77f52c58     playerped.obj
 0002:00000c68       __real@408f400000000000    77f52c68     playerped.obj
 0002:00000c70       ??_C@_09GNCKNLEL@PARA_OPEN?$AA@ 77f52c70     playerped.obj
 0002:00000c7c       ??_C@_0N@KLGOGCNA@FALL_SKYDIVE?$AA@ 77f52c7c     playerped.obj
 0002:00000c8c       ??_C@_0BD@FCOONAEM@FALL_SKYDIVE_ACCEL?$AA@ 77f52c8c     playerped.obj
 0002:00000ca0       ??_C@_09GCNACFAF@PARACHUTE?$AA@ 77f52ca0     playerped.obj
 0002:00000cac       ??_C@_0N@NCMEMNK@PARA_FLOAT_O?$AA@ 77f52cac     playerped.obj
 0002:00000cbc       ??_C@_0L@NJEKKGIB@PARA_FLOAT?$AA@ 77f52cbc     playerped.obj
 0002:00000cc8       ??_C@_0N@MNHOBHLP@PARA_DECEL_O?$AA@ 77f52cc8     playerped.obj
 0002:00000cd8       ??_C@_0L@FGFGOKMG@PARA_DECEL?$AA@ 77f52cd8     playerped.obj
 0002:00000ce4       ??_7CPlayerPed@@6B@        77f52ce4     playerped.obj
 0002:00000cf0       __real@41a00000            77f52cf0     playerped.obj
 0002:00000cf4       __real@4affffff            77f52cf4     util.obj
 0002:00000cf8       __real@34000001            77f52cf8     util.obj
 0002:00000d00       __real@3f76c16c16c16c17    77f52d00     util.obj
 0002:00000d08       __real@400921fb53c8d4f1    77f52d08     util.obj
 0002:00000d10       __real@43340000            77f52d10     util.obj
 0002:00000d14       __real@43b40000            77f52d14     util.obj
 0002:00000ea8       ??_7CVehicle@@6B@          77f52ea8     vehicle.obj
 0002:00000eb4       __real@43480000            77f52eb4     vehicle.obj
 0002:00000eb8       __real@3f000000            77f52eb8     vehicle.obj
 0002:00000f0c       ??_C@_02DHALGDEF@ba?$AA@   77f52f0c     events.obj
 0002:00000f10       ??_C@_01KMDKNFGN@?1?$AA@   77f52f10     httpclient.obj
 0002:00000f14       ??_C@_0L@NPNLKGOJ@text?1plain?$AA@ 77f52f14     httpclient.obj
 0002:00000f20       ??_C@_09KABDMIOB@text?1html?$AA@ 77f52f20     httpclient.obj
 0002:00000f2c       ??_C@_0O@LDHIBCHO@CONTENT?9TYPE?3?$AA@ 77f52f2c     httpclient.obj
 0002:00000f3c       ??_C@_0BA@IOOAPING@CONTENT?9LENGTH?3?$AA@ 77f52f3c     httpclient.obj
 0002:00000f4c       ??_C@_02PHMGELLB@?6?6?$AA@ 77f52f4c     httpclient.obj
 0002:00000f50       ??_C@_04FMMHFHOO@?$AN?6?$AN?6?$AA@ 77f52f50     httpclient.obj
 0002:00000f58       ??_C@_0EP@DCALGLGB@GET?5?$CFs?5HTTP?11?40?$AN?6Accept?3?5?$CK?1?$CK?$AN?6Us@ 77f52f58     httpclient.obj
 0002:00000fa8       ??_C@_0JH@BNIDHCGB@POST?5?$CFs?5HTTP?11?40?$AN?6Accept?3?5?$CK?1?$CK?$AN?6U@ 77f52fa8     httpclient.obj
 0002:00001040       ??_C@_0FA@NENJLDAP@HEAD?5?$CFs?5HTTP?11?40?$AN?6Accept?3?5?$CK?1?$CK?$AN?6U@ 77f53040     httpclient.obj
 0002:00001090       ??_C@_0L@IKGODMLA@SAMP?10?42?40?$AA@ 77f53090     httpclient.obj
 0002:000010d8       ??_C@_02OEIPGGFF@ah?$AA@   77f530d8     localplayer.obj
 0002:000010dc       ??_C@_02PNJEFHBE@ai?$AA@   77f530dc     localplayer.obj
 0002:000010e0       ??_C@_0CD@ILLMAONE@Stay?5within?5the?5?$HOr?$HOworld?5boundri@ 77f530e0     localplayer.obj
 0002:00001104       __real@42fa0000            77f53104     localplayer.obj
 0002:00001108       __real@427c0000            77f53108     localplayer.obj
 0002:0000110c       ??_C@_02NGLJAENH@aj?$AA@   77f5310c     localplayer.obj
 0002:00001110       ??_C@_02GDBHHKJK@ag?$AA@   77f53110     localplayer.obj
 0002:00001114       ??_C@_02MJGJPHHN@dk?$AA@   77f53114     localplayer.obj
 0002:00001118       ??_C@_02EIDKCJFJ@ad?$AA@   77f53118     localplayer.obj
 0002:0000111c       ??_C@_0BJ@FIEMNLKP@Enter?5a?5valid?5player?5ID?$CB?$AA@ 77f5311c     localplayer.obj
 0002:00001138       ??_C@_02FBCBBIBI@ae?$AA@   77f53138     localplayer.obj
 0002:0000113c       ??_C@_0BI@EMKICMBK@You?5cannot?5PM?5yourself?$CB?$AA@ 77f5313c     localplayer.obj
 0002:00001154       ??_C@_02HKAMELNL@af?$AA@   77f53154     localplayer.obj
 0002:00001158       ??_C@_02MPKCDFJG@ak?$AA@   77f53158     localplayer.obj
 0002:0000115c       ??_C@_02IAODKDFB@al?$AA@   77f5315c     localplayer.obj
 0002:00001160       ??_C@_0CB@IKBLLMGD@Class?5?$CFu?5Weapons?3?6?9?5?$CFs?6?9?5?$CFs?6?9?5?$CFs@ 77f53160     localplayer.obj
 0002:00001184       ??_C@_0CD@ODENPMGA@Press?5SHIFT?5when?5ready?5to?5spawn?4@ 77f53184     localplayer.obj
 0002:000011a8       ??_C@_0DA@POOCGFKK@Use?5left?5and?5right?5arrow?5keys?5to@ 77f531a8     localplayer.obj
 0002:000011d8       __real@40600000            77f531d8     localplayer.obj
 0002:000011dc       ??_C@_0CO@CGNDAHHF@Returning?5to?5class?5selection?5aft@ 77f531dc     localplayer.obj
 0002:0000120c       ??_C@_0M@KHFAPNLB@FollowPedSA?$AA@ 77f5320c     localplayer.obj
 0002:00001218       ??_C@_03DLDMILIO@RW2?$AA@  77f53218     menupool.obj
 0002:0000121c       ??_C@_03BABBNIEN@RW1?$AA@  77f5321c     menupool.obj
 0002:00001220       ??_C@_03GCFPJFBL@HED?$AA@  77f53220     menupool.obj
 0002:00001224       ??_C@_02LBJNIHKO@dy?$AA@   77f53224     menupool.obj
 0002:00001228       ??_C@_02KIIGLGOP@dx?$AA@   77f53228     menupool.obj
 0002:00001240       ??_C@_0BI@EBNOIMKP@SA?3MP?50?42?42?5Initialized?$AA@ 77f53240     netgame.obj
 0002:00001258       ??_C@_0BI@ELOPHCPA@San?5Andreas?5Multiplayer?$AA@ 77f53258     netgame.obj
 0002:00001270       ??_C@_0CB@LLBPMAHG@Failed?5to?5initialize?5encryption?4@ 77f53270     netgame.obj
 0002:00001294       ??_C@_0CA@JIFJBMON@You?8re?5banned?5from?5this?5server?4?$AA@ 77f53294     netgame.obj
 0002:000012b4       ??_C@_0CA@HJCLPNAM@The?5server?5is?5full?4?5Retrying?4?4?4?$AA@ 77f532b4     netgame.obj
 0002:000012d4       ??_C@_0BO@LLNGJJAJ@Server?5closed?5the?5connection?4?$AA@ 77f532d4     netgame.obj
 0002:000012f4       ??_C@_0BH@MICHFH@Wrong?5server?5password?4?$AA@ 77f532f4     netgame.obj
 0002:0000130c       ??_C@_0CG@LGBAJM@The?5server?5didn?8t?5respond?4?5Retry@ 77f5330c     netgame.obj
 0002:00001334       ??_C@_02ENLJKNMP@as?$AA@   77f53334     netgame.obj
 0002:00001338       ??_C@_0BH@GLCABAGK@Game?5mode?5restarting?4?4?$AA@ 77f53338     netgame.obj
 0002:00001350       ??_C@_0CO@IGPMAPLH@Lost?5connection?5to?5the?5server?4?5R@ 77f53350     netgame.obj
 0002:00001380       ??_C@_02PLFPJFPP@di?$AA@   77f53380     netgame.obj
 0002:00001384       ??_C@_0CM@GEHKPBDK@Connection?5success?4?5Loading?5netw@ 77f53384     netgame.obj
 0002:000013b0       ??_C@_0BH@LHLCFJCP@Connecting?5to?5?$CFs?3?$CFd?4?4?4?$AA@ 77f533b0     netgame.obj
 0002:000013c8       ??_C@_0CI@NBILHEDA@Warning?3?5Error?5processing?5textdr@ 77f533c8     netgame.obj
 0002:000013f0       ??_C@_0CE@MFCCHNNH@Warning?3?5Error?5processing?5menu?5p@ 77f533f0     netgame.obj
 0002:00001414       ??_C@_0CG@FHHDKMMD@Warning?3?5Error?5processing?5object@ 77f53414     netgame.obj
 0002:0000143c       ??_C@_0CG@HAJCLFON@Warning?3?5Error?5processing?5pickup@ 77f5343c     netgame.obj
 0002:00001464       ??_C@_0CH@JLDNBOEC@Warning?3?5Error?5processing?5vehicl@ 77f53464     netgame.obj
 0002:000014dc       ??_C@_0BN@LFBDAAEF@Error?3?5SAC?5could?5not?5update?4?$AA@ 77f534dc     netrpc.obj
 0002:000014fc       ??_C@_02EKHMJHAA@bd?$AA@   77f534fc     netrpc.obj
 0002:00001500       ??_C@_02HIEKPFIC@bf?$AA@   77f53500     netrpc.obj
 0002:00001504       ??_C@_02FDGHKGEB@be?$AA@   77f53504     netrpc.obj
 0002:00001508       ??_C@_02FDNABMH@bc?$AA@    77f53508     netrpc.obj
 0002:0000150c       ??_C@_02BMCGDAIG@bb?$AA@   77f5350c     netrpc.obj
 0002:00001510       ??_C@_02JMHLBGIG@az?$AA@   77f53510     netrpc.obj
 0002:00001514       ??_C@_02LHFGEFEF@ay?$AA@   77f53514     netrpc.obj
 0002:00001518       ??_C@_02KOENHEAE@ax?$AA@   77f53518     netrpc.obj
 0002:0000151c       ??_C@_02CJNFGIML@aw?$AA@   77f5351c     netrpc.obj
 0002:00001520       ??_C@_02DAMOFJIK@av?$AA@   77f53520     netrpc.obj
 0002:00001524       ??_C@_02BLODAKEJ@au?$AA@   77f53524     netrpc.obj
 0002:00001528       ??_C@_02CPIDLAI@at?$AA@    77f53528     netrpc.obj
 0002:0000152c       ??_C@_02JOPBDKMM@em?$AA@   77f5352c     netrpc.obj
 0002:00001530       ??_C@_02FEKCJMIO@ar?$AA@   77f53530     netrpc.obj
 0002:00001534       ??_C@_02HPIPMPEN@aq?$AA@   77f53534     netrpc.obj
 0002:00001538       ??_C@_02GGJEPOAM@ap?$AA@   77f53538     netrpc.obj
 0002:0000153c       ??_C@_02KLMOPAJC@ao?$AA@   77f5353c     netrpc.obj
 0002:00001540       ??_C@_02LCNFMBND@an?$AA@   77f53540     netrpc.obj
 0002:00001544       ??_C@_02JJPIJCBA@am?$AA@   77f53544     netrpc.obj
 0002:00001548       ??_C@_02HHLLPJO@ac?$AA@    77f53548     netrpc.obj
 0002:0000154c       ??_C@_02BOGAIONP@ab?$AA@   77f5354c     netrpc.obj
 0002:00001550       ??_C@_02DFENNNBM@aa?$AA@   77f53550     netrpc.obj
 0002:00001554       ??_C@_0BD@KFGPICNB@Connected?5to?5?$CF?464s?$AA@ 77f53554     netrpc.obj
 0002:00001568       ??_C@_0BC@PKJNNCMA@PM?5sent?5to?5?$CFs?3?5?$CFs?$AA@ 77f53568     netrpc.obj
 0002:0000157c       ??_C@_0BB@DKFJCKKK@Team?5PM?5sent?3?5?$CFs?$AA@ 77f5357c     netrpc.obj
 0002:00001590       ??_C@_0CN@HMNEEMPB@Unable?5to?5allocate?5a?5player?5slot@ 77f53590     netrpc.obj
 0002:000015c0       ??_C@_0CF@JGECIGLM@Connection?5was?5closed?5by?5the?5ser@ 77f535c0     netrpc.obj
 0002:000015e8       ??_C@_0CA@ELECFPLF@YOUR?8RE?5USING?5AN?5INCORRECT?5MOD?$CB?$AA@ 77f535e8     netrpc.obj
 0002:00001608       ??_C@_0BE@OCOLJLIB@CONNECTION?5REJECTED?$AA@ 77f53608     netrpc.obj
 0002:0000161c       ??_C@_0DE@JENICEMD@Use?5?1quit?5to?5exit?5or?5press?5ESC?5a@ 77f5361c     netrpc.obj
 0002:00001650       ??_C@_0CF@HFPHDI@containing?5only?5A?9Z?5a?9z?50?99?5?$FL?5?$FN?5@ 77f53650     netrpc.obj
 0002:00001678       ??_C@_0DD@OJMCIJGC@Please?5choose?5another?5nick?5betwe@ 77f53678     netrpc.obj
 0002:000016ac       ??_C@_0CD@KKBLHDMA@CONNECTION?5REJECTED?4?5BAD?5NICKNAM@ 77f536ac     netrpc.obj
 0002:000016d0       ??_C@_0CO@KAAOJCGN@CONNECTION?5REJECTED?4?5INCORRECT?5S@ 77f536d0     netrpc.obj
 0002:00001700       __real@3a83126f            77f53700     objectpool.obj
 0002:00001704       __real@4f800000            77f53704     objectpool.obj
 0002:00001730       ??_C@_02KNAFDCHJ@do?$AA@   77f53730     pickuppool.obj
 0002:00001734       ??_C@_02LEBOADDI@dn?$AA@   77f53734     pickuppool.obj
 0002:00001738       ??_C@_0CB@MPCOPOIF@Warning?3?5Error?5Processing?5Player@ 77f53738     playerpool.obj
 0002:0000175c       ??_C@_0CF@BFCAMAEH@Warning?3?5Error?5Processing?5Player@ 77f5375c     playerpool.obj
 0002:00001784       __real@3dcccccd            77f53784     remoteplayer.obj
 0002:00001788       __real@3da3d70a            77f53788     remoteplayer.obj
 0002:0000178c       __real@40200000            77f5378c     remoteplayer.obj
 0002:00001790       __real@41200000            77f53790     remoteplayer.obj
 0002:00001794       __real@3c820821            77f53794     remoteplayer.obj
 0002:00001798       ??_C@_0BD@BPPCHFDC@PM?5from?5?$CFs?$CI?$CFd?$CJ?3?5?$CFs?$AA@ 77f53798     remoteplayer.obj
 0002:000017ac       ??_C@_0BI@EOHHFAPA@Team?5PM?5from?5?$CFs?$CI?$CFd?$CJ?3?5?$CFs?$AA@ 77f537ac     remoteplayer.obj
 0002:000017c4       ??_C@_0BC@MFLMFHIM@?$HOr?$HOCar?5Jacked?$HOw?$HO?$CB?$AA@ 77f537c4     remoteplayer.obj
 0002:000017d8       ??_C@_0EC@KFIHCEIG@ABCDEFGHIJKLMNOPQRSTUVWXYZabcdef@ 77f537d8     runutil.obj
 0002:0000186c       ??_C@_02HCBHEC@ec?$AA@     77f5386c     scriptrpc.obj
 0002:00001870       ??_C@_02GBJNFGNA@ep?$AA@   77f53870     scriptrpc.obj
 0002:00001874       ??_C@_02HIIGGHJB@eq?$AA@   77f53874     scriptrpc.obj
 0002:00001878       ??_C@_02KMMHFIEO@eo?$AA@   77f53878     scriptrpc.obj
 0002:0000187c       ??_C@_02PKJNPPMI@ei?$AA@   77f5387c     scriptrpc.obj
 0002:00001880       ??_C@_02ODIGMOIJ@eh?$AA@   77f53880     scriptrpc.obj
 0002:00001884       ??_C@_02GEBONCEG@eg?$AA@   77f53884     scriptrpc.obj
 0002:00001888       ??_C@_02HNAFODAH@ef?$AA@   77f53888     scriptrpc.obj
 0002:0000188c       ??_C@_02FGCILAME@ee?$AA@   77f5388c     scriptrpc.obj
 0002:00001890       ??_C@_02BJGJCGAD@eb?$AA@   77f53890     scriptrpc.obj
 0002:00001894       ??_C@_02DCEEHFMA@ea?$AA@   77f53894     scriptrpc.obj
 0002:00001898       ??_C@_02JKLANEGN@dz?$AA@   77f53898     scriptrpc.obj
 0002:0000189c       ??_C@_02CPBOKKCA@dw?$AA@   77f5389c     scriptrpc.obj
 0002:000018a0       ??_C@_02DGAFJLGB@dv?$AA@   77f538a0     scriptrpc.obj
 0002:000018a4       ??_C@_02BNCIMIKC@du?$AA@   77f538a4     scriptrpc.obj
 0002:000018a8       ??_C@_02EDDPJOD@dt?$AA@    77f538a8     scriptrpc.obj
 0002:000018ac       ??_C@_02OCEEKELO@dh?$AA@   77f538ac     scriptrpc.obj
 0002:000018b0       ??_C@_02GFNMLIHB@dg?$AA@   77f538b0     scriptrpc.obj
 0002:000018b4       ??_C@_02HMMHIJDA@df?$AA@   77f538b4     scriptrpc.obj
 0002:000018b8       ??_C@_02FHOKNKPD@de?$AA@   77f538b8     scriptrpc.obj
 0002:000018bc       ??_C@_02EOPBOLLC@dd?$AA@   77f538bc     scriptrpc.obj
 0002:000018c0       ??_C@_02BLAHNHF@dc?$AA@    77f538c0     scriptrpc.obj
 0002:000018c4       ??_C@_02BIKLEMDE@db?$AA@   77f538c4     scriptrpc.obj
 0002:000018c8       ??_C@_02DDIGBPPH@da?$AA@   77f538c8     scriptrpc.obj
 0002:000018cc       ??_C@_02JPPPMCOI@cz?$AA@   77f538cc     scriptrpc.obj
 0002:000018d0       ??_C@_02LENCJBCL@cy?$AA@   77f538d0     scriptrpc.obj
 0002:000018d4       ??_C@_02KNMJKAGK@cx?$AA@   77f538d4     scriptrpc.obj
 0002:000018d8       ??_C@_02CKFBLMKF@cw?$AA@   77f538d8     scriptrpc.obj
 0002:000018dc       ??_C@_02DDEKINOE@cv?$AA@   77f538dc     scriptrpc.obj
 0002:000018e0       ??_C@_02BIGHNOCH@cu?$AA@   77f538e0     scriptrpc.obj
 0002:000018e4       ??_C@_02BHMOPGG@ct?$AA@    77f538e4     scriptrpc.obj
 0002:000018e8       ??_C@_02EODNHJKB@cs?$AA@   77f538e8     scriptrpc.obj
 0002:000018ec       ??_C@_02FHCGEIOA@cr?$AA@   77f538ec     scriptrpc.obj
 0002:000018f0       ??_C@_02HMALBLCD@cq?$AA@   77f538f0     scriptrpc.obj
 0002:000018f4       ??_C@_02GFBACKGC@cp?$AA@   77f538f4     scriptrpc.obj
 0002:000018f8       ??_C@_02KIEKCEPM@co?$AA@   77f538f8     scriptrpc.obj
 0002:000018fc       ??_C@_02LBFBBFLN@cn?$AA@   77f538fc     scriptrpc.obj
 0002:00001900       ??_C@_02JKHMEGHO@cm?$AA@   77f53900     scriptrpc.obj
 0002:00001904       ??_C@_02IDGHHHDP@cl?$AA@   77f53904     scriptrpc.obj
 0002:00001908       ??_C@_02MMCGOBPI@ck?$AA@   77f53908     scriptrpc.obj
 0002:0000190c       ??_C@_02NFDNNALJ@cj?$AA@   77f5390c     scriptrpc.obj
 0002:00001910       ??_C@_02OHALLCDL@ch?$AA@   77f53910     scriptrpc.obj
 0002:00001914       ??_C@_02GAJDKOPE@cg?$AA@   77f53914     scriptrpc.obj
 0002:00001918       ??_C@_02HJIIJPLF@cf?$AA@   77f53918     scriptrpc.obj
 0002:0000191c       ??_C@_02FCKFMMHG@ce?$AA@   77f5391c     scriptrpc.obj
 0002:00001920       ??_C@_02ELLOPNDH@cd?$AA@   77f53920     scriptrpc.obj
 0002:00001924       ??_C@_02EPPGLPA@cc?$AA@    77f53924     scriptrpc.obj
 0002:00001928       ??_C@_02BNOEFKLB@cb?$AA@   77f53928     scriptrpc.obj
 0002:0000192c       ??_C@_02DGMJAJHC@ca?$AA@   77f5392c     scriptrpc.obj
 0002:00001930       ??_C@_02JODNKINP@bz?$AA@   77f53930     scriptrpc.obj
 0002:00001934       ??_C@_02LFBAPLBM@by?$AA@   77f53934     scriptrpc.obj
 0002:00001938       ??_C@_02KMALMKFN@bx?$AA@   77f53938     scriptrpc.obj
 0002:0000193c       ??_C@_02CLJDNGJC@bw?$AA@   77f5393c     scriptrpc.obj
 0002:00001940       ??_C@_02DCIIOHND@bv?$AA@   77f53940     scriptrpc.obj
 0002:00001944       ??_C@_02BJKFLEBA@bu?$AA@   77f53944     scriptrpc.obj
 0002:00001948       ??_C@_02LOIFFB@bt?$AA@     77f53948     scriptrpc.obj
 0002:0000194c       ??_C@_02EPPPBDJG@bs?$AA@   77f5394c     scriptrpc.obj
 0002:00001950       ??_C@_02FGOECCNH@br?$AA@   77f53950     scriptrpc.obj
 0002:00001954       ??_C@_02HNMJHBBE@bq?$AA@   77f53954     scriptrpc.obj
 0002:00001958       ??_C@_02GENCEAFF@bp?$AA@   77f53958     scriptrpc.obj
 0002:0000195c       ??_C@_02KJIIEOML@bo?$AA@   77f5395c     scriptrpc.obj
 0002:00001960       ??_C@_02LAJDHPIK@bn?$AA@   77f53960     scriptrpc.obj
 0002:00001964       ??_C@_02JLLOCMEJ@bm?$AA@   77f53964     scriptrpc.obj
 0002:00001968       ??_C@_02ICKFBNAI@bl?$AA@   77f53968     scriptrpc.obj
 0002:0000196c       ??_C@_02MNOEILMP@bk?$AA@   77f5396c     scriptrpc.obj
 0002:00001970       ??_C@_02PPNCOJEN@bi?$AA@   77f53970     scriptrpc.obj
 0002:00001974       ??_C@_02NEPPLKIO@bj?$AA@   77f53974     scriptrpc.obj
 0002:00001978       ??_C@_02OGMJNIAM@bh?$AA@   77f53978     scriptrpc.obj
 0002:0000197c       ??_C@_02GBFBMEMD@bg?$AA@   77f5397c     scriptrpc.obj
 0002:00001980       __real@3fc00000            77f53980     scriptrpc.obj
 0002:00001984       ??_C@_02POBAIDHK@ci?$AA@   77f53984     scriptrpc.obj
 0002:0000199c       ??_C@_02JPDDFAPL@dm?$AA@   77f5399c     vehiclepool.obj
 0002:000019a0       ??_C@_04LLJCPOLH@Init?$AA@ 77f539a0     acghost.obj
 0002:000019a8       ??_C@_05LIMOOAKA@Init2?$AA@ 77f539a8     acghost.obj
 0002:000019b0       ??_C@_0BH@CKDGOBFL@User?9Agent?3?5SAMP?10?42?42?$AA@ 77f539b0     acghost.obj
 0002:000019c8       ??_C@_0BN@PIEAMDCH@https?3?1?1auth?$CFd?4sa?9mp?4com?1eg?1?$AA@ 77f539c8     acghost.obj
 0002:000019e8       ??_C@_0BL@EMEHOPGF@https?3?1?1auth?4sa?9mp?4com?1eg?1?$AA@ 77f539e8     acghost.obj
 0002:00001a04       ??_C@_0L@LIFIFODC@SAMP?10?42?42?$AA@ 77f53a04     acghost.obj
 0002:00001a10       ??_C@_02JDPG@rb?$AA@       77f53a10     anticheat.obj
 0002:00001a14       ??_C@_02GMLFBBN@wb?$AA@    77f53a14     anticheat.obj
 0002:00001a18       ??_C@_03PNNNOAJO@fla?$AA@  77f53a18     anticheat.obj
 0002:00001a1c       ??_C@_01NFFPALBN@Y?$AA@    77f53a1c     chatwindow.obj
 0002:00001a20       ??_C@_01JLIPDDHJ@?3?$AA@   77f53a20     chatwindow.obj
 0002:00001a60       ??_C@_0BB@LLMKAKBI@Enter?5a?5message?$CB?$AA@ 77f53a60     cmdprocs.obj
 0002:00001a74       ??_C@_01CLKCMJKC@?5?$AA@   77f53a74     cmdprocs.obj
 0002:00001a78       ??_C@_09IIIOEFGL@Pooper222?$AA@ 77f53a78     cmdprocs.obj
 0002:00001a84       ??_C@_09CIOLHJHI@Pooper333?$AA@ 77f53a84     cmdprocs.obj
 0002:00001a90       ??_C@_06JLKMCGAG@Pooper?$AA@ 77f53a90     cmdprocs.obj
 0002:00001a98       ??_C@_0BA@KDHCFODO@u?3?5?$CF?42f?5d?3?5?$CF?42f?$AA@ 77f53a98     cmdprocs.obj
 0002:00001aa8       __real@42c80000            77f53aa8     cmdprocs.obj
 0002:00001aac       ??_C@_0DL@HEPJGMGL@AddPlayerClass?$CI?$CFu?0?$CF?44f?0?$CF?44f?0?$CF?44f@ 77f53aac     cmdprocs.obj
 0002:00001ae8       ??_C@_0DH@GAFDDILH@AddStaticVehicle?$CI?$CFu?0?$CF?44f?0?$CF?44f?0?$CF?4@ 77f53ae8     cmdprocs.obj
 0002:00001b20       ??_C@_0DE@FMDHHILE@I?5can?8t?5open?5the?5savepositions?4t@ 77f53b20     cmdprocs.obj
 0002:00001b54       ??_C@_0BD@NOAGOKCK@savedpositions?4txt?$AA@ 77f53b54     cmdprocs.obj
 0002:00001b68       ??_C@_01MCMALHOG@a?$AA@    77f53b68     cmdprocs.obj
 0002:00001b6c       ??_C@_0CC@IIEMIINO@Usage?3?5player_skin?5?$CIskin?5number?$CJ@ 77f53b6c     cmdprocs.obj
 0002:00001b90       ??_C@_0BB@JFODDHIN@game?5not?5loaded?4?$AA@ 77f53b90     cmdprocs.obj
 0002:00001ba4       ??_C@_0CC@MODFFDPO@I?5couldn?8t?5find?5the?5player?5actor@ 77f53ba4     cmdprocs.obj
 0002:00001bc8       ??_C@_0BI@IMGABIPF@Usage?3?5?1v?5?$CIvehicle?5id?$CJ?4?$AA@ 77f53bc8     cmdprocs.obj
 0002:00001be0       ??_C@_0BF@EFIACNEA@Current?5Interior?3?5?$CFu?$AA@ 77f53be0     cmdprocs.obj
 0002:00001bf8       ??_C@_06BNIFBOCD@discon?$AA@ 77f53bf8     cmdprocs.obj
 0002:00001c00       ??_C@_07HNJDBHBL@cmpstat?$AA@ 77f53c00     cmdprocs.obj
 0002:00001c08       ??_C@_08PHPHJILJ@interior?$AA@ 77f53c08     cmdprocs.obj
 0002:00001c14       ??_C@_03LOEEGKJC@tpm?$AA@  77f53c14     cmdprocs.obj
 0002:00001c18       ??_C@_04IAMIEKFK@tmsg?$AA@ 77f53c18     cmdprocs.obj
 0002:00001c20       ??_C@_02IEBMFLFH@pm?$AA@   77f53c20     cmdprocs.obj
 0002:00001c24       ??_C@_03GLPMCEFE@msg?$AA@  77f53c24     cmdprocs.obj
 0002:00001c28       ??_C@_0M@GIICCPDP@player_skin?$AA@ 77f53c28     cmdprocs.obj
 0002:00001c34       ??_C@_07CJDNLGID@vehicle?$AA@ 77f53c34     cmdprocs.obj
 0002:00001c3c       ??_C@_01MHEDDDHA@v?$AA@    77f53c3c     cmdprocs.obj
 0002:00001c40       ??_C@_04LBJBDPJP@vsel?$AA@ 77f53c40     cmdprocs.obj
 0002:00001c48       ??_C@_04CLKJCJJE@rcon?$AA@ 77f53c48     cmdprocs.obj
 0002:00001c50       ??_C@_04EMMDIJJL@save?$AA@ 77f53c50     cmdprocs.obj
 0002:00001c58       ??_C@_01IIACKFLH@q?$AA@    77f53c58     cmdprocs.obj
 0002:00001c5c       ??_C@_04KNNLNNGO@quit?$AA@ 77f53c5c     cmdprocs.obj
 0002:00001c64       ??_C@_02NAHCMGDM@dj?$AA@   77f53c64     cmdwindow.obj
 0002:00001c68       ??_C@_0BL@LEBADKHI@I?5don?8t?5know?5that?5command?4?$AA@ 77f53c68     cmdwindow.obj
 0002:00001c84       ??_C@_0L@OKMCEIJL@GTAWEAPON3?$AA@ 77f53c84     deathwindow.obj
 0002:00001c90       ??_C@_0BB@OLAIJMCG@LONGESTNICKNICKK?$AA@ 77f53c90     deathwindow.obj
 0002:00001ca4       ??_C@_05MPFIAJAP@Arial?$AA@ 77f53ca4     deathwindow.obj
 0002:00001cac       ??_C@_01LELAEKIP@J?$AA@    77f53cac     deathwindow.obj
 0002:00001cb0       ??_C@_01NANMIPIL@N?$AA@    77f53cb0     deathwindow.obj
 0002:00001cb4       ??_C@_01KNKLHLMO@K?$AA@    77f53cb4     deathwindow.obj
 0002:00001cb8       ??_C@_01BNIGIBBF@Q?$AA@    77f53cb8     deathwindow.obj
 0002:00001cbc       ??_C@_01DGKLNCNG@R?$AA@    77f53cbc     deathwindow.obj
 0002:00001cc0       ??_C@_01OCOKONAJ@L?$AA@    77f53cc0     deathwindow.obj
 0002:00001cc4       ??_C@_01IHBHIGKO@?0?$AA@   77f53cc4     deathwindow.obj
 0002:00001cc8       ??_C@_01ICJEACDI@?$DL?$AA@ 77f53cc8     deathwindow.obj
 0002:00001ccc       ??_C@_01MNNFJEPP@?$DM?$AA@ 77f53ccc     deathwindow.obj
 0002:00001cd0       ??_C@_01BIAFAFID@F?$AA@    77f53cd0     deathwindow.obj
 0002:00001cd4       ??_C@_01EJNLAFE@P?$AA@     77f53cd4     deathwindow.obj
 0002:00001cd8       ??_C@_01PKGAHCOL@?$CJ?$AA@ 77f53cd8     deathwindow.obj
 0002:00001cdc       ??_C@_01FAMBOPH@4?$AA@     77f53cdc     deathwindow.obj
 0002:00001ce0       ??_C@_01FHEEJDEE@A?$AA@    77f53ce0     deathwindow.obj
 0002:00001ce4       ??_C@_01LFCBOECM@?4?$AA@   77f53ce4     deathwindow.obj
 0002:00001ce8       ??_C@_01COCBENDE@7?$AA@    77f53ce8     deathwindow.obj
 0002:00001cec       ??_C@_01BMBHCPLG@5?$AA@    77f53cec     deathwindow.obj
 0002:00001cf0       ??_C@_01IGIGCIAN@H?$AA@    77f53cf0     deathwindow.obj
 0002:00001cf4       ??_C@_01KJLJFBPL@8?$AA@    77f53cf4     deathwindow.obj
 0002:00001cf8       ??_C@_01JPJNBJEM@I?$AA@    77f53cf8     deathwindow.obj
 0002:00001cfc       ??_C@_01MIFGBAGJ@?$CL?$AA@ 77f53cfc     deathwindow.obj
 0002:00001d00       ??_C@_01GBGANLPD@0?$AA@    77f53d00     deathwindow.obj
 0002:00001d04       ??_C@_01NEMOKFLO@?$DN?$AA@ 77f53d04     deathwindow.obj
 0002:00001d08       ??_C@_01EKENIIDA@3?$AA@    77f53d08     deathwindow.obj
 0002:00001d0c       ??_C@_01FDFGLJHB@2?$AA@    77f53d0c     deathwindow.obj
 0002:00001d10       ??_C@_01DHDKHMHF@6?$AA@    77f53d10     deathwindow.obj
 0002:00001d14       ??_C@_01CKDDGHAB@D?$AA@    77f53d14     deathwindow.obj
 0002:00001d18       ??_C@_01EOFPKCAF@?$EA?$AA@ 77f53d18     deathwindow.obj
 0002:00001d1c       ??_C@_01IPJKGB@?$CD?$AA@   77f53d1c     deathwindow.obj
 0002:00001d20       ??_C@_01EPMOAMKG@$?$AA@    77f53d20     deathwindow.obj
 0002:00001d24       ??_C@_01DDCIFGEA@E?$AA@    77f53d24     deathwindow.obj
 0002:00001d28       ??_C@_01HIHLOKLC@1?$AA@    77f53d28     deathwindow.obj
 0002:00001d2c       ??_C@_01DCLJPIOD@?$CB?$AA@ 77f53d2c     deathwindow.obj
 0002:00001d30       ??_C@_01BJJEKLCA@?$CC?$AA@ 77f53d30     deathwindow.obj
 0002:00001d34       ??_C@_01HNPIGOCE@?$CG?$AA@ 77f53d34     deathwindow.obj
 0002:00001d38       ??_C@_01OGPIMHDM@?$DP?$AA@ 77f53d38     deathwindow.obj
 0002:00001d3c       ??_C@_01GFHCPBMG@C?$AA@    77f53d3c     deathwindow.obj
 0002:00001d40       ??_C@_01ODHLEDKK@?$CI?$AA@ 77f53d40     deathwindow.obj
 0002:00001d44       ??_C@_01PPODPGHN@?$DO?$AA@ 77f53d44     deathwindow.obj
 0002:00001d48       ??_C@_01HMGJMAIH@B?$AA@    77f53d48     deathwindow.obj
 0002:00001d4c       ??_C@_01FGNFDNOH@?$CF?$AA@ 77f53d4c     deathwindow.obj
 0002:00001d50       __real@3f266666            77f53d50     deathwindow.obj
 0002:00001d54       __real@3f400000            77f53d54     deathwindow.obj
 0002:00001d58       __real@3e99999a            77f53d58     deathwindow.obj
 0002:00001d5c       ??_C@_02PCIJFNDE@?$AN?6?$AA@ 77f53d5c     exceptions.obj
 0002:00001d60       ??_C@_0N@IOCAANK@P?$CFu?5?$CI?$CFu?0?$CFu?$CJ?5?$AA@ 77f53d60     exceptions.obj
 0002:00001d70       ??_C@_0CE@DJBJICJN@?$AN?6State?5Information?3?5L?3?5?$CFu?5?5N?3?5?$CF@ 77f53d70     exceptions.obj
 0002:00001d98       ??_C@_0FP@DMMCPIHA@?$CL?$CF04X?3?5?$CF02X?5?$CF02X?5?$CF02X?5?$CF02X?5?5?5?$CF02@ 77f53d98     exceptions.obj
 0002:00001df8       ??_C@_0CL@GMPOFBHP@?$CL?$CF04X?3?50x?$CF08X?5?5?50x?$CF08X?5?5?50x?$CF08X?5@ 77f53df8     exceptions.obj
 0002:00001e24       ??_C@_0BO@EGMHBHCD@?$CFs?7B?3?50x?$CF08X?7S?3?50x?$CF08X?7?$CI?$CFs?$CJ?$AN?6?$AA@ 77f53e24     exceptions.obj
 0002:00001e44       ??_C@_0O@NJDIPOCM@?9FailedFirst?9?$AA@ 77f53e44     exceptions.obj
 0002:00001e54       ??_C@_0BB@BFAFHGHP@?9FailedCreate?9?$AN?6?$AA@ 77f53e54     exceptions.obj
 0002:00001e68       ??_C@_0BE@LGOAKHMK@?$AN?6Loaded?5Modules?3?$AN?6?$AA@ 77f53e68     exceptions.obj
 0002:00001e7c       ??_C@_0BF@GFNIKNJE@?$AN?6Game?5Version?3?5?$CFs?$AN?6?$AA@ 77f53e7c     exceptions.obj
 0002:00001e94       ??_C@_07NFANNNEC@UNKNOWN?$AA@ 77f53e94     exceptions.obj
 0002:00001e9c       ??_C@_06EMCAAOMC@EU?51?40?$AA@ 77f53e9c     exceptions.obj
 0002:00001ea4       ??_C@_06PNKHHBBB@US?51?40?$AA@ 77f53ea4     exceptions.obj
 0002:00001eac       ??_C@_0BP@KOBPMFOO@?$AN?6SCM?5Op?3?50x?$CFX?0?5L?3?5?$CFd?0?5Dump?3?$AN?6?$AA@ 77f53eac     exceptions.obj
 0002:00001ed0       ??_C@_0KJ@MMBKJMP@Exception?5At?5Address?3?50x?$CF08X?$AN?6?$AN?6@ 77f53ed0     exceptions.obj
 0002:00001f7c       ??_C@_0O@PDLFIFKL@www?4sa?9mp?4com?$AA@ 77f53f7c     exceptions.obj
 0002:00001f8c       ??_C@_0CL@GNILGAEM@team?4sa?9mp?4com?1crashes?10?42?42?4php@ 77f53f8c     exceptions.obj
 0002:00001fb8       ??_C@_05LOKKJDIP@data?$DN?$AA@ 77f53fb8     exceptions.obj
 0002:00001fc0       ??_C@_0CD@CKPNGFBO@Thanks?5for?5reporting?5this?5proble@ 77f53fc0     exceptions.obj
 0002:00001fe4       ??_7CFileSystem@@6B@       77f53fe4     filesystem.obj
 0002:00001ffc       ??_C@_0CI@ILAHHNDC@Recruit?5Key?3?5Enter?5vehicle?5as?5pa@ 77f53ffc     helpdialog.obj
 0002:00002024       ??_C@_0CJ@CKPBDOGK@T?1F6?3?5Allows?5you?5to?5enter?5a?5chat@ 77f54024     helpdialog.obj
 0002:00002050       ??_C@_0BL@COGMKKKA@F9?3?5Toggle?5the?5deathwindow?$AA@ 77f54050     helpdialog.obj
 0002:0000206c       ??_C@_0BG@FKMMAIPN@F8?3?5Take?5a?5screenshot?$AA@ 77f5406c     helpdialog.obj
 0002:00002084       ??_C@_0BI@EPHCBBEE@F7?3?5Toggle?5the?5chat?5box?$AA@ 77f54084     helpdialog.obj
 0002:0000209c       ??_C@_0BO@IIAAGCLH@F5?3?5Show?5bandwidth?5statistics?$AA@ 77f5409c     helpdialog.obj
 0002:000020bc       ??_C@_0DF@IAEGDALC@F4?3?5Allows?5you?5to?5change?5class?5n@ 77f540bc     helpdialog.obj
 0002:000020f4       ??_C@_0BM@GMBBJIA@TAB?3?5Display?5the?5scoreboard?$AA@ 77f540f4     helpdialog.obj
 0002:00002110       ??_C@_0BN@JFMMEBCN@F1?3?5Display?5this?5help?5dialog?$AA@ 77f54110     helpdialog.obj
 0002:00002130       ??_C@_0BI@JOPEFGFJ@?9?9?9?5SA?3MP?5Key?5Binds?5?9?9?9?$AA@ 77f54130     helpdialog.obj
 0002:00002148       ??_C@_0BF@ENINLJMP@Client?5Network?5Stats?$AA@ 77f54148     netstats.obj
 0002:00002160       ??_C@_0BF@BFINDPOH@InCar?5Send?5Rate?3?5?$CFu?6?$AA@ 77f54160     netstats.obj
 0002:00002178       ??_C@_0BG@OLCIJGMA@OnFoot?5Send?5Rate?3?5?$CFu?6?$AA@ 77f54178     netstats.obj
 0002:00002190       ??_C@_0DB@FBCEFPND@Download?5Rate?3?5?$CF?42f?5kbps?6Upload?5@ 77f54190     netstats.obj
 0002:000021c4       __real@3a800000            77f541c4     netstats.obj
 0002:000021c8       __real@41000000            77f541c8     newplayertags.obj
 0002:000021cc       __real@3ec4ec4f            77f541cc     newplayertags.obj
 0002:000021d0       __real@41b80000            77f541d0     newplayertags.obj
 0002:000021d4       __real@41980000            77f541d4     newplayertags.obj
 0002:000021d8       __real@41a80000            77f541d8     newplayertags.obj
 0002:000021dc       __real@41c00000            77f541dc     newplayertags.obj
 0002:000021e0       __real@41900000            77f541e0     newplayertags.obj
 0002:000021e4       __real@3d4ccccd            77f541e4     newplayertags.obj
 0002:000021e8       __real@43700000            77f541e8     scoreboard.obj
 0002:000021ec       __real@43a00000            77f541ec     scoreboard.obj
 0002:000021f0       __real@3acccccd            77f541f0     scoreboard.obj
 0002:000021f4       ??_C@_07EHHHOIHI@Verdana?$AA@ 77f541f4     scoreboard.obj
 0002:000021fc       __real@41800000            77f541fc     scoreboard.obj
 0002:00002200       ??_C@_02DPKJAMEF@?$CFd?$AA@ 77f54200     scoreboard.obj
 0002:00002204       __real@43e40000            77f54204     scoreboard.obj
 0002:00002208       __real@42640000            77f54208     scoreboard.obj
 0002:0000220c       ??_C@_04OONEELOO@ping?$AA@ 77f5420c     scoreboard.obj
 0002:00002214       ??_C@_05DBKDOICH@score?$AA@ 77f54214     scoreboard.obj
 0002:0000221c       __real@43f78000            77f5421c     scoreboard.obj
 0002:00002220       ??_C@_04MEMAJGDJ@name?$AA@ 77f54220     scoreboard.obj
 0002:00002228       __real@43bb0000            77f54228     scoreboard.obj
 0002:0000222c       ??_C@_02EGCJHIOB@id?$AA@   77f5422c     scoreboard.obj
 0002:00002230       __real@41b00000            77f54230     scoreboard.obj
 0002:00002234       __real@42700000            77f54234     scoreboard.obj
 0002:00002238       __real@41e00000            77f54238     scoreboard.obj
 0002:0000223c       __real@42500000            77f5423c     scoreboard.obj
 0002:00002240       __real@441a0000            77f54240     scoreboard.obj
 0002:00002244       ??_C@_0BF@ILEJFNFO@Players?3?5?$CFd?9?$CFd?5of?5?$CFd?$AA@ 77f54244     scoreboard.obj
 0002:00002268       ??_C@_0M@INHKJIDL@SkinId?5?$DN?5?$CFd?$AA@ 77f54268     subclass.obj
 0002:00002274       ??_C@_09BEGPPDOH@GTA?3SA?3MP?$AA@ 77f54274     subclass.obj
 0002:00002280       ??_C@_0P@KOBBOBBD@sa?9mp?9?$CF03i?4png?$AA@ 77f54280     subclass.obj
 0002:00002290       ??_C@_02DPEMFEPD@?3?2?$AA@ 77f54290     subclass.obj
 0002:000022a8       ??_C@_06BPGFIOAL@?$CFs?$CI?$CFd?$CJ?$AA@ 77f542a8     IDirect3DDevice9Hook.obj
 0002:000022b0       ??_C@_02IGCIGBLK@dl?$AA@   77f542b0     IDirect3DDevice9Hook.obj
 0002:000022b4       __real@40000000            77f542b4     IDirect3DDevice9Hook.obj
 0002:000022b8       ??_C@_0BL@OIDJAMNC@Unable?5to?5save?5screenshot?4?$AA@ 77f542b8     IDirect3DDevice9Hook.obj
 0002:000022d4       ??_C@_0BG@HIFLIMMB@Screenshot?5Taken?5?9?5?$CFs?$AA@ 77f542d4     IDirect3DDevice9Hook.obj
 0002:000022ec       ??_C@_04HDOCAJNK@?$CFs?$CFs?$AA@ 77f542ec     dxutil.obj
 0002:000022f4       ??_C@_0P@HEBEMA@?$CFs?2?4?4?2?4?4?2?$CFs?2?$CFs?$AA@ 77f542f4     dxutil.obj
 0002:00002304       ??_C@_0M@NALGHNGE@?$CFs?2?4?4?2?$CFs?2?$CFs?$AA@ 77f54304     dxutil.obj
 0002:00002310       ??_C@_0M@HKPCIGNN@?$CFs?2?4?4?2?4?4?2?$CFs?$AA@ 77f54310     dxutil.obj
 0002:0000231c       ??_C@_08OPCCNCAK@?$CFs?2?4?4?2?$CFs?$AA@ 77f5431c     dxutil.obj
 0002:00002328       ??_C@_05BMGBEOOC@?$CFs?2?$CFs?$AA@ 77f54328     dxutil.obj
 0002:00002330       ??_C@_08KDFEKKMA@?4?4?2?4?4?2?$CFs?$AA@ 77f54330     dxutil.obj
 0002:0000233c       ??_C@_05LGCFLFFL@?4?4?2?$CFs?$AA@ 77f5433c     dxutil.obj
 0002:00002344       ??_C@_05BPCBICBK@?$CFs?2?4?4?$AA@ 77f54344     dxutil.obj
 0002:00002350       __real@3f50624dd2f1a9fc    77f54350     dxutil.obj
 0002:00002358       __real@41f0000000000000    77f54358     dxutil.obj
 0002:00002360       ??_C@_08GDMOFFMA@media?2?$CFs?$AA@ 77f54360     dxutil.obj
 0002:0000236c       ??_C@_0BE@BDKDCPJA@DirectX?5Application?$AA@ 77f5436c     DXUT.obj
 0002:00002380       ??_C@_0DA@IAMFMDGP@Could?5not?5find?5any?5compatible?5Di@ 77f54380     DXUT.obj
 0002:000023b0       ??_C@_0CO@JDBEDMFP@Direct3D?5does?5not?5work?5over?5a?5re@ 77f543b0     DXUT.obj
 0002:000023e0       ??_C@_0CK@JNLAHDJE@Failed?5resetting?5Direct3D?5device@ 77f543e0     DXUT.obj
 0002:0000240c       ??_C@_0CJ@NGDMEEIH@Failed?5creating?5Direct3D?5device?5@ 77f5440c     DXUT.obj
 0002:00002438       ??_C@_0CG@NKKNAJJN@Failed?5resetting?5the?5Direct3D?5de@ 77f54438     DXUT.obj
 0002:00002460       ??_C@_0CF@CPEKMMJN@Failed?5creating?5the?5Direct3D?5dev@ 77f54460     DXUT.obj
 0002:00002488       ??_C@_0FH@GHOOFLN@The?5D3D?5device?5has?5a?5non?9zero?5re@ 77f54488     DXUT.obj
 0002:000024e0       ??_C@_0FD@EJIIMMAA@Could?5not?5find?5required?5media?4?5E@ 77f544e0     DXUT.obj
 0002:00002534       ??_C@_0CL@IGPDECHP@Incorrect?5version?5of?5Direct3D?5an@ 77f54534     DXUT.obj
 0002:00002560       ??_C@_0OH@FLJPMJOG@Could?5not?5initialize?5Direct3D?4?5Y@ 77f54560     DXUT.obj
 0002:00002648       __real@3b808081            77f54648     DXUTgui.obj
 0002:0000264c       __real@437f0000            77f5464c     DXUTgui.obj
 0002:00002650       __real@41f00000            77f54650     DXUTgui.obj
 0002:00002654       ??_C@_0DH@CFMKICLK@CDXUTDialogResourceManager?3?3Crea@ 77f54654     DXUTgui.obj
 0002:00002690       __real@3fd51eb851eb851f    77f54690     DXUTgui.obj
 0002:00002698       __real@3fa999999999999a    77f54698     DXUTgui.obj
 0002:000026a0       ??_C@_0M@GAAOCDFL@dxutgui?4png?$AA@ 77f546a0     DXUTgui.obj
 0002:000026ac       ??_C@_0BI@NIMEAFDJ@ScriptString_pcOutChars?$AA@ 77f546ac     DXUTgui.obj
 0002:000026c4       ??_C@_0BG@ENNDDIIO@ScriptString_pLogAttr?$AA@ 77f546c4     DXUTgui.obj
 0002:000026dc       ??_C@_0BB@KPJJNIOI@ScriptStringFree?$AA@ 77f546dc     DXUTgui.obj
 0002:000026f0       ??_C@_0BC@PBCEOCLL@ScriptStringXtoCP?$AA@ 77f546f0     DXUTgui.obj
 0002:00002704       ??_C@_0BC@NCOCHMDF@ScriptStringCPtoX?$AA@ 77f54704     DXUTgui.obj
 0002:00002718       ??_C@_0BE@DPDJMHJ@ScriptStringAnalyse?$AA@ 77f54718     DXUTgui.obj
 0002:0000272c       ??_C@_0BN@GIMDAPPD@ScriptApplyDigitSubstitution?$AA@ 77f5472c     DXUTgui.obj
 0002:0000274c       ??_C@_0L@NLJMGPDJ@?2usp10?4dll?$AA@ 77f5474c     DXUTgui.obj
 0002:00002758       ??_C@_0N@EHHLLFIF@?5?$CIMinimized?$CJ?$AA@ 77f54758     DXUTgui.obj
 0002:00002768       ??_7CDXUTControl@@6B@      77f54768     DXUTgui.obj
 0002:000027b8       ??_7CDXUTScrollBar@@6B@    77f547b8     DXUTgui.obj
 0002:00002808       ??_7CDXUTEditBox@@6B@      77f54808     DXUTgui.obj
 0002:00002858       __real@bff0000000000000    77f54858     DXUTmisc.obj
 0002:00002860       ?VARIABLE_NUMBER_OF_PARAMETERS@CommandParserInterface@@2EB 77f54860     CommandParserInterface.obj
 0002:0000286c       ??_7?$BinarySearchTree@UNetworkIDNode@@@DataStructures@@6B@ 77f5486c     NetworkIDGenerator.obj
 0002:00002870       ??_7?$AVLBalancedBinarySearchTree@UNetworkIDNode@@@DataStructures@@6B@ 77f54870     NetworkIDGenerator.obj
 0002:00002878       ??_7RakClientInterface@@6B@ 77f54878     RakClient.obj
 0002:00002958       ??_7RakClient@@6BRakClientInterface@@@ 77f54958     RakClient.obj
 0002:00002a38       ??_7RakClient@@6BRakPeer@@@ 77f54a38     RakClient.obj
 0002:00002b48       ??_C@_0EPJ@GHCCKPPI@Bytes?5sent?3?7?7?7?7?$CFu?6Messages?5in?5se@ 77f54b48     RakNetStatistics.obj
 0002:00003048       ??_C@_0BGM@MAJEJOFP@Messages?5in?5Send?5buffer?3?5?$CFu?6Mess@ 77f55048     RakNetStatistics.obj
 0002:000031b8       ??_C@_0EC@LDIFCIKH@Total?5bytes?5sent?3?5?$CFu?6Total?5bytes@ 77f551b8     RakNetStatistics.obj
 0002:000031fc       ??_C@_0CK@JHPDEPLM@stats?5is?5a?5NULL?5pointer?5in?5stats@ 77f551fc     RakNetStatistics.obj
 0002:00003428       ??_7RakPeerInterface@@6B@  77f55428     RakPeer.obj
 0002:00003538       ??_7RakPeer@@6B@           77f55538     RakPeer.obj
 0002:00003644       ??_C@_07OHKHACFK@0?40?40?40?$AA@ 77f55644     RakPeer.obj
 0002:0000364c       ??_C@_09PFCHIMEP@127?40?40?41?$AA@ 77f5564c     RakPeer.obj
 0002:00003658       __real@3df0000000000000    77f55658     Rand.obj
 0002:00003680       __real@3ff0cccccccccccd    77f55680     ReliabilityLayer.obj
 0002:00003688       __real@3ff8000000000000    77f55688     ReliabilityLayer.obj
 0002:00003690       __real@40ac200000000000    77f55690     ReliabilityLayer.obj
 0002:00003698       __real@3feccccccccccccd    77f55698     ReliabilityLayer.obj
 0002:000036a0       __real@3fe0000000000000    77f556a0     ReliabilityLayer.obj
 0002:000036a8       __real@3fc999999999999a    77f556a8     ReliabilityLayer.obj
 0002:000036b0       __real@3eb0c6f7a0b5ed8d    77f556b0     ReliabilityLayer.obj
 0002:000036b8       ??_C@_01LOCGONAA@?$AA?$AA@ 77f556b8     SHA1.obj
 0002:000036bc       ??_C@_01IFKFHFEL@?$IA?$AA@ 77f556bc     SHA1.obj
 0002:000036c0       ??_7CSHA1@@6B@             77f556c0     SHA1.obj
 0002:000036c4       ??_C@_05GDHACFMB@1?42?43?$AA@ 77f556c4     compress.obj
 0002:000056d0       _deflate_copyright         77f576d0     deflate.obj
 0002:000068e0       _inflate_copyright         77f588e0     inftrees.obj
 0002:00007058       __dist_code                77f59058     trees.obj
 0002:00007258       __length_code              77f59258     trees.obj
 0002:00007448       _z_errmsg                  77f59448     zutil.obj
 0002:00007470       ??_C@_0BF@CJFPCCEG@incompatible?5version?$AA@ 77f59470     zutil.obj
 0002:00007488       ??_C@_0N@DFPGLBGC@buffer?5error?$AA@ 77f59488     zutil.obj
 0002:00007498       ??_C@_0BE@OGGJBMCE@insufficient?5memory?$AA@ 77f59498     zutil.obj
 0002:000074ac       ??_C@_0L@HAHMBNLP@data?5error?$AA@ 77f594ac     zutil.obj
 0002:000074b8       ??_C@_0N@MKKNPMJD@stream?5error?$AA@ 77f594b8     zutil.obj
 0002:000074c8       ??_C@_0L@KIJFAKBJ@file?5error?$AA@ 77f594c8     zutil.obj
 0002:000074d4       ??_C@_0L@FNAOCBOG@stream?5end?$AA@ 77f594d4     zutil.obj
 0002:000074e0       ??_C@_0BA@MOKMMFOD@need?5dictionary?$AA@ 77f594e0     zutil.obj
 0002:000075e4       ??_7CAbstractStream@@6B@   77f595e4     ArchiveFS.obj
 0002:00007604       ??_7CMemoryStream@@6B@     77f59604     ArchiveFS.obj
 0002:00007624       ??_7CFileStream@@6B@       77f59624     ArchiveFS.obj
 0002:00007650       ??_7CArchiveFS@@6B@        77f59650     ArchiveFS.obj
 0002:00007674       ??_C@_04KHDPMBGG@SAMP?$AA@ 77f59674     CryptoContext.obj
 0002:00007728       ??_7IDirect3DDevice9Hook@@6B@ 77f59728     main.obj
 0002:00007904       ??_C@_08BPFCPBGG@samp?4saa?$AA@ 77f59904     main.obj
 0002:00007a48       ??_7type_info@@6B@         77f59a48     LIBCMT:typinfo.obj
 0002:00007a7c       ??_C@_05KLBDPFGC@e?$CL000?$AA@ 77f59a7c     LIBCMT:cvt.obj
 0002:00007a88       __real@4150017ec0000000    77f59a88     LIBCMT:testfdiv.obj
 0002:00007a90       __real@4147ffff80000000    77f59a90     LIBCMT:testfdiv.obj
 0002:00007a98       ??_C@_0BK@NHEOCAHP@IsProcessorFeaturePresent?$AA@ 77f59a98     LIBCMT:testfdiv.obj
 0002:00007ab4       ??_C@_08CPNIBGIE@KERNEL32?$AA@ 77f59ab4     LIBCMT:testfdiv.obj
 0002:00007b28       ??_C@_07PEJMOBNF@FlsFree?$AA@ 77f59b28     LIBCMT:tidtable.obj
 0002:00007b30       ??_C@_0M@JCPCPOEF@FlsSetValue?$AA@ 77f59b30     LIBCMT:tidtable.obj
 0002:00007b3c       ??_C@_0M@GDNOONDI@FlsGetValue?$AA@ 77f59b3c     LIBCMT:tidtable.obj
 0002:00007b48       ??_C@_08KNHFBNJ@FlsAlloc?$AA@ 77f59b48     LIBCMT:tidtable.obj
 0002:00007b54       ??_C@_0N@MDJJJHMB@kernel32?4dll?$AA@ 77f59b54     LIBCMT:tidtable.obj
 0002:00007b88       ___lookuptable             77f59b88     LIBCMT:output.obj
 0002:00007be4       ??_C@_1O@CEDCILHN@?$AA?$CI?$AAn?$AAu?$AAl?$AAl?$AA?$CJ?$AA?$AA@ 77f59be4     LIBCMT:output.obj
 0002:00007bf4       ??_C@_06OJHGLDPL@?$CInull?$CJ?$AA@ 77f59bf4     LIBCMT:output.obj
 0002:00007dec       ??_C@_0P@MIGLKIOC@CorExitProcess?$AA@ 77f59dec     LIBCMT:crt0dat.obj
 0002:00007dfc       ??_C@_0M@MBOPBNBK@mscoree?4dll?$AA@ 77f59dfc     LIBCMT:crt0dat.obj
 0002:00007e34       ??_C@_0N@FFJGBINN@AuthenticAMD?$AA@ 77f59e34     LIBCMT:cpu_disp.obj
 0002:0000b788       __DEFAULT_CW_in_mem        77f5d788     LIBCMT:common.obj
 0002:0000b78a       __pi_by_2_to_61            77f5d78a     LIBCMT:common.obj
 0002:0000b7c8       __real@4000000000000000    77f5d7c8     LIBCMT:powhlp.obj
 0002:0000b7d0       ??_C@_13NOLLCAOD@?$AA?$AA?$AA?$AA@ 77f5d7d0     LIBCMT:a_map.obj
 0002:0000b82c       ??_C@_0BG@KLEAJEFJ@Illegal?5byte?5sequence?$AA@ 77f5d82c     LIBCMT:syserr.obj
 0002:0000b844       ??_C@_0BE@ICMCHPHH@Directory?5not?5empty?$AA@ 77f5d844     LIBCMT:syserr.obj
 0002:0000b858       ??_C@_0BJ@IHEHINLI@Function?5not?5implemented?$AA@ 77f5d858     LIBCMT:syserr.obj
 0002:0000b874       ??_C@_0BD@CLHBCGPB@No?5locks?5available?$AA@ 77f5d874     LIBCMT:syserr.obj
 0002:0000b888       ??_C@_0BC@BEDIHIDK@Filename?5too?5long?$AA@ 77f5d888     LIBCMT:syserr.obj
 0002:0000b89c       ??_C@_0BK@JAEBMJJM@Resource?5deadlock?5avoided?$AA@ 77f5d89c     LIBCMT:syserr.obj
 0002:0000b8b8       ??_C@_0BB@FCBJFCAJ@Result?5too?5large?$AA@ 77f5d8b8     LIBCMT:syserr.obj
 0002:0000b8cc       ??_C@_0N@MMJPGLJK@Domain?5error?$AA@ 77f5d8cc     LIBCMT:syserr.obj
 0002:0000b8dc       ??_C@_0M@LHEPIIOM@Broken?5pipe?$AA@ 77f5d8dc     LIBCMT:syserr.obj
 0002:0000b8e8       ??_C@_0P@PKCJJLLM@Too?5many?5links?$AA@ 77f5d8e8     LIBCMT:syserr.obj
 0002:0000b8f8       ??_C@_0BG@DDBFNKBH@Read?9only?5file?5system?$AA@ 77f5d8f8     LIBCMT:syserr.obj
 0002:0000b910       ??_C@_0N@FEHLOILP@Invalid?5seek?$AA@ 77f5d910     LIBCMT:syserr.obj
 0002:0000b920       ??_C@_0BI@FEALHKLD@No?5space?5left?5on?5device?$AA@ 77f5d920     LIBCMT:syserr.obj
 0002:0000b938       ??_C@_0P@LFMMIPAE@File?5too?5large?$AA@ 77f5d938     LIBCMT:syserr.obj
 0002:0000b948       ??_C@_0CE@ONOKNLPF@Inappropriate?5I?1O?5control?5operat@ 77f5d948     LIBCMT:syserr.obj
 0002:0000b96c       ??_C@_0BE@INBJMKGG@Too?5many?5open?5files?$AA@ 77f5d96c     LIBCMT:syserr.obj
 0002:0000b980       ??_C@_0BO@IIFBODJE@Too?5many?5open?5files?5in?5system?$AA@ 77f5d980     LIBCMT:syserr.obj
 0002:0000b9a0       ??_C@_0BB@HMGGCEBG@Invalid?5argument?$AA@ 77f5d9a0     LIBCMT:syserr.obj
 0002:0000b9b4       ??_C@_0P@NDHGCGKE@Is?5a?5directory?$AA@ 77f5d9b4     LIBCMT:syserr.obj
 0002:0000b9c4       ??_C@_0BA@CJBACOOL@Not?5a?5directory?$AA@ 77f5d9c4     LIBCMT:syserr.obj
 0002:0000b9d4       ??_C@_0P@NLEIANHE@No?5such?5device?$AA@ 77f5d9d4     LIBCMT:syserr.obj
 0002:0000b9e4       ??_C@_0O@OAMDNOCP@Improper?5link?$AA@ 77f5d9e4     LIBCMT:syserr.obj
 0002:0000b9f4       ??_C@_0M@NAAJNNGH@File?5exists?$AA@ 77f5d9f4     LIBCMT:syserr.obj
 0002:0000ba00       ??_C@_0BA@BIBLIOEK@Resource?5device?$AA@ 77f5da00     LIBCMT:syserr.obj
 0002:0000ba10       ??_C@_0O@NIPGCINC@Unknown?5error?$AA@ 77f5da10     LIBCMT:syserr.obj
 0002:0000ba20       ??_C@_0M@LOEHLCJD@Bad?5address?$AA@ 77f5da20     LIBCMT:syserr.obj
 0002:0000ba2c       ??_C@_0BC@HFNFNKAI@Permission?5denied?$AA@ 77f5da2c     LIBCMT:syserr.obj
 0002:0000ba40       ??_C@_0BB@IMDKMPFB@Not?5enough?5space?$AA@ 77f5da40     LIBCMT:syserr.obj
 0002:0000ba54       ??_C@_0CB@EPFKGNAK@Resource?5temporarily?5unavailable@ 77f5da54     LIBCMT:syserr.obj
 0002:0000ba78       ??_C@_0BD@LOHELEP@No?5child?5processes?$AA@ 77f5da78     LIBCMT:syserr.obj
 0002:0000ba8c       ??_C@_0BE@NFGDDCEF@Bad?5file?5descriptor?$AA@ 77f5da8c     LIBCMT:syserr.obj
 0002:0000baa0       ??_C@_0BC@HKPNECK@Exec?5format?5error?$AA@ 77f5daa0     LIBCMT:syserr.obj
 0002:0000bab4       ??_C@_0BC@MFFGCDFL@Arg?5list?5too?5long?$AA@ 77f5dab4     LIBCMT:syserr.obj
 0002:0000bac8       ??_C@_0BK@DPKMCKJ@No?5such?5device?5or?5address?$AA@ 77f5dac8     LIBCMT:syserr.obj
 0002:0000bae4       ??_C@_0BD@KKNFOBBD@Input?1output?5error?$AA@ 77f5dae4     LIBCMT:syserr.obj
 0002:0000baf8       ??_C@_0BK@FJBOAFDK@Interrupted?5function?5call?$AA@ 77f5daf8     LIBCMT:syserr.obj
 0002:0000bb14       ??_C@_0BA@FKIAIBGA@No?5such?5process?$AA@ 77f5db14     LIBCMT:syserr.obj
 0002:0000bb24       ??_C@_0BK@FMDHKPNF@No?5such?5file?5or?5directory?$AA@ 77f5db24     LIBCMT:syserr.obj
 0002:0000bb40       ??_C@_0BI@BJFCGOHL@Operation?5not?5permitted?$AA@ 77f5db40     LIBCMT:syserr.obj
 0002:0000bb58       ??_C@_08INEPGKHH@No?5error?$AA@ 77f5db58     LIBCMT:syserr.obj
 0002:0000bb84       ??_C@_0P@GGKDKEEG@runtime?5error?5?$AA@ 77f5db84     LIBCMT:crt0msg.obj
 0002:0000bb94       ??_C@_0O@MJNIPGOH@TLOSS?5error?$AN?6?$AA@ 77f5db94     LIBCMT:crt0msg.obj
 0002:0000bba4       ??_C@_0N@BONNPDHF@SING?5error?$AN?6?$AA@ 77f5dba4     LIBCMT:crt0msg.obj
 0002:0000bbb4       ??_C@_0P@MBDAJNE@DOMAIN?5error?$AN?6?$AA@ 77f5dbb4     LIBCMT:crt0msg.obj
 0002:0000bbc8       ??_C@_0KC@BDDGGBEJ@R6029?$AN?6?9?5This?5application?5cannot@ 77f5dbc8     LIBCMT:crt0msg.obj
 0002:0000bc6c       ??_C@_0CF@KJDAIALP@R6028?$AN?6?9?5unable?5to?5initialize?5he@ 77f5dc6c     LIBCMT:crt0msg.obj
 0002:0000bc94       ??_C@_0DF@GAKBPDFP@R6027?$AN?6?9?5not?5enough?5space?5for?5lo@ 77f5dc94     LIBCMT:crt0msg.obj
 0002:0000bccc       ??_C@_0DF@IBLNNAIG@R6026?$AN?6?9?5not?5enough?5space?5for?5st@ 77f5dccc     LIBCMT:crt0msg.obj
 0002:0000bd04       ??_C@_0CG@IOHKGFNJ@R6025?$AN?6?9?5pure?5virtual?5function?5c@ 77f5dd04     LIBCMT:crt0msg.obj
 0002:0000bd2c       ??_C@_0DF@JIJJFJDC@R6024?$AN?6?9?5not?5enough?5space?5for?5_o@ 77f5dd2c     LIBCMT:crt0msg.obj
 0002:0000bd64       ??_C@_0CJ@EGEJHFME@R6019?$AN?6?9?5unable?5to?5open?5console?5@ 77f5dd64     LIBCMT:crt0msg.obj
 0002:0000bd90       ??_C@_0CB@GNHNIELH@R6018?$AN?6?9?5unexpected?5heap?5error?$AN?6@ 77f5dd90     LIBCMT:crt0msg.obj
 0002:0000bdb4       ??_C@_0CN@FOLDKNG@R6017?$AN?6?9?5unexpected?5multithread?5@ 77f5ddb4     LIBCMT:crt0msg.obj
 0002:0000bde4       ??_C@_0CM@FAHFJNHO@R6016?$AN?6?9?5not?5enough?5space?5for?5th@ 77f5dde4     LIBCMT:crt0msg.obj
 0002:0000be10       ??_C@_0JG@LBKMGKLD@?$AN?6This?5application?5has?5requested@ 77f5de10     LIBCMT:crt0msg.obj
 0002:0000bea8       ??_C@_0CM@FLCNIPKK@R6009?$AN?6?9?5not?5enough?5space?5for?5en@ 77f5dea8     LIBCMT:crt0msg.obj
 0002:0000bed4       ??_C@_0CK@KMMJOAPP@R6008?$AN?6?9?5not?5enough?5space?5for?5ar@ 77f5ded4     LIBCMT:crt0msg.obj
 0002:0000bf00       ??_C@_0CF@HOHMHDEK@R6002?$AN?6?9?5floating?5point?5not?5load@ 77f5df00     LIBCMT:crt0msg.obj
 0002:0000bf28       ??_C@_0CF@GOGNBNAK@Microsoft?5Visual?5C?$CL?$CL?5Runtime?5Lib@ 77f5df28     LIBCMT:crt0msg.obj
 0002:0000bf50       ??_C@_0BK@OFGJDLJJ@Runtime?5Error?$CB?6?6Program?3?5?$AA@ 77f5df50     LIBCMT:crt0msg.obj
 0002:0000bf6c       ??_C@_03KHICJKCI@?4?4?4?$AA@ 77f5df6c     LIBCMT:crt0msg.obj
 0002:0000bf70       ??_C@_0BH@DNAGHKFM@?$DMprogram?5name?5unknown?$DO?$AA@ 77f5df70     LIBCMT:crt0msg.obj
 0002:0000bf98       ___newctype                77f5df98     LIBCMT:ctype.obj
 0002:0000c298       __wctype                   77f5e298     LIBCMT:ctype.obj
 0002:0000c49c       ??_C@_0CG@PKBDLMEO@InitializeCriticalSectionAndSpin@ 77f5e49c     LIBCMT:initcrit.obj
 0002:0000c4e4       ??_C@_08JCCMCCIL@HH?3mm?3ss?$AA@ 77f5e4e4     LIBCMT:strftime.obj
 0002:0000c4f0       ??_C@_0BE@CKGJFCPC@dddd?0?5MMMM?5dd?0?5yyyy?$AA@ 77f5e4f0     LIBCMT:strftime.obj
 0002:0000c504       ??_C@_08BPBNCDIB@MM?1dd?1yy?$AA@ 77f5e504     LIBCMT:strftime.obj
 0002:0000c510       ??_C@_02CJNFDJBF@PM?$AA@   77f5e510     LIBCMT:strftime.obj
 0002:0000c514       ??_C@_02DEDBPAFC@AM?$AA@   77f5e514     LIBCMT:strftime.obj
 0002:0000c518       ??_C@_08EDHMEBNP@December?$AA@ 77f5e518     LIBCMT:strftime.obj
 0002:0000c524       ??_C@_08HCHEGEOA@November?$AA@ 77f5e524     LIBCMT:strftime.obj
 0002:0000c530       ??_C@_07JJNFCEND@October?$AA@ 77f5e530     LIBCMT:strftime.obj
 0002:0000c538       ??_C@_09BHHEALKD@September?$AA@ 77f5e538     LIBCMT:strftime.obj
 0002:0000c544       ??_C@_06LBBHFDDG@August?$AA@ 77f5e544     LIBCMT:strftime.obj
 0002:0000c54c       ??_C@_04MIEPOIFP@July?$AA@ 77f5e54c     LIBCMT:strftime.obj
 0002:0000c554       ??_C@_04CNLMGBGM@June?$AA@ 77f5e554     LIBCMT:strftime.obj
 0002:0000c55c       ??_C@_05DMJDNLEJ@April?$AA@ 77f5e55c     LIBCMT:strftime.obj
 0002:0000c564       ??_C@_05HPCKOFNC@March?$AA@ 77f5e564     LIBCMT:strftime.obj
 0002:0000c56c       ??_C@_08GNJGEPFN@February?$AA@ 77f5e56c     LIBCMT:strftime.obj
 0002:0000c578       ??_C@_07CGJPFGJA@January?$AA@ 77f5e578     LIBCMT:strftime.obj
 0002:0000c580       ??_C@_03MKABNOCG@Dec?$AA@  77f5e580     LIBCMT:strftime.obj
 0002:0000c584       ??_C@_03JPJOFNIA@Nov?$AA@  77f5e584     LIBCMT:strftime.obj
 0002:0000c588       ??_C@_03BMAOKBAD@Oct?$AA@  77f5e588     LIBCMT:strftime.obj
 0002:0000c58c       ??_C@_03GGCAPAJC@Sep?$AA@  77f5e58c     LIBCMT:strftime.obj
 0002:0000c590       ??_C@_03IFJFEIGA@Aug?$AA@  77f5e590     LIBCMT:strftime.obj
 0002:0000c594       ??_C@_03LBGABGKK@Jul?$AA@  77f5e594     LIBCMT:strftime.obj
 0002:0000c598       ??_C@_03IDFGHECI@Jun?$AA@  77f5e598     LIBCMT:strftime.obj
 0002:0000c59c       ??_C@_03CNMDKL@May?$AA@    77f5e59c     LIBCMT:strftime.obj
 0002:0000c5a0       ??_C@_03LEOLGMJP@Apr?$AA@  77f5e5a0     LIBCMT:strftime.obj
 0002:0000c5a4       ??_C@_03ODNJBKGA@Mar?$AA@  77f5e5a4     LIBCMT:strftime.obj
 0002:0000c5a8       ??_C@_03HJBDCHOM@Feb?$AA@  77f5e5a8     LIBCMT:strftime.obj
 0002:0000c5ac       ??_C@_03JIHJHPIE@Jan?$AA@  77f5e5ac     LIBCMT:strftime.obj
 0002:0000c5b0       ??_C@_08INBOOONO@Saturday?$AA@ 77f5e5b0     LIBCMT:strftime.obj
 0002:0000c5bc       ??_C@_06JECMNKMI@Friday?$AA@ 77f5e5bc     LIBCMT:strftime.obj
 0002:0000c5c4       ??_C@_08HACCIKIA@Thursday?$AA@ 77f5e5c4     LIBCMT:strftime.obj
 0002:0000c5d0       ??_C@_09DLIGFAKA@Wednesday?$AA@ 77f5e5d0     LIBCMT:strftime.obj
 0002:0000c5dc       ??_C@_07BAAGCFCM@Tuesday?$AA@ 77f5e5dc     LIBCMT:strftime.obj
 0002:0000c5e4       ??_C@_06JLEDEDGH@Monday?$AA@ 77f5e5e4     LIBCMT:strftime.obj
 0002:0000c5ec       ??_C@_06OOPIFAJ@Sunday?$AA@ 77f5e5ec     LIBCMT:strftime.obj
 0002:0000c5f4       ??_C@_03FEFJNEK@Sat?$AA@   77f5e5f4     LIBCMT:strftime.obj
 0002:0000c5f8       ??_C@_03IDIOELNC@Fri?$AA@  77f5e5f8     LIBCMT:strftime.obj
 0002:0000c5fc       ??_C@_03IOFIKPDN@Thu?$AA@  77f5e5fc     LIBCMT:strftime.obj
 0002:0000c600       ??_C@_03MHOMLAJA@Wed?$AA@  77f5e600     LIBCMT:strftime.obj
 0002:0000c604       ??_C@_03NAGEINEP@Tue?$AA@  77f5e604     LIBCMT:strftime.obj
 0002:0000c608       ??_C@_03PDAGKDH@Mon?$AA@   77f5e608     LIBCMT:strftime.obj
 0002:0000c60c       ??_C@_03KOEHGMDN@Sun?$AA@  77f5e60c     LIBCMT:strftime.obj
 0002:0000c654       ??_C@_09KLGCKDOD@Program?3?5?$AA@ 77f5e654     LIBCMT:secfail.obj
 0002:0000c660       ??_C@_0KA@JEHFIFGP@A?5buffer?5overrun?5has?5been?5detect@ 77f5e660     LIBCMT:secfail.obj
 0002:0000c700       ??_C@_0BJ@MDEKIEOJ@Buffer?5overrun?5detected?$CB?$AA@ 77f5e700     LIBCMT:secfail.obj
 0002:0000c720       ??_C@_0LB@BPLHHLFD@A?5security?5error?5of?5unknown?5caus@ 77f5e720     LIBCMT:secfail.obj
 0002:0000c7d4       ??_C@_0CD@GMKACBEK@Unknown?5security?5failure?5detecte@ 77f5e7d4     LIBCMT:secfail.obj
 0002:0000c870       ??_C@_04MLLJIGOK@atan?$AA@ 77f5e870     LIBCMT:libm_error.obj
 0002:0000c878       ??_C@_04GFPJNGEK@ceil?$AA@ 77f5e878     LIBCMT:libm_error.obj
 0002:0000c880       ??_C@_05PBJFFIGL@floor?$AA@ 77f5e880     LIBCMT:libm_error.obj
 0002:0000c888       ??_C@_04EHEDPDJG@modf?$AA@ 77f5e888     LIBCMT:libm_error.obj
 0002:0000c890       ??_C@_04HPAFEEIN@exp2?$AA@ 77f5e890     LIBCMT:libm_error.obj
 0002:0000c898       ??_C@_05EOHGHCHD@exp10?$AA@ 77f5e898     LIBCMT:libm_error.obj
 0002:0000c8a0       ??_C@_04KGLCPMCP@log2?$AA@ 77f5e8a0     LIBCMT:libm_error.obj
 0002:0000c8a8       ??_C@_03JGHBODFD@pow?$AA@  77f5e8a8     LIBCMT:libm_error.obj
 0002:0000c8ac       ??_C@_03MGHMBJCF@log?$AA@  77f5e8ac     LIBCMT:libm_error.obj
 0002:0000c8b0       ??_C@_05HGHHAHAP@log10?$AA@ 77f5e8b0     LIBCMT:libm_error.obj
 0002:0000c8b8       ??_C@_03KHJOGHMM@exp?$AA@  77f5e8b8     LIBCMT:libm_error.obj
 0002:0000c8cc       ___dnames                  77f5e8cc     LIBCMT:timeset.obj
 0002:0000c8e4       ___mnames                  77f5e8e4     LIBCMT:timeset.obj
 0002:0000c90c       ??_C@_0BI@DFKBFLJE@GetProcessWindowStation?$AA@ 77f5e90c     LIBCMT:crtmbox.obj
 0002:0000c924       ??_C@_0BK@CIDNPOGP@GetUserObjectInformationA?$AA@ 77f5e924     LIBCMT:crtmbox.obj
 0002:0000c940       ??_C@_0BD@HHGDFDBJ@GetLastActivePopup?$AA@ 77f5e940     LIBCMT:crtmbox.obj
 0002:0000c954       ??_C@_0BA@HNOPNCHB@GetActiveWindow?$AA@ 77f5e954     LIBCMT:crtmbox.obj
 0002:0000c964       ??_C@_0M@CHKKJDAI@MessageBoxA?$AA@ 77f5e964     LIBCMT:crtmbox.obj
 0002:0000c970       ??_C@_0L@GMPLCCII@user32?4dll?$AA@ 77f5e970     LIBCMT:crtmbox.obj
 0002:0000c97c       ??_C@_06IMKFLFPG@1?$CDQNAN?$AA@ 77f5e97c     LIBCMT:x10fout.obj
 0002:0000c984       ??_C@_05DNEBIAHO@1?$CDINF?$AA@ 77f5e984     LIBCMT:x10fout.obj
 0002:0000c98c       ??_C@_05PHHOCPM@1?$CDIND?$AA@ 77f5e98c     LIBCMT:x10fout.obj
 0002:0000c994       ??_C@_06PGGFOGJG@1?$CDSNAN?$AA@ 77f5e994     LIBCMT:x10fout.obj
 0002:0000c9ac       ??_C@_0L@KDOEJCKC@_nextafter?$AA@ 77f5e9ac     LIBCMT:fpexcept.obj
 0002:0000c9b8       ??_C@_05JGDBENOH@_logb?$AA@ 77f5e9b8     LIBCMT:fpexcept.obj
 0002:0000c9c0       ??_C@_03ONILCKOB@_yn?$AA@  77f5e9c0     LIBCMT:fpexcept.obj
 0002:0000c9c4       ??_C@_03NAKIGLHK@_y1?$AA@  77f5e9c4     LIBCMT:fpexcept.obj
 0002:0000c9c8       ??_C@_03MJLDFKDL@_y0?$AA@  77f5e9c8     LIBCMT:fpexcept.obj
 0002:0000c9cc       ??_C@_05GKKHEGJL@frexp?$AA@ 77f5e9cc     LIBCMT:fpexcept.obj
 0002:0000c9d4       ??_C@_04KEPJIHGP@fmod?$AA@ 77f5e9d4     LIBCMT:fpexcept.obj
 0002:0000c9dc       ??_C@_06MEIMCGCF@_hypot?$AA@ 77f5e9dc     LIBCMT:fpexcept.obj
 0002:0000c9e4       ??_C@_05KBKMEMPO@_cabs?$AA@ 77f5e9e4     LIBCMT:fpexcept.obj
 0002:0000c9ec       ??_C@_05CEJMAHNP@ldexp?$AA@ 77f5e9ec     LIBCMT:fpexcept.obj
 0002:0000c9f4       ??_C@_04ODHECPBC@fabs?$AA@ 77f5e9f4     LIBCMT:fpexcept.obj
 0002:0000c9fc       ??_C@_03IIINPABG@tan?$AA@  77f5e9fc     LIBCMT:fpexcept.obj
 0002:0000ca00       ??_C@_03LALBNOCG@cos?$AA@  77f5ea00     LIBCMT:fpexcept.obj
 0002:0000ca04       ??_C@_03BLEJJJBH@sin?$AA@  77f5ea04     LIBCMT:fpexcept.obj
 0002:0000ca08       ??_C@_04EIAKFFMI@sqrt?$AA@ 77f5ea08     LIBCMT:fpexcept.obj
 0002:0000ca10       ??_C@_05KNGEOGJB@atan2?$AA@ 77f5ea10     LIBCMT:fpexcept.obj
 0002:0000ca18       ??_C@_04PDIFKINK@acos?$AA@ 77f5ea18     LIBCMT:fpexcept.obj
 0002:0000ca20       ??_C@_04FIHNOPOL@asin?$AA@ 77f5ea20     LIBCMT:fpexcept.obj
 0002:0000ca28       ??_C@_04FJHINJAO@tanh?$AA@ 77f5ea28     LIBCMT:fpexcept.obj
 0002:0000ca30       ??_C@_04HPJJNFIM@cosh?$AA@ 77f5ea30     LIBCMT:fpexcept.obj
 0002:0000ca38       ??_C@_04COOMCNPB@sinh?$AA@ 77f5ea38     LIBCMT:fpexcept.obj
 0002:0000ca44       ??_7logic_error@std@@6B@   77f5ea44     libcpmt:string.obj
 0002:0000ca50       ??_7length_error@std@@6B@  77f5ea50     libcpmt:string.obj
 0002:0000ca5c       ??_7out_of_range@std@@6B@  77f5ea5c     libcpmt:string.obj
 0002:0000ca64       ??_C@_0BI@CFPLBAOH@invalid?5string?5position?$AA@ 77f5ea64     libcpmt:string.obj
 0002:0000ca7c       ??_C@_0BA@JFNIOLAK@string?5too?5long?$AA@ 77f5ea7c     libcpmt:string.obj
 0002:0000ca90       ??_7exception@@6B@         77f5ea90     LIBCMT:stdexcpt.obj
 0002:0000ca98       ??_C@_0BC@EOODALEL@Unknown?5exception?$AA@ 77f5ea98     LIBCMT:stdexcpt.obj
 0002:0000cab0       __load_config_used         77f5eab0     LIBCMT:loadcfg.obj
 0002:0000caf8       ??_R1A@?0A@A@type_info@@8  77f5eaf8     LIBCMT:typinfo.obj
 0002:0000cb10       ??_R2type_info@@8          77f5eb10     LIBCMT:typinfo.obj
 0002:0000cb18       ??_R3type_info@@8          77f5eb18     LIBCMT:typinfo.obj
 0002:0000cb28       ??_R4type_info@@6B@        77f5eb28     LIBCMT:typinfo.obj
 0002:0000cb3c       ??_R1A@?0A@A@exception@@8  77f5eb3c     libcpmt:string.obj
 0002:0000cb54       ??_R1A@?0A@A@logic_error@std@@8 77f5eb54     libcpmt:string.obj
 0002:0000cb6c       ??_R2logic_error@std@@8    77f5eb6c     libcpmt:string.obj
 0002:0000cb78       ??_R3logic_error@std@@8    77f5eb78     libcpmt:string.obj
 0002:0000cb88       ??_R4logic_error@std@@6B@  77f5eb88     libcpmt:string.obj
 0002:0000cb9c       ??_R1A@?0A@A@length_error@std@@8 77f5eb9c     libcpmt:string.obj
 0002:0000cbb4       ??_R2length_error@std@@8   77f5ebb4     libcpmt:string.obj
 0002:0000cbc4       ??_R3length_error@std@@8   77f5ebc4     libcpmt:string.obj
 0002:0000cbd4       ??_R4length_error@std@@6B@ 77f5ebd4     libcpmt:string.obj
 0002:0000cbe8       ??_R1A@?0A@A@out_of_range@std@@8 77f5ebe8     libcpmt:string.obj
 0002:0000cc00       ??_R2out_of_range@std@@8   77f5ec00     libcpmt:string.obj
 0002:0000cc10       ??_R3out_of_range@std@@8   77f5ec10     libcpmt:string.obj
 0002:0000cc20       ??_R4out_of_range@std@@6B@ 77f5ec20     libcpmt:string.obj
 0002:0000cc34       ??_R2exception@@8          77f5ec34     LIBCMT:stdexcpt.obj
 0002:0000cc3c       ??_R3exception@@8          77f5ec3c     LIBCMT:stdexcpt.obj
 0002:0000cc4c       ??_R4exception@@6B@        77f5ec4c     LIBCMT:stdexcpt.obj
 0002:0000cc60       ___safe_se_handler_table   77f5ec60     <linker-defined>
 0002:0000ce00       ___rtc_iaa                 77f5ee00     LIBCMT:initsect.obj
 0002:0000ce04       ___rtc_izz                 77f5ee04     LIBCMT:initsect.obj
 0002:0000ce08       ___rtc_taa                 77f5ee08     LIBCMT:initsect.obj
 0002:0000ce0c       ___rtc_tzz                 77f5ee0c     LIBCMT:initsect.obj
 0002:0000f2d8       __CT??_R0H@84              77f612d8     CryptoContext.obj
 0002:0000f2f4       __CTA1H                    77f612f4     CryptoContext.obj
 0002:0000f2fc       __TI1H                     77f612fc     CryptoContext.obj
 0002:0000f430       __CT??_R0?AVexception@@@8??0exception@@QAE@ABV0@@Z12 77f61430     libcpmt:string.obj
 0002:0000f44c       __CT??_R0?AVlogic_error@std@@@8??0logic_error@std@@QAE@ABV01@@Z40 77f6144c     libcpmt:string.obj
 0002:0000f468       __CT??_R0?AVout_of_range@std@@@8??0out_of_range@std@@QAE@ABV01@@Z40 77f61468     libcpmt:string.obj
 0002:0000f484       __CTA3?AVout_of_range@std@@ 77f61484     libcpmt:string.obj
 0002:0000f494       __TI3?AVout_of_range@std@@ 77f61494     libcpmt:string.obj
 0002:0000f4ec       __CT??_R0?AVlength_error@std@@@8??0length_error@std@@QAE@ABV01@@Z40 77f614ec     libcpmt:string.obj
 0002:0000f508       __CTA3?AVlength_error@std@@ 77f61508     libcpmt:string.obj
 0002:0000f518       __TI3?AVlength_error@std@@ 77f61518     libcpmt:string.obj
 0002:0000f54c       __IMPORT_DESCRIPTOR_d3dx9_25 77f6154c     d3dx9:d3dx9_25.dll
 0002:0000f560       __IMPORT_DESCRIPTOR_USER32 77f61560     User32:USER32.dll
 0002:0000f574       __IMPORT_DESCRIPTOR_KERNEL32 77f61574     kernel32:KERNEL32.dll
 0002:0000f588       __IMPORT_DESCRIPTOR_WSOCK32 77f61588     wsock32:WSOCK32.dll
 0002:0000f59c       __IMPORT_DESCRIPTOR_WINMM  77f6159c     winmm:WINMM.dll
 0002:0000f5b0       __IMPORT_DESCRIPTOR_WININET 77f615b0     wininet:WININET.dll
 0002:0000f5c4       __NULL_IMPORT_DESCRIPTOR   77f615c4     d3dx9:d3dx9_25.dll
 0003:00000000       ___xc_a                    77f63000     LIBCMT:crt0init.obj
 0003:00000020       ___xc_z                    77f63020     LIBCMT:crt0init.obj
 0003:00000024       ___xi_a                    77f63024     LIBCMT:crt0init.obj
 0003:0000003c       ___xi_z                    77f6303c     LIBCMT:crt0init.obj
 0003:00000040       ___xp_a                    77f63040     LIBCMT:crt0init.obj
 0003:00000048       ___xp_z                    77f63048     LIBCMT:crt0init.obj
 0003:0000004c       ___xt_a                    77f6304c     LIBCMT:crt0init.obj
 0003:00000054       ___xt_z                    77f63054     LIBCMT:crt0init.obj
 0003:00000060       ?pcaInternalAim@@3PAU_CAMERA_AIM@@A 77f63060     aimstuff.obj
 0003:00000064       ?pfCameraExtZoom@@3PAMA    77f63064     aimstuff.obj
 0003:00000078       ?iSelection@@3HA           77f63078     debug.obj
 0003:0000009c       ?byteGetKeyStateFunc@@3PAEA 77f6309c     game.obj
 0003:000000b4       ?pbyteCameraMode@@3PAEA    77f630b4     hooks.obj
 0003:000000b8       ?pbyteCurrentPlayer@@3PAEA 77f630b8     hooks.obj
 0003:000000bc       ?wCameraMode2@@3PAGA       77f630bc     hooks.obj
 0003:000000c0       ?fFarClip@@3MA             77f630c0     hooks.obj
 0003:000000c4       ?GameProcess_HookJmpCode@@3PAEA 77f630c4     hooks.obj
 0003:000000cc       ?TaskEnterVehicleDriver_HookJmpCode@@3PAEA 77f630cc     hooks.obj
 0003:000000d4       ?TaskExitVehicle_HookJmpCode@@3PAEA 77f630d4     hooks.obj
 0003:000000dc       ?RadarTranslateColor_HookJmpCode@@3PAEA 77f630dc     hooks.obj
 0003:000000e4       ?CheatProcessHook_JmpCode@@3PAEA 77f630e4     hooks.obj
 0003:000000ec       ?AddVehicleHook_HookJmpCode@@3PAEA 77f630ec     hooks.obj
 0003:000000f4       ?SetFarClip_HookJmpCode@@3PAEA 77f630f4     hooks.obj
 0003:00000100       ?CGameShutdown_HookJmpCode@@3PAEA 77f63100     hooks.obj
 0003:00000108       ?PedDamage_HookJmpCode@@3PAEA 77f63108     hooks.obj
 0003:00000110       ?VehicleAudio_HookJmpCode@@3PAEA 77f63110     hooks.obj
 0003:0000011c       ?GenTaskAlloc_HookJmpCode@@3PAEA 77f6311c     hooks.obj
 0003:00000124       ?GetText_HookJmpCode@@3PAEA 77f63124     hooks.obj
 0003:00000130       ?PedSay_HookJmpCode@@3PAEA 77f63130     hooks.obj
 0003:00000138       ?bytePatchPedRot@@3PAEA    77f63138     hooks.obj
 0003:00000140       ?bytePatchRadioForPlayer@@3PAEA 77f63140     hooks.obj
 0003:00000158       ?pGcsInternalKeys@@3PAU_GTA_CONTROLSET@@A 77f63158     keystuff.obj
 0003:0000015c       ?pbyteDriveByLeft@@3PAEA   77f6315c     keystuff.obj
 0003:00000160       ?pbyteDriveByRight@@3PAEA  77f63160     keystuff.obj
 0003:00000188       ?pbyteVehiclePoolAllocPatch@@3PAEA 77f63188     patches.obj
 0003:00000190       ?pbyteCollisionPoolAllocPatch@@3PAEA 77f63190     patches.obj
 0003:00000198       ?pbyteEntryInfoPoolAllocPatch@@3PAEA 77f63198     patches.obj
 0003:000001a0       ?pbyteTrainDelrailmentPatch@@3PAEA 77f631a0     patches.obj
 0003:000001a8       ?dwPatchAddrScanReloc1USA@@3PAKA 77f631a8     patches.obj
 0003:000001e0       ?dwPatchAddrScanReloc1EU@@3PAKA 77f631e0     patches.obj
 0003:00000218       ?dwPatchAddrScanReloc2USA@@3PAKA 77f63218     patches.obj
 0003:000002f8       ?dwPatchAddrScanReloc2EU@@3PAKA 77f632f8     patches.obj
 0003:000003d8       ?dwPatchAddrScanReloc3@@3PAKA 77f633d8     patches.obj
 0003:00000404       ?dwPatchAddrScanRelocEnd@@3PAKA 77f63404     patches.obj
 0003:00000428       ?szSpecialActors@@3PAY0CA@DA 77f63428     playerped.obj
 0003:000008a8       ?DanceStyleLibs@@3PAY0BA@DA 77f638a8     playerped.obj
 0003:000008e8       ?DanceIdleLoops@@3PAY0BA@DA 77f638e8     playerped.obj
 0003:00000928       ?szDanceAnimNamesFemale@@3PAY0BA@DA 77f63928     playerped.obj
 0003:00000a28       ?szDanceAnimNamesMale@@3PAY0BA@DA 77f63a28     playerped.obj
 0003:00000b28       ?szStripAnims@@3PAY0BA@DA  77f63b28     playerped.obj
 0003:00000c38       ?ProcessOneCommand@@3P6GHXZA 77f63c38     scripting.obj
 0003:00000c70       ?dwHudColors@@3PAKA        77f63c70     util.obj
 0003:00000fd0       ?bFirstSpawn@@3HA          77f63fd0     localplayer.obj
 0003:00000fd4       ?dwEnterVehTimeElasped@@3KA 77f63fd4     localplayer.obj
 0003:00000fe8       ?g_szMenuItems@@3PAY11CA@DA 77f63fe8     menupool.obj
 0003:00001338       ?szQuitReasons@@3PAY0CA@DA 77f64338     playerpool.obj
 0003:000013b8       ?Base64Encoding@@3PADA     77f643b8     runutil.obj
 0003:0000141c       ?iCurrentPlayerTest@@3HA   77f6441c     cmdprocs.obj
 0003:000014b0       ?HealthBarBDRVertices1@@3PAUHealthBarVertices1_s@@A 77f644b0     newplayertags.obj
 0003:00001500       ?HealthBarBGVertices1@@3PAUHealthBarVertices1_s@@A 77f64500     newplayertags.obj
 0003:00001550       ?HealthBarVertices1@@3PAUHealthBarVertices1_s@@A 77f64550     newplayertags.obj
 0003:000015b0       ?HealthBarBDRVertices@@3PAUHealthBarVertices_s@@A 77f645b0     playertags.obj
 0003:000015f0       ?HealthBarBGVertices@@3PAUHealthBarVertices_s@@A 77f645f0     playertags.obj
 0003:00001630       ?HealthBarVertices@@3PAUHealthBarVertices_s@@A 77f64630     playertags.obj
 0003:00001670       ?m_Metrics@@3PAEA          77f64670     playertags.obj
 0003:00001770       ?ScoreBoardVertices@@3PAUScoreBoardVertices_s@@A 77f64770     scoreboard.obj
 0003:000019e8       ?dwWorkingSkins@@3PAKA     77f649e8     subclass.obj
 0003:00001dbc       ?pHitEntity@@3PAKA         77f64dbc     IDirect3DDevice9Hook.obj
 0003:00001dd0       ?g_bThreadSafe@@3_NA       77f64dd0     DXUT.obj
 0003:00001dd4       ?FVF@DXUT_SCREEN_VERTEX@@2KA 77f64dd4     DXUTgui.obj
 0003:00001dd8       ?_ScriptApplyDigitSubstitution@CUniBuffer@@0P6GJPBUtag_SCRIPT_DIGITSUBSTITUTE@@PAUtag_SCRIPT_CONTROL@@PAUtag_SCRIPT_STATE@@@ZA 77f64dd8     DXUTgui.obj
 0003:00001ddc       ?_ScriptStringAnalyse@CUniBuffer@@0P6GJPAUHDC__@@PBXHHHKHPAUtag_SCRIPT_CONTROL@@PAUtag_SCRIPT_STATE@@PBHPAUtag_SCRIPT_TABDEF@@PBEPAPAX@ZA 77f64ddc     DXUTgui.obj
 0003:00001de0       ?_ScriptStringCPtoX@CUniBuffer@@0P6GJPAXHHPAH@ZA 77f64de0     DXUTgui.obj
 0003:00001de4       ?_ScriptStringXtoCP@CUniBuffer@@0P6GJPAXHPAH1@ZA 77f64de4     DXUTgui.obj
 0003:00001de8       ?_ScriptStringFree@CUniBuffer@@0P6GJPAPAX@ZA 77f64de8     DXUTgui.obj
 0003:00001dec       ?_ScriptString_pLogAttr@CUniBuffer@@0P6GPBUtag_SCRIPT_LOGATTR@@PAX@ZA 77f64dec     DXUTgui.obj
 0003:00001df0       ?_ScriptString_pcOutChars@CUniBuffer@@0P6GPBHPAX@ZA 77f64df0     DXUTgui.obj
 0003:00001df4       ?_ImmLockIMC@CDXUTIMEEditBox@@1P6GPAU__MIDL___MIDL_itf_dimm_0000_0012@@PAUHIMC__@@@ZA 77f64df4     DXUTgui.obj
 0003:00001df8       ?_ImmUnlockIMC@CDXUTIMEEditBox@@1P6GHPAUHIMC__@@@ZA 77f64df8     DXUTgui.obj
 0003:00001dfc       ?_ImmLockIMCC@CDXUTIMEEditBox@@1P6GPAXPAUHIMCC__@@@ZA 77f64dfc     DXUTgui.obj
 0003:00001e00       ?_ImmUnlockIMCC@CDXUTIMEEditBox@@1P6GHPAUHIMCC__@@@ZA 77f64e00     DXUTgui.obj
 0003:00001e04       ?_ImmDisableTextFrameService@CDXUTIMEEditBox@@1P6GHK@ZA 77f64e04     DXUTgui.obj
 0003:00001e08       ?_ImmGetCompositionStringW@CDXUTIMEEditBox@@1P6GJPAUHIMC__@@KPAXK@ZA 77f64e08     DXUTgui.obj
 0003:00001e0c       ?_ImmGetCandidateListW@CDXUTIMEEditBox@@1P6GKPAUHIMC__@@KPAUtagCANDIDATELIST@@K@ZA 77f64e0c     DXUTgui.obj
 0003:00001e10       ?_ImmGetContext@CDXUTIMEEditBox@@1P6GPAUHIMC__@@PAUHWND__@@@ZA 77f64e10     DXUTgui.obj
 0003:00001e14       ?_ImmReleaseContext@CDXUTIMEEditBox@@1P6GHPAUHWND__@@PAUHIMC__@@@ZA 77f64e14     DXUTgui.obj
 0003:00001e18       ?_ImmAssociateContext@CDXUTIMEEditBox@@1P6GPAUHIMC__@@PAUHWND__@@PAU2@@ZA 77f64e18     DXUTgui.obj
 0003:00001e1c       ?_ImmGetOpenStatus@CDXUTIMEEditBox@@1P6GHPAUHIMC__@@@ZA 77f64e1c     DXUTgui.obj
 0003:00001e20       ?_ImmSetOpenStatus@CDXUTIMEEditBox@@1P6GHPAUHIMC__@@H@ZA 77f64e20     DXUTgui.obj
 0003:00001e24       ?_ImmGetConversionStatus@CDXUTIMEEditBox@@1P6GHPAUHIMC__@@PAK1@ZA 77f64e24     DXUTgui.obj
 0003:00001e28       ?_ImmGetDefaultIMEWnd@CDXUTIMEEditBox@@1P6GPAUHWND__@@PAU2@@ZA 77f64e28     DXUTgui.obj
 0003:00001e2c       ?_ImmGetIMEFileNameA@CDXUTIMEEditBox@@1P6GIPAUHKL__@@PADI@ZA 77f64e2c     DXUTgui.obj
 0003:00001e30       ?_ImmGetVirtualKey@CDXUTIMEEditBox@@1P6GIPAUHWND__@@@ZA 77f64e30     DXUTgui.obj
 0003:00001e34       ?_ImmNotifyIME@CDXUTIMEEditBox@@1P6GHPAUHIMC__@@KKK@ZA 77f64e34     DXUTgui.obj
 0003:00001e38       ?_ImmSetConversionStatus@CDXUTIMEEditBox@@1P6GHPAUHIMC__@@KK@ZA 77f64e38     DXUTgui.obj
 0003:00001e3c       ?_ImmSimulateHotKey@CDXUTIMEEditBox@@1P6GHPAUHWND__@@K@ZA 77f64e3c     DXUTgui.obj
 0003:00001e40       ?_ImmIsIME@CDXUTIMEEditBox@@1P6GHPAUHKL__@@@ZA 77f64e40     DXUTgui.obj
 0003:00001e44       ?_GetReadingString@CDXUTIMEEditBox@@1P6GIPAUHIMC__@@IPADPAH2PAI@ZA 77f64e44     DXUTgui.obj
 0003:00001e48       ?_ShowReadingWindow@CDXUTIMEEditBox@@1P6GHPAUHIMC__@@H@ZA 77f64e48     DXUTgui.obj
 0003:00001e4c       ?_VerQueryValueA@CDXUTIMEEditBox@@1P6GHQAXPADPAPAXPAI@ZA 77f64e4c     DXUTgui.obj
 0003:00001e50       ?_GetFileVersionInfoA@CDXUTIMEEditBox@@1P6GHPADKKPAX@ZA 77f64e50     DXUTgui.obj
 0003:00001e54       ?_GetFileVersionInfoSizeA@CDXUTIMEEditBox@@1P6GKPADPAK@ZA 77f64e54     DXUTgui.obj
 0003:00001e58       ?s_aszIndicator@CDXUTIMEEditBox@@1PAY02DA 77f64e58     DXUTgui.obj
 0003:00001e68       ?s_wszCurrIndicator@CDXUTIMEEditBox@@1PADA 77f64e68     DXUTgui.obj
 0003:00001e70       ?D3DRM_XTEMPLATES@@3PAEA   77f64e70     DXUTMesh.obj
 0003:00002d68       ?Logtable@@3PAEA           77f65d68     rijndael.obj
 0003:00002e68       ?Alogtable@@3PAEA          77f65e68     rijndael.obj
 0003:00002f68       ?S@@3PAEA                  77f65f68     rijndael.obj
 0003:00003068       ?Si@@3PAEA                 77f66068     rijndael.obj
 0003:00003168       ?T1@@3PAY03EA              77f66168     rijndael.obj
 0003:00003568       ?T2@@3PAY03EA              77f66568     rijndael.obj
 0003:00003968       ?T3@@3PAY03EA              77f66968     rijndael.obj
 0003:00003d68       ?T4@@3PAY03EA              77f66d68     rijndael.obj
 0003:00004168       ?T5@@3PAY03EA              77f67168     rijndael.obj
 0003:00004568       ?T6@@3PAY03EA              77f67568     rijndael.obj
 0003:00004968       ?T7@@3PAY03EA              77f67968     rijndael.obj
 0003:00004d68       ?T8@@3PAY03EA              77f67d68     rijndael.obj
 0003:00005168       ?S5@@3PAEA                 77f68168     rijndael.obj
 0003:00005268       ?U1@@3PAY03EA              77f68268     rijndael.obj
 0003:00005668       ?U2@@3PAY03EA              77f68668     rijndael.obj
 0003:00005a68       ?U3@@3PAY03EA              77f68a68     rijndael.obj
 0003:00005e68       ?U4@@3PAY03EA              77f68e68     rijndael.obj
 0003:00006268       ?rcon@@3PAIA               77f69268     rijndael.obj
 0003:00006328       ?englishCharacterFrequencies@@3PAIA 77f69328     StringCompressor.obj
 0003:00006778       ?initObsDelta@TEABlockEncryptor@@1IA 77f69778     TEABlockEncryptor.obj
 0003:000067c8       ?ms_dwHashInit@CArchiveFS@@0KA 77f697c8     ArchiveFS.obj
 0003:000067cc       ?ms_dwProviderType@CCryptoContext@@0KA 77f697cc     CryptoContext.obj
 0003:000067d0       ?ms_szContainerName@CCryptoContext@@0PADA 77f697d0     CryptoContext.obj
 0003:000067d4       ??_R0H@8                   77f697d4     CryptoContext.obj
 0003:000067e0       ?ms_dwHashAlgorithm@CHasher@@0KA 77f697e0     Hasher.obj
 0003:000067e4       ?ms_dwRSAKeySize@CKeyPair@@0KA 77f697e4     KeyPair.obj
 0003:000067e8       ?ms_dwRounds@CTinyEncrypt@@0KA 77f697e8     TinyEncrypt.obj
 0003:000067ec       ?ms_dwInitDelta@CTinyEncrypt@@0KA 77f697ec     TinyEncrypt.obj
 0003:000067f0       ?dwFogColor@@3KA           77f697f0     main.obj
 0003:00006804       __fltused                  77f69804     LIBCMT:fpinit.obj
 0003:00006808       __ldused                   77f69808     LIBCMT:fpinit.obj
 0003:0000680c       __FPinit                   77f6980c     LIBCMT:fpinit.obj
 0003:00006810       __FPmtinit                 77f69810     LIBCMT:fpinit.obj
 0003:00006814       __FPmtterm                 77f69814     LIBCMT:fpinit.obj
 0003:00006818       __NLG_Destination          77f69818     LIBCMT:exsup.obj
 0003:00006830       ?__pMyUnhandledExceptionFilter@@3PAXA 77f69830     LIBCMT:throw.obj
 0003:00006840       __half                     77f69840     LIBCMT:pow.obj
 0003:000069b8       ??_R0?AVtype_info@@@8      77f699b8     LIBCMT:typinfo.obj
 0003:000069d0       __aexit_rtn                77f699d0     LIBCMT:dllcrt0.obj
 0003:000069d4       __cfltcvt_tab              77f699d4     LIBCMT:cmiscdat.obj
 0003:000069f0       ___security_cookie         77f699f0     LIBCMT:seccook.obj
 0003:000069f4       ___tlsindex                77f699f4     LIBCMT:tidtable.obj
 0003:000069f8       ?__pInconsistency@@3P6AXXZA 77f699f8     LIBCMT:hooks.obj
 0003:00006a00       ___nullstring              77f69a00     LIBCMT:output.obj
 0003:00006a04       ___wnullstring             77f69a04     LIBCMT:output.obj
 0003:00006b28       __amblksiz                 77f69b28     LIBCMT:heapinit.obj
 0003:00006b38       ___initiallocinfo          77f69b38     LIBCMT:setlocal.obj
 0003:00006b8c       ___ptlocinfo               77f69b8c     LIBCMT:setlocal.obj
 0003:00006cd0       __iob                      77f69cd0     LIBCMT:_file.obj
 0003:00006f50       __HUGE                     77f69f50     LIBCMT:huge.obj
 0003:00006f60       __infinity                 77f69f60     LIBCMT:87tran.obj
 0003:00006f6a       __minfinity                77f69f6a     LIBCMT:87tran.obj
 0003:00006f74       __logemax                  77f69f74     LIBCMT:87tran.obj
 0003:00006f9a       __OP_EXPjmptab             77f69f9a     LIBCMT:87tran.obj
 0003:00006fc0       __indefinite               77f69fc0     LIBCMT:87disp.obj
 0003:00006fca       __piby2                    77f69fca     LIBCMT:87disp.obj
 0003:00006ff0       ___badioinfo               77f69ff0     LIBCMT:ioinit.obj
 0003:00007020       __XcptActTab               77f6a020     LIBCMT:winxfltr.obj
 0003:00007098       __First_FPE_Indx           77f6a098     LIBCMT:winxfltr.obj
 0003:0000709c       __Num_FPE                  77f6a09c     LIBCMT:winxfltr.obj
 0003:000070a0       __XcptActTabSize           77f6a0a0     LIBCMT:winxfltr.obj
 0003:000070a4       __XcptActTabCount          77f6a0a4     LIBCMT:winxfltr.obj
 0003:000070a8       __sys_errlist              77f6a0a8     LIBCMT:syserr.obj
 0003:00007158       __sys_nerr                 77f6a158     LIBCMT:syserr.obj
 0003:000071f8       ___mb_cur_max              77f6a1f8     LIBCMT:nlsdata1.obj
 0003:000071fc       ___decimal_point           77f6a1fc     LIBCMT:nlsdata1.obj
 0003:00007200       ___decimal_point_length    77f6a200     LIBCMT:nlsdata1.obj
 0003:00007338       __pctype                   77f6a338     LIBCMT:ctype.obj
 0003:0000733c       __pwctype                  77f6a33c     LIBCMT:ctype.obj
 0003:00007340       ___lc_time_curr            77f6a340     LIBCMT:strftime.obj
 0003:00007348       ___lc_time_c               77f6a348     LIBCMT:strftime.obj
 0003:00007400       ___lconv_static_decimal    77f6a400     LIBCMT:lconv.obj
 0003:00007404       ___lconv_c                 77f6a404     LIBCMT:lconv.obj
 0003:00007434       ___lconv                   77f6a434     LIBCMT:lconv.obj
 0003:00007440       ___lc_clike                77f6a440     LIBCMT:nlsdata2.obj
 0003:00007450       __pmatherr                 77f6a450     LIBCMT:libm_error.obj
 0003:000075c0       __d_inf                    77f6a5c0     LIBCMT:util.obj
 0003:000075c8       __d_ind                    77f6a5c8     LIBCMT:util.obj
 0003:000075d0       __d_max                    77f6a5d0     LIBCMT:util.obj
 0003:000075d8       __d_min                    77f6a5d8     LIBCMT:util.obj
 0003:000075e0       __d_mzero                  77f6a5e0     LIBCMT:util.obj
 0003:000075e8       __timezone                 77f6a5e8     LIBCMT:timeset.obj
 0003:000075ec       __daylight                 77f6a5ec     LIBCMT:timeset.obj
 0003:000075f0       __dstbias                  77f6a5f0     LIBCMT:timeset.obj
 0003:00007678       __tzname                   77f6a678     LIBCMT:timeset.obj
 0003:00007698       __lpdays                   77f6a698     LIBCMT:days.obj
 0003:000076cc       __days                     77f6a6cc     LIBCMT:days.obj
 0003:00007700       __matherr_flag             77f6a700     LIBCMT:matherr.obj
 0003:00007808       __pow10pos                 77f6a808     LIBCMT:constpow.obj
 0003:00007968       __pow10neg                 77f6a968     LIBCMT:constpow.obj
 0003:00007ac4       ??_R0?AVexception@@@8      77f6aac4     libcpmt:string.obj
 0003:00007adc       ??_R0?AVlogic_error@std@@@8 77f6aadc     libcpmt:string.obj
 0003:00007afc       ??_R0?AVlength_error@std@@@8 77f6aafc     libcpmt:string.obj
 0003:00007b1c       ??_R0?AVout_of_range@std@@@8 77f6ab1c     libcpmt:string.obj
 0003:00007b40       ?fLocalCameraExtZoom@@3MA  77f6ab40     aimstuff.obj
 0003:00007b48       ?byteCameraMode@@3PAEA     77f6ab48     aimstuff.obj
 0003:00007c18       ?fCameraExtZoom@@3PAMA     77f6ac18     aimstuff.obj
 0003:00007f40       ?caLocalPlayerAim@@3U_CAMERA_AIM@@A 77f6af40     aimstuff.obj
 0003:00007f70       ?caRemotePlayerAim@@3PAU_CAMERA_AIM@@A 77f6af70     aimstuff.obj
 0003:0000a550       ?dwCamTargetEnt1@@3KA      77f6d550     cheats.obj
 0003:0000a558       ?matStore@@3U_MATRIX4X4@@A 77f6d558     cheats.obj
 0003:0000a598       ?iMoneyStored@@3HA         77f6d598     cheats.obj
 0003:0000a5a0       ?byteWeaponData@@3PAEA     77f6d5a0     cheats.obj
 0003:0000a70c       ?dwCamTargetEnt2@@3KA      77f6d70c     cheats.obj
 0003:0000a710       ?dwArmour@@3KA             77f6d710     cheats.obj
 0003:0000a714       ?dwHealth@@3KA             77f6d714     cheats.obj
 0003:0000a718       ?iTimesDataModified@@3HA   77f6d718     cheats.obj
 0003:0000a71c       ?iDupeD3D9DllsWasVerified@@3HA 77f6d71c     cheats.obj
 0003:0000a720       ?dwD3D9DllBaseAddr@@3KA    77f6d720     cheats.obj
 0003:0000a724       ?dwD3D9DllSize@@3KA        77f6d724     cheats.obj
 0003:0000a728       ?sz2@@3PADA                77f6d728     debug.obj
 0003:0000a828       ?pControls@@3PAU_GTA_CONTROLSET@@A 77f6d828     debug.obj
 0003:0000a82c       ?pCam@@3PAVCCamera@@A      77f6d82c     debug.obj
 0003:0000a830       ?screen_buf@@3PAPADA       77f6d830     debug.obj
 0003:0000a8bc       ?iGameDebugType@@3HA       77f6d8bc     debug.obj
 0003:0000a8c0       ?dwDebugEntity1@@3KA       77f6d8c0     debug.obj
 0003:0000a8c4       ?dwDebugEntity2@@3KA       77f6d8c4     debug.obj
 0003:0000a8c8       ?debug_draw_top@@3HA       77f6d8c8     debug.obj
 0003:0000a8cc       ?bSelVehicleInit@@3HA      77f6d8cc     debug.obj
 0003:0000a8d0       ?pVehicle@@3PAVCVehicle@@A 77f6d8d0     debug.obj
 0003:0000a8d4       ?szGameTextMessage@@3PADA  77f6d8d4     game.obj
 0003:0000a8d8       ?bInputsDisabled@@3HA      77f6d8d8     game.obj
 0003:0000a8dc       ?iInputDisableWaitFrames@@3HA 77f6d8dc     game.obj
 0003:0000a8e0       ?dwSayParam5@@3KA          77f6d8e0     hooks.obj
 0003:0000a8e4       ?TaskPtr@@3KA              77f6d8e4     hooks.obj
 0003:0000a8e8       ?_pPlayer@@3PAU_PED_TYPE@@A 77f6d8e8     hooks.obj
 0003:0000a8ec       ?VehicleID@@3GA            77f6d8ec     hooks.obj
 0003:0000a8f0       ?dwParam2@@3KA             77f6d8f0     hooks.obj
 0003:0000a8f4       ?dwShutDownTick@@3KA       77f6d8f4     hooks.obj
 0003:0000a8f8       ?opt1@@3HA                 77f6d8f8     hooks.obj
 0003:0000a8fc       ?wSavedCameraMode2@@3GA    77f6d8fc     hooks.obj
 0003:0000a900       ?szGotText@@3PADA          77f6d900     hooks.obj
 0003:0000a904       ?opt3@@3HA                 77f6d904     hooks.obj
 0003:0000a908       ?pVehiclePool@@3PAVCVehiclePool@@A 77f6d908     hooks.obj
 0003:0000a90c       ?dwParam1@@3KA             77f6d90c     hooks.obj
 0003:0000a910       ?call_addr@@3KA            77f6d910     hooks.obj
 0003:0000a914       ?pVehicleClass@@3PAVCVehicle@@A 77f6d914     hooks.obj
 0003:0000a918       ?fHealth@@3MA              77f6d918     hooks.obj
 0003:0000a91c       ?opt2@@3HA                 77f6d91c     hooks.obj
 0003:0000a920       ?dwSayParam1@@3KA          77f6d920     hooks.obj
 0003:0000a924       ?_pVehicle@@3PAU_VEHICLE_TYPE@@A 77f6d924     hooks.obj
 0003:0000a928       ?dwSayParam6@@3KA          77f6d928     hooks.obj
 0003:0000a92c       ?fBakUnk@@3MA              77f6d92c     hooks.obj
 0003:0000a930       ?pGcsKeys@@3PAU_GTA_CONTROLSET@@A 77f6d930     hooks.obj
 0003:0000a938       ?s@@3PADA                  77f6d938     hooks.obj
 0003:0000aa38       ?vt@@3PADA                 77f6da38     hooks.obj
 0003:0000aa3c       ?opt4@@3HA                 77f6da3c     hooks.obj
 0003:0000aa40       ?vtbl@@3KA                 77f6da40     hooks.obj
 0003:0000aa44       ?byteSavedCameraMode@@3EA  77f6da44     hooks.obj
 0003:0000aa48       ?fSayParam3@@3MA           77f6da48     hooks.obj
 0003:0000aa4c       ?pLocalPlayer@@3PAVCLocalPlayer@@A 77f6da4c     hooks.obj
 0003:0000aa50       ?dwParamThis@@3KA          77f6da50     hooks.obj
 0003:0000aa54       ?dwSayParam4@@3KA          77f6da54     hooks.obj
 0003:0000aa58       ?dwSayParam2@@3KA          77f6da58     hooks.obj
 0003:0000aa5c       ?dwFarClipHookAddr@@3KA    77f6da5c     hooks.obj
 0003:0000aa60       ?dwFarClipReturnAddr@@3KA  77f6da60     hooks.obj
 0003:0000aa64       ?bUsePassenger@@3HA        77f6da64     hooks.obj
 0003:0000aa68       ?bIgnoreNextEntry@@3HA     77f6da68     hooks.obj
 0003:0000aa6c       ?bIgnoreNextExit@@3HA      77f6da6c     hooks.obj
 0003:0000aa70       ?byteInternalPlayer@@3EA   77f6da70     hooks.obj
 0003:0000aa74       ?dwCurPlayerActor@@3KA     77f6da74     hooks.obj
 0003:0000aa78       ?byteCurPlayer@@3EA        77f6da78     hooks.obj
 0003:0000aa7c       ?dwRGBARadar@@3KA          77f6da7c     hooks.obj
 0003:0000aa80       ?dwStackFrame@@3KA         77f6da80     hooks.obj
 0003:0000aa84       ?dwSavedEcx@@3KA           77f6da84     hooks.obj
 0003:0000aa88       ?dwRetAddr@@3KA            77f6da88     hooks.obj
 0003:0000aa8c       ?iRadarColor1@@3HA         77f6da8c     hooks.obj
 0003:0000aa90       ?dwSavedCheatFn@@3KA       77f6da90     hooks.obj
 0003:0000aa94       ?bAllowVehicleCreation@@3HA 77f6da94     hooks.obj
 0003:0000aa98       ?bVehicleProcessControlLocal@@3HA 77f6da98     hooks.obj
 0003:0000aa9c       ?dwPedDamagePed@@3KA       77f6da9c     hooks.obj
 0003:0000aaa0       ?dwPedDamage1@@3KA         77f6daa0     hooks.obj
 0003:0000aaa4       ?dwIgnoreDamage@@3KA       77f6daa4     hooks.obj
 0003:0000aaa8       ?GcsLocalPlayerKeys@@3U_GTA_CONTROLSET@@A 77f6daa8     keystuff.obj
 0003:0000abe0       ?GcsRemotePlayerKeys@@3PAU_GTA_CONTROLSET@@A 77f6dbe0     keystuff.obj
 0003:00019ee8       ?byteSaveDriveByLeft@@3EA  77f7cee8     keystuff.obj
 0003:00019ee9       ?byteSaveDriveByRight@@3EA 77f7cee9     keystuff.obj
 0003:00019ef0       ?ScanListMemory@@3PAEA     77f7cef0     patches.obj
 0003:00040ff0       ?PedModelsMemory@@3PAU_PED_MODEL@@A 77fa3ff0     patches.obj
 0003:00045fa0       ?dwExt4@@3KA               77fa8fa0     playerped.obj
 0003:00045fa8       ?pdwParamVars@@3PAPAKA     77fa8fa8     scripting.obj
 0003:00045ff0       ?ScriptBuf@@3PAEA          77fa8ff0     scripting.obj
 0003:000460f0       ?gst@@3PAUGAME_SCRIPT_THREAD@@A 77fa90f0     scripting.obj
 0003:000460f4       ?dwScmOpcodeDebug@@3KA     77fa90f4     scripting.obj
 0003:000460f8       ?bScmLocalDebug@@3HA       77fa90f8     scripting.obj
 0003:000460fc       ?bExceptionDisplayed@@3HA  77fa90fc     scripting.obj
 0003:00046100       ?dwUseHudColors@@3PAKA     77fa9100     util.obj
 0003:00046420       ?dwPlayerPedPtrs@@3PAKA    77fa9420     util.obj
 0003:00046748       ?dwLastCreatedVehicleID@@3KA 77fa9748     vehicle.obj
 0003:0004674c       ?dwNumVehicles@@3KA        77fa974c     vehicle.obj
 0003:00046750       ?dwStack@@3KA              77fa9750     events.obj
 0003:00046754       ?dwParams@@3PAKA           77fa9754     events.obj
 0003:0004676c       ?iNumPlayersInRange@@3HA   77fa976c     localplayer.obj
 0003:00046770       ?iCyclesUntilNextCount@@3HA 77fa9770     localplayer.obj
 0003:00046778       ?DebugSync@@3U_INCAR_SYNC_DATA@@A 77fa9778     netgame.obj
 0003:000467c4       ?bDebugUpdate@@3HA         77fa97c4     netgame.obj
 0003:000467c8       ?iExceptMessageDisplayed@@3HA 77fa97c8     netgame.obj
 0003:000467cc       ?iVehiclesBench@@3HA       77fa97cc     netgame.obj
 0003:000467d0       ?iPlayersBench@@3HA        77fa97d0     netgame.obj
 0003:000467d4       ?iPicksupsBench@@3HA       77fa97d4     netgame.obj
 0003:000467d8       ?iMenuBench@@3HA           77fa97d8     netgame.obj
 0003:000467dc       ?iObjectBench@@3HA         77fa97dc     netgame.obj
 0003:000467e0       ?iTextDrawBench@@3HA       77fa97e0     netgame.obj
 0003:000467e4       ?iVehiclePoolProcessFlag@@3HA 77fa97e4     netgame.obj
 0003:000467e8       ?iPickupPoolProcessFlag@@3HA 77fa97e8     netgame.obj
 0003:000467f4       ?iExceptPlayerMessageDisplayed@@3HA 77fa97f4     playerpool.obj
 0003:000467f8       ?pTestPlayer@@3PAVCRemotePlayer@@A 77fa97f8     cmdprocs.obj
 0003:000467fc       ?pTrain@@3PAU_VEHICLE_TYPE@@A 77fa97fc     cmdprocs.obj
 0003:00046800       ?bDontProcessVehiclePool@@3HA 77fa9800     cmdprocs.obj
 0003:00046808       ?pContextRecord@@3PAU_CONTEXT@@A 77fa9808     exceptions.obj
 0003:00046810       ?szErrorString@@3PADA      77fa9810     exceptions.obj
 0003:0004a810       ?szDrawLine@@3PADA         77fad810     netstats.obj
 0003:0004ac10       ?szStatBuf@@3PADA          77fadc10     netstats.obj
 0003:0004ec10       ?szDispBuf@@3PADA          77fb1c10     netstats.obj
 0003:00052c10       ?hOldProc@@3P6GJPAUHWND__@@IIJ@ZA 77fb5c10     subclass.obj
 0003:00052c14       ?g_bTakeScreenshot@@3HA    77fb5c14     subclass.obj
 0003:00052c18       ?RakServerStats@@3URakNetStatisticsStruct@@A 77fb5c18     svrnetstats.obj
 0003:00052ce0       ?szSvrStatBuf@@3PADA       77fb5ce0     svrnetstats.obj
 0003:00056ce0       ?szSvrDispBuf@@3PADA       77fb9ce0     svrnetstats.obj
 0003:0005ace0       ?szSvrDrawLine@@3PADA      77fbdce0     svrnetstats.obj
 0003:0005b0e0       ?matPlayer@@3U_MATRIX4X4@@A 77fbe0e0     IDirect3DDevice9Hook.obj
 0003:0005b120       ?matTest@@3U_MATRIX4X4@@A  77fbe120     IDirect3DDevice9Hook.obj
 0003:0005b160       ?szBuffer@@3PADA           77fbe160     IDirect3DDevice9Hook.obj
 0003:0005b1e0       ?dwSavedEBP@@3KA           77fbe1e0     IDirect3DDevice9Hook.obj
 0003:0005b1e8       ?matLocal@@3U_MATRIX4X4@@A 77fbe1e8     IDirect3DDevice9Hook.obj
 0003:0005b228       ?vecCam@@3U_VECTOR@@A      77fbe228     IDirect3DDevice9Hook.obj
 0003:0005b234       ?vecColPoint@@3U_VECTOR@@A 77fbe234     IDirect3DDevice9Hook.obj
 0003:0005b240       ?vecRemotePlayer@@3U_VECTOR@@A 77fbe240     IDirect3DDevice9Hook.obj
 0003:0005b24c       ?dwHitEntity@@3KA          77fbe24c     IDirect3DDevice9Hook.obj
 0003:0005b250       ?dwTestPtr@@3KA            77fbe250     IDirect3DDevice9Hook.obj
 0003:0005b254       ?dwD3DDev@@3KA             77fbe254     IDirect3DDevice9Hook.obj
 0003:0005b258       ?matProj@@3UD3DXMATRIX@@A  77fbe258     IDirect3DDevice9Hook.obj
 0003:0005b298       ?matView@@3UD3DXMATRIX@@A  77fbe298     IDirect3DDevice9Hook.obj
 0003:0005b2d8       ?PlayerPos@@3UD3DXVECTOR3@@A 77fbe2d8     IDirect3DDevice9Hook.obj
 0003:0005b2e4       ?g_cs@@3U_RTL_CRITICAL_SECTION@@A 77fbe2e4     DXUT.obj
 0003:0005b2fc       _g_pfnGetSystemMetrics     77fbe2fc     DXUT.obj
 0003:0005b300       _g_pfnMonitorFromWindow    77fbe300     DXUT.obj
 0003:0005b304       _g_pfnMonitorFromRect      77fbe304     DXUT.obj
 0003:0005b308       _g_pfnMonitorFromPoint     77fbe308     DXUT.obj
 0003:0005b30c       _g_pfnGetMonitorInfo       77fbe30c     DXUT.obj
 0003:0005b310       _g_pfnEnumDisplayMonitors  77fbe310     DXUT.obj
 0003:0005b314       _g_pfnEnumDisplayDevices   77fbe314     DXUT.obj
 0003:0005b318       _g_fMultiMonInitDone       77fbe318     DXUT.obj
 0003:0005b31c       _g_fMultimonPlatformNT     77fbe31c     DXUT.obj
 0003:0005bae8       ?s_nCompCaret@CDXUTIMEEditBox@@1HA 77fbeae8     DXUTgui.obj
 0003:0005baec       ?s_bHideCaret@CDXUTEditBox@@1_NA 77fbeaec     DXUTgui.obj
 0003:0005baed       ?s_bInsertOnType@CDXUTIMEEditBox@@1_NA 77fbeaed     DXUTgui.obj
 0003:0005baee       ?s_bShowReadingWindow@CDXUTIMEEditBox@@1_NA 77fbeaee     DXUTgui.obj
 0003:0005baf0       ?s_ptCompString@CDXUTIMEEditBox@@1UtagPOINT@@A 77fbeaf0     DXUTgui.obj
 0003:0005baf8       ?s_wszReadingString@CDXUTIMEEditBox@@1PADA 77fbeaf8     DXUTgui.obj
 0003:0005bb18       ?s_hDllVer@CDXUTIMEEditBox@@1PAUHINSTANCE__@@A 77fbeb18     DXUTgui.obj
 0003:0005bb1c       ?s_hImcDef@CDXUTIMEEditBox@@1PAUHIMC__@@A 77fbeb1c     DXUTgui.obj
 0003:0005bb20       ?s_nFirstTargetConv@CDXUTIMEEditBox@@1HA 77fbeb20     DXUTgui.obj
 0003:0005bb24       ?s_bEnableImeSystem@CDXUTIMEEditBox@@1_NA 77fbeb24     DXUTgui.obj
 0003:0005bb25       ?s_bVerticalCand@CDXUTIMEEditBox@@1_NA 77fbeb25     DXUTgui.obj
 0003:0005bb28       ?s_hDllIme@CDXUTIMEEditBox@@1PAUHINSTANCE__@@A 77fbeb28     DXUTgui.obj
 0003:0005bb30       ?s_abCompStringAttr@CDXUTIMEEditBox@@1PAEA 77fbeb30     DXUTgui.obj
 0003:0005bc30       ?s_adwCompStringClause@CDXUTIMEEditBox@@1PAKA 77fbec30     DXUTgui.obj
 0003:0005c030       ?s_bChineseIME@CDXUTIMEEditBox@@1_NA 77fbf030     DXUTgui.obj
 0003:0005c031       ?s_bHorizontalReading@CDXUTIMEEditBox@@1_NA 77fbf031     DXUTgui.obj
 0003:0005c034       ?s_hklCurrent@CDXUTIMEEditBox@@1PAUHKL__@@A 77fbf034     DXUTgui.obj
 0003:0005c038       ?s_hDllImm32@CDXUTIMEEditBox@@1PAUHINSTANCE__@@A 77fbf038     DXUTgui.obj
 0003:0005c040       ?s_fTimeRefresh@CDXUTDialog@@0NA 77fbf040     DXUTgui.obj
 0003:0005c048       ?s_pControlFocus@CDXUTDialog@@0PAVCDXUTControl@@A 77fbf048     DXUTgui.obj
 0003:0005c04c       ?s_pControlPressed@CDXUTDialog@@0PAVCDXUTControl@@A 77fbf04c     DXUTgui.obj
 0003:0005c050       ?s_hDll@CUniBuffer@@0PAUHINSTANCE__@@A 77fbf050     DXUTgui.obj
 0003:0005c054       ?s_ImeState@CDXUTIMEEditBox@@1W4IMESTATE@1@A 77fbf054     DXUTgui.obj
 0003:0005c058       ?s_CompString@CDXUTIMEEditBox@@1VCUniBuffer@@A 77fbf058     DXUTgui.obj
 0003:0005c06c       ?s_Locale@CDXUTIMEEditBox@@1V?$CGrowableArray@UCInputLocale@CDXUTIMEEditBox@@@@A 77fbf06c     DXUTgui.obj
 0003:0005c078       ?s_CandList@CDXUTIMEEditBox@@1UCCandList@1@A 77fbf078     DXUTgui.obj
 0003:0005cab8       ?s_pd3dDevice@CDXUTDirectionWidget@@1PAUIDirect3DDevice9@@A 77fbfab8     DXUTmisc.obj
 0003:0005cabc       ?s_pEffect@CDXUTDirectionWidget@@1PAUID3DXEffect@@A 77fbfabc     DXUTmisc.obj
 0003:0005cac0       ?s_pMesh@CDXUTDirectionWidget@@1PAUID3DXMesh@@A 77fbfac0     DXUTmisc.obj
 0003:0005cc40       ?g_DeviceSettings@@3UDXUTDeviceSettings@@A 77fbfc40     DXUTSettingsDlg.obj
 0003:0005cca4       ?staticItemID@NetworkIDGenerator@@0GA 77fbfca4     NetworkIDGenerator.obj
 0003:0005cca8       ?externalPlayerId@NetworkIDGenerator@@0UPlayerID@@A 77fbfca8     NetworkIDGenerator.obj
 0003:0005ccb0       ?IDTree@NetworkIDGenerator@@2V?$AVLBalancedBinarySearchTree@UNetworkIDNode@@@DataStructures@@A 77fbfcb0     NetworkIDGenerator.obj
 0003:0005ccd0       ?peerToPeerMode@NetworkID@@2_NA 77fbfcd0     NetworkTypes.obj
 0003:0005d808       ?ROUNDS@@3HA               77fc0808     rijndael.obj
 0003:0005d810       ?winsockInfo@SocketLayer@@0UWSAData@@A 77fc0810     SocketLayer.obj
 0003:0005d99e       ?socketLayerStarted@SocketLayer@@0_NA 77fc099e     SocketLayer.obj
 0003:0005d9a0       ?_sendtoUncompressedTotal@@3KA 77fc09a0     SocketLayer.obj
 0003:0005d9a4       ?_sendtoCompressedTotal@@3KA 77fc09a4     SocketLayer.obj
 0003:0005d9a8       ?_recvfromUncompressedTotal@@3KA 77fc09a8     SocketLayer.obj
 0003:0005d9ac       ?_recvfromCompressedTotal@@3KA 77fc09ac     SocketLayer.obj
 0003:0005d9b0       ?I@SocketLayer@@0V1@A      77fc09b0     SocketLayer.obj
 0003:0005d9b4       ?instance@StringCompressor@@0PAV1@A 77fc09b4     StringCompressor.obj
 0003:0005d9b8       ?referenceCount@StringCompressor@@0HA 77fc09b8     StringCompressor.obj
 0003:0005d9bc       ?instance@StringTable@@1PAV1@A 77fc09bc     StringTable.obj
 0003:0005d9c0       ?referenceCount@StringTable@@1HA 77fc09c0     StringTable.obj
 0003:0005d9c4       ?ms_dwRefCount@CCryptoContext@@0KA 77fc09c4     CryptoContext.obj
 0003:0005d9c8       ?ms_szProviderName@CCryptoContext@@0PADA 77fc09c8     CryptoContext.obj
 0003:0005d9cc       ?ms_hAdvApi32@CCryptoContext@@0PAUHINSTANCE__@@A 77fc09cc     CryptoContext.obj
 0003:0005d9d0       ?xCryptOffsAcquireContext@@3KA 77fc09d0     CryptoFns.obj
 0003:0005d9d4       ?xCryptOffsReleaseContext@@3KA 77fc09d4     CryptoFns.obj
 0003:0005d9d8       ?xCryptOffsCreateHash@@3KA 77fc09d8     CryptoFns.obj
 0003:0005d9dc       ?xCryptOffsDestroyHash@@3KA 77fc09dc     CryptoFns.obj
 0003:0005d9e0       ?xCryptOffsHashData@@3KA   77fc09e0     CryptoFns.obj
 0003:0005d9e4       ?xCryptOffsDestroyKey@@3KA 77fc09e4     CryptoFns.obj
 0003:0005d9e8       ?xCryptOffsImportKey@@3KA  77fc09e8     CryptoFns.obj
 0003:0005d9ec       ?xCryptOffsVerifySignature@@3KA 77fc09ec     CryptoFns.obj
 0003:0005d9f0       ?ms_dwInitSum@CTinyEncrypt@@0KA 77fc09f0     TinyEncrypt.obj
 0003:0005d9f4       ?ms_bInitDone@CTinyEncrypt@@0HA 77fc09f4     TinyEncrypt.obj
 0003:0005d9f8       ?pD3D@@3PAUIDirect3D9@@A   77fc09f8     main.obj
 0003:0005da00       ?tSettings@@3U_GAME_SETTINGS@@A 77fc0a00     main.obj
 0003:0005de10       ?dbgstr@@3PADA             77fc0e10     main.obj
 0003:0005df10       ?iGtaVersion@@3HA          77fc0f10     main.obj
 0003:0005df14       ?pChatWindow@@3PAVCChatWindow@@A 77fc0f14     main.obj
 0003:0005df18       ?pCmdWindow@@3PAVCCmdWindow@@A 77fc0f18     main.obj
 0003:0005df1c       ?pDeathWindow@@3PAVCDeathWindow@@A 77fc0f1c     main.obj
 0003:0005df20       ?pSpawnScreen@@3PAVCSpawnScreen@@A 77fc0f20     main.obj
 0003:0005df24       ?pNetGame@@3PAVCNetGame@@A 77fc0f24     main.obj
 0003:0005df28       ?pDefaultFont@@3PAVCFontRender@@A 77fc0f28     main.obj
 0003:0005df2c       ?bGameInited@@3HA          77fc0f2c     main.obj
 0003:0005df30       ?bNetworkInited@@3HA       77fc0f30     main.obj
 0003:0005df34       ?bGameModded@@3HA          77fc0f34     main.obj
 0003:0005df38       ?bQuitGame@@3HA            77fc0f38     main.obj
 0003:0005df3c       ?dwStartQuitTick@@3KA      77fc0f3c     main.obj
 0003:0005df40       ?hServerDll@@3PAUHINSTANCE__@@A 77fc0f40     main.obj
 0003:0005df44       ?pD3DDevice@@3PAUIDirect3DDevice9@@A 77fc0f44     main.obj
 0003:0005df48       ?hInstance@@3PAXA          77fc0f48     main.obj
 0003:0005df4c       ?pNewPlayerTags@@3PAVCNewPlayerTags@@A 77fc0f4c     main.obj
 0003:0005df50       ?pScoreBoard@@3PAVCScoreBoard@@A 77fc0f50     main.obj
 0003:0005df54       ?pLabel@@3PAVCLabel@@A     77fc0f54     main.obj
 0003:0005df58       ?pNetStats@@3PAVCNetStats@@A 77fc0f58     main.obj
 0003:0005df5c       ?pSvrNetStats@@3PAVCSvrNetStats@@A 77fc0f5c     main.obj
 0003:0005df60       ?pHelpDialog@@3PAVCHelpDialog@@A 77fc0f60     main.obj
 0003:0005df64       ?bShowDebugLabels@@3_NA    77fc0f64     main.obj
 0003:0005df68       ?pGame@@3PAVCGame@@A       77fc0f68     main.obj
 0003:0005df6c       ?dwGameLoop@@3KA           77fc0f6c     main.obj
 0003:0005df70       ?dwGraphicsLoop@@3KA       77fc0f70     main.obj
 0003:0005df74       ?dwUIMode@@3KA             77fc0f74     main.obj
 0003:0005df78       ?pFileSystem@@3PAVCFileSystem@@A 77fc0f78     main.obj
 0003:0005df7c       ?pACGhost@@3PAVCACGhost@@A 77fc0f7c     main.obj
 0003:0005df80       ?pAntiCheat@@3PAVCAntiCheat@@A 77fc0f80     main.obj
 0003:0005df84       ?pDialogResourceManager@@3PAVCDXUTDialogResourceManager@@A 77fc0f84     main.obj
 0003:0005df88       ?pGameUI@@3PAVCDXUTDialog@@A 77fc0f88     main.obj
 0003:0005df8c       ?uiCounter@@3IA            77fc0f8c     main.obj
 0003:0005df90       ?dwOrgRwSetState@@3KA      77fc0f90     main.obj
 0003:0005df94       ?dwSetStateCaller@@3KA     77fc0f94     main.obj
 0003:0005df98       ?dwSetStateOption@@3KA     77fc0f98     main.obj
 0003:0005df9c       ?dwSetStateParam@@3KA      77fc0f9c     main.obj
 0003:0005dfa0       ?dwFogEnabled@@3KA         77fc0fa0     main.obj
 0003:0005dfa4       ?gDisableAllFog@@3HA       77fc0fa4     main.obj
 0003:0005dfa8       ___fastflag                77fc0fa8     LIBCMT:fpinit.obj
 0003:0005dfac       __adjust_fdiv              77fc0fac     LIBCMT:fpinit.obj
 0003:0005dfb0       ___pPurecall               77fc0fb0     LIBCMT:purevirt.obj
 0003:0005e044       __aenvptr                  77fc1044     LIBCMT:dllcrt0.obj
 0003:0005e048       __wenvptr                  77fc1048     LIBCMT:dllcrt0.obj
 0003:0005e04c       ___error_mode              77fc104c     LIBCMT:dllcrt0.obj
 0003:0005e050       ___app_type                77fc1050     LIBCMT:dllcrt0.obj
 0003:0005e054       _gpFlsAlloc                77fc1054     LIBCMT:tidtable.obj
 0003:0005e058       _gpFlsGetValue             77fc1058     LIBCMT:tidtable.obj
 0003:0005e05c       _gpFlsSetValue             77fc105c     LIBCMT:tidtable.obj
 0003:0005e060       _gpFlsFree                 77fc1060     LIBCMT:tidtable.obj
 0003:0005e1b8       ?_pnhHeap@@3P6AHI@ZA       77fc11b8     LIBCMT:handler.obj
 0003:0005e1bc       __newmode                  77fc11bc     LIBCMT:_newmode.obj
 0003:0005e1cc       __cflush                   77fc11cc     LIBCMT:_file.obj
 0003:0005e1d0       __stdbuf                   77fc11d0     LIBCMT:_sftbuf.obj
 0003:0005e1dc       __umaskval                 77fc11dc     LIBCMT:crt0dat.obj
 0003:0005e1e0       __osplatform               77fc11e0     LIBCMT:crt0dat.obj
 0003:0005e1e4       __osver                    77fc11e4     LIBCMT:crt0dat.obj
 0003:0005e1e8       __winver                   77fc11e8     LIBCMT:crt0dat.obj
 0003:0005e1ec       __winmajor                 77fc11ec     LIBCMT:crt0dat.obj
 0003:0005e1f0       __winminor                 77fc11f0     LIBCMT:crt0dat.obj
 0003:0005e1f4       ___argc                    77fc11f4     LIBCMT:crt0dat.obj
 0003:0005e1f8       ___argv                    77fc11f8     LIBCMT:crt0dat.obj
 0003:0005e1fc       ___wargv                   77fc11fc     LIBCMT:crt0dat.obj
 0003:0005e200       __environ                  77fc1200     LIBCMT:crt0dat.obj
 0003:0005e204       ___initenv                 77fc1204     LIBCMT:crt0dat.obj
 0003:0005e208       __wenviron                 77fc1208     LIBCMT:crt0dat.obj
 0003:0005e20c       ___winitenv                77fc120c     LIBCMT:crt0dat.obj
 0003:0005e210       __pgmptr                   77fc1210     LIBCMT:crt0dat.obj
 0003:0005e214       __wpgmptr                  77fc1214     LIBCMT:crt0dat.obj
 0003:0005e218       __exitflag                 77fc1218     LIBCMT:crt0dat.obj
 0003:0005e21c       __C_Termination_Done       77fc121c     LIBCMT:crt0dat.obj
 0003:0005e220       __C_Exit_Done              77fc1220     LIBCMT:crt0dat.obj
 0003:0005e228       __commode                  77fc1228     LIBCMT:ncommode.obj
 0003:0005e33c       __adbgmsg                  77fc133c     LIBCMT:crt0msg.obj
 0003:0005e398       ___lconv_static_null       77fc1398     LIBCMT:lconv.obj
 0003:0005e39c       ___lc_time_intl            77fc139c     LIBCMT:inittime.obj
 0003:0005e3a0       ___lconv_intl              77fc13a0     LIBCMT:initmon.obj
 0003:0005e3c8       ___lc_handle               77fc13c8     LIBCMT:nlsdata2.obj
 0003:0005e3e0       ___lc_codepage             77fc13e0     LIBCMT:nlsdata2.obj
 0003:0005e3e4       ___lc_collate_cp           77fc13e4     LIBCMT:nlsdata2.obj
 0003:0005e3e8       ___lc_id                   77fc13e8     LIBCMT:nlsdata3.obj
 0003:0005e4f8       __fmode                    77fc14f8     LIBCMT:txtmode.obj
 0003:0005e508       ___ctype1_refcount         77fc1508     <common>
 0003:0005e50c       ___lconv_mon_refcount      77fc150c     <common>
 0003:0005e510       ___lconv_num_refcount      77fc1510     <common>
 0003:0005e514       ___mblcid                  77fc1514     <common>
 0003:0005e518       ___ptmbcinfo               77fc1518     <common>
 0003:0005e51c       ___ismbcodepage            77fc151c     <common>
 0003:0005e520       __mbctype                  77fc1520     <common>
 0003:0005e624       ___mbcodepage              77fc1624     <common>
 0003:0005e630       ___mbulinfo                77fc1630     <common>
 0003:0005e640       __mbcasemap                77fc1640     <common>
 0003:0005e740       __nhandle                  77fc1740     <common>
 0003:0005e760       ___pioinfo                 77fc1760     <common>
 0003:0005e860       ___use_sse2_mathfcns       77fc1860     <common>
 0003:0005e864       ___sse2_available          77fc1864     <common>
 0003:0005e868       ___env_initialized         77fc1868     <common>
 0003:0005e86c       ___onexitend               77fc186c     <common>
 0003:0005e870       ___onexitbegin             77fc1870     <common>
 0003:0005e874       ___mbctype_initialized     77fc1874     <common>
 0003:0005e878       ___piob                    77fc1878     <common>
 0003:0005e880       __bufin                    77fc1880     <common>
 0003:0005f880       __nstream                  77fc2880     <common>
 0003:0005f884       ___sbh_pHeaderDefer        77fc2884     <common>
 0003:0005f888       ___sbh_cntHeaderList       77fc2888     <common>
 0003:0005f88c       ___sbh_pHeaderList         77fc288c     <common>
 0003:0005f890       ___sbh_threshold           77fc2890     <common>
 0003:0005f894       ___sbh_pHeaderScan         77fc2894     <common>
 0003:0005f898       ___sbh_sizeHeaderList      77fc2898     <common>
 0003:0005f89c       ___sbh_indGroupDefer       77fc289c     <common>
 0003:0005f8a0       __crtheap                  77fc28a0     <common>
 0003:0005f8a4       ___active_heap             77fc28a4     <common>
 0003:0005f8a8       __acmdln                   77fc28a8     <common>
 0003:0005f8ac       __pRawDllMain              77fc28ac     <common>

 entry point at        0001:0004469e

 Static symbols

 0001:0000d5d9       $L112780                   77f0e5d9 f   netgame.obj
 0001:0000d663       $L112782                   77f0e663 f   netgame.obj
 0001:0000d6e5       $L112784                   77f0e6e5 f   netgame.obj
 0001:0000d755       $L112786                   77f0e755 f   netgame.obj
 0001:0000d7c8       $L112788                   77f0e7c8 f   netgame.obj
 0001:0001039c       $L111431                   77f1139c f   playerpool.obj
 0001:00010401       $L111433                   77f11401 f   playerpool.obj
 0001:00015197       $L114188                   77f16197 f   scriptrpc.obj
 0001:00015d9c       $L114574                   77f16d9c f   scriptrpc.obj
 0001:00015e9a       $L114638                   77f16e9a f   scriptrpc.obj
 0001:0001a1b0       _CopySections              77f1b1b0 f   MemoryModule.obj
 0001:0001a280       _FinalizeSections          77f1b280 f   MemoryModule.obj
 0001:0001a340       _PerformBaseRelocation     77f1b340 f   MemoryModule.obj
 0001:0001a3d0       _BuildImportTable          77f1b3d0 f   MemoryModule.obj
 0001:0001d053       $L120440                   77f1e053 f i subclass.obj
 0001:0001d0eb       $L120442                   77f1e0eb f i subclass.obj
 0001:0003c150       _crc32_little              77f3d150 f   crc32.obj
 0001:0003c450       _putShortMSB               77f3d450 f   deflate.obj
 0001:0003c480       _flush_pending             77f3d480 f   deflate.obj
 0001:0003ce30       _read_buf                  77f3de30 f   deflate.obj
 0001:0003ceb0       _lm_init                   77f3deb0 f   deflate.obj
 0001:0003cf40       _longest_match             77f3df40 f   deflate.obj
 0001:0003d0b0       _longest_match_fast        77f3e0b0 f   deflate.obj
 0001:0003d170       _fill_window               77f3e170 f   deflate.obj
 0001:0003d280       _deflate_stored            77f3e280 f   deflate.obj
 0001:0003d4a0       _deflate_fast              77f3e4a0 f   deflate.obj
 0001:0003d840       _deflate_slow              77f3e840 f   deflate.obj
 0001:0003df60       _init_block                77f3ef60 f   trees.obj
 0001:0003dfd0       _pqdownheap                77f3efd0 f   trees.obj
 0001:0003e0a0       _gen_bitlen                77f3f0a0 f   trees.obj
 0001:0003e2e0       _scan_tree                 77f3f2e0 f   trees.obj
 0001:0003e3c0       _send_tree                 77f3f3c0 f   trees.obj
 0001:0003e8e0       _send_all_trees            77f3f8e0 f   trees.obj
 0001:0003eb50       _compress_block            77f3fb50 f   trees.obj
 0001:0003ef70       _set_data_type             77f3ff70 f   trees.obj
 0001:0003f040       _bi_flush                  77f40040 f   trees.obj
 0001:0003f0c0       _bi_windup                 77f400c0 f   trees.obj
 0001:0003f130       _copy_block                77f40130 f   trees.obj
 0001:0003f230       _gen_codes                 77f40230 f   trees.obj
 0001:0003f2b0       _build_tree                77f402b0 f   trees.obj
 0001:0003f4b0       _build_bl_tree             77f404b0 f   trees.obj
 0001:00041e8f       ?CatchGuardHandler@@YA?AW4_EXCEPTION_DISPOSITION@@PAUEHExceptionRecord@@PAUCatchGuardRN@@PAX2@Z 77f42e8f f   LIBCMT:trnsctrl.obj
 0001:00041f91       ?TranslatorGuardHandler@@YA?AW4_EXCEPTION_DISPOSITION@@PAUEHExceptionRecord@@PAUTranslatorGuardRN@@PAX2@Z 77f42f91 f   LIBCMT:trnsctrl.obj
 0001:000421ac       $$$00001                   77f431ac f   LIBCMT:exsup.obj
 0001:000421cc       $$$00003                   77f431cc f   LIBCMT:exsup.obj
 0001:000421cc       __unwind_handler           77f431cc f   LIBCMT:exsup.obj
 0001:000421ee       $$$00005                   77f431ee f   LIBCMT:exsup.obj
 0001:00042256       $$$00007                   77f43256 f   LIBCMT:exsup.obj
 0001:0004229a       $$$00011                   77f4329a f   LIBCMT:exsup.obj
 0001:00042630       _$$$00001                  77f43630 f   LIBCMT:strchr.obj
 0001:000434d3       __onexit_lk                77f444d3 f   LIBCMT:onexit.obj
 0001:0004368f       _$$$00002                  77f4468f f   LIBCMT:pow.obj
 0001:00043e9f       _xtoa                      77f44e9f f   LIBCMT:xtoa.obj
 0001:00043f38       __threadstartex@4          77f44f38 f   LIBCMT:threadex.obj
 0001:00044168       _flsall                    77f45168 f   LIBCMT:fflush.obj
 0001:000443fa       __threadstart@4            77f453fa f   LIBCMT:thread.obj
 0001:00044894       __shift                    77f45894 f   LIBCMT:cvt.obj
 0001:000448b1       __cftoe2                   77f458b1 f   LIBCMT:cvt.obj
 0001:000449cb       __cftof2                   77f459cb f   LIBCMT:cvt.obj
 0001:00044c2f       ?TypeMatch@@YAHPBU_s_HandlerType@@PBU_s_CatchableType@@PBU_s_ThrowInfo@@@Z 77f45c2f f   LIBCMT:frame.obj
 0001:00044c7e       ?FrameUnwindFilter@@YAHPAU_EXCEPTION_POINTERS@@@Z 77f45c7e f   LIBCMT:frame.obj
 0001:00044daf       ?AdjustPointer@@YAPAXPAXABUPMD@@@Z 77f45daf f   LIBCMT:frame.obj
 0001:00044dce       ?CallCatchBlock@@YAPAXPAUEHExceptionRecord@@PAUEHRegistrationNode@@PAU_CONTEXT@@PBU_s_FuncInfo@@PAXHK@Z 77f45dce f   LIBCMT:frame.obj
 0001:00044f92       ?BuildCatchObject@@YAXPAUEHExceptionRecord@@PAXPBU_s_HandlerType@@PBU_s_CatchableType@@@Z 77f45f92 f   LIBCMT:frame.obj
 0001:0004510e       ?CatchIt@@YAXPAUEHExceptionRecord@@PAUEHRegistrationNode@@PAU_CONTEXT@@PAXPBU_s_FuncInfo@@PBU_s_HandlerType@@PBU_s_CatchableType@@PBU_s_TryBlockMapEntry@@H1E@Z 77f4610e f   LIBCMT:frame.obj
 0001:00045175       ?FindHandlerForForeignException@@YAXPAUEHExceptionRecord@@PAUEHRegistrationNode@@PAU_CONTEXT@@PAXPBU_s_FuncInfo@@HH1@Z 77f46175 f   LIBCMT:frame.obj
 0001:00045233       ?FindHandler@@YAXPAUEHExceptionRecord@@PAUEHRegistrationNode@@PAU_CONTEXT@@PAXPBU_s_FuncInfo@@EH1@Z 77f46233 f   LIBCMT:frame.obj
 0001:000459b5       _write_char                77f469b5 f   LIBCMT:output.obj
 0001:000459e8       _write_multi_char          77f469e8 f   LIBCMT:output.obj
 0001:00045a0c       _write_string              77f46a0c f   LIBCMT:output.obj
 0001:00047125       $$$00003                   77f48125 f   LIBCMT:exsup3.obj
 0001:000472ef       ___updatetlocinfo_lk       77f482ef f   LIBCMT:setlocal.obj
 0001:00047eda       _report_failure            77f48eda f   LIBCMT:secchk.obj
 0001:000484cd       __initterm                 77f494cd f   LIBCMT:crt0dat.obj
 0001:0004854f       _doexit                    77f4954f f   LIBCMT:crt0dat.obj
 0001:00048751       _has_osfxsr_set            77f49751 f   LIBCMT:cpu_disp.obj
 0001:000493b0       _$$$00001                  77f4a3b0 f   LIBCMT:87tran.obj
 0001:000496b3       _$$$00003                  77f4a6b3 f   LIBCMT:87disp.obj
 0001:0004a93f       _parse_cmdline             77f4b93f f   LIBCMT:stdargv.obj
 0001:0004b459       __abstract_cw              77f4c459 f   LIBCMT:ieee87.obj
 0001:0004b4eb       __hw_cw                    77f4c4eb f   LIBCMT:ieee87.obj
 0001:0004b611       _CPtoLCID                  77f4c611 f   LIBCMT:mbctype.obj
 0001:0004b640       _setSBCS                   77f4c640 f   LIBCMT:mbctype.obj
 0001:0004b669       _setSBUpLow                77f4c669 f   LIBCMT:mbctype.obj
 0001:0004b7f5       __setmbcp_lk               77f4c7f5 f   LIBCMT:mbctype.obj
 0001:0004bc00       ___crtInitCritSecNoSpinCount@8 77f4cc00 f   LIBCMT:initcrit.obj
 0001:0004c8f5       __tsopen_lk                77f4d8f5 f   LIBCMT:open.obj
 0001:0004ecec       _siglookup                 77f4fcec f   LIBCMT:winsig.obj
 0001:0004fb30       $L111597                   77f50b30 f   cheats.obj
 0001:0004fb3b       __ehhandler$?FindPlayerPed@CGame@@QAEPAVCPlayerPed@@XZ 77f50b3b f   cheats.obj
 0001:0004fb50       $L111976                   77f50b50 f   game.obj
 0001:0004fb50       $L112003                   77f50b50 f   game.obj
 0001:0004fb50       $L111990                   77f50b50 f   game.obj
 0001:0004fb5b       __ehhandler$?NewVehicle@CGame@@QAEPAVCVehicle@@HMMMMPAD@Z 77f50b5b f   game.obj
 0001:0004fb5b       __ehhandler$?NewPlayer@CGame@@QAEPAVCPlayerPed@@HHMMMME@Z 77f50b5b f   game.obj
 0001:0004fb5b       __ehhandler$?NewObject@CGame@@QAEPAVCObject@@HMMMU_VECTOR@@@Z 77f50b5b f   game.obj
 0001:0004fb70       $L111405                   77f50b70 f   object.obj
 0001:0004fb78       __ehhandler$??1CObject@@UAE@XZ 77f50b78 f   object.obj
 0001:0004fb90       $L111436                   77f50b90 f   object.obj
 0001:0004fb98       __ehhandler$??0CObject@@QAE@HMMMU_VECTOR@@@Z 77f50b98 f   object.obj
 0001:0004fbb0       $L112594                   77f50bb0 f   playerped.obj
 0001:0004fbb0       $L112747                   77f50bb0 f   playerped.obj
 0001:0004fbb8       __ehhandler$??0CPlayerPed@@QAE@XZ 77f50bb8 f   playerped.obj
 0001:0004fbb8       __ehhandler$??0CPlayerPed@@QAE@HHMMMME@Z 77f50bb8 f   playerped.obj
 0001:0004fbd0       $L111747                   77f50bd0 f   vehicle.obj
 0001:0004fbd0       $L111877                   77f50bd0 f   vehicle.obj
 0001:0004fbd8       __ehhandler$??1CVehicle@@UAE@XZ 77f50bd8 f   vehicle.obj
 0001:0004fbd8       __ehhandler$??0CVehicle@@QAE@HMMMMPAD@Z 77f50bd8 f   vehicle.obj
 0001:0004fbf0       $L111478                   77f50bf0 f   events.obj
 0001:0004fbfb       __ehhandler$?SendScmEvent@@YAXHKKK@Z 77f50bfb f   events.obj
 0001:0004fc10       $L112413                   77f50c10 f   localplayer.obj
 0001:0004fc10       $L112322                   77f50c10 f   localplayer.obj
 0001:0004fc10       $L112438                   77f50c10 f   localplayer.obj
 0001:0004fc10       $L112287                   77f50c10 f   localplayer.obj
 0001:0004fc10       $L112457                   77f50c10 f   localplayer.obj
 0001:0004fc10       $L112148                   77f50c10 f   localplayer.obj
 0001:0004fc10       $L112476                   77f50c10 f   localplayer.obj
 0001:0004fc10       $L112132                   77f50c10 f   localplayer.obj
 0001:0004fc10       $L112496                   77f50c10 f   localplayer.obj
 0001:0004fc10       $L112540                   77f50c10 f   localplayer.obj
 0001:0004fc10       $L112560                   77f50c10 f   localplayer.obj
 0001:0004fc10       $L112593                   77f50c10 f   localplayer.obj
 0001:0004fc10       $L112391                   77f50c10 f   localplayer.obj
 0001:0004fc10       $L112672                   77f50c10 f   localplayer.obj
 0001:0004fc10       $L112625                   77f50c10 f   localplayer.obj
 0001:0004fc10       $L112713                   77f50c10 f   localplayer.obj
 0001:0004fc1b       __ehhandler$?ProcessSpectating@CLocalPlayer@@QAEXXZ 77f50c1b f   localplayer.obj
 0001:0004fc1b       __ehhandler$?CheckWeapons@CLocalPlayer@@QAEXXZ 77f50c1b f   localplayer.obj
 0001:0004fc1b       __ehhandler$?SendStatsUpdate@CLocalPlayer@@QAEXXZ 77f50c1b f   localplayer.obj
 0001:0004fc1b       __ehhandler$?RequestSpawn@CLocalPlayer@@QAEXXZ 77f50c1b f   localplayer.obj
 0001:0004fc1b       __ehhandler$?Spawn@CLocalPlayer@@QAEHXZ 77f50c1b f   localplayer.obj
 0001:0004fc1b       __ehhandler$?SendOnFootFullSyncData@CLocalPlayer@@QAEXXZ 77f50c1b f   localplayer.obj
 0001:0004fc1b       __ehhandler$?SendAimSyncData@CLocalPlayer@@QAEXXZ 77f50c1b f   localplayer.obj
 0001:0004fc1b       __ehhandler$?SendPassengerFullSyncData@CLocalPlayer@@QAEXXZ 77f50c1b f   localplayer.obj
 0001:0004fc1b       __ehhandler$?SendWastedNotification@CLocalPlayer@@QAEXXZ 77f50c1b f   localplayer.obj
 0001:0004fc1b       __ehhandler$?RequestClass@CLocalPlayer@@QAEXH@Z 77f50c1b f   localplayer.obj
 0001:0004fc1b       __ehhandler$?UpdateRemoteInterior@CLocalPlayer@@QAEXE@Z 77f50c1b f   localplayer.obj
 0001:0004fc1b       __ehhandler$?Say@CLocalPlayer@@QAEXPAD@Z 77f50c1b f   localplayer.obj
 0001:0004fc1b       __ehhandler$?Msg@CLocalPlayer@@QAEXEPAD@Z 77f50c1b f   localplayer.obj
 0001:0004fc1b       __ehhandler$?TeamMsg@CLocalPlayer@@QAEXPAD@Z 77f50c1b f   localplayer.obj
 0001:0004fc1b       __ehhandler$?SendEnterVehicleNotification@CLocalPlayer@@QAEXGH@Z 77f50c1b f   localplayer.obj
 0001:0004fc1b       __ehhandler$?SendExitVehicleNotification@CLocalPlayer@@QAEXG@Z 77f50c1b f   localplayer.obj
 0001:0004fc30       $L112352                   77f50c30 f   localplayer.obj
 0001:0004fc3b       $L112353                   77f50c3b f   localplayer.obj
 0001:0004fc46       __ehhandler$?SendInCarFullSyncData@CLocalPlayer@@QAEXXZ 77f50c46 f   localplayer.obj
 0001:0004fc50       $L111420                   77f50c50 f   menupool.obj
 0001:0004fc5b       __ehhandler$?New@CMenuPool@@QAEPAVCMenu@@EPADMMEMMPAUMENU_INT@@@Z 77f50c5b f   menupool.obj
 0001:0004fc70       $L111505                   77f50c70 f   menupool.obj
 0001:0004fc7b       __ehhandler$?Process@CMenuPool@@QAEXXZ 77f50c7b f   menupool.obj
 0001:0004fc90       $L112033                   77f50c90 f   netgame.obj
 0001:0004fc9b       $L112034                   77f50c9b f   netgame.obj
 0001:0004fca6       $L112036                   77f50ca6 f   netgame.obj
 0001:0004fcb1       $L112037                   77f50cb1 f   netgame.obj
 0001:0004fcbc       $L112038                   77f50cbc f   netgame.obj
 0001:0004fcc7       $L112039                   77f50cc7 f   netgame.obj
 0001:0004fcd2       __ehhandler$??0CNetGame@@QAE@PADH00@Z 77f50cd2 f   netgame.obj
 0001:0004fce0       $L112182                   77f50ce0 f   netgame.obj
 0001:0004fce0       $L112204                   77f50ce0 f   netgame.obj
 0001:0004fce0       $L112226                   77f50ce0 f   netgame.obj
 0001:0004fce0       $L112248                   77f50ce0 f   netgame.obj
 0001:0004fce0       $L112122                   77f50ce0 f   netgame.obj
 0001:0004fceb       __ehhandler$?ResetMenuPool@CNetGame@@QAEXXZ 77f50ceb f   netgame.obj
 0001:0004fceb       __ehhandler$?ResetObjectPool@CNetGame@@QAEXXZ 77f50ceb f   netgame.obj
 0001:0004fceb       __ehhandler$?ResetGangZonePool@CNetGame@@QAEXXZ 77f50ceb f   netgame.obj
 0001:0004fceb       __ehhandler$?ResetVehiclePool@CNetGame@@QAEXXZ 77f50ceb f   netgame.obj
 0001:0004fceb       __ehhandler$?ResetTextDrawPool@CNetGame@@QAEXXZ 77f50ceb f   netgame.obj
 0001:0004fd00       $L112685                   77f50d00 f   netgame.obj
 0001:0004fd00       $L112616                   77f50d00 f   netgame.obj
 0001:0004fd00       $L112535                   77f50d00 f   netgame.obj
 0001:0004fd00       $L112400                   77f50d00 f   netgame.obj
 0001:0004fd00       $L112104                   77f50d00 f   netgame.obj
 0001:0004fd00       $L112503                   77f50d00 f   netgame.obj
 0001:0004fd00       $L112648                   77f50d00 f   netgame.obj
 0001:0004fd0b       __ehhandler$?Packet_PassengerSync@CNetGame@@AAEXPAUPacket@@@Z 77f50d0b f   netgame.obj
 0001:0004fd0b       __ehhandler$?Packet_ConnectionSucceeded@CNetGame@@AAEXPAUPacket@@@Z 77f50d0b f   netgame.obj
 0001:0004fd0b       __ehhandler$?Packet_VehicleSync@CNetGame@@AAEXPAUPacket@@@Z 77f50d0b f   netgame.obj
 0001:0004fd0b       __ehhandler$?Packet_TrailerSync@CNetGame@@AAEXPAUPacket@@@Z 77f50d0b f   netgame.obj
 0001:0004fd0b       __ehhandler$?Packet_AimSync@CNetGame@@AAEXPAUPacket@@@Z 77f50d0b f   netgame.obj
 0001:0004fd0b       __ehhandler$?Packet_PlayerSync@CNetGame@@AAEXPAUPacket@@@Z 77f50d0b f   netgame.obj
 0001:0004fd0b       __ehhandler$?UpdatePlayerScoresAndPings@CNetGame@@QAEXXZ 77f50d0b f   netgame.obj
 0001:0004fd20       __ehhandler$?Process@CNetGame@@QAEXXZ 77f50d20 f   netgame.obj
 0001:0004fd30       $L112096                   77f50d30 f   netrpc.obj
 0001:0004fd3b       __ehhandler$?Chat@@YAXPAURPCParameters@@@Z 77f50d3b f   netrpc.obj
 0001:0004fd50       $L112140                   77f50d50 f   netrpc.obj
 0001:0004fd50       $L112186                   77f50d50 f   netrpc.obj
 0001:0004fd5b       __ehhandler$?Privmsg@@YAXPAURPCParameters@@@Z 77f50d5b f   netrpc.obj
 0001:0004fd5b       __ehhandler$?TeamPrivmsg@@YAXPAURPCParameters@@@Z 77f50d5b f   netrpc.obj
 0001:0004fd70       $L112546                   77f50d70 f   netrpc.obj
 0001:0004fd70       $L112416                   77f50d70 f   netrpc.obj
 0001:0004fd70       $L112599                   77f50d70 f   netrpc.obj
 0001:0004fd70       $L112386                   77f50d70 f   netrpc.obj
 0001:0004fd70       $L112645                   77f50d70 f   netrpc.obj
 0001:0004fd70       $L112351                   77f50d70 f   netrpc.obj
 0001:0004fd70       $L112664                   77f50d70 f   netrpc.obj
 0001:0004fd70       $L112326                   77f50d70 f   netrpc.obj
 0001:0004fd70       $L112832                   77f50d70 f   netrpc.obj
 0001:0004fd70       $L112267                   77f50d70 f   netrpc.obj
 0001:0004fd70       $L112683                   77f50d70 f   netrpc.obj
 0001:0004fd70       $L112799                   77f50d70 f   netrpc.obj
 0001:0004fd70       $L112697                   77f50d70 f   netrpc.obj
 0001:0004fd70       $L112224                   77f50d70 f   netrpc.obj
 0001:0004fd70       $L112785                   77f50d70 f   netrpc.obj
 0001:0004fd70       $L112715                   77f50d70 f   netrpc.obj
 0001:0004fd70       $L112733                   77f50d70 f   netrpc.obj
 0001:0004fd70       $L112751                   77f50d70 f   netrpc.obj
 0001:0004fd70       $L112818                   77f50d70 f   netrpc.obj
 0001:0004fd70       $L112513                   77f50d70 f   netrpc.obj
 0001:0004fd70       $L111936                   77f50d70 f   netrpc.obj
 0001:0004fd70       $L112012                   77f50d70 f   netrpc.obj
 0001:0004fd70       $L111968                   77f50d70 f   netrpc.obj
 0001:0004fd70       $L111990                   77f50d70 f   netrpc.obj
 0001:0004fd70       $L112246                   77f50d70 f   netrpc.obj
 0001:0004fd7b       __ehhandler$?ServerQuit@@YAXPAURPCParameters@@@Z 77f50d7b f   netrpc.obj
 0001:0004fd7b       __ehhandler$?SvrStats@@YAXPAURPCParameters@@@Z 77f50d7b f   netrpc.obj
 0001:0004fd7b       __ehhandler$?InitGame@@YAXPAURPCParameters@@@Z 77f50d7b f   netrpc.obj
 0001:0004fd7b       __ehhandler$?RequestClass@@YAXPAURPCParameters@@@Z 77f50d7b f   netrpc.obj
 0001:0004fd7b       __ehhandler$?Weather@@YAXPAURPCParameters@@@Z 77f50d7b f   netrpc.obj
 0001:0004fd7b       __ehhandler$?RequestSpawn@@YAXPAURPCParameters@@@Z 77f50d7b f   netrpc.obj
 0001:0004fd7b       __ehhandler$?Spawn@@YAXPAURPCParameters@@@Z 77f50d7b f   netrpc.obj
 0001:0004fd7b       __ehhandler$?Death@@YAXPAURPCParameters@@@Z 77f50d7b f   netrpc.obj
 0001:0004fd7b       __ehhandler$?VehicleDestroy@@YAXPAURPCParameters@@@Z 77f50d7b f   netrpc.obj
 0001:0004fd7b       __ehhandler$?EnterVehicle@@YAXPAURPCParameters@@@Z 77f50d7b f   netrpc.obj
 0001:0004fd7b       __ehhandler$?ExitVehicle@@YAXPAURPCParameters@@@Z 77f50d7b f   netrpc.obj
 0001:0004fd7b       __ehhandler$?VehicleSpawn@@YAXPAURPCParameters@@@Z 77f50d7b f   netrpc.obj
 0001:0004fd7b       __ehhandler$?SetCheckpoint@@YAXPAURPCParameters@@@Z 77f50d7b f   netrpc.obj
 0001:0004fd7b       __ehhandler$?SetRaceCheckpoint@@YAXPAURPCParameters@@@Z 77f50d7b f   netrpc.obj
 0001:0004fd7b       __ehhandler$?UpdateScoresPingsIPs@@YAXPAURPCParameters@@@Z 77f50d7b f   netrpc.obj
 0001:0004fd7b       __ehhandler$?ConnectionRejected@@YAXPAURPCParameters@@@Z 77f50d7b f   netrpc.obj
 0001:0004fd7b       __ehhandler$?WorldTime@@YAXPAURPCParameters@@@Z 77f50d7b f   netrpc.obj
 0001:0004fd7b       __ehhandler$?Pickup@@YAXPAURPCParameters@@@Z 77f50d7b f   netrpc.obj
 0001:0004fd7b       __ehhandler$?ClientMessage@@YAXPAURPCParameters@@@Z 77f50d7b f   netrpc.obj
 0001:0004fd7b       __ehhandler$?DestroyPickup@@YAXPAURPCParameters@@@Z 77f50d7b f   netrpc.obj
 0001:0004fd7b       __ehhandler$?DestroyWeaponPickup@@YAXPAURPCParameters@@@Z 77f50d7b f   netrpc.obj
 0001:0004fd7b       __ehhandler$?SetTimeEx@@YAXPAURPCParameters@@@Z 77f50d7b f   netrpc.obj
 0001:0004fd7b       __ehhandler$?ScmEvent@@YAXPAURPCParameters@@@Z 77f50d7b f   netrpc.obj
 0001:0004fd7b       __ehhandler$?ServerJoin@@YAXPAURPCParameters@@@Z 77f50d7b f   netrpc.obj
 0001:0004fd7b       __ehhandler$?ToggleClock@@YAXPAURPCParameters@@@Z 77f50d7b f   netrpc.obj
 0001:0004fd90       $L111380                   77f50d90 f   pickuppool.obj
 0001:0004fd90       $L111403                   77f50d90 f   pickuppool.obj
 0001:0004fd9b       __ehhandler$?PickedUp@CPickupPool@@QAEXH@Z 77f50d9b f   pickuppool.obj
 0001:0004fd9b       __ehhandler$?Process@CPickupPool@@QAEXXZ 77f50d9b f   pickuppool.obj
 0001:0004fdb0       $L111413                   77f50db0 f   playerpool.obj
 0001:0004fdb0       $L111387                   77f50db0 f   playerpool.obj
 0001:0004fdbb       __ehhandler$??0CPlayerPool@@QAE@XZ 77f50dbb f   playerpool.obj
 0001:0004fdbb       __ehhandler$?New@CPlayerPool@@QAEHEPAD@Z 77f50dbb f   playerpool.obj
 0001:0004fdd0       __ehhandler$?Process@CPlayerPool@@QAEHXZ 77f50dd0 f   playerpool.obj
 0001:0004fde0       $L114038                   77f50de0 f   scriptrpc.obj
 0001:0004fde0       $L113999                   77f50de0 f   scriptrpc.obj
 0001:0004fde0       $L113940                   77f50de0 f   scriptrpc.obj
 0001:0004fde0       $L113897                   77f50de0 f   scriptrpc.obj
 0001:0004fde0       $L113863                   77f50de0 f   scriptrpc.obj
 0001:0004fde0       $L113833                   77f50de0 f   scriptrpc.obj
 0001:0004fde0       $L113791                   77f50de0 f   scriptrpc.obj
 0001:0004fde0       $L113767                   77f50de0 f   scriptrpc.obj
 0001:0004fde0       $L113730                   77f50de0 f   scriptrpc.obj
 0001:0004fde0       $L113688                   77f50de0 f   scriptrpc.obj
 0001:0004fde0       $L113636                   77f50de0 f   scriptrpc.obj
 0001:0004fde0       $L113613                   77f50de0 f   scriptrpc.obj
 0001:0004fde0       $L113576                   77f50de0 f   scriptrpc.obj
 0001:0004fde0       $L113538                   77f50de0 f   scriptrpc.obj
 0001:0004fde0       $L114475                   77f50de0 f   scriptrpc.obj
 0001:0004fde0       $L113524                   77f50de0 f   scriptrpc.obj
 0001:0004fde0       $L114057                   77f50de0 f   scriptrpc.obj
 0001:0004fde0       $L113469                   77f50de0 f   scriptrpc.obj
 0001:0004fde0       $L113455                   77f50de0 f   scriptrpc.obj
 0001:0004fde0       $L113414                   77f50de0 f   scriptrpc.obj
 0001:0004fde0       $L113339                   77f50de0 f   scriptrpc.obj
 0001:0004fde0       $L114405                   77f50de0 f   scriptrpc.obj
 0001:0004fde0       $L113274                   77f50de0 f   scriptrpc.obj
 0001:0004fde0       $L113260                   77f50de0 f   scriptrpc.obj
 0001:0004fde0       $L113246                   77f50de0 f   scriptrpc.obj
 0001:0004fde0       $L113213                   77f50de0 f   scriptrpc.obj
 0001:0004fde0       $L113184                   77f50de0 f   scriptrpc.obj
 0001:0004fde0       $L113158                   77f50de0 f   scriptrpc.obj
 0001:0004fde0       $L113136                   77f50de0 f   scriptrpc.obj
 0001:0004fde0       $L114517                   77f50de0 f   scriptrpc.obj
 0001:0004fde0       $L114556                   77f50de0 f   scriptrpc.obj
 0001:0004fde0       $L114681                   77f50de0 f   scriptrpc.obj
 0001:0004fde0       $L114078                   77f50de0 f   scriptrpc.obj
 0001:0004fde0       $L114110                   77f50de0 f   scriptrpc.obj
 0001:0004fde0       $L114137                   77f50de0 f   scriptrpc.obj
 0001:0004fde0       $L113109                   77f50de0 f   scriptrpc.obj
 0001:0004fde0       $L113080                   77f50de0 f   scriptrpc.obj
 0001:0004fde0       $L113494                   77f50de0 f   scriptrpc.obj
 0001:0004fde0       $L113032                   77f50de0 f   scriptrpc.obj
 0001:0004fde0       $L113004                   77f50de0 f   scriptrpc.obj
 0001:0004fde0       $L112976                   77f50de0 f   scriptrpc.obj
 0001:0004fde0       $L114437                   77f50de0 f   scriptrpc.obj
 0001:0004fde0       $L114383                   77f50de0 f   scriptrpc.obj
 0001:0004fde0       $L112962                   77f50de0 f   scriptrpc.obj
 0001:0004fde0       $L112861                   77f50de0 f   scriptrpc.obj
 0001:0004fde0       $L112836                   77f50de0 f   scriptrpc.obj
 0001:0004fde0       $L112799                   77f50de0 f   scriptrpc.obj
 0001:0004fde0       $L112763                   77f50de0 f   scriptrpc.obj
 0001:0004fde0       $L112705                   77f50de0 f   scriptrpc.obj
 0001:0004fde0       $L114164                   77f50de0 f   scriptrpc.obj
 0001:0004fde0       $L113304                   77f50de0 f   scriptrpc.obj
 0001:0004fde0       $L114361                   77f50de0 f   scriptrpc.obj
 0001:0004fde0       $L114534                   77f50de0 f   scriptrpc.obj
 0001:0004fde0       $L112661                   77f50de0 f   scriptrpc.obj
 0001:0004fde0       $L112619                   77f50de0 f   scriptrpc.obj
 0001:0004fde0       $L112596                   77f50de0 f   scriptrpc.obj
 0001:0004fde0       $L112542                   77f50de0 f   scriptrpc.obj
 0001:0004fde0       $L112526                   77f50de0 f   scriptrpc.obj
 0001:0004fde0       $L112903                   77f50de0 f   scriptrpc.obj
 0001:0004fdeb       __ehhandler$?ScrSetVehiclePos@@YAXPAURPCParameters@@@Z 77f50deb f   scriptrpc.obj
 0001:0004fdeb       __ehhandler$?ScrSetObjectPos@@YAXPAURPCParameters@@@Z 77f50deb f   scriptrpc.obj
 0001:0004fdeb       __ehhandler$?ScrDetachTrailerFromVehicle@@YAXPAURPCParameters@@@Z 77f50deb f   scriptrpc.obj
 0001:0004fdeb       __ehhandler$?ScrSetObjectRotation@@YAXPAURPCParameters@@@Z 77f50deb f   scriptrpc.obj
 0001:0004fdeb       __ehhandler$?ScrAttachTrailerToVehicle@@YAXPAURPCParameters@@@Z 77f50deb f   scriptrpc.obj
 0001:0004fdeb       __ehhandler$?ScrDestroyObject@@YAXPAURPCParameters@@@Z 77f50deb f   scriptrpc.obj
 0001:0004fdeb       __ehhandler$?ScrSetVehicleHealth@@YAXPAURPCParameters@@@Z 77f50deb f   scriptrpc.obj
 0001:0004fdeb       __ehhandler$?ScrSetPlayerVirtualWorld@@YAXPAURPCParameters@@@Z 77f50deb f   scriptrpc.obj
 0001:0004fdeb       __ehhandler$?ScrSetGravity@@YAXPAURPCParameters@@@Z 77f50deb f   scriptrpc.obj
 0001:0004fdeb       __ehhandler$?ScrSetSpecialAction@@YAXPAURPCParameters@@@Z 77f50deb f   scriptrpc.obj
 0001:0004fdeb       __ehhandler$?ScrSetVehicleVirtualWorld@@YAXPAURPCParameters@@@Z 77f50deb f   scriptrpc.obj
 0001:0004fdeb       __ehhandler$?ScrSetSpawnInfo@@YAXPAURPCParameters@@@Z 77f50deb f   scriptrpc.obj
 0001:0004fdeb       __ehhandler$?ScrSetWeaponAmmo@@YAXPAURPCParameters@@@Z 77f50deb f   scriptrpc.obj
 0001:0004fdeb       __ehhandler$?ScrRemovePlayerFromVehicle@@YAXPAURPCParameters@@@Z 77f50deb f   scriptrpc.obj
 0001:0004fdeb       __ehhandler$?ScrCreateExplosion@@YAXPAURPCParameters@@@Z 77f50deb f   scriptrpc.obj
 0001:0004fdeb       __ehhandler$?ScrEnableStuntBonus@@YAXPAURPCParameters@@@Z 77f50deb f   scriptrpc.obj
 0001:0004fdeb       __ehhandler$?ScrSetPlayerArmour@@YAXPAURPCParameters@@@Z 77f50deb f   scriptrpc.obj
 0001:0004fdeb       __ehhandler$?ScrSetPlayerTeam@@YAXPAURPCParameters@@@Z 77f50deb f   scriptrpc.obj
 0001:0004fdeb       __ehhandler$?ScrStopFlashGangZone@@YAXPAURPCParameters@@@Z 77f50deb f   scriptrpc.obj
 0001:0004fdeb       __ehhandler$?ScrSetPlayerName@@YAXPAURPCParameters@@@Z 77f50deb f   scriptrpc.obj
 0001:0004fdeb       __ehhandler$?ScrFlashGangZone@@YAXPAURPCParameters@@@Z 77f50deb f   scriptrpc.obj
 0001:0004fdeb       __ehhandler$?ScrSetPlayerSkin@@YAXPAURPCParameters@@@Z 77f50deb f   scriptrpc.obj
 0001:0004fdeb       __ehhandler$?ScrRemoveGangZone@@YAXPAURPCParameters@@@Z 77f50deb f   scriptrpc.obj
 0001:0004fdeb       __ehhandler$?ScrSetPlayerPos@@YAXPAURPCParameters@@@Z 77f50deb f   scriptrpc.obj
 0001:0004fdeb       __ehhandler$?ScrAddGangZone@@YAXPAURPCParameters@@@Z 77f50deb f   scriptrpc.obj
 0001:0004fdeb       __ehhandler$?ScrSetPlayerPosFindZ@@YAXPAURPCParameters@@@Z 77f50deb f   scriptrpc.obj
 0001:0004fdeb       __ehhandler$?ScrShowNameTag@@YAXPAURPCParameters@@@Z 77f50deb f   scriptrpc.obj
 0001:0004fdeb       __ehhandler$?ScrSetPlayerHealth@@YAXPAURPCParameters@@@Z 77f50deb f   scriptrpc.obj
 0001:0004fdeb       __ehhandler$?ScrDisableMapIcon@@YAXPAURPCParameters@@@Z 77f50deb f   scriptrpc.obj
 0001:0004fdeb       __ehhandler$?ScrPutPlayerInVehicle@@YAXPAURPCParameters@@@Z 77f50deb f   scriptrpc.obj
 0001:0004fdeb       __ehhandler$?ScrHideTextDraw@@YAXPAURPCParameters@@@Z 77f50deb f   scriptrpc.obj
 0001:0004fdeb       __ehhandler$?ScrSetPlayerColor@@YAXPAURPCParameters@@@Z 77f50deb f   scriptrpc.obj
 0001:0004fdeb       __ehhandler$?ScrMoveObject@@YAXPAURPCParameters@@@Z 77f50deb f   scriptrpc.obj
 0001:0004fdeb       __ehhandler$?ScrSetMapIcon@@YAXPAURPCParameters@@@Z 77f50deb f   scriptrpc.obj
 0001:0004fdeb       __ehhandler$?ScrStopObject@@YAXPAURPCParameters@@@Z 77f50deb f   scriptrpc.obj
 0001:0004fdeb       __ehhandler$?ScrSetInterior@@YAXPAURPCParameters@@@Z 77f50deb f   scriptrpc.obj
 0001:0004fdeb       __ehhandler$?ScrDeathMessage@@YAXPAURPCParameters@@@Z 77f50deb f   scriptrpc.obj
 0001:0004fdeb       __ehhandler$?ScrSetCameraPos@@YAXPAURPCParameters@@@Z 77f50deb f   scriptrpc.obj
 0001:0004fdeb       __ehhandler$?ScrSetPlayerWantedLevel@@YAXPAURPCParameters@@@Z 77f50deb f   scriptrpc.obj
 0001:0004fdeb       __ehhandler$?ScrSetCameraLookAt@@YAXPAURPCParameters@@@Z 77f50deb f   scriptrpc.obj
 0001:0004fdeb       __ehhandler$?ScrHideMenu@@YAXPAURPCParameters@@@Z 77f50deb f   scriptrpc.obj
 0001:0004fdeb       __ehhandler$?ScrCreateObject@@YAXPAURPCParameters@@@Z 77f50deb f   scriptrpc.obj
 0001:0004fdeb       __ehhandler$?ScrShowMenu@@YAXPAURPCParameters@@@Z 77f50deb f   scriptrpc.obj
 0001:0004fdeb       __ehhandler$?ScrSetVehicleZAngle@@YAXPAURPCParameters@@@Z 77f50deb f   scriptrpc.obj
 0001:0004fdeb       __ehhandler$?ScrNumberPlate@@YAXPAURPCParameters@@@Z 77f50deb f   scriptrpc.obj
 0001:0004fdeb       __ehhandler$?ScrVehicleParams@@YAXPAURPCParameters@@@Z 77f50deb f   scriptrpc.obj
 0001:0004fdeb       __ehhandler$?ScrRespawnVehicle@@YAXPAURPCParameters@@@Z 77f50deb f   scriptrpc.obj
 0001:0004fdeb       __ehhandler$?ScrLinkVehicle@@YAXPAURPCParameters@@@Z 77f50deb f   scriptrpc.obj
 0001:0004fdeb       __ehhandler$?ScrTogglePlayerSpectating@@YAXPAURPCParameters@@@Z 77f50deb f   scriptrpc.obj
 0001:0004fdeb       __ehhandler$?ScrTogglePlayerControllable@@YAXPAURPCParameters@@@Z 77f50deb f   scriptrpc.obj
 0001:0004fdeb       __ehhandler$?ScrGivePlayerWeapon@@YAXPAURPCParameters@@@Z 77f50deb f   scriptrpc.obj
 0001:0004fdeb       __ehhandler$?ScrPlaySound@@YAXPAURPCParameters@@@Z 77f50deb f   scriptrpc.obj
 0001:0004fdeb       __ehhandler$?ScrRemoveComponent@@YAXPAURPCParameters@@@Z 77f50deb f   scriptrpc.obj
 0001:0004fdeb       __ehhandler$?ScrSetWorldBounds@@YAXPAURPCParameters@@@Z 77f50deb f   scriptrpc.obj
 0001:0004fdeb       __ehhandler$?ScrPlayerSpectateVehicle@@YAXPAURPCParameters@@@Z 77f50deb f   scriptrpc.obj
 0001:0004fdeb       __ehhandler$?ScrHaveSomeMoney@@YAXPAURPCParameters@@@Z 77f50deb f   scriptrpc.obj
 0001:0004fdeb       __ehhandler$?ScrPlayerSpectatePlayer@@YAXPAURPCParameters@@@Z 77f50deb f   scriptrpc.obj
 0001:0004fdeb       __ehhandler$?ScrSetPlayerFacingAngle@@YAXPAURPCParameters@@@Z 77f50deb f   scriptrpc.obj
 0001:0004fdeb       __ehhandler$?ScrSetPlayerSpectating@@YAXPAURPCParameters@@@Z 77f50deb f   scriptrpc.obj
 0001:0004fe00       $L112937                   77f50e00 f   scriptrpc.obj
 0001:0004fe0b       __ehhandler$?ScrDisplayGameText@@YAXPAURPCParameters@@@Z 77f50e0b f   scriptrpc.obj
 0001:0004fe20       $L114189                   77f50e20 f   scriptrpc.obj
 0001:0004fe2b       __ehhandler$?ScrAttachObjectToPlayer@@YAXPAURPCParameters@@@Z 77f50e2b f   scriptrpc.obj
 0001:0004fe40       $L114282                   77f50e40 f   scriptrpc.obj
 0001:0004fe4b       __ehhandler$?ScrInitMenu@@YAXPAURPCParameters@@@Z 77f50e4b f   scriptrpc.obj
 0001:0004fe60       $L114420                   77f50e60 f   scriptrpc.obj
 0001:0004fe60       $L114454                   77f50e60 f   scriptrpc.obj
 0001:0004fe6b       __ehhandler$?ScrShowTextDraw@@YAXPAURPCParameters@@@Z 77f50e6b f   scriptrpc.obj
 0001:0004fe6b       __ehhandler$?ScrEditTextDraw@@YAXPAURPCParameters@@@Z 77f50e6b f   scriptrpc.obj
 0001:0004fe80       $L114575                   77f50e80 f   scriptrpc.obj
 0001:0004fe8b       __ehhandler$?ScrApplyAnimation@@YAXPAURPCParameters@@@Z 77f50e8b f   scriptrpc.obj
 0001:0004fea0       $L114639                   77f50ea0 f   scriptrpc.obj
 0001:0004feab       __ehhandler$?ScrClearAnimations@@YAXPAURPCParameters@@@Z 77f50eab f   scriptrpc.obj
 0001:0004fec0       $L111334                   77f50ec0 f   textdrawpool.obj
 0001:0004fecb       __ehhandler$?New@CTextDrawPool@@QAEPAVCTextDraw@@GPAU_TEXT_DRAW_TRANSMIT@@PAD@Z 77f50ecb f   textdrawpool.obj
 0001:0004fee0       $L111609                   77f50ee0 f   vehiclepool.obj
 0001:0004feeb       __ehhandler$?NotifyVehicleDeath@CVehiclePool@@QAEXG@Z 77f50eeb f   vehiclepool.obj
 0001:0004ff00       $L113780                   77f50f00 f   acghost.obj
 0001:0004ff0b       __ehhandler$?InitializeAsArchive@CACGhost@@AAEXAAVBitStream@RakNet@@@Z 77f50f0b f   acghost.obj
 0001:0004ff20       $L113811                   77f50f20 f   acghost.obj
 0001:0004ff2b       __ehhandler$?DownloadAndInitialize@CACGhost@@QAEHXZ 77f50f2b f   acghost.obj
 0001:0004ff40       $L111425                   77f50f40 f   chatwindow.obj
 0001:0004ff4b       __ehhandler$?ResetDialogControls@CChatWindow@@QAEXPAVCDXUTDialog@@@Z 77f50f4b f   chatwindow.obj
 0001:0004ff60       $L111723                   77f50f60 f   cmdprocs.obj
 0001:0004ff6b       __ehhandler$?cmdRcon@@YAXPAD@Z 77f50f6b f   cmdprocs.obj
 0001:0004ff80       $L111598                   77f50f80 f   cmdwindow.obj
 0001:0004ff8b       __ehhandler$?SendToServer@CCmdWindow@@QAEXPAD@Z 77f50f8b f   cmdwindow.obj
 0001:0004ffa0       $L111836                   77f50fa0 f   exceptions.obj
 0001:0004ffab       __ehhandler$?DoCrashReportingStuff@@YAXXZ 77f50fab f   exceptions.obj
 0001:0004ffc0       __ehhandler$?_Copy@?$basic_string@DU?$char_traits@D@std@@V?$allocator@D@2@@std@@IAEXII@Z 77f50fc0 f   subclass.obj
 0001:0004ffd0       $L121865                   77f50fd0 f   subclass.obj
 0001:0004ffd8       __ehhandler$??$?HDU?$char_traits@D@std@@V?$allocator@D@1@@std@@YA?AV?$basic_string@DU?$char_traits@D@std@@V?$allocator@D@2@@0@ABV10@PBD@Z 77f50fd8 f   subclass.obj
 0001:0004fff0       $L122157                   77f50ff0 f   subclass.obj
 0001:0004fffb       $L122158                   77f50ffb f   subclass.obj
 0001:00050006       __ehhandler$?GetScreenshotFileName@@YAXAAV?$basic_string@DU?$char_traits@D@std@@V?$allocator@D@2@@std@@@Z 77f51006 f   subclass.obj
 0001:00050010       $L121462                   77f51010 f   IDirect3DDevice9Hook.obj
 0001:0005001b       $L121463                   77f5101b f   IDirect3DDevice9Hook.obj
 0001:00050026       __ehhandler$?Present@IDirect3DDevice9Hook@@UAGJPBUtagRECT@@0PAUHWND__@@PBU_RGNDATA@@@Z 77f51026 f   IDirect3DDevice9Hook.obj
 0001:00050030       $L113071                   77f51030 f   DXUT.obj
 0001:0005003e       __ehhandler$?GetDXUTState@@YAAAVDXUTState@@XZ 77f5103e f   DXUT.obj
 0001:00050050       $L117532                   77f51050 f   DXUTgui.obj
 0001:0005005e       $L117533                   77f5105e f   DXUTgui.obj
 0001:0005006c       $L117534                   77f5106c f   DXUTgui.obj
 0001:0005007a       $L117535                   77f5107a f   DXUTgui.obj
 0001:00050088       __ehhandler$??1CDXUTDialog@@QAE@XZ 77f51088 f   DXUTgui.obj
 0001:000500a0       $L118959                   77f510a0 f   DXUTgui.obj
 0001:000500ab       __ehhandler$??1CDXUTControl@@UAE@XZ 77f510ab f   DXUTgui.obj
 0001:000500c0       $L119645                   77f510c0 f   DXUTgui.obj
 0001:000500c8       $L119646                   77f510c8 f   DXUTgui.obj
 0001:000500d3       __ehhandler$??0CDXUTEditBox@@QAE@PAVCDXUTDialog@@@Z 77f510d3 f   DXUTgui.obj
 0001:000500e0       $L119680                   77f510e0 f   DXUTgui.obj
 0001:000500e8       __ehhandler$??1CDXUTEditBox@@UAE@XZ 77f510e8 f   DXUTgui.obj
 0001:00050100       $L120020                   77f51100 f   DXUTgui.obj
 0001:0005010b       __ehhandler$?AddEditBox@CDXUTDialog@@QAEJHPBDHHHH_NPAPAVCDXUTEditBox@@@Z 77f5110b f   DXUTgui.obj
 0001:00050120       $L111061                   77f51120 f   DXUTmisc.obj
 0001:00050128       $L111062                   77f51128 f   DXUTmisc.obj
 0001:00050133       $L111063                   77f51133 f   DXUTmisc.obj
 0001:0005013e       __ehhandler$??1CDXUTResourceCache@@QAE@XZ 77f5113e f   DXUTmisc.obj
 0001:00050150       $L2721                     77f51150 f   DS_HuffmanEncodingTree.obj
 0001:0005015b       __ehhandler$?DecodeArray@HuffmanEncodingTree@@QAEXPAEIPAVBitStream@RakNet@@@Z 77f5115b f   DS_HuffmanEncodingTree.obj
 0001:00050170       $L2796                     77f51170 f   DS_HuffmanEncodingTree.obj
 0001:00050178       __ehhandler$?FreeMemory@HuffmanEncodingTree@@QAEXXZ 77f51178 f   DS_HuffmanEncodingTree.obj
 0001:00050190       $L2897                     77f51190 f   DS_HuffmanEncodingTree.obj
 0001:00050198       __ehhandler$??1?$LinkedList@PAUHuffmanEncodingTreeNode@@@DataStructures@@QAE@XZ 77f51198 f   DS_HuffmanEncodingTree.obj
 0001:000501b0       $L2919                     77f511b0 f   DS_HuffmanEncodingTree.obj
 0001:000501bb       $L2920                     77f511bb f   DS_HuffmanEncodingTree.obj
 0001:000501c6       $L3003                     77f511c6 f   DS_HuffmanEncodingTree.obj
 0001:000501d1       __ehhandler$?GenerateFromFrequencyTable@HuffmanEncodingTree@@QAEXQAI@Z 77f511d1 f   DS_HuffmanEncodingTree.obj
 0001:000501e0       $L709                      77f511e0 f   InternalPacketPool.obj
 0001:000501e0       $L755                      77f511e0 f   InternalPacketPool.obj
 0001:000501e8       __ehhandler$??1InternalPacketPool@@QAE@XZ 77f511e8 f   InternalPacketPool.obj
 0001:000501e8       __ehhandler$??0InternalPacketPool@@QAE@XZ 77f511e8 f   InternalPacketPool.obj
 0001:00050200       $L1791                     77f51200 f   NetworkIDGenerator.obj
 0001:00050208       __ehhandler$??1?$AVLBalancedBinarySearchTree@UNetworkIDNode@@@DataStructures@@UAE@XZ 77f51208 f   NetworkIDGenerator.obj
 0001:00050220       $L81918                    77f51220 f   RakClient.obj
 0001:00050228       $L81921                    77f51228 f   RakClient.obj
 0001:00050251       $L81922                    77f51251 f   RakClient.obj
 0001:0005025f       __ehhandler$??1RakClient@@UAE@XZ 77f5125f f   RakClient.obj
 0001:00050270       $L82114                    77f51270 f   RakClient.obj
 0001:00050278       $L82115                    77f51278 f   RakClient.obj
 0001:00050286       $L82116                    77f51286 f   RakClient.obj
 0001:00050294       __ehhandler$??0RakClient@@QAE@XZ 77f51294 f   RakClient.obj
 0001:000502a0       $L82139                    77f512a0 f   RakClient.obj
 0001:000502ab       $L82140                    77f512ab f   RakClient.obj
 0001:000502b6       $L82141                    77f512b6 f   RakClient.obj
 0001:000502c1       __ehhandler$?Receive@RakClient@@UAEPAUPacket@@XZ 77f512c1 f   RakClient.obj
 0001:000502d0       $L85204                    77f512d0 f   RakNetworkFactory.obj
 0001:000502db       __ehhandler$?GetRakClientInterface@RakNetworkFactory@@SAPAVRakClientInterface@@XZ 77f512db f   RakNetworkFactory.obj
 0001:000502f0       $L86453                    77f512f0 f   RakPeer.obj
 0001:000502f0       $L86438                    77f512f0 f   RakPeer.obj
 0001:000502fb       $L86454                    77f512fb f   RakPeer.obj
 0001:000502fb       $L86439                    77f512fb f   RakPeer.obj
 0001:00050309       __ehhandler$??1RemoteSystemStruct@RakPeer@@QAE@XZ 77f51309 f   RakPeer.obj
 0001:00050309       __ehhandler$??0RemoteSystemStruct@RakPeer@@QAE@XZ 77f51309 f   RakPeer.obj
 0001:00050320       $L86563                    77f51320 f   RakPeer.obj
 0001:0005032b       $L86564                    77f5132b f   RakPeer.obj
 0001:00050336       __ehhandler$?GenerateCompressionLayer@RakPeer@@UAE_NQAI_N@Z 77f51336 f   RakPeer.obj
 0001:00050340       $L87225                    77f51340 f   RakPeer.obj
 0001:00050340       $L87287                    77f51340 f   RakPeer.obj
 0001:00050340       $L90266                    77f51340 f   RakPeer.obj
 0001:00050340       $L90304                    77f51340 f   RakPeer.obj
 0001:00050340       $L90161                    77f51340 f   RakPeer.obj
 0001:00050340       $L90207                    77f51340 f   RakPeer.obj
 0001:00050340       $L90356                    77f51340 f   RakPeer.obj
 0001:0005034b       __ehhandler$?SendStaticDataInternal@RakPeer@@IAEXUPlayerID@@_N@Z 77f5134b f   RakPeer.obj
 0001:0005034b       __ehhandler$?OnConnectionRequest@RakPeer@@IAEXPAURemoteSystemStruct@1@PAE_N@Z 77f5134b f   RakPeer.obj
 0001:0005034b       __ehhandler$?Ping@RakPeer@@UAEXPBDG_N@Z 77f5134b f   RakPeer.obj
 0001:0005034b       __ehhandler$?NotifyAndFlagForDisconnect@RakPeer@@IAEXUPlayerID@@_NE@Z 77f5134b f   RakPeer.obj
 0001:0005034b       __ehhandler$?AdvertiseSystem@RakPeer@@UAEXPBDG0H@Z 77f5134b f   RakPeer.obj
 0001:0005034b       __ehhandler$?PingInternal@RakPeer@@IAEXUPlayerID@@_N@Z 77f5134b f   RakPeer.obj
 0001:0005034b       __ehhandler$?ShiftIncomingTimestamp@RakPeer@@IBEXPAEUPlayerID@@@Z 77f5134b f   RakPeer.obj
 0001:00050360       $L89053                    77f51360 f   RakPeer.obj
 0001:0005036b       $L89054                    77f5136b f   RakPeer.obj
 0001:00050376       $L89055                    77f51376 f   RakPeer.obj
 0001:00050381       $L89056                    77f51381 f   RakPeer.obj
 0001:0005038c       __ehhandler$?HandleRPCPacket@RakPeer@@IAE_NPBDHUPlayerID@@@Z 77f5138c f   RakPeer.obj
 0001:000503a0       $L89136                    77f513a0 f   RakPeer.obj
 0001:000503ab       __ehhandler$?SendImmediate@RakPeer@@IAE_NPADHW4PacketPriority@@W4PacketReliability@@DUPlayerID@@_N4_J@Z 77f513ab f   RakPeer.obj
 0001:000503c0       $L89176                    77f513c0 f   RakPeer.obj
 0001:000503c8       __ehhandler$??1?$OrderedList@UPlayerID@@UPlayerIDAndIndex@@$1?PlayerIDAndIndexComp@@YAHABU1@ABU2@@Z@DataStructures@@QAE@XZ 77f513c8 f   RakPeer.obj
 0001:000503e0       $L90021                    77f513e0 f   RakPeer.obj
 0001:000503eb       __ehhandler$?RPC@RakPeer@@UAE_NPADPBDIW4PacketPriority@@W4PacketReliability@@DUPlayerID@@_N5UNetworkID@@PAVBitStream@RakNet@@@Z 77f513eb f   RakPeer.obj
 0001:00050400       $L90286                    77f51400 f   RakPeer.obj
 0001:0005040b       __ehhandler$?SecuredConnectionResponse@RakPeer@@IAEXUPlayerID@@@Z 77f5140b f   RakPeer.obj
 0001:00050420       $L90411                    77f51420 f   RakPeer.obj
 0001:0005042b       $L90412                    77f5142b f   RakPeer.obj
 0001:00050436       $L90413                    77f51436 f   RakPeer.obj
 0001:00050441       __ehhandler$?ProcessNetworkPacket@@YGXIGPBDHPAVRakPeer@@@Z 77f51441 f   RakPeer.obj
 0001:00050450       $L91167                    77f51450 f   RakPeer.obj
 0001:00050450       $L89960                    77f51450 f   RakPeer.obj
 0001:00050458       $L91168                    77f51458 f   RakPeer.obj
 0001:00050458       $L89961                    77f51458 f   RakPeer.obj
 0001:00050463       $L91169                    77f51463 f   RakPeer.obj
 0001:00050463       $L89962                    77f51463 f   RakPeer.obj
 0001:00050471       $L89963                    77f51471 f   RakPeer.obj
 0001:00050471       $L91170                    77f51471 f   RakPeer.obj
 0001:0005047f       $L91171                    77f5147f f   RakPeer.obj
 0001:0005047f       $L89964                    77f5147f f   RakPeer.obj
 0001:00050497       $L91172                    77f51497 f   RakPeer.obj
 0001:00050497       $L89965                    77f51497 f   RakPeer.obj
 0001:000504a5       $L91173                    77f514a5 f   RakPeer.obj
 0001:000504a5       $L89966                    77f514a5 f   RakPeer.obj
 0001:000504b3       $L89967                    77f514b3 f   RakPeer.obj
 0001:000504b3       $L91174                    77f514b3 f   RakPeer.obj
 0001:000504c1       $L89968                    77f514c1 f   RakPeer.obj
 0001:000504c1       $L91175                    77f514c1 f   RakPeer.obj
 0001:000504cf       $L91176                    77f514cf f   RakPeer.obj
 0001:000504cf       $L89969                    77f514cf f   RakPeer.obj
 0001:000504dd       $L89970                    77f514dd f   RakPeer.obj
 0001:000504dd       $L91177                    77f514dd f   RakPeer.obj
 0001:000504eb       $L89971                    77f514eb f   RakPeer.obj
 0001:000504eb       $L91178                    77f514eb f   RakPeer.obj
 0001:000504f9       $L91179                    77f514f9 f   RakPeer.obj
 0001:000504f9       $L89972                    77f514f9 f   RakPeer.obj
 0001:00050507       $L91180                    77f51507 f   RakPeer.obj
 0001:00050507       $L89973                    77f51507 f   RakPeer.obj
 0001:00050515       $L91181                    77f51515 f   RakPeer.obj
 0001:00050515       $L89974                    77f51515 f   RakPeer.obj
 0001:00050523       __ehhandler$??0RakPeer@@QAE@XZ 77f51523 f   RakPeer.obj
 0001:00050523       __ehhandler$??1RakPeer@@UAE@XZ 77f51523 f   RakPeer.obj
 0001:00050530       $L91226                    77f51530 f   RakPeer.obj
 0001:0005053b       __ehhandler$?SecuredConnectionConfirmation@RakPeer@@IAEXPAURemoteSystemStruct@1@PAD@Z 77f5153b f   RakPeer.obj
 0001:00050550       $L91459                    77f51550 f   RakPeer.obj
 0001:0005055b       $L91460                    77f5155b f   RakPeer.obj
 0001:00050566       $L91461                    77f51566 f   RakPeer.obj
 0001:00050571       $L91462                    77f51571 f   RakPeer.obj
 0001:0005057c       $L91463                    77f5157c f   RakPeer.obj
 0001:00050587       $L91464                    77f51587 f   RakPeer.obj
 0001:00050592       $L91465                    77f51592 f   RakPeer.obj
 0001:0005059d       $L91466                    77f5159d f   RakPeer.obj
 0001:000505a8       $L91467                    77f515a8 f   RakPeer.obj
 0001:000505b3       __ehhandler$?RunUpdateCycle@RakPeer@@IAE_NXZ 77f515b3 f   RakPeer.obj
 0001:000505c0       $L91791                    77f515c0 f   RakPeer.obj
 0001:000505ce       __ehhandler$?Initialize@RakPeer@@UAE_NGGHPBD@Z 77f515ce f   RakPeer.obj
 0001:000505e0       $L82767                    77f515e0 f   ReliabilityLayer.obj
 0001:000505e8       __ehhandler$??1?$LinkedList@PAUInternalPacket@@@DataStructures@@QAE@XZ 77f515e8 f   ReliabilityLayer.obj
 0001:00050600       $L82843                    77f51600 f   ReliabilityLayer.obj
 0001:0005060b       __ehhandler$??1?$MemoryPool@U?$Page@GPAUInternalPacket@@$0CA@@DataStructures@@@DataStructures@@QAE@XZ 77f5160b f   ReliabilityLayer.obj
 0001:00050620       $L82973                    77f51620 f   ReliabilityLayer.obj
 0001:00050620       $L82940                    77f51620 f   ReliabilityLayer.obj
 0001:0005062b       __ehhandler$?Insert@?$List@U?$RangeNode@G@DataStructures@@@DataStructures@@QAEXU?$RangeNode@G@2@@Z 77f5162b f   ReliabilityLayer.obj
 0001:0005062b       __ehhandler$?Insert@?$List@U?$RangeNode@G@DataStructures@@@DataStructures@@QAEXU?$RangeNode@G@2@I@Z 77f5162b f   ReliabilityLayer.obj
 0001:00050640       $L83312                    77f51640 f   ReliabilityLayer.obj
 0001:0005064b       __ehhandler$?Serialize@?$RangeList@G@DataStructures@@QAEIPAVBitStream@RakNet@@H_N@Z 77f5164b f   ReliabilityLayer.obj
 0001:00050660       $L83281                    77f51660 f   ReliabilityLayer.obj
 0001:00050660       $L83470                    77f51660 f   ReliabilityLayer.obj
 0001:00050668       __ehhandler$??1?$OrderedList@IPAUInternalPacket@@$1?SplitPacketIndexComp@@YAHABIABQAU1@@Z@DataStructures@@QAE@XZ 77f51668 f   ReliabilityLayer.obj
 0001:00050668       __ehhandler$??1?$OrderedList@GPAUSplitPacketChannel@@$1?SplitPacketChannelComp@@YAHABGABQAU1@@Z@DataStructures@@QAE@XZ 77f51668 f   ReliabilityLayer.obj
 0001:00050680       $L83576                    77f51680 f   ReliabilityLayer.obj
 0001:00050688       __ehhandler$?FreePages@?$BPlusTree@GPAUInternalPacket@@$0CA@@DataStructures@@IAEXXZ 77f51688 f   ReliabilityLayer.obj
 0001:000506a0       $L84247                    77f516a0 f   ReliabilityLayer.obj
 0001:000506a8       __ehhandler$??1?$OrderedList@GU?$RangeNode@G@DataStructures@@$1??$RangeNodeComp@G@2@YAHABGABU12@@Z@DataStructures@@QAE@XZ 77f516a8 f   ReliabilityLayer.obj
 0001:000506c0       $L85238                    77f516c0 f   ReliabilityLayer.obj
 0001:000506c8       __ehhandler$??1?$RangeList@G@DataStructures@@QAE@XZ 77f516c8 f   ReliabilityLayer.obj
 0001:000506e0       $L85317                    77f516e0 f   ReliabilityLayer.obj
 0001:000506e8       __ehhandler$??1?$BPlusTree@GPAUInternalPacket@@$0CA@@DataStructures@@QAE@XZ 77f516e8 f   ReliabilityLayer.obj
 0001:00050700       $L85330                    77f51700 f   ReliabilityLayer.obj
 0001:00050700       $L86279                    77f51700 f   ReliabilityLayer.obj
 0001:00050708       $L86280                    77f51708 f   ReliabilityLayer.obj
 0001:00050708       $L85331                    77f51708 f   ReliabilityLayer.obj
 0001:00050713       $L86281                    77f51713 f   ReliabilityLayer.obj
 0001:00050713       $L85332                    77f51713 f   ReliabilityLayer.obj
 0001:0005071e       $L85333                    77f5171e f   ReliabilityLayer.obj
 0001:0005071e       $L86282                    77f5171e f   ReliabilityLayer.obj
 0001:00050729       $L86283                    77f51729 f   ReliabilityLayer.obj
 0001:00050729       $L85334                    77f51729 f   ReliabilityLayer.obj
 0001:00050734       $L86284                    77f51734 f   ReliabilityLayer.obj
 0001:00050734       $L85335                    77f51734 f   ReliabilityLayer.obj
 0001:0005074a       $L85336                    77f5174a f   ReliabilityLayer.obj
 0001:0005074a       $L86285                    77f5174a f   ReliabilityLayer.obj
 0001:00050758       $L86286                    77f51758 f   ReliabilityLayer.obj
 0001:00050758       $L85337                    77f51758 f   ReliabilityLayer.obj
 0001:00050766       $L85338                    77f51766 f   ReliabilityLayer.obj
 0001:00050766       $L86287                    77f51766 f   ReliabilityLayer.obj
 0001:00050774       $L85339                    77f51774 f   ReliabilityLayer.obj
 0001:00050774       $L86288                    77f51774 f   ReliabilityLayer.obj
 0001:00050782       $L85340                    77f51782 f   ReliabilityLayer.obj
 0001:00050782       $L86289                    77f51782 f   ReliabilityLayer.obj
 0001:00050790       $L85341                    77f51790 f   ReliabilityLayer.obj
 0001:00050790       $L86290                    77f51790 f   ReliabilityLayer.obj
 0001:0005079e       __ehhandler$??1ReliabilityLayer@@QAE@XZ 77f5179e f   ReliabilityLayer.obj
 0001:0005079e       __ehhandler$??0ReliabilityLayer@@QAE@XZ 77f5179e f   ReliabilityLayer.obj
 0001:000507b0       $L85827                    77f517b0 f   ReliabilityLayer.obj
 0001:000507bb       $L85828                    77f517bb f   ReliabilityLayer.obj
 0001:000507c6       __ehhandler$?HandleSocketReceiveFromConnectedPlayer@ReliabilityLayer@@QAE_NPBDHUPlayerID@@AAV?$List@PAVPluginInterface@@@DataStructures@@H@Z 77f517c6 f   ReliabilityLayer.obj
 0001:000507d0       $L1156                     77f517d0 f   RPCMap.obj
 0001:000507d8       __ehhandler$??1RPCMap@@QAE@XZ 77f517d8 f   RPCMap.obj
 0001:000507f0       $L3846                     77f517f0 f   StringCompressor.obj
 0001:000507f8       __ehhandler$??1?$OrderedList@HUMapNode@?$Map@HPAVHuffmanEncodingTree@@$1??$defaultMapKeyComparison@H@DataStructures@@YAHABH0@Z@DataStructures@@$1?NodeComparisonFunc@23@SAHABHABU123@@Z@DataStructures@@QAE@XZ 77f517f8 f   StringCompressor.obj
 0001:00050810       $L3886                     77f51810 f   StringCompressor.obj
 0001:0005081b       __ehhandler$?EncodeString@StringCompressor@@QAEXPBDHPAVBitStream@RakNet@@H@Z 77f5181b f   StringCompressor.obj
 0001:00050830       $L4030                     77f51830 f   StringCompressor.obj
 0001:00050838       __ehhandler$??1?$Map@HPAVHuffmanEncodingTree@@$1??$defaultMapKeyComparison@H@DataStructures@@YAHABH0@Z@DataStructures@@QAE@XZ 77f51838 f   StringCompressor.obj
 0001:00050850       $L4120                     77f51850 f   StringCompressor.obj
 0001:00050858       $L4121                     77f51858 f   StringCompressor.obj
 0001:00050863       __ehhandler$??0StringCompressor@@AAE@XZ 77f51863 f   StringCompressor.obj
 0001:00050870       $L4213                     77f51870 f   StringCompressor.obj
 0001:00050878       __ehhandler$??1StringCompressor@@QAE@XZ 77f51878 f   StringCompressor.obj
 0001:00050890       $L4263                     77f51890 f   StringCompressor.obj
 0001:00050890       $L3714                     77f51890 f   StringCompressor.obj
 0001:00050890       $L3733                     77f51890 f   StringCompressor.obj
 0001:0005089b       __ehhandler$?Insert@?$List@UMapNode@?$Map@HPAVHuffmanEncodingTree@@$1??$defaultMapKeyComparison@H@DataStructures@@YAHABH0@Z@DataStructures@@@DataStructures@@QAEXUMapNode@?$Map@HPAVHuffmanEncodingTree@@$1??$defaultMapKeyComparison@H@DataStructures@@YAHABH0@Z@2@@Z 77f5189b f   StringCompressor.obj
 0001:0005089b       __ehhandler$?AddReference@StringCompressor@@SAXXZ 77f5189b f   StringCompressor.obj
 0001:0005089b       __ehhandler$?Insert@?$List@UMapNode@?$Map@HPAVHuffmanEncodingTree@@$1??$defaultMapKeyComparison@H@DataStructures@@YAHABH0@Z@DataStructures@@@DataStructures@@QAEXUMapNode@?$Map@HPAVHuffmanEncodingTree@@$1??$defaultMapKeyComparison@H@DataStructures@@YAHABH0@Z@2@I@Z 77f5189b f   StringCompressor.obj
 0001:000508b0       $L3823                     77f518b0 f   StringTable.obj
 0001:000508b8       __ehhandler$??1?$OrderedList@PADUStrAndBool@@$1?StrAndBoolComp@@YAHABQADABU1@@Z@DataStructures@@QAE@XZ 77f518b8 f   StringTable.obj
 0001:000508d0       $L3869                     77f518d0 f   StringTable.obj
 0001:000508d8       __ehhandler$??1StringTable@@QAE@XZ 77f518d8 f   StringTable.obj
 0001:000508f0       $L74045                    77f518f0 f   ArchiveFS.obj
 0001:000508f8       $L74046                    77f518f8 f   ArchiveFS.obj
 0001:00050900       $L74047                    77f51900 f   ArchiveFS.obj
 0001:00050908       $L74048                    77f51908 f   ArchiveFS.obj
 0001:00050910       $L74049                    77f51910 f   ArchiveFS.obj
 0001:00050918       __ehhandler$?LoadEntries@CArchiveFS@@AAEXXZ 77f51918 f   ArchiveFS.obj
 0001:00050930       $L74144                    77f51930 f   ArchiveFS.obj
 0001:00050938       __ehhandler$?GetFileData@CArchiveFS@@UAEPAEK@Z 77f51938 f   ArchiveFS.obj
 0001:00050950       $L74163                    77f51950 f   ArchiveFS.obj
 0001:00050958       __ehhandler$??0CFileStream@@QAE@PBDW4eType@0@W4eMode@0@@Z 77f51958 f   ArchiveFS.obj
 0001:00050970       $L74248                    77f51970 f   ArchiveFS.obj
 0001:00050978       __ehhandler$??1CArchiveFS@@UAE@XZ 77f51978 f   ArchiveFS.obj
 0001:00050990       $L74301                    77f51990 f   ArchiveFS.obj
 0001:0005099b       __ehhandler$?Load@CArchiveFS@@UAE_NPAD@Z 77f5199b f   ArchiveFS.obj
 0001:000509b0       $L112645                   77f519b0 f   main.obj
 0001:000509b0       $L112567                   77f519b0 f   main.obj
 0001:000509bb       __ehhandler$?SetupGameUI@@YAXXZ 77f519bb f   main.obj
 0001:000509bb       __ehhandler$?LaunchMonitor@@YAXPAX@Z 77f519bb f   main.obj
 0001:000509d0       $L112752                   77f519d0 f   main.obj
 0001:000509db       $L112753                   77f519db f   main.obj
 0001:000509e6       $L112754                   77f519e6 f   main.obj
 0001:000509f1       $L112755                   77f519f1 f   main.obj
 0001:000509fc       $L112756                   77f519fc f   main.obj
 0001:00050a07       $L112757                   77f51a07 f   main.obj
 0001:00050a12       $L112758                   77f51a12 f   main.obj
 0001:00050a1d       $L112759                   77f51a1d f   main.obj
 0001:00050a28       $L112760                   77f51a28 f   main.obj
 0001:00050a33       $L112761                   77f51a33 f   main.obj
 0001:00050a3e       $L112762                   77f51a3e f   main.obj
 0001:00050a49       $L112763                   77f51a49 f   main.obj
 0001:00050a54       $L112764                   77f51a54 f   main.obj
 0001:00050a5f       __ehhandler$?DoInitStuff@@YAXXZ 77f51a5f f   main.obj
 0001:00050a70       $L112827                   77f51a70 f   main.obj
 0001:00050a7b       $L112828                   77f51a7b f   main.obj
 0001:00050a86       $L112829                   77f51a86 f   main.obj
 0001:00050a91       __ehhandler$_DllMain@12    77f51a91 f   main.obj
 0001:00050a9b       $L11742                    77f51a9b f   libcpmt:string.obj
 0001:00050a9b       $L11600                    77f51a9b f   libcpmt:string.obj
 0001:00050aa3       __ehhandler$??0logic_error@std@@QAE@ABV?$basic_string@DU?$char_traits@D@std@@V?$allocator@D@2@@1@@Z 77f51aa3 f   libcpmt:string.obj
 0001:00050aa3       __ehhandler$??0logic_error@std@@QAE@ABV01@@Z 77f51aa3 f   libcpmt:string.obj
 0001:00050aad       $L11664                    77f51aad f   libcpmt:string.obj
 0001:00050aad       $L11871                    77f51aad f   libcpmt:string.obj
 0001:00050ab5       __ehhandler$?_Xlen@_String_base@std@@QBEXXZ 77f51ab5 f   libcpmt:string.obj
 0001:00050ab5       __ehhandler$?_Xran@_String_base@std@@QBEXXZ 77f51ab5 f   libcpmt:string.obj
 0001:00050ac0       _$E1                       77f51ac0 f   DXUTgui.obj
 0001:00050af0       _$E4                       77f51af0 f   DXUTgui.obj
 0001:00050b10       _$E7                       77f51b10 f   DXUTgui.obj
 0001:00050b20       _$E5                       77f51b20 f   NetworkIDGenerator.obj
 0001:00050b40       _$E8                       77f51b40 f   NetworkIDGenerator.obj
 0001:00050b60       _$E5                       77f51b60 f   SocketLayer.obj
 0001:00050b90       _$E2                       77f51b90 f   DXUT.obj
 0001:00050bb0       _$E2                       77f51bb0 f   DXUTgui.obj
 0001:00050be0       _$E5                       77f51be0 f   DXUTgui.obj
 0001:00050bf0       _$E8                       77f51bf0 f   DXUTgui.obj
 0001:00050c20       _$E2                       77f51c20 f   DXUTmisc.obj
 0001:00050c30       _$E6                       77f51c30 f   NetworkIDGenerator.obj
 0001:00050c40       _$E6                       77f51c40 f   SocketLayer.obj
