; Listing generated by Microsoft (R) Optimizing Compiler Version 18.00.31101.0 

	TITLE	Z:\sampsrc\02Xu1\saco\cmdprocs.cpp
	.686P
	.XMM
	include listing.inc
	.model	flat

INCLUDELIB LIBCMTD
INCLUDELIB OLDNAMES

PUBLIC	?pTestPlayer@@3PAVCRemotePlayer@@A		; pTestPlayer
PUBLIC	?pTrain@@3PAU_VEHICLE_TYPE@@A			; pTrain
PUBLIC	?iCurrentPlayerTest@@3HA			; iCurrentPlayerTest
PUBLIC	?bDontProcessVehiclePool@@3HA			; bDontProcessVehiclePool
_BSS	SEGMENT
?pTestPlayer@@3PAVCRemotePlayer@@A DD 01H DUP (?)	; pTestPlayer
?pTrain@@3PAU_VEHICLE_TYPE@@A DD 01H DUP (?)		; pTrain
?bDontProcessVehiclePool@@3HA DD 01H DUP (?)		; bDontProcessVehiclePool
_BSS	ENDS
CONST	SEGMENT
_create_actor DW 09aH
	DB	'iifffv', 00H
	ORG $+9
	ORG $+2
_select_interior DW 04bbH
	DB	'i', 00H
	ORG $+14
	ORG $+2
_play_sound DW	018cH
	DB	'fffi', 00H
	ORG $+11
	ORG $+2
_get_car_z_angle DW 0174H
	DB	'iv', 00H
	ORG $+13
	ORG $+2
_get_active_interior DW 077eH
	DB	'v', 00H
	ORG $+14
	ORG $+2
_get_actor_z_angle DW 0172H
	DB	'iv', 00H
	ORG $+13
	ORG $+2
_set_actor_z_angle DW 0173H
	DB	'if', 00H
	ORG $+13
	ORG $+2
_actor_task_sit DW 06b0H
	DB	'ii', 00H
	ORG $+13
CONST	ENDS
_DATA	SEGMENT
?iCurrentPlayerTest@@3HA DD 01H				; iCurrentPlayerTest
_DATA	ENDS
PUBLIC	?GetGtaActor@CPlayerPed@@QAEPAU_PED_TYPE@@XZ	; CPlayerPed::GetGtaActor
PUBLIC	?ToggleCheckpoints@CGame@@QAEXH@Z		; CGame::ToggleCheckpoints
PUBLIC	?GetCamera@CGame@@QAEPAVCCamera@@XZ		; CGame::GetCamera
PUBLIC	?FindPlayerPed@CGame@@QAEPAVCPlayerPed@@XZ	; CGame::FindPlayerPed
PUBLIC	??$Write@K@BitStream@RakNet@@QAEXK@Z		; RakNet::BitStream::Write<unsigned long>
PUBLIC	?GetVirtualWorld@CLocalPlayer@@QAEEXZ		; CLocalPlayer::GetVirtualWorld
PUBLIC	?GetPlayerPed@CRemotePlayer@@QAEPAVCPlayerPed@@XZ ; CRemotePlayer::GetPlayerPed
PUBLIC	?GetLocalPlayer@CPlayerPool@@QAEPAVCLocalPlayer@@XZ ; CPlayerPool::GetLocalPlayer
PUBLIC	?GetAt@CPlayerPool@@QAEPAVCRemotePlayer@@E@Z	; CPlayerPool::GetAt
PUBLIC	?GetSlotState@CPlayerPool@@QAEHE@Z		; CPlayerPool::GetSlotState
PUBLIC	?GetAt@CVehiclePool@@QAEPAVCVehicle@@G@Z	; CVehiclePool::GetAt
PUBLIC	?GetSlotState@CVehiclePool@@QAEHG@Z		; CVehiclePool::GetSlotState
PUBLIC	?GetPlayerPool@CNetGame@@QAEPAVCPlayerPool@@XZ	; CNetGame::GetPlayerPool
PUBLIC	?GetVehiclePool@CNetGame@@QAEPAVCVehiclePool@@XZ ; CNetGame::GetVehiclePool
PUBLIC	?GetRakClient@CNetGame@@QAEPAVRakClientInterface@@XZ ; CNetGame::GetRakClient
PUBLIC	?cmdDefaultCmdProc@@YAXPAD@Z			; cmdDefaultCmdProc
PUBLIC	?cmdMsg@@YAXPAD@Z				; cmdMsg
PUBLIC	?cmdTeamMsg@@YAXPAD@Z				; cmdTeamMsg
PUBLIC	?cmdDiscon@@YAXPAD@Z				; cmdDiscon
PUBLIC	?cmdOnfootCorrection@@YAXPAD@Z			; cmdOnfootCorrection
PUBLIC	?cmdInCarCorrection@@YAXPAD@Z			; cmdInCarCorrection
PUBLIC	?cmdInAccMultiplier@@YAXPAD@Z			; cmdInAccMultiplier
PUBLIC	?cmdSetFrameLimit@@YAXPAD@Z			; cmdSetFrameLimit
PUBLIC	?cmdQuit@@YAXPAD@Z				; cmdQuit
PUBLIC	?cmdKill@@YAXPAD@Z				; cmdKill
PUBLIC	?cmdDance@@YAXPAD@Z				; cmdDance
PUBLIC	?cmdHandsUp@@YAXPAD@Z				; cmdHandsUp
PUBLIC	?cmdCigar@@YAXPAD@Z				; cmdCigar
PUBLIC	?cmdRcon@@YAXPAD@Z				; cmdRcon
PUBLIC	??$Write@E@BitStream@RakNet@@QAEXE@Z		; RakNet::BitStream::Write<unsigned char>
PUBLIC	?cmdCmpStat@@YAXPAD@Z				; cmdCmpStat
PUBLIC	?cmdSavePos@@YAXPAD@Z				; cmdSavePos
PUBLIC	?cmdPlayerSkin@@YAXPAD@Z			; cmdPlayerSkin
PUBLIC	?cmdCreateVehicle@@YAXPAD@Z			; cmdCreateVehicle
PUBLIC	?cmdSelectVehicle@@YAXPAD@Z			; cmdSelectVehicle
PUBLIC	?cmdShowInterior@@YAXPAD@Z			; cmdShowInterior
PUBLIC	?cmdDebugLabels@@YAXPAD@Z			; cmdDebugLabels
PUBLIC	?cmdSetInterior@@YAXPAD@Z			; cmdSetInterior
PUBLIC	?cmdPlayerToVehicle@@YAXPAD@Z			; cmdPlayerToVehicle
PUBLIC	?cmdCamMode@@YAXPAD@Z				; cmdCamMode
PUBLIC	?cmdCreatePlayer@@YAXPAD@Z			; cmdCreatePlayer
PUBLIC	?cmdActorDebug@@YAXPAD@Z			; cmdActorDebug
PUBLIC	?cmdActorTaskDebug@@YAXPAD@Z			; cmdActorTaskDebug
PUBLIC	?cmdObjectDebug@@YAXPAD@Z			; cmdObjectDebug
PUBLIC	?cmdVehicleDebug@@YAXPAD@Z			; cmdVehicleDebug
PUBLIC	?cmdShowGameInterfaceDebug@@YAXPAD@Z		; cmdShowGameInterfaceDebug
PUBLIC	?cmdPlayerVehicleDebug@@YAXPAD@Z		; cmdPlayerVehicleDebug
PUBLIC	?cmdDebugStop@@YAXPAD@Z				; cmdDebugStop
PUBLIC	?cmdSetCameraPos@@YAXPAD@Z			; cmdSetCameraPos
PUBLIC	?cmdPutActorInVehicle@@YAXPAD@Z			; cmdPutActorInVehicle
PUBLIC	?cmdGiveActorWeapon@@YAXPAD@Z			; cmdGiveActorWeapon
PUBLIC	?cmdDisplayMemory@@YAXPAD@Z			; cmdDisplayMemory
PUBLIC	?cmdDisplayMemoryAsc@@YAXPAD@Z			; cmdDisplayMemoryAsc
PUBLIC	?cmdSetWeather@@YAXPAD@Z			; cmdSetWeather
PUBLIC	?cmdSetTime@@YAXPAD@Z				; cmdSetTime
PUBLIC	?cmdRemotePlayer@@YAXPAD@Z			; cmdRemotePlayer
PUBLIC	?cmdRemotePlayerRespawn@@YAXPAD@Z		; cmdRemotePlayerRespawn
PUBLIC	?cmdPlayerAddr@@YAXPAD@Z			; cmdPlayerAddr
PUBLIC	?cmdVehicleSyncTest@@YAXPAD@Z			; cmdVehicleSyncTest
PUBLIC	?cmdSay@@YAXPAD@Z				; cmdSay
PUBLIC	?MyCreateActor@@YAKHMMMM@Z			; MyCreateActor
PUBLIC	?cmdCreateActor@@YAXPAD@Z			; cmdCreateActor
PUBLIC	?cmdFreeAim@@YAXPAD@Z				; cmdFreeAim
PUBLIC	?cmdWorldVehicleRemove@@YAXPAD@Z		; cmdWorldVehicleRemove
PUBLIC	?cmdWorldVehicleAdd@@YAXPAD@Z			; cmdWorldVehicleAdd
PUBLIC	?cmdWorldPlayerRemove@@YAXPAD@Z			; cmdWorldPlayerRemove
PUBLIC	?cmdWorldPlayerAdd@@YAXPAD@Z			; cmdWorldPlayerAdd
PUBLIC	?cmdAnimSet@@YAXPAD@Z				; cmdAnimSet
PUBLIC	?cmdKillRemotePlayer@@YAXPAD@Z			; cmdKillRemotePlayer
PUBLIC	?cmdApplyAnimation@@YAXPAD@Z			; cmdApplyAnimation
PUBLIC	?cmdCheckpointTest@@YAXPAD@Z			; cmdCheckpointTest
PUBLIC	?cmdCreateRadarMarkers@@YAXPAD@Z		; cmdCreateRadarMarkers
PUBLIC	?cmdPlaySound@@YAXPAD@Z				; cmdPlaySound
PUBLIC	?cmdSaveLocation@@YAXPAD@Z			; cmdSaveLocation
PUBLIC	?cmdResetVehiclePool@@YAXPAD@Z			; cmdResetVehiclePool
PUBLIC	?cmdDeactivatePlayers@@YAXPAD@Z			; cmdDeactivatePlayers
PUBLIC	?cmdSetFarClip@@YAXPAD@Z			; cmdSetFarClip
PUBLIC	?cmdStartJetpack@@YAXPAD@Z			; cmdStartJetpack
PUBLIC	?cmdStopJetpack@@YAXPAD@Z			; cmdStopJetpack
PUBLIC	?cmdLotsOfV@@YAXPAD@Z				; cmdLotsOfV
PUBLIC	?TestExit@@YAXPAD@Z				; TestExit
PUBLIC	?DriveByTest@@YAXPAD@Z				; DriveByTest
PUBLIC	?cmdLotsOfPlayers@@YAXPAD@Z			; cmdLotsOfPlayers
PUBLIC	?cmdSpectatev@@YAXPAD@Z				; cmdSpectatev
PUBLIC	?cmdSpectatep@@YAXPAD@Z				; cmdSpectatep
PUBLIC	?cmdClothes@@YAXPAD@Z				; cmdClothes
PUBLIC	?cmdNoFire@@YAXPAD@Z				; cmdNoFire
PUBLIC	?cmdSit@@YAXPAD@Z				; cmdSit
PUBLIC	?cmdAttractAddr@@YAXPAD@Z			; cmdAttractAddr
PUBLIC	?cmdPlayerVtbl@@YAXPAD@Z			; cmdPlayerVtbl
PUBLIC	?cmdDumpFreqTable@@YAXPAD@Z			; cmdDumpFreqTable
PUBLIC	?cmdPopWheels@@YAXPAD@Z				; cmdPopWheels
PUBLIC	?cmdVModels@@YAXPAD@Z				; cmdVModels
PUBLIC	?cmdFollowPedSA@@YAXPAD@Z			; cmdFollowPedSA
PUBLIC	?cmdTaskSitIdle@@YAXPAD@Z			; cmdTaskSitIdle
PUBLIC	?cmdBench@@YAXPAD@Z				; cmdBench
PUBLIC	?cmdDisableEnEx@@YAXPAD@Z			; cmdDisableEnEx
PUBLIC	?cmdStartPiss@@YAXPAD@Z				; cmdStartPiss
PUBLIC	?cmdShowMyVirtualWorld@@YAXPAD@Z		; cmdShowMyVirtualWorld
PUBLIC	?cmdShowPlayerVirtualWorld@@YAXPAD@Z		; cmdShowPlayerVirtualWorld
PUBLIC	?SetupCommands@@YAXXZ				; SetupCommands
PUBLIC	??_C@_00CNPNBAHC@?$AA@				; `string'
PUBLIC	??_C@_01CLKCMJKC@?5?$AA@			; `string'
PUBLIC	??_C@_0BJ@FIEMNLKP@Enter?5a?5valid?5player?5ID?$CB?$AA@ ; `string'
PUBLIC	??_C@_0BB@LLMKAKBI@Enter?5a?5message?$CB?$AA@	; `string'
PUBLIC	??_C@_0BH@OLNKLIJE@OnFootCorrection?3?5?$CF?44f?$AA@ ; `string'
PUBLIC	??_C@_0BG@EOCOKIFG@InCarCorrection?3?5?$CF?44f?$AA@ ; `string'
PUBLIC	??_C@_0BG@HIPFIPPJ@InAccMultiplier?3?5?$CF?44f?$AA@ ; `string'
PUBLIC	??_C@_0BB@BNKAPOEA@FrameLimiter?3?5?$CFu?$AA@	; `string'
PUBLIC	??_C@_0CH@NAKDLDLA@FrameLimiter?3?5valid?5amounts?5are?5@ ; `string'
PUBLIC	??_C@_0BA@KDHCFODO@u?3?5?$CF?42f?5d?3?5?$CF?42f?$AA@ ; `string'
PUBLIC	??_C@_01MCMALHOG@a?$AA@				; `string'
PUBLIC	??_C@_0BD@NOAGOKCK@savedpositions?4txt?$AA@	; `string'
PUBLIC	??_C@_0DE@FMDHHILE@I?5can?8t?5open?5the?5savepositions?4t@ ; `string'
PUBLIC	??_C@_0DH@GAFDDILH@AddStaticVehicle?$CI?$CFu?0?$CF?44f?0?$CF?44f?0?$CF?4@ ; `string'
PUBLIC	??_C@_0BF@MFPHHMLJ@?9?$DO?5Vehicle?5pos?5saved?$AA@ ; `string'
PUBLIC	??_C@_0DL@HEPJGMGL@AddPlayerClass?$CI?$CFu?0?$CF?44f?0?$CF?44f?0?$CF?44f@ ; `string'
PUBLIC	??_C@_0BD@DCGAFJB@?9?$DO?5Class?5pos?5saved?$AA@ ; `string'
PUBLIC	??_C@_0CC@IIEMIINO@Usage?3?5player_skin?5?$CIskin?5number?$CJ@ ; `string'
PUBLIC	??_C@_0BI@IMGABIPF@Usage?3?5?1v?5?$CIvehicle?5id?$CJ?4?$AA@ ; `string'
PUBLIC	??_C@_07MNBIJLFM@TYPE_?$CFd?$AA@		; `string'
PUBLIC	??_C@_0CC@MODFFDPO@I?5couldn?8t?5find?5the?5player?5actor@ ; `string'
PUBLIC	??_C@_0BB@JFODDHIN@game?5not?5loaded?4?$AA@	; `string'
PUBLIC	??_C@_0BF@EFIACNEA@Current?5Interior?3?5?$CFu?$AA@ ; `string'
PUBLIC	??_C@_0CD@ONFAMIIJ@Usage?3?5?1setinterior?5?$CIinterior?5id@ ; `string'
PUBLIC	??_C@_04NDPBIA@?$CFu?$CFu?$AA@			; `string'
PUBLIC	??_C@_02DPKJAMEF@?$CFd?$AA@			; `string'
PUBLIC	??_C@_0BP@CHHBBNKH@Usage?3?5?1p?5?$CIplayer_num?$CJ?5?$CIskin?$CJ?4?$AA@ ; `string'
PUBLIC	??_C@_04LLKPOCGK@?$CFd?$CFd?$AA@		; `string'
PUBLIC	??_C@_0CE@ICLOLGEH@I?5couldn?8t?5obtain?5the?5player?5act@ ; `string'
PUBLIC	??_C@_0BB@LLEAAFHH@Game?5not?5loaded?4?$AA@	; `string'
PUBLIC	??_C@_0CE@MFNLJDFI@Usage?3?5?1actor_debug?5?$CIactor?5numbe@ ; `string'
PUBLIC	??_C@_0CJ@HIMCCHDO@Usage?3?5?1actor_task_debug?5?$CIactor?5@ ; `string'
PUBLIC	??_C@_0CI@IBHKBAKE@Usage?3?5?1vehicle_debug?5?$CIvehicle?5n@ ; `string'
PUBLIC	??_C@_0DA@JJCPDCNG@Warning?3?5vehicles?5below?53?5are?5us@ ; `string'
PUBLIC	??_C@_0DL@CEFNHHBM@Usage?3?5?1set_camera_pos?5?$CIx?$CJ?5?$CIy?$CJ?5?$CI@ ; `string'
PUBLIC	??_C@_0N@DFAAALPM@?$CFf?$CFf?$CFf?$CFf?$CFf?$CFf?$AA@ ; `string'
PUBLIC	??_C@_0DD@NOCDPPKP@Usage?3?5give_weapon?5?$CIactor?5number@ ; `string'
PUBLIC	??_C@_0CP@NDDHJKIA@Usage?3?5disp_mem?5?$CIdebug?5address?$CJ?5@ ; `string'
PUBLIC	??_C@_04FCILIGGD@?$CFX?$CFu?$AA@		; `string'
PUBLIC	??_C@_0DA@FEENJLKN@usage?3?5?1disp_mem?5?$CIHex?5Address?$CJ?5?$CI@ ; `string'
PUBLIC	??_C@_0DD@ENEEEHOB@Usage?3?5disp_mem_asc?5?$CIdebug?5addre@ ; `string'
PUBLIC	??_C@_0DE@LMDAJBKE@usage?3?5?1disp_mem_asc?5?$CIHex?5Addres@ ; `string'
PUBLIC	??_C@_0CE@MBMGEPG@Usage?3?5set_weather?5?$CIweather?5numb@ ; `string'
PUBLIC	??_C@_0CA@FOPIPEFN@Usage?3?5set_time?5?$CIhour?$CJ?5?$CIminute?$CJ?$AA@ ; `string'
PUBLIC	??_C@_0DG@FPAFDDMN@Invalid?5Time?4?5Use?5?1set_time?5?$CIhou@ ; `string'
PUBLIC	??_C@_0L@DHHGMKDJ@TestPlayer?$AA@		; `string'
PUBLIC	??_C@_0BE@HBOHGJLO@Created?5Player?3?5?$CFu?6?$AA@ ; `string'
PUBLIC	??_C@_04HKJDGLEA@0x?$CFX?$AA@			; `string'
PUBLIC	??_C@_0BB@KPACBPNC@New?5Actor?3?50x?$CFX?6?$AA@	; `string'
PUBLIC	??_C@_04HDOCAJNK@?$CFs?$CFs?$AA@		; `string'
PUBLIC	??_C@_0BO@LFPOJGKK@Applied?5Anim?3?5?$CFs?5Of?5Group?3?5?$CFs?$AA@ ; `string'
PUBLIC	??_C@_0BD@CEJKELNC@savedlocations?4txt?$AA@	; `string'
PUBLIC	??_C@_0CA@COGOCOAD@?$CF?44f?0?5?$CF?44f?0?5?$CF?44f?0?5?$CF?44f?5?5?5?1?1?5?$CFs?6?$AA@ ; `string'
PUBLIC	??_C@_02NJPGOMH@?$CFf?$AA@			; `string'
PUBLIC	??_C@_04KNCIGIPG@Done?$AA@			; `string'
PUBLIC	??_C@_08EKMEAIFO@?$CFs?5?$CFs?5?$CFd?$AA@	; `string'
PUBLIC	??_C@_01JOAMLHOP@?9?$AA@			; `string'
PUBLIC	??_C@_01NOFIACDB@w?$AA@				; `string'
PUBLIC	??_C@_0P@EFNLGIAL@freqclient?4txt?$AA@		; `string'
PUBLIC	??_C@_03CCFMLOPK@?$CFu?0?$AA@			; `string'
PUBLIC	??_C@_05FPHEHGGN@Done?4?$AA@			; `string'
PUBLIC	??_C@_0O@JKCJDMBD@Wheels?5popped?$AA@		; `string'
PUBLIC	??_C@_0BC@ENEKOIKC@Wheels?5not?5popped?$AA@	; `string'
PUBLIC	??_C@_0BC@LBFPAKDC@Get?5in?5a?5vehicle?4?$AA@	; `string'
PUBLIC	??_C@_0BF@NFAHHJEK@Vehicle?5Types?3?5?$CFu?1?$CFu?$AA@ ; `string'
PUBLIC	??_C@_0M@KHFAPNLB@FollowPedSA?$AA@		; `string'
PUBLIC	??_C@_0M@EJBHFPH@TaskSitIdle?$AA@		; `string'
PUBLIC	??_C@_0CH@JKHDKMBF@Pl?3?5?$CFu?5V?3?5?$CFu?5Pk?3?5?$CFu?5Mn?3?5?$CFu?5O?3?5?$CFu@ ; `string'
PUBLIC	??_C@_08PDNHGHNJ@MyVW?3?5?$CFu?$AA@		; `string'
PUBLIC	??_C@_06BEHAMCOC@VW?3?5?$CFu?$AA@		; `string'
PUBLIC	??_C@_04KNNLNNGO@quit?$AA@			; `string'
PUBLIC	??_C@_01IIACKFLH@q?$AA@				; `string'
PUBLIC	??_C@_04EMMDIJJL@save?$AA@			; `string'
PUBLIC	??_C@_04CLKJCJJE@rcon?$AA@			; `string'
PUBLIC	??_C@_02IGCIGBLK@dl?$AA@			; `string'
PUBLIC	??_C@_04LBJBDPJP@vsel?$AA@			; `string'
PUBLIC	??_C@_01MHEDDDHA@v?$AA@				; `string'
PUBLIC	??_C@_07CJDNLGID@vehicle?$AA@			; `string'
PUBLIC	??_C@_0M@GIICCPDP@player_skin?$AA@		; `string'
PUBLIC	??_C@_03GLPMCEFE@msg?$AA@			; `string'
PUBLIC	??_C@_02IEBMFLFH@pm?$AA@			; `string'
PUBLIC	??_C@_04IAMIEKFK@tmsg?$AA@			; `string'
PUBLIC	??_C@_03LOEEGKJC@tpm?$AA@			; `string'
PUBLIC	??_C@_08PHPHJILJ@interior?$AA@			; `string'
PUBLIC	??_C@_07HNJDBHBL@cmpstat?$AA@			; `string'
PUBLIC	??_C@_0P@PHDBNFAF@onfoot_correct?$AA@		; `string'
PUBLIC	??_C@_0O@ICEDEGDG@incar_correct?$AA@		; `string'
PUBLIC	??_C@_0BB@IOLHKNBN@inacc_multiplier?$AA@	; `string'
PUBLIC	??_C@_08GJFCPBMH@fpslimit?$AA@			; `string'
PUBLIC	??_C@_0M@OHNOAGOE@setinterior?$AA@		; `string'
PUBLIC	??_C@_07LGFKJAB@markers?$AA@			; `string'
PUBLIC	??_C@_06HNNDJBDK@vstest?$AA@			; `string'
PUBLIC	??_C@_05HNOBFLM@paddr?$AA@			; `string'
PUBLIC	??_C@_07IKBHEKM@cammode?$AA@			; `string'
PUBLIC	??_C@_04BOLMINIL@ptov?$AA@			; `string'
PUBLIC	??_C@_01JBBJJEPG@p?$AA@				; `string'
PUBLIC	??_C@_06BALNJMNP@player?$AA@			; `string'
PUBLIC	??_C@_05OJNICPJM@actor?$AA@			; `string'
PUBLIC	??_C@_0M@JCGFFAMI@actor_debug?$AA@		; `string'
PUBLIC	??_C@_0BB@NKAGGKGG@actor_task_debug?$AA@	; `string'
PUBLIC	??_C@_0O@MMPNICKN@vehicle_debug?$AA@		; `string'
PUBLIC	??_C@_08HNOJPEOP@pv_debug?$AA@			; `string'
PUBLIC	??_C@_0L@FAMMMCDN@debug_stop?$AA@		; `string'
PUBLIC	??_C@_01LKDEMHDF@s?$AA@				; `string'
PUBLIC	??_C@_0M@PFBOFJII@set_cam_pos?$AA@		; `string'
PUBLIC	??_C@_03DKLFPAL@a2v?$AA@			; `string'
PUBLIC	??_C@_0M@JELCIAON@give_weapon?$AA@		; `string'
PUBLIC	??_C@_08OMDPCMPL@disp_mem?$AA@			; `string'
PUBLIC	??_C@_0N@LAOMIMFM@disp_mem_asc?$AA@		; `string'
PUBLIC	??_C@_0M@LJFCFHMD@set_weather?$AA@		; `string'
PUBLIC	??_C@_08LPNFMNJD@set_time?$AA@			; `string'
PUBLIC	??_C@_02HIPEODCF@rp?$AA@			; `string'
PUBLIC	??_C@_03FGHFDLNA@rpr?$AA@			; `string'
PUBLIC	??_C@_03BANJEMDJ@say?$AA@			; `string'
PUBLIC	??_C@_07OKIKFLFP@freeaim?$AA@			; `string'
PUBLIC	??_C@_0P@BEDPPNKM@vehicle_remove?$AA@		; `string'
PUBLIC	??_C@_0M@GBPDEOIG@vehicle_add?$AA@		; `string'
PUBLIC	??_C@_0O@GKLIFPIG@player_remove?$AA@		; `string'
PUBLIC	??_C@_0L@LBHECNOJ@player_add?$AA@		; `string'
PUBLIC	??_C@_07GPIJOACO@animset?$AA@			; `string'
PUBLIC	??_C@_0M@HJNHJCFB@kill_player?$AA@		; `string'
PUBLIC	??_C@_04NBCDDDGK@anim?$AA@			; `string'
PUBLIC	??_C@_09JMDGCHLN@checktest?$AA@			; `string'
PUBLIC	??_C@_02FAFNGEII@ps?$AA@			; `string'
PUBLIC	??_C@_02JPEBNEEP@sl?$AA@			; `string'
PUBLIC	??_C@_07OKFMAILE@resetvp?$AA@			; `string'
PUBLIC	??_C@_0L@NPGBCGOP@deactivate?$AA@		; `string'
PUBLIC	??_C@_0L@NDMNKJNE@setfarclip?$AA@		; `string'
PUBLIC	??_C@_0O@DLDBEBPO@start_jetpack?$AA@		; `string'
PUBLIC	??_C@_0N@PGLBFNCH@stop_jetpack?$AA@		; `string'
PUBLIC	??_C@_07BINMPCBB@lotsofv?$AA@			; `string'
PUBLIC	??_C@_06CHDIMBDP@cursor?$AA@			; `string'
PUBLIC	??_C@_0M@BCDKJEOP@drivebytest?$AA@		; `string'
PUBLIC	??_C@_05FDAPMKEC@specp?$AA@			; `string'
PUBLIC	??_C@_05FFFGNME@specv?$AA@			; `string'
PUBLIC	??_C@_07MJMDKGMN@clothes?$AA@			; `string'
PUBLIC	??_C@_06FPBLLDAO@nofire?$AA@			; `string'
PUBLIC	??_C@_03KLGEGDMM@sit?$AA@			; `string'
PUBLIC	??_C@_08LCPGCPGP@dumpfreq?$AA@			; `string'
PUBLIC	??_C@_07PECNBBO@attract?$AA@			; `string'
PUBLIC	??_C@_03NJDAHFJE@pop?$AA@			; `string'
PUBLIC	??_C@_05FFMLEKNM@pvtbl?$AA@			; `string'
PUBLIC	??_C@_04NKGMJHEH@danc?$AA@			; `string'
PUBLIC	??_C@_07MGLEOGOG@vmodels?$AA@			; `string'
PUBLIC	??_C@_09BOOGLIAK@followped?$AA@			; `string'
PUBLIC	??_C@_07EPLOCIMK@sitidle?$AA@			; `string'
PUBLIC	??_C@_05GGJPBMNG@bench?$AA@			; `string'
PUBLIC	??_C@_07HODFHKLG@disenex?$AA@			; `string'
PUBLIC	??_C@_07CKPNEIID@dbgpiss?$AA@			; `string'
PUBLIC	??_C@_08PPJIAJAD@showmyvw?$AA@			; `string'
PUBLIC	??_C@_0N@NILPEJFO@showplayervw?$AA@		; `string'
PUBLIC	__real@00000000
PUBLIC	__real@3dcccccd
PUBLIC	__real@3e800000
PUBLIC	__real@3f800000
PUBLIC	__real@3fb00000
PUBLIC	__real@40000000
PUBLIC	__real@40a00000
PUBLIC	__real@40e00000
PUBLIC	__real@41200000
PUBLIC	__real@42200000
PUBLIC	__real@42c80000
PUBLIC	__real@44b95826
PUBLIC	__real@454a4748
PUBLIC	__xmm@41f00000000000000000000000000000
EXTRN	??2@YAPAXI@Z:PROC				; operator new
EXTRN	??3@YAXPAX@Z:PROC				; operator delete
EXTRN	_fclose:PROC
EXTRN	_fopen:PROC
EXTRN	_fprintf:PROC
EXTRN	_sscanf:PROC
EXTRN	_sprintf:PROC
EXTRN	_memset:PROC
EXTRN	_strcpy:PROC
EXTRN	_strcmp:PROC
EXTRN	_strlen:PROC
EXTRN	_strtok:PROC
EXTRN	__imp__Sleep@4:PROC
EXTRN	__imp__ShowCursor@4:PROC
EXTRN	__imp__SetCursor@4:PROC
EXTRN	__imp__LoadCursorA@8:PROC
EXTRN	_atof:PROC
EXTRN	_atoi:PROC
EXTRN	?GameDebugEntity@@YAXKKH@Z:PROC			; GameDebugEntity
EXTRN	?GameDebugScreensOff@@YAXXZ:PROC		; GameDebugScreensOff
EXTRN	?GetMatrix@CEntity@@QAEXPAU_MATRIX4X4@@@Z:PROC	; CEntity::GetMatrix
EXTRN	?GetModelIndex@CEntity@@QAEIXZ:PROC		; CEntity::GetModelIndex
EXTRN	?TeleportTo@CEntity@@QAEXMMM@Z:PROC		; CEntity::TeleportTo
EXTRN	?SetWheelPopped@CVehicle@@QAEXKK@Z:PROC		; CVehicle::SetWheelPopped
EXTRN	?GameGetInternalAim@@YGPAU_CAMERA_AIM@@XZ:PROC	; GameGetInternalAim
EXTRN	?IsInVehicle@CPlayerPed@@QAEHXZ:PROC		; CPlayerPed::IsInVehicle
EXTRN	?GiveWeapon@CPlayerPed@@QAEXHH@Z:PROC		; CPlayerPed::GiveWeapon
EXTRN	?PutDirectlyInVehicle@CPlayerPed@@QAEXHH@Z:PROC	; CPlayerPed::PutDirectlyInVehicle
EXTRN	?GetGtaVehicle@CPlayerPed@@QAEPAU_VEHICLE_TYPE@@XZ:PROC ; CPlayerPed::GetGtaVehicle
EXTRN	?StartJetpack@CPlayerPed@@QAEXXZ:PROC		; CPlayerPed::StartJetpack
EXTRN	?StopJetpack@CPlayerPed@@QAEXXZ:PROC		; CPlayerPed::StopJetpack
EXTRN	?StartPassengerDriveByMode@CPlayerPed@@QAEHXZ:PROC ; CPlayerPed::StartPassengerDriveByMode
EXTRN	?SetModelIndex@CPlayerPed@@QAEXI@Z:PROC		; CPlayerPed::SetModelIndex
EXTRN	?SetDead@CPlayerPed@@QAEXXZ:PROC		; CPlayerPed::SetDead
EXTRN	?ExtinguishFire@CPlayerPed@@QAEXXZ:PROC		; CPlayerPed::ExtinguishFire
EXTRN	?SetAnimationSet@CPlayerPed@@QAEXPAD@Z:PROC	; CPlayerPed::SetAnimationSet
EXTRN	?ResetDamageEntity@CPlayerPed@@QAEXXZ:PROC	; CPlayerPed::ResetDamageEntity
EXTRN	??0CPlayerPed@@QAE@XZ:PROC			; CPlayerPed::CPlayerPed
EXTRN	?StartDancing@CPlayerPed@@QAEXH@Z:PROC		; CPlayerPed::StartDancing
EXTRN	?HandsUp@CPlayerPed@@QAEXXZ:PROC		; CPlayerPed::HandsUp
EXTRN	?HoldItem@CPlayerPed@@QAEXH@Z:PROC		; CPlayerPed::HoldItem
EXTRN	?ApplyCommandTask@CPlayerPed@@QAEXPADHHHPAU_VECTOR@@HMHHH@Z:PROC ; CPlayerPed::ApplyCommandTask
EXTRN	?ScriptCommand@@YAHPBUSCRIPT_COMMAND@@ZZ:PROC	; ScriptCommand
EXTRN	?SetPosition@CCamera@@QAEXMMMMMM@Z:PROC		; CCamera::SetPosition
EXTRN	?LookAtPoint@CCamera@@QAEXMMMH@Z:PROC		; CCamera::LookAtPoint
EXTRN	?NewPlayer@CGame@@QAEPAVCPlayerPed@@HHMMMME@Z:PROC ; CGame::NewPlayer
EXTRN	?NewVehicle@CGame@@QAEPAVCVehicle@@HMMMMPAD@Z:PROC ; CGame::NewVehicle
EXTRN	?IsGameLoaded@CGame@@QAEHXZ:PROC		; CGame::IsGameLoaded
EXTRN	?RequestModel@CGame@@QAEXH@Z:PROC		; CGame::RequestModel
EXTRN	?LoadRequestedModels@CGame@@QAEXXZ:PROC		; CGame::LoadRequestedModels
EXTRN	?IsModelLoaded@CGame@@QAEHH@Z:PROC		; CGame::IsModelLoaded
EXTRN	?SetWorldTime@CGame@@QAEXHH@Z:PROC		; CGame::SetWorldTime
EXTRN	?SetWorldWeather@CGame@@QAEXH@Z:PROC		; CGame::SetWorldWeather
EXTRN	?SetCheckpointInformation@CGame@@QAEXPAU_VECTOR@@0@Z:PROC ; CGame::SetCheckpointInformation
EXTRN	?CreateRadarMarkerIcon@CGame@@QAEKHMMMH@Z:PROC	; CGame::CreateRadarMarkerIcon
EXTRN	?DisableEnterExits@CGame@@QAEXXZ:PROC		; CGame::DisableEnterExits
EXTRN	??0BitStream@RakNet@@QAE@XZ:PROC		; RakNet::BitStream::BitStream
EXTRN	??1BitStream@RakNet@@QAE@XZ:PROC		; RakNet::BitStream::~BitStream
EXTRN	?Write@BitStream@RakNet@@QAEXPBDH@Z:PROC	; RakNet::BitStream::Write
EXTRN	?WriteBits@BitStream@RakNet@@QAEXPBEH_N@Z:PROC	; RakNet::BitStream::WriteBits
EXTRN	?ApplySpecialAction@CLocalPlayer@@QAEXE@Z:PROC	; CLocalPlayer::ApplySpecialAction
EXTRN	?Say@CLocalPlayer@@QAEXPAD@Z:PROC		; CLocalPlayer::Say
EXTRN	?Msg@CLocalPlayer@@QAEXEPAD@Z:PROC		; CLocalPlayer::Msg
EXTRN	?TeamMsg@CLocalPlayer@@QAEXPAD@Z:PROC		; CLocalPlayer::TeamMsg
EXTRN	?ToggleSpectating@CLocalPlayer@@QAEXH@Z:PROC	; CLocalPlayer::ToggleSpectating
EXTRN	?SpectateVehicle@CLocalPlayer@@QAEXG@Z:PROC	; CLocalPlayer::SpectateVehicle
EXTRN	?SpectatePlayer@CLocalPlayer@@QAEXE@Z:PROC	; CLocalPlayer::SpectatePlayer
EXTRN	?Spawn@CRemotePlayer@@QAEHEHPAU_VECTOR@@MK@Z:PROC ; CRemotePlayer::Spawn
EXTRN	?New@CPlayerPool@@QAEHEPAD@Z:PROC		; CPlayerPool::New
EXTRN	?DeactivateAll@CPlayerPool@@QAEXXZ:PROC		; CPlayerPool::DeactivateAll
EXTRN	?New@CVehiclePool@@QAEHGHPAU_VECTOR@@MHH0MHPAD@Z:PROC ; CVehiclePool::New
EXTRN	?FindGtaIDFromID@CVehiclePool@@QAEHH@Z:PROC	; CVehiclePool::FindGtaIDFromID
EXTRN	?ResetVehiclePool@CNetGame@@QAEXXZ:PROC		; CNetGame::ResetVehiclePool
EXTRN	?AddInfoMessage@CChatWindow@@QAAXPADZZ:PROC	; CChatWindow::AddInfoMessage
EXTRN	?AddDebugMessage@CChatWindow@@QAAXPADZZ:PROC	; CChatWindow::AddDebugMessage
EXTRN	?AddDefaultCmdProc@CCmdWindow@@QAEXP6AXPAD@Z@Z:PROC ; CCmdWindow::AddDefaultCmdProc
EXTRN	?AddCmdProc@CCmdWindow@@QAEXPADP6AX0@Z@Z:PROC	; CCmdWindow::AddCmdProc
EXTRN	?QuitGame@@YAXXZ:PROC				; QuitGame
EXTRN	?UnFuck@@YAXKH@Z:PROC				; UnFuck
EXTRN	?GamePool_Ped_GetAt@@YGPAU_PED_TYPE@@H@Z:PROC	; GamePool_Ped_GetAt
EXTRN	?GamePool_Vehicle_GetIndex@@YGKPAU_VEHICLE_TYPE@@@Z:PROC ; GamePool_Vehicle_GetIndex
EXTRN	?GamePool_FindPlayerPed@@YGPAU_PED_TYPE@@XZ:PROC ; GamePool_FindPlayerPed
EXTRN	?IsNumeric@@YA_NPAD@Z:PROC			; IsNumeric
EXTRN	@_RTC_CheckStackVars@8:PROC
EXTRN	@__security_check_cookie@4:PROC
EXTRN	__RTC_CheckEsp:PROC
EXTRN	__RTC_InitBase:PROC
EXTRN	__RTC_Shutdown:PROC
EXTRN	___CxxFrameHandler3:PROC
EXTRN	__ftoui3:PROC
EXTRN	?pGame@@3PAVCGame@@A:DWORD			; pGame
EXTRN	?pChatWindow@@3PAVCChatWindow@@A:DWORD		; pChatWindow
EXTRN	?pCmdWindow@@3PAVCCmdWindow@@A:DWORD		; pCmdWindow
EXTRN	?pNetGame@@3PAVCNetGame@@A:DWORD		; pNetGame
EXTRN	?pD3DDevice@@3PAUIDirect3DDevice9@@A:DWORD	; pD3DDevice
EXTRN	?tSettings@@3U_GAME_SETTINGS@@A:BYTE		; tSettings
EXTRN	?pbyteCameraMode@@3PAEA:DWORD			; pbyteCameraMode
EXTRN	?bShowDebugLabels@@3_NA:BYTE			; bShowDebugLabels
EXTRN	?fFarClip@@3MA:DWORD				; fFarClip
EXTRN	?_recvfromUncompressedTotal@@3KA:DWORD		; _recvfromUncompressedTotal
EXTRN	?_recvfromCompressedTotal@@3KA:DWORD		; _recvfromCompressedTotal
EXTRN	?_sendtoUncompressedTotal@@3KA:DWORD		; _sendtoUncompressedTotal
EXTRN	?_sendtoCompressedTotal@@3KA:DWORD		; _sendtoCompressedTotal
EXTRN	?fOnFootCorrectionMultiplier@@3MA:DWORD		; fOnFootCorrectionMultiplier
EXTRN	?fInCarCorrectionMultiplier@@3MA:DWORD		; fInCarCorrectionMultiplier
EXTRN	?fInaccuracyFactorMultiplier@@3MA:DWORD		; fInaccuracyFactorMultiplier
EXTRN	?iVehiclesBench@@3HA:DWORD			; iVehiclesBench
EXTRN	?iPlayersBench@@3HA:DWORD			; iPlayersBench
EXTRN	?iPicksupsBench@@3HA:DWORD			; iPicksupsBench
EXTRN	?iMenuBench@@3HA:DWORD				; iMenuBench
EXTRN	?iObjectBench@@3HA:DWORD			; iObjectBench
EXTRN	?iTextDrawBench@@3HA:DWORD			; iTextDrawBench
EXTRN	___security_cookie:DWORD
EXTRN	__fltused:DWORD
;	COMDAT __xmm@41f00000000000000000000000000000
CONST	SEGMENT
__xmm@41f00000000000000000000000000000 DB 00H, 00H, 00H, 00H, 00H, 00H, 00H
	DB	00H, 00H, 00H, 00H, 00H, 00H, 00H, 0f0H, 'A'
CONST	ENDS
;	COMDAT __real@454a4748
CONST	SEGMENT
__real@454a4748 DD 0454a4748r			; 3236.46
CONST	ENDS
;	COMDAT __real@44b95826
CONST	SEGMENT
__real@44b95826 DD 044b95826r			; 1482.75
CONST	ENDS
;	COMDAT __real@42c80000
CONST	SEGMENT
__real@42c80000 DD 042c80000r			; 100
CONST	ENDS
;	COMDAT __real@42200000
CONST	SEGMENT
__real@42200000 DD 042200000r			; 40
CONST	ENDS
;	COMDAT __real@41200000
CONST	SEGMENT
__real@41200000 DD 041200000r			; 10
CONST	ENDS
;	COMDAT __real@40e00000
CONST	SEGMENT
__real@40e00000 DD 040e00000r			; 7
CONST	ENDS
;	COMDAT __real@40a00000
CONST	SEGMENT
__real@40a00000 DD 040a00000r			; 5
CONST	ENDS
;	COMDAT __real@40000000
CONST	SEGMENT
__real@40000000 DD 040000000r			; 2
CONST	ENDS
;	COMDAT __real@3fb00000
CONST	SEGMENT
__real@3fb00000 DD 03fb00000r			; 1.375
CONST	ENDS
;	COMDAT __real@3f800000
CONST	SEGMENT
__real@3f800000 DD 03f800000r			; 1
CONST	ENDS
;	COMDAT __real@3e800000
CONST	SEGMENT
__real@3e800000 DD 03e800000r			; 0.25
CONST	ENDS
;	COMDAT __real@3dcccccd
CONST	SEGMENT
__real@3dcccccd DD 03dcccccdr			; 0.1
CONST	ENDS
;	COMDAT __real@00000000
CONST	SEGMENT
__real@00000000 DD 000000000r			; 0
CONST	ENDS
;	COMDAT rtc$TMZ
rtc$TMZ	SEGMENT
__RTC_Shutdown.rtc$TMZ DD FLAT:__RTC_Shutdown
rtc$TMZ	ENDS
;	COMDAT rtc$IMZ
rtc$IMZ	SEGMENT
__RTC_InitBase.rtc$IMZ DD FLAT:__RTC_InitBase
rtc$IMZ	ENDS
;	COMDAT ??_C@_0N@NILPEJFO@showplayervw?$AA@
CONST	SEGMENT
??_C@_0N@NILPEJFO@showplayervw?$AA@ DB 'showplayervw', 00H ; `string'
CONST	ENDS
;	COMDAT ??_C@_08PPJIAJAD@showmyvw?$AA@
CONST	SEGMENT
??_C@_08PPJIAJAD@showmyvw?$AA@ DB 'showmyvw', 00H	; `string'
CONST	ENDS
;	COMDAT ??_C@_07CKPNEIID@dbgpiss?$AA@
CONST	SEGMENT
??_C@_07CKPNEIID@dbgpiss?$AA@ DB 'dbgpiss', 00H		; `string'
CONST	ENDS
;	COMDAT ??_C@_07HODFHKLG@disenex?$AA@
CONST	SEGMENT
??_C@_07HODFHKLG@disenex?$AA@ DB 'disenex', 00H		; `string'
CONST	ENDS
;	COMDAT ??_C@_05GGJPBMNG@bench?$AA@
CONST	SEGMENT
??_C@_05GGJPBMNG@bench?$AA@ DB 'bench', 00H		; `string'
CONST	ENDS
;	COMDAT ??_C@_07EPLOCIMK@sitidle?$AA@
CONST	SEGMENT
??_C@_07EPLOCIMK@sitidle?$AA@ DB 'sitidle', 00H		; `string'
CONST	ENDS
;	COMDAT ??_C@_09BOOGLIAK@followped?$AA@
CONST	SEGMENT
??_C@_09BOOGLIAK@followped?$AA@ DB 'followped', 00H	; `string'
CONST	ENDS
;	COMDAT ??_C@_07MGLEOGOG@vmodels?$AA@
CONST	SEGMENT
??_C@_07MGLEOGOG@vmodels?$AA@ DB 'vmodels', 00H		; `string'
CONST	ENDS
;	COMDAT ??_C@_04NKGMJHEH@danc?$AA@
CONST	SEGMENT
??_C@_04NKGMJHEH@danc?$AA@ DB 'danc', 00H		; `string'
CONST	ENDS
;	COMDAT ??_C@_05FFMLEKNM@pvtbl?$AA@
CONST	SEGMENT
??_C@_05FFMLEKNM@pvtbl?$AA@ DB 'pvtbl', 00H		; `string'
CONST	ENDS
;	COMDAT ??_C@_03NJDAHFJE@pop?$AA@
CONST	SEGMENT
??_C@_03NJDAHFJE@pop?$AA@ DB 'pop', 00H			; `string'
CONST	ENDS
;	COMDAT ??_C@_07PECNBBO@attract?$AA@
CONST	SEGMENT
??_C@_07PECNBBO@attract?$AA@ DB 'attract', 00H		; `string'
CONST	ENDS
;	COMDAT ??_C@_08LCPGCPGP@dumpfreq?$AA@
CONST	SEGMENT
??_C@_08LCPGCPGP@dumpfreq?$AA@ DB 'dumpfreq', 00H	; `string'
CONST	ENDS
;	COMDAT ??_C@_03KLGEGDMM@sit?$AA@
CONST	SEGMENT
??_C@_03KLGEGDMM@sit?$AA@ DB 'sit', 00H			; `string'
CONST	ENDS
;	COMDAT ??_C@_06FPBLLDAO@nofire?$AA@
CONST	SEGMENT
??_C@_06FPBLLDAO@nofire?$AA@ DB 'nofire', 00H		; `string'
CONST	ENDS
;	COMDAT ??_C@_07MJMDKGMN@clothes?$AA@
CONST	SEGMENT
??_C@_07MJMDKGMN@clothes?$AA@ DB 'clothes', 00H		; `string'
CONST	ENDS
;	COMDAT ??_C@_05FFFGNME@specv?$AA@
CONST	SEGMENT
??_C@_05FFFGNME@specv?$AA@ DB 'specv', 00H		; `string'
CONST	ENDS
;	COMDAT ??_C@_05FDAPMKEC@specp?$AA@
CONST	SEGMENT
??_C@_05FDAPMKEC@specp?$AA@ DB 'specp', 00H		; `string'
CONST	ENDS
;	COMDAT ??_C@_0M@BCDKJEOP@drivebytest?$AA@
CONST	SEGMENT
??_C@_0M@BCDKJEOP@drivebytest?$AA@ DB 'drivebytest', 00H ; `string'
CONST	ENDS
;	COMDAT ??_C@_06CHDIMBDP@cursor?$AA@
CONST	SEGMENT
??_C@_06CHDIMBDP@cursor?$AA@ DB 'cursor', 00H		; `string'
CONST	ENDS
;	COMDAT ??_C@_07BINMPCBB@lotsofv?$AA@
CONST	SEGMENT
??_C@_07BINMPCBB@lotsofv?$AA@ DB 'lotsofv', 00H		; `string'
CONST	ENDS
;	COMDAT ??_C@_0N@PGLBFNCH@stop_jetpack?$AA@
CONST	SEGMENT
??_C@_0N@PGLBFNCH@stop_jetpack?$AA@ DB 'stop_jetpack', 00H ; `string'
CONST	ENDS
;	COMDAT ??_C@_0O@DLDBEBPO@start_jetpack?$AA@
CONST	SEGMENT
??_C@_0O@DLDBEBPO@start_jetpack?$AA@ DB 'start_jetpack', 00H ; `string'
CONST	ENDS
;	COMDAT ??_C@_0L@NDMNKJNE@setfarclip?$AA@
CONST	SEGMENT
??_C@_0L@NDMNKJNE@setfarclip?$AA@ DB 'setfarclip', 00H	; `string'
CONST	ENDS
;	COMDAT ??_C@_0L@NPGBCGOP@deactivate?$AA@
CONST	SEGMENT
??_C@_0L@NPGBCGOP@deactivate?$AA@ DB 'deactivate', 00H	; `string'
CONST	ENDS
;	COMDAT ??_C@_07OKFMAILE@resetvp?$AA@
CONST	SEGMENT
??_C@_07OKFMAILE@resetvp?$AA@ DB 'resetvp', 00H		; `string'
CONST	ENDS
;	COMDAT ??_C@_02JPEBNEEP@sl?$AA@
CONST	SEGMENT
??_C@_02JPEBNEEP@sl?$AA@ DB 'sl', 00H			; `string'
CONST	ENDS
;	COMDAT ??_C@_02FAFNGEII@ps?$AA@
CONST	SEGMENT
??_C@_02FAFNGEII@ps?$AA@ DB 'ps', 00H			; `string'
CONST	ENDS
;	COMDAT ??_C@_09JMDGCHLN@checktest?$AA@
CONST	SEGMENT
??_C@_09JMDGCHLN@checktest?$AA@ DB 'checktest', 00H	; `string'
CONST	ENDS
;	COMDAT ??_C@_04NBCDDDGK@anim?$AA@
CONST	SEGMENT
??_C@_04NBCDDDGK@anim?$AA@ DB 'anim', 00H		; `string'
CONST	ENDS
;	COMDAT ??_C@_0M@HJNHJCFB@kill_player?$AA@
CONST	SEGMENT
??_C@_0M@HJNHJCFB@kill_player?$AA@ DB 'kill_player', 00H ; `string'
CONST	ENDS
;	COMDAT ??_C@_07GPIJOACO@animset?$AA@
CONST	SEGMENT
??_C@_07GPIJOACO@animset?$AA@ DB 'animset', 00H		; `string'
CONST	ENDS
;	COMDAT ??_C@_0L@LBHECNOJ@player_add?$AA@
CONST	SEGMENT
??_C@_0L@LBHECNOJ@player_add?$AA@ DB 'player_add', 00H	; `string'
CONST	ENDS
;	COMDAT ??_C@_0O@GKLIFPIG@player_remove?$AA@
CONST	SEGMENT
??_C@_0O@GKLIFPIG@player_remove?$AA@ DB 'player_remove', 00H ; `string'
CONST	ENDS
;	COMDAT ??_C@_0M@GBPDEOIG@vehicle_add?$AA@
CONST	SEGMENT
??_C@_0M@GBPDEOIG@vehicle_add?$AA@ DB 'vehicle_add', 00H ; `string'
CONST	ENDS
;	COMDAT ??_C@_0P@BEDPPNKM@vehicle_remove?$AA@
CONST	SEGMENT
??_C@_0P@BEDPPNKM@vehicle_remove?$AA@ DB 'vehicle_remove', 00H ; `string'
CONST	ENDS
;	COMDAT ??_C@_07OKIKFLFP@freeaim?$AA@
CONST	SEGMENT
??_C@_07OKIKFLFP@freeaim?$AA@ DB 'freeaim', 00H		; `string'
CONST	ENDS
;	COMDAT ??_C@_03BANJEMDJ@say?$AA@
CONST	SEGMENT
??_C@_03BANJEMDJ@say?$AA@ DB 'say', 00H			; `string'
CONST	ENDS
;	COMDAT ??_C@_03FGHFDLNA@rpr?$AA@
CONST	SEGMENT
??_C@_03FGHFDLNA@rpr?$AA@ DB 'rpr', 00H			; `string'
CONST	ENDS
;	COMDAT ??_C@_02HIPEODCF@rp?$AA@
CONST	SEGMENT
??_C@_02HIPEODCF@rp?$AA@ DB 'rp', 00H			; `string'
CONST	ENDS
;	COMDAT ??_C@_08LPNFMNJD@set_time?$AA@
CONST	SEGMENT
??_C@_08LPNFMNJD@set_time?$AA@ DB 'set_time', 00H	; `string'
CONST	ENDS
;	COMDAT ??_C@_0M@LJFCFHMD@set_weather?$AA@
CONST	SEGMENT
??_C@_0M@LJFCFHMD@set_weather?$AA@ DB 'set_weather', 00H ; `string'
CONST	ENDS
;	COMDAT ??_C@_0N@LAOMIMFM@disp_mem_asc?$AA@
CONST	SEGMENT
??_C@_0N@LAOMIMFM@disp_mem_asc?$AA@ DB 'disp_mem_asc', 00H ; `string'
CONST	ENDS
;	COMDAT ??_C@_08OMDPCMPL@disp_mem?$AA@
CONST	SEGMENT
??_C@_08OMDPCMPL@disp_mem?$AA@ DB 'disp_mem', 00H	; `string'
CONST	ENDS
;	COMDAT ??_C@_0M@JELCIAON@give_weapon?$AA@
CONST	SEGMENT
??_C@_0M@JELCIAON@give_weapon?$AA@ DB 'give_weapon', 00H ; `string'
CONST	ENDS
;	COMDAT ??_C@_03DKLFPAL@a2v?$AA@
CONST	SEGMENT
??_C@_03DKLFPAL@a2v?$AA@ DB 'a2v', 00H			; `string'
CONST	ENDS
;	COMDAT ??_C@_0M@PFBOFJII@set_cam_pos?$AA@
CONST	SEGMENT
??_C@_0M@PFBOFJII@set_cam_pos?$AA@ DB 'set_cam_pos', 00H ; `string'
CONST	ENDS
;	COMDAT ??_C@_01LKDEMHDF@s?$AA@
CONST	SEGMENT
??_C@_01LKDEMHDF@s?$AA@ DB 's', 00H			; `string'
CONST	ENDS
;	COMDAT ??_C@_0L@FAMMMCDN@debug_stop?$AA@
CONST	SEGMENT
??_C@_0L@FAMMMCDN@debug_stop?$AA@ DB 'debug_stop', 00H	; `string'
CONST	ENDS
;	COMDAT ??_C@_08HNOJPEOP@pv_debug?$AA@
CONST	SEGMENT
??_C@_08HNOJPEOP@pv_debug?$AA@ DB 'pv_debug', 00H	; `string'
CONST	ENDS
;	COMDAT ??_C@_0O@MMPNICKN@vehicle_debug?$AA@
CONST	SEGMENT
??_C@_0O@MMPNICKN@vehicle_debug?$AA@ DB 'vehicle_debug', 00H ; `string'
CONST	ENDS
;	COMDAT ??_C@_0BB@NKAGGKGG@actor_task_debug?$AA@
CONST	SEGMENT
??_C@_0BB@NKAGGKGG@actor_task_debug?$AA@ DB 'actor_task_debug', 00H ; `string'
CONST	ENDS
;	COMDAT ??_C@_0M@JCGFFAMI@actor_debug?$AA@
CONST	SEGMENT
??_C@_0M@JCGFFAMI@actor_debug?$AA@ DB 'actor_debug', 00H ; `string'
CONST	ENDS
;	COMDAT ??_C@_05OJNICPJM@actor?$AA@
CONST	SEGMENT
??_C@_05OJNICPJM@actor?$AA@ DB 'actor', 00H		; `string'
CONST	ENDS
;	COMDAT ??_C@_06BALNJMNP@player?$AA@
CONST	SEGMENT
??_C@_06BALNJMNP@player?$AA@ DB 'player', 00H		; `string'
CONST	ENDS
;	COMDAT ??_C@_01JBBJJEPG@p?$AA@
CONST	SEGMENT
??_C@_01JBBJJEPG@p?$AA@ DB 'p', 00H			; `string'
CONST	ENDS
;	COMDAT ??_C@_04BOLMINIL@ptov?$AA@
CONST	SEGMENT
??_C@_04BOLMINIL@ptov?$AA@ DB 'ptov', 00H		; `string'
CONST	ENDS
;	COMDAT ??_C@_07IKBHEKM@cammode?$AA@
CONST	SEGMENT
??_C@_07IKBHEKM@cammode?$AA@ DB 'cammode', 00H		; `string'
CONST	ENDS
;	COMDAT ??_C@_05HNOBFLM@paddr?$AA@
CONST	SEGMENT
??_C@_05HNOBFLM@paddr?$AA@ DB 'paddr', 00H		; `string'
CONST	ENDS
;	COMDAT ??_C@_06HNNDJBDK@vstest?$AA@
CONST	SEGMENT
??_C@_06HNNDJBDK@vstest?$AA@ DB 'vstest', 00H		; `string'
CONST	ENDS
;	COMDAT ??_C@_07LGFKJAB@markers?$AA@
CONST	SEGMENT
??_C@_07LGFKJAB@markers?$AA@ DB 'markers', 00H		; `string'
CONST	ENDS
;	COMDAT ??_C@_0M@OHNOAGOE@setinterior?$AA@
CONST	SEGMENT
??_C@_0M@OHNOAGOE@setinterior?$AA@ DB 'setinterior', 00H ; `string'
CONST	ENDS
;	COMDAT ??_C@_08GJFCPBMH@fpslimit?$AA@
CONST	SEGMENT
??_C@_08GJFCPBMH@fpslimit?$AA@ DB 'fpslimit', 00H	; `string'
CONST	ENDS
;	COMDAT ??_C@_0BB@IOLHKNBN@inacc_multiplier?$AA@
CONST	SEGMENT
??_C@_0BB@IOLHKNBN@inacc_multiplier?$AA@ DB 'inacc_multiplier', 00H ; `string'
CONST	ENDS
;	COMDAT ??_C@_0O@ICEDEGDG@incar_correct?$AA@
CONST	SEGMENT
??_C@_0O@ICEDEGDG@incar_correct?$AA@ DB 'incar_correct', 00H ; `string'
CONST	ENDS
;	COMDAT ??_C@_0P@PHDBNFAF@onfoot_correct?$AA@
CONST	SEGMENT
??_C@_0P@PHDBNFAF@onfoot_correct?$AA@ DB 'onfoot_correct', 00H ; `string'
CONST	ENDS
;	COMDAT ??_C@_07HNJDBHBL@cmpstat?$AA@
CONST	SEGMENT
??_C@_07HNJDBHBL@cmpstat?$AA@ DB 'cmpstat', 00H		; `string'
CONST	ENDS
;	COMDAT ??_C@_08PHPHJILJ@interior?$AA@
CONST	SEGMENT
??_C@_08PHPHJILJ@interior?$AA@ DB 'interior', 00H	; `string'
CONST	ENDS
;	COMDAT ??_C@_03LOEEGKJC@tpm?$AA@
CONST	SEGMENT
??_C@_03LOEEGKJC@tpm?$AA@ DB 'tpm', 00H			; `string'
CONST	ENDS
;	COMDAT ??_C@_04IAMIEKFK@tmsg?$AA@
CONST	SEGMENT
??_C@_04IAMIEKFK@tmsg?$AA@ DB 'tmsg', 00H		; `string'
CONST	ENDS
;	COMDAT ??_C@_02IEBMFLFH@pm?$AA@
CONST	SEGMENT
??_C@_02IEBMFLFH@pm?$AA@ DB 'pm', 00H			; `string'
CONST	ENDS
;	COMDAT ??_C@_03GLPMCEFE@msg?$AA@
CONST	SEGMENT
??_C@_03GLPMCEFE@msg?$AA@ DB 'msg', 00H			; `string'
CONST	ENDS
;	COMDAT ??_C@_0M@GIICCPDP@player_skin?$AA@
CONST	SEGMENT
??_C@_0M@GIICCPDP@player_skin?$AA@ DB 'player_skin', 00H ; `string'
CONST	ENDS
;	COMDAT ??_C@_07CJDNLGID@vehicle?$AA@
CONST	SEGMENT
??_C@_07CJDNLGID@vehicle?$AA@ DB 'vehicle', 00H		; `string'
CONST	ENDS
;	COMDAT ??_C@_01MHEDDDHA@v?$AA@
CONST	SEGMENT
??_C@_01MHEDDDHA@v?$AA@ DB 'v', 00H			; `string'
CONST	ENDS
;	COMDAT ??_C@_04LBJBDPJP@vsel?$AA@
CONST	SEGMENT
??_C@_04LBJBDPJP@vsel?$AA@ DB 'vsel', 00H		; `string'
CONST	ENDS
;	COMDAT ??_C@_02IGCIGBLK@dl?$AA@
CONST	SEGMENT
??_C@_02IGCIGBLK@dl?$AA@ DB 'dl', 00H			; `string'
CONST	ENDS
;	COMDAT ??_C@_04CLKJCJJE@rcon?$AA@
CONST	SEGMENT
??_C@_04CLKJCJJE@rcon?$AA@ DB 'rcon', 00H		; `string'
CONST	ENDS
;	COMDAT ??_C@_04EMMDIJJL@save?$AA@
CONST	SEGMENT
??_C@_04EMMDIJJL@save?$AA@ DB 'save', 00H		; `string'
CONST	ENDS
;	COMDAT ??_C@_01IIACKFLH@q?$AA@
CONST	SEGMENT
??_C@_01IIACKFLH@q?$AA@ DB 'q', 00H			; `string'
CONST	ENDS
;	COMDAT ??_C@_04KNNLNNGO@quit?$AA@
CONST	SEGMENT
??_C@_04KNNLNNGO@quit?$AA@ DB 'quit', 00H		; `string'
CONST	ENDS
;	COMDAT ??_C@_06BEHAMCOC@VW?3?5?$CFu?$AA@
CONST	SEGMENT
??_C@_06BEHAMCOC@VW?3?5?$CFu?$AA@ DB 'VW: %u', 00H	; `string'
CONST	ENDS
;	COMDAT ??_C@_08PDNHGHNJ@MyVW?3?5?$CFu?$AA@
CONST	SEGMENT
??_C@_08PDNHGHNJ@MyVW?3?5?$CFu?$AA@ DB 'MyVW: %u', 00H	; `string'
CONST	ENDS
;	COMDAT ??_C@_0CH@JKHDKMBF@Pl?3?5?$CFu?5V?3?5?$CFu?5Pk?3?5?$CFu?5Mn?3?5?$CFu?5O?3?5?$CFu@
CONST	SEGMENT
??_C@_0CH@JKHDKMBF@Pl?3?5?$CFu?5V?3?5?$CFu?5Pk?3?5?$CFu?5Mn?3?5?$CFu?5O?3?5?$CFu@ DB 'P'
	DB	'l: %u V: %u Pk: %u Mn: %u O: %u T: %u', 00H	; `string'
CONST	ENDS
;	COMDAT ??_C@_0M@EJBHFPH@TaskSitIdle?$AA@
CONST	SEGMENT
??_C@_0M@EJBHFPH@TaskSitIdle?$AA@ DB 'TaskSitIdle', 00H	; `string'
CONST	ENDS
;	COMDAT ??_C@_0M@KHFAPNLB@FollowPedSA?$AA@
CONST	SEGMENT
??_C@_0M@KHFAPNLB@FollowPedSA?$AA@ DB 'FollowPedSA', 00H ; `string'
CONST	ENDS
;	COMDAT ??_C@_0BF@NFAHHJEK@Vehicle?5Types?3?5?$CFu?1?$CFu?$AA@
CONST	SEGMENT
??_C@_0BF@NFAHHJEK@Vehicle?5Types?3?5?$CFu?1?$CFu?$AA@ DB 'Vehicle Types:'
	DB	' %u/%u', 00H				; `string'
CONST	ENDS
;	COMDAT ??_C@_0BC@LBFPAKDC@Get?5in?5a?5vehicle?4?$AA@
CONST	SEGMENT
??_C@_0BC@LBFPAKDC@Get?5in?5a?5vehicle?4?$AA@ DB 'Get in a vehicle.', 00H ; `string'
CONST	ENDS
;	COMDAT ??_C@_0BC@ENEKOIKC@Wheels?5not?5popped?$AA@
CONST	SEGMENT
??_C@_0BC@ENEKOIKC@Wheels?5not?5popped?$AA@ DB 'Wheels not popped', 00H ; `string'
CONST	ENDS
;	COMDAT ??_C@_0O@JKCJDMBD@Wheels?5popped?$AA@
CONST	SEGMENT
??_C@_0O@JKCJDMBD@Wheels?5popped?$AA@ DB 'Wheels popped', 00H ; `string'
CONST	ENDS
;	COMDAT ??_C@_05FPHEHGGN@Done?4?$AA@
CONST	SEGMENT
??_C@_05FPHEHGGN@Done?4?$AA@ DB 'Done.', 00H		; `string'
CONST	ENDS
;	COMDAT ??_C@_03CCFMLOPK@?$CFu?0?$AA@
CONST	SEGMENT
??_C@_03CCFMLOPK@?$CFu?0?$AA@ DB '%u,', 00H		; `string'
CONST	ENDS
;	COMDAT ??_C@_0P@EFNLGIAL@freqclient?4txt?$AA@
CONST	SEGMENT
??_C@_0P@EFNLGIAL@freqclient?4txt?$AA@ DB 'freqclient.txt', 00H ; `string'
CONST	ENDS
;	COMDAT ??_C@_01NOFIACDB@w?$AA@
CONST	SEGMENT
??_C@_01NOFIACDB@w?$AA@ DB 'w', 00H			; `string'
CONST	ENDS
;	COMDAT ??_C@_01JOAMLHOP@?9?$AA@
CONST	SEGMENT
??_C@_01JOAMLHOP@?9?$AA@ DB '-', 00H			; `string'
CONST	ENDS
;	COMDAT ??_C@_08EKMEAIFO@?$CFs?5?$CFs?5?$CFd?$AA@
CONST	SEGMENT
??_C@_08EKMEAIFO@?$CFs?5?$CFs?5?$CFd?$AA@ DB '%s %s %d', 00H ; `string'
CONST	ENDS
;	COMDAT ??_C@_04KNCIGIPG@Done?$AA@
CONST	SEGMENT
??_C@_04KNCIGIPG@Done?$AA@ DB 'Done', 00H		; `string'
CONST	ENDS
;	COMDAT ??_C@_02NJPGOMH@?$CFf?$AA@
CONST	SEGMENT
??_C@_02NJPGOMH@?$CFf?$AA@ DB '%f', 00H			; `string'
CONST	ENDS
;	COMDAT ??_C@_0CA@COGOCOAD@?$CF?44f?0?5?$CF?44f?0?5?$CF?44f?0?5?$CF?44f?5?5?5?1?1?5?$CFs?6?$AA@
CONST	SEGMENT
??_C@_0CA@COGOCOAD@?$CF?44f?0?5?$CF?44f?0?5?$CF?44f?0?5?$CF?44f?5?5?5?1?1?5?$CFs?6?$AA@ DB '%'
	DB	'.4f, %.4f, %.4f, %.4f   // %s', 0aH, 00H	; `string'
CONST	ENDS
;	COMDAT ??_C@_0BD@CEJKELNC@savedlocations?4txt?$AA@
CONST	SEGMENT
??_C@_0BD@CEJKELNC@savedlocations?4txt?$AA@ DB 'savedlocations.txt', 00H ; `string'
CONST	ENDS
;	COMDAT ??_C@_0BO@LFPOJGKK@Applied?5Anim?3?5?$CFs?5Of?5Group?3?5?$CFs?$AA@
CONST	SEGMENT
??_C@_0BO@LFPOJGKK@Applied?5Anim?3?5?$CFs?5Of?5Group?3?5?$CFs?$AA@ DB 'Ap'
	DB	'plied Anim: %s Of Group: %s', 00H		; `string'
CONST	ENDS
;	COMDAT ??_C@_04HDOCAJNK@?$CFs?$CFs?$AA@
CONST	SEGMENT
??_C@_04HDOCAJNK@?$CFs?$CFs?$AA@ DB '%s%s', 00H		; `string'
CONST	ENDS
;	COMDAT ??_C@_0BB@KPACBPNC@New?5Actor?3?50x?$CFX?6?$AA@
CONST	SEGMENT
??_C@_0BB@KPACBPNC@New?5Actor?3?50x?$CFX?6?$AA@ DB 'New Actor: 0x%X', 0aH
	DB	00H						; `string'
CONST	ENDS
;	COMDAT ??_C@_04HKJDGLEA@0x?$CFX?$AA@
CONST	SEGMENT
??_C@_04HKJDGLEA@0x?$CFX?$AA@ DB '0x%X', 00H		; `string'
CONST	ENDS
;	COMDAT ??_C@_0BE@HBOHGJLO@Created?5Player?3?5?$CFu?6?$AA@
CONST	SEGMENT
??_C@_0BE@HBOHGJLO@Created?5Player?3?5?$CFu?6?$AA@ DB 'Created Player: %u'
	DB	0aH, 00H					; `string'
CONST	ENDS
;	COMDAT ??_C@_0L@DHHGMKDJ@TestPlayer?$AA@
CONST	SEGMENT
??_C@_0L@DHHGMKDJ@TestPlayer?$AA@ DB 'TestPlayer', 00H	; `string'
CONST	ENDS
;	COMDAT ??_C@_0DG@FPAFDDMN@Invalid?5Time?4?5Use?5?1set_time?5?$CIhou@
CONST	SEGMENT
??_C@_0DG@FPAFDDMN@Invalid?5Time?4?5Use?5?1set_time?5?$CIhou@ DB 'Invalid'
	DB	' Time. Use /set_time (hour 0-23) (minute 0-59)', 00H ; `string'
CONST	ENDS
;	COMDAT ??_C@_0CA@FOPIPEFN@Usage?3?5set_time?5?$CIhour?$CJ?5?$CIminute?$CJ?$AA@
CONST	SEGMENT
??_C@_0CA@FOPIPEFN@Usage?3?5set_time?5?$CIhour?$CJ?5?$CIminute?$CJ?$AA@ DB 'U'
	DB	'sage: set_time (hour) (minute)', 00H	; `string'
CONST	ENDS
;	COMDAT ??_C@_0CE@MBMGEPG@Usage?3?5set_weather?5?$CIweather?5numb@
CONST	SEGMENT
??_C@_0CE@MBMGEPG@Usage?3?5set_weather?5?$CIweather?5numb@ DB 'Usage: set'
	DB	'_weather (weather number)', 00H		; `string'
CONST	ENDS
;	COMDAT ??_C@_0DE@LMDAJBKE@usage?3?5?1disp_mem_asc?5?$CIHex?5Addres@
CONST	SEGMENT
??_C@_0DE@LMDAJBKE@usage?3?5?1disp_mem_asc?5?$CIHex?5Addres@ DB 'usage: /'
	DB	'disp_mem_asc (Hex Address) (Decimal Offset)', 00H ; `string'
CONST	ENDS
;	COMDAT ??_C@_0DD@ENEEEHOB@Usage?3?5disp_mem_asc?5?$CIdebug?5addre@
CONST	SEGMENT
??_C@_0DD@ENEEEHOB@Usage?3?5disp_mem_asc?5?$CIdebug?5addre@ DB 'Usage: di'
	DB	'sp_mem_asc (debug address) (debug offset)', 00H ; `string'
CONST	ENDS
;	COMDAT ??_C@_0DA@FEENJLKN@usage?3?5?1disp_mem?5?$CIHex?5Address?$CJ?5?$CI@
CONST	SEGMENT
??_C@_0DA@FEENJLKN@usage?3?5?1disp_mem?5?$CIHex?5Address?$CJ?5?$CI@ DB 'u'
	DB	'sage: /disp_mem (Hex Address) (Decimal Offset)', 00H ; `string'
CONST	ENDS
;	COMDAT ??_C@_04FCILIGGD@?$CFX?$CFu?$AA@
CONST	SEGMENT
??_C@_04FCILIGGD@?$CFX?$CFu?$AA@ DB '%X%u', 00H		; `string'
CONST	ENDS
;	COMDAT ??_C@_0CP@NDDHJKIA@Usage?3?5disp_mem?5?$CIdebug?5address?$CJ?5@
CONST	SEGMENT
??_C@_0CP@NDDHJKIA@Usage?3?5disp_mem?5?$CIdebug?5address?$CJ?5@ DB 'Usage'
	DB	': disp_mem (debug address) (debug offset)', 00H ; `string'
CONST	ENDS
;	COMDAT ??_C@_0DD@NOCDPPKP@Usage?3?5give_weapon?5?$CIactor?5number@
CONST	SEGMENT
??_C@_0DD@NOCDPPKP@Usage?3?5give_weapon?5?$CIactor?5number@ DB 'Usage: gi'
	DB	've_weapon (actor number) (weapon number).', 00H ; `string'
CONST	ENDS
;	COMDAT ??_C@_0N@DFAAALPM@?$CFf?$CFf?$CFf?$CFf?$CFf?$CFf?$AA@
CONST	SEGMENT
??_C@_0N@DFAAALPM@?$CFf?$CFf?$CFf?$CFf?$CFf?$CFf?$AA@ DB '%f%f%f%f%f%f', 00H ; `string'
CONST	ENDS
;	COMDAT ??_C@_0DL@CEFNHHBM@Usage?3?5?1set_camera_pos?5?$CIx?$CJ?5?$CIy?$CJ?5?$CI@
CONST	SEGMENT
??_C@_0DL@CEFNHHBM@Usage?3?5?1set_camera_pos?5?$CIx?$CJ?5?$CIy?$CJ?5?$CI@ DB 'U'
	DB	'sage: /set_camera_pos (x) (y) (x) (lookx) (looky) (lookz)', 00H ; `string'
CONST	ENDS
;	COMDAT ??_C@_0DA@JJCPDCNG@Warning?3?5vehicles?5below?53?5are?5us@
CONST	SEGMENT
??_C@_0DA@JJCPDCNG@Warning?3?5vehicles?5below?53?5are?5us@ DB 'Warning: v'
	DB	'ehicles below 3 are usually reserved.', 00H	; `string'
CONST	ENDS
;	COMDAT ??_C@_0CI@IBHKBAKE@Usage?3?5?1vehicle_debug?5?$CIvehicle?5n@
CONST	SEGMENT
??_C@_0CI@IBHKBAKE@Usage?3?5?1vehicle_debug?5?$CIvehicle?5n@ DB 'Usage: /'
	DB	'vehicle_debug (vehicle number).', 00H	; `string'
CONST	ENDS
;	COMDAT ??_C@_0CJ@HIMCCHDO@Usage?3?5?1actor_task_debug?5?$CIactor?5@
CONST	SEGMENT
??_C@_0CJ@HIMCCHDO@Usage?3?5?1actor_task_debug?5?$CIactor?5@ DB 'Usage: /'
	DB	'actor_task_debug (actor number).', 00H	; `string'
CONST	ENDS
;	COMDAT ??_C@_0CE@MFNLJDFI@Usage?3?5?1actor_debug?5?$CIactor?5numbe@
CONST	SEGMENT
??_C@_0CE@MFNLJDFI@Usage?3?5?1actor_debug?5?$CIactor?5numbe@ DB 'Usage: /'
	DB	'actor_debug (actor number).', 00H		; `string'
CONST	ENDS
;	COMDAT ??_C@_0BB@LLEAAFHH@Game?5not?5loaded?4?$AA@
CONST	SEGMENT
??_C@_0BB@LLEAAFHH@Game?5not?5loaded?4?$AA@ DB 'Game not loaded.', 00H ; `string'
CONST	ENDS
;	COMDAT ??_C@_0CE@ICLOLGEH@I?5couldn?8t?5obtain?5the?5player?5act@
CONST	SEGMENT
??_C@_0CE@ICLOLGEH@I?5couldn?8t?5obtain?5the?5player?5act@ DB 'I couldn'''
	DB	't obtain the player actor.', 00H		; `string'
CONST	ENDS
;	COMDAT ??_C@_04LLKPOCGK@?$CFd?$CFd?$AA@
CONST	SEGMENT
??_C@_04LLKPOCGK@?$CFd?$CFd?$AA@ DB '%d%d', 00H		; `string'
CONST	ENDS
;	COMDAT ??_C@_0BP@CHHBBNKH@Usage?3?5?1p?5?$CIplayer_num?$CJ?5?$CIskin?$CJ?4?$AA@
CONST	SEGMENT
??_C@_0BP@CHHBBNKH@Usage?3?5?1p?5?$CIplayer_num?$CJ?5?$CIskin?$CJ?4?$AA@ DB 'U'
	DB	'sage: /p (player_num) (skin).', 00H		; `string'
CONST	ENDS
;	COMDAT ??_C@_02DPKJAMEF@?$CFd?$AA@
CONST	SEGMENT
??_C@_02DPKJAMEF@?$CFd?$AA@ DB '%d', 00H		; `string'
CONST	ENDS
;	COMDAT ??_C@_04NDPBIA@?$CFu?$CFu?$AA@
CONST	SEGMENT
??_C@_04NDPBIA@?$CFu?$CFu?$AA@ DB '%u%u', 00H		; `string'
CONST	ENDS
;	COMDAT ??_C@_0CD@ONFAMIIJ@Usage?3?5?1setinterior?5?$CIinterior?5id@
CONST	SEGMENT
??_C@_0CD@ONFAMIIJ@Usage?3?5?1setinterior?5?$CIinterior?5id@ DB 'Usage: /'
	DB	'setinterior (interior id).', 00H		; `string'
CONST	ENDS
;	COMDAT ??_C@_0BF@EFIACNEA@Current?5Interior?3?5?$CFu?$AA@
CONST	SEGMENT
??_C@_0BF@EFIACNEA@Current?5Interior?3?5?$CFu?$AA@ DB 'Current Interior: '
	DB	'%u', 00H					; `string'
CONST	ENDS
;	COMDAT ??_C@_0BB@JFODDHIN@game?5not?5loaded?4?$AA@
CONST	SEGMENT
??_C@_0BB@JFODDHIN@game?5not?5loaded?4?$AA@ DB 'game not loaded.', 00H ; `string'
CONST	ENDS
;	COMDAT ??_C@_0CC@MODFFDPO@I?5couldn?8t?5find?5the?5player?5actor@
CONST	SEGMENT
??_C@_0CC@MODFFDPO@I?5couldn?8t?5find?5the?5player?5actor@ DB 'I couldn'''
	DB	't find the player actor.', 00H		; `string'
CONST	ENDS
;	COMDAT ??_C@_07MNBIJLFM@TYPE_?$CFd?$AA@
CONST	SEGMENT
??_C@_07MNBIJLFM@TYPE_?$CFd?$AA@ DB 'TYPE_%d', 00H	; `string'
CONST	ENDS
;	COMDAT ??_C@_0BI@IMGABIPF@Usage?3?5?1v?5?$CIvehicle?5id?$CJ?4?$AA@
CONST	SEGMENT
??_C@_0BI@IMGABIPF@Usage?3?5?1v?5?$CIvehicle?5id?$CJ?4?$AA@ DB 'Usage: /v'
	DB	' (vehicle id).', 00H			; `string'
CONST	ENDS
;	COMDAT ??_C@_0CC@IIEMIINO@Usage?3?5player_skin?5?$CIskin?5number?$CJ@
CONST	SEGMENT
??_C@_0CC@IIEMIINO@Usage?3?5player_skin?5?$CIskin?5number?$CJ@ DB 'Usage:'
	DB	' player_skin (skin number).', 00H		; `string'
CONST	ENDS
;	COMDAT ??_C@_0BD@DCGAFJB@?9?$DO?5Class?5pos?5saved?$AA@
CONST	SEGMENT
??_C@_0BD@DCGAFJB@?9?$DO?5Class?5pos?5saved?$AA@ DB '-> Class pos saved', 00H ; `string'
CONST	ENDS
;	COMDAT ??_C@_0DL@HEPJGMGL@AddPlayerClass?$CI?$CFu?0?$CF?44f?0?$CF?44f?0?$CF?44f@
CONST	SEGMENT
??_C@_0DL@HEPJGMGL@AddPlayerClass?$CI?$CFu?0?$CF?44f?0?$CF?44f?0?$CF?44f@ DB 'A'
	DB	'ddPlayerClass(%u,%.4f,%.4f,%.4f,%.4f,0,0,0,0,0,0); // %s', 0aH
	DB	00H						; `string'
CONST	ENDS
;	COMDAT ??_C@_0BF@MFPHHMLJ@?9?$DO?5Vehicle?5pos?5saved?$AA@
CONST	SEGMENT
??_C@_0BF@MFPHHMLJ@?9?$DO?5Vehicle?5pos?5saved?$AA@ DB '-> Vehicle pos sa'
	DB	'ved', 00H					; `string'
CONST	ENDS
;	COMDAT ??_C@_0DH@GAFDDILH@AddStaticVehicle?$CI?$CFu?0?$CF?44f?0?$CF?44f?0?$CF?4@
CONST	SEGMENT
??_C@_0DH@GAFDDILH@AddStaticVehicle?$CI?$CFu?0?$CF?44f?0?$CF?44f?0?$CF?4@ DB 'A'
	DB	'ddStaticVehicle(%u,%.4f,%.4f,%.4f,%.4f,%u,%u); // %s', 0aH, 00H ; `string'
CONST	ENDS
;	COMDAT ??_C@_0DE@FMDHHILE@I?5can?8t?5open?5the?5savepositions?4t@
CONST	SEGMENT
??_C@_0DE@FMDHHILE@I?5can?8t?5open?5the?5savepositions?4t@ DB 'I can''t o'
	DB	'pen the savepositions.txt file for append.', 00H ; `string'
CONST	ENDS
;	COMDAT ??_C@_0BD@NOAGOKCK@savedpositions?4txt?$AA@
CONST	SEGMENT
??_C@_0BD@NOAGOKCK@savedpositions?4txt?$AA@ DB 'savedpositions.txt', 00H ; `string'
CONST	ENDS
;	COMDAT ??_C@_01MCMALHOG@a?$AA@
CONST	SEGMENT
??_C@_01MCMALHOG@a?$AA@ DB 'a', 00H			; `string'
CONST	ENDS
;	COMDAT ??_C@_0BA@KDHCFODO@u?3?5?$CF?42f?5d?3?5?$CF?42f?$AA@
CONST	SEGMENT
??_C@_0BA@KDHCFODO@u?3?5?$CF?42f?5d?3?5?$CF?42f?$AA@ DB 'u: %.2f d: %.2f', 00H ; `string'
CONST	ENDS
;	COMDAT ??_C@_0CH@NAKDLDLA@FrameLimiter?3?5valid?5amounts?5are?5@
CONST	SEGMENT
??_C@_0CH@NAKDLDLA@FrameLimiter?3?5valid?5amounts?5are?5@ DB 'FrameLimite'
	DB	'r: valid amounts are 20-100', 00H		; `string'
CONST	ENDS
;	COMDAT ??_C@_0BB@BNKAPOEA@FrameLimiter?3?5?$CFu?$AA@
CONST	SEGMENT
??_C@_0BB@BNKAPOEA@FrameLimiter?3?5?$CFu?$AA@ DB 'FrameLimiter: %u', 00H ; `string'
CONST	ENDS
;	COMDAT ??_C@_0BG@HIPFIPPJ@InAccMultiplier?3?5?$CF?44f?$AA@
CONST	SEGMENT
??_C@_0BG@HIPFIPPJ@InAccMultiplier?3?5?$CF?44f?$AA@ DB 'InAccMultiplier: '
	DB	'%.4f', 00H					; `string'
CONST	ENDS
;	COMDAT ??_C@_0BG@EOCOKIFG@InCarCorrection?3?5?$CF?44f?$AA@
CONST	SEGMENT
??_C@_0BG@EOCOKIFG@InCarCorrection?3?5?$CF?44f?$AA@ DB 'InCarCorrection: '
	DB	'%.4f', 00H					; `string'
CONST	ENDS
;	COMDAT ??_C@_0BH@OLNKLIJE@OnFootCorrection?3?5?$CF?44f?$AA@
CONST	SEGMENT
??_C@_0BH@OLNKLIJE@OnFootCorrection?3?5?$CF?44f?$AA@ DB 'OnFootCorrection'
	DB	': %.4f', 00H				; `string'
CONST	ENDS
;	COMDAT ??_C@_0BB@LLMKAKBI@Enter?5a?5message?$CB?$AA@
CONST	SEGMENT
??_C@_0BB@LLMKAKBI@Enter?5a?5message?$CB?$AA@ DB 'Enter a message!', 00H ; `string'
CONST	ENDS
;	COMDAT ??_C@_0BJ@FIEMNLKP@Enter?5a?5valid?5player?5ID?$CB?$AA@
CONST	SEGMENT
??_C@_0BJ@FIEMNLKP@Enter?5a?5valid?5player?5ID?$CB?$AA@ DB 'Enter a valid'
	DB	' player ID!', 00H				; `string'
CONST	ENDS
;	COMDAT ??_C@_01CLKCMJKC@?5?$AA@
CONST	SEGMENT
??_C@_01CLKCMJKC@?5?$AA@ DB ' ', 00H			; `string'
CONST	ENDS
;	COMDAT ??_C@_00CNPNBAHC@?$AA@
CONST	SEGMENT
??_C@_00CNPNBAHC@?$AA@ DB 00H				; `string'
CONST	ENDS
;	COMDAT xdata$x
xdata$x	SEGMENT
__unwindtable$?cmdRcon@@YAXPAD@Z DD 0ffffffffH
	DD	FLAT:__unwindfunclet$?cmdRcon@@YAXPAD@Z$0
__ehfuncinfo$?cmdRcon@@YAXPAD@Z DD 019930522H
	DD	01H
	DD	FLAT:__unwindtable$?cmdRcon@@YAXPAD@Z
	DD	2 DUP(00H)
	DD	2 DUP(00H)
	DD	00H
	DD	01H
xdata$x	ENDS
;	COMDAT xdata$x
xdata$x	SEGMENT
__unwindtable$?FindPlayerPed@CGame@@QAEPAVCPlayerPed@@XZ DD 0ffffffffH
	DD	FLAT:__unwindfunclet$?FindPlayerPed@CGame@@QAEPAVCPlayerPed@@XZ$0
__ehfuncinfo$?FindPlayerPed@CGame@@QAEPAVCPlayerPed@@XZ DD 019930522H
	DD	01H
	DD	FLAT:__unwindtable$?FindPlayerPed@CGame@@QAEPAVCPlayerPed@@XZ
	DD	2 DUP(00H)
	DD	2 DUP(00H)
	DD	00H
	DD	01H
xdata$x	ENDS
; Function compile flags: /Odtp /RTCsu /ZI
; File z:\sampsrc\02xu1\saco\cmdprocs.cpp
;	COMDAT ?SetupCommands@@YAXXZ
_TEXT	SEGMENT
?SetupCommands@@YAXXZ PROC				; SetupCommands, COMDAT

; 1411 : {

	push	ebp
	mov	ebp, esp
	sub	esp, 192				; 000000c0H
	push	ebx
	push	esi
	push	edi
	lea	edi, DWORD PTR [ebp-192]
	mov	ecx, 48					; 00000030H
	mov	eax, -858993460				; ccccccccH
	rep stosd

; 1412 : 	// RELEASE COMMANDS
; 1413 : 	pCmdWindow->AddDefaultCmdProc(cmdDefaultCmdProc);

	push	OFFSET ?cmdDefaultCmdProc@@YAXPAD@Z	; cmdDefaultCmdProc
	mov	ecx, DWORD PTR ?pCmdWindow@@3PAVCCmdWindow@@A ; pCmdWindow
	call	?AddDefaultCmdProc@CCmdWindow@@QAEXP6AXPAD@Z@Z ; CCmdWindow::AddDefaultCmdProc

; 1414 : 
; 1415 : 	pCmdWindow->AddCmdProc("quit",cmdQuit);

	push	OFFSET ?cmdQuit@@YAXPAD@Z		; cmdQuit
	push	OFFSET ??_C@_04KNNLNNGO@quit?$AA@
	mov	ecx, DWORD PTR ?pCmdWindow@@3PAVCCmdWindow@@A ; pCmdWindow
	call	?AddCmdProc@CCmdWindow@@QAEXPADP6AX0@Z@Z ; CCmdWindow::AddCmdProc

; 1416 : 	pCmdWindow->AddCmdProc("q",cmdQuit);

	push	OFFSET ?cmdQuit@@YAXPAD@Z		; cmdQuit
	push	OFFSET ??_C@_01IIACKFLH@q?$AA@
	mov	ecx, DWORD PTR ?pCmdWindow@@3PAVCCmdWindow@@A ; pCmdWindow
	call	?AddCmdProc@CCmdWindow@@QAEXPADP6AX0@Z@Z ; CCmdWindow::AddCmdProc

; 1417 : 	pCmdWindow->AddCmdProc("save",cmdSavePos);

	push	OFFSET ?cmdSavePos@@YAXPAD@Z		; cmdSavePos
	push	OFFSET ??_C@_04EMMDIJJL@save?$AA@
	mov	ecx, DWORD PTR ?pCmdWindow@@3PAVCCmdWindow@@A ; pCmdWindow
	call	?AddCmdProc@CCmdWindow@@QAEXPADP6AX0@Z@Z ; CCmdWindow::AddCmdProc

; 1418 : 	pCmdWindow->AddCmdProc("rcon",cmdRcon);

	push	OFFSET ?cmdRcon@@YAXPAD@Z		; cmdRcon
	push	OFFSET ??_C@_04CLKJCJJE@rcon?$AA@
	mov	ecx, DWORD PTR ?pCmdWindow@@3PAVCCmdWindow@@A ; pCmdWindow
	call	?AddCmdProc@CCmdWindow@@QAEXPADP6AX0@Z@Z ; CCmdWindow::AddCmdProc

; 1419 : 
; 1420 : 	pCmdWindow->AddCmdProc("dl", cmdDebugLabels);

	push	OFFSET ?cmdDebugLabels@@YAXPAD@Z	; cmdDebugLabels
	push	OFFSET ??_C@_02IGCIGBLK@dl?$AA@
	mov	ecx, DWORD PTR ?pCmdWindow@@3PAVCCmdWindow@@A ; pCmdWindow
	call	?AddCmdProc@CCmdWindow@@QAEXPADP6AX0@Z@Z ; CCmdWindow::AddCmdProc

; 1421 : 
; 1422 : #ifndef _DEBUG
; 1423 : 	if (tSettings.bDebug)
; 1424 : 	{
; 1425 : #endif
; 1426 : 		pCmdWindow->AddCmdProc("vsel",cmdSelectVehicle);

	push	OFFSET ?cmdSelectVehicle@@YAXPAD@Z	; cmdSelectVehicle
	push	OFFSET ??_C@_04LBJBDPJP@vsel?$AA@
	mov	ecx, DWORD PTR ?pCmdWindow@@3PAVCCmdWindow@@A ; pCmdWindow
	call	?AddCmdProc@CCmdWindow@@QAEXPADP6AX0@Z@Z ; CCmdWindow::AddCmdProc

; 1427 : 		pCmdWindow->AddCmdProc("v",cmdCreateVehicle);

	push	OFFSET ?cmdCreateVehicle@@YAXPAD@Z	; cmdCreateVehicle
	push	OFFSET ??_C@_01MHEDDDHA@v?$AA@
	mov	ecx, DWORD PTR ?pCmdWindow@@3PAVCCmdWindow@@A ; pCmdWindow
	call	?AddCmdProc@CCmdWindow@@QAEXPADP6AX0@Z@Z ; CCmdWindow::AddCmdProc

; 1428 : 		pCmdWindow->AddCmdProc("vehicle",cmdCreateVehicle);

	push	OFFSET ?cmdCreateVehicle@@YAXPAD@Z	; cmdCreateVehicle
	push	OFFSET ??_C@_07CJDNLGID@vehicle?$AA@
	mov	ecx, DWORD PTR ?pCmdWindow@@3PAVCCmdWindow@@A ; pCmdWindow
	call	?AddCmdProc@CCmdWindow@@QAEXPADP6AX0@Z@Z ; CCmdWindow::AddCmdProc

; 1429 : 		pCmdWindow->AddCmdProc("player_skin",cmdPlayerSkin);

	push	OFFSET ?cmdPlayerSkin@@YAXPAD@Z		; cmdPlayerSkin
	push	OFFSET ??_C@_0M@GIICCPDP@player_skin?$AA@
	mov	ecx, DWORD PTR ?pCmdWindow@@3PAVCCmdWindow@@A ; pCmdWindow
	call	?AddCmdProc@CCmdWindow@@QAEXPADP6AX0@Z@Z ; CCmdWindow::AddCmdProc

; 1430 : #ifndef _DEBUG
; 1431 : 	}
; 1432 : #endif
; 1433 : 
; 1434 : 	pCmdWindow->AddCmdProc("msg",cmdMsg);

	push	OFFSET ?cmdMsg@@YAXPAD@Z		; cmdMsg
	push	OFFSET ??_C@_03GLPMCEFE@msg?$AA@
	mov	ecx, DWORD PTR ?pCmdWindow@@3PAVCCmdWindow@@A ; pCmdWindow
	call	?AddCmdProc@CCmdWindow@@QAEXPADP6AX0@Z@Z ; CCmdWindow::AddCmdProc

; 1435 : 	pCmdWindow->AddCmdProc("pm",cmdMsg);

	push	OFFSET ?cmdMsg@@YAXPAD@Z		; cmdMsg
	push	OFFSET ??_C@_02IEBMFLFH@pm?$AA@
	mov	ecx, DWORD PTR ?pCmdWindow@@3PAVCCmdWindow@@A ; pCmdWindow
	call	?AddCmdProc@CCmdWindow@@QAEXPADP6AX0@Z@Z ; CCmdWindow::AddCmdProc

; 1436 : 	pCmdWindow->AddCmdProc("tmsg",cmdTeamMsg);

	push	OFFSET ?cmdTeamMsg@@YAXPAD@Z		; cmdTeamMsg
	push	OFFSET ??_C@_04IAMIEKFK@tmsg?$AA@
	mov	ecx, DWORD PTR ?pCmdWindow@@3PAVCCmdWindow@@A ; pCmdWindow
	call	?AddCmdProc@CCmdWindow@@QAEXPADP6AX0@Z@Z ; CCmdWindow::AddCmdProc

; 1437 : 	pCmdWindow->AddCmdProc("tpm",cmdTeamMsg);

	push	OFFSET ?cmdTeamMsg@@YAXPAD@Z		; cmdTeamMsg
	push	OFFSET ??_C@_03LOEEGKJC@tpm?$AA@
	mov	ecx, DWORD PTR ?pCmdWindow@@3PAVCCmdWindow@@A ; pCmdWindow
	call	?AddCmdProc@CCmdWindow@@QAEXPADP6AX0@Z@Z ; CCmdWindow::AddCmdProc

; 1438 : 
; 1439 : 	pCmdWindow->AddCmdProc("interior",cmdShowInterior);

	push	OFFSET ?cmdShowInterior@@YAXPAD@Z	; cmdShowInterior
	push	OFFSET ??_C@_08PHPHJILJ@interior?$AA@
	mov	ecx, DWORD PTR ?pCmdWindow@@3PAVCCmdWindow@@A ; pCmdWindow
	call	?AddCmdProc@CCmdWindow@@QAEXPADP6AX0@Z@Z ; CCmdWindow::AddCmdProc

; 1440 : 	pCmdWindow->AddCmdProc("cmpstat",cmdCmpStat);

	push	OFFSET ?cmdCmpStat@@YAXPAD@Z		; cmdCmpStat
	push	OFFSET ??_C@_07HNJDBHBL@cmpstat?$AA@
	mov	ecx, DWORD PTR ?pCmdWindow@@3PAVCCmdWindow@@A ; pCmdWindow
	call	?AddCmdProc@CCmdWindow@@QAEXPADP6AX0@Z@Z ; CCmdWindow::AddCmdProc

; 1441 : 	pCmdWindow->AddCmdProc("onfoot_correct",cmdOnfootCorrection);

	push	OFFSET ?cmdOnfootCorrection@@YAXPAD@Z	; cmdOnfootCorrection
	push	OFFSET ??_C@_0P@PHDBNFAF@onfoot_correct?$AA@
	mov	ecx, DWORD PTR ?pCmdWindow@@3PAVCCmdWindow@@A ; pCmdWindow
	call	?AddCmdProc@CCmdWindow@@QAEXPADP6AX0@Z@Z ; CCmdWindow::AddCmdProc

; 1442 : 	pCmdWindow->AddCmdProc("incar_correct",cmdInCarCorrection);

	push	OFFSET ?cmdInCarCorrection@@YAXPAD@Z	; cmdInCarCorrection
	push	OFFSET ??_C@_0O@ICEDEGDG@incar_correct?$AA@
	mov	ecx, DWORD PTR ?pCmdWindow@@3PAVCCmdWindow@@A ; pCmdWindow
	call	?AddCmdProc@CCmdWindow@@QAEXPADP6AX0@Z@Z ; CCmdWindow::AddCmdProc

; 1443 : 	pCmdWindow->AddCmdProc("inacc_multiplier",cmdInAccMultiplier);

	push	OFFSET ?cmdInAccMultiplier@@YAXPAD@Z	; cmdInAccMultiplier
	push	OFFSET ??_C@_0BB@IOLHKNBN@inacc_multiplier?$AA@
	mov	ecx, DWORD PTR ?pCmdWindow@@3PAVCCmdWindow@@A ; pCmdWindow
	call	?AddCmdProc@CCmdWindow@@QAEXPADP6AX0@Z@Z ; CCmdWindow::AddCmdProc

; 1444 : 	pCmdWindow->AddCmdProc("fpslimit",cmdSetFrameLimit);

	push	OFFSET ?cmdSetFrameLimit@@YAXPAD@Z	; cmdSetFrameLimit
	push	OFFSET ??_C@_08GJFCPBMH@fpslimit?$AA@
	mov	ecx, DWORD PTR ?pCmdWindow@@3PAVCCmdWindow@@A ; pCmdWindow
	call	?AddCmdProc@CCmdWindow@@QAEXPADP6AX0@Z@Z ; CCmdWindow::AddCmdProc

; 1445 : 
; 1446 : 	// DEBUG COMMANDS
; 1447 : #ifdef _DEBUG
; 1448 : 
; 1449 : 	/*
; 1450 : 	pCmdWindow->AddCmdProc("handsup",cmdHandsUp);
; 1451 : 	pCmdWindow->AddCmdProc("cigar",cmdCigar);
; 1452 : 	pCmdWindow->AddCmdProc("kill", cmdKill);
; 1453 : 	pCmdWindow->AddCmdProc("cellin",cmdCellIn);
; 1454 : 	pCmdWindow->AddCmdProc("cellout",cmdCellOut);*/
; 1455 : 
; 1456 : 	pCmdWindow->AddCmdProc("setinterior",cmdSetInterior);

	push	OFFSET ?cmdSetInterior@@YAXPAD@Z	; cmdSetInterior
	push	OFFSET ??_C@_0M@OHNOAGOE@setinterior?$AA@
	mov	ecx, DWORD PTR ?pCmdWindow@@3PAVCCmdWindow@@A ; pCmdWindow
	call	?AddCmdProc@CCmdWindow@@QAEXPADP6AX0@Z@Z ; CCmdWindow::AddCmdProc

; 1457 : 	pCmdWindow->AddCmdProc("markers", cmdCreateRadarMarkers);

	push	OFFSET ?cmdCreateRadarMarkers@@YAXPAD@Z	; cmdCreateRadarMarkers
	push	OFFSET ??_C@_07LGFKJAB@markers?$AA@
	mov	ecx, DWORD PTR ?pCmdWindow@@3PAVCCmdWindow@@A ; pCmdWindow
	call	?AddCmdProc@CCmdWindow@@QAEXPADP6AX0@Z@Z ; CCmdWindow::AddCmdProc

; 1458 : 	pCmdWindow->AddCmdProc("vstest",cmdVehicleSyncTest);

	push	OFFSET ?cmdVehicleSyncTest@@YAXPAD@Z	; cmdVehicleSyncTest
	push	OFFSET ??_C@_06HNNDJBDK@vstest?$AA@
	mov	ecx, DWORD PTR ?pCmdWindow@@3PAVCCmdWindow@@A ; pCmdWindow
	call	?AddCmdProc@CCmdWindow@@QAEXPADP6AX0@Z@Z ; CCmdWindow::AddCmdProc

; 1459 : 	pCmdWindow->AddCmdProc("paddr",cmdPlayerAddr);

	push	OFFSET ?cmdPlayerAddr@@YAXPAD@Z		; cmdPlayerAddr
	push	OFFSET ??_C@_05HNOBFLM@paddr?$AA@
	mov	ecx, DWORD PTR ?pCmdWindow@@3PAVCCmdWindow@@A ; pCmdWindow
	call	?AddCmdProc@CCmdWindow@@QAEXPADP6AX0@Z@Z ; CCmdWindow::AddCmdProc

; 1460 : 	pCmdWindow->AddCmdProc("cammode",cmdCamMode);

	push	OFFSET ?cmdCamMode@@YAXPAD@Z		; cmdCamMode
	push	OFFSET ??_C@_07IKBHEKM@cammode?$AA@
	mov	ecx, DWORD PTR ?pCmdWindow@@3PAVCCmdWindow@@A ; pCmdWindow
	call	?AddCmdProc@CCmdWindow@@QAEXPADP6AX0@Z@Z ; CCmdWindow::AddCmdProc

; 1461 : 	pCmdWindow->AddCmdProc("ptov",cmdPlayerToVehicle);

	push	OFFSET ?cmdPlayerToVehicle@@YAXPAD@Z	; cmdPlayerToVehicle
	push	OFFSET ??_C@_04BOLMINIL@ptov?$AA@
	mov	ecx, DWORD PTR ?pCmdWindow@@3PAVCCmdWindow@@A ; pCmdWindow
	call	?AddCmdProc@CCmdWindow@@QAEXPADP6AX0@Z@Z ; CCmdWindow::AddCmdProc

; 1462 : 	pCmdWindow->AddCmdProc("p",cmdCreatePlayer);

	push	OFFSET ?cmdCreatePlayer@@YAXPAD@Z	; cmdCreatePlayer
	push	OFFSET ??_C@_01JBBJJEPG@p?$AA@
	mov	ecx, DWORD PTR ?pCmdWindow@@3PAVCCmdWindow@@A ; pCmdWindow
	call	?AddCmdProc@CCmdWindow@@QAEXPADP6AX0@Z@Z ; CCmdWindow::AddCmdProc

; 1463 : 	pCmdWindow->AddCmdProc("player",cmdCreatePlayer);

	push	OFFSET ?cmdCreatePlayer@@YAXPAD@Z	; cmdCreatePlayer
	push	OFFSET ??_C@_06BALNJMNP@player?$AA@
	mov	ecx, DWORD PTR ?pCmdWindow@@3PAVCCmdWindow@@A ; pCmdWindow
	call	?AddCmdProc@CCmdWindow@@QAEXPADP6AX0@Z@Z ; CCmdWindow::AddCmdProc

; 1464 : 	pCmdWindow->AddCmdProc("a",cmdCreateActor);

	push	OFFSET ?cmdCreateActor@@YAXPAD@Z	; cmdCreateActor
	push	OFFSET ??_C@_01MCMALHOG@a?$AA@
	mov	ecx, DWORD PTR ?pCmdWindow@@3PAVCCmdWindow@@A ; pCmdWindow
	call	?AddCmdProc@CCmdWindow@@QAEXPADP6AX0@Z@Z ; CCmdWindow::AddCmdProc

; 1465 : 	pCmdWindow->AddCmdProc("actor",cmdCreateActor);

	push	OFFSET ?cmdCreateActor@@YAXPAD@Z	; cmdCreateActor
	push	OFFSET ??_C@_05OJNICPJM@actor?$AA@
	mov	ecx, DWORD PTR ?pCmdWindow@@3PAVCCmdWindow@@A ; pCmdWindow
	call	?AddCmdProc@CCmdWindow@@QAEXPADP6AX0@Z@Z ; CCmdWindow::AddCmdProc

; 1466 : 	pCmdWindow->AddCmdProc("actor_debug",cmdActorDebug);

	push	OFFSET ?cmdActorDebug@@YAXPAD@Z		; cmdActorDebug
	push	OFFSET ??_C@_0M@JCGFFAMI@actor_debug?$AA@
	mov	ecx, DWORD PTR ?pCmdWindow@@3PAVCCmdWindow@@A ; pCmdWindow
	call	?AddCmdProc@CCmdWindow@@QAEXPADP6AX0@Z@Z ; CCmdWindow::AddCmdProc

; 1467 : 	pCmdWindow->AddCmdProc("actor_task_debug",cmdActorTaskDebug);

	push	OFFSET ?cmdActorTaskDebug@@YAXPAD@Z	; cmdActorTaskDebug
	push	OFFSET ??_C@_0BB@NKAGGKGG@actor_task_debug?$AA@
	mov	ecx, DWORD PTR ?pCmdWindow@@3PAVCCmdWindow@@A ; pCmdWindow
	call	?AddCmdProc@CCmdWindow@@QAEXPADP6AX0@Z@Z ; CCmdWindow::AddCmdProc

; 1468 : 	pCmdWindow->AddCmdProc("vehicle_debug",cmdVehicleDebug);

	push	OFFSET ?cmdVehicleDebug@@YAXPAD@Z	; cmdVehicleDebug
	push	OFFSET ??_C@_0O@MMPNICKN@vehicle_debug?$AA@
	mov	ecx, DWORD PTR ?pCmdWindow@@3PAVCCmdWindow@@A ; pCmdWindow
	call	?AddCmdProc@CCmdWindow@@QAEXPADP6AX0@Z@Z ; CCmdWindow::AddCmdProc

; 1469 : 	pCmdWindow->AddCmdProc("pv_debug",cmdPlayerVehicleDebug);

	push	OFFSET ?cmdPlayerVehicleDebug@@YAXPAD@Z	; cmdPlayerVehicleDebug
	push	OFFSET ??_C@_08HNOJPEOP@pv_debug?$AA@
	mov	ecx, DWORD PTR ?pCmdWindow@@3PAVCCmdWindow@@A ; pCmdWindow
	call	?AddCmdProc@CCmdWindow@@QAEXPADP6AX0@Z@Z ; CCmdWindow::AddCmdProc

; 1470 : 	pCmdWindow->AddCmdProc("debug_stop",cmdDebugStop);

	push	OFFSET ?cmdDebugStop@@YAXPAD@Z		; cmdDebugStop
	push	OFFSET ??_C@_0L@FAMMMCDN@debug_stop?$AA@
	mov	ecx, DWORD PTR ?pCmdWindow@@3PAVCCmdWindow@@A ; pCmdWindow
	call	?AddCmdProc@CCmdWindow@@QAEXPADP6AX0@Z@Z ; CCmdWindow::AddCmdProc

; 1471 : 	pCmdWindow->AddCmdProc("s",cmdDebugStop);

	push	OFFSET ?cmdDebugStop@@YAXPAD@Z		; cmdDebugStop
	push	OFFSET ??_C@_01LKDEMHDF@s?$AA@
	mov	ecx, DWORD PTR ?pCmdWindow@@3PAVCCmdWindow@@A ; pCmdWindow
	call	?AddCmdProc@CCmdWindow@@QAEXPADP6AX0@Z@Z ; CCmdWindow::AddCmdProc

; 1472 : 	pCmdWindow->AddCmdProc("set_cam_pos",cmdSetCameraPos);

	push	OFFSET ?cmdSetCameraPos@@YAXPAD@Z	; cmdSetCameraPos
	push	OFFSET ??_C@_0M@PFBOFJII@set_cam_pos?$AA@
	mov	ecx, DWORD PTR ?pCmdWindow@@3PAVCCmdWindow@@A ; pCmdWindow
	call	?AddCmdProc@CCmdWindow@@QAEXPADP6AX0@Z@Z ; CCmdWindow::AddCmdProc

; 1473 : 	pCmdWindow->AddCmdProc("a2v",cmdPutActorInVehicle);

	push	OFFSET ?cmdPutActorInVehicle@@YAXPAD@Z	; cmdPutActorInVehicle
	push	OFFSET ??_C@_03DKLFPAL@a2v?$AA@
	mov	ecx, DWORD PTR ?pCmdWindow@@3PAVCCmdWindow@@A ; pCmdWindow
	call	?AddCmdProc@CCmdWindow@@QAEXPADP6AX0@Z@Z ; CCmdWindow::AddCmdProc

; 1474 : 	pCmdWindow->AddCmdProc("give_weapon",cmdGiveActorWeapon);

	push	OFFSET ?cmdGiveActorWeapon@@YAXPAD@Z	; cmdGiveActorWeapon
	push	OFFSET ??_C@_0M@JELCIAON@give_weapon?$AA@
	mov	ecx, DWORD PTR ?pCmdWindow@@3PAVCCmdWindow@@A ; pCmdWindow
	call	?AddCmdProc@CCmdWindow@@QAEXPADP6AX0@Z@Z ; CCmdWindow::AddCmdProc

; 1475 : 	pCmdWindow->AddCmdProc("disp_mem",cmdDisplayMemory);

	push	OFFSET ?cmdDisplayMemory@@YAXPAD@Z	; cmdDisplayMemory
	push	OFFSET ??_C@_08OMDPCMPL@disp_mem?$AA@
	mov	ecx, DWORD PTR ?pCmdWindow@@3PAVCCmdWindow@@A ; pCmdWindow
	call	?AddCmdProc@CCmdWindow@@QAEXPADP6AX0@Z@Z ; CCmdWindow::AddCmdProc

; 1476 : 	pCmdWindow->AddCmdProc("disp_mem_asc",cmdDisplayMemoryAsc);

	push	OFFSET ?cmdDisplayMemoryAsc@@YAXPAD@Z	; cmdDisplayMemoryAsc
	push	OFFSET ??_C@_0N@LAOMIMFM@disp_mem_asc?$AA@
	mov	ecx, DWORD PTR ?pCmdWindow@@3PAVCCmdWindow@@A ; pCmdWindow
	call	?AddCmdProc@CCmdWindow@@QAEXPADP6AX0@Z@Z ; CCmdWindow::AddCmdProc

; 1477 : 	pCmdWindow->AddCmdProc("set_weather",cmdSetWeather);

	push	OFFSET ?cmdSetWeather@@YAXPAD@Z		; cmdSetWeather
	push	OFFSET ??_C@_0M@LJFCFHMD@set_weather?$AA@
	mov	ecx, DWORD PTR ?pCmdWindow@@3PAVCCmdWindow@@A ; pCmdWindow
	call	?AddCmdProc@CCmdWindow@@QAEXPADP6AX0@Z@Z ; CCmdWindow::AddCmdProc

; 1478 : 	pCmdWindow->AddCmdProc("set_time",cmdSetTime);

	push	OFFSET ?cmdSetTime@@YAXPAD@Z		; cmdSetTime
	push	OFFSET ??_C@_08LPNFMNJD@set_time?$AA@
	mov	ecx, DWORD PTR ?pCmdWindow@@3PAVCCmdWindow@@A ; pCmdWindow
	call	?AddCmdProc@CCmdWindow@@QAEXPADP6AX0@Z@Z ; CCmdWindow::AddCmdProc

; 1479 : 	pCmdWindow->AddCmdProc("rp",cmdRemotePlayer);

	push	OFFSET ?cmdRemotePlayer@@YAXPAD@Z	; cmdRemotePlayer
	push	OFFSET ??_C@_02HIPEODCF@rp?$AA@
	mov	ecx, DWORD PTR ?pCmdWindow@@3PAVCCmdWindow@@A ; pCmdWindow
	call	?AddCmdProc@CCmdWindow@@QAEXPADP6AX0@Z@Z ; CCmdWindow::AddCmdProc

; 1480 : 	pCmdWindow->AddCmdProc("rpr",cmdRemotePlayerRespawn);

	push	OFFSET ?cmdRemotePlayerRespawn@@YAXPAD@Z ; cmdRemotePlayerRespawn
	push	OFFSET ??_C@_03FGHFDLNA@rpr?$AA@
	mov	ecx, DWORD PTR ?pCmdWindow@@3PAVCCmdWindow@@A ; pCmdWindow
	call	?AddCmdProc@CCmdWindow@@QAEXPADP6AX0@Z@Z ; CCmdWindow::AddCmdProc

; 1481 : //	pCmdWindow->AddCmdProc("dl", cmdDebugLabels);
; 1482 : 	pCmdWindow->AddCmdProc("say",cmdSay);

	push	OFFSET ?cmdSay@@YAXPAD@Z		; cmdSay
	push	OFFSET ??_C@_03BANJEMDJ@say?$AA@
	mov	ecx, DWORD PTR ?pCmdWindow@@3PAVCCmdWindow@@A ; pCmdWindow
	call	?AddCmdProc@CCmdWindow@@QAEXPADP6AX0@Z@Z ; CCmdWindow::AddCmdProc

; 1483 : 	pCmdWindow->AddCmdProc("freeaim",cmdFreeAim);

	push	OFFSET ?cmdFreeAim@@YAXPAD@Z		; cmdFreeAim
	push	OFFSET ??_C@_07OKIKFLFP@freeaim?$AA@
	mov	ecx, DWORD PTR ?pCmdWindow@@3PAVCCmdWindow@@A ; pCmdWindow
	call	?AddCmdProc@CCmdWindow@@QAEXPADP6AX0@Z@Z ; CCmdWindow::AddCmdProc

; 1484 : 	pCmdWindow->AddCmdProc("vehicle_remove",cmdWorldVehicleRemove);

	push	OFFSET ?cmdWorldVehicleRemove@@YAXPAD@Z	; cmdWorldVehicleRemove
	push	OFFSET ??_C@_0P@BEDPPNKM@vehicle_remove?$AA@
	mov	ecx, DWORD PTR ?pCmdWindow@@3PAVCCmdWindow@@A ; pCmdWindow
	call	?AddCmdProc@CCmdWindow@@QAEXPADP6AX0@Z@Z ; CCmdWindow::AddCmdProc

; 1485 : 	pCmdWindow->AddCmdProc("vehicle_add",cmdWorldVehicleAdd);

	push	OFFSET ?cmdWorldVehicleAdd@@YAXPAD@Z	; cmdWorldVehicleAdd
	push	OFFSET ??_C@_0M@GBPDEOIG@vehicle_add?$AA@
	mov	ecx, DWORD PTR ?pCmdWindow@@3PAVCCmdWindow@@A ; pCmdWindow
	call	?AddCmdProc@CCmdWindow@@QAEXPADP6AX0@Z@Z ; CCmdWindow::AddCmdProc

; 1486 : 	pCmdWindow->AddCmdProc("player_remove",cmdWorldPlayerRemove);

	push	OFFSET ?cmdWorldPlayerRemove@@YAXPAD@Z	; cmdWorldPlayerRemove
	push	OFFSET ??_C@_0O@GKLIFPIG@player_remove?$AA@
	mov	ecx, DWORD PTR ?pCmdWindow@@3PAVCCmdWindow@@A ; pCmdWindow
	call	?AddCmdProc@CCmdWindow@@QAEXPADP6AX0@Z@Z ; CCmdWindow::AddCmdProc

; 1487 : 	pCmdWindow->AddCmdProc("player_add",cmdWorldPlayerAdd);

	push	OFFSET ?cmdWorldPlayerAdd@@YAXPAD@Z	; cmdWorldPlayerAdd
	push	OFFSET ??_C@_0L@LBHECNOJ@player_add?$AA@
	mov	ecx, DWORD PTR ?pCmdWindow@@3PAVCCmdWindow@@A ; pCmdWindow
	call	?AddCmdProc@CCmdWindow@@QAEXPADP6AX0@Z@Z ; CCmdWindow::AddCmdProc

; 1488 : 	pCmdWindow->AddCmdProc("animset",cmdAnimSet);

	push	OFFSET ?cmdAnimSet@@YAXPAD@Z		; cmdAnimSet
	push	OFFSET ??_C@_07GPIJOACO@animset?$AA@
	mov	ecx, DWORD PTR ?pCmdWindow@@3PAVCCmdWindow@@A ; pCmdWindow
	call	?AddCmdProc@CCmdWindow@@QAEXPADP6AX0@Z@Z ; CCmdWindow::AddCmdProc

; 1489 : 	pCmdWindow->AddCmdProc("kill_player",cmdKillRemotePlayer);

	push	OFFSET ?cmdKillRemotePlayer@@YAXPAD@Z	; cmdKillRemotePlayer
	push	OFFSET ??_C@_0M@HJNHJCFB@kill_player?$AA@
	mov	ecx, DWORD PTR ?pCmdWindow@@3PAVCCmdWindow@@A ; pCmdWindow
	call	?AddCmdProc@CCmdWindow@@QAEXPADP6AX0@Z@Z ; CCmdWindow::AddCmdProc

; 1490 : 	pCmdWindow->AddCmdProc("anim",cmdApplyAnimation);

	push	OFFSET ?cmdApplyAnimation@@YAXPAD@Z	; cmdApplyAnimation
	push	OFFSET ??_C@_04NBCDDDGK@anim?$AA@
	mov	ecx, DWORD PTR ?pCmdWindow@@3PAVCCmdWindow@@A ; pCmdWindow
	call	?AddCmdProc@CCmdWindow@@QAEXPADP6AX0@Z@Z ; CCmdWindow::AddCmdProc

; 1491 : 	pCmdWindow->AddCmdProc("checktest",cmdCheckpointTest);

	push	OFFSET ?cmdCheckpointTest@@YAXPAD@Z	; cmdCheckpointTest
	push	OFFSET ??_C@_09JMDGCHLN@checktest?$AA@
	mov	ecx, DWORD PTR ?pCmdWindow@@3PAVCCmdWindow@@A ; pCmdWindow
	call	?AddCmdProc@CCmdWindow@@QAEXPADP6AX0@Z@Z ; CCmdWindow::AddCmdProc

; 1492 : 	pCmdWindow->AddCmdProc("ps",cmdPlaySound);

	push	OFFSET ?cmdPlaySound@@YAXPAD@Z		; cmdPlaySound
	push	OFFSET ??_C@_02FAFNGEII@ps?$AA@
	mov	ecx, DWORD PTR ?pCmdWindow@@3PAVCCmdWindow@@A ; pCmdWindow
	call	?AddCmdProc@CCmdWindow@@QAEXPADP6AX0@Z@Z ; CCmdWindow::AddCmdProc

; 1493 : 	pCmdWindow->AddCmdProc("sl",cmdSaveLocation);

	push	OFFSET ?cmdSaveLocation@@YAXPAD@Z	; cmdSaveLocation
	push	OFFSET ??_C@_02JPEBNEEP@sl?$AA@
	mov	ecx, DWORD PTR ?pCmdWindow@@3PAVCCmdWindow@@A ; pCmdWindow
	call	?AddCmdProc@CCmdWindow@@QAEXPADP6AX0@Z@Z ; CCmdWindow::AddCmdProc

; 1494 : 	pCmdWindow->AddCmdProc("resetvp",cmdResetVehiclePool);

	push	OFFSET ?cmdResetVehiclePool@@YAXPAD@Z	; cmdResetVehiclePool
	push	OFFSET ??_C@_07OKFMAILE@resetvp?$AA@
	mov	ecx, DWORD PTR ?pCmdWindow@@3PAVCCmdWindow@@A ; pCmdWindow
	call	?AddCmdProc@CCmdWindow@@QAEXPADP6AX0@Z@Z ; CCmdWindow::AddCmdProc

; 1495 : 	pCmdWindow->AddCmdProc("deactivate",cmdDeactivatePlayers);

	push	OFFSET ?cmdDeactivatePlayers@@YAXPAD@Z	; cmdDeactivatePlayers
	push	OFFSET ??_C@_0L@NPGBCGOP@deactivate?$AA@
	mov	ecx, DWORD PTR ?pCmdWindow@@3PAVCCmdWindow@@A ; pCmdWindow
	call	?AddCmdProc@CCmdWindow@@QAEXPADP6AX0@Z@Z ; CCmdWindow::AddCmdProc

; 1496 : 	pCmdWindow->AddCmdProc("setfarclip",cmdSetFarClip);

	push	OFFSET ?cmdSetFarClip@@YAXPAD@Z		; cmdSetFarClip
	push	OFFSET ??_C@_0L@NDMNKJNE@setfarclip?$AA@
	mov	ecx, DWORD PTR ?pCmdWindow@@3PAVCCmdWindow@@A ; pCmdWindow
	call	?AddCmdProc@CCmdWindow@@QAEXPADP6AX0@Z@Z ; CCmdWindow::AddCmdProc

; 1497 : 	pCmdWindow->AddCmdProc("start_jetpack",cmdStartJetpack);

	push	OFFSET ?cmdStartJetpack@@YAXPAD@Z	; cmdStartJetpack
	push	OFFSET ??_C@_0O@DLDBEBPO@start_jetpack?$AA@
	mov	ecx, DWORD PTR ?pCmdWindow@@3PAVCCmdWindow@@A ; pCmdWindow
	call	?AddCmdProc@CCmdWindow@@QAEXPADP6AX0@Z@Z ; CCmdWindow::AddCmdProc

; 1498 : 	pCmdWindow->AddCmdProc("stop_jetpack",cmdStopJetpack);

	push	OFFSET ?cmdStopJetpack@@YAXPAD@Z	; cmdStopJetpack
	push	OFFSET ??_C@_0N@PGLBFNCH@stop_jetpack?$AA@
	mov	ecx, DWORD PTR ?pCmdWindow@@3PAVCCmdWindow@@A ; pCmdWindow
	call	?AddCmdProc@CCmdWindow@@QAEXPADP6AX0@Z@Z ; CCmdWindow::AddCmdProc

; 1499 : 	pCmdWindow->AddCmdProc("lotsofv",cmdLotsOfV);

	push	OFFSET ?cmdLotsOfV@@YAXPAD@Z		; cmdLotsOfV
	push	OFFSET ??_C@_07BINMPCBB@lotsofv?$AA@
	mov	ecx, DWORD PTR ?pCmdWindow@@3PAVCCmdWindow@@A ; pCmdWindow
	call	?AddCmdProc@CCmdWindow@@QAEXPADP6AX0@Z@Z ; CCmdWindow::AddCmdProc

; 1500 : 	pCmdWindow->AddCmdProc("cursor",TestExit);

	push	OFFSET ?TestExit@@YAXPAD@Z		; TestExit
	push	OFFSET ??_C@_06CHDIMBDP@cursor?$AA@
	mov	ecx, DWORD PTR ?pCmdWindow@@3PAVCCmdWindow@@A ; pCmdWindow
	call	?AddCmdProc@CCmdWindow@@QAEXPADP6AX0@Z@Z ; CCmdWindow::AddCmdProc

; 1501 : 	pCmdWindow->AddCmdProc("drivebytest",DriveByTest);

	push	OFFSET ?DriveByTest@@YAXPAD@Z		; DriveByTest
	push	OFFSET ??_C@_0M@BCDKJEOP@drivebytest?$AA@
	mov	ecx, DWORD PTR ?pCmdWindow@@3PAVCCmdWindow@@A ; pCmdWindow
	call	?AddCmdProc@CCmdWindow@@QAEXPADP6AX0@Z@Z ; CCmdWindow::AddCmdProc

; 1502 : 	pCmdWindow->AddCmdProc("specp",cmdSpectatep);

	push	OFFSET ?cmdSpectatep@@YAXPAD@Z		; cmdSpectatep
	push	OFFSET ??_C@_05FDAPMKEC@specp?$AA@
	mov	ecx, DWORD PTR ?pCmdWindow@@3PAVCCmdWindow@@A ; pCmdWindow
	call	?AddCmdProc@CCmdWindow@@QAEXPADP6AX0@Z@Z ; CCmdWindow::AddCmdProc

; 1503 : 	pCmdWindow->AddCmdProc("specv",cmdSpectatev);

	push	OFFSET ?cmdSpectatev@@YAXPAD@Z		; cmdSpectatev
	push	OFFSET ??_C@_05FFFGNME@specv?$AA@
	mov	ecx, DWORD PTR ?pCmdWindow@@3PAVCCmdWindow@@A ; pCmdWindow
	call	?AddCmdProc@CCmdWindow@@QAEXPADP6AX0@Z@Z ; CCmdWindow::AddCmdProc

; 1504 : 	pCmdWindow->AddCmdProc("clothes",cmdClothes);

	push	OFFSET ?cmdClothes@@YAXPAD@Z		; cmdClothes
	push	OFFSET ??_C@_07MJMDKGMN@clothes?$AA@
	mov	ecx, DWORD PTR ?pCmdWindow@@3PAVCCmdWindow@@A ; pCmdWindow
	call	?AddCmdProc@CCmdWindow@@QAEXPADP6AX0@Z@Z ; CCmdWindow::AddCmdProc

; 1505 : 	pCmdWindow->AddCmdProc("nofire",cmdNoFire);

	push	OFFSET ?cmdNoFire@@YAXPAD@Z		; cmdNoFire
	push	OFFSET ??_C@_06FPBLLDAO@nofire?$AA@
	mov	ecx, DWORD PTR ?pCmdWindow@@3PAVCCmdWindow@@A ; pCmdWindow
	call	?AddCmdProc@CCmdWindow@@QAEXPADP6AX0@Z@Z ; CCmdWindow::AddCmdProc

; 1506 : 	pCmdWindow->AddCmdProc("sit",cmdSit);

	push	OFFSET ?cmdSit@@YAXPAD@Z		; cmdSit
	push	OFFSET ??_C@_03KLGEGDMM@sit?$AA@
	mov	ecx, DWORD PTR ?pCmdWindow@@3PAVCCmdWindow@@A ; pCmdWindow
	call	?AddCmdProc@CCmdWindow@@QAEXPADP6AX0@Z@Z ; CCmdWindow::AddCmdProc

; 1507 : 	pCmdWindow->AddCmdProc("dumpfreq",cmdDumpFreqTable);

	push	OFFSET ?cmdDumpFreqTable@@YAXPAD@Z	; cmdDumpFreqTable
	push	OFFSET ??_C@_08LCPGCPGP@dumpfreq?$AA@
	mov	ecx, DWORD PTR ?pCmdWindow@@3PAVCCmdWindow@@A ; pCmdWindow
	call	?AddCmdProc@CCmdWindow@@QAEXPADP6AX0@Z@Z ; CCmdWindow::AddCmdProc

; 1508 : 	pCmdWindow->AddCmdProc("attract",cmdAttractAddr);

	push	OFFSET ?cmdAttractAddr@@YAXPAD@Z	; cmdAttractAddr
	push	OFFSET ??_C@_07PECNBBO@attract?$AA@
	mov	ecx, DWORD PTR ?pCmdWindow@@3PAVCCmdWindow@@A ; pCmdWindow
	call	?AddCmdProc@CCmdWindow@@QAEXPADP6AX0@Z@Z ; CCmdWindow::AddCmdProc

; 1509 : 	pCmdWindow->AddCmdProc("pop",cmdPopWheels);

	push	OFFSET ?cmdPopWheels@@YAXPAD@Z		; cmdPopWheels
	push	OFFSET ??_C@_03NJDAHFJE@pop?$AA@
	mov	ecx, DWORD PTR ?pCmdWindow@@3PAVCCmdWindow@@A ; pCmdWindow
	call	?AddCmdProc@CCmdWindow@@QAEXPADP6AX0@Z@Z ; CCmdWindow::AddCmdProc

; 1510 : 	pCmdWindow->AddCmdProc("pvtbl",cmdPlayerVtbl);

	push	OFFSET ?cmdPlayerVtbl@@YAXPAD@Z		; cmdPlayerVtbl
	push	OFFSET ??_C@_05FFMLEKNM@pvtbl?$AA@
	mov	ecx, DWORD PTR ?pCmdWindow@@3PAVCCmdWindow@@A ; pCmdWindow
	call	?AddCmdProc@CCmdWindow@@QAEXPADP6AX0@Z@Z ; CCmdWindow::AddCmdProc

; 1511 : 	pCmdWindow->AddCmdProc("danc",cmdDance);

	push	OFFSET ?cmdDance@@YAXPAD@Z		; cmdDance
	push	OFFSET ??_C@_04NKGMJHEH@danc?$AA@
	mov	ecx, DWORD PTR ?pCmdWindow@@3PAVCCmdWindow@@A ; pCmdWindow
	call	?AddCmdProc@CCmdWindow@@QAEXPADP6AX0@Z@Z ; CCmdWindow::AddCmdProc

; 1512 : 	pCmdWindow->AddCmdProc("vmodels",cmdVModels);

	push	OFFSET ?cmdVModels@@YAXPAD@Z		; cmdVModels
	push	OFFSET ??_C@_07MGLEOGOG@vmodels?$AA@
	mov	ecx, DWORD PTR ?pCmdWindow@@3PAVCCmdWindow@@A ; pCmdWindow
	call	?AddCmdProc@CCmdWindow@@QAEXPADP6AX0@Z@Z ; CCmdWindow::AddCmdProc

; 1513 : 	pCmdWindow->AddCmdProc("followped",cmdFollowPedSA);

	push	OFFSET ?cmdFollowPedSA@@YAXPAD@Z	; cmdFollowPedSA
	push	OFFSET ??_C@_09BOOGLIAK@followped?$AA@
	mov	ecx, DWORD PTR ?pCmdWindow@@3PAVCCmdWindow@@A ; pCmdWindow
	call	?AddCmdProc@CCmdWindow@@QAEXPADP6AX0@Z@Z ; CCmdWindow::AddCmdProc

; 1514 : 	pCmdWindow->AddCmdProc("sitidle",cmdTaskSitIdle);

	push	OFFSET ?cmdTaskSitIdle@@YAXPAD@Z	; cmdTaskSitIdle
	push	OFFSET ??_C@_07EPLOCIMK@sitidle?$AA@
	mov	ecx, DWORD PTR ?pCmdWindow@@3PAVCCmdWindow@@A ; pCmdWindow
	call	?AddCmdProc@CCmdWindow@@QAEXPADP6AX0@Z@Z ; CCmdWindow::AddCmdProc

; 1515 : 	pCmdWindow->AddCmdProc("bench",cmdBench);

	push	OFFSET ?cmdBench@@YAXPAD@Z		; cmdBench
	push	OFFSET ??_C@_05GGJPBMNG@bench?$AA@
	mov	ecx, DWORD PTR ?pCmdWindow@@3PAVCCmdWindow@@A ; pCmdWindow
	call	?AddCmdProc@CCmdWindow@@QAEXPADP6AX0@Z@Z ; CCmdWindow::AddCmdProc

; 1516 : 	pCmdWindow->AddCmdProc("disenex",cmdDisableEnEx);

	push	OFFSET ?cmdDisableEnEx@@YAXPAD@Z	; cmdDisableEnEx
	push	OFFSET ??_C@_07HODFHKLG@disenex?$AA@
	mov	ecx, DWORD PTR ?pCmdWindow@@3PAVCCmdWindow@@A ; pCmdWindow
	call	?AddCmdProc@CCmdWindow@@QAEXPADP6AX0@Z@Z ; CCmdWindow::AddCmdProc

; 1517 : 	pCmdWindow->AddCmdProc("dbgpiss",cmdStartPiss);

	push	OFFSET ?cmdStartPiss@@YAXPAD@Z		; cmdStartPiss
	push	OFFSET ??_C@_07CKPNEIID@dbgpiss?$AA@
	mov	ecx, DWORD PTR ?pCmdWindow@@3PAVCCmdWindow@@A ; pCmdWindow
	call	?AddCmdProc@CCmdWindow@@QAEXPADP6AX0@Z@Z ; CCmdWindow::AddCmdProc

; 1518 : 
; 1519 : 	pCmdWindow->AddCmdProc("showmyvw",cmdShowMyVirtualWorld);

	push	OFFSET ?cmdShowMyVirtualWorld@@YAXPAD@Z	; cmdShowMyVirtualWorld
	push	OFFSET ??_C@_08PPJIAJAD@showmyvw?$AA@
	mov	ecx, DWORD PTR ?pCmdWindow@@3PAVCCmdWindow@@A ; pCmdWindow
	call	?AddCmdProc@CCmdWindow@@QAEXPADP6AX0@Z@Z ; CCmdWindow::AddCmdProc

; 1520 : 	pCmdWindow->AddCmdProc("showplayervw",cmdShowPlayerVirtualWorld);

	push	OFFSET ?cmdShowPlayerVirtualWorld@@YAXPAD@Z ; cmdShowPlayerVirtualWorld
	push	OFFSET ??_C@_0N@NILPEJFO@showplayervw?$AA@
	mov	ecx, DWORD PTR ?pCmdWindow@@3PAVCCmdWindow@@A ; pCmdWindow
	call	?AddCmdProc@CCmdWindow@@QAEXPADP6AX0@Z@Z ; CCmdWindow::AddCmdProc

; 1521 : 
; 1522 : #endif
; 1523 : 	
; 1524 : }

	pop	edi
	pop	esi
	pop	ebx
	add	esp, 192				; 000000c0H
	cmp	ebp, esp
	call	__RTC_CheckEsp
	mov	esp, ebp
	pop	ebp
	ret	0
?SetupCommands@@YAXXZ ENDP				; SetupCommands
_TEXT	ENDS
; Function compile flags: /Odtp /RTCsu /ZI
; File z:\sampsrc\02xu1\saco\cmdprocs.cpp
;	COMDAT ?cmdShowPlayerVirtualWorld@@YAXPAD@Z
_TEXT	SEGMENT
_pPlayerPool$1 = -20					; size = 4
_bytePlayerID$ = -5					; size = 1
_szCmd$ = 8						; size = 4
?cmdShowPlayerVirtualWorld@@YAXPAD@Z PROC		; cmdShowPlayerVirtualWorld, COMDAT

; 1393 : {

	push	ebp
	mov	ebp, esp
	sub	esp, 216				; 000000d8H
	push	ebx
	push	esi
	push	edi
	lea	edi, DWORD PTR [ebp-216]
	mov	ecx, 54					; 00000036H
	mov	eax, -858993460				; ccccccccH
	rep stosd

; 1394 : 	BYTE bytePlayerID = atoi(szCmd);

	mov	eax, DWORD PTR _szCmd$[ebp]
	push	eax
	call	_atoi
	add	esp, 4
	mov	BYTE PTR _bytePlayerID$[ebp], al

; 1395 : 
; 1396 : 	if(pNetGame) {

	cmp	DWORD PTR ?pNetGame@@3PAVCNetGame@@A, 0	; pNetGame
	je	SHORT $LN3@cmdShowPla

; 1397 : 		CPlayerPool *pPlayerPool = pNetGame->GetPlayerPool();

	mov	ecx, DWORD PTR ?pNetGame@@3PAVCNetGame@@A ; pNetGame
	call	?GetPlayerPool@CNetGame@@QAEPAVCPlayerPool@@XZ ; CNetGame::GetPlayerPool
	mov	DWORD PTR _pPlayerPool$1[ebp], eax

; 1398 : 		if(pPlayerPool->GetSlotState(bytePlayerID)) {

	movzx	eax, BYTE PTR _bytePlayerID$[ebp]
	push	eax
	mov	ecx, DWORD PTR _pPlayerPool$1[ebp]
	call	?GetSlotState@CPlayerPool@@QAEHE@Z	; CPlayerPool::GetSlotState
	test	eax, eax
	je	SHORT $LN3@cmdShowPla

; 1399 : 			pChatWindow->AddDebugMessage("VW: %u",pPlayerPool->GetAt(bytePlayerID)->m_byteVirtualWorld);

	movzx	eax, BYTE PTR _bytePlayerID$[ebp]
	push	eax
	mov	ecx, DWORD PTR _pPlayerPool$1[ebp]
	call	?GetAt@CPlayerPool@@QAEPAVCRemotePlayer@@E@Z ; CPlayerPool::GetAt
	movzx	ecx, BYTE PTR [eax+356]
	push	ecx
	push	OFFSET ??_C@_06BEHAMCOC@VW?3?5?$CFu?$AA@
	mov	edx, DWORD PTR ?pChatWindow@@3PAVCChatWindow@@A ; pChatWindow
	push	edx
	call	?AddDebugMessage@CChatWindow@@QAAXPADZZ	; CChatWindow::AddDebugMessage
	add	esp, 12					; 0000000cH
$LN3@cmdShowPla:

; 1400 : 		}
; 1401 : 	}
; 1402 : }

	pop	edi
	pop	esi
	pop	ebx
	add	esp, 216				; 000000d8H
	cmp	ebp, esp
	call	__RTC_CheckEsp
	mov	esp, ebp
	pop	ebp
	ret	0
?cmdShowPlayerVirtualWorld@@YAXPAD@Z ENDP		; cmdShowPlayerVirtualWorld
_TEXT	ENDS
; Function compile flags: /Odtp /RTCsu /ZI
; File z:\sampsrc\02xu1\saco\cmdprocs.cpp
;	COMDAT ?cmdShowMyVirtualWorld@@YAXPAD@Z
_TEXT	SEGMENT
_szCmd$ = 8						; size = 4
?cmdShowMyVirtualWorld@@YAXPAD@Z PROC			; cmdShowMyVirtualWorld, COMDAT

; 1384 : {

	push	ebp
	mov	ebp, esp
	sub	esp, 192				; 000000c0H
	push	ebx
	push	esi
	push	edi
	lea	edi, DWORD PTR [ebp-192]
	mov	ecx, 48					; 00000030H
	mov	eax, -858993460				; ccccccccH
	rep stosd

; 1385 : 	if(pNetGame) {

	cmp	DWORD PTR ?pNetGame@@3PAVCNetGame@@A, 0	; pNetGame
	je	SHORT $LN2@cmdShowMyV

; 1386 : 		pChatWindow->AddDebugMessage("MyVW: %u",pNetGame->GetPlayerPool()->GetLocalPlayer()->GetVirtualWorld());

	mov	ecx, DWORD PTR ?pNetGame@@3PAVCNetGame@@A ; pNetGame
	call	?GetPlayerPool@CNetGame@@QAEPAVCPlayerPool@@XZ ; CNetGame::GetPlayerPool
	mov	ecx, eax
	call	?GetLocalPlayer@CPlayerPool@@QAEPAVCLocalPlayer@@XZ ; CPlayerPool::GetLocalPlayer
	mov	ecx, eax
	call	?GetVirtualWorld@CLocalPlayer@@QAEEXZ	; CLocalPlayer::GetVirtualWorld
	movzx	eax, al
	push	eax
	push	OFFSET ??_C@_08PDNHGHNJ@MyVW?3?5?$CFu?$AA@
	mov	ecx, DWORD PTR ?pChatWindow@@3PAVCChatWindow@@A ; pChatWindow
	push	ecx
	call	?AddDebugMessage@CChatWindow@@QAAXPADZZ	; CChatWindow::AddDebugMessage
	add	esp, 12					; 0000000cH
$LN2@cmdShowMyV:

; 1387 : 	}
; 1388 : }

	pop	edi
	pop	esi
	pop	ebx
	add	esp, 192				; 000000c0H
	cmp	ebp, esp
	call	__RTC_CheckEsp
	mov	esp, ebp
	pop	ebp
	ret	0
?cmdShowMyVirtualWorld@@YAXPAD@Z ENDP			; cmdShowMyVirtualWorld
_TEXT	ENDS
; Function compile flags: /Odtp /RTCsu /ZI
; File z:\sampsrc\02xu1\saco\cmdprocs.cpp
;	COMDAT ?cmdStartPiss@@YAXPAD@Z
_TEXT	SEGMENT
_szCmd$ = 8						; size = 4
?cmdStartPiss@@YAXPAD@Z PROC				; cmdStartPiss, COMDAT

; 1374 : {

	push	ebp
	mov	ebp, esp
	sub	esp, 192				; 000000c0H
	push	ebx
	push	esi
	push	edi
	lea	edi, DWORD PTR [ebp-192]
	mov	ecx, 48					; 00000030H
	mov	eax, -858993460				; ccccccccH
	rep stosd

; 1375 : 	if(pNetGame) {

	cmp	DWORD PTR ?pNetGame@@3PAVCNetGame@@A, 0	; pNetGame
	je	SHORT $LN2@cmdStartPi

; 1376 : 		pNetGame->GetPlayerPool()->
; 1377 : 			GetLocalPlayer()->ApplySpecialAction(SPECIAL_ACTION_URINATE);

	push	68					; 00000044H
	mov	ecx, DWORD PTR ?pNetGame@@3PAVCNetGame@@A ; pNetGame
	call	?GetPlayerPool@CNetGame@@QAEPAVCPlayerPool@@XZ ; CNetGame::GetPlayerPool
	mov	ecx, eax
	call	?GetLocalPlayer@CPlayerPool@@QAEPAVCLocalPlayer@@XZ ; CPlayerPool::GetLocalPlayer
	mov	ecx, eax
	call	?ApplySpecialAction@CLocalPlayer@@QAEXE@Z ; CLocalPlayer::ApplySpecialAction
$LN2@cmdStartPi:

; 1378 : 	}
; 1379 : }

	pop	edi
	pop	esi
	pop	ebx
	add	esp, 192				; 000000c0H
	cmp	ebp, esp
	call	__RTC_CheckEsp
	mov	esp, ebp
	pop	ebp
	ret	0
?cmdStartPiss@@YAXPAD@Z ENDP				; cmdStartPiss
_TEXT	ENDS
; Function compile flags: /Odtp /RTCsu /ZI
; File z:\sampsrc\02xu1\saco\cmdprocs.cpp
;	COMDAT ?cmdDisableEnEx@@YAXPAD@Z
_TEXT	SEGMENT
_szCmd$ = 8						; size = 4
?cmdDisableEnEx@@YAXPAD@Z PROC				; cmdDisableEnEx, COMDAT

; 1367 : {

	push	ebp
	mov	ebp, esp
	sub	esp, 192				; 000000c0H
	push	ebx
	push	esi
	push	edi
	lea	edi, DWORD PTR [ebp-192]
	mov	ecx, 48					; 00000030H
	mov	eax, -858993460				; ccccccccH
	rep stosd

; 1368 : 	pGame->DisableEnterExits();

	mov	ecx, DWORD PTR ?pGame@@3PAVCGame@@A	; pGame
	call	?DisableEnterExits@CGame@@QAEXXZ	; CGame::DisableEnterExits

; 1369 : }

	pop	edi
	pop	esi
	pop	ebx
	add	esp, 192				; 000000c0H
	cmp	ebp, esp
	call	__RTC_CheckEsp
	mov	esp, ebp
	pop	ebp
	ret	0
?cmdDisableEnEx@@YAXPAD@Z ENDP				; cmdDisableEnEx
_TEXT	ENDS
; Function compile flags: /Odtp /RTCsu /ZI
; File z:\sampsrc\02xu1\saco\cmdprocs.cpp
;	COMDAT ?cmdBench@@YAXPAD@Z
_TEXT	SEGMENT
_szCmd$ = 8						; size = 4
?cmdBench@@YAXPAD@Z PROC				; cmdBench, COMDAT

; 1358 : {

	push	ebp
	mov	ebp, esp
	sub	esp, 192				; 000000c0H
	push	ebx
	push	esi
	push	edi
	lea	edi, DWORD PTR [ebp-192]
	mov	ecx, 48					; 00000030H
	mov	eax, -858993460				; ccccccccH
	rep stosd

; 1359 : 	pChatWindow->AddDebugMessage("Pl: %u V: %u Pk: %u Mn: %u O: %u T: %u",
; 1360 : 		iPlayersBench,iVehiclesBench,iPicksupsBench,iMenuBench,iObjectBench,
; 1361 : 		iTextDrawBench);

	mov	eax, DWORD PTR ?iTextDrawBench@@3HA	; iTextDrawBench
	push	eax
	mov	ecx, DWORD PTR ?iObjectBench@@3HA	; iObjectBench
	push	ecx
	mov	edx, DWORD PTR ?iMenuBench@@3HA		; iMenuBench
	push	edx
	mov	eax, DWORD PTR ?iPicksupsBench@@3HA	; iPicksupsBench
	push	eax
	mov	ecx, DWORD PTR ?iVehiclesBench@@3HA	; iVehiclesBench
	push	ecx
	mov	edx, DWORD PTR ?iPlayersBench@@3HA	; iPlayersBench
	push	edx
	push	OFFSET ??_C@_0CH@JKHDKMBF@Pl?3?5?$CFu?5V?3?5?$CFu?5Pk?3?5?$CFu?5Mn?3?5?$CFu?5O?3?5?$CFu@
	mov	eax, DWORD PTR ?pChatWindow@@3PAVCChatWindow@@A ; pChatWindow
	push	eax
	call	?AddDebugMessage@CChatWindow@@QAAXPADZZ	; CChatWindow::AddDebugMessage
	add	esp, 32					; 00000020H

; 1362 : }

	pop	edi
	pop	esi
	pop	ebx
	add	esp, 192				; 000000c0H
	cmp	ebp, esp
	call	__RTC_CheckEsp
	mov	esp, ebp
	pop	ebp
	ret	0
?cmdBench@@YAXPAD@Z ENDP				; cmdBench
_TEXT	ENDS
; Function compile flags: /Odtp /RTCsu /ZI
; File z:\sampsrc\02xu1\saco\cmdprocs.cpp
;	COMDAT ?cmdTaskSitIdle@@YAXPAD@Z
_TEXT	SEGMENT
_Aim$ = -32						; size = 4
_LookAt$ = -20						; size = 12
__$ArrayPad$ = -4					; size = 4
_szCmd$ = 8						; size = 4
?cmdTaskSitIdle@@YAXPAD@Z PROC				; cmdTaskSitIdle, COMDAT

; 1333 : {

	push	ebp
	mov	ebp, esp
	sub	esp, 228				; 000000e4H
	push	ebx
	push	esi
	push	edi
	lea	edi, DWORD PTR [ebp-228]
	mov	ecx, 57					; 00000039H
	mov	eax, -858993460				; ccccccccH
	rep stosd
	mov	eax, DWORD PTR ___security_cookie
	xor	eax, ebp
	mov	DWORD PTR __$ArrayPad$[ebp], eax

; 1334 : 	VECTOR LookAt;
; 1335 :     CAMERA_AIM *Aim = GameGetInternalAim();

	call	?GameGetInternalAim@@YGPAU_CAMERA_AIM@@XZ ; GameGetInternalAim
	mov	DWORD PTR _Aim$[ebp], eax

; 1336 : 
; 1337 : 	LookAt.X = Aim->pos1x + (Aim->f1x * 10.0f);

	mov	eax, DWORD PTR _Aim$[ebp]
	movss	xmm0, DWORD PTR [eax]
	mulss	xmm0, DWORD PTR __real@41200000
	mov	ecx, DWORD PTR _Aim$[ebp]
	addss	xmm0, DWORD PTR [ecx+12]
	movss	DWORD PTR _LookAt$[ebp], xmm0

; 1338 : 	LookAt.Y = Aim->pos1y + (Aim->f1y * 10.0f);

	mov	eax, DWORD PTR _Aim$[ebp]
	movss	xmm0, DWORD PTR [eax+4]
	mulss	xmm0, DWORD PTR __real@41200000
	mov	ecx, DWORD PTR _Aim$[ebp]
	addss	xmm0, DWORD PTR [ecx+16]
	movss	DWORD PTR _LookAt$[ebp+4], xmm0

; 1339 : 	LookAt.Z = Aim->pos1z + (Aim->f1z * 10.0f);

	mov	eax, DWORD PTR _Aim$[ebp]
	movss	xmm0, DWORD PTR [eax+8]
	mulss	xmm0, DWORD PTR __real@41200000
	mov	ecx, DWORD PTR _Aim$[ebp]
	addss	xmm0, DWORD PTR [ecx+20]
	movss	DWORD PTR _LookAt$[ebp+8], xmm0

; 1340 : 
; 1341 :     pGame->FindPlayerPed()->ApplyCommandTask(
; 1342 : 		"TaskSitIdle",0,99999,-1,0,0,0.25f,750,3,0);

	push	0
	push	3
	push	750					; 000002eeH
	push	ecx
	movss	xmm0, DWORD PTR __real@3e800000
	movss	DWORD PTR [esp], xmm0
	push	0
	push	0
	push	-1
	push	99999					; 0001869fH
	push	0
	push	OFFSET ??_C@_0M@EJBHFPH@TaskSitIdle?$AA@
	mov	ecx, DWORD PTR ?pGame@@3PAVCGame@@A	; pGame
	call	?FindPlayerPed@CGame@@QAEPAVCPlayerPed@@XZ ; CGame::FindPlayerPed
	mov	ecx, eax
	call	?ApplyCommandTask@CPlayerPed@@QAEXPADHHHPAU_VECTOR@@HMHHH@Z ; CPlayerPed::ApplyCommandTask

; 1343 : 
; 1344 : 	//  pGame->FindPlayerPed()->ApplyCommandTask(
; 1345 : 		//"TaskProzzy",0,99999,-1,0,0,0.25f,500,3,0);
; 1346 : }

	push	edx
	mov	ecx, ebp
	push	eax
	lea	edx, DWORD PTR $LN5@cmdTaskSit
	call	@_RTC_CheckStackVars@8
	pop	eax
	pop	edx
	pop	edi
	pop	esi
	pop	ebx
	mov	ecx, DWORD PTR __$ArrayPad$[ebp]
	xor	ecx, ebp
	call	@__security_check_cookie@4
	add	esp, 228				; 000000e4H
	cmp	ebp, esp
	call	__RTC_CheckEsp
	mov	esp, ebp
	pop	ebp
	ret	0
$LN5@cmdTaskSit:
	DD	1
	DD	$LN4@cmdTaskSit
$LN4@cmdTaskSit:
	DD	-20					; ffffffecH
	DD	12					; 0000000cH
	DD	$LN3@cmdTaskSit
$LN3@cmdTaskSit:
	DB	76					; 0000004cH
	DB	111					; 0000006fH
	DB	111					; 0000006fH
	DB	107					; 0000006bH
	DB	65					; 00000041H
	DB	116					; 00000074H
	DB	0
?cmdTaskSitIdle@@YAXPAD@Z ENDP				; cmdTaskSitIdle
_TEXT	ENDS
; Function compile flags: /Odtp /RTCsu /ZI
; File z:\sampsrc\02xu1\saco\cmdprocs.cpp
;	COMDAT ?cmdFollowPedSA@@YAXPAD@Z
_TEXT	SEGMENT
_Aim$ = -32						; size = 4
_LookAt$ = -20						; size = 12
__$ArrayPad$ = -4					; size = 4
_szCmd$ = 8						; size = 4
?cmdFollowPedSA@@YAXPAD@Z PROC				; cmdFollowPedSA, COMDAT

; 1316 : {

	push	ebp
	mov	ebp, esp
	sub	esp, 228				; 000000e4H
	push	ebx
	push	esi
	push	edi
	lea	edi, DWORD PTR [ebp-228]
	mov	ecx, 57					; 00000039H
	mov	eax, -858993460				; ccccccccH
	rep stosd
	mov	eax, DWORD PTR ___security_cookie
	xor	eax, ebp
	mov	DWORD PTR __$ArrayPad$[ebp], eax

; 1317 : 	VECTOR LookAt;
; 1318 :     CAMERA_AIM *Aim = GameGetInternalAim();

	call	?GameGetInternalAim@@YGPAU_CAMERA_AIM@@XZ ; GameGetInternalAim
	mov	DWORD PTR _Aim$[ebp], eax

; 1319 : 
; 1320 : 	LookAt.X = Aim->pos1x + (Aim->f1x * 10.0f);

	mov	eax, DWORD PTR _Aim$[ebp]
	movss	xmm0, DWORD PTR [eax]
	mulss	xmm0, DWORD PTR __real@41200000
	mov	ecx, DWORD PTR _Aim$[ebp]
	addss	xmm0, DWORD PTR [ecx+12]
	movss	DWORD PTR _LookAt$[ebp], xmm0

; 1321 : 	LookAt.Y = Aim->pos1y + (Aim->f1y * 10.0f);

	mov	eax, DWORD PTR _Aim$[ebp]
	movss	xmm0, DWORD PTR [eax+4]
	mulss	xmm0, DWORD PTR __real@41200000
	mov	ecx, DWORD PTR _Aim$[ebp]
	addss	xmm0, DWORD PTR [ecx+16]
	movss	DWORD PTR _LookAt$[ebp+4], xmm0

; 1322 : 	LookAt.Z = Aim->pos1z + (Aim->f1z * 10.0f);

	mov	eax, DWORD PTR _Aim$[ebp]
	movss	xmm0, DWORD PTR [eax+8]
	mulss	xmm0, DWORD PTR __real@41200000
	mov	ecx, DWORD PTR _Aim$[ebp]
	addss	xmm0, DWORD PTR [ecx+20]
	movss	DWORD PTR _LookAt$[ebp+8], xmm0

; 1323 : 
; 1324 :     pGame->FindPlayerPed()->ApplyCommandTask(
; 1325 : 		"FollowPedSA",0,1500,-1,&LookAt,0,1.0f,500,3,0);

	push	0
	push	3
	push	500					; 000001f4H
	push	ecx
	movss	xmm0, DWORD PTR __real@3f800000
	movss	DWORD PTR [esp], xmm0
	push	0
	lea	eax, DWORD PTR _LookAt$[ebp]
	push	eax
	push	-1
	push	1500					; 000005dcH
	push	0
	push	OFFSET ??_C@_0M@KHFAPNLB@FollowPedSA?$AA@
	mov	ecx, DWORD PTR ?pGame@@3PAVCGame@@A	; pGame
	call	?FindPlayerPed@CGame@@QAEPAVCPlayerPed@@XZ ; CGame::FindPlayerPed
	mov	ecx, eax
	call	?ApplyCommandTask@CPlayerPed@@QAEXPADHHHPAU_VECTOR@@HMHHH@Z ; CPlayerPed::ApplyCommandTask

; 1326 : }

	push	edx
	mov	ecx, ebp
	push	eax
	lea	edx, DWORD PTR $LN5@cmdFollowP
	call	@_RTC_CheckStackVars@8
	pop	eax
	pop	edx
	pop	edi
	pop	esi
	pop	ebx
	mov	ecx, DWORD PTR __$ArrayPad$[ebp]
	xor	ecx, ebp
	call	@__security_check_cookie@4
	add	esp, 228				; 000000e4H
	cmp	ebp, esp
	call	__RTC_CheckEsp
	mov	esp, ebp
	pop	ebp
	ret	0
	npad	2
$LN5@cmdFollowP:
	DD	1
	DD	$LN4@cmdFollowP
$LN4@cmdFollowP:
	DD	-20					; ffffffecH
	DD	12					; 0000000cH
	DD	$LN3@cmdFollowP
$LN3@cmdFollowP:
	DB	76					; 0000004cH
	DB	111					; 0000006fH
	DB	111					; 0000006fH
	DB	107					; 0000006bH
	DB	65					; 00000041H
	DB	116					; 00000074H
	DB	0
?cmdFollowPedSA@@YAXPAD@Z ENDP				; cmdFollowPedSA
_TEXT	ENDS
; Function compile flags: /Odtp /RTCsu /ZI
; File z:\sampsrc\02xu1\saco\cmdprocs.cpp
;	COMDAT ?cmdVModels@@YAXPAD@Z
_TEXT	SEGMENT
_iTotal$1 = -912					; size = 4
_iVehicleType$2 = -900					; size = 4
_iCount$3 = -888					; size = 844
_iTotalVehicles$4 = -36					; size = 4
_x$5 = -24						; size = 4
_pVehiclePool$ = -12					; size = 4
__$ArrayPad$ = -4					; size = 4
_szCmd$ = 8						; size = 4
?cmdVModels@@YAXPAD@Z PROC				; cmdVModels, COMDAT

; 1281 : {

	push	ebp
	mov	ebp, esp
	sub	esp, 1108				; 00000454H
	push	ebx
	push	esi
	push	edi
	lea	edi, DWORD PTR [ebp-1108]
	mov	ecx, 277				; 00000115H
	mov	eax, -858993460				; ccccccccH
	rep stosd
	mov	eax, DWORD PTR ___security_cookie
	xor	eax, ebp
	mov	DWORD PTR __$ArrayPad$[ebp], eax

; 1282 :     CVehiclePool *pVehiclePool;
; 1283 : 	if(pNetGame) {

	cmp	DWORD PTR ?pNetGame@@3PAVCNetGame@@A, 0	; pNetGame
	je	$LN8@cmdVModels

; 1284 : 		pVehiclePool = pNetGame->GetVehiclePool();

	mov	ecx, DWORD PTR ?pNetGame@@3PAVCNetGame@@A ; pNetGame
	call	?GetVehiclePool@CNetGame@@QAEPAVCVehiclePool@@XZ ; CNetGame::GetVehiclePool
	mov	DWORD PTR _pVehiclePool$[ebp], eax

; 1285 : 
; 1286 : 		int x=0,iTotalVehicles=0;

	mov	DWORD PTR _x$5[ebp], 0
	mov	DWORD PTR _iTotalVehicles$4[ebp], 0

; 1287 :         int iCount[211];
; 1288 : 		int iVehicleType;
; 1289 : 
; 1290 : 		memset(&iCount[0],0,sizeof(iCount));

	push	844					; 0000034cH
	push	0
	mov	eax, 4
	imul	ecx, eax, 0
	lea	edx, DWORD PTR _iCount$3[ebp+ecx]
	push	edx
	call	_memset
	add	esp, 12					; 0000000cH
$LN6@cmdVModels:

; 1291 : 
; 1292 : 		while(x!=MAX_VEHICLES) {

	cmp	DWORD PTR _x$5[ebp], 702		; 000002beH
	je	SHORT $LN5@cmdVModels

; 1293 : 			if(pVehiclePool->GetSlotState(x)) {

	movzx	eax, WORD PTR _x$5[ebp]
	push	eax
	mov	ecx, DWORD PTR _pVehiclePool$[ebp]
	call	?GetSlotState@CVehiclePool@@QAEHG@Z	; CVehiclePool::GetSlotState
	test	eax, eax
	je	SHORT $LN4@cmdVModels

; 1294 : 				iVehicleType = pVehiclePool->m_SpawnInfo[x].iVehicleType;

	imul	eax, DWORD PTR _x$5[ebp], 40
	mov	ecx, DWORD PTR _pVehiclePool$[ebp]
	mov	edx, DWORD PTR [ecx+eax+14040]
	mov	DWORD PTR _iVehicleType$2[ebp], edx

; 1295 : 				iCount[iVehicleType-400]++;

	mov	eax, DWORD PTR _iVehicleType$2[ebp]
	mov	ecx, DWORD PTR _iCount$3[ebp+eax*4-1600]
	add	ecx, 1
	mov	edx, DWORD PTR _iVehicleType$2[ebp]
	mov	DWORD PTR _iCount$3[ebp+edx*4-1600], ecx

; 1296 : 				iTotalVehicles++;

	mov	eax, DWORD PTR _iTotalVehicles$4[ebp]
	add	eax, 1
	mov	DWORD PTR _iTotalVehicles$4[ebp], eax
$LN4@cmdVModels:

; 1297 : 			}
; 1298 : 			x++;

	mov	eax, DWORD PTR _x$5[ebp]
	add	eax, 1
	mov	DWORD PTR _x$5[ebp], eax

; 1299 : 		}

	jmp	SHORT $LN6@cmdVModels
$LN5@cmdVModels:

; 1300 : 
; 1301 :         x=0;

	mov	DWORD PTR _x$5[ebp], 0

; 1302 : 		int iTotal=0;

	mov	DWORD PTR _iTotal$1[ebp], 0
$LN3@cmdVModels:

; 1303 : 		while(x!=211) {

	cmp	DWORD PTR _x$5[ebp], 211		; 000000d3H
	je	SHORT $LN2@cmdVModels

; 1304 : 			if(iCount[x]) {

	mov	eax, DWORD PTR _x$5[ebp]
	cmp	DWORD PTR _iCount$3[ebp+eax*4], 0
	je	SHORT $LN1@cmdVModels

; 1305 : 				iTotal++;

	mov	eax, DWORD PTR _iTotal$1[ebp]
	add	eax, 1
	mov	DWORD PTR _iTotal$1[ebp], eax
$LN1@cmdVModels:

; 1306 : 			}
; 1307 : 			x++;

	mov	eax, DWORD PTR _x$5[ebp]
	add	eax, 1
	mov	DWORD PTR _x$5[ebp], eax

; 1308 : 		}

	jmp	SHORT $LN3@cmdVModels
$LN2@cmdVModels:

; 1309 : 		pChatWindow->AddDebugMessage("Vehicle Types: %u/%u",iTotal,iTotalVehicles);

	mov	eax, DWORD PTR _iTotalVehicles$4[ebp]
	push	eax
	mov	ecx, DWORD PTR _iTotal$1[ebp]
	push	ecx
	push	OFFSET ??_C@_0BF@NFAHHJEK@Vehicle?5Types?3?5?$CFu?1?$CFu?$AA@
	mov	edx, DWORD PTR ?pChatWindow@@3PAVCChatWindow@@A ; pChatWindow
	push	edx
	call	?AddDebugMessage@CChatWindow@@QAAXPADZZ	; CChatWindow::AddDebugMessage
	add	esp, 16					; 00000010H
$LN8@cmdVModels:

; 1310 : 	}            
; 1311 : }

	push	edx
	mov	ecx, ebp
	push	eax
	lea	edx, DWORD PTR $LN12@cmdVModels
	call	@_RTC_CheckStackVars@8
	pop	eax
	pop	edx
	pop	edi
	pop	esi
	pop	ebx
	mov	ecx, DWORD PTR __$ArrayPad$[ebp]
	xor	ecx, ebp
	call	@__security_check_cookie@4
	add	esp, 1108				; 00000454H
	cmp	ebp, esp
	call	__RTC_CheckEsp
	mov	esp, ebp
	pop	ebp
	ret	0
	npad	2
$LN12@cmdVModels:
	DD	1
	DD	$LN11@cmdVModels
$LN11@cmdVModels:
	DD	-888					; fffffc88H
	DD	844					; 0000034cH
	DD	$LN10@cmdVModels
$LN10@cmdVModels:
	DB	105					; 00000069H
	DB	67					; 00000043H
	DB	111					; 0000006fH
	DB	117					; 00000075H
	DB	110					; 0000006eH
	DB	116					; 00000074H
	DB	0
?cmdVModels@@YAXPAD@Z ENDP				; cmdVModels
_TEXT	ENDS
; Function compile flags: /Odtp /RTCsu /ZI
; File z:\sampsrc\02xu1\saco\cmdprocs.cpp
;	COMDAT ?cmdPopWheels@@YAXPAD@Z
_TEXT	SEGMENT
tv152 = -220						; size = 4
_vehicleid$ = -20					; size = 2
_byteToggle$ = -5					; size = 1
_szCmd$ = 8						; size = 4
?cmdPopWheels@@YAXPAD@Z PROC				; cmdPopWheels, COMDAT

; 1259 : {

	push	ebp
	mov	ebp, esp
	sub	esp, 220				; 000000dcH
	push	ebx
	push	esi
	push	edi
	lea	edi, DWORD PTR [ebp-220]
	mov	ecx, 55					; 00000037H
	mov	eax, -858993460				; ccccccccH
	rep stosd

; 1260 : 	BYTE byteToggle = atoi(szCmd);

	mov	eax, DWORD PTR _szCmd$[ebp]
	push	eax
	call	_atoi
	add	esp, 4
	mov	BYTE PTR _byteToggle$[ebp], al

; 1261 : 	VEHICLEID vehicleid;
; 1262 : 	if (pNetGame) {

	cmp	DWORD PTR ?pNetGame@@3PAVCNetGame@@A, 0	; pNetGame
	je	$LN5@cmdPopWhee

; 1263 : 		if (pNetGame->GetPlayerPool() && pNetGame->GetVehiclePool()) {

	mov	ecx, DWORD PTR ?pNetGame@@3PAVCNetGame@@A ; pNetGame
	call	?GetPlayerPool@CNetGame@@QAEPAVCPlayerPool@@XZ ; CNetGame::GetPlayerPool
	test	eax, eax
	je	$LN5@cmdPopWhee
	mov	ecx, DWORD PTR ?pNetGame@@3PAVCNetGame@@A ; pNetGame
	call	?GetVehiclePool@CNetGame@@QAEPAVCVehiclePool@@XZ ; CNetGame::GetVehiclePool
	test	eax, eax
	je	$LN5@cmdPopWhee

; 1264 : 			vehicleid = pNetGame->GetPlayerPool()->GetLocalPlayer()->m_CurrentVehicle;

	mov	ecx, DWORD PTR ?pNetGame@@3PAVCNetGame@@A ; pNetGame
	call	?GetPlayerPool@CNetGame@@QAEPAVCPlayerPool@@XZ ; CNetGame::GetPlayerPool
	mov	ecx, eax
	call	?GetLocalPlayer@CPlayerPool@@QAEPAVCLocalPlayer@@XZ ; CPlayerPool::GetLocalPlayer
	mov	ax, WORD PTR [eax+35]
	mov	WORD PTR _vehicleid$[ebp], ax

; 1265 : 			if (vehicleid != 0xFFFF) {

	movzx	eax, WORD PTR _vehicleid$[ebp]
	cmp	eax, 65535				; 0000ffffH
	je	$LN2@cmdPopWhee

; 1266 : 				pNetGame->GetVehiclePool()->GetAt(vehicleid)->SetWheelPopped(0, byteToggle);

	movzx	eax, BYTE PTR _byteToggle$[ebp]
	push	eax
	push	0
	movzx	ecx, WORD PTR _vehicleid$[ebp]
	push	ecx
	mov	ecx, DWORD PTR ?pNetGame@@3PAVCNetGame@@A ; pNetGame
	call	?GetVehiclePool@CNetGame@@QAEPAVCVehiclePool@@XZ ; CNetGame::GetVehiclePool
	mov	ecx, eax
	call	?GetAt@CVehiclePool@@QAEPAVCVehicle@@G@Z ; CVehiclePool::GetAt
	mov	ecx, eax
	call	?SetWheelPopped@CVehicle@@QAEXKK@Z	; CVehicle::SetWheelPopped

; 1267 : 				pNetGame->GetVehiclePool()->GetAt(vehicleid)->SetWheelPopped(1, byteToggle);

	movzx	eax, BYTE PTR _byteToggle$[ebp]
	push	eax
	push	1
	movzx	ecx, WORD PTR _vehicleid$[ebp]
	push	ecx
	mov	ecx, DWORD PTR ?pNetGame@@3PAVCNetGame@@A ; pNetGame
	call	?GetVehiclePool@CNetGame@@QAEPAVCVehiclePool@@XZ ; CNetGame::GetVehiclePool
	mov	ecx, eax
	call	?GetAt@CVehiclePool@@QAEPAVCVehicle@@G@Z ; CVehiclePool::GetAt
	mov	ecx, eax
	call	?SetWheelPopped@CVehicle@@QAEXKK@Z	; CVehicle::SetWheelPopped

; 1268 : 				pNetGame->GetVehiclePool()->GetAt(vehicleid)->SetWheelPopped(2, byteToggle);

	movzx	eax, BYTE PTR _byteToggle$[ebp]
	push	eax
	push	2
	movzx	ecx, WORD PTR _vehicleid$[ebp]
	push	ecx
	mov	ecx, DWORD PTR ?pNetGame@@3PAVCNetGame@@A ; pNetGame
	call	?GetVehiclePool@CNetGame@@QAEPAVCVehiclePool@@XZ ; CNetGame::GetVehiclePool
	mov	ecx, eax
	call	?GetAt@CVehiclePool@@QAEPAVCVehicle@@G@Z ; CVehiclePool::GetAt
	mov	ecx, eax
	call	?SetWheelPopped@CVehicle@@QAEXKK@Z	; CVehicle::SetWheelPopped

; 1269 : 				pNetGame->GetVehiclePool()->GetAt(vehicleid)->SetWheelPopped(3, byteToggle);

	movzx	eax, BYTE PTR _byteToggle$[ebp]
	push	eax
	push	3
	movzx	ecx, WORD PTR _vehicleid$[ebp]
	push	ecx
	mov	ecx, DWORD PTR ?pNetGame@@3PAVCNetGame@@A ; pNetGame
	call	?GetVehiclePool@CNetGame@@QAEPAVCVehiclePool@@XZ ; CNetGame::GetVehiclePool
	mov	ecx, eax
	call	?GetAt@CVehiclePool@@QAEPAVCVehicle@@G@Z ; CVehiclePool::GetAt
	mov	ecx, eax
	call	?SetWheelPopped@CVehicle@@QAEXKK@Z	; CVehicle::SetWheelPopped

; 1270 : 				pChatWindow->AddDebugMessage((byteToggle) ? "Wheels popped" : "Wheels not popped");

	movzx	eax, BYTE PTR _byteToggle$[ebp]
	test	eax, eax
	je	SHORT $LN7@cmdPopWhee
	mov	DWORD PTR tv152[ebp], OFFSET ??_C@_0O@JKCJDMBD@Wheels?5popped?$AA@
	jmp	SHORT $LN8@cmdPopWhee
$LN7@cmdPopWhee:
	mov	DWORD PTR tv152[ebp], OFFSET ??_C@_0BC@ENEKOIKC@Wheels?5not?5popped?$AA@
$LN8@cmdPopWhee:
	mov	ecx, DWORD PTR tv152[ebp]
	push	ecx
	mov	edx, DWORD PTR ?pChatWindow@@3PAVCChatWindow@@A ; pChatWindow
	push	edx
	call	?AddDebugMessage@CChatWindow@@QAAXPADZZ	; CChatWindow::AddDebugMessage
	add	esp, 8

; 1271 : 			} else {

	jmp	SHORT $LN5@cmdPopWhee
$LN2@cmdPopWhee:

; 1272 : 				pChatWindow->AddDebugMessage("Get in a vehicle.");

	push	OFFSET ??_C@_0BC@LBFPAKDC@Get?5in?5a?5vehicle?4?$AA@
	mov	eax, DWORD PTR ?pChatWindow@@3PAVCChatWindow@@A ; pChatWindow
	push	eax
	call	?AddDebugMessage@CChatWindow@@QAAXPADZZ	; CChatWindow::AddDebugMessage
	add	esp, 8
$LN5@cmdPopWhee:

; 1273 : 			}
; 1274 : 		}
; 1275 : 	}
; 1276 : }

	pop	edi
	pop	esi
	pop	ebx
	add	esp, 220				; 000000dcH
	cmp	ebp, esp
	call	__RTC_CheckEsp
	mov	esp, ebp
	pop	ebp
	ret	0
?cmdPopWheels@@YAXPAD@Z ENDP				; cmdPopWheels
_TEXT	ENDS
; Function compile flags: /Odtp /RTCsu /ZI
; File z:\sampsrc\02xu1\saco\cmdprocs.cpp
;	COMDAT ?cmdDumpFreqTable@@YAXPAD@Z
_TEXT	SEGMENT
tv68 = -1256						; size = 4
_x$1 = -1056						; size = 4
_fout$2 = -1044						; size = 4
_freqTable$ = -1032					; size = 1024
__$ArrayPad$ = -4					; size = 4
_szCmd$ = 8						; size = 4
?cmdDumpFreqTable@@YAXPAD@Z PROC			; cmdDumpFreqTable, COMDAT

; 1239 : {

	push	ebp
	mov	ebp, esp
	sub	esp, 1256				; 000004e8H
	push	ebx
	push	esi
	push	edi
	lea	edi, DWORD PTR [ebp-1256]
	mov	ecx, 314				; 0000013aH
	mov	eax, -858993460				; ccccccccH
	rep stosd
	mov	eax, DWORD PTR ___security_cookie
	xor	eax, ebp
	mov	DWORD PTR __$ArrayPad$[ebp], eax

; 1240 : 	unsigned int freqTable[256];
; 1241 : 
; 1242 : 	if(pNetGame) {

	cmp	DWORD PTR ?pNetGame@@3PAVCNetGame@@A, 0	; pNetGame
	je	$LN4@cmdDumpFre

; 1243 : 		pNetGame->GetRakClient()->GetSendFrequencyTable(freqTable);

	mov	ecx, DWORD PTR ?pNetGame@@3PAVCNetGame@@A ; pNetGame
	call	?GetRakClient@CNetGame@@QAEPAVRakClientInterface@@XZ ; CNetGame::GetRakClient
	mov	DWORD PTR tv68[ebp], eax
	mov	esi, esp
	lea	eax, DWORD PTR _freqTable$[ebp]
	push	eax
	mov	ecx, DWORD PTR tv68[ebp]
	mov	edx, DWORD PTR [ecx]
	mov	ecx, DWORD PTR tv68[ebp]
	mov	eax, DWORD PTR [edx+116]
	call	eax
	cmp	esi, esp
	call	__RTC_CheckEsp

; 1244 : 		FILE *fout = fopen("freqclient.txt","w");

	push	OFFSET ??_C@_01NOFIACDB@w?$AA@
	push	OFFSET ??_C@_0P@EFNLGIAL@freqclient?4txt?$AA@
	call	_fopen
	add	esp, 8
	mov	DWORD PTR _fout$2[ebp], eax

; 1245 : 		if(!fout) return;

	cmp	DWORD PTR _fout$2[ebp], 0
	jne	SHORT $LN3@cmdDumpFre
	jmp	SHORT $LN5@cmdDumpFre
$LN3@cmdDumpFre:

; 1246 : 		int x=0;

	mov	DWORD PTR _x$1[ebp], 0
$LN2@cmdDumpFre:

; 1247 : 		while(x!=256) {

	cmp	DWORD PTR _x$1[ebp], 256		; 00000100H
	je	SHORT $LN1@cmdDumpFre

; 1248 : 			fprintf(fout,"%u,",freqTable[x]);

	mov	eax, DWORD PTR _x$1[ebp]
	mov	ecx, DWORD PTR _freqTable$[ebp+eax*4]
	push	ecx
	push	OFFSET ??_C@_03CCFMLOPK@?$CFu?0?$AA@
	mov	edx, DWORD PTR _fout$2[ebp]
	push	edx
	call	_fprintf
	add	esp, 12					; 0000000cH

; 1249 : 			x++;

	mov	eax, DWORD PTR _x$1[ebp]
	add	eax, 1
	mov	DWORD PTR _x$1[ebp], eax

; 1250 : 		}

	jmp	SHORT $LN2@cmdDumpFre
$LN1@cmdDumpFre:

; 1251 : 		fclose(fout);

	mov	eax, DWORD PTR _fout$2[ebp]
	push	eax
	call	_fclose
	add	esp, 4
$LN4@cmdDumpFre:

; 1252 : 	}
; 1253 : 	pChatWindow->AddDebugMessage("Done.");

	push	OFFSET ??_C@_05FPHEHGGN@Done?4?$AA@
	mov	eax, DWORD PTR ?pChatWindow@@3PAVCChatWindow@@A ; pChatWindow
	push	eax
	call	?AddDebugMessage@CChatWindow@@QAAXPADZZ	; CChatWindow::AddDebugMessage
	add	esp, 8
$LN5@cmdDumpFre:

; 1254 : }

	push	edx
	mov	ecx, ebp
	push	eax
	lea	edx, DWORD PTR $LN9@cmdDumpFre
	call	@_RTC_CheckStackVars@8
	pop	eax
	pop	edx
	pop	edi
	pop	esi
	pop	ebx
	mov	ecx, DWORD PTR __$ArrayPad$[ebp]
	xor	ecx, ebp
	call	@__security_check_cookie@4
	add	esp, 1256				; 000004e8H
	cmp	ebp, esp
	call	__RTC_CheckEsp
	mov	esp, ebp
	pop	ebp
	ret	0
	npad	2
$LN9@cmdDumpFre:
	DD	1
	DD	$LN8@cmdDumpFre
$LN8@cmdDumpFre:
	DD	-1032					; fffffbf8H
	DD	1024					; 00000400H
	DD	$LN7@cmdDumpFre
$LN7@cmdDumpFre:
	DB	102					; 00000066H
	DB	114					; 00000072H
	DB	101					; 00000065H
	DB	113					; 00000071H
	DB	84					; 00000054H
	DB	97					; 00000061H
	DB	98					; 00000062H
	DB	108					; 0000006cH
	DB	101					; 00000065H
	DB	0
?cmdDumpFreqTable@@YAXPAD@Z ENDP			; cmdDumpFreqTable
_TEXT	ENDS
; Function compile flags: /Odtp /RTCsu /ZI
; File z:\sampsrc\02xu1\saco\cmdprocs.cpp
;	COMDAT ?cmdPlayerVtbl@@YAXPAD@Z
_TEXT	SEGMENT
_sv$ = -101						; size = 1
_b$ = -92						; size = 4
_pPed$ = -80						; size = 4
_szCmd$ = 8						; size = 4
?cmdPlayerVtbl@@YAXPAD@Z PROC				; cmdPlayerVtbl, COMDAT

; 1217 : {

	push	ebp
	mov	ebp, esp
	sub	esp, 312				; 00000138H
	push	ebx
	push	esi
	push	edi
	lea	edi, DWORD PTR [ebp-312]
	mov	ecx, 78					; 0000004eH
	mov	eax, -858993460				; ccccccccH
	rep stosd

; 1218 : 	//GamePool_FindPlayerPed()->entity.vtable = 0x86C0A8;
; 1219 : 	MATRIX4X4 mat;
; 1220 : 	CPlayerPed *pPed = pGame->FindPlayerPed();

	mov	ecx, DWORD PTR ?pGame@@3PAVCGame@@A	; pGame
	call	?FindPlayerPed@CGame@@QAEPAVCPlayerPed@@XZ ; CGame::FindPlayerPed
	mov	DWORD PTR _pPed$[ebp], eax

; 1221 : 	BYTE *b = (BYTE *)pPed->m_pPed+1156;

	mov	eax, DWORD PTR _pPed$[ebp]
	mov	ecx, DWORD PTR [eax+28]
	add	ecx, 1156				; 00000484H
	mov	DWORD PTR _b$[ebp], ecx

; 1222 : 	BYTE sv = *b;

	mov	eax, DWORD PTR _b$[ebp]
	mov	cl, BYTE PTR [eax]
	mov	BYTE PTR _sv$[ebp], cl

; 1223 : 
; 1224 : 	pPed->m_pPed->dwPedType = 3;

	mov	eax, DWORD PTR _pPed$[ebp]
	mov	ecx, DWORD PTR [eax+28]
	mov	DWORD PTR [ecx+1432], 3

; 1225 : 	*b = 2;

	mov	eax, DWORD PTR _b$[ebp]
	mov	BYTE PTR [eax], 2

; 1226 : 
; 1227 : 	pPed->TeleportTo(pPed->m_pPed->entity.mat->pos.X,
; 1228 : 			pPed->m_pPed->entity.mat->pos.Y,
; 1229 : 			pPed->m_pPed->entity.mat->pos.Z+10.0f);

	mov	eax, DWORD PTR _pPed$[ebp]
	mov	ecx, DWORD PTR [eax+28]
	mov	edx, DWORD PTR [ecx+20]
	movss	xmm0, DWORD PTR [edx+56]
	addss	xmm0, DWORD PTR __real@41200000
	push	ecx
	movss	DWORD PTR [esp], xmm0
	mov	eax, DWORD PTR _pPed$[ebp]
	mov	ecx, DWORD PTR [eax+28]
	mov	edx, DWORD PTR [ecx+20]
	push	ecx
	movss	xmm0, DWORD PTR [edx+52]
	movss	DWORD PTR [esp], xmm0
	mov	eax, DWORD PTR _pPed$[ebp]
	mov	ecx, DWORD PTR [eax+28]
	mov	edx, DWORD PTR [ecx+20]
	push	ecx
	movss	xmm0, DWORD PTR [edx+48]
	movss	DWORD PTR [esp], xmm0
	mov	ecx, DWORD PTR _pPed$[ebp]
	call	?TeleportTo@CEntity@@QAEXMMM@Z		; CEntity::TeleportTo

; 1230 : 
; 1231 : 	*b = sv;

	mov	eax, DWORD PTR _b$[ebp]
	mov	cl, BYTE PTR _sv$[ebp]
	mov	BYTE PTR [eax], cl

; 1232 : 	pPed->m_pPed->dwPedType = 0;

	mov	eax, DWORD PTR _pPed$[ebp]
	mov	ecx, DWORD PTR [eax+28]
	mov	DWORD PTR [ecx+1432], 0

; 1233 : 
; 1234 : }

	push	edx
	mov	ecx, ebp
	push	eax
	lea	edx, DWORD PTR $LN6@cmdPlayerV
	call	@_RTC_CheckStackVars@8
	pop	eax
	pop	edx
	pop	edi
	pop	esi
	pop	ebx
	add	esp, 312				; 00000138H
	cmp	ebp, esp
	call	__RTC_CheckEsp
	mov	esp, ebp
	pop	ebp
	ret	0
	npad	2
$LN6@cmdPlayerV:
	DD	2
	DD	$LN5@cmdPlayerV
$LN5@cmdPlayerV:
	DD	-68					; ffffffbcH
	DD	64					; 00000040H
	DD	$LN3@cmdPlayerV
	DD	-116					; ffffff8cH
	DD	4
	DD	$LN4@cmdPlayerV
$LN4@cmdPlayerV:
	DB	95					; 0000005fH
	DB	36					; 00000024H
	DB	65					; 00000041H
	DB	114					; 00000072H
	DB	114					; 00000072H
	DB	97					; 00000061H
	DB	121					; 00000079H
	DB	80					; 00000050H
	DB	97					; 00000061H
	DB	100					; 00000064H
	DB	0
$LN3@cmdPlayerV:
	DB	109					; 0000006dH
	DB	97					; 00000061H
	DB	116					; 00000074H
	DB	0
?cmdPlayerVtbl@@YAXPAD@Z ENDP				; cmdPlayerVtbl
_TEXT	ENDS
; Function compile flags: /Odtp /RTCsu /ZI
; File z:\sampsrc\02xu1\saco\cmdprocs.cpp
;	COMDAT ?cmdAttractAddr@@YAXPAD@Z
_TEXT	SEGMENT
_szCmd$ = 8						; size = 4
?cmdAttractAddr@@YAXPAD@Z PROC				; cmdAttractAddr, COMDAT

; 1210 : {

	push	ebp
	mov	ebp, esp
	sub	esp, 192				; 000000c0H
	push	ebx
	push	esi
	push	edi
	lea	edi, DWORD PTR [ebp-192]
	mov	ecx, 48					; 00000030H
	mov	eax, -858993460				; ccccccccH
	rep stosd

; 1211 : 	pChatWindow->AddDebugMessage("0x%X",*(DWORD *)0xB744C4);	

	mov	eax, DWORD PTR ds:12010692
	push	eax
	push	OFFSET ??_C@_04HKJDGLEA@0x?$CFX?$AA@
	mov	ecx, DWORD PTR ?pChatWindow@@3PAVCChatWindow@@A ; pChatWindow
	push	ecx
	call	?AddDebugMessage@CChatWindow@@QAAXPADZZ	; CChatWindow::AddDebugMessage
	add	esp, 12					; 0000000cH

; 1212 : }

	pop	edi
	pop	esi
	pop	ebx
	add	esp, 192				; 000000c0H
	cmp	ebp, esp
	call	__RTC_CheckEsp
	mov	esp, ebp
	pop	ebp
	ret	0
?cmdAttractAddr@@YAXPAD@Z ENDP				; cmdAttractAddr
_TEXT	ENDS
; Function compile flags: /Odtp /RTCsu /ZI
; File z:\sampsrc\02xu1\saco\cmdprocs.cpp
;	COMDAT ?cmdSit@@YAXPAD@Z
_TEXT	SEGMENT
_szCmd$ = 8						; size = 4
?cmdSit@@YAXPAD@Z PROC					; cmdSit, COMDAT

; 1187 : {

	push	ebp
	mov	ebp, esp
	sub	esp, 192				; 000000c0H
	push	ebx
	push	esi
	push	edi
	lea	edi, DWORD PTR [ebp-192]
	mov	ecx, 48					; 00000030H
	mov	eax, -858993460				; ccccccccH
	rep stosd

; 1188 : 	ScriptCommand(&actor_task_sit,pGame->FindPlayerPed()->m_dwGTAId,-1);

	push	-1
	mov	ecx, DWORD PTR ?pGame@@3PAVCGame@@A	; pGame
	call	?FindPlayerPed@CGame@@QAEPAVCPlayerPed@@XZ ; CGame::FindPlayerPed
	mov	eax, DWORD PTR [eax+8]
	push	eax
	push	OFFSET _actor_task_sit
	call	?ScriptCommand@@YAHPBUSCRIPT_COMMAND@@ZZ ; ScriptCommand
	add	esp, 12					; 0000000cH

; 1189 : 
; 1190 : 	/*ApplyCommandTask( "TaskSitInChair",ent1,ent2(0),
; 1191 : 	// (unk),-1,(unk),0x3E800000,500,3,0 );
; 1192 : 	
; 1193 : 	CTask *pTaskSitInChair = new CTask(52);
; 1194 : 	DWORD taskPtr = (DWORD)pTaskSitInChair->m_pTaskType;
; 1195 : 	DWORD p = (DWORD)pGame->FindPlayerPed()->m_pPed->Tasks;
; 1196 : 
; 1197 : 	//_asm push 0
; 1198 : 	//_asm push 0
; 1199 : 	_asm push p
; 1200 : 	_asm mov ecx, taskPtr
; 1201 : 	_asm mov edx, 0x6753E0
; 1202 : 	_asm call edx
; 1203 : 
; 1204 : 	pTaskSitInChair->ApplyToPed(pGame->FindPlayerPed());*/	
; 1205 : }

	pop	edi
	pop	esi
	pop	ebx
	add	esp, 192				; 000000c0H
	cmp	ebp, esp
	call	__RTC_CheckEsp
	mov	esp, ebp
	pop	ebp
	ret	0
?cmdSit@@YAXPAD@Z ENDP					; cmdSit
_TEXT	ENDS
; Function compile flags: /Odtp /RTCsu /ZI
; File z:\sampsrc\02xu1\saco\cmdprocs.cpp
;	COMDAT ?cmdNoFire@@YAXPAD@Z
_TEXT	SEGMENT
_szCmd$ = 8						; size = 4
?cmdNoFire@@YAXPAD@Z PROC				; cmdNoFire, COMDAT

; 1180 : {

	push	ebp
	mov	ebp, esp
	sub	esp, 192				; 000000c0H
	push	ebx
	push	esi
	push	edi
	lea	edi, DWORD PTR [ebp-192]
	mov	ecx, 48					; 00000030H
	mov	eax, -858993460				; ccccccccH
	rep stosd

; 1181 : 	pGame->FindPlayerPed()->ExtinguishFire();

	mov	ecx, DWORD PTR ?pGame@@3PAVCGame@@A	; pGame
	call	?FindPlayerPed@CGame@@QAEPAVCPlayerPed@@XZ ; CGame::FindPlayerPed
	mov	ecx, eax
	call	?ExtinguishFire@CPlayerPed@@QAEXXZ	; CPlayerPed::ExtinguishFire

; 1182 : }

	pop	edi
	pop	esi
	pop	ebx
	add	esp, 192				; 000000c0H
	cmp	ebp, esp
	call	__RTC_CheckEsp
	mov	esp, ebp
	pop	ebp
	ret	0
?cmdNoFire@@YAXPAD@Z ENDP				; cmdNoFire
_TEXT	ENDS
; Function compile flags: /Odtp /RTCsu /ZI
; File z:\sampsrc\02xu1\saco\cmdprocs.cpp
;	COMDAT ?cmdClothes@@YAXPAD@Z
_TEXT	SEGMENT
_iType$ = -156						; size = 4
_szModel$ = -144					; size = 64
_szTexture$ = -72					; size = 64
__$ArrayPad$ = -4					; size = 4
_szCmd$ = 8						; size = 4
?cmdClothes@@YAXPAD@Z PROC				; cmdClothes, COMDAT

; 1135 : {

	push	ebp
	mov	ebp, esp
	sub	esp, 352				; 00000160H
	push	ebx
	push	esi
	push	edi
	lea	edi, DWORD PTR [ebp-352]
	mov	ecx, 88					; 00000058H
	mov	eax, -858993460				; ccccccccH
	rep stosd
	mov	eax, DWORD PTR ___security_cookie
	xor	eax, ebp
	mov	DWORD PTR __$ArrayPad$[ebp], eax

; 1136 : 	char szTexture[64];
; 1137 : 	char szModel[64];
; 1138 : 	int iType = 0;

	mov	DWORD PTR _iType$[ebp], 0

; 1139 : 
; 1140 : 	sscanf(szCmd, "%s %s %d", szTexture, szModel, &iType);

	lea	eax, DWORD PTR _iType$[ebp]
	push	eax
	lea	ecx, DWORD PTR _szModel$[ebp]
	push	ecx
	lea	edx, DWORD PTR _szTexture$[ebp]
	push	edx
	push	OFFSET ??_C@_08EKMEAIFO@?$CFs?5?$CFs?5?$CFd?$AA@
	mov	eax, DWORD PTR _szCmd$[ebp]
	push	eax
	call	_sscanf
	add	esp, 20					; 00000014H

; 1141 : 	if (strcmp(szTexture, "-")==0)

	push	OFFSET ??_C@_01JOAMLHOP@?9?$AA@
	lea	eax, DWORD PTR _szTexture$[ebp]
	push	eax
	call	_strcmp
	add	esp, 8
	test	eax, eax
	jne	SHORT $LN2@cmdClothes

; 1142 : 		strcpy(szTexture, "");

	push	OFFSET ??_C@_00CNPNBAHC@?$AA@
	lea	eax, DWORD PTR _szTexture$[ebp]
	push	eax
	call	_strcpy
	add	esp, 8
$LN2@cmdClothes:

; 1143 : 	if (strcmp(szModel, "-")==0)

	push	OFFSET ??_C@_01JOAMLHOP@?9?$AA@
	lea	eax, DWORD PTR _szModel$[ebp]
	push	eax
	call	_strcmp
	add	esp, 8
	test	eax, eax
	jne	SHORT $LN1@cmdClothes

; 1144 : 		strcpy(szModel, "");

	push	OFFSET ??_C@_00CNPNBAHC@?$AA@
	lea	eax, DWORD PTR _szModel$[ebp]
	push	eax
	call	_strcpy
	add	esp, 8
$LN1@cmdClothes:

; 1145 : 
; 1146 : 	__asm
; 1147 : 	{
; 1148 : 		push 0xFFFFFFFF;

	push	-1

; 1149 : 		mov eax, 0x56E210; // Get CPlayerPed

	mov	eax, 5693968				; 0056e210H

; 1150 : 		call eax;

	call	eax

; 1151 : 		add esp, 4;

	add	esp, 4

; 1152 : 
; 1153 : 		// Set up stack for later.. CPlayerPed__UpdateAfterPhysicalChange
; 1154 : 		push 0;

	push	0

; 1155 : 		push eax;

	push	eax

; 1156 : 
; 1157 : 		// Get the clothes thing and process
; 1158 : 		mov ecx, [eax+1152];	// get CPlayerInfo

	mov	ecx, DWORD PTR [eax+1152]

; 1159 : 		mov ecx, [ecx+4];		// get CPlayerClothes

	mov	ecx, DWORD PTR [ecx+4]

; 1160 : 		
; 1161 : 		push iType;

	push	DWORD PTR _iType$[ebp]

; 1162 : 		lea eax, szModel;

	lea	eax, DWORD PTR _szModel$[ebp]

; 1163 : 		push eax;

	push	eax

; 1164 : 		lea eax, szTexture;

	lea	eax, DWORD PTR _szTexture$[ebp]

; 1165 : 		push eax;

	push	eax

; 1166 : 		mov eax, 0x5A8080;		// CPlayerClothes__SetClothes

	mov	eax, 5931136				; 005a8080H

; 1167 : 		call eax;				// thiscall, callee cleans up stack

	call	eax

; 1168 : 
; 1169 : 		// Stack is already set up at this point
; 1170 : 		mov eax, 0x5A82C0;		// CPlayerPed__UpdateAfterPhysicalChange

	mov	eax, 5931712				; 005a82c0H

; 1171 : 		call eax;

	call	eax

; 1172 : 		add esp, 8;

	add	esp, 8

; 1173 : 	}
; 1174 : 
; 1175 : }

	push	edx
	mov	ecx, ebp
	push	eax
	lea	edx, DWORD PTR $LN9@cmdClothes
	call	@_RTC_CheckStackVars@8
	pop	eax
	pop	edx
	pop	edi
	pop	esi
	pop	ebx
	mov	ecx, DWORD PTR __$ArrayPad$[ebp]
	xor	ecx, ebp
	call	@__security_check_cookie@4
	add	esp, 352				; 00000160H
	cmp	ebp, esp
	call	__RTC_CheckEsp
	mov	esp, ebp
	pop	ebp
	ret	0
$LN9@cmdClothes:
	DD	3
	DD	$LN8@cmdClothes
$LN8@cmdClothes:
	DD	-72					; ffffffb8H
	DD	64					; 00000040H
	DD	$LN5@cmdClothes
	DD	-144					; ffffff70H
	DD	64					; 00000040H
	DD	$LN6@cmdClothes
	DD	-156					; ffffff64H
	DD	4
	DD	$LN7@cmdClothes
$LN7@cmdClothes:
	DB	105					; 00000069H
	DB	84					; 00000054H
	DB	121					; 00000079H
	DB	112					; 00000070H
	DB	101					; 00000065H
	DB	0
$LN6@cmdClothes:
	DB	115					; 00000073H
	DB	122					; 0000007aH
	DB	77					; 0000004dH
	DB	111					; 0000006fH
	DB	100					; 00000064H
	DB	101					; 00000065H
	DB	108					; 0000006cH
	DB	0
$LN5@cmdClothes:
	DB	115					; 00000073H
	DB	122					; 0000007aH
	DB	84					; 00000054H
	DB	101					; 00000065H
	DB	120					; 00000078H
	DB	116					; 00000074H
	DB	117					; 00000075H
	DB	114					; 00000072H
	DB	101					; 00000065H
	DB	0
?cmdClothes@@YAXPAD@Z ENDP				; cmdClothes
_TEXT	ENDS
; Function compile flags: /Odtp /RTCsu /ZI
; File z:\sampsrc\02xu1\saco\cmdprocs.cpp
;	COMDAT ?cmdSpectatep@@YAXPAD@Z
_TEXT	SEGMENT
_pPlayer$ = -32						; size = 4
_iSpectateMode$ = -20					; size = 4
_iPlayerID$ = -8					; size = 4
_szCmd$ = 8						; size = 4
?cmdSpectatep@@YAXPAD@Z PROC				; cmdSpectatep, COMDAT

; 1116 : {

	push	ebp
	mov	ebp, esp
	sub	esp, 228				; 000000e4H
	push	ebx
	push	esi
	push	edi
	lea	edi, DWORD PTR [ebp-228]
	mov	ecx, 57					; 00000039H
	mov	eax, -858993460				; ccccccccH
	rep stosd

; 1117 : 	if (!pNetGame) return;

	cmp	DWORD PTR ?pNetGame@@3PAVCNetGame@@A, 0	; pNetGame
	jne	SHORT $LN3@cmdSpectat
	jmp	SHORT $LN4@cmdSpectat
$LN3@cmdSpectat:

; 1118 : 	int iPlayerID;
; 1119 : 	int iSpectateMode = 0;

	mov	DWORD PTR _iSpectateMode$[ebp], 0

; 1120 : 	CLocalPlayer *pPlayer = pNetGame->GetPlayerPool()->GetLocalPlayer();

	mov	ecx, DWORD PTR ?pNetGame@@3PAVCNetGame@@A ; pNetGame
	call	?GetPlayerPool@CNetGame@@QAEPAVCPlayerPool@@XZ ; CNetGame::GetPlayerPool
	mov	ecx, eax
	call	?GetLocalPlayer@CPlayerPool@@QAEPAVCLocalPlayer@@XZ ; CPlayerPool::GetLocalPlayer
	mov	DWORD PTR _pPlayer$[ebp], eax

; 1121 : 	if (strlen(szCmd))

	mov	eax, DWORD PTR _szCmd$[ebp]
	push	eax
	call	_strlen
	add	esp, 4
	test	eax, eax
	je	SHORT $LN2@cmdSpectat

; 1122 : 	{
; 1123 : 		sscanf(szCmd, "%d%d", &iPlayerID, &iSpectateMode);

	lea	eax, DWORD PTR _iSpectateMode$[ebp]
	push	eax
	lea	ecx, DWORD PTR _iPlayerID$[ebp]
	push	ecx
	push	OFFSET ??_C@_04LLKPOCGK@?$CFd?$CFd?$AA@
	mov	edx, DWORD PTR _szCmd$[ebp]
	push	edx
	call	_sscanf
	add	esp, 16					; 00000010H

; 1124 : 		pPlayer->ToggleSpectating(TRUE);

	push	1
	mov	ecx, DWORD PTR _pPlayer$[ebp]
	call	?ToggleSpectating@CLocalPlayer@@QAEXH@Z	; CLocalPlayer::ToggleSpectating

; 1125 : 		pPlayer->m_byteSpectateMode = iSpectateMode;

	mov	eax, DWORD PTR _pPlayer$[ebp]
	mov	cl, BYTE PTR _iSpectateMode$[ebp]
	mov	BYTE PTR [eax+25], cl

; 1126 : 		pPlayer->SpectatePlayer(iPlayerID);

	movzx	eax, BYTE PTR _iPlayerID$[ebp]
	push	eax
	mov	ecx, DWORD PTR _pPlayer$[ebp]
	call	?SpectatePlayer@CLocalPlayer@@QAEXE@Z	; CLocalPlayer::SpectatePlayer

; 1127 : 	} else {

	jmp	SHORT $LN4@cmdSpectat
$LN2@cmdSpectat:

; 1128 : 		pPlayer->ToggleSpectating(FALSE);

	push	0
	mov	ecx, DWORD PTR _pPlayer$[ebp]
	call	?ToggleSpectating@CLocalPlayer@@QAEXH@Z	; CLocalPlayer::ToggleSpectating
$LN4@cmdSpectat:

; 1129 : 	}
; 1130 : }

	push	edx
	mov	ecx, ebp
	push	eax
	lea	edx, DWORD PTR $LN9@cmdSpectat
	call	@_RTC_CheckStackVars@8
	pop	eax
	pop	edx
	pop	edi
	pop	esi
	pop	ebx
	add	esp, 228				; 000000e4H
	cmp	ebp, esp
	call	__RTC_CheckEsp
	mov	esp, ebp
	pop	ebp
	ret	0
	npad	1
$LN9@cmdSpectat:
	DD	2
	DD	$LN8@cmdSpectat
$LN8@cmdSpectat:
	DD	-8					; fffffff8H
	DD	4
	DD	$LN6@cmdSpectat
	DD	-20					; ffffffecH
	DD	4
	DD	$LN7@cmdSpectat
$LN7@cmdSpectat:
	DB	105					; 00000069H
	DB	83					; 00000053H
	DB	112					; 00000070H
	DB	101					; 00000065H
	DB	99					; 00000063H
	DB	116					; 00000074H
	DB	97					; 00000061H
	DB	116					; 00000074H
	DB	101					; 00000065H
	DB	77					; 0000004dH
	DB	111					; 0000006fH
	DB	100					; 00000064H
	DB	101					; 00000065H
	DB	0
$LN6@cmdSpectat:
	DB	105					; 00000069H
	DB	80					; 00000050H
	DB	108					; 0000006cH
	DB	97					; 00000061H
	DB	121					; 00000079H
	DB	101					; 00000065H
	DB	114					; 00000072H
	DB	73					; 00000049H
	DB	68					; 00000044H
	DB	0
?cmdSpectatep@@YAXPAD@Z ENDP				; cmdSpectatep
_TEXT	ENDS
; Function compile flags: /Odtp /RTCsu /ZI
; File z:\sampsrc\02xu1\saco\cmdprocs.cpp
;	COMDAT ?cmdSpectatev@@YAXPAD@Z
_TEXT	SEGMENT
_pPlayer$ = -32						; size = 4
_iSpectateMode$ = -20					; size = 4
_iPlayerID$ = -8					; size = 4
_szCmd$ = 8						; size = 4
?cmdSpectatev@@YAXPAD@Z PROC				; cmdSpectatev, COMDAT

; 1098 : {

	push	ebp
	mov	ebp, esp
	sub	esp, 228				; 000000e4H
	push	ebx
	push	esi
	push	edi
	lea	edi, DWORD PTR [ebp-228]
	mov	ecx, 57					; 00000039H
	mov	eax, -858993460				; ccccccccH
	rep stosd

; 1099 : 	if (!pNetGame) return;

	cmp	DWORD PTR ?pNetGame@@3PAVCNetGame@@A, 0	; pNetGame
	jne	SHORT $LN3@cmdSpectat
	jmp	SHORT $LN4@cmdSpectat
$LN3@cmdSpectat:

; 1100 : 	int iPlayerID;
; 1101 : 	int iSpectateMode = 0;

	mov	DWORD PTR _iSpectateMode$[ebp], 0

; 1102 : 	CLocalPlayer *pPlayer = pNetGame->GetPlayerPool()->GetLocalPlayer();

	mov	ecx, DWORD PTR ?pNetGame@@3PAVCNetGame@@A ; pNetGame
	call	?GetPlayerPool@CNetGame@@QAEPAVCPlayerPool@@XZ ; CNetGame::GetPlayerPool
	mov	ecx, eax
	call	?GetLocalPlayer@CPlayerPool@@QAEPAVCLocalPlayer@@XZ ; CPlayerPool::GetLocalPlayer
	mov	DWORD PTR _pPlayer$[ebp], eax

; 1103 : 	if (strlen(szCmd))

	mov	eax, DWORD PTR _szCmd$[ebp]
	push	eax
	call	_strlen
	add	esp, 4
	test	eax, eax
	je	SHORT $LN2@cmdSpectat

; 1104 : 	{
; 1105 : 		sscanf(szCmd, "%d%d", &iPlayerID, &iSpectateMode);

	lea	eax, DWORD PTR _iSpectateMode$[ebp]
	push	eax
	lea	ecx, DWORD PTR _iPlayerID$[ebp]
	push	ecx
	push	OFFSET ??_C@_04LLKPOCGK@?$CFd?$CFd?$AA@
	mov	edx, DWORD PTR _szCmd$[ebp]
	push	edx
	call	_sscanf
	add	esp, 16					; 00000010H

; 1106 : 		pPlayer->ToggleSpectating(TRUE);

	push	1
	mov	ecx, DWORD PTR _pPlayer$[ebp]
	call	?ToggleSpectating@CLocalPlayer@@QAEXH@Z	; CLocalPlayer::ToggleSpectating

; 1107 : 		pPlayer->m_byteSpectateMode = iSpectateMode;

	mov	eax, DWORD PTR _pPlayer$[ebp]
	mov	cl, BYTE PTR _iSpectateMode$[ebp]
	mov	BYTE PTR [eax+25], cl

; 1108 : 		pPlayer->SpectateVehicle(iPlayerID);

	movzx	eax, WORD PTR _iPlayerID$[ebp]
	push	eax
	mov	ecx, DWORD PTR _pPlayer$[ebp]
	call	?SpectateVehicle@CLocalPlayer@@QAEXG@Z	; CLocalPlayer::SpectateVehicle

; 1109 : 	} else {

	jmp	SHORT $LN4@cmdSpectat
$LN2@cmdSpectat:

; 1110 : 		pPlayer->ToggleSpectating(FALSE);

	push	0
	mov	ecx, DWORD PTR _pPlayer$[ebp]
	call	?ToggleSpectating@CLocalPlayer@@QAEXH@Z	; CLocalPlayer::ToggleSpectating
$LN4@cmdSpectat:

; 1111 : 	}
; 1112 : }

	push	edx
	mov	ecx, ebp
	push	eax
	lea	edx, DWORD PTR $LN9@cmdSpectat
	call	@_RTC_CheckStackVars@8
	pop	eax
	pop	edx
	pop	edi
	pop	esi
	pop	ebx
	add	esp, 228				; 000000e4H
	cmp	ebp, esp
	call	__RTC_CheckEsp
	mov	esp, ebp
	pop	ebp
	ret	0
	npad	1
$LN9@cmdSpectat:
	DD	2
	DD	$LN8@cmdSpectat
$LN8@cmdSpectat:
	DD	-8					; fffffff8H
	DD	4
	DD	$LN6@cmdSpectat
	DD	-20					; ffffffecH
	DD	4
	DD	$LN7@cmdSpectat
$LN7@cmdSpectat:
	DB	105					; 00000069H
	DB	83					; 00000053H
	DB	112					; 00000070H
	DB	101					; 00000065H
	DB	99					; 00000063H
	DB	116					; 00000074H
	DB	97					; 00000061H
	DB	116					; 00000074H
	DB	101					; 00000065H
	DB	77					; 0000004dH
	DB	111					; 0000006fH
	DB	100					; 00000064H
	DB	101					; 00000065H
	DB	0
$LN6@cmdSpectat:
	DB	105					; 00000069H
	DB	80					; 00000050H
	DB	108					; 0000006cH
	DB	97					; 00000061H
	DB	121					; 00000079H
	DB	101					; 00000065H
	DB	114					; 00000072H
	DB	73					; 00000049H
	DB	68					; 00000044H
	DB	0
?cmdSpectatev@@YAXPAD@Z ENDP				; cmdSpectatev
_TEXT	ENDS
; Function compile flags: /Odtp /RTCsu /ZI
; File z:\sampsrc\02xu1\saco\cmdprocs.cpp
;	COMDAT ?cmdLotsOfPlayers@@YAXPAD@Z
_TEXT	SEGMENT
_c$ = 8							; size = 4
?cmdLotsOfPlayers@@YAXPAD@Z PROC			; cmdLotsOfPlayers, COMDAT

; 1090 : {

	push	ebp
	mov	ebp, esp
	sub	esp, 192				; 000000c0H
	push	ebx
	push	esi
	push	edi
	lea	edi, DWORD PTR [ebp-192]
	mov	ecx, 48					; 00000030H
	mov	eax, -858993460				; ccccccccH
	rep stosd

; 1091 : 
; 1092 : 
; 1093 : }

	pop	edi
	pop	esi
	pop	ebx
	mov	esp, ebp
	pop	ebp
	ret	0
?cmdLotsOfPlayers@@YAXPAD@Z ENDP			; cmdLotsOfPlayers
_TEXT	ENDS
; Function compile flags: /Odtp /RTCsu /ZI
; File z:\sampsrc\02xu1\saco\cmdprocs.cpp
;	COMDAT ?DriveByTest@@YAXPAD@Z
_TEXT	SEGMENT
_iVehicleID$ = -36					; size = 4
_pRemote$ = -24						; size = 16
__$ArrayPad$ = -4					; size = 4
_szCmd$ = 8						; size = 4
?DriveByTest@@YAXPAD@Z PROC				; DriveByTest, COMDAT

; 1046 : {

	push	ebp
	mov	ebp, esp
	sub	esp, 232				; 000000e8H
	push	ebx
	push	esi
	push	edi
	lea	edi, DWORD PTR [ebp-232]
	mov	ecx, 58					; 0000003aH
	mov	eax, -858993460				; ccccccccH
	rep stosd
	mov	eax, DWORD PTR ___security_cookie
	xor	eax, ebp
	mov	DWORD PTR __$ArrayPad$[ebp], eax

; 1047 : 	cmdRemotePlayer("");

	push	OFFSET ??_C@_00CNPNBAHC@?$AA@
	call	?cmdRemotePlayer@@YAXPAD@Z		; cmdRemotePlayer
	add	esp, 4

; 1048 : 	//cmdRemotePlayer("");
; 1049 : 	//cmdRemotePlayer("");
; 1050 : 	//cmdRemotePlayer("");
; 1051 : 
; 1052 : 	CRemotePlayer *pRemote[4];
; 1053 : 
; 1054 : 	pRemote[0] = pNetGame->GetPlayerPool()->GetAt(1);

	push	1
	mov	ecx, DWORD PTR ?pNetGame@@3PAVCNetGame@@A ; pNetGame
	call	?GetPlayerPool@CNetGame@@QAEPAVCPlayerPool@@XZ ; CNetGame::GetPlayerPool
	mov	ecx, eax
	call	?GetAt@CPlayerPool@@QAEPAVCRemotePlayer@@E@Z ; CPlayerPool::GetAt
	mov	ecx, 4
	imul	edx, ecx, 0
	mov	DWORD PTR _pRemote$[ebp+edx], eax

; 1055 : 	//pRemote[1] = pNetGame->GetPlayerPool()->GetAt(2);
; 1056 : 	//pRemote[2] = pNetGame->GetPlayerPool()->GetAt(3);
; 1057 : 	//pRemote[3] = pNetGame->GetPlayerPool()->GetAt(4);
; 1058 : 
; 1059 : 	pRemote[0]->GetPlayerPed()->GiveWeapon(31,200);

	push	200					; 000000c8H
	push	31					; 0000001fH
	mov	eax, 4
	imul	ecx, eax, 0
	mov	ecx, DWORD PTR _pRemote$[ebp+ecx]
	call	?GetPlayerPed@CRemotePlayer@@QAEPAVCPlayerPed@@XZ ; CRemotePlayer::GetPlayerPed
	mov	ecx, eax
	call	?GiveWeapon@CPlayerPed@@QAEXHH@Z	; CPlayerPed::GiveWeapon

; 1060 : 	//pRemote[1]->GetPlayerPed()->GiveWeapon(31,200);
; 1061 : 	//pRemote[2]->GetPlayerPed()->GiveWeapon(31,200);
; 1062 : 	//pRemote[3]->GetPlayerPed()->GiveWeapon(31,200);
; 1063 : 
; 1064 : 	int iVehicleID = pNetGame->GetVehiclePool()->FindGtaIDFromID(3);

	push	3
	mov	ecx, DWORD PTR ?pNetGame@@3PAVCNetGame@@A ; pNetGame
	call	?GetVehiclePool@CNetGame@@QAEPAVCVehiclePool@@XZ ; CNetGame::GetVehiclePool
	mov	ecx, eax
	call	?FindGtaIDFromID@CVehiclePool@@QAEHH@Z	; CVehiclePool::FindGtaIDFromID
	mov	DWORD PTR _iVehicleID$[ebp], eax

; 1065 : 
; 1066 : 	pGame->FindPlayerPed()->GiveWeapon(31,200);

	push	200					; 000000c8H
	push	31					; 0000001fH
	mov	ecx, DWORD PTR ?pGame@@3PAVCGame@@A	; pGame
	call	?FindPlayerPed@CGame@@QAEPAVCPlayerPed@@XZ ; CGame::FindPlayerPed
	mov	ecx, eax
	call	?GiveWeapon@CPlayerPed@@QAEXHH@Z	; CPlayerPed::GiveWeapon

; 1067 : 
; 1068 : 	/*
; 1069 : 	pRemote[0]->GetPlayerPed()->PutDirectlyInVehicle(iVehicleID,0);
; 1070 : 	pRemote[1]->GetPlayerPed()->PutDirectlyInVehicle(iVehicleID,1);
; 1071 : 	pRemote[2]->GetPlayerPed()->PutDirectlyInVehicle(iVehicleID,2);
; 1072 : 	//pRemote[3]->GetPlayerPed()->PutDirectlyInVehicle(iVehicleID,3);
; 1073 : 
; 1074 : 	//pRemote[0]->GetPlayerPed()->SetCameraMode(55);
; 1075 : 	pRemote[1]->GetPlayerPed()->SetCameraMode(55);
; 1076 : 	pRemote[2]->GetPlayerPed()->SetCameraMode(55);
; 1077 : 	pRemote[3]->GetPlayerPed()->SetCameraMode(55);
; 1078 : 
; 1079 : 	pRemote[1]->GetPlayerPed()->StartPassengerDriveByMode();
; 1080 : 	pRemote[2]->GetPlayerPed()->StartPassengerDriveByMode();
; 1081 : 	pRemote[3]->GetPlayerPed()->StartPassengerDriveByMode();
; 1082 : 
; 1083 : 	pGame->FindPlayerPed()->GiveWeapon(28,200);
; 1084 : 	pGame->FindPlayerPed()->PutDirectlyInVehicle(iVehicleID,3);*/
; 1085 : }

	push	edx
	mov	ecx, ebp
	push	eax
	lea	edx, DWORD PTR $LN5@DriveByTes
	call	@_RTC_CheckStackVars@8
	pop	eax
	pop	edx
	pop	edi
	pop	esi
	pop	ebx
	mov	ecx, DWORD PTR __$ArrayPad$[ebp]
	xor	ecx, ebp
	call	@__security_check_cookie@4
	add	esp, 232				; 000000e8H
	cmp	ebp, esp
	call	__RTC_CheckEsp
	mov	esp, ebp
	pop	ebp
	ret	0
	npad	1
$LN5@DriveByTes:
	DD	1
	DD	$LN4@DriveByTes
$LN4@DriveByTes:
	DD	-24					; ffffffe8H
	DD	16					; 00000010H
	DD	$LN3@DriveByTes
$LN3@DriveByTes:
	DB	112					; 00000070H
	DB	82					; 00000052H
	DB	101					; 00000065H
	DB	109					; 0000006dH
	DB	111					; 0000006fH
	DB	116					; 00000074H
	DB	101					; 00000065H
	DB	0
?DriveByTest@@YAXPAD@Z ENDP				; DriveByTest
_TEXT	ENDS
; Function compile flags: /Odtp /RTCsu /ZI
; File z:\sampsrc\02xu1\saco\cmdprocs.cpp
;	COMDAT ?TestExit@@YAXPAD@Z
_TEXT	SEGMENT
_szCmd$ = 8						; size = 4
?TestExit@@YAXPAD@Z PROC				; TestExit, COMDAT

; 1034 : {

	push	ebp
	mov	ebp, esp
	sub	esp, 192				; 000000c0H
	push	ebx
	push	esi
	push	edi
	lea	edi, DWORD PTR [ebp-192]
	mov	ecx, 48					; 00000030H
	mov	eax, -858993460				; ccccccccH
	rep stosd

; 1035 : 	pD3DDevice->ShowCursor(TRUE);

	mov	esi, esp
	push	1
	mov	eax, DWORD PTR ?pD3DDevice@@3PAUIDirect3DDevice9@@A ; pD3DDevice
	mov	ecx, DWORD PTR [eax]
	mov	edx, DWORD PTR ?pD3DDevice@@3PAUIDirect3DDevice9@@A ; pD3DDevice
	push	edx
	mov	eax, DWORD PTR [ecx+48]
	call	eax
	cmp	esi, esp
	call	__RTC_CheckEsp

; 1036 : 	ShowCursor(TRUE);

	mov	esi, esp
	push	1
	call	DWORD PTR __imp__ShowCursor@4
	cmp	esi, esp
	call	__RTC_CheckEsp

; 1037 : 	SetCursor(LoadCursor(NULL,IDC_ARROW));

	mov	esi, esp
	push	32512					; 00007f00H
	push	0
	call	DWORD PTR __imp__LoadCursorA@8
	cmp	esi, esp
	call	__RTC_CheckEsp
	mov	esi, esp
	push	eax
	call	DWORD PTR __imp__SetCursor@4
	cmp	esi, esp
	call	__RTC_CheckEsp

; 1038 : 	ShowCursor(TRUE);

	mov	esi, esp
	push	1
	call	DWORD PTR __imp__ShowCursor@4
	cmp	esi, esp
	call	__RTC_CheckEsp

; 1039 : 
; 1040 : 	pChatWindow->AddDebugMessage("Done");

	push	OFFSET ??_C@_04KNCIGIPG@Done?$AA@
	mov	eax, DWORD PTR ?pChatWindow@@3PAVCChatWindow@@A ; pChatWindow
	push	eax
	call	?AddDebugMessage@CChatWindow@@QAAXPADZZ	; CChatWindow::AddDebugMessage
	add	esp, 8

; 1041 : }

	pop	edi
	pop	esi
	pop	ebx
	add	esp, 192				; 000000c0H
	cmp	ebp, esp
	call	__RTC_CheckEsp
	mov	esp, ebp
	pop	ebp
	ret	0
?TestExit@@YAXPAD@Z ENDP				; TestExit
_TEXT	ENDS
; Function compile flags: /Odtp /RTCsu /ZI
; File z:\sampsrc\02xu1\saco\cmdprocs.cpp
;	COMDAT ?cmdLotsOfV@@YAXPAD@Z
_TEXT	SEGMENT
_plate$ = -56						; size = 2
_vecSpawnPos$ = -44					; size = 12
_iNumAdded$ = -24					; size = 4
_i$ = -12						; size = 4
__$ArrayPad$ = -4					; size = 4
_szCmd$ = 8						; size = 4
?cmdLotsOfV@@YAXPAD@Z PROC				; cmdLotsOfV, COMDAT

; 1010 : {

	push	ebp
	mov	ebp, esp
	sub	esp, 252				; 000000fcH
	push	ebx
	push	esi
	push	edi
	lea	edi, DWORD PTR [ebp-252]
	mov	ecx, 63					; 0000003fH
	mov	eax, -858993460				; ccccccccH
	rep stosd
	mov	eax, DWORD PTR ___security_cookie
	xor	eax, ebp
	mov	DWORD PTR __$ArrayPad$[ebp], eax

; 1011 : 	//CVehicle *pVehicle;
; 1012 : 	int i=210;

	mov	DWORD PTR _i$[ebp], 210			; 000000d2H

; 1013 : 	int iNumAdded=0;

	mov	DWORD PTR _iNumAdded$[ebp], 0

; 1014 : 
; 1015 : 	VECTOR vecSpawnPos;
; 1016 : 	vecSpawnPos.X=1482.7546f;

	movss	xmm0, DWORD PTR __real@44b95826
	movss	DWORD PTR _vecSpawnPos$[ebp], xmm0

; 1017 : 	vecSpawnPos.Y=3236.4551f;

	movss	xmm0, DWORD PTR __real@454a4748
	movss	DWORD PTR _vecSpawnPos$[ebp+4], xmm0

; 1018 : 	vecSpawnPos.Z=0.1f;

	movss	xmm0, DWORD PTR __real@3dcccccd
	movss	DWORD PTR _vecSpawnPos$[ebp+8], xmm0

; 1019 : 	CHAR plate[2] = "";

	mov	al, BYTE PTR ??_C@_00CNPNBAHC@?$AA@
	mov	BYTE PTR _plate$[ebp], al
	xor	eax, eax
	mov	BYTE PTR _plate$[ebp+1], al
$LN2@cmdLotsOfV:

; 1020 : 
; 1021 : 	while(i != MAX_VEHICLES) {

	cmp	DWORD PTR _i$[ebp], 702			; 000002beH
	je	SHORT $LN1@cmdLotsOfV

; 1022 : 		//pVehicle = new CVehicle(473,x,y,z,8.7f,plate);
; 1023 : 		pNetGame->GetVehiclePool()->New(i,473,&vecSpawnPos,0.0f,0,0,&vecSpawnPos,0.0f,0,plate);

	lea	eax, DWORD PTR _plate$[ebp]
	push	eax
	push	0
	push	ecx
	movss	xmm0, DWORD PTR __real@00000000
	movss	DWORD PTR [esp], xmm0
	lea	ecx, DWORD PTR _vecSpawnPos$[ebp]
	push	ecx
	push	0
	push	0
	push	ecx
	movss	xmm0, DWORD PTR __real@00000000
	movss	DWORD PTR [esp], xmm0
	lea	edx, DWORD PTR _vecSpawnPos$[ebp]
	push	edx
	push	473					; 000001d9H
	movzx	eax, WORD PTR _i$[ebp]
	push	eax
	mov	ecx, DWORD PTR ?pNetGame@@3PAVCNetGame@@A ; pNetGame
	call	?GetVehiclePool@CNetGame@@QAEPAVCVehiclePool@@XZ ; CNetGame::GetVehiclePool
	mov	ecx, eax
	call	?New@CVehiclePool@@QAEHGHPAU_VECTOR@@MHH0MHPAD@Z ; CVehiclePool::New

; 1024 : 		vecSpawnPos.X -= 7.0f;

	movss	xmm0, DWORD PTR _vecSpawnPos$[ebp]
	subss	xmm0, DWORD PTR __real@40e00000
	movss	DWORD PTR _vecSpawnPos$[ebp], xmm0

; 1025 : 		i++;

	mov	eax, DWORD PTR _i$[ebp]
	add	eax, 1
	mov	DWORD PTR _i$[ebp], eax

; 1026 : 	}

	jmp	SHORT $LN2@cmdLotsOfV
$LN1@cmdLotsOfV:

; 1027 : 
; 1028 : 	pChatWindow->AddDebugMessage("Done");

	push	OFFSET ??_C@_04KNCIGIPG@Done?$AA@
	mov	eax, DWORD PTR ?pChatWindow@@3PAVCChatWindow@@A ; pChatWindow
	push	eax
	call	?AddDebugMessage@CChatWindow@@QAAXPADZZ	; CChatWindow::AddDebugMessage
	add	esp, 8

; 1029 : }

	push	edx
	mov	ecx, ebp
	push	eax
	lea	edx, DWORD PTR $LN8@cmdLotsOfV
	call	@_RTC_CheckStackVars@8
	pop	eax
	pop	edx
	pop	edi
	pop	esi
	pop	ebx
	mov	ecx, DWORD PTR __$ArrayPad$[ebp]
	xor	ecx, ebp
	call	@__security_check_cookie@4
	add	esp, 252				; 000000fcH
	cmp	ebp, esp
	call	__RTC_CheckEsp
	mov	esp, ebp
	pop	ebp
	ret	0
$LN8@cmdLotsOfV:
	DD	2
	DD	$LN7@cmdLotsOfV
$LN7@cmdLotsOfV:
	DD	-44					; ffffffd4H
	DD	12					; 0000000cH
	DD	$LN5@cmdLotsOfV
	DD	-56					; ffffffc8H
	DD	2
	DD	$LN6@cmdLotsOfV
$LN6@cmdLotsOfV:
	DB	112					; 00000070H
	DB	108					; 0000006cH
	DB	97					; 00000061H
	DB	116					; 00000074H
	DB	101					; 00000065H
	DB	0
$LN5@cmdLotsOfV:
	DB	118					; 00000076H
	DB	101					; 00000065H
	DB	99					; 00000063H
	DB	83					; 00000053H
	DB	112					; 00000070H
	DB	97					; 00000061H
	DB	119					; 00000077H
	DB	110					; 0000006eH
	DB	80					; 00000050H
	DB	111					; 0000006fH
	DB	115					; 00000073H
	DB	0
?cmdLotsOfV@@YAXPAD@Z ENDP				; cmdLotsOfV
_TEXT	ENDS
; Function compile flags: /Odtp /RTCsu /ZI
; File z:\sampsrc\02xu1\saco\cmdprocs.cpp
;	COMDAT ?cmdStopJetpack@@YAXPAD@Z
_TEXT	SEGMENT
_szCmd$ = 8						; size = 4
?cmdStopJetpack@@YAXPAD@Z PROC				; cmdStopJetpack, COMDAT

; 1003 : {

	push	ebp
	mov	ebp, esp
	sub	esp, 192				; 000000c0H
	push	ebx
	push	esi
	push	edi
	lea	edi, DWORD PTR [ebp-192]
	mov	ecx, 48					; 00000030H
	mov	eax, -858993460				; ccccccccH
	rep stosd

; 1004 : 	pGame->FindPlayerPed()->StopJetpack();	

	mov	ecx, DWORD PTR ?pGame@@3PAVCGame@@A	; pGame
	call	?FindPlayerPed@CGame@@QAEPAVCPlayerPed@@XZ ; CGame::FindPlayerPed
	mov	ecx, eax
	call	?StopJetpack@CPlayerPed@@QAEXXZ		; CPlayerPed::StopJetpack

; 1005 : }

	pop	edi
	pop	esi
	pop	ebx
	add	esp, 192				; 000000c0H
	cmp	ebp, esp
	call	__RTC_CheckEsp
	mov	esp, ebp
	pop	ebp
	ret	0
?cmdStopJetpack@@YAXPAD@Z ENDP				; cmdStopJetpack
_TEXT	ENDS
; Function compile flags: /Odtp /RTCsu /ZI
; File z:\sampsrc\02xu1\saco\cmdprocs.cpp
;	COMDAT ?cmdStartJetpack@@YAXPAD@Z
_TEXT	SEGMENT
_szCmd$ = 8						; size = 4
?cmdStartJetpack@@YAXPAD@Z PROC				; cmdStartJetpack, COMDAT

; 996  : {

	push	ebp
	mov	ebp, esp
	sub	esp, 192				; 000000c0H
	push	ebx
	push	esi
	push	edi
	lea	edi, DWORD PTR [ebp-192]
	mov	ecx, 48					; 00000030H
	mov	eax, -858993460				; ccccccccH
	rep stosd

; 997  : 	pGame->FindPlayerPed()->StartJetpack();

	mov	ecx, DWORD PTR ?pGame@@3PAVCGame@@A	; pGame
	call	?FindPlayerPed@CGame@@QAEPAVCPlayerPed@@XZ ; CGame::FindPlayerPed
	mov	ecx, eax
	call	?StartJetpack@CPlayerPed@@QAEXXZ	; CPlayerPed::StartJetpack

; 998  : }

	pop	edi
	pop	esi
	pop	ebx
	add	esp, 192				; 000000c0H
	cmp	ebp, esp
	call	__RTC_CheckEsp
	mov	esp, ebp
	pop	ebp
	ret	0
?cmdStartJetpack@@YAXPAD@Z ENDP				; cmdStartJetpack
_TEXT	ENDS
; Function compile flags: /Odtp /RTCsu /ZI
; File z:\sampsrc\02xu1\saco\cmdprocs.cpp
;	COMDAT ?cmdSetFarClip@@YAXPAD@Z
_TEXT	SEGMENT
_f$ = -8						; size = 4
_szCmd$ = 8						; size = 4
?cmdSetFarClip@@YAXPAD@Z PROC				; cmdSetFarClip, COMDAT

; 987  : {

	push	ebp
	mov	ebp, esp
	sub	esp, 204				; 000000ccH
	push	ebx
	push	esi
	push	edi
	lea	edi, DWORD PTR [ebp-204]
	mov	ecx, 51					; 00000033H
	mov	eax, -858993460				; ccccccccH
	rep stosd

; 988  : 	float f;
; 989  : 	sscanf(szCmd,"%f",&f);

	lea	eax, DWORD PTR _f$[ebp]
	push	eax
	push	OFFSET ??_C@_02NJPGOMH@?$CFf?$AA@
	mov	ecx, DWORD PTR _szCmd$[ebp]
	push	ecx
	call	_sscanf
	add	esp, 12					; 0000000cH

; 990  : 	fFarClip = f;

	movss	xmm0, DWORD PTR _f$[ebp]
	movss	DWORD PTR ?fFarClip@@3MA, xmm0

; 991  : }

	push	edx
	mov	ecx, ebp
	push	eax
	lea	edx, DWORD PTR $LN5@cmdSetFarC
	call	@_RTC_CheckStackVars@8
	pop	eax
	pop	edx
	pop	edi
	pop	esi
	pop	ebx
	add	esp, 204				; 000000ccH
	cmp	ebp, esp
	call	__RTC_CheckEsp
	mov	esp, ebp
	pop	ebp
	ret	0
	npad	3
$LN5@cmdSetFarC:
	DD	1
	DD	$LN4@cmdSetFarC
$LN4@cmdSetFarC:
	DD	-8					; fffffff8H
	DD	4
	DD	$LN3@cmdSetFarC
$LN3@cmdSetFarC:
	DB	102					; 00000066H
	DB	0
?cmdSetFarClip@@YAXPAD@Z ENDP				; cmdSetFarClip
_TEXT	ENDS
; Function compile flags: /Odtp /RTCsu /ZI
; File z:\sampsrc\02xu1\saco\cmdprocs.cpp
;	COMDAT ?cmdDeactivatePlayers@@YAXPAD@Z
_TEXT	SEGMENT
_szCmd$ = 8						; size = 4
?cmdDeactivatePlayers@@YAXPAD@Z PROC			; cmdDeactivatePlayers, COMDAT

; 978  : {

	push	ebp
	mov	ebp, esp
	sub	esp, 192				; 000000c0H
	push	ebx
	push	esi
	push	edi
	lea	edi, DWORD PTR [ebp-192]
	mov	ecx, 48					; 00000030H
	mov	eax, -858993460				; ccccccccH
	rep stosd

; 979  : 	if(pNetGame) {

	cmp	DWORD PTR ?pNetGame@@3PAVCNetGame@@A, 0	; pNetGame
	je	SHORT $LN2@cmdDeactiv

; 980  : 		pNetGame->GetPlayerPool()->DeactivateAll();

	mov	ecx, DWORD PTR ?pNetGame@@3PAVCNetGame@@A ; pNetGame
	call	?GetPlayerPool@CNetGame@@QAEPAVCPlayerPool@@XZ ; CNetGame::GetPlayerPool
	mov	ecx, eax
	call	?DeactivateAll@CPlayerPool@@QAEXXZ	; CPlayerPool::DeactivateAll
$LN2@cmdDeactiv:

; 981  : 	}
; 982  : }

	pop	edi
	pop	esi
	pop	ebx
	add	esp, 192				; 000000c0H
	cmp	ebp, esp
	call	__RTC_CheckEsp
	mov	esp, ebp
	pop	ebp
	ret	0
?cmdDeactivatePlayers@@YAXPAD@Z ENDP			; cmdDeactivatePlayers
_TEXT	ENDS
; Function compile flags: /Odtp /RTCsu /ZI
; File z:\sampsrc\02xu1\saco\cmdprocs.cpp
;	COMDAT ?cmdResetVehiclePool@@YAXPAD@Z
_TEXT	SEGMENT
_szCmd$ = 8						; size = 4
?cmdResetVehiclePool@@YAXPAD@Z PROC			; cmdResetVehiclePool, COMDAT

; 968  : {

	push	ebp
	mov	ebp, esp
	sub	esp, 192				; 000000c0H
	push	ebx
	push	esi
	push	edi
	lea	edi, DWORD PTR [ebp-192]
	mov	ecx, 48					; 00000030H
	mov	eax, -858993460				; ccccccccH
	rep stosd

; 969  : 	if(pNetGame) {

	cmp	DWORD PTR ?pNetGame@@3PAVCNetGame@@A, 0	; pNetGame
	je	SHORT $LN2@cmdResetVe

; 970  : 		pNetGame->ResetVehiclePool();

	mov	ecx, DWORD PTR ?pNetGame@@3PAVCNetGame@@A ; pNetGame
	call	?ResetVehiclePool@CNetGame@@QAEXXZ	; CNetGame::ResetVehiclePool
$LN2@cmdResetVe:

; 971  : 	}
; 972  : }

	pop	edi
	pop	esi
	pop	ebx
	add	esp, 192				; 000000c0H
	cmp	ebp, esp
	call	__RTC_CheckEsp
	mov	esp, ebp
	pop	ebp
	ret	0
?cmdResetVehiclePool@@YAXPAD@Z ENDP			; cmdResetVehiclePool
_TEXT	ENDS
; Function compile flags: /Odtp /RTCsu /ZI
; File z:\sampsrc\02xu1\saco\cmdprocs.cpp
;	COMDAT ?cmdSaveLocation@@YAXPAD@Z
_TEXT	SEGMENT
_pVec$1 = -32						; size = 4
_fZAngle$2 = -20					; size = 4
_fileOut$ = -8						; size = 4
_szCmd$ = 8						; size = 4
?cmdSaveLocation@@YAXPAD@Z PROC				; cmdSaveLocation, COMDAT

; 950  : {

	push	ebp
	mov	ebp, esp
	sub	esp, 228				; 000000e4H
	push	ebx
	push	esi
	push	edi
	lea	edi, DWORD PTR [ebp-228]
	mov	ecx, 57					; 00000039H
	mov	eax, -858993460				; ccccccccH
	rep stosd

; 951  : 	FILE* fileOut = fopen("savedlocations.txt", "a");

	push	OFFSET ??_C@_01MCMALHOG@a?$AA@
	push	OFFSET ??_C@_0BD@CEJKELNC@savedlocations?4txt?$AA@
	call	_fopen
	add	esp, 8
	mov	DWORD PTR _fileOut$[ebp], eax

; 952  : 	if (fileOut)

	cmp	DWORD PTR _fileOut$[ebp], 0
	je	$LN1@cmdSaveLoc

; 953  : 	{
; 954  : 		float fZAngle;
; 955  : 		ScriptCommand(&get_actor_z_angle, 0x1, &fZAngle);

	lea	eax, DWORD PTR _fZAngle$2[ebp]
	push	eax
	push	1
	push	OFFSET _get_actor_z_angle
	call	?ScriptCommand@@YAHPBUSCRIPT_COMMAND@@ZZ ; ScriptCommand
	add	esp, 12					; 0000000cH

; 956  : 
; 957  : 		VECTOR* pVec = &pGame->FindPlayerPed()->GetGtaActor()->entity.mat->pos;

	mov	ecx, DWORD PTR ?pGame@@3PAVCGame@@A	; pGame
	call	?FindPlayerPed@CGame@@QAEPAVCPlayerPed@@XZ ; CGame::FindPlayerPed
	mov	ecx, eax
	call	?GetGtaActor@CPlayerPed@@QAEPAU_PED_TYPE@@XZ ; CPlayerPed::GetGtaActor
	mov	eax, DWORD PTR [eax+20]
	add	eax, 48					; 00000030H
	mov	DWORD PTR _pVec$1[ebp], eax

; 958  : 		fprintf(fileOut,"%.4f, %.4f, %.4f, %.4f   // %s\n", pVec->X, pVec->Y, pVec->Z, fZAngle, szCmd);

	mov	eax, DWORD PTR _szCmd$[ebp]
	push	eax
	cvtss2sd xmm0, DWORD PTR _fZAngle$2[ebp]
	sub	esp, 8
	movsd	QWORD PTR [esp], xmm0
	mov	ecx, DWORD PTR _pVec$1[ebp]
	cvtss2sd xmm0, DWORD PTR [ecx+8]
	sub	esp, 8
	movsd	QWORD PTR [esp], xmm0
	mov	edx, DWORD PTR _pVec$1[ebp]
	cvtss2sd xmm0, DWORD PTR [edx+4]
	sub	esp, 8
	movsd	QWORD PTR [esp], xmm0
	mov	eax, DWORD PTR _pVec$1[ebp]
	cvtss2sd xmm0, DWORD PTR [eax]
	sub	esp, 8
	movsd	QWORD PTR [esp], xmm0
	push	OFFSET ??_C@_0CA@COGOCOAD@?$CF?44f?0?5?$CF?44f?0?5?$CF?44f?0?5?$CF?44f?5?5?5?1?1?5?$CFs?6?$AA@
	mov	ecx, DWORD PTR _fileOut$[ebp]
	push	ecx
	call	_fprintf
	add	esp, 44					; 0000002cH

; 959  : 
; 960  : 		fclose(fileOut);

	mov	eax, DWORD PTR _fileOut$[ebp]
	push	eax
	call	_fclose
	add	esp, 4
$LN1@cmdSaveLoc:

; 961  : 	}
; 962  : }

	push	edx
	mov	ecx, ebp
	push	eax
	lea	edx, DWORD PTR $LN6@cmdSaveLoc
	call	@_RTC_CheckStackVars@8
	pop	eax
	pop	edx
	pop	edi
	pop	esi
	pop	ebx
	add	esp, 228				; 000000e4H
	cmp	ebp, esp
	call	__RTC_CheckEsp
	mov	esp, ebp
	pop	ebp
	ret	0
	npad	3
$LN6@cmdSaveLoc:
	DD	1
	DD	$LN5@cmdSaveLoc
$LN5@cmdSaveLoc:
	DD	-20					; ffffffecH
	DD	4
	DD	$LN4@cmdSaveLoc
$LN4@cmdSaveLoc:
	DB	102					; 00000066H
	DB	90					; 0000005aH
	DB	65					; 00000041H
	DB	110					; 0000006eH
	DB	103					; 00000067H
	DB	108					; 0000006cH
	DB	101					; 00000065H
	DB	0
?cmdSaveLocation@@YAXPAD@Z ENDP				; cmdSaveLocation
_TEXT	ENDS
; Function compile flags: /Odtp /RTCsu /ZI
; File z:\sampsrc\02xu1\saco\cmdprocs.cpp
;	COMDAT ?cmdPlaySound@@YAXPAD@Z
_TEXT	SEGMENT
_iSound$1 = -96						; size = 4
_matPlayer$2 = -84					; size = 64
_pPlayer$ = -12						; size = 4
__$ArrayPad$ = -4					; size = 4
_szCmd$ = 8						; size = 4
?cmdPlaySound@@YAXPAD@Z PROC				; cmdPlaySound, COMDAT

; 933  : {

	push	ebp
	mov	ebp, esp
	sub	esp, 292				; 00000124H
	push	ebx
	push	esi
	push	edi
	lea	edi, DWORD PTR [ebp-292]
	mov	ecx, 73					; 00000049H
	mov	eax, -858993460				; ccccccccH
	rep stosd
	mov	eax, DWORD PTR ___security_cookie
	xor	eax, ebp
	mov	DWORD PTR __$ArrayPad$[ebp], eax

; 934  : 	CPlayerPed *pPlayer = pGame->FindPlayerPed();

	mov	ecx, DWORD PTR ?pGame@@3PAVCGame@@A	; pGame
	call	?FindPlayerPed@CGame@@QAEPAVCPlayerPed@@XZ ; CGame::FindPlayerPed
	mov	DWORD PTR _pPlayer$[ebp], eax

; 935  : 
; 936  : 	if(pPlayer)

	cmp	DWORD PTR _pPlayer$[ebp], 0
	je	SHORT $LN1@cmdPlaySou

; 937  : 	{
; 938  : 		MATRIX4X4 matPlayer;
; 939  : 		pPlayer->GetMatrix(&matPlayer);

	lea	eax, DWORD PTR _matPlayer$2[ebp]
	push	eax
	mov	ecx, DWORD PTR _pPlayer$[ebp]
	call	?GetMatrix@CEntity@@QAEXPAU_MATRIX4X4@@@Z ; CEntity::GetMatrix

; 940  : 
; 941  : 		int iSound = 0;

	mov	DWORD PTR _iSound$1[ebp], 0

; 942  : 		sscanf(szCmd, "%d", &iSound);

	lea	eax, DWORD PTR _iSound$1[ebp]
	push	eax
	push	OFFSET ??_C@_02DPKJAMEF@?$CFd?$AA@
	mov	ecx, DWORD PTR _szCmd$[ebp]
	push	ecx
	call	_sscanf
	add	esp, 12					; 0000000cH

; 943  : 		ScriptCommand(&play_sound, matPlayer.pos.X, matPlayer.pos.Y, matPlayer.pos.Z, iSound);

	mov	eax, DWORD PTR _iSound$1[ebp]
	push	eax
	cvtss2sd xmm0, DWORD PTR _matPlayer$2[ebp+56]
	sub	esp, 8
	movsd	QWORD PTR [esp], xmm0
	cvtss2sd xmm0, DWORD PTR _matPlayer$2[ebp+52]
	sub	esp, 8
	movsd	QWORD PTR [esp], xmm0
	cvtss2sd xmm0, DWORD PTR _matPlayer$2[ebp+48]
	sub	esp, 8
	movsd	QWORD PTR [esp], xmm0
	push	OFFSET _play_sound
	call	?ScriptCommand@@YAHPBUSCRIPT_COMMAND@@ZZ ; ScriptCommand
	add	esp, 32					; 00000020H
$LN1@cmdPlaySou:

; 944  : 	}
; 945  : }

	push	edx
	mov	ecx, ebp
	push	eax
	lea	edx, DWORD PTR $LN7@cmdPlaySou
	call	@_RTC_CheckStackVars@8
	pop	eax
	pop	edx
	pop	edi
	pop	esi
	pop	ebx
	mov	ecx, DWORD PTR __$ArrayPad$[ebp]
	xor	ecx, ebp
	call	@__security_check_cookie@4
	add	esp, 292				; 00000124H
	cmp	ebp, esp
	call	__RTC_CheckEsp
	mov	esp, ebp
	pop	ebp
	ret	0
	npad	1
$LN7@cmdPlaySou:
	DD	2
	DD	$LN6@cmdPlaySou
$LN6@cmdPlaySou:
	DD	-84					; ffffffacH
	DD	64					; 00000040H
	DD	$LN4@cmdPlaySou
	DD	-96					; ffffffa0H
	DD	4
	DD	$LN5@cmdPlaySou
$LN5@cmdPlaySou:
	DB	105					; 00000069H
	DB	83					; 00000053H
	DB	111					; 0000006fH
	DB	117					; 00000075H
	DB	110					; 0000006eH
	DB	100					; 00000064H
	DB	0
$LN4@cmdPlaySou:
	DB	109					; 0000006dH
	DB	97					; 00000061H
	DB	116					; 00000074H
	DB	80					; 00000050H
	DB	108					; 0000006cH
	DB	97					; 00000061H
	DB	121					; 00000079H
	DB	101					; 00000065H
	DB	114					; 00000072H
	DB	0
?cmdPlaySound@@YAXPAD@Z ENDP				; cmdPlaySound
_TEXT	ENDS
; Function compile flags: /Odtp /RTCsu /ZI
; File z:\sampsrc\02xu1\saco\cmdprocs.cpp
;	COMDAT ?cmdCreateRadarMarkers@@YAXPAD@Z
_TEXT	SEGMENT
_i$1 = -116						; size = 4
_vecPos$2 = -104					; size = 12
_matPlayer$3 = -84					; size = 64
_pPlayer$ = -12						; size = 4
__$ArrayPad$ = -4					; size = 4
_szCmd$ = 8						; size = 4
?cmdCreateRadarMarkers@@YAXPAD@Z PROC			; cmdCreateRadarMarkers, COMDAT

; 909  : {

	push	ebp
	mov	ebp, esp
	sub	esp, 312				; 00000138H
	push	ebx
	push	esi
	push	edi
	lea	edi, DWORD PTR [ebp-312]
	mov	ecx, 78					; 0000004eH
	mov	eax, -858993460				; ccccccccH
	rep stosd
	mov	eax, DWORD PTR ___security_cookie
	xor	eax, ebp
	mov	DWORD PTR __$ArrayPad$[ebp], eax

; 910  : 	CPlayerPed *pPlayer = pGame->FindPlayerPed();

	mov	ecx, DWORD PTR ?pGame@@3PAVCGame@@A	; pGame
	call	?FindPlayerPed@CGame@@QAEPAVCPlayerPed@@XZ ; CGame::FindPlayerPed
	mov	DWORD PTR _pPlayer$[ebp], eax

; 911  : 
; 912  : 	if(pPlayer)

	cmp	DWORD PTR _pPlayer$[ebp], 0
	je	$LN1@cmdCreateR

; 913  : 	{
; 914  : 		MATRIX4X4 matPlayer;
; 915  : 		pPlayer->GetMatrix(&matPlayer);

	lea	eax, DWORD PTR _matPlayer$3[ebp]
	push	eax
	mov	ecx, DWORD PTR _pPlayer$[ebp]
	call	?GetMatrix@CEntity@@QAEXPAU_MATRIX4X4@@@Z ; CEntity::GetMatrix

; 916  : 
; 917  : 		VECTOR vecPos;
; 918  : 		vecPos.X = matPlayer.pos.X - 10.0f;

	movss	xmm0, DWORD PTR _matPlayer$3[ebp+48]
	subss	xmm0, DWORD PTR __real@41200000
	movss	DWORD PTR _vecPos$2[ebp], xmm0

; 919  : 		vecPos.Y = matPlayer.pos.Y;

	movss	xmm0, DWORD PTR _matPlayer$3[ebp+52]
	movss	DWORD PTR _vecPos$2[ebp+4], xmm0

; 920  : 		vecPos.Z = matPlayer.pos.Z;

	movss	xmm0, DWORD PTR _matPlayer$3[ebp+56]
	movss	DWORD PTR _vecPos$2[ebp+8], xmm0

; 921  : 
; 922  : 		for (int i = 0; i <= 100; i++) {

	mov	DWORD PTR _i$1[ebp], 0
	jmp	SHORT $LN3@cmdCreateR
$LN2@cmdCreateR:
	mov	eax, DWORD PTR _i$1[ebp]
	add	eax, 1
	mov	DWORD PTR _i$1[ebp], eax
$LN3@cmdCreateR:
	cmp	DWORD PTR _i$1[ebp], 100		; 00000064H
	jg	SHORT $LN1@cmdCreateR

; 923  : 			pGame->CreateRadarMarkerIcon(i, vecPos.X, vecPos.Y, vecPos.Z);

	push	201					; 000000c9H
	push	ecx
	movss	xmm0, DWORD PTR _vecPos$2[ebp+8]
	movss	DWORD PTR [esp], xmm0
	push	ecx
	movss	xmm0, DWORD PTR _vecPos$2[ebp+4]
	movss	DWORD PTR [esp], xmm0
	push	ecx
	movss	xmm0, DWORD PTR _vecPos$2[ebp]
	movss	DWORD PTR [esp], xmm0
	mov	eax, DWORD PTR _i$1[ebp]
	push	eax
	mov	ecx, DWORD PTR ?pGame@@3PAVCGame@@A	; pGame
	call	?CreateRadarMarkerIcon@CGame@@QAEKHMMMH@Z ; CGame::CreateRadarMarkerIcon

; 924  : 			vecPos.X -= 40.0f;

	movss	xmm0, DWORD PTR _vecPos$2[ebp]
	subss	xmm0, DWORD PTR __real@42200000
	movss	DWORD PTR _vecPos$2[ebp], xmm0

; 925  : 		}

	jmp	SHORT $LN2@cmdCreateR
$LN1@cmdCreateR:

; 926  : 	}
; 927  : 
; 928  : }

	push	edx
	mov	ecx, ebp
	push	eax
	lea	edx, DWORD PTR $LN10@cmdCreateR
	call	@_RTC_CheckStackVars@8
	pop	eax
	pop	edx
	pop	edi
	pop	esi
	pop	ebx
	mov	ecx, DWORD PTR __$ArrayPad$[ebp]
	xor	ecx, ebp
	call	@__security_check_cookie@4
	add	esp, 312				; 00000138H
	cmp	ebp, esp
	call	__RTC_CheckEsp
	mov	esp, ebp
	pop	ebp
	ret	0
	npad	2
$LN10@cmdCreateR:
	DD	2
	DD	$LN9@cmdCreateR
$LN9@cmdCreateR:
	DD	-84					; ffffffacH
	DD	64					; 00000040H
	DD	$LN7@cmdCreateR
	DD	-104					; ffffff98H
	DD	12					; 0000000cH
	DD	$LN8@cmdCreateR
$LN8@cmdCreateR:
	DB	118					; 00000076H
	DB	101					; 00000065H
	DB	99					; 00000063H
	DB	80					; 00000050H
	DB	111					; 0000006fH
	DB	115					; 00000073H
	DB	0
$LN7@cmdCreateR:
	DB	109					; 0000006dH
	DB	97					; 00000061H
	DB	116					; 00000074H
	DB	80					; 00000050H
	DB	108					; 0000006cH
	DB	97					; 00000061H
	DB	121					; 00000079H
	DB	101					; 00000065H
	DB	114					; 00000072H
	DB	0
?cmdCreateRadarMarkers@@YAXPAD@Z ENDP			; cmdCreateRadarMarkers
_TEXT	ENDS
; Function compile flags: /Odtp /RTCsu /ZI
; File z:\sampsrc\02xu1\saco\cmdprocs.cpp
;	COMDAT ?cmdCheckpointTest@@YAXPAD@Z
_TEXT	SEGMENT
_vecExtent$1 = -124					; size = 12
_vecPos$2 = -104					; size = 12
_matPlayer$3 = -84					; size = 64
_pPlayer$ = -12						; size = 4
__$ArrayPad$ = -4					; size = 4
_szCmd$ = 8						; size = 4
?cmdCheckpointTest@@YAXPAD@Z PROC			; cmdCheckpointTest, COMDAT

; 886  : {

	push	ebp
	mov	ebp, esp
	sub	esp, 320				; 00000140H
	push	ebx
	push	esi
	push	edi
	lea	edi, DWORD PTR [ebp-320]
	mov	ecx, 80					; 00000050H
	mov	eax, -858993460				; ccccccccH
	rep stosd
	mov	eax, DWORD PTR ___security_cookie
	xor	eax, ebp
	mov	DWORD PTR __$ArrayPad$[ebp], eax

; 887  : 	CPlayerPed *pPlayer = pGame->FindPlayerPed();

	mov	ecx, DWORD PTR ?pGame@@3PAVCGame@@A	; pGame
	call	?FindPlayerPed@CGame@@QAEPAVCPlayerPed@@XZ ; CGame::FindPlayerPed
	mov	DWORD PTR _pPlayer$[ebp], eax

; 888  : 
; 889  : 	if(pPlayer)

	cmp	DWORD PTR _pPlayer$[ebp], 0
	je	$LN1@cmdCheckpo

; 890  : 	{
; 891  : 		MATRIX4X4 matPlayer;
; 892  : 		pPlayer->GetMatrix(&matPlayer);

	lea	eax, DWORD PTR _matPlayer$3[ebp]
	push	eax
	mov	ecx, DWORD PTR _pPlayer$[ebp]
	call	?GetMatrix@CEntity@@QAEXPAU_MATRIX4X4@@@Z ; CEntity::GetMatrix

; 893  : 
; 894  : 		VECTOR vecPos;
; 895  : 		vecPos.X = matPlayer.pos.X - 5.0f;

	movss	xmm0, DWORD PTR _matPlayer$3[ebp+48]
	subss	xmm0, DWORD PTR __real@40a00000
	movss	DWORD PTR _vecPos$2[ebp], xmm0

; 896  : 		vecPos.Y = matPlayer.pos.Y - 5.0f;

	movss	xmm0, DWORD PTR _matPlayer$3[ebp+52]
	subss	xmm0, DWORD PTR __real@40a00000
	movss	DWORD PTR _vecPos$2[ebp+4], xmm0

; 897  : 		vecPos.Z = matPlayer.pos.Z;

	movss	xmm0, DWORD PTR _matPlayer$3[ebp+56]
	movss	DWORD PTR _vecPos$2[ebp+8], xmm0

; 898  : 
; 899  : 		VECTOR vecExtent = {2.0f,2.0f,2.0f};

	movss	xmm0, DWORD PTR __real@40000000
	movss	DWORD PTR _vecExtent$1[ebp], xmm0
	movss	xmm0, DWORD PTR __real@40000000
	movss	DWORD PTR _vecExtent$1[ebp+4], xmm0
	movss	xmm0, DWORD PTR __real@40000000
	movss	DWORD PTR _vecExtent$1[ebp+8], xmm0

; 900  : 
; 901  : 		pGame->SetCheckpointInformation(&vecPos,&vecExtent);

	lea	eax, DWORD PTR _vecExtent$1[ebp]
	push	eax
	lea	ecx, DWORD PTR _vecPos$2[ebp]
	push	ecx
	mov	ecx, DWORD PTR ?pGame@@3PAVCGame@@A	; pGame
	call	?SetCheckpointInformation@CGame@@QAEXPAU_VECTOR@@0@Z ; CGame::SetCheckpointInformation

; 902  : 		pGame->ToggleCheckpoints(TRUE);

	push	1
	mov	ecx, DWORD PTR ?pGame@@3PAVCGame@@A	; pGame
	call	?ToggleCheckpoints@CGame@@QAEXH@Z	; CGame::ToggleCheckpoints
$LN1@cmdCheckpo:

; 903  : 	}
; 904  : }

	push	edx
	mov	ecx, ebp
	push	eax
	lea	edx, DWORD PTR $LN8@cmdCheckpo
	call	@_RTC_CheckStackVars@8
	pop	eax
	pop	edx
	pop	edi
	pop	esi
	pop	ebx
	mov	ecx, DWORD PTR __$ArrayPad$[ebp]
	xor	ecx, ebp
	call	@__security_check_cookie@4
	add	esp, 320				; 00000140H
	cmp	ebp, esp
	call	__RTC_CheckEsp
	mov	esp, ebp
	pop	ebp
	ret	0
$LN8@cmdCheckpo:
	DD	3
	DD	$LN7@cmdCheckpo
$LN7@cmdCheckpo:
	DD	-84					; ffffffacH
	DD	64					; 00000040H
	DD	$LN4@cmdCheckpo
	DD	-104					; ffffff98H
	DD	12					; 0000000cH
	DD	$LN5@cmdCheckpo
	DD	-124					; ffffff84H
	DD	12					; 0000000cH
	DD	$LN6@cmdCheckpo
$LN6@cmdCheckpo:
	DB	118					; 00000076H
	DB	101					; 00000065H
	DB	99					; 00000063H
	DB	69					; 00000045H
	DB	120					; 00000078H
	DB	116					; 00000074H
	DB	101					; 00000065H
	DB	110					; 0000006eH
	DB	116					; 00000074H
	DB	0
$LN5@cmdCheckpo:
	DB	118					; 00000076H
	DB	101					; 00000065H
	DB	99					; 00000063H
	DB	80					; 00000050H
	DB	111					; 0000006fH
	DB	115					; 00000073H
	DB	0
$LN4@cmdCheckpo:
	DB	109					; 0000006dH
	DB	97					; 00000061H
	DB	116					; 00000074H
	DB	80					; 00000050H
	DB	108					; 0000006cH
	DB	97					; 00000061H
	DB	121					; 00000079H
	DB	101					; 00000065H
	DB	114					; 00000072H
	DB	0
?cmdCheckpointTest@@YAXPAD@Z ENDP			; cmdCheckpointTest
_TEXT	ENDS
; Function compile flags: /Odtp /RTCsu /ZI
; File z:\sampsrc\02xu1\saco\cmdprocs.cpp
;	COMDAT ?cmdApplyAnimation@@YAXPAD@Z
_TEXT	SEGMENT
_szAnimName$ = -528					; size = 256
_szAnimFile$ = -264					; size = 256
__$ArrayPad$ = -4					; size = 4
_szCmd$ = 8						; size = 4
?cmdApplyAnimation@@YAXPAD@Z PROC			; cmdApplyAnimation, COMDAT

; 872  : {

	push	ebp
	mov	ebp, esp
	sub	esp, 724				; 000002d4H
	push	ebx
	push	esi
	push	edi
	lea	edi, DWORD PTR [ebp-724]
	mov	ecx, 181				; 000000b5H
	mov	eax, -858993460				; ccccccccH
	rep stosd
	mov	eax, DWORD PTR ___security_cookie
	xor	eax, ebp
	mov	DWORD PTR __$ArrayPad$[ebp], eax

; 873  : 	char szAnimFile[256];
; 874  : 	char szAnimName[256];
; 875  : 	sscanf(szCmd,"%s%s",szAnimName,szAnimFile);

	lea	eax, DWORD PTR _szAnimFile$[ebp]
	push	eax
	lea	ecx, DWORD PTR _szAnimName$[ebp]
	push	ecx
	push	OFFSET ??_C@_04HDOCAJNK@?$CFs?$CFs?$AA@
	mov	edx, DWORD PTR _szCmd$[ebp]
	push	edx
	call	_sscanf
	add	esp, 16					; 00000010H

; 876  : 
; 877  : 	//CPlayerPed *pPlayer = pGame->FindPlayerPed();
; 878  : 	//pPlayer->ApplyAnimation(szAnimName,szAnimFile,4.0f,1,0,0,0,0);
; 879  : 
; 880  : 	pChatWindow->AddDebugMessage("Applied Anim: %s Of Group: %s",szAnimName,szAnimFile);

	lea	eax, DWORD PTR _szAnimFile$[ebp]
	push	eax
	lea	ecx, DWORD PTR _szAnimName$[ebp]
	push	ecx
	push	OFFSET ??_C@_0BO@LFPOJGKK@Applied?5Anim?3?5?$CFs?5Of?5Group?3?5?$CFs?$AA@
	mov	edx, DWORD PTR ?pChatWindow@@3PAVCChatWindow@@A ; pChatWindow
	push	edx
	call	?AddDebugMessage@CChatWindow@@QAAXPADZZ	; CChatWindow::AddDebugMessage
	add	esp, 16					; 00000010H

; 881  : }

	push	edx
	mov	ecx, ebp
	push	eax
	lea	edx, DWORD PTR $LN6@cmdApplyAn
	call	@_RTC_CheckStackVars@8
	pop	eax
	pop	edx
	pop	edi
	pop	esi
	pop	ebx
	mov	ecx, DWORD PTR __$ArrayPad$[ebp]
	xor	ecx, ebp
	call	@__security_check_cookie@4
	add	esp, 724				; 000002d4H
	cmp	ebp, esp
	call	__RTC_CheckEsp
	mov	esp, ebp
	pop	ebp
	ret	0
$LN6@cmdApplyAn:
	DD	2
	DD	$LN5@cmdApplyAn
$LN5@cmdApplyAn:
	DD	-264					; fffffef8H
	DD	256					; 00000100H
	DD	$LN3@cmdApplyAn
	DD	-528					; fffffdf0H
	DD	256					; 00000100H
	DD	$LN4@cmdApplyAn
$LN4@cmdApplyAn:
	DB	115					; 00000073H
	DB	122					; 0000007aH
	DB	65					; 00000041H
	DB	110					; 0000006eH
	DB	105					; 00000069H
	DB	109					; 0000006dH
	DB	78					; 0000004eH
	DB	97					; 00000061H
	DB	109					; 0000006dH
	DB	101					; 00000065H
	DB	0
$LN3@cmdApplyAn:
	DB	115					; 00000073H
	DB	122					; 0000007aH
	DB	65					; 00000041H
	DB	110					; 0000006eH
	DB	105					; 00000069H
	DB	109					; 0000006dH
	DB	70					; 00000046H
	DB	105					; 00000069H
	DB	108					; 0000006cH
	DB	101					; 00000065H
	DB	0
?cmdApplyAnimation@@YAXPAD@Z ENDP			; cmdApplyAnimation
_TEXT	ENDS
; Function compile flags: /Odtp /RTCsu /ZI
; File z:\sampsrc\02xu1\saco\cmdprocs.cpp
;	COMDAT ?cmdKillRemotePlayer@@YAXPAD@Z
_TEXT	SEGMENT
_iPlayer$ = -32						; size = 4
_pThisPlayer$ = -20					; size = 4
_pPlayerPool$ = -8					; size = 4
_szCmd$ = 8						; size = 4
?cmdKillRemotePlayer@@YAXPAD@Z PROC			; cmdKillRemotePlayer, COMDAT

; 859  : {

	push	ebp
	mov	ebp, esp
	sub	esp, 228				; 000000e4H
	push	ebx
	push	esi
	push	edi
	lea	edi, DWORD PTR [ebp-228]
	mov	ecx, 57					; 00000039H
	mov	eax, -858993460				; ccccccccH
	rep stosd

; 860  : 	CPlayerPool *pPlayerPool = pNetGame->GetPlayerPool();

	mov	ecx, DWORD PTR ?pNetGame@@3PAVCNetGame@@A ; pNetGame
	call	?GetPlayerPool@CNetGame@@QAEPAVCPlayerPool@@XZ ; CNetGame::GetPlayerPool
	mov	DWORD PTR _pPlayerPool$[ebp], eax

; 861  : 	CRemotePlayer *pThisPlayer;
; 862  : 
; 863  : 	int iPlayer=0;

	mov	DWORD PTR _iPlayer$[ebp], 0

; 864  : 	sscanf(szCmd,"%d",&iPlayer);

	lea	eax, DWORD PTR _iPlayer$[ebp]
	push	eax
	push	OFFSET ??_C@_02DPKJAMEF@?$CFd?$AA@
	mov	ecx, DWORD PTR _szCmd$[ebp]
	push	ecx
	call	_sscanf
	add	esp, 12					; 0000000cH

; 865  : 	pThisPlayer = pPlayerPool->GetAt(iPlayer);

	movzx	eax, BYTE PTR _iPlayer$[ebp]
	push	eax
	mov	ecx, DWORD PTR _pPlayerPool$[ebp]
	call	?GetAt@CPlayerPool@@QAEPAVCRemotePlayer@@E@Z ; CPlayerPool::GetAt
	mov	DWORD PTR _pThisPlayer$[ebp], eax

; 866  : 	if(pThisPlayer) pThisPlayer->GetPlayerPed()->SetDead();

	cmp	DWORD PTR _pThisPlayer$[ebp], 0
	je	SHORT $LN2@cmdKillRem
	mov	ecx, DWORD PTR _pThisPlayer$[ebp]
	call	?GetPlayerPed@CRemotePlayer@@QAEPAVCPlayerPed@@XZ ; CRemotePlayer::GetPlayerPed
	mov	ecx, eax
	call	?SetDead@CPlayerPed@@QAEXXZ		; CPlayerPed::SetDead
$LN2@cmdKillRem:

; 867  : }

	push	edx
	mov	ecx, ebp
	push	eax
	lea	edx, DWORD PTR $LN6@cmdKillRem
	call	@_RTC_CheckStackVars@8
	pop	eax
	pop	edx
	pop	edi
	pop	esi
	pop	ebx
	add	esp, 228				; 000000e4H
	cmp	ebp, esp
	call	__RTC_CheckEsp
	mov	esp, ebp
	pop	ebp
	ret	0
	npad	2
$LN6@cmdKillRem:
	DD	1
	DD	$LN5@cmdKillRem
$LN5@cmdKillRem:
	DD	-32					; ffffffe0H
	DD	4
	DD	$LN4@cmdKillRem
$LN4@cmdKillRem:
	DB	105					; 00000069H
	DB	80					; 00000050H
	DB	108					; 0000006cH
	DB	97					; 00000061H
	DB	121					; 00000079H
	DB	101					; 00000065H
	DB	114					; 00000072H
	DB	0
?cmdKillRemotePlayer@@YAXPAD@Z ENDP			; cmdKillRemotePlayer
_TEXT	ENDS
; Function compile flags: /Odtp /RTCsu /ZI
; File z:\sampsrc\02xu1\saco\cmdprocs.cpp
;	COMDAT ?cmdAnimSet@@YAXPAD@Z
_TEXT	SEGMENT
_pPlayer$ = -8						; size = 4
_szCmd$ = 8						; size = 4
?cmdAnimSet@@YAXPAD@Z PROC				; cmdAnimSet, COMDAT

; 851  : { 	

	push	ebp
	mov	ebp, esp
	sub	esp, 204				; 000000ccH
	push	ebx
	push	esi
	push	edi
	lea	edi, DWORD PTR [ebp-204]
	mov	ecx, 51					; 00000033H
	mov	eax, -858993460				; ccccccccH
	rep stosd

; 852  : 	CPlayerPed *pPlayer = pGame->FindPlayerPed();

	mov	ecx, DWORD PTR ?pGame@@3PAVCGame@@A	; pGame
	call	?FindPlayerPed@CGame@@QAEPAVCPlayerPed@@XZ ; CGame::FindPlayerPed
	mov	DWORD PTR _pPlayer$[ebp], eax

; 853  : 	if(pPlayer) pPlayer->SetAnimationSet(szCmd);

	cmp	DWORD PTR _pPlayer$[ebp], 0
	je	SHORT $LN2@cmdAnimSet
	mov	eax, DWORD PTR _szCmd$[ebp]
	push	eax
	mov	ecx, DWORD PTR _pPlayer$[ebp]
	call	?SetAnimationSet@CPlayerPed@@QAEXPAD@Z	; CPlayerPed::SetAnimationSet
$LN2@cmdAnimSet:

; 854  : }

	pop	edi
	pop	esi
	pop	ebx
	add	esp, 204				; 000000ccH
	cmp	ebp, esp
	call	__RTC_CheckEsp
	mov	esp, ebp
	pop	ebp
	ret	0
?cmdAnimSet@@YAXPAD@Z ENDP				; cmdAnimSet
_TEXT	ENDS
; Function compile flags: /Odtp /RTCsu /ZI
; File z:\sampsrc\02xu1\saco\cmdprocs.cpp
;	COMDAT ?cmdWorldPlayerAdd@@YAXPAD@Z
_TEXT	SEGMENT
tv80 = -232						; size = 4
_iPlayer$ = -32						; size = 4
_pThisPlayer$ = -20					; size = 4
_pPlayerPool$ = -8					; size = 4
_szCmd$ = 8						; size = 4
?cmdWorldPlayerAdd@@YAXPAD@Z PROC			; cmdWorldPlayerAdd, COMDAT

; 838  : { 	

	push	ebp
	mov	ebp, esp
	sub	esp, 232				; 000000e8H
	push	ebx
	push	esi
	push	edi
	lea	edi, DWORD PTR [ebp-232]
	mov	ecx, 58					; 0000003aH
	mov	eax, -858993460				; ccccccccH
	rep stosd

; 839  : 	CPlayerPool *pPlayerPool = pNetGame->GetPlayerPool();

	mov	ecx, DWORD PTR ?pNetGame@@3PAVCNetGame@@A ; pNetGame
	call	?GetPlayerPool@CNetGame@@QAEPAVCPlayerPool@@XZ ; CNetGame::GetPlayerPool
	mov	DWORD PTR _pPlayerPool$[ebp], eax

; 840  : 	CRemotePlayer *pThisPlayer;
; 841  : 
; 842  : 	int iPlayer=0;

	mov	DWORD PTR _iPlayer$[ebp], 0

; 843  : 	sscanf(szCmd,"%d",&iPlayer);

	lea	eax, DWORD PTR _iPlayer$[ebp]
	push	eax
	push	OFFSET ??_C@_02DPKJAMEF@?$CFd?$AA@
	mov	ecx, DWORD PTR _szCmd$[ebp]
	push	ecx
	call	_sscanf
	add	esp, 12					; 0000000cH

; 844  : 	pThisPlayer = pPlayerPool->GetAt(iPlayer);

	movzx	eax, BYTE PTR _iPlayer$[ebp]
	push	eax
	mov	ecx, DWORD PTR _pPlayerPool$[ebp]
	call	?GetAt@CPlayerPool@@QAEPAVCRemotePlayer@@E@Z ; CPlayerPool::GetAt
	mov	DWORD PTR _pThisPlayer$[ebp], eax

; 845  : 	if(pThisPlayer) pThisPlayer->GetPlayerPed()->Add();

	cmp	DWORD PTR _pThisPlayer$[ebp], 0
	je	SHORT $LN2@cmdWorldPl
	mov	ecx, DWORD PTR _pThisPlayer$[ebp]
	call	?GetPlayerPed@CRemotePlayer@@QAEPAVCPlayerPed@@XZ ; CRemotePlayer::GetPlayerPed
	mov	DWORD PTR tv80[ebp], eax
	mov	eax, DWORD PTR tv80[ebp]
	mov	edx, DWORD PTR [eax]
	mov	esi, esp
	mov	ecx, DWORD PTR tv80[ebp]
	mov	eax, DWORD PTR [edx+4]
	call	eax
	cmp	esi, esp
	call	__RTC_CheckEsp
$LN2@cmdWorldPl:

; 846  : }

	push	edx
	mov	ecx, ebp
	push	eax
	lea	edx, DWORD PTR $LN6@cmdWorldPl
	call	@_RTC_CheckStackVars@8
	pop	eax
	pop	edx
	pop	edi
	pop	esi
	pop	ebx
	add	esp, 232				; 000000e8H
	cmp	ebp, esp
	call	__RTC_CheckEsp
	mov	esp, ebp
	pop	ebp
	ret	0
	npad	3
$LN6@cmdWorldPl:
	DD	1
	DD	$LN5@cmdWorldPl
$LN5@cmdWorldPl:
	DD	-32					; ffffffe0H
	DD	4
	DD	$LN4@cmdWorldPl
$LN4@cmdWorldPl:
	DB	105					; 00000069H
	DB	80					; 00000050H
	DB	108					; 0000006cH
	DB	97					; 00000061H
	DB	121					; 00000079H
	DB	101					; 00000065H
	DB	114					; 00000072H
	DB	0
?cmdWorldPlayerAdd@@YAXPAD@Z ENDP			; cmdWorldPlayerAdd
_TEXT	ENDS
; Function compile flags: /Odtp /RTCsu /ZI
; File z:\sampsrc\02xu1\saco\cmdprocs.cpp
;	COMDAT ?cmdWorldPlayerRemove@@YAXPAD@Z
_TEXT	SEGMENT
tv80 = -232						; size = 4
_iPlayer$ = -32						; size = 4
_pThisPlayer$ = -20					; size = 4
_pPlayerPool$ = -8					; size = 4
_szCmd$ = 8						; size = 4
?cmdWorldPlayerRemove@@YAXPAD@Z PROC			; cmdWorldPlayerRemove, COMDAT

; 825  : { 	

	push	ebp
	mov	ebp, esp
	sub	esp, 232				; 000000e8H
	push	ebx
	push	esi
	push	edi
	lea	edi, DWORD PTR [ebp-232]
	mov	ecx, 58					; 0000003aH
	mov	eax, -858993460				; ccccccccH
	rep stosd

; 826  : 	CPlayerPool *pPlayerPool = pNetGame->GetPlayerPool();

	mov	ecx, DWORD PTR ?pNetGame@@3PAVCNetGame@@A ; pNetGame
	call	?GetPlayerPool@CNetGame@@QAEPAVCPlayerPool@@XZ ; CNetGame::GetPlayerPool
	mov	DWORD PTR _pPlayerPool$[ebp], eax

; 827  : 	CRemotePlayer *pThisPlayer;
; 828  : 
; 829  : 	int iPlayer=0;

	mov	DWORD PTR _iPlayer$[ebp], 0

; 830  : 	sscanf(szCmd,"%d",&iPlayer);

	lea	eax, DWORD PTR _iPlayer$[ebp]
	push	eax
	push	OFFSET ??_C@_02DPKJAMEF@?$CFd?$AA@
	mov	ecx, DWORD PTR _szCmd$[ebp]
	push	ecx
	call	_sscanf
	add	esp, 12					; 0000000cH

; 831  : 	pThisPlayer = pPlayerPool->GetAt(iPlayer);

	movzx	eax, BYTE PTR _iPlayer$[ebp]
	push	eax
	mov	ecx, DWORD PTR _pPlayerPool$[ebp]
	call	?GetAt@CPlayerPool@@QAEPAVCRemotePlayer@@E@Z ; CPlayerPool::GetAt
	mov	DWORD PTR _pThisPlayer$[ebp], eax

; 832  : 	if(pThisPlayer) pThisPlayer->GetPlayerPed()->Remove();

	cmp	DWORD PTR _pThisPlayer$[ebp], 0
	je	SHORT $LN2@cmdWorldPl
	mov	ecx, DWORD PTR _pThisPlayer$[ebp]
	call	?GetPlayerPed@CRemotePlayer@@QAEPAVCPlayerPed@@XZ ; CRemotePlayer::GetPlayerPed
	mov	DWORD PTR tv80[ebp], eax
	mov	eax, DWORD PTR tv80[ebp]
	mov	edx, DWORD PTR [eax]
	mov	esi, esp
	mov	ecx, DWORD PTR tv80[ebp]
	mov	eax, DWORD PTR [edx+8]
	call	eax
	cmp	esi, esp
	call	__RTC_CheckEsp
$LN2@cmdWorldPl:

; 833  : }

	push	edx
	mov	ecx, ebp
	push	eax
	lea	edx, DWORD PTR $LN6@cmdWorldPl
	call	@_RTC_CheckStackVars@8
	pop	eax
	pop	edx
	pop	edi
	pop	esi
	pop	ebx
	add	esp, 232				; 000000e8H
	cmp	ebp, esp
	call	__RTC_CheckEsp
	mov	esp, ebp
	pop	ebp
	ret	0
	npad	3
$LN6@cmdWorldPl:
	DD	1
	DD	$LN5@cmdWorldPl
$LN5@cmdWorldPl:
	DD	-32					; ffffffe0H
	DD	4
	DD	$LN4@cmdWorldPl
$LN4@cmdWorldPl:
	DB	105					; 00000069H
	DB	80					; 00000050H
	DB	108					; 0000006cH
	DB	97					; 00000061H
	DB	121					; 00000079H
	DB	101					; 00000065H
	DB	114					; 00000072H
	DB	0
?cmdWorldPlayerRemove@@YAXPAD@Z ENDP			; cmdWorldPlayerRemove
_TEXT	ENDS
; Function compile flags: /Odtp /RTCsu /ZI
; File z:\sampsrc\02xu1\saco\cmdprocs.cpp
;	COMDAT ?cmdWorldVehicleAdd@@YAXPAD@Z
_TEXT	SEGMENT
_iVehicle$ = -32					; size = 4
_pThisVehicle$ = -20					; size = 4
_pVehiclePool$ = -8					; size = 4
_szCmd$ = 8						; size = 4
?cmdWorldVehicleAdd@@YAXPAD@Z PROC			; cmdWorldVehicleAdd, COMDAT

; 812  : { 	

	push	ebp
	mov	ebp, esp
	sub	esp, 228				; 000000e4H
	push	ebx
	push	esi
	push	edi
	lea	edi, DWORD PTR [ebp-228]
	mov	ecx, 57					; 00000039H
	mov	eax, -858993460				; ccccccccH
	rep stosd

; 813  : 	CVehiclePool *pVehiclePool = pNetGame->GetVehiclePool();

	mov	ecx, DWORD PTR ?pNetGame@@3PAVCNetGame@@A ; pNetGame
	call	?GetVehiclePool@CNetGame@@QAEPAVCVehiclePool@@XZ ; CNetGame::GetVehiclePool
	mov	DWORD PTR _pVehiclePool$[ebp], eax

; 814  : 	CVehicle *pThisVehicle;
; 815  : 
; 816  : 	int iVehicle=0;

	mov	DWORD PTR _iVehicle$[ebp], 0

; 817  : 	sscanf(szCmd,"%d",&iVehicle);

	lea	eax, DWORD PTR _iVehicle$[ebp]
	push	eax
	push	OFFSET ??_C@_02DPKJAMEF@?$CFd?$AA@
	mov	ecx, DWORD PTR _szCmd$[ebp]
	push	ecx
	call	_sscanf
	add	esp, 12					; 0000000cH

; 818  : 	pThisVehicle = pVehiclePool->GetAt(iVehicle);

	movzx	eax, WORD PTR _iVehicle$[ebp]
	push	eax
	mov	ecx, DWORD PTR _pVehiclePool$[ebp]
	call	?GetAt@CVehiclePool@@QAEPAVCVehicle@@G@Z ; CVehiclePool::GetAt
	mov	DWORD PTR _pThisVehicle$[ebp], eax

; 819  : 	if(pThisVehicle) pThisVehicle->Add();

	cmp	DWORD PTR _pThisVehicle$[ebp], 0
	je	SHORT $LN2@cmdWorldVe
	mov	eax, DWORD PTR _pThisVehicle$[ebp]
	mov	edx, DWORD PTR [eax]
	mov	esi, esp
	mov	ecx, DWORD PTR _pThisVehicle$[ebp]
	mov	eax, DWORD PTR [edx+4]
	call	eax
	cmp	esi, esp
	call	__RTC_CheckEsp
$LN2@cmdWorldVe:

; 820  : }

	push	edx
	mov	ecx, ebp
	push	eax
	lea	edx, DWORD PTR $LN6@cmdWorldVe
	call	@_RTC_CheckStackVars@8
	pop	eax
	pop	edx
	pop	edi
	pop	esi
	pop	ebx
	add	esp, 228				; 000000e4H
	cmp	ebp, esp
	call	__RTC_CheckEsp
	mov	esp, ebp
	pop	ebp
	ret	0
	npad	3
$LN6@cmdWorldVe:
	DD	1
	DD	$LN5@cmdWorldVe
$LN5@cmdWorldVe:
	DD	-32					; ffffffe0H
	DD	4
	DD	$LN4@cmdWorldVe
$LN4@cmdWorldVe:
	DB	105					; 00000069H
	DB	86					; 00000056H
	DB	101					; 00000065H
	DB	104					; 00000068H
	DB	105					; 00000069H
	DB	99					; 00000063H
	DB	108					; 0000006cH
	DB	101					; 00000065H
	DB	0
?cmdWorldVehicleAdd@@YAXPAD@Z ENDP			; cmdWorldVehicleAdd
_TEXT	ENDS
; Function compile flags: /Odtp /RTCsu /ZI
; File z:\sampsrc\02xu1\saco\cmdprocs.cpp
;	COMDAT ?cmdWorldVehicleRemove@@YAXPAD@Z
_TEXT	SEGMENT
_iVehicle$ = -32					; size = 4
_pThisVehicle$ = -20					; size = 4
_pVehiclePool$ = -8					; size = 4
_szCmd$ = 8						; size = 4
?cmdWorldVehicleRemove@@YAXPAD@Z PROC			; cmdWorldVehicleRemove, COMDAT

; 799  : { 	

	push	ebp
	mov	ebp, esp
	sub	esp, 228				; 000000e4H
	push	ebx
	push	esi
	push	edi
	lea	edi, DWORD PTR [ebp-228]
	mov	ecx, 57					; 00000039H
	mov	eax, -858993460				; ccccccccH
	rep stosd

; 800  : 	CVehiclePool *pVehiclePool = pNetGame->GetVehiclePool();

	mov	ecx, DWORD PTR ?pNetGame@@3PAVCNetGame@@A ; pNetGame
	call	?GetVehiclePool@CNetGame@@QAEPAVCVehiclePool@@XZ ; CNetGame::GetVehiclePool
	mov	DWORD PTR _pVehiclePool$[ebp], eax

; 801  : 	CVehicle *pThisVehicle;
; 802  : 
; 803  : 	int iVehicle=0;

	mov	DWORD PTR _iVehicle$[ebp], 0

; 804  : 	sscanf(szCmd,"%d",&iVehicle);

	lea	eax, DWORD PTR _iVehicle$[ebp]
	push	eax
	push	OFFSET ??_C@_02DPKJAMEF@?$CFd?$AA@
	mov	ecx, DWORD PTR _szCmd$[ebp]
	push	ecx
	call	_sscanf
	add	esp, 12					; 0000000cH

; 805  : 	pThisVehicle = pVehiclePool->GetAt(iVehicle);

	movzx	eax, WORD PTR _iVehicle$[ebp]
	push	eax
	mov	ecx, DWORD PTR _pVehiclePool$[ebp]
	call	?GetAt@CVehiclePool@@QAEPAVCVehicle@@G@Z ; CVehiclePool::GetAt
	mov	DWORD PTR _pThisVehicle$[ebp], eax

; 806  : 	if(pThisVehicle) pThisVehicle->Remove();

	cmp	DWORD PTR _pThisVehicle$[ebp], 0
	je	SHORT $LN2@cmdWorldVe
	mov	eax, DWORD PTR _pThisVehicle$[ebp]
	mov	edx, DWORD PTR [eax]
	mov	esi, esp
	mov	ecx, DWORD PTR _pThisVehicle$[ebp]
	mov	eax, DWORD PTR [edx+8]
	call	eax
	cmp	esi, esp
	call	__RTC_CheckEsp
$LN2@cmdWorldVe:

; 807  : }

	push	edx
	mov	ecx, ebp
	push	eax
	lea	edx, DWORD PTR $LN6@cmdWorldVe
	call	@_RTC_CheckStackVars@8
	pop	eax
	pop	edx
	pop	edi
	pop	esi
	pop	ebx
	add	esp, 228				; 000000e4H
	cmp	ebp, esp
	call	__RTC_CheckEsp
	mov	esp, ebp
	pop	ebp
	ret	0
	npad	3
$LN6@cmdWorldVe:
	DD	1
	DD	$LN5@cmdWorldVe
$LN5@cmdWorldVe:
	DD	-32					; ffffffe0H
	DD	4
	DD	$LN4@cmdWorldVe
$LN4@cmdWorldVe:
	DB	105					; 00000069H
	DB	86					; 00000056H
	DB	101					; 00000065H
	DB	104					; 00000068H
	DB	105					; 00000069H
	DB	99					; 00000063H
	DB	108					; 0000006cH
	DB	101					; 00000065H
	DB	0
?cmdWorldVehicleRemove@@YAXPAD@Z ENDP			; cmdWorldVehicleRemove
_TEXT	ENDS
; Function compile flags: /Odtp /RTCsu /ZI
; File z:\sampsrc\02xu1\saco\cmdprocs.cpp
;	COMDAT ?cmdFreeAim@@YAXPAD@Z
_TEXT	SEGMENT
_pPlayer$ = -8						; size = 4
_szCmd$ = 8						; size = 4
?cmdFreeAim@@YAXPAD@Z PROC				; cmdFreeAim, COMDAT

; 789  : { 

	push	ebp
	mov	ebp, esp
	sub	esp, 204				; 000000ccH
	push	ebx
	push	esi
	push	edi
	lea	edi, DWORD PTR [ebp-204]
	mov	ecx, 51					; 00000033H
	mov	eax, -858993460				; ccccccccH
	rep stosd

; 790  : 	CPlayerPed *pPlayer = pGame->FindPlayerPed();

	mov	ecx, DWORD PTR ?pGame@@3PAVCGame@@A	; pGame
	call	?FindPlayerPed@CGame@@QAEPAVCPlayerPed@@XZ ; CGame::FindPlayerPed
	mov	DWORD PTR _pPlayer$[ebp], eax

; 791  : 
; 792  : 	pPlayer->GiveWeapon(28,200);

	push	200					; 000000c8H
	push	28					; 0000001cH
	mov	ecx, DWORD PTR _pPlayer$[ebp]
	call	?GiveWeapon@CPlayerPed@@QAEXHH@Z	; CPlayerPed::GiveWeapon

; 793  : 	pPlayer->StartPassengerDriveByMode();	

	mov	ecx, DWORD PTR _pPlayer$[ebp]
	call	?StartPassengerDriveByMode@CPlayerPed@@QAEHXZ ; CPlayerPed::StartPassengerDriveByMode

; 794  : }

	pop	edi
	pop	esi
	pop	ebx
	add	esp, 204				; 000000ccH
	cmp	ebp, esp
	call	__RTC_CheckEsp
	mov	esp, ebp
	pop	ebp
	ret	0
?cmdFreeAim@@YAXPAD@Z ENDP				; cmdFreeAim
_TEXT	ENDS
; Function compile flags: /Odtp /RTCsu /ZI
; File z:\sampsrc\02xu1\saco\cmdprocs.cpp
;	COMDAT ?cmdCreateActor@@YAXPAD@Z
_TEXT	SEGMENT
_vecPos$1 = -116					; size = 12
_matPlayer$2 = -96					; size = 64
_pPlayer$ = -24						; size = 4
_iActor$ = -12						; size = 4
__$ArrayPad$ = -4					; size = 4
_szCmd$ = 8						; size = 4
?cmdCreateActor@@YAXPAD@Z PROC				; cmdCreateActor, COMDAT

; 766  : {

	push	ebp
	mov	ebp, esp
	sub	esp, 312				; 00000138H
	push	ebx
	push	esi
	push	edi
	lea	edi, DWORD PTR [ebp-312]
	mov	ecx, 78					; 0000004eH
	mov	eax, -858993460				; ccccccccH
	rep stosd
	mov	eax, DWORD PTR ___security_cookie
	xor	eax, ebp
	mov	DWORD PTR __$ArrayPad$[ebp], eax

; 767  : 	int iActor = atoi(szCmd);

	mov	eax, DWORD PTR _szCmd$[ebp]
	push	eax
	call	_atoi
	add	esp, 4
	mov	DWORD PTR _iActor$[ebp], eax

; 768  : 
; 769  : 	// place this new actor near the local player.
; 770  : 	CPlayerPed *pPlayer = pGame->FindPlayerPed();

	mov	ecx, DWORD PTR ?pGame@@3PAVCGame@@A	; pGame
	call	?FindPlayerPed@CGame@@QAEPAVCPlayerPed@@XZ ; CGame::FindPlayerPed
	mov	DWORD PTR _pPlayer$[ebp], eax

; 771  : 
; 772  : 	if(pPlayer)

	cmp	DWORD PTR _pPlayer$[ebp], 0
	je	SHORT $LN1@cmdCreateA

; 773  : 	{
; 774  : 		MATRIX4X4 matPlayer;
; 775  : 		pPlayer->GetMatrix(&matPlayer);

	lea	eax, DWORD PTR _matPlayer$2[ebp]
	push	eax
	mov	ecx, DWORD PTR _pPlayer$[ebp]
	call	?GetMatrix@CEntity@@QAEXPAU_MATRIX4X4@@@Z ; CEntity::GetMatrix

; 776  : 
; 777  : 		VECTOR vecPos;
; 778  : 		vecPos.X = matPlayer.pos.X - 5.0f;

	movss	xmm0, DWORD PTR _matPlayer$2[ebp+48]
	subss	xmm0, DWORD PTR __real@40a00000
	movss	DWORD PTR _vecPos$1[ebp], xmm0

; 779  : 		vecPos.Y = matPlayer.pos.Y - 5.0f;

	movss	xmm0, DWORD PTR _matPlayer$2[ebp+52]
	subss	xmm0, DWORD PTR __real@40a00000
	movss	DWORD PTR _vecPos$1[ebp+4], xmm0

; 780  : 		vecPos.Z = matPlayer.pos.Z;

	movss	xmm0, DWORD PTR _matPlayer$2[ebp+56]
	movss	DWORD PTR _vecPos$1[ebp+8], xmm0

; 781  : 		
; 782  : 		MyCreateActor(iActor,vecPos.X,vecPos.Y,vecPos.Z,0.0f);

	push	ecx
	movss	xmm0, DWORD PTR __real@00000000
	movss	DWORD PTR [esp], xmm0
	push	ecx
	movss	xmm0, DWORD PTR _vecPos$1[ebp+8]
	movss	DWORD PTR [esp], xmm0
	push	ecx
	movss	xmm0, DWORD PTR _vecPos$1[ebp+4]
	movss	DWORD PTR [esp], xmm0
	push	ecx
	movss	xmm0, DWORD PTR _vecPos$1[ebp]
	movss	DWORD PTR [esp], xmm0
	mov	eax, DWORD PTR _iActor$[ebp]
	push	eax
	call	?MyCreateActor@@YAKHMMMM@Z		; MyCreateActor
	add	esp, 20					; 00000014H
$LN1@cmdCreateA:

; 783  : 	}
; 784  : }

	push	edx
	mov	ecx, ebp
	push	eax
	lea	edx, DWORD PTR $LN7@cmdCreateA
	call	@_RTC_CheckStackVars@8
	pop	eax
	pop	edx
	pop	edi
	pop	esi
	pop	ebx
	mov	ecx, DWORD PTR __$ArrayPad$[ebp]
	xor	ecx, ebp
	call	@__security_check_cookie@4
	add	esp, 312				; 00000138H
	cmp	ebp, esp
	call	__RTC_CheckEsp
	mov	esp, ebp
	pop	ebp
	ret	0
	npad	1
$LN7@cmdCreateA:
	DD	2
	DD	$LN6@cmdCreateA
$LN6@cmdCreateA:
	DD	-96					; ffffffa0H
	DD	64					; 00000040H
	DD	$LN4@cmdCreateA
	DD	-116					; ffffff8cH
	DD	12					; 0000000cH
	DD	$LN5@cmdCreateA
$LN5@cmdCreateA:
	DB	118					; 00000076H
	DB	101					; 00000065H
	DB	99					; 00000063H
	DB	80					; 00000050H
	DB	111					; 0000006fH
	DB	115					; 00000073H
	DB	0
$LN4@cmdCreateA:
	DB	109					; 0000006dH
	DB	97					; 00000061H
	DB	116					; 00000074H
	DB	80					; 00000050H
	DB	108					; 0000006cH
	DB	97					; 00000061H
	DB	121					; 00000079H
	DB	101					; 00000065H
	DB	114					; 00000072H
	DB	0
?cmdCreateActor@@YAXPAD@Z ENDP				; cmdCreateActor
_TEXT	ENDS
; Function compile flags: /Odtp /RTCsu /ZI
; File z:\sampsrc\02xu1\saco\cmdprocs.cpp
;	COMDAT ?MyCreateActor@@YAKHMMMM@Z
_TEXT	SEGMENT
_dwRetID$ = -8						; size = 4
_iModelID$ = 8						; size = 4
_X$ = 12						; size = 4
_Y$ = 16						; size = 4
_Z$ = 20						; size = 4
_fRotation$ = 24					; size = 4
?MyCreateActor@@YAKHMMMM@Z PROC				; MyCreateActor, COMDAT

; 752  : {

	push	ebp
	mov	ebp, esp
	sub	esp, 204				; 000000ccH
	push	ebx
	push	esi
	push	edi
	lea	edi, DWORD PTR [ebp-204]
	mov	ecx, 51					; 00000033H
	mov	eax, -858993460				; ccccccccH
	rep stosd

; 753  : 	DWORD dwRetID;
; 754  : 	pGame->RequestModel(iModelID);

	mov	eax, DWORD PTR _iModelID$[ebp]
	push	eax
	mov	ecx, DWORD PTR ?pGame@@3PAVCGame@@A	; pGame
	call	?RequestModel@CGame@@QAEXH@Z		; CGame::RequestModel

; 755  : 	pGame->LoadRequestedModels();

	mov	ecx, DWORD PTR ?pGame@@3PAVCGame@@A	; pGame
	call	?LoadRequestedModels@CGame@@QAEXXZ	; CGame::LoadRequestedModels
$LN2@MyCreateAc:

; 756  : 	while(!pGame->IsModelLoaded(iModelID)) Sleep(5);

	mov	eax, DWORD PTR _iModelID$[ebp]
	push	eax
	mov	ecx, DWORD PTR ?pGame@@3PAVCGame@@A	; pGame
	call	?IsModelLoaded@CGame@@QAEHH@Z		; CGame::IsModelLoaded
	test	eax, eax
	jne	SHORT $LN1@MyCreateAc
	mov	esi, esp
	push	5
	call	DWORD PTR __imp__Sleep@4
	cmp	esi, esp
	call	__RTC_CheckEsp
	jmp	SHORT $LN2@MyCreateAc
$LN1@MyCreateAc:

; 757  : 	ScriptCommand(&create_actor,5,iModelID,X,Y,Z,&dwRetID);

	lea	eax, DWORD PTR _dwRetID$[ebp]
	push	eax
	cvtss2sd xmm0, DWORD PTR _Z$[ebp]
	sub	esp, 8
	movsd	QWORD PTR [esp], xmm0
	cvtss2sd xmm0, DWORD PTR _Y$[ebp]
	sub	esp, 8
	movsd	QWORD PTR [esp], xmm0
	cvtss2sd xmm0, DWORD PTR _X$[ebp]
	sub	esp, 8
	movsd	QWORD PTR [esp], xmm0
	mov	ecx, DWORD PTR _iModelID$[ebp]
	push	ecx
	push	5
	push	OFFSET _create_actor
	call	?ScriptCommand@@YAHPBUSCRIPT_COMMAND@@ZZ ; ScriptCommand
	add	esp, 40					; 00000028H

; 758  : 	ScriptCommand(&set_actor_z_angle,dwRetID,fRotation);

	cvtss2sd xmm0, DWORD PTR _fRotation$[ebp]
	sub	esp, 8
	movsd	QWORD PTR [esp], xmm0
	mov	eax, DWORD PTR _dwRetID$[ebp]
	push	eax
	push	OFFSET _set_actor_z_angle
	call	?ScriptCommand@@YAHPBUSCRIPT_COMMAND@@ZZ ; ScriptCommand
	add	esp, 16					; 00000010H

; 759  : 	pChatWindow->AddDebugMessage("New Actor: 0x%X\n",GamePool_Ped_GetAt(dwRetID));

	mov	eax, DWORD PTR _dwRetID$[ebp]
	push	eax
	call	?GamePool_Ped_GetAt@@YGPAU_PED_TYPE@@H@Z ; GamePool_Ped_GetAt
	push	eax
	push	OFFSET ??_C@_0BB@KPACBPNC@New?5Actor?3?50x?$CFX?6?$AA@
	mov	ecx, DWORD PTR ?pChatWindow@@3PAVCChatWindow@@A ; pChatWindow
	push	ecx
	call	?AddDebugMessage@CChatWindow@@QAAXPADZZ	; CChatWindow::AddDebugMessage
	add	esp, 12					; 0000000cH

; 760  : 	return dwRetID;

	mov	eax, DWORD PTR _dwRetID$[ebp]

; 761  : }

	push	edx
	mov	ecx, ebp
	push	eax
	lea	edx, DWORD PTR $LN7@MyCreateAc
	call	@_RTC_CheckStackVars@8
	pop	eax
	pop	edx
	pop	edi
	pop	esi
	pop	ebx
	add	esp, 204				; 000000ccH
	cmp	ebp, esp
	call	__RTC_CheckEsp
	mov	esp, ebp
	pop	ebp
	ret	0
$LN7@MyCreateAc:
	DD	1
	DD	$LN6@MyCreateAc
$LN6@MyCreateAc:
	DD	-8					; fffffff8H
	DD	4
	DD	$LN5@MyCreateAc
$LN5@MyCreateAc:
	DB	100					; 00000064H
	DB	119					; 00000077H
	DB	82					; 00000052H
	DB	101					; 00000065H
	DB	116					; 00000074H
	DB	73					; 00000049H
	DB	68					; 00000044H
	DB	0
?MyCreateActor@@YAKHMMMM@Z ENDP				; MyCreateActor
_TEXT	ENDS
; Function compile flags: /Odtp /RTCsu /ZI
; File z:\sampsrc\02xu1\saco\cmdprocs.cpp
;	COMDAT ?cmdSay@@YAXPAD@Z
_TEXT	SEGMENT
_dwPlayerPed1$ = -20					; size = 4
_iSay$ = -8						; size = 4
_szCmd$ = 8						; size = 4
?cmdSay@@YAXPAD@Z PROC					; cmdSay, COMDAT

; 734  : {

	push	ebp
	mov	ebp, esp
	sub	esp, 216				; 000000d8H
	push	ebx
	push	esi
	push	edi
	lea	edi, DWORD PTR [ebp-216]
	mov	ecx, 54					; 00000036H
	mov	eax, -858993460				; ccccccccH
	rep stosd

; 735  : 	int iSay = atoi(szCmd);

	mov	eax, DWORD PTR _szCmd$[ebp]
	push	eax
	call	_atoi
	add	esp, 4
	mov	DWORD PTR _iSay$[ebp], eax

; 736  : 	BYTE * dwPlayerPed1 = (BYTE *)GamePool_FindPlayerPed();

	call	?GamePool_FindPlayerPed@@YGPAU_PED_TYPE@@XZ ; GamePool_FindPlayerPed
	mov	DWORD PTR _dwPlayerPed1$[ebp], eax

; 737  : 
; 738  : 	_asm push 0

	push	0

; 739  : 	_asm push 0

	push	0

; 740  : 	_asm push 0

	push	0

; 741  : 	_asm push 0x3F800000

	push	1065353216				; 3f800000H

; 742  : 	_asm push 0

	push	0

; 743  : 	_asm push iSay

	push	DWORD PTR _iSay$[ebp]

; 744  : 	_asm mov ecx, dwPlayerPed1

	mov	ecx, DWORD PTR _dwPlayerPed1$[ebp]

; 745  : 	_asm mov ebx, 0x5EFFE0

	mov	ebx, 6225888				; 005effe0H

; 746  : 	_asm call ebx

	call	ebx

; 747  : }

	pop	edi
	pop	esi
	pop	ebx
	add	esp, 216				; 000000d8H
	cmp	ebp, esp
	call	__RTC_CheckEsp
	mov	esp, ebp
	pop	ebp
	ret	0
?cmdSay@@YAXPAD@Z ENDP					; cmdSay
_TEXT	ENDS
; Function compile flags: /Odtp /RTCsu /ZI
; File z:\sampsrc\02xu1\saco\cmdprocs.cpp
;	COMDAT ?cmdVehicleSyncTest@@YAXPAD@Z
_TEXT	SEGMENT
_szCmd$ = 8						; size = 4
?cmdVehicleSyncTest@@YAXPAD@Z PROC			; cmdVehicleSyncTest, COMDAT

; 727  : {

	push	ebp
	mov	ebp, esp
	sub	esp, 192				; 000000c0H
	push	ebx
	push	esi
	push	edi
	lea	edi, DWORD PTR [ebp-192]
	mov	ecx, 48					; 00000030H
	mov	eax, -858993460				; ccccccccH
	rep stosd

; 728  : 	GameDebugEntity(0,0,7);

	push	7
	push	0
	push	0
	call	?GameDebugEntity@@YAXKKH@Z		; GameDebugEntity
	add	esp, 12					; 0000000cH

; 729  : }

	pop	edi
	pop	esi
	pop	ebx
	add	esp, 192				; 000000c0H
	cmp	ebp, esp
	call	__RTC_CheckEsp
	mov	esp, ebp
	pop	ebp
	ret	0
?cmdVehicleSyncTest@@YAXPAD@Z ENDP			; cmdVehicleSyncTest
_TEXT	ENDS
; Function compile flags: /Odtp /RTCsu /ZI
; File z:\sampsrc\02xu1\saco\cmdprocs.cpp
;	COMDAT ?cmdPlayerAddr@@YAXPAD@Z
_TEXT	SEGMENT
_iActor$ = -8						; size = 4
_szCmd$ = 8						; size = 4
?cmdPlayerAddr@@YAXPAD@Z PROC				; cmdPlayerAddr, COMDAT

; 713  : {

	push	ebp
	mov	ebp, esp
	sub	esp, 204				; 000000ccH
	push	ebx
	push	esi
	push	edi
	lea	edi, DWORD PTR [ebp-204]
	mov	ecx, 51					; 00000033H
	mov	eax, -858993460				; ccccccccH
	rep stosd

; 714  : 	int iActor=0;

	mov	DWORD PTR _iActor$[ebp], 0

; 715  : 	sscanf(szCmd,"%d",&iActor);

	lea	eax, DWORD PTR _iActor$[ebp]
	push	eax
	push	OFFSET ??_C@_02DPKJAMEF@?$CFd?$AA@
	mov	ecx, DWORD PTR _szCmd$[ebp]
	push	ecx
	call	_sscanf
	add	esp, 12					; 0000000cH

; 716  : 
; 717  : 	if(iActor==0) {

	cmp	DWORD PTR _iActor$[ebp], 0
	jne	SHORT $LN2@cmdPlayerA

; 718  : 		pChatWindow->AddDebugMessage("0x%X",GamePool_FindPlayerPed());

	call	?GamePool_FindPlayerPed@@YGPAU_PED_TYPE@@XZ ; GamePool_FindPlayerPed
	push	eax
	push	OFFSET ??_C@_04HKJDGLEA@0x?$CFX?$AA@
	mov	eax, DWORD PTR ?pChatWindow@@3PAVCChatWindow@@A ; pChatWindow
	push	eax
	call	?AddDebugMessage@CChatWindow@@QAAXPADZZ	; CChatWindow::AddDebugMessage
	add	esp, 12					; 0000000cH

; 719  : 	} else {

	jmp	SHORT $LN3@cmdPlayerA
$LN2@cmdPlayerA:

; 720  : 		pChatWindow->AddDebugMessage("0x%X",GamePool_Ped_GetAt(iActor));

	mov	eax, DWORD PTR _iActor$[ebp]
	push	eax
	call	?GamePool_Ped_GetAt@@YGPAU_PED_TYPE@@H@Z ; GamePool_Ped_GetAt
	push	eax
	push	OFFSET ??_C@_04HKJDGLEA@0x?$CFX?$AA@
	mov	ecx, DWORD PTR ?pChatWindow@@3PAVCChatWindow@@A ; pChatWindow
	push	ecx
	call	?AddDebugMessage@CChatWindow@@QAAXPADZZ	; CChatWindow::AddDebugMessage
	add	esp, 12					; 0000000cH
$LN3@cmdPlayerA:

; 721  : 	}
; 722  : }

	push	edx
	mov	ecx, ebp
	push	eax
	lea	edx, DWORD PTR $LN7@cmdPlayerA
	call	@_RTC_CheckStackVars@8
	pop	eax
	pop	edx
	pop	edi
	pop	esi
	pop	ebx
	add	esp, 204				; 000000ccH
	cmp	ebp, esp
	call	__RTC_CheckEsp
	mov	esp, ebp
	pop	ebp
	ret	0
	npad	2
$LN7@cmdPlayerA:
	DD	1
	DD	$LN6@cmdPlayerA
$LN6@cmdPlayerA:
	DD	-8					; fffffff8H
	DD	4
	DD	$LN5@cmdPlayerA
$LN5@cmdPlayerA:
	DB	105					; 00000069H
	DB	65					; 00000041H
	DB	99					; 00000063H
	DB	116					; 00000074H
	DB	111					; 0000006fH
	DB	114					; 00000072H
	DB	0
?cmdPlayerAddr@@YAXPAD@Z ENDP				; cmdPlayerAddr
_TEXT	ENDS
; Function compile flags: /Odtp /RTCsu /ZI
; File z:\sampsrc\02xu1\saco\cmdprocs.cpp
;	COMDAT ?cmdRemotePlayerRespawn@@YAXPAD@Z
_TEXT	SEGMENT
_vecPos$1 = -104					; size = 12
_matPlayer$2 = -84					; size = 64
_pPlayer$ = -12						; size = 4
__$ArrayPad$ = -4					; size = 4
_szCmd$ = 8						; size = 4
?cmdRemotePlayerRespawn@@YAXPAD@Z PROC			; cmdRemotePlayerRespawn, COMDAT

; 693  : {

	push	ebp
	mov	ebp, esp
	sub	esp, 300				; 0000012cH
	push	ebx
	push	esi
	push	edi
	lea	edi, DWORD PTR [ebp-300]
	mov	ecx, 75					; 0000004bH
	mov	eax, -858993460				; ccccccccH
	rep stosd
	mov	eax, DWORD PTR ___security_cookie
	xor	eax, ebp
	mov	DWORD PTR __$ArrayPad$[ebp], eax

; 694  : 	CPlayerPed *pPlayer = pGame->FindPlayerPed();

	mov	ecx, DWORD PTR ?pGame@@3PAVCGame@@A	; pGame
	call	?FindPlayerPed@CGame@@QAEPAVCPlayerPed@@XZ ; CGame::FindPlayerPed
	mov	DWORD PTR _pPlayer$[ebp], eax

; 695  : 
; 696  : 	if(pPlayer)

	cmp	DWORD PTR _pPlayer$[ebp], 0
	je	SHORT $LN1@cmdRemoteP

; 697  : 	{
; 698  : 		MATRIX4X4 matPlayer;
; 699  : 		pPlayer->GetMatrix(&matPlayer);

	lea	eax, DWORD PTR _matPlayer$2[ebp]
	push	eax
	mov	ecx, DWORD PTR _pPlayer$[ebp]
	call	?GetMatrix@CEntity@@QAEXPAU_MATRIX4X4@@@Z ; CEntity::GetMatrix

; 700  : 
; 701  : 		VECTOR vecPos;
; 702  : 		vecPos.X = matPlayer.pos.X - 10.0f;

	movss	xmm0, DWORD PTR _matPlayer$2[ebp+48]
	subss	xmm0, DWORD PTR __real@41200000
	movss	DWORD PTR _vecPos$1[ebp], xmm0

; 703  : 		vecPos.Y = matPlayer.pos.Y - 10.0f;

	movss	xmm0, DWORD PTR _matPlayer$2[ebp+52]
	subss	xmm0, DWORD PTR __real@41200000
	movss	DWORD PTR _vecPos$1[ebp+4], xmm0

; 704  : 		vecPos.Z = matPlayer.pos.Z;

	movss	xmm0, DWORD PTR _matPlayer$2[ebp+56]
	movss	DWORD PTR _vecPos$1[ebp+8], xmm0
$LN1@cmdRemoteP:

; 705  : 
; 706  : 		//pTestPlayer->SpawnPlayer((BYTE)1+190,&vecPos,0.0f,0,25,100,-1,-1,-1,-1);
; 707  : 	}
; 708  : }

	push	edx
	mov	ecx, ebp
	push	eax
	lea	edx, DWORD PTR $LN7@cmdRemoteP
	call	@_RTC_CheckStackVars@8
	pop	eax
	pop	edx
	pop	edi
	pop	esi
	pop	ebx
	mov	ecx, DWORD PTR __$ArrayPad$[ebp]
	xor	ecx, ebp
	call	@__security_check_cookie@4
	add	esp, 300				; 0000012cH
	cmp	ebp, esp
	call	__RTC_CheckEsp
	mov	esp, ebp
	pop	ebp
	ret	0
	npad	3
$LN7@cmdRemoteP:
	DD	2
	DD	$LN6@cmdRemoteP
$LN6@cmdRemoteP:
	DD	-84					; ffffffacH
	DD	64					; 00000040H
	DD	$LN4@cmdRemoteP
	DD	-104					; ffffff98H
	DD	12					; 0000000cH
	DD	$LN5@cmdRemoteP
$LN5@cmdRemoteP:
	DB	118					; 00000076H
	DB	101					; 00000065H
	DB	99					; 00000063H
	DB	80					; 00000050H
	DB	111					; 0000006fH
	DB	115					; 00000073H
	DB	0
$LN4@cmdRemoteP:
	DB	109					; 0000006dH
	DB	97					; 00000061H
	DB	116					; 00000074H
	DB	80					; 00000050H
	DB	108					; 0000006cH
	DB	97					; 00000061H
	DB	121					; 00000079H
	DB	101					; 00000065H
	DB	114					; 00000072H
	DB	0
?cmdRemotePlayerRespawn@@YAXPAD@Z ENDP			; cmdRemotePlayerRespawn
_TEXT	ENDS
; Function compile flags: /Odtp /RTCsu /ZI
; File z:\sampsrc\02xu1\saco\cmdprocs.cpp
;	COMDAT ?cmdRemotePlayer@@YAXPAD@Z
_TEXT	SEGMENT
tv130 = -328						; size = 4
_pRemotePlayer$1 = -128					; size = 4
_vecPos$2 = -116					; size = 12
_matPlayer$3 = -96					; size = 64
_pPlayer$4 = -24					; size = 4
_pPlayerPool$5 = -12					; size = 4
__$ArrayPad$ = -4					; size = 4
_szCmd$ = 8						; size = 4
?cmdRemotePlayer@@YAXPAD@Z PROC				; cmdRemotePlayer, COMDAT

; 663  : {

	push	ebp
	mov	ebp, esp
	sub	esp, 328				; 00000148H
	push	ebx
	push	esi
	push	edi
	lea	edi, DWORD PTR [ebp-328]
	mov	ecx, 82					; 00000052H
	mov	eax, -858993460				; ccccccccH
	rep stosd
	mov	eax, DWORD PTR ___security_cookie
	xor	eax, ebp
	mov	DWORD PTR __$ArrayPad$[ebp], eax

; 664  : 	if(pNetGame) {		

	cmp	DWORD PTR ?pNetGame@@3PAVCNetGame@@A, 0	; pNetGame
	je	$LN1@cmdRemoteP

; 665  : 		CPlayerPool *pPlayerPool = pNetGame->GetPlayerPool();

	mov	ecx, DWORD PTR ?pNetGame@@3PAVCNetGame@@A ; pNetGame
	call	?GetPlayerPool@CNetGame@@QAEPAVCPlayerPool@@XZ ; CNetGame::GetPlayerPool
	mov	DWORD PTR _pPlayerPool$5[ebp], eax

; 666  : 		CPlayerPed *pPlayer = pGame->FindPlayerPed();

	mov	ecx, DWORD PTR ?pGame@@3PAVCGame@@A	; pGame
	call	?FindPlayerPed@CGame@@QAEPAVCPlayerPed@@XZ ; CGame::FindPlayerPed
	mov	DWORD PTR _pPlayer$4[ebp], eax

; 667  : 
; 668  : 		MATRIX4X4 matPlayer;
; 669  : 		pPlayer->GetMatrix(&matPlayer);

	lea	eax, DWORD PTR _matPlayer$3[ebp]
	push	eax
	mov	ecx, DWORD PTR _pPlayer$4[ebp]
	call	?GetMatrix@CEntity@@QAEXPAU_MATRIX4X4@@@Z ; CEntity::GetMatrix

; 670  : 
; 671  : 		VECTOR vecPos;
; 672  : 		vecPos.X = matPlayer.pos.X - 5.0f;

	movss	xmm0, DWORD PTR _matPlayer$3[ebp+48]
	subss	xmm0, DWORD PTR __real@40a00000
	movss	DWORD PTR _vecPos$2[ebp], xmm0

; 673  : 		vecPos.Y = matPlayer.pos.Y - 5.0f;

	movss	xmm0, DWORD PTR _matPlayer$3[ebp+52]
	subss	xmm0, DWORD PTR __real@40a00000
	movss	DWORD PTR _vecPos$2[ebp+4], xmm0

; 674  : 		vecPos.Z = matPlayer.pos.Z;

	movss	xmm0, DWORD PTR _matPlayer$3[ebp+56]
	movss	DWORD PTR _vecPos$2[ebp+8], xmm0
$LN2@cmdRemoteP:

; 675  : 
; 676  : 		while(iCurrentPlayerTest != 10) {

	cmp	DWORD PTR ?iCurrentPlayerTest@@3HA, 10	; iCurrentPlayerTest, 0000000aH
	je	$LN1@cmdRemoteP

; 677  : 			pPlayerPool->New(iCurrentPlayerTest,"TestPlayer");

	push	OFFSET ??_C@_0L@DHHGMKDJ@TestPlayer?$AA@
	movzx	eax, BYTE PTR ?iCurrentPlayerTest@@3HA
	push	eax
	mov	ecx, DWORD PTR _pPlayerPool$5[ebp]
	call	?New@CPlayerPool@@QAEHEPAD@Z		; CPlayerPool::New

; 678  : 			CRemotePlayer *pRemotePlayer = pPlayerPool->GetAt((BYTE)iCurrentPlayerTest);

	movzx	eax, BYTE PTR ?iCurrentPlayerTest@@3HA
	push	eax
	mov	ecx, DWORD PTR _pPlayerPool$5[ebp]
	call	?GetAt@CPlayerPool@@QAEPAVCRemotePlayer@@E@Z ; CPlayerPool::GetAt
	mov	DWORD PTR _pRemotePlayer$1[ebp], eax

; 679  : 			pRemotePlayer->Spawn(255,50,&vecPos,0.0f,0);

	push	0
	push	ecx
	movss	xmm0, DWORD PTR __real@00000000
	movss	DWORD PTR [esp], xmm0
	lea	eax, DWORD PTR _vecPos$2[ebp]
	push	eax
	push	50					; 00000032H
	push	255					; 000000ffH
	mov	ecx, DWORD PTR _pRemotePlayer$1[ebp]
	call	?Spawn@CRemotePlayer@@QAEHEHPAU_VECTOR@@MK@Z ; CRemotePlayer::Spawn

; 680  : 			//pRemotePlayer->Say("kick me coz I'm lame");
; 681  : 			vecPos.X += 1.0f;

	movss	xmm0, DWORD PTR _vecPos$2[ebp]
	addss	xmm0, DWORD PTR __real@3f800000
	movss	DWORD PTR _vecPos$2[ebp], xmm0

; 682  : 			pRemotePlayer->GetPlayerPed()->Remove();

	mov	ecx, DWORD PTR _pRemotePlayer$1[ebp]
	call	?GetPlayerPed@CRemotePlayer@@QAEPAVCPlayerPed@@XZ ; CRemotePlayer::GetPlayerPed
	mov	DWORD PTR tv130[ebp], eax
	mov	eax, DWORD PTR tv130[ebp]
	mov	edx, DWORD PTR [eax]
	mov	esi, esp
	mov	ecx, DWORD PTR tv130[ebp]
	mov	eax, DWORD PTR [edx+8]
	call	eax
	cmp	esi, esp
	call	__RTC_CheckEsp

; 683  : 			pTestPlayer = pRemotePlayer;

	mov	eax, DWORD PTR _pRemotePlayer$1[ebp]
	mov	DWORD PTR ?pTestPlayer@@3PAVCRemotePlayer@@A, eax ; pTestPlayer

; 684  : 			pChatWindow->AddDebugMessage("Created Player: %u\n",iCurrentPlayerTest);

	mov	eax, DWORD PTR ?iCurrentPlayerTest@@3HA	; iCurrentPlayerTest
	push	eax
	push	OFFSET ??_C@_0BE@HBOHGJLO@Created?5Player?3?5?$CFu?6?$AA@
	mov	ecx, DWORD PTR ?pChatWindow@@3PAVCChatWindow@@A ; pChatWindow
	push	ecx
	call	?AddDebugMessage@CChatWindow@@QAAXPADZZ	; CChatWindow::AddDebugMessage
	add	esp, 12					; 0000000cH

; 685  : 			iCurrentPlayerTest++;

	mov	eax, DWORD PTR ?iCurrentPlayerTest@@3HA	; iCurrentPlayerTest
	add	eax, 1
	mov	DWORD PTR ?iCurrentPlayerTest@@3HA, eax	; iCurrentPlayerTest

; 686  : 		}

	jmp	$LN2@cmdRemoteP
$LN1@cmdRemoteP:

; 687  : 	}
; 688  : }

	push	edx
	mov	ecx, ebp
	push	eax
	lea	edx, DWORD PTR $LN9@cmdRemoteP
	call	@_RTC_CheckStackVars@8
	pop	eax
	pop	edx
	pop	edi
	pop	esi
	pop	ebx
	mov	ecx, DWORD PTR __$ArrayPad$[ebp]
	xor	ecx, ebp
	call	@__security_check_cookie@4
	add	esp, 328				; 00000148H
	cmp	ebp, esp
	call	__RTC_CheckEsp
	mov	esp, ebp
	pop	ebp
	ret	0
	npad	2
$LN9@cmdRemoteP:
	DD	2
	DD	$LN8@cmdRemoteP
$LN8@cmdRemoteP:
	DD	-96					; ffffffa0H
	DD	64					; 00000040H
	DD	$LN6@cmdRemoteP
	DD	-116					; ffffff8cH
	DD	12					; 0000000cH
	DD	$LN7@cmdRemoteP
$LN7@cmdRemoteP:
	DB	118					; 00000076H
	DB	101					; 00000065H
	DB	99					; 00000063H
	DB	80					; 00000050H
	DB	111					; 0000006fH
	DB	115					; 00000073H
	DB	0
$LN6@cmdRemoteP:
	DB	109					; 0000006dH
	DB	97					; 00000061H
	DB	116					; 00000074H
	DB	80					; 00000050H
	DB	108					; 0000006cH
	DB	97					; 00000061H
	DB	121					; 00000079H
	DB	101					; 00000065H
	DB	114					; 00000072H
	DB	0
?cmdRemotePlayer@@YAXPAD@Z ENDP				; cmdRemotePlayer
_TEXT	ENDS
; Function compile flags: /Odtp /RTCsu /ZI
; File z:\sampsrc\02xu1\saco\cmdprocs.cpp
;	COMDAT ?cmdSetTime@@YAXPAD@Z
_TEXT	SEGMENT
_iMinute$ = -20						; size = 4
_iHour$ = -8						; size = 4
_szCmd$ = 8						; size = 4
?cmdSetTime@@YAXPAD@Z PROC				; cmdSetTime, COMDAT

; 642  : {

	push	ebp
	mov	ebp, esp
	sub	esp, 216				; 000000d8H
	push	ebx
	push	esi
	push	edi
	lea	edi, DWORD PTR [ebp-216]
	mov	ecx, 54					; 00000036H
	mov	eax, -858993460				; ccccccccH
	rep stosd

; 643  : 	if(!strlen(szCmd)){

	mov	eax, DWORD PTR _szCmd$[ebp]
	push	eax
	call	_strlen
	add	esp, 4
	test	eax, eax
	jne	SHORT $LN3@cmdSetTime

; 644  : 		pChatWindow->AddDebugMessage("Usage: set_time (hour) (minute)");

	push	OFFSET ??_C@_0CA@FOPIPEFN@Usage?3?5set_time?5?$CIhour?$CJ?5?$CIminute?$CJ?$AA@
	mov	eax, DWORD PTR ?pChatWindow@@3PAVCChatWindow@@A ; pChatWindow
	push	eax
	call	?AddDebugMessage@CChatWindow@@QAAXPADZZ	; CChatWindow::AddDebugMessage
	add	esp, 8

; 645  : 		return;

	jmp	SHORT $LN4@cmdSetTime
$LN3@cmdSetTime:

; 646  : 	}
; 647  : 		
; 648  : 	int	iHour=0,iMinute=0;

	mov	DWORD PTR _iHour$[ebp], 0
	mov	DWORD PTR _iMinute$[ebp], 0

; 649  : 
; 650  : 	sscanf(szCmd,"%d%d",&iHour,&iMinute);

	lea	eax, DWORD PTR _iMinute$[ebp]
	push	eax
	lea	ecx, DWORD PTR _iHour$[ebp]
	push	ecx
	push	OFFSET ??_C@_04LLKPOCGK@?$CFd?$CFd?$AA@
	mov	edx, DWORD PTR _szCmd$[ebp]
	push	edx
	call	_sscanf
	add	esp, 16					; 00000010H

; 651  : 
; 652  : 	if ((iHour >= 0 && iHour <= 23) && (iMinute >= 0 && iMinute <= 59)) {

	cmp	DWORD PTR _iHour$[ebp], 0
	jl	SHORT $LN2@cmdSetTime
	cmp	DWORD PTR _iHour$[ebp], 23		; 00000017H
	jg	SHORT $LN2@cmdSetTime
	cmp	DWORD PTR _iMinute$[ebp], 0
	jl	SHORT $LN2@cmdSetTime
	cmp	DWORD PTR _iMinute$[ebp], 59		; 0000003bH
	jg	SHORT $LN2@cmdSetTime

; 653  : 		pGame->SetWorldTime(iHour,iMinute);

	mov	eax, DWORD PTR _iMinute$[ebp]
	push	eax
	mov	ecx, DWORD PTR _iHour$[ebp]
	push	ecx
	mov	ecx, DWORD PTR ?pGame@@3PAVCGame@@A	; pGame
	call	?SetWorldTime@CGame@@QAEXHH@Z		; CGame::SetWorldTime

; 654  : 	}
; 655  : 	else {

	jmp	SHORT $LN4@cmdSetTime
$LN2@cmdSetTime:

; 656  : 		pChatWindow->AddDebugMessage("Invalid Time. Use /set_time (hour 0-23) (minute 0-59)");

	push	OFFSET ??_C@_0DG@FPAFDDMN@Invalid?5Time?4?5Use?5?1set_time?5?$CIhou@
	mov	eax, DWORD PTR ?pChatWindow@@3PAVCChatWindow@@A ; pChatWindow
	push	eax
	call	?AddDebugMessage@CChatWindow@@QAAXPADZZ	; CChatWindow::AddDebugMessage
	add	esp, 8
$LN4@cmdSetTime:

; 657  : 	}
; 658  : }

	push	edx
	mov	ecx, ebp
	push	eax
	lea	edx, DWORD PTR $LN9@cmdSetTime
	call	@_RTC_CheckStackVars@8
	pop	eax
	pop	edx
	pop	edi
	pop	esi
	pop	ebx
	add	esp, 216				; 000000d8H
	cmp	ebp, esp
	call	__RTC_CheckEsp
	mov	esp, ebp
	pop	ebp
	ret	0
	npad	1
$LN9@cmdSetTime:
	DD	2
	DD	$LN8@cmdSetTime
$LN8@cmdSetTime:
	DD	-8					; fffffff8H
	DD	4
	DD	$LN6@cmdSetTime
	DD	-20					; ffffffecH
	DD	4
	DD	$LN7@cmdSetTime
$LN7@cmdSetTime:
	DB	105					; 00000069H
	DB	77					; 0000004dH
	DB	105					; 00000069H
	DB	110					; 0000006eH
	DB	117					; 00000075H
	DB	116					; 00000074H
	DB	101					; 00000065H
	DB	0
$LN6@cmdSetTime:
	DB	105					; 00000069H
	DB	72					; 00000048H
	DB	111					; 0000006fH
	DB	117					; 00000075H
	DB	114					; 00000072H
	DB	0
?cmdSetTime@@YAXPAD@Z ENDP				; cmdSetTime
_TEXT	ENDS
; Function compile flags: /Odtp /RTCsu /ZI
; File z:\sampsrc\02xu1\saco\cmdprocs.cpp
;	COMDAT ?cmdSetWeather@@YAXPAD@Z
_TEXT	SEGMENT
_iWeatherID$ = -8					; size = 4
_szCmd$ = 8						; size = 4
?cmdSetWeather@@YAXPAD@Z PROC				; cmdSetWeather, COMDAT

; 630  : {

	push	ebp
	mov	ebp, esp
	sub	esp, 204				; 000000ccH
	push	ebx
	push	esi
	push	edi
	lea	edi, DWORD PTR [ebp-204]
	mov	ecx, 51					; 00000033H
	mov	eax, -858993460				; ccccccccH
	rep stosd

; 631  : 	if(!strlen(szCmd)){

	mov	eax, DWORD PTR _szCmd$[ebp]
	push	eax
	call	_strlen
	add	esp, 4
	test	eax, eax
	jne	SHORT $LN1@cmdSetWeat

; 632  : 		pChatWindow->AddDebugMessage("Usage: set_weather (weather number)");

	push	OFFSET ??_C@_0CE@MBMGEPG@Usage?3?5set_weather?5?$CIweather?5numb@
	mov	eax, DWORD PTR ?pChatWindow@@3PAVCChatWindow@@A ; pChatWindow
	push	eax
	call	?AddDebugMessage@CChatWindow@@QAAXPADZZ	; CChatWindow::AddDebugMessage
	add	esp, 8

; 633  : 		return;

	jmp	SHORT $LN2@cmdSetWeat
$LN1@cmdSetWeat:

; 634  : 	}	
; 635  : 	int iWeatherID = atoi(szCmd);

	mov	eax, DWORD PTR _szCmd$[ebp]
	push	eax
	call	_atoi
	add	esp, 4
	mov	DWORD PTR _iWeatherID$[ebp], eax

; 636  : 	pGame->SetWorldWeather(iWeatherID);

	mov	eax, DWORD PTR _iWeatherID$[ebp]
	push	eax
	mov	ecx, DWORD PTR ?pGame@@3PAVCGame@@A	; pGame
	call	?SetWorldWeather@CGame@@QAEXH@Z		; CGame::SetWorldWeather
$LN2@cmdSetWeat:

; 637  : }

	pop	edi
	pop	esi
	pop	ebx
	add	esp, 204				; 000000ccH
	cmp	ebp, esp
	call	__RTC_CheckEsp
	mov	esp, ebp
	pop	ebp
	ret	0
?cmdSetWeather@@YAXPAD@Z ENDP				; cmdSetWeather
_TEXT	ENDS
; Function compile flags: /Odtp /RTCsu /ZI
; File z:\sampsrc\02xu1\saco\cmdprocs.cpp
;	COMDAT ?cmdDisplayMemoryAsc@@YAXPAD@Z
_TEXT	SEGMENT
_dwDebugOffset$ = -20					; size = 4
_dwDebugAddr$ = -8					; size = 4
_szCmd$ = 8						; size = 4
?cmdDisplayMemoryAsc@@YAXPAD@Z PROC			; cmdDisplayMemoryAsc, COMDAT

; 608  : {

	push	ebp
	mov	ebp, esp
	sub	esp, 216				; 000000d8H
	push	ebx
	push	esi
	push	edi
	lea	edi, DWORD PTR [ebp-216]
	mov	ecx, 54					; 00000036H
	mov	eax, -858993460				; ccccccccH
	rep stosd

; 609  : 	if(!strlen(szCmd)){

	mov	eax, DWORD PTR _szCmd$[ebp]
	push	eax
	call	_strlen
	add	esp, 4
	test	eax, eax
	jne	SHORT $LN2@cmdDisplay

; 610  : 		pChatWindow->AddDebugMessage("Usage: disp_mem_asc (debug address) (debug offset)");

	push	OFFSET ??_C@_0DD@ENEEEHOB@Usage?3?5disp_mem_asc?5?$CIdebug?5addre@
	mov	eax, DWORD PTR ?pChatWindow@@3PAVCChatWindow@@A ; pChatWindow
	push	eax
	call	?AddDebugMessage@CChatWindow@@QAAXPADZZ	; CChatWindow::AddDebugMessage
	add	esp, 8

; 611  : 		return;

	jmp	SHORT $LN3@cmdDisplay
$LN2@cmdDisplay:

; 612  : 	}	
; 613  : 	
; 614  : 	DWORD dwDebugAddr;
; 615  : 	DWORD dwDebugOffset;
; 616  : 
; 617  : 	sscanf(szCmd,"%X%u",&dwDebugAddr,&dwDebugOffset);

	lea	eax, DWORD PTR _dwDebugOffset$[ebp]
	push	eax
	lea	ecx, DWORD PTR _dwDebugAddr$[ebp]
	push	ecx
	push	OFFSET ??_C@_04FCILIGGD@?$CFX?$CFu?$AA@
	mov	edx, DWORD PTR _szCmd$[ebp]
	push	edx
	call	_sscanf
	add	esp, 16					; 00000010H

; 618  : 
; 619  : 	if(!dwDebugAddr) {

	cmp	DWORD PTR _dwDebugAddr$[ebp], 0
	jne	SHORT $LN1@cmdDisplay

; 620  : 		pChatWindow->AddDebugMessage("usage: /disp_mem_asc (Hex Address) (Decimal Offset)");

	push	OFFSET ??_C@_0DE@LMDAJBKE@usage?3?5?1disp_mem_asc?5?$CIHex?5Addres@
	mov	eax, DWORD PTR ?pChatWindow@@3PAVCChatWindow@@A ; pChatWindow
	push	eax
	call	?AddDebugMessage@CChatWindow@@QAAXPADZZ	; CChatWindow::AddDebugMessage
	add	esp, 8

; 621  : 		return;

	jmp	SHORT $LN3@cmdDisplay
$LN1@cmdDisplay:

; 622  : 	}
; 623  : 	
; 624  : 	GameDebugEntity(dwDebugAddr,dwDebugOffset,15);

	push	15					; 0000000fH
	mov	eax, DWORD PTR _dwDebugOffset$[ebp]
	push	eax
	mov	ecx, DWORD PTR _dwDebugAddr$[ebp]
	push	ecx
	call	?GameDebugEntity@@YAXKKH@Z		; GameDebugEntity
	add	esp, 12					; 0000000cH
$LN3@cmdDisplay:

; 625  : }

	push	edx
	mov	ecx, ebp
	push	eax
	lea	edx, DWORD PTR $LN8@cmdDisplay
	call	@_RTC_CheckStackVars@8
	pop	eax
	pop	edx
	pop	edi
	pop	esi
	pop	ebx
	add	esp, 216				; 000000d8H
	cmp	ebp, esp
	call	__RTC_CheckEsp
	mov	esp, ebp
	pop	ebp
	ret	0
	npad	2
$LN8@cmdDisplay:
	DD	2
	DD	$LN7@cmdDisplay
$LN7@cmdDisplay:
	DD	-8					; fffffff8H
	DD	4
	DD	$LN5@cmdDisplay
	DD	-20					; ffffffecH
	DD	4
	DD	$LN6@cmdDisplay
$LN6@cmdDisplay:
	DB	100					; 00000064H
	DB	119					; 00000077H
	DB	68					; 00000044H
	DB	101					; 00000065H
	DB	98					; 00000062H
	DB	117					; 00000075H
	DB	103					; 00000067H
	DB	79					; 0000004fH
	DB	102					; 00000066H
	DB	102					; 00000066H
	DB	115					; 00000073H
	DB	101					; 00000065H
	DB	116					; 00000074H
	DB	0
$LN5@cmdDisplay:
	DB	100					; 00000064H
	DB	119					; 00000077H
	DB	68					; 00000044H
	DB	101					; 00000065H
	DB	98					; 00000062H
	DB	117					; 00000075H
	DB	103					; 00000067H
	DB	65					; 00000041H
	DB	100					; 00000064H
	DB	100					; 00000064H
	DB	114					; 00000072H
	DB	0
?cmdDisplayMemoryAsc@@YAXPAD@Z ENDP			; cmdDisplayMemoryAsc
_TEXT	ENDS
; Function compile flags: /Odtp /RTCsu /ZI
; File z:\sampsrc\02xu1\saco\cmdprocs.cpp
;	COMDAT ?cmdDisplayMemory@@YAXPAD@Z
_TEXT	SEGMENT
_dwDebugOffset$ = -20					; size = 4
_dwDebugAddr$ = -8					; size = 4
_szCmd$ = 8						; size = 4
?cmdDisplayMemory@@YAXPAD@Z PROC			; cmdDisplayMemory, COMDAT

; 586  : {

	push	ebp
	mov	ebp, esp
	sub	esp, 216				; 000000d8H
	push	ebx
	push	esi
	push	edi
	lea	edi, DWORD PTR [ebp-216]
	mov	ecx, 54					; 00000036H
	mov	eax, -858993460				; ccccccccH
	rep stosd

; 587  : 	if(!strlen(szCmd)){

	mov	eax, DWORD PTR _szCmd$[ebp]
	push	eax
	call	_strlen
	add	esp, 4
	test	eax, eax
	jne	SHORT $LN2@cmdDisplay

; 588  : 		pChatWindow->AddDebugMessage("Usage: disp_mem (debug address) (debug offset)");

	push	OFFSET ??_C@_0CP@NDDHJKIA@Usage?3?5disp_mem?5?$CIdebug?5address?$CJ?5@
	mov	eax, DWORD PTR ?pChatWindow@@3PAVCChatWindow@@A ; pChatWindow
	push	eax
	call	?AddDebugMessage@CChatWindow@@QAAXPADZZ	; CChatWindow::AddDebugMessage
	add	esp, 8

; 589  : 		return;

	jmp	SHORT $LN3@cmdDisplay
$LN2@cmdDisplay:

; 590  : 	}	
; 591  : 	
; 592  : 	DWORD dwDebugAddr;
; 593  : 	DWORD dwDebugOffset;
; 594  : 
; 595  : 	sscanf(szCmd,"%X%u",&dwDebugAddr,&dwDebugOffset);

	lea	eax, DWORD PTR _dwDebugOffset$[ebp]
	push	eax
	lea	ecx, DWORD PTR _dwDebugAddr$[ebp]
	push	ecx
	push	OFFSET ??_C@_04FCILIGGD@?$CFX?$CFu?$AA@
	mov	edx, DWORD PTR _szCmd$[ebp]
	push	edx
	call	_sscanf
	add	esp, 16					; 00000010H

; 596  : 
; 597  : 	if(!dwDebugAddr) {

	cmp	DWORD PTR _dwDebugAddr$[ebp], 0
	jne	SHORT $LN1@cmdDisplay

; 598  : 		pChatWindow->AddDebugMessage("usage: /disp_mem (Hex Address) (Decimal Offset)");

	push	OFFSET ??_C@_0DA@FEENJLKN@usage?3?5?1disp_mem?5?$CIHex?5Address?$CJ?5?$CI@
	mov	eax, DWORD PTR ?pChatWindow@@3PAVCChatWindow@@A ; pChatWindow
	push	eax
	call	?AddDebugMessage@CChatWindow@@QAAXPADZZ	; CChatWindow::AddDebugMessage
	add	esp, 8

; 599  : 		return;

	jmp	SHORT $LN3@cmdDisplay
$LN1@cmdDisplay:

; 600  : 	}
; 601  : 	
; 602  : 	GameDebugEntity(dwDebugAddr,dwDebugOffset,5);

	push	5
	mov	eax, DWORD PTR _dwDebugOffset$[ebp]
	push	eax
	mov	ecx, DWORD PTR _dwDebugAddr$[ebp]
	push	ecx
	call	?GameDebugEntity@@YAXKKH@Z		; GameDebugEntity
	add	esp, 12					; 0000000cH
$LN3@cmdDisplay:

; 603  : }

	push	edx
	mov	ecx, ebp
	push	eax
	lea	edx, DWORD PTR $LN8@cmdDisplay
	call	@_RTC_CheckStackVars@8
	pop	eax
	pop	edx
	pop	edi
	pop	esi
	pop	ebx
	add	esp, 216				; 000000d8H
	cmp	ebp, esp
	call	__RTC_CheckEsp
	mov	esp, ebp
	pop	ebp
	ret	0
	npad	2
$LN8@cmdDisplay:
	DD	2
	DD	$LN7@cmdDisplay
$LN7@cmdDisplay:
	DD	-8					; fffffff8H
	DD	4
	DD	$LN5@cmdDisplay
	DD	-20					; ffffffecH
	DD	4
	DD	$LN6@cmdDisplay
$LN6@cmdDisplay:
	DB	100					; 00000064H
	DB	119					; 00000077H
	DB	68					; 00000044H
	DB	101					; 00000065H
	DB	98					; 00000062H
	DB	117					; 00000075H
	DB	103					; 00000067H
	DB	79					; 0000004fH
	DB	102					; 00000066H
	DB	102					; 00000066H
	DB	115					; 00000073H
	DB	101					; 00000065H
	DB	116					; 00000074H
	DB	0
$LN5@cmdDisplay:
	DB	100					; 00000064H
	DB	119					; 00000077H
	DB	68					; 00000044H
	DB	101					; 00000065H
	DB	98					; 00000062H
	DB	117					; 00000075H
	DB	103					; 00000067H
	DB	65					; 00000041H
	DB	100					; 00000064H
	DB	100					; 00000064H
	DB	114					; 00000072H
	DB	0
?cmdDisplayMemory@@YAXPAD@Z ENDP			; cmdDisplayMemory
_TEXT	ENDS
; Function compile flags: /Odtp /RTCsu /ZI
; File z:\sampsrc\02xu1\saco\cmdprocs.cpp
;	COMDAT ?cmdGiveActorWeapon@@YAXPAD@Z
_TEXT	SEGMENT
_iWeaponID$ = -8					; size = 4
_szCmd$ = 8						; size = 4
?cmdGiveActorWeapon@@YAXPAD@Z PROC			; cmdGiveActorWeapon, COMDAT

; 572  : {

	push	ebp
	mov	ebp, esp
	sub	esp, 204				; 000000ccH
	push	ebx
	push	esi
	push	edi
	lea	edi, DWORD PTR [ebp-204]
	mov	ecx, 51					; 00000033H
	mov	eax, -858993460				; ccccccccH
	rep stosd

; 573  : 	if(!strlen(szCmd)){

	mov	eax, DWORD PTR _szCmd$[ebp]
	push	eax
	call	_strlen
	add	esp, 4
	test	eax, eax
	jne	SHORT $LN1@cmdGiveAct

; 574  : 		pChatWindow->AddDebugMessage("Usage: give_weapon (actor number) (weapon number).");

	push	OFFSET ??_C@_0DD@NOCDPPKP@Usage?3?5give_weapon?5?$CIactor?5number@
	mov	eax, DWORD PTR ?pChatWindow@@3PAVCChatWindow@@A ; pChatWindow
	push	eax
	call	?AddDebugMessage@CChatWindow@@QAAXPADZZ	; CChatWindow::AddDebugMessage
	add	esp, 8

; 575  : 		return;

	jmp	SHORT $LN2@cmdGiveAct
$LN1@cmdGiveAct:

; 576  : 	}
; 577  : 
; 578  : 	int	 iWeaponID=0;

	mov	DWORD PTR _iWeaponID$[ebp], 0

; 579  : 	sscanf(szCmd,"%d",&iWeaponID);

	lea	eax, DWORD PTR _iWeaponID$[ebp]
	push	eax
	push	OFFSET ??_C@_02DPKJAMEF@?$CFd?$AA@
	mov	ecx, DWORD PTR _szCmd$[ebp]
	push	ecx
	call	_sscanf
	add	esp, 12					; 0000000cH

; 580  : 	pGame->FindPlayerPed()->GiveWeapon(iWeaponID,1000);

	push	1000					; 000003e8H
	mov	eax, DWORD PTR _iWeaponID$[ebp]
	push	eax
	mov	ecx, DWORD PTR ?pGame@@3PAVCGame@@A	; pGame
	call	?FindPlayerPed@CGame@@QAEPAVCPlayerPed@@XZ ; CGame::FindPlayerPed
	mov	ecx, eax
	call	?GiveWeapon@CPlayerPed@@QAEXHH@Z	; CPlayerPed::GiveWeapon
$LN2@cmdGiveAct:

; 581  : }

	push	edx
	mov	ecx, ebp
	push	eax
	lea	edx, DWORD PTR $LN6@cmdGiveAct
	call	@_RTC_CheckStackVars@8
	pop	eax
	pop	edx
	pop	edi
	pop	esi
	pop	ebx
	add	esp, 204				; 000000ccH
	cmp	ebp, esp
	call	__RTC_CheckEsp
	mov	esp, ebp
	pop	ebp
	ret	0
	npad	1
$LN6@cmdGiveAct:
	DD	1
	DD	$LN5@cmdGiveAct
$LN5@cmdGiveAct:
	DD	-8					; fffffff8H
	DD	4
	DD	$LN4@cmdGiveAct
$LN4@cmdGiveAct:
	DB	105					; 00000069H
	DB	87					; 00000057H
	DB	101					; 00000065H
	DB	97					; 00000061H
	DB	112					; 00000070H
	DB	111					; 0000006fH
	DB	110					; 0000006eH
	DB	73					; 00000049H
	DB	68					; 00000044H
	DB	0
?cmdGiveActorWeapon@@YAXPAD@Z ENDP			; cmdGiveActorWeapon
_TEXT	ENDS
; Function compile flags: /Odtp /RTCsu /ZI
; File z:\sampsrc\02xu1\saco\cmdprocs.cpp
;	COMDAT ?cmdPutActorInVehicle@@YAXPAD@Z
_TEXT	SEGMENT
_szCmd$ = 8						; size = 4
?cmdPutActorInVehicle@@YAXPAD@Z PROC			; cmdPutActorInVehicle, COMDAT

; 565  : {

	push	ebp
	mov	ebp, esp
	sub	esp, 192				; 000000c0H
	push	ebx
	push	esi
	push	edi
	lea	edi, DWORD PTR [ebp-192]
	mov	ecx, 48					; 00000030H
	mov	eax, -858993460				; ccccccccH
	rep stosd

; 566  : 
; 567  : }

	pop	edi
	pop	esi
	pop	ebx
	mov	esp, ebp
	pop	ebp
	ret	0
?cmdPutActorInVehicle@@YAXPAD@Z ENDP			; cmdPutActorInVehicle
_TEXT	ENDS
; Function compile flags: /Odtp /RTCsu /ZI
; File z:\sampsrc\02xu1\saco\cmdprocs.cpp
;	COMDAT ?cmdSetCameraPos@@YAXPAD@Z
_TEXT	SEGMENT
_fLookZ$ = -68						; size = 4
_fLookY$ = -56						; size = 4
_fLookX$ = -44						; size = 4
_fZ$ = -32						; size = 4
_fY$ = -20						; size = 4
_fX$ = -8						; size = 4
_szCmd$ = 8						; size = 4
?cmdSetCameraPos@@YAXPAD@Z PROC				; cmdSetCameraPos, COMDAT

; 549  : {

	push	ebp
	mov	ebp, esp
	sub	esp, 264				; 00000108H
	push	ebx
	push	esi
	push	edi
	lea	edi, DWORD PTR [ebp-264]
	mov	ecx, 66					; 00000042H
	mov	eax, -858993460				; ccccccccH
	rep stosd

; 550  : 	float fX,fY,fZ,fLookX,fLookY,fLookZ;
; 551  : 
; 552  : 	if(!strlen(szCmd)){

	mov	eax, DWORD PTR _szCmd$[ebp]
	push	eax
	call	_strlen
	add	esp, 4
	test	eax, eax
	jne	SHORT $LN1@cmdSetCame

; 553  : 		pChatWindow->AddDebugMessage("Usage: /set_camera_pos (x) (y) (x) (lookx) (looky) (lookz)");

	push	OFFSET ??_C@_0DL@CEFNHHBM@Usage?3?5?1set_camera_pos?5?$CIx?$CJ?5?$CIy?$CJ?5?$CI@
	mov	eax, DWORD PTR ?pChatWindow@@3PAVCChatWindow@@A ; pChatWindow
	push	eax
	call	?AddDebugMessage@CChatWindow@@QAAXPADZZ	; CChatWindow::AddDebugMessage
	add	esp, 8

; 554  : 		return;

	jmp	$LN2@cmdSetCame
$LN1@cmdSetCame:

; 555  : 	}
; 556  : 
; 557  : 	sscanf(szCmd,"%f%f%f%f%f%f",&fX,&fY,&fZ,&fLookX,&fLookY,&fLookZ);

	lea	eax, DWORD PTR _fLookZ$[ebp]
	push	eax
	lea	ecx, DWORD PTR _fLookY$[ebp]
	push	ecx
	lea	edx, DWORD PTR _fLookX$[ebp]
	push	edx
	lea	eax, DWORD PTR _fZ$[ebp]
	push	eax
	lea	ecx, DWORD PTR _fY$[ebp]
	push	ecx
	lea	edx, DWORD PTR _fX$[ebp]
	push	edx
	push	OFFSET ??_C@_0N@DFAAALPM@?$CFf?$CFf?$CFf?$CFf?$CFf?$CFf?$AA@
	mov	eax, DWORD PTR _szCmd$[ebp]
	push	eax
	call	_sscanf
	add	esp, 32					; 00000020H

; 558  : 	pGame->GetCamera()->SetPosition(fX,fY,fZ,0.0f,0.0f,0.0f);

	push	ecx
	movss	xmm0, DWORD PTR __real@00000000
	movss	DWORD PTR [esp], xmm0
	push	ecx
	movss	xmm0, DWORD PTR __real@00000000
	movss	DWORD PTR [esp], xmm0
	push	ecx
	movss	xmm0, DWORD PTR __real@00000000
	movss	DWORD PTR [esp], xmm0
	push	ecx
	movss	xmm0, DWORD PTR _fZ$[ebp]
	movss	DWORD PTR [esp], xmm0
	push	ecx
	movss	xmm0, DWORD PTR _fY$[ebp]
	movss	DWORD PTR [esp], xmm0
	push	ecx
	movss	xmm0, DWORD PTR _fX$[ebp]
	movss	DWORD PTR [esp], xmm0
	mov	ecx, DWORD PTR ?pGame@@3PAVCGame@@A	; pGame
	call	?GetCamera@CGame@@QAEPAVCCamera@@XZ	; CGame::GetCamera
	mov	ecx, eax
	call	?SetPosition@CCamera@@QAEXMMMMMM@Z	; CCamera::SetPosition

; 559  : 	pGame->GetCamera()->LookAtPoint(fLookX,fLookY,fLookZ,0);

	push	0
	push	ecx
	movss	xmm0, DWORD PTR _fLookZ$[ebp]
	movss	DWORD PTR [esp], xmm0
	push	ecx
	movss	xmm0, DWORD PTR _fLookY$[ebp]
	movss	DWORD PTR [esp], xmm0
	push	ecx
	movss	xmm0, DWORD PTR _fLookX$[ebp]
	movss	DWORD PTR [esp], xmm0
	mov	ecx, DWORD PTR ?pGame@@3PAVCGame@@A	; pGame
	call	?GetCamera@CGame@@QAEPAVCCamera@@XZ	; CGame::GetCamera
	mov	ecx, eax
	call	?LookAtPoint@CCamera@@QAEXMMMH@Z	; CCamera::LookAtPoint
$LN2@cmdSetCame:

; 560  : }

	push	edx
	mov	ecx, ebp
	push	eax
	lea	edx, DWORD PTR $LN11@cmdSetCame
	call	@_RTC_CheckStackVars@8
	pop	eax
	pop	edx
	pop	edi
	pop	esi
	pop	ebx
	add	esp, 264				; 00000108H
	cmp	ebp, esp
	call	__RTC_CheckEsp
	mov	esp, ebp
	pop	ebp
	ret	0
	npad	2
$LN11@cmdSetCame:
	DD	6
	DD	$LN10@cmdSetCame
$LN10@cmdSetCame:
	DD	-8					; fffffff8H
	DD	4
	DD	$LN4@cmdSetCame
	DD	-20					; ffffffecH
	DD	4
	DD	$LN5@cmdSetCame
	DD	-32					; ffffffe0H
	DD	4
	DD	$LN6@cmdSetCame
	DD	-44					; ffffffd4H
	DD	4
	DD	$LN7@cmdSetCame
	DD	-56					; ffffffc8H
	DD	4
	DD	$LN8@cmdSetCame
	DD	-68					; ffffffbcH
	DD	4
	DD	$LN9@cmdSetCame
$LN9@cmdSetCame:
	DB	102					; 00000066H
	DB	76					; 0000004cH
	DB	111					; 0000006fH
	DB	111					; 0000006fH
	DB	107					; 0000006bH
	DB	90					; 0000005aH
	DB	0
$LN8@cmdSetCame:
	DB	102					; 00000066H
	DB	76					; 0000004cH
	DB	111					; 0000006fH
	DB	111					; 0000006fH
	DB	107					; 0000006bH
	DB	89					; 00000059H
	DB	0
$LN7@cmdSetCame:
	DB	102					; 00000066H
	DB	76					; 0000004cH
	DB	111					; 0000006fH
	DB	111					; 0000006fH
	DB	107					; 0000006bH
	DB	88					; 00000058H
	DB	0
$LN6@cmdSetCame:
	DB	102					; 00000066H
	DB	90					; 0000005aH
	DB	0
$LN5@cmdSetCame:
	DB	102					; 00000066H
	DB	89					; 00000059H
	DB	0
$LN4@cmdSetCame:
	DB	102					; 00000066H
	DB	88					; 00000058H
	DB	0
?cmdSetCameraPos@@YAXPAD@Z ENDP				; cmdSetCameraPos
_TEXT	ENDS
; Function compile flags: /Odtp /RTCsu /ZI
; File z:\sampsrc\02xu1\saco\cmdprocs.cpp
;	COMDAT ?cmdDebugStop@@YAXPAD@Z
_TEXT	SEGMENT
_szCmd$ = 8						; size = 4
?cmdDebugStop@@YAXPAD@Z PROC				; cmdDebugStop, COMDAT

; 542  : {

	push	ebp
	mov	ebp, esp
	sub	esp, 192				; 000000c0H
	push	ebx
	push	esi
	push	edi
	lea	edi, DWORD PTR [ebp-192]
	mov	ecx, 48					; 00000030H
	mov	eax, -858993460				; ccccccccH
	rep stosd

; 543  : 	GameDebugScreensOff();

	call	?GameDebugScreensOff@@YAXXZ		; GameDebugScreensOff

; 544  : }

	pop	edi
	pop	esi
	pop	ebx
	add	esp, 192				; 000000c0H
	cmp	ebp, esp
	call	__RTC_CheckEsp
	mov	esp, ebp
	pop	ebp
	ret	0
?cmdDebugStop@@YAXPAD@Z ENDP				; cmdDebugStop
_TEXT	ENDS
; Function compile flags: /Odtp /RTCsu /ZI
; File z:\sampsrc\02xu1\saco\cmdprocs.cpp
;	COMDAT ?cmdPlayerVehicleDebug@@YAXPAD@Z
_TEXT	SEGMENT
_szCmd$ = 8						; size = 4
?cmdPlayerVehicleDebug@@YAXPAD@Z PROC			; cmdPlayerVehicleDebug, COMDAT

; 535  : {

	push	ebp
	mov	ebp, esp
	sub	esp, 192				; 000000c0H
	push	ebx
	push	esi
	push	edi
	lea	edi, DWORD PTR [ebp-192]
	mov	ecx, 48					; 00000030H
	mov	eax, -858993460				; ccccccccH
	rep stosd

; 536  : 	GameDebugEntity(0,0,3);

	push	3
	push	0
	push	0
	call	?GameDebugEntity@@YAXKKH@Z		; GameDebugEntity
	add	esp, 12					; 0000000cH

; 537  : }

	pop	edi
	pop	esi
	pop	ebx
	add	esp, 192				; 000000c0H
	cmp	ebp, esp
	call	__RTC_CheckEsp
	mov	esp, ebp
	pop	ebp
	ret	0
?cmdPlayerVehicleDebug@@YAXPAD@Z ENDP			; cmdPlayerVehicleDebug
_TEXT	ENDS
; Function compile flags: /Odtp /RTCsu /ZI
; File z:\sampsrc\02xu1\saco\cmdprocs.cpp
;	COMDAT ?cmdShowGameInterfaceDebug@@YAXPAD@Z
_TEXT	SEGMENT
_szCmd$ = 8						; size = 4
?cmdShowGameInterfaceDebug@@YAXPAD@Z PROC		; cmdShowGameInterfaceDebug, COMDAT

; 528  : {

	push	ebp
	mov	ebp, esp
	sub	esp, 192				; 000000c0H
	push	ebx
	push	esi
	push	edi
	lea	edi, DWORD PTR [ebp-192]
	mov	ecx, 48					; 00000030H
	mov	eax, -858993460				; ccccccccH
	rep stosd

; 529  : 	GameDebugEntity(0,0,6);

	push	6
	push	0
	push	0
	call	?GameDebugEntity@@YAXKKH@Z		; GameDebugEntity
	add	esp, 12					; 0000000cH

; 530  : }

	pop	edi
	pop	esi
	pop	ebx
	add	esp, 192				; 000000c0H
	cmp	ebp, esp
	call	__RTC_CheckEsp
	mov	esp, ebp
	pop	ebp
	ret	0
?cmdShowGameInterfaceDebug@@YAXPAD@Z ENDP		; cmdShowGameInterfaceDebug
_TEXT	ENDS
; Function compile flags: /Odtp /RTCsu /ZI
; File z:\sampsrc\02xu1\saco\cmdprocs.cpp
;	COMDAT ?cmdVehicleDebug@@YAXPAD@Z
_TEXT	SEGMENT
_iVehicle$ = -8						; size = 4
_szCmd$ = 8						; size = 4
?cmdVehicleDebug@@YAXPAD@Z PROC				; cmdVehicleDebug, COMDAT

; 514  : {

	push	ebp
	mov	ebp, esp
	sub	esp, 204				; 000000ccH
	push	ebx
	push	esi
	push	edi
	lea	edi, DWORD PTR [ebp-204]
	mov	ecx, 51					; 00000033H
	mov	eax, -858993460				; ccccccccH
	rep stosd

; 515  : 	if(!strlen(szCmd)){

	mov	eax, DWORD PTR _szCmd$[ebp]
	push	eax
	call	_strlen
	add	esp, 4
	test	eax, eax
	jne	SHORT $LN2@cmdVehicle

; 516  : 		pChatWindow->AddDebugMessage("Usage: /vehicle_debug (vehicle number).");

	push	OFFSET ??_C@_0CI@IBHKBAKE@Usage?3?5?1vehicle_debug?5?$CIvehicle?5n@
	mov	eax, DWORD PTR ?pChatWindow@@3PAVCChatWindow@@A ; pChatWindow
	push	eax
	call	?AddDebugMessage@CChatWindow@@QAAXPADZZ	; CChatWindow::AddDebugMessage
	add	esp, 8

; 517  : 		return;

	jmp	SHORT $LN3@cmdVehicle
$LN2@cmdVehicle:

; 518  : 	}
; 519  : 	
; 520  : 	int iVehicle = atoi(szCmd);

	mov	eax, DWORD PTR _szCmd$[ebp]
	push	eax
	call	_atoi
	add	esp, 4
	mov	DWORD PTR _iVehicle$[ebp], eax

; 521  : 	if(iVehicle < 3) pChatWindow->AddDebugMessage("Warning: vehicles below 3 are usually reserved.");

	cmp	DWORD PTR _iVehicle$[ebp], 3
	jge	SHORT $LN1@cmdVehicle
	push	OFFSET ??_C@_0DA@JJCPDCNG@Warning?3?5vehicles?5below?53?5are?5us@
	mov	eax, DWORD PTR ?pChatWindow@@3PAVCChatWindow@@A ; pChatWindow
	push	eax
	call	?AddDebugMessage@CChatWindow@@QAAXPADZZ	; CChatWindow::AddDebugMessage
	add	esp, 8
$LN1@cmdVehicle:

; 522  : 	GameDebugEntity(iVehicle,0,2);

	push	2
	push	0
	mov	eax, DWORD PTR _iVehicle$[ebp]
	push	eax
	call	?GameDebugEntity@@YAXKKH@Z		; GameDebugEntity
	add	esp, 12					; 0000000cH
$LN3@cmdVehicle:

; 523  : }

	pop	edi
	pop	esi
	pop	ebx
	add	esp, 204				; 000000ccH
	cmp	ebp, esp
	call	__RTC_CheckEsp
	mov	esp, ebp
	pop	ebp
	ret	0
?cmdVehicleDebug@@YAXPAD@Z ENDP				; cmdVehicleDebug
_TEXT	ENDS
; Function compile flags: /Odtp /RTCsu /ZI
; File z:\sampsrc\02xu1\saco\cmdprocs.cpp
;	COMDAT ?cmdObjectDebug@@YAXPAD@Z
_TEXT	SEGMENT
_szCmd$ = 8						; size = 4
?cmdObjectDebug@@YAXPAD@Z PROC				; cmdObjectDebug, COMDAT

; 507  : {

	push	ebp
	mov	ebp, esp
	sub	esp, 192				; 000000c0H
	push	ebx
	push	esi
	push	edi
	lea	edi, DWORD PTR [ebp-192]
	mov	ecx, 48					; 00000030H
	mov	eax, -858993460				; ccccccccH
	rep stosd

; 508  : 
; 509  : }

	pop	edi
	pop	esi
	pop	ebx
	mov	esp, ebp
	pop	ebp
	ret	0
?cmdObjectDebug@@YAXPAD@Z ENDP				; cmdObjectDebug
_TEXT	ENDS
; Function compile flags: /Odtp /RTCsu /ZI
; File z:\sampsrc\02xu1\saco\cmdprocs.cpp
;	COMDAT ?cmdActorTaskDebug@@YAXPAD@Z
_TEXT	SEGMENT
_iActor$ = -8						; size = 4
_szCmd$ = 8						; size = 4
?cmdActorTaskDebug@@YAXPAD@Z PROC			; cmdActorTaskDebug, COMDAT

; 495  : {

	push	ebp
	mov	ebp, esp
	sub	esp, 204				; 000000ccH
	push	ebx
	push	esi
	push	edi
	lea	edi, DWORD PTR [ebp-204]
	mov	ecx, 51					; 00000033H
	mov	eax, -858993460				; ccccccccH
	rep stosd

; 496  : 	if(!strlen(szCmd)){

	mov	eax, DWORD PTR _szCmd$[ebp]
	push	eax
	call	_strlen
	add	esp, 4
	test	eax, eax
	jne	SHORT $LN1@cmdActorTa

; 497  : 		pChatWindow->AddDebugMessage("Usage: /actor_task_debug (actor number).");

	push	OFFSET ??_C@_0CJ@HIMCCHDO@Usage?3?5?1actor_task_debug?5?$CIactor?5@
	mov	eax, DWORD PTR ?pChatWindow@@3PAVCChatWindow@@A ; pChatWindow
	push	eax
	call	?AddDebugMessage@CChatWindow@@QAAXPADZZ	; CChatWindow::AddDebugMessage
	add	esp, 8

; 498  : 		return;

	jmp	SHORT $LN2@cmdActorTa
$LN1@cmdActorTa:

; 499  : 	}
; 500  : 	int iActor = atoi(szCmd);

	mov	eax, DWORD PTR _szCmd$[ebp]
	push	eax
	call	_atoi
	add	esp, 4
	mov	DWORD PTR _iActor$[ebp], eax

; 501  : 	GameDebugEntity(iActor,0,8);

	push	8
	push	0
	mov	eax, DWORD PTR _iActor$[ebp]
	push	eax
	call	?GameDebugEntity@@YAXKKH@Z		; GameDebugEntity
	add	esp, 12					; 0000000cH
$LN2@cmdActorTa:

; 502  : }

	pop	edi
	pop	esi
	pop	ebx
	add	esp, 204				; 000000ccH
	cmp	ebp, esp
	call	__RTC_CheckEsp
	mov	esp, ebp
	pop	ebp
	ret	0
?cmdActorTaskDebug@@YAXPAD@Z ENDP			; cmdActorTaskDebug
_TEXT	ENDS
; Function compile flags: /Odtp /RTCsu /ZI
; File z:\sampsrc\02xu1\saco\cmdprocs.cpp
;	COMDAT ?cmdActorDebug@@YAXPAD@Z
_TEXT	SEGMENT
_iActor$ = -8						; size = 4
_szCmd$ = 8						; size = 4
?cmdActorDebug@@YAXPAD@Z PROC				; cmdActorDebug, COMDAT

; 483  : {

	push	ebp
	mov	ebp, esp
	sub	esp, 204				; 000000ccH
	push	ebx
	push	esi
	push	edi
	lea	edi, DWORD PTR [ebp-204]
	mov	ecx, 51					; 00000033H
	mov	eax, -858993460				; ccccccccH
	rep stosd

; 484  : 	if(!strlen(szCmd)){

	mov	eax, DWORD PTR _szCmd$[ebp]
	push	eax
	call	_strlen
	add	esp, 4
	test	eax, eax
	jne	SHORT $LN1@cmdActorDe

; 485  : 		pChatWindow->AddDebugMessage("Usage: /actor_debug (actor number).");

	push	OFFSET ??_C@_0CE@MFNLJDFI@Usage?3?5?1actor_debug?5?$CIactor?5numbe@
	mov	eax, DWORD PTR ?pChatWindow@@3PAVCChatWindow@@A ; pChatWindow
	push	eax
	call	?AddDebugMessage@CChatWindow@@QAAXPADZZ	; CChatWindow::AddDebugMessage
	add	esp, 8

; 486  : 		return;

	jmp	SHORT $LN2@cmdActorDe
$LN1@cmdActorDe:

; 487  : 	}
; 488  : 	int iActor = atoi(szCmd);

	mov	eax, DWORD PTR _szCmd$[ebp]
	push	eax
	call	_atoi
	add	esp, 4
	mov	DWORD PTR _iActor$[ebp], eax

; 489  : 	GameDebugEntity(iActor,0,1);

	push	1
	push	0
	mov	eax, DWORD PTR _iActor$[ebp]
	push	eax
	call	?GameDebugEntity@@YAXKKH@Z		; GameDebugEntity
	add	esp, 12					; 0000000cH
$LN2@cmdActorDe:

; 490  : }

	pop	edi
	pop	esi
	pop	ebx
	add	esp, 204				; 000000ccH
	cmp	ebp, esp
	call	__RTC_CheckEsp
	mov	esp, ebp
	pop	ebp
	ret	0
?cmdActorDebug@@YAXPAD@Z ENDP				; cmdActorDebug
_TEXT	ENDS
; Function compile flags: /Odtp /RTCsu /ZI
; File z:\sampsrc\02xu1\saco\cmdprocs.cpp
;	COMDAT ?cmdCreatePlayer@@YAXPAD@Z
_TEXT	SEGMENT
_pTestPlayer$1 = -120					; size = 4
_matPlayer$2 = -108					; size = 64
_pPlayer$3 = -36					; size = 4
_iPlayerNum$ = -24					; size = 4
_iActorSkin$ = -12					; size = 4
__$ArrayPad$ = -4					; size = 4
_szCmd$ = 8						; size = 4
?cmdCreatePlayer@@YAXPAD@Z PROC				; cmdCreatePlayer, COMDAT

; 436  : {

	push	ebp
	mov	ebp, esp
	sub	esp, 316				; 0000013cH
	push	ebx
	push	esi
	push	edi
	lea	edi, DWORD PTR [ebp-316]
	mov	ecx, 79					; 0000004fH
	mov	eax, -858993460				; ccccccccH
	rep stosd
	mov	eax, DWORD PTR ___security_cookie
	xor	eax, ebp
	mov	DWORD PTR __$ArrayPad$[ebp], eax

; 437  : 	if(!strlen(szCmd)) {

	mov	eax, DWORD PTR _szCmd$[ebp]
	push	eax
	call	_strlen
	add	esp, 4
	test	eax, eax
	jne	SHORT $LN5@cmdCreateP

; 438  : 	    pChatWindow->AddDebugMessage("Usage: /p (player_num) (skin).");

	push	OFFSET ??_C@_0BP@CHHBBNKH@Usage?3?5?1p?5?$CIplayer_num?$CJ?5?$CIskin?$CJ?4?$AA@
	mov	eax, DWORD PTR ?pChatWindow@@3PAVCChatWindow@@A ; pChatWindow
	push	eax
	call	?AddDebugMessage@CChatWindow@@QAAXPADZZ	; CChatWindow::AddDebugMessage
	add	esp, 8

; 439  : 		return;

	jmp	$LN6@cmdCreateP
$LN5@cmdCreateP:

; 440  : 	}
; 441  : 
; 442  : 	int iActorSkin=0,iPlayerNum=0;

	mov	DWORD PTR _iActorSkin$[ebp], 0
	mov	DWORD PTR _iPlayerNum$[ebp], 0

; 443  : 
; 444  : 	sscanf(szCmd, "%d%d", &iPlayerNum, &iActorSkin);

	lea	eax, DWORD PTR _iActorSkin$[ebp]
	push	eax
	lea	ecx, DWORD PTR _iPlayerNum$[ebp]
	push	ecx
	push	OFFSET ??_C@_04LLKPOCGK@?$CFd?$CFd?$AA@
	mov	edx, DWORD PTR _szCmd$[ebp]
	push	edx
	call	_sscanf
	add	esp, 16					; 00000010H

; 445  : 
; 446  : 	if(pGame->IsGameLoaded()) {

	mov	ecx, DWORD PTR ?pGame@@3PAVCGame@@A	; pGame
	call	?IsGameLoaded@CGame@@QAEHXZ		; CGame::IsGameLoaded
	test	eax, eax
	je	$LN4@cmdCreateP

; 447  : 
; 448  : 		pGame->RequestModel(iActorSkin);

	mov	eax, DWORD PTR _iActorSkin$[ebp]
	push	eax
	mov	ecx, DWORD PTR ?pGame@@3PAVCGame@@A	; pGame
	call	?RequestModel@CGame@@QAEXH@Z		; CGame::RequestModel

; 449  : 		pGame->LoadRequestedModels();

	mov	ecx, DWORD PTR ?pGame@@3PAVCGame@@A	; pGame
	call	?LoadRequestedModels@CGame@@QAEXXZ	; CGame::LoadRequestedModels

; 450  : 
; 451  : 		// place this new player near the local player.
; 452  : 		CPlayerPed *pPlayer = pGame->FindPlayerPed();

	mov	ecx, DWORD PTR ?pGame@@3PAVCGame@@A	; pGame
	call	?FindPlayerPed@CGame@@QAEPAVCPlayerPed@@XZ ; CGame::FindPlayerPed
	mov	DWORD PTR _pPlayer$3[ebp], eax

; 453  : 
; 454  : 		if(pPlayer)

	cmp	DWORD PTR _pPlayer$3[ebp], 0
	je	SHORT $LN3@cmdCreateP

; 455  : 		{
; 456  : 			MATRIX4X4 matPlayer;
; 457  : 			pPlayer->GetMatrix(&matPlayer);

	lea	eax, DWORD PTR _matPlayer$2[ebp]
	push	eax
	mov	ecx, DWORD PTR _pPlayer$3[ebp]
	call	?GetMatrix@CEntity@@QAEXPAU_MATRIX4X4@@@Z ; CEntity::GetMatrix

; 458  : 			CPlayerPed *pTestPlayer;
; 459  : 
; 460  : 			pTestPlayer = pGame->NewPlayer(iPlayerNum, 0,
; 461  : 					(matPlayer.pos.X - 5.0f), (matPlayer.pos.Y - 5.0f),
; 462  : 					matPlayer.pos.Z,0.0f);

	push	1
	push	ecx
	movss	xmm0, DWORD PTR __real@00000000
	movss	DWORD PTR [esp], xmm0
	push	ecx
	movss	xmm0, DWORD PTR _matPlayer$2[ebp+56]
	movss	DWORD PTR [esp], xmm0
	movss	xmm0, DWORD PTR _matPlayer$2[ebp+52]
	subss	xmm0, DWORD PTR __real@40a00000
	push	ecx
	movss	DWORD PTR [esp], xmm0
	movss	xmm0, DWORD PTR _matPlayer$2[ebp+48]
	subss	xmm0, DWORD PTR __real@40a00000
	push	ecx
	movss	DWORD PTR [esp], xmm0
	push	0
	mov	eax, DWORD PTR _iPlayerNum$[ebp]
	push	eax
	mov	ecx, DWORD PTR ?pGame@@3PAVCGame@@A	; pGame
	call	?NewPlayer@CGame@@QAEPAVCPlayerPed@@HHMMMME@Z ; CGame::NewPlayer
	mov	DWORD PTR _pTestPlayer$1[ebp], eax

; 463  : 
; 464  : 			//pTestPlayer->SetSkin(iActorSkin);
; 465  : 			//pTestPlayer->ShowMarker(1);
; 466  : 
; 467  : 			return;

	jmp	SHORT $LN6@cmdCreateP

; 468  : 		}
; 469  : 		else {

	jmp	SHORT $LN2@cmdCreateP
$LN3@cmdCreateP:

; 470  : 			pChatWindow->AddDebugMessage("I couldn't obtain the player actor.");

	push	OFFSET ??_C@_0CE@ICLOLGEH@I?5couldn?8t?5obtain?5the?5player?5act@
	mov	eax, DWORD PTR ?pChatWindow@@3PAVCChatWindow@@A ; pChatWindow
	push	eax
	call	?AddDebugMessage@CChatWindow@@QAAXPADZZ	; CChatWindow::AddDebugMessage
	add	esp, 8

; 471  : 			return;

	jmp	SHORT $LN6@cmdCreateP
$LN2@cmdCreateP:

; 472  : 		}
; 473  : 	}
; 474  : 	else {

	jmp	SHORT $LN1@cmdCreateP
$LN4@cmdCreateP:

; 475  : 		pChatWindow->AddDebugMessage("Game not loaded.");

	push	OFFSET ??_C@_0BB@LLEAAFHH@Game?5not?5loaded?4?$AA@
	mov	eax, DWORD PTR ?pChatWindow@@3PAVCChatWindow@@A ; pChatWindow
	push	eax
	call	?AddDebugMessage@CChatWindow@@QAAXPADZZ	; CChatWindow::AddDebugMessage
	add	esp, 8
$LN1@cmdCreateP:
$LN6@cmdCreateP:

; 476  : 		return;
; 477  : 	}
; 478  : }

	push	edx
	mov	ecx, ebp
	push	eax
	lea	edx, DWORD PTR $LN12@cmdCreateP
	call	@_RTC_CheckStackVars@8
	pop	eax
	pop	edx
	pop	edi
	pop	esi
	pop	ebx
	mov	ecx, DWORD PTR __$ArrayPad$[ebp]
	xor	ecx, ebp
	call	@__security_check_cookie@4
	add	esp, 316				; 0000013cH
	cmp	ebp, esp
	call	__RTC_CheckEsp
	mov	esp, ebp
	pop	ebp
	ret	0
	npad	2
$LN12@cmdCreateP:
	DD	3
	DD	$LN11@cmdCreateP
$LN11@cmdCreateP:
	DD	-12					; fffffff4H
	DD	4
	DD	$LN8@cmdCreateP
	DD	-24					; ffffffe8H
	DD	4
	DD	$LN9@cmdCreateP
	DD	-108					; ffffff94H
	DD	64					; 00000040H
	DD	$LN10@cmdCreateP
$LN10@cmdCreateP:
	DB	109					; 0000006dH
	DB	97					; 00000061H
	DB	116					; 00000074H
	DB	80					; 00000050H
	DB	108					; 0000006cH
	DB	97					; 00000061H
	DB	121					; 00000079H
	DB	101					; 00000065H
	DB	114					; 00000072H
	DB	0
$LN9@cmdCreateP:
	DB	105					; 00000069H
	DB	80					; 00000050H
	DB	108					; 0000006cH
	DB	97					; 00000061H
	DB	121					; 00000079H
	DB	101					; 00000065H
	DB	114					; 00000072H
	DB	78					; 0000004eH
	DB	117					; 00000075H
	DB	109					; 0000006dH
	DB	0
$LN8@cmdCreateP:
	DB	105					; 00000069H
	DB	65					; 00000041H
	DB	99					; 00000063H
	DB	116					; 00000074H
	DB	111					; 0000006fH
	DB	114					; 00000072H
	DB	83					; 00000053H
	DB	107					; 0000006bH
	DB	105					; 00000069H
	DB	110					; 0000006eH
	DB	0
?cmdCreatePlayer@@YAXPAD@Z ENDP				; cmdCreatePlayer
_TEXT	ENDS
; Function compile flags: /Odtp /RTCsu /ZI
; File z:\sampsrc\02xu1\saco\cmdprocs.cpp
;	COMDAT ?cmdCamMode@@YAXPAD@Z
_TEXT	SEGMENT
_iMode$ = -8						; size = 4
_szCmd$ = 8						; size = 4
?cmdCamMode@@YAXPAD@Z PROC				; cmdCamMode, COMDAT

; 427  : {

	push	ebp
	mov	ebp, esp
	sub	esp, 204				; 000000ccH
	push	ebx
	push	esi
	push	edi
	lea	edi, DWORD PTR [ebp-204]
	mov	ecx, 51					; 00000033H
	mov	eax, -858993460				; ccccccccH
	rep stosd

; 428  : 	int iMode;
; 429  : 	sscanf(szCmd,"%d",&iMode);

	lea	eax, DWORD PTR _iMode$[ebp]
	push	eax
	push	OFFSET ??_C@_02DPKJAMEF@?$CFd?$AA@
	mov	ecx, DWORD PTR _szCmd$[ebp]
	push	ecx
	call	_sscanf
	add	esp, 12					; 0000000cH

; 430  : 	*pbyteCameraMode = (BYTE)iMode;	

	mov	eax, DWORD PTR ?pbyteCameraMode@@3PAEA	; pbyteCameraMode
	mov	cl, BYTE PTR _iMode$[ebp]
	mov	BYTE PTR [eax], cl

; 431  : }

	push	edx
	mov	ecx, ebp
	push	eax
	lea	edx, DWORD PTR $LN5@cmdCamMode
	call	@_RTC_CheckStackVars@8
	pop	eax
	pop	edx
	pop	edi
	pop	esi
	pop	ebx
	add	esp, 204				; 000000ccH
	cmp	ebp, esp
	call	__RTC_CheckEsp
	mov	esp, ebp
	pop	ebp
	ret	0
	npad	2
$LN5@cmdCamMode:
	DD	1
	DD	$LN4@cmdCamMode
$LN4@cmdCamMode:
	DD	-8					; fffffff8H
	DD	4
	DD	$LN3@cmdCamMode
$LN3@cmdCamMode:
	DB	105					; 00000069H
	DB	77					; 0000004dH
	DB	111					; 0000006fH
	DB	100					; 00000064H
	DB	101					; 00000065H
	DB	0
?cmdCamMode@@YAXPAD@Z ENDP				; cmdCamMode
_TEXT	ENDS
; Function compile flags: /Odtp /RTCsu /ZI
; File z:\sampsrc\02xu1\saco\cmdprocs.cpp
;	COMDAT ?cmdPlayerToVehicle@@YAXPAD@Z
_TEXT	SEGMENT
_pVehicle$1 = -44					; size = 4
_pRemotePlayer$2 = -32					; size = 4
_iVehicle$ = -20					; size = 4
_iPlayer$ = -8						; size = 4
_szCmd$ = 8						; size = 4
?cmdPlayerToVehicle@@YAXPAD@Z PROC			; cmdPlayerToVehicle, COMDAT

; 410  : {

	push	ebp
	mov	ebp, esp
	sub	esp, 240				; 000000f0H
	push	ebx
	push	esi
	push	edi
	lea	edi, DWORD PTR [ebp-240]
	mov	ecx, 60					; 0000003cH
	mov	eax, -858993460				; ccccccccH
	rep stosd

; 411  : 	int iPlayer,iVehicle;
; 412  : 	sscanf(szCmd,"%u%u",&iPlayer,&iVehicle);

	lea	eax, DWORD PTR _iVehicle$[ebp]
	push	eax
	lea	ecx, DWORD PTR _iPlayer$[ebp]
	push	ecx
	push	OFFSET ??_C@_04NDPBIA@?$CFu?$CFu?$AA@
	mov	edx, DWORD PTR _szCmd$[ebp]
	push	edx
	call	_sscanf
	add	esp, 16					; 00000010H

; 413  : 
; 414  : 	if(pNetGame) {

	cmp	DWORD PTR ?pNetGame@@3PAVCNetGame@@A, 0	; pNetGame
	je	SHORT $LN3@cmdPlayerT

; 415  : 		CRemotePlayer *pRemotePlayer = pNetGame->GetPlayerPool()->GetAt(iPlayer);

	movzx	eax, BYTE PTR _iPlayer$[ebp]
	push	eax
	mov	ecx, DWORD PTR ?pNetGame@@3PAVCNetGame@@A ; pNetGame
	call	?GetPlayerPool@CNetGame@@QAEPAVCPlayerPool@@XZ ; CNetGame::GetPlayerPool
	mov	ecx, eax
	call	?GetAt@CPlayerPool@@QAEPAVCRemotePlayer@@E@Z ; CPlayerPool::GetAt
	mov	DWORD PTR _pRemotePlayer$2[ebp], eax

; 416  : 		CVehicle *pVehicle = pNetGame->GetVehiclePool()->GetAt(iVehicle);

	movzx	eax, WORD PTR _iVehicle$[ebp]
	push	eax
	mov	ecx, DWORD PTR ?pNetGame@@3PAVCNetGame@@A ; pNetGame
	call	?GetVehiclePool@CNetGame@@QAEPAVCVehiclePool@@XZ ; CNetGame::GetVehiclePool
	mov	ecx, eax
	call	?GetAt@CVehiclePool@@QAEPAVCVehicle@@G@Z ; CVehiclePool::GetAt
	mov	DWORD PTR _pVehicle$1[ebp], eax

; 417  : 		if(pRemotePlayer && pVehicle) {

	cmp	DWORD PTR _pRemotePlayer$2[ebp], 0
	je	SHORT $LN3@cmdPlayerT
	cmp	DWORD PTR _pVehicle$1[ebp], 0
	je	SHORT $LN3@cmdPlayerT

; 418  : 			pRemotePlayer->GetPlayerPed()->PutDirectlyInVehicle(pVehicle->m_dwGTAId,0);

	push	0
	mov	eax, DWORD PTR _pVehicle$1[ebp]
	mov	ecx, DWORD PTR [eax+8]
	push	ecx
	mov	ecx, DWORD PTR _pRemotePlayer$2[ebp]
	call	?GetPlayerPed@CRemotePlayer@@QAEPAVCPlayerPed@@XZ ; CRemotePlayer::GetPlayerPed
	mov	ecx, eax
	call	?PutDirectlyInVehicle@CPlayerPed@@QAEXHH@Z ; CPlayerPed::PutDirectlyInVehicle
$LN3@cmdPlayerT:

; 419  : 			//pRemotePlayer->GetPlayerPed()->EnterVehicle(pVehicle->m_dwGTAId,FALSE);
; 420  : 		}
; 421  : 	}
; 422  : }

	push	edx
	mov	ecx, ebp
	push	eax
	lea	edx, DWORD PTR $LN8@cmdPlayerT
	call	@_RTC_CheckStackVars@8
	pop	eax
	pop	edx
	pop	edi
	pop	esi
	pop	ebx
	add	esp, 240				; 000000f0H
	cmp	ebp, esp
	call	__RTC_CheckEsp
	mov	esp, ebp
	pop	ebp
	ret	0
	npad	3
$LN8@cmdPlayerT:
	DD	2
	DD	$LN7@cmdPlayerT
$LN7@cmdPlayerT:
	DD	-8					; fffffff8H
	DD	4
	DD	$LN5@cmdPlayerT
	DD	-20					; ffffffecH
	DD	4
	DD	$LN6@cmdPlayerT
$LN6@cmdPlayerT:
	DB	105					; 00000069H
	DB	86					; 00000056H
	DB	101					; 00000065H
	DB	104					; 00000068H
	DB	105					; 00000069H
	DB	99					; 00000063H
	DB	108					; 0000006cH
	DB	101					; 00000065H
	DB	0
$LN5@cmdPlayerT:
	DB	105					; 00000069H
	DB	80					; 00000050H
	DB	108					; 0000006cH
	DB	97					; 00000061H
	DB	121					; 00000079H
	DB	101					; 00000065H
	DB	114					; 00000072H
	DB	0
?cmdPlayerToVehicle@@YAXPAD@Z ENDP			; cmdPlayerToVehicle
_TEXT	ENDS
; Function compile flags: /Odtp /RTCsu /ZI
; File z:\sampsrc\02xu1\saco\cmdprocs.cpp
;	COMDAT ?cmdSetInterior@@YAXPAD@Z
_TEXT	SEGMENT
_iInterior$ = -8					; size = 4
_szCmd$ = 8						; size = 4
?cmdSetInterior@@YAXPAD@Z PROC				; cmdSetInterior, COMDAT

; 391  : {

	push	ebp
	mov	ebp, esp
	sub	esp, 204				; 000000ccH
	push	ebx
	push	esi
	push	edi
	lea	edi, DWORD PTR [ebp-204]
	mov	ecx, 51					; 00000033H
	mov	eax, -858993460				; ccccccccH
	rep stosd

; 392  : 	if(!strlen(szCmd)){

	mov	eax, DWORD PTR _szCmd$[ebp]
	push	eax
	call	_strlen
	add	esp, 4
	test	eax, eax
	jne	SHORT $LN1@cmdSetInte

; 393  : 		pChatWindow->AddDebugMessage("Usage: /setinterior (interior id).");

	push	OFFSET ??_C@_0CD@ONFAMIIJ@Usage?3?5?1setinterior?5?$CIinterior?5id@
	mov	eax, DWORD PTR ?pChatWindow@@3PAVCChatWindow@@A ; pChatWindow
	push	eax
	call	?AddDebugMessage@CChatWindow@@QAAXPADZZ	; CChatWindow::AddDebugMessage
	add	esp, 8

; 394  : 		return;

	jmp	SHORT $LN2@cmdSetInte
$LN1@cmdSetInte:

; 395  : 	}
; 396  : 	int iInterior = atoi(szCmd);

	mov	eax, DWORD PTR _szCmd$[ebp]
	push	eax
	call	_atoi
	add	esp, 4
	mov	DWORD PTR _iInterior$[ebp], eax

; 397  : 	ScriptCommand(&select_interior,iInterior);

	mov	eax, DWORD PTR _iInterior$[ebp]
	push	eax
	push	OFFSET _select_interior
	call	?ScriptCommand@@YAHPBUSCRIPT_COMMAND@@ZZ ; ScriptCommand
	add	esp, 8
$LN2@cmdSetInte:

; 398  : }

	pop	edi
	pop	esi
	pop	ebx
	add	esp, 204				; 000000ccH
	cmp	ebp, esp
	call	__RTC_CheckEsp
	mov	esp, ebp
	pop	ebp
	ret	0
?cmdSetInterior@@YAXPAD@Z ENDP				; cmdSetInterior
_TEXT	ENDS
; Function compile flags: /Odtp /RTCsu /ZI
; File z:\sampsrc\02xu1\saco\cmdprocs.cpp
;	COMDAT ?cmdDebugLabels@@YAXPAD@Z
_TEXT	SEGMENT
tv66 = -196						; size = 4
_szCmd$ = 8						; size = 4
?cmdDebugLabels@@YAXPAD@Z PROC				; cmdDebugLabels, COMDAT

; 372  : {

	push	ebp
	mov	ebp, esp
	sub	esp, 196				; 000000c4H
	push	ebx
	push	esi
	push	edi
	lea	edi, DWORD PTR [ebp-196]
	mov	ecx, 49					; 00000031H
	mov	eax, -858993460				; ccccccccH
	rep stosd

; 373  : 	bShowDebugLabels = !bShowDebugLabels;

	movzx	eax, BYTE PTR ?bShowDebugLabels@@3_NA	; bShowDebugLabels
	test	eax, eax
	jne	SHORT $LN3@cmdDebugLa
	mov	DWORD PTR tv66[ebp], 1
	jmp	SHORT $LN4@cmdDebugLa
$LN3@cmdDebugLa:
	mov	DWORD PTR tv66[ebp], 0
$LN4@cmdDebugLa:
	mov	cl, BYTE PTR tv66[ebp]
	mov	BYTE PTR ?bShowDebugLabels@@3_NA, cl	; bShowDebugLabels

; 374  : }

	pop	edi
	pop	esi
	pop	ebx
	mov	esp, ebp
	pop	ebp
	ret	0
?cmdDebugLabels@@YAXPAD@Z ENDP				; cmdDebugLabels
_TEXT	ENDS
; Function compile flags: /Odtp /RTCsu /ZI
; File z:\sampsrc\02xu1\saco\cmdprocs.cpp
;	COMDAT ?cmdShowInterior@@YAXPAD@Z
_TEXT	SEGMENT
_dwRet$ = -8						; size = 4
_szCmd$ = 8						; size = 4
?cmdShowInterior@@YAXPAD@Z PROC				; cmdShowInterior, COMDAT

; 363  : {

	push	ebp
	mov	ebp, esp
	sub	esp, 204				; 000000ccH
	push	ebx
	push	esi
	push	edi
	lea	edi, DWORD PTR [ebp-204]
	mov	ecx, 51					; 00000033H
	mov	eax, -858993460				; ccccccccH
	rep stosd

; 364  : 	DWORD dwRet;
; 365  : 	ScriptCommand(&get_active_interior,&dwRet);

	lea	eax, DWORD PTR _dwRet$[ebp]
	push	eax
	push	OFFSET _get_active_interior
	call	?ScriptCommand@@YAHPBUSCRIPT_COMMAND@@ZZ ; ScriptCommand
	add	esp, 8

; 366  : 	pChatWindow->AddDebugMessage("Current Interior: %u",dwRet);

	mov	eax, DWORD PTR _dwRet$[ebp]
	push	eax
	push	OFFSET ??_C@_0BF@EFIACNEA@Current?5Interior?3?5?$CFu?$AA@
	mov	ecx, DWORD PTR ?pChatWindow@@3PAVCChatWindow@@A ; pChatWindow
	push	ecx
	call	?AddDebugMessage@CChatWindow@@QAAXPADZZ	; CChatWindow::AddDebugMessage
	add	esp, 12					; 0000000cH

; 367  : }

	push	edx
	mov	ecx, ebp
	push	eax
	lea	edx, DWORD PTR $LN5@cmdShowInt
	call	@_RTC_CheckStackVars@8
	pop	eax
	pop	edx
	pop	edi
	pop	esi
	pop	ebx
	add	esp, 204				; 000000ccH
	cmp	ebp, esp
	call	__RTC_CheckEsp
	mov	esp, ebp
	pop	ebp
	ret	0
$LN5@cmdShowInt:
	DD	1
	DD	$LN4@cmdShowInt
$LN4@cmdShowInt:
	DD	-8					; fffffff8H
	DD	4
	DD	$LN3@cmdShowInt
$LN3@cmdShowInt:
	DB	100					; 00000064H
	DB	119					; 00000077H
	DB	82					; 00000052H
	DB	101					; 00000065H
	DB	116					; 00000074H
	DB	0
?cmdShowInterior@@YAXPAD@Z ENDP				; cmdShowInterior
_TEXT	ENDS
; Function compile flags: /Odtp /RTCsu /ZI
; File z:\sampsrc\02xu1\saco\cmdprocs.cpp
;	COMDAT ?cmdSelectVehicle@@YAXPAD@Z
_TEXT	SEGMENT
_szCmd$ = 8						; size = 4
?cmdSelectVehicle@@YAXPAD@Z PROC			; cmdSelectVehicle, COMDAT

; 354  : {

	push	ebp
	mov	ebp, esp
	sub	esp, 192				; 000000c0H
	push	ebx
	push	esi
	push	edi
	lea	edi, DWORD PTR [ebp-192]
	mov	ecx, 48					; 00000030H
	mov	eax, -858993460				; ccccccccH
	rep stosd

; 355  : 	if(!tSettings.bDebug) return;

	cmp	DWORD PTR ?tSettings@@3U_GAME_SETTINGS@@A, 0
	jne	SHORT $LN1@cmdSelectV
	jmp	SHORT $LN2@cmdSelectV
$LN1@cmdSelectV:

; 356  : 
; 357  : 	GameDebugEntity(0,0,10);

	push	10					; 0000000aH
	push	0
	push	0
	call	?GameDebugEntity@@YAXKKH@Z		; GameDebugEntity
	add	esp, 12					; 0000000cH
$LN2@cmdSelectV:

; 358  : }

	pop	edi
	pop	esi
	pop	ebx
	add	esp, 192				; 000000c0H
	cmp	ebp, esp
	call	__RTC_CheckEsp
	mov	esp, ebp
	pop	ebp
	ret	0
?cmdSelectVehicle@@YAXPAD@Z ENDP			; cmdSelectVehicle
_TEXT	ENDS
; Function compile flags: /Odtp /RTCsu /ZI
; File z:\sampsrc\02xu1\saco\cmdprocs.cpp
;	COMDAT ?cmdCreateVehicle@@YAXPAD@Z
_TEXT	SEGMENT
_pTestVehicle$1 = -128					; size = 4
_blank$2 = -116						; size = 9
_matPlayer$3 = -96					; size = 64
_pPlayer$4 = -24					; size = 4
_iVehicleType$ = -12					; size = 4
__$ArrayPad$ = -4					; size = 4
_szCmd$ = 8						; size = 4
?cmdCreateVehicle@@YAXPAD@Z PROC			; cmdCreateVehicle, COMDAT

; 306  : {

	push	ebp
	mov	ebp, esp
	sub	esp, 324				; 00000144H
	push	ebx
	push	esi
	push	edi
	lea	edi, DWORD PTR [ebp-324]
	mov	ecx, 81					; 00000051H
	mov	eax, -858993460				; ccccccccH
	rep stosd
	mov	eax, DWORD PTR ___security_cookie
	xor	eax, ebp
	mov	DWORD PTR __$ArrayPad$[ebp], eax

; 307  : 	if(!tSettings.bDebug) return;

	cmp	DWORD PTR ?tSettings@@3U_GAME_SETTINGS@@A, 0
	jne	SHORT $LN6@cmdCreateV
	jmp	$LN7@cmdCreateV
$LN6@cmdCreateV:

; 308  : 
; 309  : 	if(!strlen(szCmd)){

	mov	eax, DWORD PTR _szCmd$[ebp]
	push	eax
	call	_strlen
	add	esp, 4
	test	eax, eax
	jne	SHORT $LN5@cmdCreateV

; 310  : 		pChatWindow->AddDebugMessage("Usage: /v (vehicle id).");

	push	OFFSET ??_C@_0BI@IMGABIPF@Usage?3?5?1v?5?$CIvehicle?5id?$CJ?4?$AA@
	mov	eax, DWORD PTR ?pChatWindow@@3PAVCChatWindow@@A ; pChatWindow
	push	eax
	call	?AddDebugMessage@CChatWindow@@QAAXPADZZ	; CChatWindow::AddDebugMessage
	add	esp, 8

; 311  : 		return;

	jmp	$LN7@cmdCreateV
$LN5@cmdCreateV:

; 312  : 	}	
; 313  : 	int iVehicleType = atoi(szCmd);

	mov	eax, DWORD PTR _szCmd$[ebp]
	push	eax
	call	_atoi
	add	esp, 4
	mov	DWORD PTR _iVehicleType$[ebp], eax

; 314  : 
; 315  : 	if(pGame->IsGameLoaded())

	mov	ecx, DWORD PTR ?pGame@@3PAVCGame@@A	; pGame
	call	?IsGameLoaded@CGame@@QAEHXZ		; CGame::IsGameLoaded
	test	eax, eax
	je	$LN4@cmdCreateV

; 316  : 	{
; 317  : 		pGame->RequestModel(iVehicleType);

	mov	eax, DWORD PTR _iVehicleType$[ebp]
	push	eax
	mov	ecx, DWORD PTR ?pGame@@3PAVCGame@@A	; pGame
	call	?RequestModel@CGame@@QAEXH@Z		; CGame::RequestModel

; 318  : 		pGame->LoadRequestedModels();

	mov	ecx, DWORD PTR ?pGame@@3PAVCGame@@A	; pGame
	call	?LoadRequestedModels@CGame@@QAEXXZ	; CGame::LoadRequestedModels

; 319  : 
; 320  : 		// place this actor near the player.
; 321  : 		CPlayerPed *pPlayer = pGame->FindPlayerPed();

	mov	ecx, DWORD PTR ?pGame@@3PAVCGame@@A	; pGame
	call	?FindPlayerPed@CGame@@QAEPAVCPlayerPed@@XZ ; CGame::FindPlayerPed
	mov	DWORD PTR _pPlayer$4[ebp], eax

; 322  : 
; 323  : 		if(pPlayer) 

	cmp	DWORD PTR _pPlayer$4[ebp], 0
	je	$LN3@cmdCreateV

; 324  : 		{
; 325  : 			MATRIX4X4 matPlayer;
; 326  : 			pPlayer->GetMatrix(&matPlayer);

	lea	eax, DWORD PTR _matPlayer$3[ebp]
	push	eax
	mov	ecx, DWORD PTR _pPlayer$4[ebp]
	call	?GetMatrix@CEntity@@QAEXPAU_MATRIX4X4@@@Z ; CEntity::GetMatrix

; 327  : 			CHAR blank[9] = "";

	mov	al, BYTE PTR ??_C@_00CNPNBAHC@?$AA@
	mov	BYTE PTR _blank$2[ebp], al
	xor	eax, eax
	mov	DWORD PTR _blank$2[ebp+1], eax
	mov	DWORD PTR _blank$2[ebp+5], eax

; 328  : 			sprintf(blank, "TYPE_%d", iVehicleType);

	mov	eax, DWORD PTR _iVehicleType$[ebp]
	push	eax
	push	OFFSET ??_C@_07MNBIJLFM@TYPE_?$CFd?$AA@
	lea	ecx, DWORD PTR _blank$2[ebp]
	push	ecx
	call	_sprintf
	add	esp, 12					; 0000000cH

; 329  : 			CVehicle *pTestVehicle = pGame->NewVehicle(iVehicleType,
; 330  : 				(matPlayer.pos.X - 5.0f), (matPlayer.pos.Y - 5.0f),
; 331  : 				matPlayer.pos.Z+1.0f, 0.0f, (PCHAR)blank);

	lea	eax, DWORD PTR _blank$2[ebp]
	push	eax
	push	ecx
	movss	xmm0, DWORD PTR __real@00000000
	movss	DWORD PTR [esp], xmm0
	movss	xmm0, DWORD PTR _matPlayer$3[ebp+56]
	addss	xmm0, DWORD PTR __real@3f800000
	push	ecx
	movss	DWORD PTR [esp], xmm0
	movss	xmm0, DWORD PTR _matPlayer$3[ebp+52]
	subss	xmm0, DWORD PTR __real@40a00000
	push	ecx
	movss	DWORD PTR [esp], xmm0
	movss	xmm0, DWORD PTR _matPlayer$3[ebp+48]
	subss	xmm0, DWORD PTR __real@40a00000
	push	ecx
	movss	DWORD PTR [esp], xmm0
	mov	ecx, DWORD PTR _iVehicleType$[ebp]
	push	ecx
	mov	ecx, DWORD PTR ?pGame@@3PAVCGame@@A	; pGame
	call	?NewVehicle@CGame@@QAEPAVCVehicle@@HMMMMPAD@Z ; CGame::NewVehicle
	mov	DWORD PTR _pTestVehicle$1[ebp], eax

; 332  : 
; 333  : 			pTestVehicle->Add();

	mov	eax, DWORD PTR _pTestVehicle$1[ebp]
	mov	edx, DWORD PTR [eax]
	mov	esi, esp
	mov	ecx, DWORD PTR _pTestVehicle$1[ebp]
	mov	eax, DWORD PTR [edx+4]
	call	eax
	cmp	esi, esp
	call	__RTC_CheckEsp

; 334  : 			
; 335  : 			/*DWORD dwRet;
; 336  : 			ScriptCommand(&get_active_interior,&dwRet);
; 337  : 			if ((int)dwRet != 0) pTestVehicle->LinkToInterior((int)dwRet);*/
; 338  : 
; 339  : 			return;

	jmp	SHORT $LN7@cmdCreateV

; 340  : 		}
; 341  : 		else {

	jmp	SHORT $LN2@cmdCreateV
$LN3@cmdCreateV:

; 342  : 			pChatWindow->AddDebugMessage("I couldn't find the player actor.");

	push	OFFSET ??_C@_0CC@MODFFDPO@I?5couldn?8t?5find?5the?5player?5actor@
	mov	eax, DWORD PTR ?pChatWindow@@3PAVCChatWindow@@A ; pChatWindow
	push	eax
	call	?AddDebugMessage@CChatWindow@@QAAXPADZZ	; CChatWindow::AddDebugMessage
	add	esp, 8

; 343  : 			return;

	jmp	SHORT $LN7@cmdCreateV
$LN2@cmdCreateV:

; 344  : 		}
; 345  : 	}
; 346  : 	else {

	jmp	SHORT $LN1@cmdCreateV
$LN4@cmdCreateV:

; 347  : 		pChatWindow->AddDebugMessage("game not loaded.");

	push	OFFSET ??_C@_0BB@JFODDHIN@game?5not?5loaded?4?$AA@
	mov	eax, DWORD PTR ?pChatWindow@@3PAVCChatWindow@@A ; pChatWindow
	push	eax
	call	?AddDebugMessage@CChatWindow@@QAAXPADZZ	; CChatWindow::AddDebugMessage
	add	esp, 8
$LN1@cmdCreateV:
$LN7@cmdCreateV:

; 348  : 	}
; 349  : }

	push	edx
	mov	ecx, ebp
	push	eax
	lea	edx, DWORD PTR $LN12@cmdCreateV
	call	@_RTC_CheckStackVars@8
	pop	eax
	pop	edx
	pop	edi
	pop	esi
	pop	ebx
	mov	ecx, DWORD PTR __$ArrayPad$[ebp]
	xor	ecx, ebp
	call	@__security_check_cookie@4
	add	esp, 324				; 00000144H
	cmp	ebp, esp
	call	__RTC_CheckEsp
	mov	esp, ebp
	pop	ebp
	ret	0
	npad	1
$LN12@cmdCreateV:
	DD	2
	DD	$LN11@cmdCreateV
$LN11@cmdCreateV:
	DD	-96					; ffffffa0H
	DD	64					; 00000040H
	DD	$LN9@cmdCreateV
	DD	-116					; ffffff8cH
	DD	9
	DD	$LN10@cmdCreateV
$LN10@cmdCreateV:
	DB	98					; 00000062H
	DB	108					; 0000006cH
	DB	97					; 00000061H
	DB	110					; 0000006eH
	DB	107					; 0000006bH
	DB	0
$LN9@cmdCreateV:
	DB	109					; 0000006dH
	DB	97					; 00000061H
	DB	116					; 00000074H
	DB	80					; 00000050H
	DB	108					; 0000006cH
	DB	97					; 00000061H
	DB	121					; 00000079H
	DB	101					; 00000065H
	DB	114					; 00000072H
	DB	0
?cmdCreateVehicle@@YAXPAD@Z ENDP			; cmdCreateVehicle
_TEXT	ENDS
; Function compile flags: /Odtp /RTCsu /ZI
; File z:\sampsrc\02xu1\saco\cmdprocs.cpp
;	COMDAT ?cmdPlayerSkin@@YAXPAD@Z
_TEXT	SEGMENT
_pPlayer$1 = -20					; size = 4
_iPlayerSkin$ = -8					; size = 4
_szCmd$ = 8						; size = 4
?cmdPlayerSkin@@YAXPAD@Z PROC				; cmdPlayerSkin, COMDAT

; 272  : {

	push	ebp
	mov	ebp, esp
	sub	esp, 216				; 000000d8H
	push	ebx
	push	esi
	push	edi
	lea	edi, DWORD PTR [ebp-216]
	mov	ecx, 54					; 00000036H
	mov	eax, -858993460				; ccccccccH
	rep stosd

; 273  : #ifndef _DEBUG
; 274  : 	if(!tSettings.bDebug) return;
; 275  : #endif
; 276  : 
; 277  : 	if(!strlen(szCmd)){	

	mov	eax, DWORD PTR _szCmd$[ebp]
	push	eax
	call	_strlen
	add	esp, 4
	test	eax, eax
	jne	SHORT $LN5@cmdPlayerS

; 278  : 		pChatWindow->AddDebugMessage("Usage: player_skin (skin number).");

	push	OFFSET ??_C@_0CC@IIEMIINO@Usage?3?5player_skin?5?$CIskin?5number?$CJ@
	mov	eax, DWORD PTR ?pChatWindow@@3PAVCChatWindow@@A ; pChatWindow
	push	eax
	call	?AddDebugMessage@CChatWindow@@QAAXPADZZ	; CChatWindow::AddDebugMessage
	add	esp, 8

; 279  : 		return;

	jmp	SHORT $LN6@cmdPlayerS
$LN5@cmdPlayerS:

; 280  : 	}
; 281  : 	int iPlayerSkin = atoi(szCmd);

	mov	eax, DWORD PTR _szCmd$[ebp]
	push	eax
	call	_atoi
	add	esp, 4
	mov	DWORD PTR _iPlayerSkin$[ebp], eax

; 282  : 
; 283  : 	if(pGame->IsGameLoaded())

	mov	ecx, DWORD PTR ?pGame@@3PAVCGame@@A	; pGame
	call	?IsGameLoaded@CGame@@QAEHXZ		; CGame::IsGameLoaded
	test	eax, eax
	je	SHORT $LN6@cmdPlayerS

; 284  : 	{
; 285  : 		CPlayerPed *pPlayer = pGame->FindPlayerPed();

	mov	ecx, DWORD PTR ?pGame@@3PAVCGame@@A	; pGame
	call	?FindPlayerPed@CGame@@QAEPAVCPlayerPed@@XZ ; CGame::FindPlayerPed
	mov	DWORD PTR _pPlayer$1[ebp], eax

; 286  : 
; 287  : 		if(pPlayer)

	cmp	DWORD PTR _pPlayer$1[ebp], 0
	je	SHORT $LN6@cmdPlayerS

; 288  : 		{
; 289  : 			// Ok, now we can set the model.
; 290  : 			pPlayer->SetModelIndex(iPlayerSkin);

	mov	eax, DWORD PTR _iPlayerSkin$[ebp]
	push	eax
	mov	ecx, DWORD PTR _pPlayer$1[ebp]
	call	?SetModelIndex@CPlayerPed@@QAEXI@Z	; CPlayerPed::SetModelIndex
$LN6@cmdPlayerS:

; 291  : 		}
; 292  : 		else
; 293  : 		{
; 294  : 			return;
; 295  : 		}		
; 296  : 	}
; 297  : 	else //! game loaded
; 298  : 	{
; 299  : 		return;
; 300  : 	}
; 301  : }

	pop	edi
	pop	esi
	pop	ebx
	add	esp, 216				; 000000d8H
	cmp	ebp, esp
	call	__RTC_CheckEsp
	mov	esp, ebp
	pop	ebp
	ret	0
?cmdPlayerSkin@@YAXPAD@Z ENDP				; cmdPlayerSkin
_TEXT	ENDS
; Function compile flags: /Odtp /RTCsu /ZI
; File z:\sampsrc\02xu1\saco\cmdprocs.cpp
;	COMDAT ?cmdSavePos@@YAXPAD@Z
_TEXT	SEGMENT
_pActor$ = -68						; size = 4
_pVehicle$1 = -56					; size = 4
_fZAngle$ = -44						; size = 4
_dwVehicleID$ = -32					; size = 4
_fileOut$ = -20						; size = 4
_pPlayer$ = -8						; size = 4
_szCmd$ = 8						; size = 4
?cmdSavePos@@YAXPAD@Z PROC				; cmdSavePos, COMDAT

; 222  : {

	push	ebp
	mov	ebp, esp
	sub	esp, 264				; 00000108H
	push	ebx
	push	esi
	push	edi
	lea	edi, DWORD PTR [ebp-264]
	mov	ecx, 66					; 00000042H
	mov	eax, -858993460				; ccccccccH
	rep stosd

; 223  : 	CPlayerPed *pPlayer = pGame->FindPlayerPed();

	mov	ecx, DWORD PTR ?pGame@@3PAVCGame@@A	; pGame
	call	?FindPlayerPed@CGame@@QAEPAVCPlayerPed@@XZ ; CGame::FindPlayerPed
	mov	DWORD PTR _pPlayer$[ebp], eax

; 224  : 	FILE *fileOut;
; 225  : 	DWORD dwVehicleID;
; 226  : 	float fZAngle;
; 227  : 
; 228  : 	//if(!tSettings.bDebug) return;
; 229  : 
; 230  : 	fileOut = fopen("savedpositions.txt","a");

	push	OFFSET ??_C@_01MCMALHOG@a?$AA@
	push	OFFSET ??_C@_0BD@NOAGOKCK@savedpositions?4txt?$AA@
	call	_fopen
	add	esp, 8
	mov	DWORD PTR _fileOut$[ebp], eax

; 231  : 	if(!fileOut) {

	cmp	DWORD PTR _fileOut$[ebp], 0
	jne	SHORT $LN2@cmdSavePos

; 232  : 		pChatWindow->AddDebugMessage("I can't open the savepositions.txt file for append.");

	push	OFFSET ??_C@_0DE@FMDHHILE@I?5can?8t?5open?5the?5savepositions?4t@
	mov	eax, DWORD PTR ?pChatWindow@@3PAVCChatWindow@@A ; pChatWindow
	push	eax
	call	?AddDebugMessage@CChatWindow@@QAAXPADZZ	; CChatWindow::AddDebugMessage
	add	esp, 8

; 233  : 		return;

	jmp	$LN3@cmdSavePos
$LN2@cmdSavePos:

; 234  : 	}
; 235  : 
; 236  : 	// incar savepos
; 237  : 
; 238  : 	if(pPlayer->IsInVehicle()) {

	mov	ecx, DWORD PTR _pPlayer$[ebp]
	call	?IsInVehicle@CPlayerPed@@QAEHXZ		; CPlayerPed::IsInVehicle
	test	eax, eax
	je	$LN1@cmdSavePos

; 239  : 
; 240  : 		VEHICLE_TYPE *pVehicle = pPlayer->GetGtaVehicle();

	mov	ecx, DWORD PTR _pPlayer$[ebp]
	call	?GetGtaVehicle@CPlayerPed@@QAEPAU_VEHICLE_TYPE@@XZ ; CPlayerPed::GetGtaVehicle
	mov	DWORD PTR _pVehicle$1[ebp], eax

; 241  : 	
; 242  : 		dwVehicleID = GamePool_Vehicle_GetIndex(pVehicle);

	mov	eax, DWORD PTR _pVehicle$1[ebp]
	push	eax
	call	?GamePool_Vehicle_GetIndex@@YGKPAU_VEHICLE_TYPE@@@Z ; GamePool_Vehicle_GetIndex
	mov	DWORD PTR _dwVehicleID$[ebp], eax

; 243  : 		ScriptCommand(&get_car_z_angle,dwVehicleID,&fZAngle);

	lea	eax, DWORD PTR _fZAngle$[ebp]
	push	eax
	mov	ecx, DWORD PTR _dwVehicleID$[ebp]
	push	ecx
	push	OFFSET _get_car_z_angle
	call	?ScriptCommand@@YAHPBUSCRIPT_COMMAND@@ZZ ; ScriptCommand
	add	esp, 12					; 0000000cH

; 244  : 
; 245  : 		fprintf(fileOut,"AddStaticVehicle(%u,%.4f,%.4f,%.4f,%.4f,%u,%u); // %s\n",
; 246  : 			pVehicle->entity.nModelIndex,pVehicle->entity.mat->pos.X,pVehicle->entity.mat->pos.Y,pVehicle->entity.mat->pos.Z,
; 247  : 			fZAngle,pVehicle->byteColor1,pVehicle->byteColor2,szCmd);

	mov	eax, DWORD PTR _szCmd$[ebp]
	push	eax
	mov	ecx, DWORD PTR _pVehicle$1[ebp]
	movzx	edx, BYTE PTR [ecx+1077]
	push	edx
	mov	eax, DWORD PTR _pVehicle$1[ebp]
	movzx	ecx, BYTE PTR [eax+1076]
	push	ecx
	cvtss2sd xmm0, DWORD PTR _fZAngle$[ebp]
	sub	esp, 8
	movsd	QWORD PTR [esp], xmm0
	mov	edx, DWORD PTR _pVehicle$1[ebp]
	mov	eax, DWORD PTR [edx+20]
	cvtss2sd xmm0, DWORD PTR [eax+56]
	sub	esp, 8
	movsd	QWORD PTR [esp], xmm0
	mov	ecx, DWORD PTR _pVehicle$1[ebp]
	mov	edx, DWORD PTR [ecx+20]
	cvtss2sd xmm0, DWORD PTR [edx+52]
	sub	esp, 8
	movsd	QWORD PTR [esp], xmm0
	mov	eax, DWORD PTR _pVehicle$1[ebp]
	mov	ecx, DWORD PTR [eax+20]
	cvtss2sd xmm0, DWORD PTR [ecx+48]
	sub	esp, 8
	movsd	QWORD PTR [esp], xmm0
	mov	edx, DWORD PTR _pVehicle$1[ebp]
	movzx	eax, WORD PTR [edx+34]
	push	eax
	push	OFFSET ??_C@_0DH@GAFDDILH@AddStaticVehicle?$CI?$CFu?0?$CF?44f?0?$CF?44f?0?$CF?4@
	mov	ecx, DWORD PTR _fileOut$[ebp]
	push	ecx
	call	_fprintf
	add	esp, 56					; 00000038H

; 248  : 
; 249  : 		fclose(fileOut);

	mov	eax, DWORD PTR _fileOut$[ebp]
	push	eax
	call	_fclose
	add	esp, 4

; 250  : 
; 251  : 		pChatWindow->AddDebugMessage("-> Vehicle pos saved");

	push	OFFSET ??_C@_0BF@MFPHHMLJ@?9?$DO?5Vehicle?5pos?5saved?$AA@
	mov	eax, DWORD PTR ?pChatWindow@@3PAVCChatWindow@@A ; pChatWindow
	push	eax
	call	?AddDebugMessage@CChatWindow@@QAAXPADZZ	; CChatWindow::AddDebugMessage
	add	esp, 8

; 252  : 
; 253  : 		return;

	jmp	$LN3@cmdSavePos
$LN1@cmdSavePos:

; 254  : 	}
; 255  : 
; 256  : 	// onfoot savepos
; 257  : 
; 258  : 	PED_TYPE *pActor = pPlayer->GetGtaActor();

	mov	ecx, DWORD PTR _pPlayer$[ebp]
	call	?GetGtaActor@CPlayerPed@@QAEPAU_PED_TYPE@@XZ ; CPlayerPed::GetGtaActor
	mov	DWORD PTR _pActor$[ebp], eax

; 259  : 	ScriptCommand(&get_actor_z_angle,pPlayer->m_dwGTAId,&fZAngle);

	lea	eax, DWORD PTR _fZAngle$[ebp]
	push	eax
	mov	ecx, DWORD PTR _pPlayer$[ebp]
	mov	edx, DWORD PTR [ecx+8]
	push	edx
	push	OFFSET _get_actor_z_angle
	call	?ScriptCommand@@YAHPBUSCRIPT_COMMAND@@ZZ ; ScriptCommand
	add	esp, 12					; 0000000cH

; 260  : 
; 261  : 	fprintf(fileOut,"AddPlayerClass(%u,%.4f,%.4f,%.4f,%.4f,0,0,0,0,0,0); // %s\n",pPlayer->GetModelIndex(),
; 262  : 		pActor->entity.mat->pos.X,pActor->entity.mat->pos.Y,pActor->entity.mat->pos.Z,fZAngle,szCmd);

	mov	eax, DWORD PTR _szCmd$[ebp]
	push	eax
	cvtss2sd xmm0, DWORD PTR _fZAngle$[ebp]
	sub	esp, 8
	movsd	QWORD PTR [esp], xmm0
	mov	ecx, DWORD PTR _pActor$[ebp]
	mov	edx, DWORD PTR [ecx+20]
	cvtss2sd xmm0, DWORD PTR [edx+56]
	sub	esp, 8
	movsd	QWORD PTR [esp], xmm0
	mov	eax, DWORD PTR _pActor$[ebp]
	mov	ecx, DWORD PTR [eax+20]
	cvtss2sd xmm0, DWORD PTR [ecx+52]
	sub	esp, 8
	movsd	QWORD PTR [esp], xmm0
	mov	edx, DWORD PTR _pActor$[ebp]
	mov	eax, DWORD PTR [edx+20]
	cvtss2sd xmm0, DWORD PTR [eax+48]
	sub	esp, 8
	movsd	QWORD PTR [esp], xmm0
	mov	ecx, DWORD PTR _pPlayer$[ebp]
	call	?GetModelIndex@CEntity@@QAEIXZ		; CEntity::GetModelIndex
	push	eax
	push	OFFSET ??_C@_0DL@HEPJGMGL@AddPlayerClass?$CI?$CFu?0?$CF?44f?0?$CF?44f?0?$CF?44f@
	mov	ecx, DWORD PTR _fileOut$[ebp]
	push	ecx
	call	_fprintf
	add	esp, 48					; 00000030H

; 263  : 
; 264  : 	pChatWindow->AddDebugMessage("-> Class pos saved");

	push	OFFSET ??_C@_0BD@DCGAFJB@?9?$DO?5Class?5pos?5saved?$AA@
	mov	eax, DWORD PTR ?pChatWindow@@3PAVCChatWindow@@A ; pChatWindow
	push	eax
	call	?AddDebugMessage@CChatWindow@@QAAXPADZZ	; CChatWindow::AddDebugMessage
	add	esp, 8

; 265  : 
; 266  : 	fclose(fileOut);

	mov	eax, DWORD PTR _fileOut$[ebp]
	push	eax
	call	_fclose
	add	esp, 4
$LN3@cmdSavePos:

; 267  : }

	push	edx
	mov	ecx, ebp
	push	eax
	lea	edx, DWORD PTR $LN7@cmdSavePos
	call	@_RTC_CheckStackVars@8
	pop	eax
	pop	edx
	pop	edi
	pop	esi
	pop	ebx
	add	esp, 264				; 00000108H
	cmp	ebp, esp
	call	__RTC_CheckEsp
	mov	esp, ebp
	pop	ebp
	ret	0
	npad	1
$LN7@cmdSavePos:
	DD	1
	DD	$LN6@cmdSavePos
$LN6@cmdSavePos:
	DD	-44					; ffffffd4H
	DD	4
	DD	$LN5@cmdSavePos
$LN5@cmdSavePos:
	DB	102					; 00000066H
	DB	90					; 0000005aH
	DB	65					; 00000041H
	DB	110					; 0000006eH
	DB	103					; 00000067H
	DB	108					; 0000006cH
	DB	101					; 00000065H
	DB	0
?cmdSavePos@@YAXPAD@Z ENDP				; cmdSavePos
_TEXT	ENDS
; Function compile flags: /Odtp /RTCsu /ZI
; File z:\sampsrc\02xu1\saco\cmdprocs.cpp
;	COMDAT ?cmdCmpStat@@YAXPAD@Z
_TEXT	SEGMENT
tv142 = -240						; size = 8
tv92 = -240						; size = 8
tv138 = -232						; size = 4
tv88 = -232						; size = 4
tv133 = -228						; size = 8
tv83 = -228						; size = 8
tv129 = -220						; size = 4
tv79 = -220						; size = 4
_downRatio$ = -20					; size = 4
_upRatio$ = -8						; size = 4
_szCmd$ = 8						; size = 4
?cmdCmpStat@@YAXPAD@Z PROC				; cmdCmpStat, COMDAT

; 210  : {

	push	ebp
	mov	ebp, esp
	sub	esp, 240				; 000000f0H
	push	ebx
	push	esi
	push	edi
	lea	edi, DWORD PTR [ebp-240]
	mov	ecx, 60					; 0000003cH
	mov	eax, -858993460				; ccccccccH
	rep stosd

; 211  : 	float upRatio = (float)_sendtoCompressedTotal / _sendtoUncompressedTotal;

	mov	eax, DWORD PTR ?_sendtoCompressedTotal@@3KA ; _sendtoCompressedTotal
	mov	DWORD PTR tv79[ebp], eax
	cvtsi2sd xmm0, DWORD PTR tv79[ebp]
	mov	ecx, DWORD PTR tv79[ebp]
	shr	ecx, 31					; 0000001fH
	addsd	xmm0, QWORD PTR __xmm@41f00000000000000000000000000000[ecx*8]
	movsd	QWORD PTR tv83[ebp], xmm0
	cvtsd2ss xmm0, QWORD PTR tv83[ebp]
	mov	edx, DWORD PTR ?_sendtoUncompressedTotal@@3KA ; _sendtoUncompressedTotal
	mov	DWORD PTR tv88[ebp], edx
	cvtsi2sd xmm1, DWORD PTR tv88[ebp]
	mov	eax, DWORD PTR tv88[ebp]
	shr	eax, 31					; 0000001fH
	addsd	xmm1, QWORD PTR __xmm@41f00000000000000000000000000000[eax*8]
	movsd	QWORD PTR tv92[ebp], xmm1
	cvtsd2ss xmm1, QWORD PTR tv92[ebp]
	divss	xmm0, xmm1
	movss	DWORD PTR _upRatio$[ebp], xmm0

; 212  : 	float downRatio = (float)_recvfromCompressedTotal / _recvfromUncompressedTotal;

	mov	eax, DWORD PTR ?_recvfromCompressedTotal@@3KA ; _recvfromCompressedTotal
	mov	DWORD PTR tv129[ebp], eax
	cvtsi2sd xmm0, DWORD PTR tv129[ebp]
	mov	ecx, DWORD PTR tv129[ebp]
	shr	ecx, 31					; 0000001fH
	addsd	xmm0, QWORD PTR __xmm@41f00000000000000000000000000000[ecx*8]
	movsd	QWORD PTR tv133[ebp], xmm0
	cvtsd2ss xmm0, QWORD PTR tv133[ebp]
	mov	edx, DWORD PTR ?_recvfromUncompressedTotal@@3KA ; _recvfromUncompressedTotal
	mov	DWORD PTR tv138[ebp], edx
	cvtsi2sd xmm1, DWORD PTR tv138[ebp]
	mov	eax, DWORD PTR tv138[ebp]
	shr	eax, 31					; 0000001fH
	addsd	xmm1, QWORD PTR __xmm@41f00000000000000000000000000000[eax*8]
	movsd	QWORD PTR tv142[ebp], xmm1
	cvtsd2ss xmm1, QWORD PTR tv142[ebp]
	divss	xmm0, xmm1
	movss	DWORD PTR _downRatio$[ebp], xmm0

; 213  : 
; 214  : 	if(pChatWindow) {

	cmp	DWORD PTR ?pChatWindow@@3PAVCChatWindow@@A, 0 ; pChatWindow
	je	SHORT $LN1@cmdCmpStat

; 215  : 		pChatWindow->AddDebugMessage("u: %.2f d: %.2f",upRatio*100.0f,downRatio*100.0f);

	movss	xmm0, DWORD PTR _downRatio$[ebp]
	mulss	xmm0, DWORD PTR __real@42c80000
	cvtss2sd xmm0, xmm0
	sub	esp, 8
	movsd	QWORD PTR [esp], xmm0
	movss	xmm0, DWORD PTR _upRatio$[ebp]
	mulss	xmm0, DWORD PTR __real@42c80000
	cvtss2sd xmm0, xmm0
	sub	esp, 8
	movsd	QWORD PTR [esp], xmm0
	push	OFFSET ??_C@_0BA@KDHCFODO@u?3?5?$CF?42f?5d?3?5?$CF?42f?$AA@
	mov	eax, DWORD PTR ?pChatWindow@@3PAVCChatWindow@@A ; pChatWindow
	push	eax
	call	?AddDebugMessage@CChatWindow@@QAAXPADZZ	; CChatWindow::AddDebugMessage
	add	esp, 24					; 00000018H
$LN1@cmdCmpStat:

; 216  : 	}	
; 217  : }

	pop	edi
	pop	esi
	pop	ebx
	add	esp, 240				; 000000f0H
	cmp	ebp, esp
	call	__RTC_CheckEsp
	mov	esp, ebp
	pop	ebp
	ret	0
?cmdCmpStat@@YAXPAD@Z ENDP				; cmdCmpStat
_TEXT	ENDS
; Function compile flags: /Odtp /RTCsu /ZI
; File z:\sampsrc\02xu1\raknet\bitstream.h
;	COMDAT ??$Write@E@BitStream@RakNet@@QAEXE@Z
_TEXT	SEGMENT
_this$ = -8						; size = 4
_var$ = 8						; size = 1
??$Write@E@BitStream@RakNet@@QAEXE@Z PROC		; RakNet::BitStream::Write<unsigned char>, COMDAT
; _this$ = ecx

; 729  : 	{

	push	ebp
	mov	ebp, esp
	sub	esp, 204				; 000000ccH
	push	ebx
	push	esi
	push	edi
	push	ecx
	lea	edi, DWORD PTR [ebp-204]
	mov	ecx, 51					; 00000033H
	mov	eax, -858993460				; ccccccccH
	rep stosd
	pop	ecx
	mov	DWORD PTR _this$[ebp], ecx

; 730  : #ifdef _MSC_VER
; 731  : #pragma warning(disable:4127)   // conditional expression is constant
; 732  : #endif
; 733  : 		if (sizeof(var)==1)

	mov	eax, 1
	test	eax, eax
	je	SHORT $LN2@Write

; 734  : 			WriteBits( ( unsigned char* ) & var, sizeof( templateType ) * 8, true );

	push	1
	push	8
	lea	eax, DWORD PTR _var$[ebp]
	push	eax
	mov	ecx, DWORD PTR _this$[ebp]
	call	?WriteBits@BitStream@RakNet@@QAEXPBEH_N@Z ; RakNet::BitStream::WriteBits

; 735  : 		else

	jmp	SHORT $LN3@Write
$LN2@Write:

; 736  : 		{
; 737  : #ifndef __BITSTREAM_NATIVE_END
; 738  : 			if (DoEndianSwap())
; 739  : 			{
; 740  : 				unsigned char output[sizeof(templateType)];
; 741  : 				ReverseBytes((unsigned char*)&var, output, sizeof(templateType));
; 742  : 				WriteBits( ( unsigned char* ) output, sizeof(templateType) * 8, true );
; 743  : 			}
; 744  : 			else
; 745  : #endif
; 746  : 				WriteBits( ( unsigned char* ) & var, sizeof(templateType) * 8, true );

	push	1
	push	8
	lea	eax, DWORD PTR _var$[ebp]
	push	eax
	mov	ecx, DWORD PTR _this$[ebp]
	call	?WriteBits@BitStream@RakNet@@QAEXPBEH_N@Z ; RakNet::BitStream::WriteBits
$LN3@Write:

; 747  : 		}
; 748  : 	}

	pop	edi
	pop	esi
	pop	ebx
	add	esp, 204				; 000000ccH
	cmp	ebp, esp
	call	__RTC_CheckEsp
	mov	esp, ebp
	pop	ebp
	ret	4
??$Write@E@BitStream@RakNet@@QAEXE@Z ENDP		; RakNet::BitStream::Write<unsigned char>
_TEXT	ENDS
; Function compile flags: /Odtp /RTCsu /ZI
; File z:\sampsrc\02xu1\saco\cmdprocs.cpp
;	COMDAT ?cmdRcon@@YAXPAD@Z
_TEXT	SEGMENT
tv80 = -520						; size = 4
_dwCmdLen$ = -320					; size = 4
_bsCommand$ = -308					; size = 273
_bytePacketId$ = -21					; size = 1
__$ArrayPad$ = -16					; size = 4
__$EHRec$ = -12						; size = 12
_szCmd$ = 8						; size = 4
?cmdRcon@@YAXPAD@Z PROC					; cmdRcon, COMDAT

; 195  : {

	push	ebp
	mov	ebp, esp
	push	-1
	push	__ehhandler$?cmdRcon@@YAXPAD@Z
	mov	eax, DWORD PTR fs:0
	push	eax
	sub	esp, 508				; 000001fcH
	push	ebx
	push	esi
	push	edi
	lea	edi, DWORD PTR [ebp-520]
	mov	ecx, 127				; 0000007fH
	mov	eax, -858993460				; ccccccccH
	rep stosd
	mov	eax, DWORD PTR ___security_cookie
	xor	eax, ebp
	mov	DWORD PTR __$ArrayPad$[ebp], eax
	push	eax
	lea	eax, DWORD PTR __$EHRec$[ebp]
	mov	DWORD PTR fs:0, eax

; 196  : 	if (!szCmd) return;

	cmp	DWORD PTR _szCmd$[ebp], 0
	jne	SHORT $LN1@cmdRcon
	jmp	$LN2@cmdRcon
$LN1@cmdRcon:

; 197  : 
; 198  : 	BYTE bytePacketId = ID_RCON_COMMAND;

	mov	BYTE PTR _bytePacketId$[ebp], 100	; 00000064H

; 199  : 	RakNet::BitStream bsCommand;

	lea	ecx, DWORD PTR _bsCommand$[ebp]
	call	??0BitStream@RakNet@@QAE@XZ		; RakNet::BitStream::BitStream
	mov	DWORD PTR __$EHRec$[ebp+8], 0

; 200  : 	bsCommand.Write(bytePacketId);

	movzx	eax, BYTE PTR _bytePacketId$[ebp]
	push	eax
	lea	ecx, DWORD PTR _bsCommand$[ebp]
	call	??$Write@E@BitStream@RakNet@@QAEXE@Z	; RakNet::BitStream::Write<unsigned char>

; 201  : 	DWORD dwCmdLen = (DWORD)strlen(szCmd);

	mov	eax, DWORD PTR _szCmd$[ebp]
	push	eax
	call	_strlen
	add	esp, 4
	mov	DWORD PTR _dwCmdLen$[ebp], eax

; 202  : 	bsCommand.Write(dwCmdLen);

	mov	eax, DWORD PTR _dwCmdLen$[ebp]
	push	eax
	lea	ecx, DWORD PTR _bsCommand$[ebp]
	call	??$Write@K@BitStream@RakNet@@QAEXK@Z	; RakNet::BitStream::Write<unsigned long>

; 203  : 	bsCommand.Write(szCmd, dwCmdLen);

	mov	eax, DWORD PTR _dwCmdLen$[ebp]
	push	eax
	mov	ecx, DWORD PTR _szCmd$[ebp]
	push	ecx
	lea	ecx, DWORD PTR _bsCommand$[ebp]
	call	?Write@BitStream@RakNet@@QAEXPBDH@Z	; RakNet::BitStream::Write

; 204  : 	pNetGame->GetRakClient()->Send(&bsCommand, HIGH_PRIORITY, RELIABLE, 0);

	mov	ecx, DWORD PTR ?pNetGame@@3PAVCNetGame@@A ; pNetGame
	call	?GetRakClient@CNetGame@@QAEPAVRakClientInterface@@XZ ; CNetGame::GetRakClient
	mov	DWORD PTR tv80[ebp], eax
	mov	esi, esp
	push	0
	push	2
	push	1
	lea	eax, DWORD PTR _bsCommand$[ebp]
	push	eax
	mov	ecx, DWORD PTR tv80[ebp]
	mov	edx, DWORD PTR [ecx]
	mov	ecx, DWORD PTR tv80[ebp]
	mov	eax, DWORD PTR [edx+24]
	call	eax
	cmp	esi, esp
	call	__RTC_CheckEsp

; 205  : }

	mov	DWORD PTR __$EHRec$[ebp+8], -1
	lea	ecx, DWORD PTR _bsCommand$[ebp]
	call	??1BitStream@RakNet@@QAE@XZ		; RakNet::BitStream::~BitStream
$LN2@cmdRcon:
	push	edx
	mov	ecx, ebp
	push	eax
	lea	edx, DWORD PTR $LN8@cmdRcon
	call	@_RTC_CheckStackVars@8
	pop	eax
	pop	edx
	mov	ecx, DWORD PTR __$EHRec$[ebp]
	mov	DWORD PTR fs:0, ecx
	pop	ecx
	pop	edi
	pop	esi
	pop	ebx
	mov	ecx, DWORD PTR __$ArrayPad$[ebp]
	xor	ecx, ebp
	call	@__security_check_cookie@4
	add	esp, 520				; 00000208H
	cmp	ebp, esp
	call	__RTC_CheckEsp
	mov	esp, ebp
	pop	ebp
	ret	0
	npad	3
$LN8@cmdRcon:
	DD	1
	DD	$LN7@cmdRcon
$LN7@cmdRcon:
	DD	-308					; fffffeccH
	DD	273					; 00000111H
	DD	$LN5@cmdRcon
