; Listing generated by Microsoft (R) Optimizing Compiler Version 18.00.31101.0 

	TITLE	Z:\sampsrc\02Xu1\raknet\ConnectionGraph.cpp
	.686P
	.XMM
	include listing.inc
	.model	flat

INCLUDELIB LIBCMTD
INCLUDELIB OLDNAMES

CONST	SEGMENT
?length@?1??NotifyUserOfRemoteConnection@ConnectionGraph@@IAEXABUPlayerIdAndGroupId@2@0GPAVRakPeerInterface@@@Z@4HB DD 011H ; `ConnectionGraph::NotifyUserOfRemoteConnection'::`2'::length
_UNASSIGNED_PLAYER_ID DD 0ffffffffH
	DW	0ffffH
CONST	ENDS
PUBLIC	??4PlayerID@@QAEAAU0@ABU0@@Z			; PlayerID::operator=
PUBLIC	??0PluginInterface@@QAE@XZ			; PluginInterface::PluginInterface
PUBLIC	??0ConnectionGraph@@QAE@XZ			; ConnectionGraph::ConnectionGraph
PUBLIC	??1ConnectionGraph@@QAE@XZ			; ConnectionGraph::~ConnectionGraph
PUBLIC	??0PlayerIdAndGroupId@ConnectionGraph@@QAE@XZ	; ConnectionGraph::PlayerIdAndGroupId::PlayerIdAndGroupId
PUBLIC	??1PlayerIdAndGroupId@ConnectionGraph@@QAE@XZ	; ConnectionGraph::PlayerIdAndGroupId::~PlayerIdAndGroupId
PUBLIC	??0PlayerIdAndGroupId@ConnectionGraph@@QAE@UPlayerID@@E@Z ; ConnectionGraph::PlayerIdAndGroupId::PlayerIdAndGroupId
PUBLIC	??8PlayerIdAndGroupId@ConnectionGraph@@QBE_NABU01@@Z ; ConnectionGraph::PlayerIdAndGroupId::operator==
PUBLIC	??9PlayerIdAndGroupId@ConnectionGraph@@QBE_NABU01@@Z ; ConnectionGraph::PlayerIdAndGroupId::operator!=
PUBLIC	??OPlayerIdAndGroupId@ConnectionGraph@@QBE_NABU01@@Z ; ConnectionGraph::PlayerIdAndGroupId::operator>
PUBLIC	??MPlayerIdAndGroupId@ConnectionGraph@@QBE_NABU01@@Z ; ConnectionGraph::PlayerIdAndGroupId::operator<
PUBLIC	??4PlayerIdAndGroupId@ConnectionGraph@@QAEAAU01@ABU01@@Z ; ConnectionGraph::PlayerIdAndGroupId::operator=
PUBLIC	??_EPlayerIdAndGroupId@ConnectionGraph@@QAEPAXI@Z ; ConnectionGraph::PlayerIdAndGroupId::`vector deleting destructor'
PUBLIC	?SetPassword@ConnectionGraph@@QAEXPBD@Z		; ConnectionGraph::SetPassword
PUBLIC	?GetGraph@ConnectionGraph@@QAEPAV?$WeightedGraph@UPlayerIdAndGroupId@ConnectionGraph@@G$0A@@DataStructures@@XZ ; ConnectionGraph::GetGraph
PUBLIC	?SetAutoAddNewConnections@ConnectionGraph@@QAEX_N@Z ; ConnectionGraph::SetAutoAddNewConnections
PUBLIC	?RequestConnectionGraph@ConnectionGraph@@QAEXPAVRakPeerInterface@@UPlayerID@@@Z ; ConnectionGraph::RequestConnectionGraph
PUBLIC	?AddNewConnection@ConnectionGraph@@QAEXPAVRakPeerInterface@@UPlayerID@@E@Z ; ConnectionGraph::AddNewConnection
PUBLIC	?SetGroupId@ConnectionGraph@@QAEXE@Z		; ConnectionGraph::SetGroupId
PUBLIC	?SubscribeToGroup@ConnectionGraph@@QAEXE@Z	; ConnectionGraph::SubscribeToGroup
PUBLIC	?UnsubscribeFromGroup@ConnectionGraph@@QAEXE@Z	; ConnectionGraph::UnsubscribeFromGroup
PUBLIC	?OnDisconnect@ConnectionGraph@@UAEXPAVRakPeerInterface@@@Z ; ConnectionGraph::OnDisconnect
PUBLIC	?Update@ConnectionGraph@@UAEXPAVRakPeerInterface@@@Z ; ConnectionGraph::Update
PUBLIC	?OnReceive@ConnectionGraph@@UAE?AW4PluginReceiveResult@@PAVRakPeerInterface@@PAUPacket@@@Z ; ConnectionGraph::OnReceive
PUBLIC	?OnCloseConnection@ConnectionGraph@@UAEXPAVRakPeerInterface@@UPlayerID@@@Z ; ConnectionGraph::OnCloseConnection
PUBLIC	?HandleDroppedConnection@ConnectionGraph@@IAEXPAVRakPeerInterface@@UPlayerID@@E@Z ; ConnectionGraph::HandleDroppedConnection
PUBLIC	?OnNewIncomingConnection@ConnectionGraph@@IAEXPAVRakPeerInterface@@PAUPacket@@@Z ; ConnectionGraph::OnNewIncomingConnection
PUBLIC	?OnConnectionRequestAccepted@ConnectionGraph@@IAEXPAVRakPeerInterface@@PAUPacket@@@Z ; ConnectionGraph::OnConnectionRequestAccepted
PUBLIC	?OnConnectionGraphRequest@ConnectionGraph@@IAEXPAVRakPeerInterface@@PAUPacket@@@Z ; ConnectionGraph::OnConnectionGraphRequest
PUBLIC	?OnConnectionGraphReply@ConnectionGraph@@IAEXPAVRakPeerInterface@@PAUPacket@@@Z ; ConnectionGraph::OnConnectionGraphReply
PUBLIC	?OnConnectionGraphUpdate@ConnectionGraph@@IAEXPAVRakPeerInterface@@PAUPacket@@@Z ; ConnectionGraph::OnConnectionGraphUpdate
PUBLIC	?OnNewConnection@ConnectionGraph@@IAEXPAVRakPeerInterface@@PAUPacket@@@Z ; ConnectionGraph::OnNewConnection
PUBLIC	?OnConnectionLost@ConnectionGraph@@IAE_NPAVRakPeerInterface@@PAUPacket@@E@Z ; ConnectionGraph::OnConnectionLost
PUBLIC	?SerializeWeightedGraph@ConnectionGraph@@IBEXPAVBitStream@RakNet@@ABV?$WeightedGraph@UPlayerIdAndGroupId@ConnectionGraph@@G$0A@@DataStructures@@@Z ; ConnectionGraph::SerializeWeightedGraph
PUBLIC	?DeserializeWeightedGraph@ConnectionGraph@@IAE_NPAVBitStream@RakNet@@PAVRakPeerInterface@@@Z ; ConnectionGraph::DeserializeWeightedGraph
PUBLIC	??$defaultOrderedListComparison@UPlayerID@@U1@@DataStructures@@YAHABUPlayerID@@0@Z ; DataStructures::defaultOrderedListComparison<PlayerID,PlayerID>
PUBLIC	?AddAndRelayConnection@ConnectionGraph@@IAEXAAV?$OrderedList@UPlayerID@@U1@$1??$defaultOrderedListComparison@UPlayerID@@U1@@DataStructures@@YAHABU1@0@Z@DataStructures@@ABUPlayerIdAndGroupId@1@1GPAVRakPeerInterface@@@Z ; ConnectionGraph::AddAndRelayConnection
PUBLIC	?RemoveAndRelayConnection@ConnectionGraph@@IAE_NAAV?$OrderedList@UPlayerID@@U1@$1??$defaultOrderedListComparison@UPlayerID@@U1@@DataStructures@@YAHABU1@0@Z@DataStructures@@EUPlayerID@@1PAVRakPeerInterface@@@Z ; ConnectionGraph::RemoveAndRelayConnection
PUBLIC	?RemoveParticipant@ConnectionGraph@@IAEXUPlayerID@@@Z ; ConnectionGraph::RemoveParticipant
PUBLIC	?AddParticipant@ConnectionGraph@@IAEXUPlayerID@@@Z ; ConnectionGraph::AddParticipant
PUBLIC	?BroadcastGraphUpdate@ConnectionGraph@@IAEXAAV?$OrderedList@UPlayerID@@U1@$1??$defaultOrderedListComparison@UPlayerID@@U1@@DataStructures@@YAHABU1@0@Z@DataStructures@@PAVRakPeerInterface@@@Z ; ConnectionGraph::BroadcastGraphUpdate
PUBLIC	?NotifyUserOfRemoteConnection@ConnectionGraph@@IAEXABUPlayerIdAndGroupId@1@0GPAVRakPeerInterface@@@Z ; ConnectionGraph::NotifyUserOfRemoteConnection
PUBLIC	?IsNewRemoteConnection@ConnectionGraph@@IAE_NABUPlayerIdAndGroupId@1@0PAVRakPeerInterface@@@Z ; ConnectionGraph::IsNewRemoteConnection
PUBLIC	?DeserializeIgnoreList@ConnectionGraph@@IAE_NAAV?$OrderedList@UPlayerID@@U1@$1??$defaultOrderedListComparison@UPlayerID@@U1@@DataStructures@@YAHABU1@0@Z@DataStructures@@PAVBitStream@RakNet@@@Z ; ConnectionGraph::DeserializeIgnoreList
PUBLIC	?SerializeIgnoreListAndBroadcast@ConnectionGraph@@IAEXPAVBitStream@RakNet@@AAV?$OrderedList@UPlayerID@@U1@$1??$defaultOrderedListComparison@UPlayerID@@U1@@DataStructures@@YAHABU1@0@Z@DataStructures@@PAVRakPeerInterface@@@Z ; ConnectionGraph::SerializeIgnoreListAndBroadcast
PUBLIC	?IMPLEMENT_DEFAULT_COMPARISON@?$OrderedList@UPlayerID@@U1@$1??$defaultOrderedListComparison@UPlayerID@@U1@@DataStructures@@YAHABU1@0@Z@DataStructures@@SAXXZ ; DataStructures::OrderedList<PlayerID,PlayerID,&DataStructures::defaultOrderedListComparison<PlayerID,PlayerID> >::IMPLEMENT_DEFAULT_COMPARISON
PUBLIC	??0?$OrderedList@UPlayerID@@U1@$1??$defaultOrderedListComparison@UPlayerID@@U1@@DataStructures@@YAHABU1@0@Z@DataStructures@@QAE@XZ ; DataStructures::OrderedList<PlayerID,PlayerID,&DataStructures::defaultOrderedListComparison<PlayerID,PlayerID> >::OrderedList<PlayerID,PlayerID,&DataStructures::defaultOrderedListComparison<PlayerID,PlayerID> >
PUBLIC	??1?$OrderedList@UPlayerID@@U1@$1??$defaultOrderedListComparison@UPlayerID@@U1@@DataStructures@@YAHABU1@0@Z@DataStructures@@QAE@XZ ; DataStructures::OrderedList<PlayerID,PlayerID,&DataStructures::defaultOrderedListComparison<PlayerID,PlayerID> >::~OrderedList<PlayerID,PlayerID,&DataStructures::defaultOrderedListComparison<PlayerID,PlayerID> >
PUBLIC	?HasData@?$OrderedList@UPlayerID@@U1@$1??$defaultOrderedListComparison@UPlayerID@@U1@@DataStructures@@YAHABU1@0@Z@DataStructures@@QBE_NABUPlayerID@@@Z ; DataStructures::OrderedList<PlayerID,PlayerID,&DataStructures::defaultOrderedListComparison<PlayerID,PlayerID> >::HasData
PUBLIC	?GetIndexFromKey@?$OrderedList@UPlayerID@@U1@$1??$defaultOrderedListComparison@UPlayerID@@U1@@DataStructures@@YAHABU1@0@Z@DataStructures@@QBEIABUPlayerID@@PA_N@Z ; DataStructures::OrderedList<PlayerID,PlayerID,&DataStructures::defaultOrderedListComparison<PlayerID,PlayerID> >::GetIndexFromKey
PUBLIC	?Insert@?$OrderedList@UPlayerID@@U1@$1??$defaultOrderedListComparison@UPlayerID@@U1@@DataStructures@@YAHABU1@0@Z@DataStructures@@QAEIABUPlayerID@@0@Z ; DataStructures::OrderedList<PlayerID,PlayerID,&DataStructures::defaultOrderedListComparison<PlayerID,PlayerID> >::Insert
PUBLIC	??A?$OrderedList@UPlayerID@@U1@$1??$defaultOrderedListComparison@UPlayerID@@U1@@DataStructures@@YAHABU1@0@Z@DataStructures@@QBEAAUPlayerID@@I@Z ; DataStructures::OrderedList<PlayerID,PlayerID,&DataStructures::defaultOrderedListComparison<PlayerID,PlayerID> >::operator[]
PUBLIC	?RemoveAtIndex@?$OrderedList@UPlayerID@@U1@$1??$defaultOrderedListComparison@UPlayerID@@U1@@DataStructures@@YAHABU1@0@Z@DataStructures@@QAEXI@Z ; DataStructures::OrderedList<PlayerID,PlayerID,&DataStructures::defaultOrderedListComparison<PlayerID,PlayerID> >::RemoveAtIndex
PUBLIC	?Clear@?$OrderedList@UPlayerID@@U1@$1??$defaultOrderedListComparison@UPlayerID@@U1@@DataStructures@@YAHABU1@0@Z@DataStructures@@QAEXXZ ; DataStructures::OrderedList<PlayerID,PlayerID,&DataStructures::defaultOrderedListComparison<PlayerID,PlayerID> >::Clear
PUBLIC	?Size@?$OrderedList@UPlayerID@@U1@$1??$defaultOrderedListComparison@UPlayerID@@U1@@DataStructures@@YAHABU1@0@Z@DataStructures@@QBEIXZ ; DataStructures::OrderedList<PlayerID,PlayerID,&DataStructures::defaultOrderedListComparison<PlayerID,PlayerID> >::Size
PUBLIC	??0?$List@UPlayerID@@@DataStructures@@QAE@XZ	; DataStructures::List<PlayerID>::List<PlayerID>
PUBLIC	??1?$List@UPlayerID@@@DataStructures@@QAE@XZ	; DataStructures::List<PlayerID>::~List<PlayerID>
PUBLIC	??A?$List@UPlayerID@@@DataStructures@@QBEAAUPlayerID@@I@Z ; DataStructures::List<PlayerID>::operator[]
PUBLIC	?Insert@?$List@UPlayerID@@@DataStructures@@QAEXUPlayerID@@I@Z ; DataStructures::List<PlayerID>::Insert
PUBLIC	?Insert@?$List@UPlayerID@@@DataStructures@@QAEXUPlayerID@@@Z ; DataStructures::List<PlayerID>::Insert
PUBLIC	?RemoveAtIndex@?$List@UPlayerID@@@DataStructures@@QAEXI@Z ; DataStructures::List<PlayerID>::RemoveAtIndex
PUBLIC	?Del@?$List@UPlayerID@@@DataStructures@@QAEXI@Z	; DataStructures::List<PlayerID>::Del
PUBLIC	?Size@?$List@UPlayerID@@@DataStructures@@QBEIXZ	; DataStructures::List<PlayerID>::Size
PUBLIC	?Clear@?$List@UPlayerID@@@DataStructures@@QAEX_N@Z ; DataStructures::List<PlayerID>::Clear
PUBLIC	?IMPLEMENT_DEFAULT_COMPARISON@?$WeightedGraph@UPlayerIdAndGroupId@ConnectionGraph@@G$0A@@DataStructures@@SAXXZ ; DataStructures::WeightedGraph<ConnectionGraph::PlayerIdAndGroupId,unsigned short,0>::IMPLEMENT_DEFAULT_COMPARISON
PUBLIC	??0?$WeightedGraph@UPlayerIdAndGroupId@ConnectionGraph@@G$0A@@DataStructures@@QAE@XZ ; DataStructures::WeightedGraph<ConnectionGraph::PlayerIdAndGroupId,unsigned short,0>::WeightedGraph<ConnectionGraph::PlayerIdAndGroupId,unsigned short,0>
PUBLIC	??1?$WeightedGraph@UPlayerIdAndGroupId@ConnectionGraph@@G$0A@@DataStructures@@QAE@XZ ; DataStructures::WeightedGraph<ConnectionGraph::PlayerIdAndGroupId,unsigned short,0>::~WeightedGraph<ConnectionGraph::PlayerIdAndGroupId,unsigned short,0>
PUBLIC	?AddNode@?$WeightedGraph@UPlayerIdAndGroupId@ConnectionGraph@@G$0A@@DataStructures@@QAEXABUPlayerIdAndGroupId@ConnectionGraph@@@Z ; DataStructures::WeightedGraph<ConnectionGraph::PlayerIdAndGroupId,unsigned short,0>::AddNode
PUBLIC	?RemoveNode@?$WeightedGraph@UPlayerIdAndGroupId@ConnectionGraph@@G$0A@@DataStructures@@QAEXABUPlayerIdAndGroupId@ConnectionGraph@@@Z ; DataStructures::WeightedGraph<ConnectionGraph::PlayerIdAndGroupId,unsigned short,0>::RemoveNode
PUBLIC	?AddConnection@?$WeightedGraph@UPlayerIdAndGroupId@ConnectionGraph@@G$0A@@DataStructures@@QAEXABUPlayerIdAndGroupId@ConnectionGraph@@0G@Z ; DataStructures::WeightedGraph<ConnectionGraph::PlayerIdAndGroupId,unsigned short,0>::AddConnection
PUBLIC	?RemoveConnection@?$WeightedGraph@UPlayerIdAndGroupId@ConnectionGraph@@G$0A@@DataStructures@@QAEXABUPlayerIdAndGroupId@ConnectionGraph@@0@Z ; DataStructures::WeightedGraph<ConnectionGraph::PlayerIdAndGroupId,unsigned short,0>::RemoveConnection
PUBLIC	?HasConnection@?$WeightedGraph@UPlayerIdAndGroupId@ConnectionGraph@@G$0A@@DataStructures@@QAE_NABUPlayerIdAndGroupId@ConnectionGraph@@0@Z ; DataStructures::WeightedGraph<ConnectionGraph::PlayerIdAndGroupId,unsigned short,0>::HasConnection
PUBLIC	?Clear@?$WeightedGraph@UPlayerIdAndGroupId@ConnectionGraph@@G$0A@@DataStructures@@QAEXXZ ; DataStructures::WeightedGraph<ConnectionGraph::PlayerIdAndGroupId,unsigned short,0>::Clear
PUBLIC	?GetNodeCount@?$WeightedGraph@UPlayerIdAndGroupId@ConnectionGraph@@G$0A@@DataStructures@@QBEIXZ ; DataStructures::WeightedGraph<ConnectionGraph::PlayerIdAndGroupId,unsigned short,0>::GetNodeCount
PUBLIC	?GetConnectionCount@?$WeightedGraph@UPlayerIdAndGroupId@ConnectionGraph@@G$0A@@DataStructures@@QBEII@Z ; DataStructures::WeightedGraph<ConnectionGraph::PlayerIdAndGroupId,unsigned short,0>::GetConnectionCount
PUBLIC	?GetConnectionAtIndex@?$WeightedGraph@UPlayerIdAndGroupId@ConnectionGraph@@G$0A@@DataStructures@@QBEXIIAAUPlayerIdAndGroupId@ConnectionGraph@@AAG@Z ; DataStructures::WeightedGraph<ConnectionGraph::PlayerIdAndGroupId,unsigned short,0>::GetConnectionAtIndex
PUBLIC	?GetNodeAtIndex@?$WeightedGraph@UPlayerIdAndGroupId@ConnectionGraph@@G$0A@@DataStructures@@QBE?AUPlayerIdAndGroupId@ConnectionGraph@@I@Z ; DataStructures::WeightedGraph<ConnectionGraph::PlayerIdAndGroupId,unsigned short,0>::GetNodeAtIndex
PUBLIC	?ClearDijkstra@?$WeightedGraph@UPlayerIdAndGroupId@ConnectionGraph@@G$0A@@DataStructures@@IAEXXZ ; DataStructures::WeightedGraph<ConnectionGraph::PlayerIdAndGroupId,unsigned short,0>::ClearDijkstra
PUBLIC	??$defaultMapKeyComparison@UPlayerIdAndGroupId@ConnectionGraph@@@DataStructures@@YAHABUPlayerIdAndGroupId@ConnectionGraph@@0@Z ; DataStructures::defaultMapKeyComparison<ConnectionGraph::PlayerIdAndGroupId>
PUBLIC	?NodeComparisonFunc@?$Map@UPlayerIdAndGroupId@ConnectionGraph@@PAV?$Map@UPlayerIdAndGroupId@ConnectionGraph@@G$1??$defaultMapKeyComparison@UPlayerIdAndGroupId@ConnectionGraph@@@DataStructures@@YAHABU12@0@Z@DataStructures@@$1??$defaultMapKeyComparison@UPlayerIdAndGroupId@ConnectionGraph@@@4@YAHABU12@0@Z@DataStructures@@SAHABUPlayerIdAndGroupId@ConnectionGraph@@ABUMapNode@12@@Z ; DataStructures::Map<ConnectionGraph::PlayerIdAndGroupId,DataStructures::Map<ConnectionGraph::PlayerIdAndGroupId,unsigned short,&DataStructures::defaultMapKeyComparison<ConnectionGraph::PlayerIdAndGroupId> > *,&DataStructures::defaultMapKeyComparison<ConnectionGraph::PlayerIdAndGroupId> >::NodeComparisonFunc
PUBLIC	??0?$Map@UPlayerIdAndGroupId@ConnectionGraph@@PAV?$Map@UPlayerIdAndGroupId@ConnectionGraph@@G$1??$defaultMapKeyComparison@UPlayerIdAndGroupId@ConnectionGraph@@@DataStructures@@YAHABU12@0@Z@DataStructures@@$1??$defaultMapKeyComparison@UPlayerIdAndGroupId@ConnectionGraph@@@4@YAHABU12@0@Z@DataStructures@@QAE@XZ ; DataStructures::Map<ConnectionGraph::PlayerIdAndGroupId,DataStructures::Map<ConnectionGraph::PlayerIdAndGroupId,unsigned short,&DataStructures::defaultMapKeyComparison<ConnectionGraph::PlayerIdAndGroupId> > *,&DataStructures::defaultMapKeyComparison<ConnectionGraph::PlayerIdAndGroupId> >::Map<ConnectionGraph::PlayerIdAndGroupId,DataStructures::Map<ConnectionGraph::PlayerIdAndGroupId,unsigned short,&DataStructures::defaultMapKeyComparison<ConnectionGraph::PlayerIdAndGroupId> > *,&DataStructures::defaultMapKeyComparison<ConnectionGraph::PlayerIdAndGroupId> >
PUBLIC	??1?$Map@UPlayerIdAndGroupId@ConnectionGraph@@PAV?$Map@UPlayerIdAndGroupId@ConnectionGraph@@G$1??$defaultMapKeyComparison@UPlayerIdAndGroupId@ConnectionGraph@@@DataStructures@@YAHABU12@0@Z@DataStructures@@$1??$defaultMapKeyComparison@UPlayerIdAndGroupId@ConnectionGraph@@@4@YAHABU12@0@Z@DataStructures@@QAE@XZ ; DataStructures::Map<ConnectionGraph::PlayerIdAndGroupId,DataStructures::Map<ConnectionGraph::PlayerIdAndGroupId,unsigned short,&DataStructures::defaultMapKeyComparison<ConnectionGraph::PlayerIdAndGroupId> > *,&DataStructures::defaultMapKeyComparison<ConnectionGraph::PlayerIdAndGroupId> >::~Map<ConnectionGraph::PlayerIdAndGroupId,DataStructures::Map<ConnectionGraph::PlayerIdAndGroupId,unsigned short,&DataStructures::defaultMapKeyComparison<ConnectionGraph::PlayerIdAndGroupId> > *,&DataStructures::defaultMapKeyComparison<ConnectionGraph::PlayerIdAndGroupId> >
PUBLIC	?Get@?$Map@UPlayerIdAndGroupId@ConnectionGraph@@PAV?$Map@UPlayerIdAndGroupId@ConnectionGraph@@G$1??$defaultMapKeyComparison@UPlayerIdAndGroupId@ConnectionGraph@@@DataStructures@@YAHABU12@0@Z@DataStructures@@$1??$defaultMapKeyComparison@UPlayerIdAndGroupId@ConnectionGraph@@@4@YAHABU12@0@Z@DataStructures@@QAEAAPAV?$Map@UPlayerIdAndGroupId@ConnectionGraph@@G$1??$defaultMapKeyComparison@UPlayerIdAndGroupId@ConnectionGraph@@@DataStructures@@YAHABU12@0@Z@2@ABUPlayerIdAndGroupId@ConnectionGraph@@@Z ; DataStructures::Map<ConnectionGraph::PlayerIdAndGroupId,DataStructures::Map<ConnectionGraph::PlayerIdAndGroupId,unsigned short,&DataStructures::defaultMapKeyComparison<ConnectionGraph::PlayerIdAndGroupId> > *,&DataStructures::defaultMapKeyComparison<ConnectionGraph::PlayerIdAndGroupId> >::Get
PUBLIC	?Pop@?$Map@UPlayerIdAndGroupId@ConnectionGraph@@PAV?$Map@UPlayerIdAndGroupId@ConnectionGraph@@G$1??$defaultMapKeyComparison@UPlayerIdAndGroupId@ConnectionGraph@@@DataStructures@@YAHABU12@0@Z@DataStructures@@$1??$defaultMapKeyComparison@UPlayerIdAndGroupId@ConnectionGraph@@@4@YAHABU12@0@Z@DataStructures@@QAEPAV?$Map@UPlayerIdAndGroupId@ConnectionGraph@@G$1??$defaultMapKeyComparison@UPlayerIdAndGroupId@ConnectionGraph@@@DataStructures@@YAHABU12@0@Z@2@ABUPlayerIdAndGroupId@ConnectionGraph@@@Z ; DataStructures::Map<ConnectionGraph::PlayerIdAndGroupId,DataStructures::Map<ConnectionGraph::PlayerIdAndGroupId,unsigned short,&DataStructures::defaultMapKeyComparison<ConnectionGraph::PlayerIdAndGroupId> > *,&DataStructures::defaultMapKeyComparison<ConnectionGraph::PlayerIdAndGroupId> >::Pop
PUBLIC	?SetNew@?$Map@UPlayerIdAndGroupId@ConnectionGraph@@PAV?$Map@UPlayerIdAndGroupId@ConnectionGraph@@G$1??$defaultMapKeyComparison@UPlayerIdAndGroupId@ConnectionGraph@@@DataStructures@@YAHABU12@0@Z@DataStructures@@$1??$defaultMapKeyComparison@UPlayerIdAndGroupId@ConnectionGraph@@@4@YAHABU12@0@Z@DataStructures@@QAEXABUPlayerIdAndGroupId@ConnectionGraph@@ABQAV?$Map@UPlayerIdAndGroupId@ConnectionGraph@@G$1??$defaultMapKeyComparison@UPlayerIdAndGroupId@ConnectionGraph@@@DataStructures@@YAHABU12@0@Z@2@@Z ; DataStructures::Map<ConnectionGraph::PlayerIdAndGroupId,DataStructures::Map<ConnectionGraph::PlayerIdAndGroupId,unsigned short,&DataStructures::defaultMapKeyComparison<ConnectionGraph::PlayerIdAndGroupId> > *,&DataStructures::defaultMapKeyComparison<ConnectionGraph::PlayerIdAndGroupId> >::SetNew
PUBLIC	?Has@?$Map@UPlayerIdAndGroupId@ConnectionGraph@@PAV?$Map@UPlayerIdAndGroupId@ConnectionGraph@@G$1??$defaultMapKeyComparison@UPlayerIdAndGroupId@ConnectionGraph@@@DataStructures@@YAHABU12@0@Z@DataStructures@@$1??$defaultMapKeyComparison@UPlayerIdAndGroupId@ConnectionGraph@@@4@YAHABU12@0@Z@DataStructures@@QAE_NABUPlayerIdAndGroupId@ConnectionGraph@@@Z ; DataStructures::Map<ConnectionGraph::PlayerIdAndGroupId,DataStructures::Map<ConnectionGraph::PlayerIdAndGroupId,unsigned short,&DataStructures::defaultMapKeyComparison<ConnectionGraph::PlayerIdAndGroupId> > *,&DataStructures::defaultMapKeyComparison<ConnectionGraph::PlayerIdAndGroupId> >::Has
PUBLIC	??A?$Map@UPlayerIdAndGroupId@ConnectionGraph@@PAV?$Map@UPlayerIdAndGroupId@ConnectionGraph@@G$1??$defaultMapKeyComparison@UPlayerIdAndGroupId@ConnectionGraph@@@DataStructures@@YAHABU12@0@Z@DataStructures@@$1??$defaultMapKeyComparison@UPlayerIdAndGroupId@ConnectionGraph@@@4@YAHABU12@0@Z@DataStructures@@QBEAAPAV?$Map@UPlayerIdAndGroupId@ConnectionGraph@@G$1??$defaultMapKeyComparison@UPlayerIdAndGroupId@ConnectionGraph@@@DataStructures@@YAHABU12@0@Z@1@I@Z ; DataStructures::Map<ConnectionGraph::PlayerIdAndGroupId,DataStructures::Map<ConnectionGraph::PlayerIdAndGroupId,unsigned short,&DataStructures::defaultMapKeyComparison<ConnectionGraph::PlayerIdAndGroupId> > *,&DataStructures::defaultMapKeyComparison<ConnectionGraph::PlayerIdAndGroupId> >::operator[]
PUBLIC	?GetKeyAtIndex@?$Map@UPlayerIdAndGroupId@ConnectionGraph@@PAV?$Map@UPlayerIdAndGroupId@ConnectionGraph@@G$1??$defaultMapKeyComparison@UPlayerIdAndGroupId@ConnectionGraph@@@DataStructures@@YAHABU12@0@Z@DataStructures@@$1??$defaultMapKeyComparison@UPlayerIdAndGroupId@ConnectionGraph@@@4@YAHABU12@0@Z@DataStructures@@QBE?AUPlayerIdAndGroupId@ConnectionGraph@@I@Z ; DataStructures::Map<ConnectionGraph::PlayerIdAndGroupId,DataStructures::Map<ConnectionGraph::PlayerIdAndGroupId,unsigned short,&DataStructures::defaultMapKeyComparison<ConnectionGraph::PlayerIdAndGroupId> > *,&DataStructures::defaultMapKeyComparison<ConnectionGraph::PlayerIdAndGroupId> >::GetKeyAtIndex
PUBLIC	?Clear@?$Map@UPlayerIdAndGroupId@ConnectionGraph@@PAV?$Map@UPlayerIdAndGroupId@ConnectionGraph@@G$1??$defaultMapKeyComparison@UPlayerIdAndGroupId@ConnectionGraph@@@DataStructures@@YAHABU12@0@Z@DataStructures@@$1??$defaultMapKeyComparison@UPlayerIdAndGroupId@ConnectionGraph@@@4@YAHABU12@0@Z@DataStructures@@QAEXXZ ; DataStructures::Map<ConnectionGraph::PlayerIdAndGroupId,DataStructures::Map<ConnectionGraph::PlayerIdAndGroupId,unsigned short,&DataStructures::defaultMapKeyComparison<ConnectionGraph::PlayerIdAndGroupId> > *,&DataStructures::defaultMapKeyComparison<ConnectionGraph::PlayerIdAndGroupId> >::Clear
PUBLIC	?Size@?$Map@UPlayerIdAndGroupId@ConnectionGraph@@PAV?$Map@UPlayerIdAndGroupId@ConnectionGraph@@G$1??$defaultMapKeyComparison@UPlayerIdAndGroupId@ConnectionGraph@@@DataStructures@@YAHABU12@0@Z@DataStructures@@$1??$defaultMapKeyComparison@UPlayerIdAndGroupId@ConnectionGraph@@@4@YAHABU12@0@Z@DataStructures@@QBEIXZ ; DataStructures::Map<ConnectionGraph::PlayerIdAndGroupId,DataStructures::Map<ConnectionGraph::PlayerIdAndGroupId,unsigned short,&DataStructures::defaultMapKeyComparison<ConnectionGraph::PlayerIdAndGroupId> > *,&DataStructures::defaultMapKeyComparison<ConnectionGraph::PlayerIdAndGroupId> >::Size
PUBLIC	??0?$OrderedList@UPlayerIdAndGroupId@ConnectionGraph@@UMapNode@?$Map@UPlayerIdAndGroupId@ConnectionGraph@@PAV?$Map@UPlayerIdAndGroupId@ConnectionGraph@@G$1??$defaultMapKeyComparison@UPlayerIdAndGroupId@ConnectionGraph@@@DataStructures@@YAHABU12@0@Z@DataStructures@@$1??$defaultMapKeyComparison@UPlayerIdAndGroupId@ConnectionGraph@@@4@YAHABU12@0@Z@DataStructures@@$1?NodeComparisonFunc@45@SAHABU12@ABU345@@Z@DataStructures@@QAE@XZ ; DataStructures::OrderedList<ConnectionGraph::PlayerIdAndGroupId,DataStructures::Map<ConnectionGraph::PlayerIdAndGroupId,DataStructures::Map<ConnectionGraph::PlayerIdAndGroupId,unsigned short,&DataStructures::defaultMapKeyComparison<ConnectionGraph::PlayerIdAndGroupId> > *,&DataStructures::defaultMapKeyComparison<ConnectionGraph::PlayerIdAndGroupId> >::MapNode,&DataStructures::Map<ConnectionGraph::PlayerIdAndGroupId,DataStructures::Map<ConnectionGraph::PlayerIdAndGroupId,unsigned short,&DataStructures::defaultMapKeyComparison<ConnectionGraph::PlayerIdAndGroupId> > *,&DataStructures::defaultMapKeyComparison<ConnectionGraph::PlayerIdAndGroupId> >::NodeComparisonFunc>::OrderedList<ConnectionGraph::PlayerIdAndGroupId,DataStructures::Map<ConnectionGraph::PlayerIdAndGroupId,DataStructures::Map<ConnectionGraph::PlayerIdAndGroupId,unsigned short,&DataStructures::defaultMapKeyComparison<ConnectionGraph::PlayerIdAndGroupId> > *,&DataStructures::defaultMapKeyComparison<ConnectionGraph::PlayerIdAndGroupId> >::MapNode,&DataStructures::Map<ConnectionGraph::PlayerIdAndGroupId,DataStructures::Map<ConnectionGraph::PlayerIdAndGroupId,unsigned short,&DataStructures::defaultMapKeyComparison<ConnectionGraph::PlayerIdAndGroupId> > *,&DataStructures::defaultMapKeyComparison<ConnectionGraph::PlayerIdAndGroupId> >::NodeComparisonFunc>
PUBLIC	??1?$OrderedList@UPlayerIdAndGroupId@ConnectionGraph@@UMapNode@?$Map@UPlayerIdAndGroupId@ConnectionGraph@@PAV?$Map@UPlayerIdAndGroupId@ConnectionGraph@@G$1??$defaultMapKeyComparison@UPlayerIdAndGroupId@ConnectionGraph@@@DataStructures@@YAHABU12@0@Z@DataStructures@@$1??$defaultMapKeyComparison@UPlayerIdAndGroupId@ConnectionGraph@@@4@YAHABU12@0@Z@DataStructures@@$1?NodeComparisonFunc@45@SAHABU12@ABU345@@Z@DataStructures@@QAE@XZ ; DataStructures::OrderedList<ConnectionGraph::PlayerIdAndGroupId,DataStructures::Map<ConnectionGraph::PlayerIdAndGroupId,DataStructures::Map<ConnectionGraph::PlayerIdAndGroupId,unsigned short,&DataStructures::defaultMapKeyComparison<ConnectionGraph::PlayerIdAndGroupId> > *,&DataStructures::defaultMapKeyComparison<ConnectionGraph::PlayerIdAndGroupId> >::MapNode,&DataStructures::Map<ConnectionGraph::PlayerIdAndGroupId,DataStructures::Map<ConnectionGraph::PlayerIdAndGroupId,unsigned short,&DataStructures::defaultMapKeyComparison<ConnectionGraph::PlayerIdAndGroupId> > *,&DataStructures::defaultMapKeyComparison<ConnectionGraph::PlayerIdAndGroupId> >::NodeComparisonFunc>::~OrderedList<ConnectionGraph::PlayerIdAndGroupId,DataStructures::Map<ConnectionGraph::PlayerIdAndGroupId,DataStructures::Map<ConnectionGraph::PlayerIdAndGroupId,unsigned short,&DataStructures::defaultMapKeyComparison<ConnectionGraph::PlayerIdAndGroupId> > *,&DataStructures::defaultMapKeyComparison<ConnectionGraph::PlayerIdAndGroupId> >::MapNode,&DataStructures::Map<ConnectionGraph::PlayerIdAndGroupId,DataStructures::Map<ConnectionGraph::PlayerIdAndGroupId,unsigned short,&DataStructures::defaultMapKeyComparison<ConnectionGraph::PlayerIdAndGroupId> > *,&DataStructures::defaultMapKeyComparison<ConnectionGraph::PlayerIdAndGroupId> >::NodeComparisonFunc>
PUBLIC	?GetIndexFromKey@?$OrderedList@UPlayerIdAndGroupId@ConnectionGraph@@UMapNode@?$Map@UPlayerIdAndGroupId@ConnectionGraph@@PAV?$Map@UPlayerIdAndGroupId@ConnectionGraph@@G$1??$defaultMapKeyComparison@UPlayerIdAndGroupId@ConnectionGraph@@@DataStructures@@YAHABU12@0@Z@DataStructures@@$1??$defaultMapKeyComparison@UPlayerIdAndGroupId@ConnectionGraph@@@4@YAHABU12@0@Z@DataStructures@@$1?NodeComparisonFunc@45@SAHABU12@ABU345@@Z@DataStructures@@QBEIABUPlayerIdAndGroupId@ConnectionGraph@@PA_N@Z ; DataStructures::OrderedList<ConnectionGraph::PlayerIdAndGroupId,DataStructures::Map<ConnectionGraph::PlayerIdAndGroupId,DataStructures::Map<ConnectionGraph::PlayerIdAndGroupId,unsigned short,&DataStructures::defaultMapKeyComparison<ConnectionGraph::PlayerIdAndGroupId> > *,&DataStructures::defaultMapKeyComparison<ConnectionGraph::PlayerIdAndGroupId> >::MapNode,&DataStructures::Map<ConnectionGraph::PlayerIdAndGroupId,DataStructures::Map<ConnectionGraph::PlayerIdAndGroupId,unsigned short,&DataStructures::defaultMapKeyComparison<ConnectionGraph::PlayerIdAndGroupId> > *,&DataStructures::defaultMapKeyComparison<ConnectionGraph::PlayerIdAndGroupId> >::NodeComparisonFunc>::GetIndexFromKey
PUBLIC	?Insert@?$OrderedList@UPlayerIdAndGroupId@ConnectionGraph@@UMapNode@?$Map@UPlayerIdAndGroupId@ConnectionGraph@@PAV?$Map@UPlayerIdAndGroupId@ConnectionGraph@@G$1??$defaultMapKeyComparison@UPlayerIdAndGroupId@ConnectionGraph@@@DataStructures@@YAHABU12@0@Z@DataStructures@@$1??$defaultMapKeyComparison@UPlayerIdAndGroupId@ConnectionGraph@@@4@YAHABU12@0@Z@DataStructures@@$1?NodeComparisonFunc@45@SAHABU12@ABU345@@Z@DataStructures@@QAEIABUPlayerIdAndGroupId@ConnectionGraph@@ABUMapNode@?$Map@UPlayerIdAndGroupId@ConnectionGraph@@PAV?$Map@UPlayerIdAndGroupId@ConnectionGraph@@G$1??$defaultMapKeyComparison@UPlayerIdAndGroupId@ConnectionGraph@@@DataStructures@@YAHABU12@0@Z@DataStructures@@$1??$defaultMapKeyComparison@UPlayerIdAndGroupId@ConnectionGraph@@@4@YAHABU12@0@Z@2@@Z ; DataStructures::OrderedList<ConnectionGraph::PlayerIdAndGroupId,DataStructures::Map<ConnectionGraph::PlayerIdAndGroupId,DataStructures::Map<ConnectionGraph::PlayerIdAndGroupId,unsigned short,&DataStructures::defaultMapKeyComparison<ConnectionGraph::PlayerIdAndGroupId> > *,&DataStructures::defaultMapKeyComparison<ConnectionGraph::PlayerIdAndGroupId> >::MapNode,&DataStructures::Map<ConnectionGraph::PlayerIdAndGroupId,DataStructures::Map<ConnectionGraph::PlayerIdAndGroupId,unsigned short,&DataStructures::defaultMapKeyComparison<ConnectionGraph::PlayerIdAndGroupId> > *,&DataStructures::defaultMapKeyComparison<ConnectionGraph::PlayerIdAndGroupId> >::NodeComparisonFunc>::Insert
PUBLIC	??A?$OrderedList@UPlayerIdAndGroupId@ConnectionGraph@@UMapNode@?$Map@UPlayerIdAndGroupId@ConnectionGraph@@PAV?$Map@UPlayerIdAndGroupId@ConnectionGraph@@G$1??$defaultMapKeyComparison@UPlayerIdAndGroupId@ConnectionGraph@@@DataStructures@@YAHABU12@0@Z@DataStructures@@$1??$defaultMapKeyComparison@UPlayerIdAndGroupId@ConnectionGraph@@@4@YAHABU12@0@Z@DataStructures@@$1?NodeComparisonFunc@45@SAHABU12@ABU345@@Z@DataStructures@@QBEAAUMapNode@?$Map@UPlayerIdAndGroupId@ConnectionGraph@@PAV?$Map@UPlayerIdAndGroupId@ConnectionGraph@@G$1??$defaultMapKeyComparison@UPlayerIdAndGroupId@ConnectionGraph@@@DataStructures@@YAHABU12@0@Z@DataStructures@@$1??$defaultMapKeyComparison@UPlayerIdAndGroupId@ConnectionGraph@@@4@YAHABU12@0@Z@1@I@Z ; DataStructures::OrderedList<ConnectionGraph::PlayerIdAndGroupId,DataStructures::Map<ConnectionGraph::PlayerIdAndGroupId,DataStructures::Map<ConnectionGraph::PlayerIdAndGroupId,unsigned short,&DataStructures::defaultMapKeyComparison<ConnectionGraph::PlayerIdAndGroupId> > *,&DataStructures::defaultMapKeyComparison<ConnectionGraph::PlayerIdAndGroupId> >::MapNode,&DataStructures::Map<ConnectionGraph::PlayerIdAndGroupId,DataStructures::Map<ConnectionGraph::PlayerIdAndGroupId,unsigned short,&DataStructures::defaultMapKeyComparison<ConnectionGraph::PlayerIdAndGroupId> > *,&DataStructures::defaultMapKeyComparison<ConnectionGraph::PlayerIdAndGroupId> >::NodeComparisonFunc>::operator[]
PUBLIC	?RemoveAtIndex@?$OrderedList@UPlayerIdAndGroupId@ConnectionGraph@@UMapNode@?$Map@UPlayerIdAndGroupId@ConnectionGraph@@PAV?$Map@UPlayerIdAndGroupId@ConnectionGraph@@G$1??$defaultMapKeyComparison@UPlayerIdAndGroupId@ConnectionGraph@@@DataStructures@@YAHABU12@0@Z@DataStructures@@$1??$defaultMapKeyComparison@UPlayerIdAndGroupId@ConnectionGraph@@@4@YAHABU12@0@Z@DataStructures@@$1?NodeComparisonFunc@45@SAHABU12@ABU345@@Z@DataStructures@@QAEXI@Z ; DataStructures::OrderedList<ConnectionGraph::PlayerIdAndGroupId,DataStructures::Map<ConnectionGraph::PlayerIdAndGroupId,DataStructures::Map<ConnectionGraph::PlayerIdAndGroupId,unsigned short,&DataStructures::defaultMapKeyComparison<ConnectionGraph::PlayerIdAndGroupId> > *,&DataStructures::defaultMapKeyComparison<ConnectionGraph::PlayerIdAndGroupId> >::MapNode,&DataStructures::Map<ConnectionGraph::PlayerIdAndGroupId,DataStructures::Map<ConnectionGraph::PlayerIdAndGroupId,unsigned short,&DataStructures::defaultMapKeyComparison<ConnectionGraph::PlayerIdAndGroupId> > *,&DataStructures::defaultMapKeyComparison<ConnectionGraph::PlayerIdAndGroupId> >::NodeComparisonFunc>::RemoveAtIndex
PUBLIC	?Clear@?$OrderedList@UPlayerIdAndGroupId@ConnectionGraph@@UMapNode@?$Map@UPlayerIdAndGroupId@ConnectionGraph@@PAV?$Map@UPlayerIdAndGroupId@ConnectionGraph@@G$1??$defaultMapKeyComparison@UPlayerIdAndGroupId@ConnectionGraph@@@DataStructures@@YAHABU12@0@Z@DataStructures@@$1??$defaultMapKeyComparison@UPlayerIdAndGroupId@ConnectionGraph@@@4@YAHABU12@0@Z@DataStructures@@$1?NodeComparisonFunc@45@SAHABU12@ABU345@@Z@DataStructures@@QAEXXZ ; DataStructures::OrderedList<ConnectionGraph::PlayerIdAndGroupId,DataStructures::Map<ConnectionGraph::PlayerIdAndGroupId,DataStructures::Map<ConnectionGraph::PlayerIdAndGroupId,unsigned short,&DataStructures::defaultMapKeyComparison<ConnectionGraph::PlayerIdAndGroupId> > *,&DataStructures::defaultMapKeyComparison<ConnectionGraph::PlayerIdAndGroupId> >::MapNode,&DataStructures::Map<ConnectionGraph::PlayerIdAndGroupId,DataStructures::Map<ConnectionGraph::PlayerIdAndGroupId,unsigned short,&DataStructures::defaultMapKeyComparison<ConnectionGraph::PlayerIdAndGroupId> > *,&DataStructures::defaultMapKeyComparison<ConnectionGraph::PlayerIdAndGroupId> >::NodeComparisonFunc>::Clear
PUBLIC	?Size@?$OrderedList@UPlayerIdAndGroupId@ConnectionGraph@@UMapNode@?$Map@UPlayerIdAndGroupId@ConnectionGraph@@PAV?$Map@UPlayerIdAndGroupId@ConnectionGraph@@G$1??$defaultMapKeyComparison@UPlayerIdAndGroupId@ConnectionGraph@@@DataStructures@@YAHABU12@0@Z@DataStructures@@$1??$defaultMapKeyComparison@UPlayerIdAndGroupId@ConnectionGraph@@@4@YAHABU12@0@Z@DataStructures@@$1?NodeComparisonFunc@45@SAHABU12@ABU345@@Z@DataStructures@@QBEIXZ ; DataStructures::OrderedList<ConnectionGraph::PlayerIdAndGroupId,DataStructures::Map<ConnectionGraph::PlayerIdAndGroupId,DataStructures::Map<ConnectionGraph::PlayerIdAndGroupId,unsigned short,&DataStructures::defaultMapKeyComparison<ConnectionGraph::PlayerIdAndGroupId> > *,&DataStructures::defaultMapKeyComparison<ConnectionGraph::PlayerIdAndGroupId> >::MapNode,&DataStructures::Map<ConnectionGraph::PlayerIdAndGroupId,DataStructures::Map<ConnectionGraph::PlayerIdAndGroupId,unsigned short,&DataStructures::defaultMapKeyComparison<ConnectionGraph::PlayerIdAndGroupId> > *,&DataStructures::defaultMapKeyComparison<ConnectionGraph::PlayerIdAndGroupId> >::NodeComparisonFunc>::Size
PUBLIC	??0?$List@UMapNode@?$Map@UPlayerIdAndGroupId@ConnectionGraph@@PAV?$Map@UPlayerIdAndGroupId@ConnectionGraph@@G$1??$defaultMapKeyComparison@UPlayerIdAndGroupId@ConnectionGraph@@@DataStructures@@YAHABU12@0@Z@DataStructures@@$1??$defaultMapKeyComparison@UPlayerIdAndGroupId@ConnectionGraph@@@4@YAHABU12@0@Z@DataStructures@@@DataStructures@@QAE@XZ ; DataStructures::List<DataStructures::Map<ConnectionGraph::PlayerIdAndGroupId,DataStructures::Map<ConnectionGraph::PlayerIdAndGroupId,unsigned short,&DataStructures::defaultMapKeyComparison<ConnectionGraph::PlayerIdAndGroupId> > *,&DataStructures::defaultMapKeyComparison<ConnectionGraph::PlayerIdAndGroupId> >::MapNode>::List<DataStructures::Map<ConnectionGraph::PlayerIdAndGroupId,DataStructures::Map<ConnectionGraph::PlayerIdAndGroupId,unsigned short,&DataStructures::defaultMapKeyComparison<ConnectionGraph::PlayerIdAndGroupId> > *,&DataStructures::defaultMapKeyComparison<ConnectionGraph::PlayerIdAndGroupId> >::MapNode>
PUBLIC	??1?$List@UMapNode@?$Map@UPlayerIdAndGroupId@ConnectionGraph@@PAV?$Map@UPlayerIdAndGroupId@ConnectionGraph@@G$1??$defaultMapKeyComparison@UPlayerIdAndGroupId@ConnectionGraph@@@DataStructures@@YAHABU12@0@Z@DataStructures@@$1??$defaultMapKeyComparison@UPlayerIdAndGroupId@ConnectionGraph@@@4@YAHABU12@0@Z@DataStructures@@@DataStructures@@QAE@XZ ; DataStructures::List<DataStructures::Map<ConnectionGraph::PlayerIdAndGroupId,DataStructures::Map<ConnectionGraph::PlayerIdAndGroupId,unsigned short,&DataStructures::defaultMapKeyComparison<ConnectionGraph::PlayerIdAndGroupId> > *,&DataStructures::defaultMapKeyComparison<ConnectionGraph::PlayerIdAndGroupId> >::MapNode>::~List<DataStructures::Map<ConnectionGraph::PlayerIdAndGroupId,DataStructures::Map<ConnectionGraph::PlayerIdAndGroupId,unsigned short,&DataStructures::defaultMapKeyComparison<ConnectionGraph::PlayerIdAndGroupId> > *,&DataStructures::defaultMapKeyComparison<ConnectionGraph::PlayerIdAndGroupId> >::MapNode>
PUBLIC	??A?$List@UMapNode@?$Map@UPlayerIdAndGroupId@ConnectionGraph@@PAV?$Map@UPlayerIdAndGroupId@ConnectionGraph@@G$1??$defaultMapKeyComparison@UPlayerIdAndGroupId@ConnectionGraph@@@DataStructures@@YAHABU12@0@Z@DataStructures@@$1??$defaultMapKeyComparison@UPlayerIdAndGroupId@ConnectionGraph@@@4@YAHABU12@0@Z@DataStructures@@@DataStructures@@QBEAAUMapNode@?$Map@UPlayerIdAndGroupId@ConnectionGraph@@PAV?$Map@UPlayerIdAndGroupId@ConnectionGraph@@G$1??$defaultMapKeyComparison@UPlayerIdAndGroupId@ConnectionGraph@@@DataStructures@@YAHABU12@0@Z@DataStructures@@$1??$defaultMapKeyComparison@UPlayerIdAndGroupId@ConnectionGraph@@@4@YAHABU12@0@Z@1@I@Z ; DataStructures::List<DataStructures::Map<ConnectionGraph::PlayerIdAndGroupId,DataStructures::Map<ConnectionGraph::PlayerIdAndGroupId,unsigned short,&DataStructures::defaultMapKeyComparison<ConnectionGraph::PlayerIdAndGroupId> > *,&DataStructures::defaultMapKeyComparison<ConnectionGraph::PlayerIdAndGroupId> >::MapNode>::operator[]
PUBLIC	?Insert@?$List@UMapNode@?$Map@UPlayerIdAndGroupId@ConnectionGraph@@PAV?$Map@UPlayerIdAndGroupId@ConnectionGraph@@G$1??$defaultMapKeyComparison@UPlayerIdAndGroupId@ConnectionGraph@@@DataStructures@@YAHABU12@0@Z@DataStructures@@$1??$defaultMapKeyComparison@UPlayerIdAndGroupId@ConnectionGraph@@@4@YAHABU12@0@Z@DataStructures@@@DataStructures@@QAEXUMapNode@?$Map@UPlayerIdAndGroupId@ConnectionGraph@@PAV?$Map@UPlayerIdAndGroupId@ConnectionGraph@@G$1??$defaultMapKeyComparison@UPlayerIdAndGroupId@ConnectionGraph@@@DataStructures@@YAHABU12@0@Z@DataStructures@@$1??$defaultMapKeyComparison@UPlayerIdAndGroupId@ConnectionGraph@@@4@YAHABU12@0@Z@2@I@Z ; DataStructures::List<DataStructures::Map<ConnectionGraph::PlayerIdAndGroupId,DataStructures::Map<ConnectionGraph::PlayerIdAndGroupId,unsigned short,&DataStructures::defaultMapKeyComparison<ConnectionGraph::PlayerIdAndGroupId> > *,&DataStructures::defaultMapKeyComparison<ConnectionGraph::PlayerIdAndGroupId> >::MapNode>::Insert
PUBLIC	?Insert@?$List@UMapNode@?$Map@UPlayerIdAndGroupId@ConnectionGraph@@PAV?$Map@UPlayerIdAndGroupId@ConnectionGraph@@G$1??$defaultMapKeyComparison@UPlayerIdAndGroupId@ConnectionGraph@@@DataStructures@@YAHABU12@0@Z@DataStructures@@$1??$defaultMapKeyComparison@UPlayerIdAndGroupId@ConnectionGraph@@@4@YAHABU12@0@Z@DataStructures@@@DataStructures@@QAEXUMapNode@?$Map@UPlayerIdAndGroupId@ConnectionGraph@@PAV?$Map@UPlayerIdAndGroupId@ConnectionGraph@@G$1??$defaultMapKeyComparison@UPlayerIdAndGroupId@ConnectionGraph@@@DataStructures@@YAHABU12@0@Z@DataStructures@@$1??$defaultMapKeyComparison@UPlayerIdAndGroupId@ConnectionGraph@@@4@YAHABU12@0@Z@2@@Z ; DataStructures::List<DataStructures::Map<ConnectionGraph::PlayerIdAndGroupId,DataStructures::Map<ConnectionGraph::PlayerIdAndGroupId,unsigned short,&DataStructures::defaultMapKeyComparison<ConnectionGraph::PlayerIdAndGroupId> > *,&DataStructures::defaultMapKeyComparison<ConnectionGraph::PlayerIdAndGroupId> >::MapNode>::Insert
PUBLIC	?RemoveAtIndex@?$List@UMapNode@?$Map@UPlayerIdAndGroupId@ConnectionGraph@@PAV?$Map@UPlayerIdAndGroupId@ConnectionGraph@@G$1??$defaultMapKeyComparison@UPlayerIdAndGroupId@ConnectionGraph@@@DataStructures@@YAHABU12@0@Z@DataStructures@@$1??$defaultMapKeyComparison@UPlayerIdAndGroupId@ConnectionGraph@@@4@YAHABU12@0@Z@DataStructures@@@DataStructures@@QAEXI@Z ; DataStructures::List<DataStructures::Map<ConnectionGraph::PlayerIdAndGroupId,DataStructures::Map<ConnectionGraph::PlayerIdAndGroupId,unsigned short,&DataStructures::defaultMapKeyComparison<ConnectionGraph::PlayerIdAndGroupId> > *,&DataStructures::defaultMapKeyComparison<ConnectionGraph::PlayerIdAndGroupId> >::MapNode>::RemoveAtIndex
PUBLIC	?Del@?$List@UMapNode@?$Map@UPlayerIdAndGroupId@ConnectionGraph@@PAV?$Map@UPlayerIdAndGroupId@ConnectionGraph@@G$1??$defaultMapKeyComparison@UPlayerIdAndGroupId@ConnectionGraph@@@DataStructures@@YAHABU12@0@Z@DataStructures@@$1??$defaultMapKeyComparison@UPlayerIdAndGroupId@ConnectionGraph@@@4@YAHABU12@0@Z@DataStructures@@@DataStructures@@QAEXI@Z ; DataStructures::List<DataStructures::Map<ConnectionGraph::PlayerIdAndGroupId,DataStructures::Map<ConnectionGraph::PlayerIdAndGroupId,unsigned short,&DataStructures::defaultMapKeyComparison<ConnectionGraph::PlayerIdAndGroupId> > *,&DataStructures::defaultMapKeyComparison<ConnectionGraph::PlayerIdAndGroupId> >::MapNode>::Del
PUBLIC	?Size@?$List@UMapNode@?$Map@UPlayerIdAndGroupId@ConnectionGraph@@PAV?$Map@UPlayerIdAndGroupId@ConnectionGraph@@G$1??$defaultMapKeyComparison@UPlayerIdAndGroupId@ConnectionGraph@@@DataStructures@@YAHABU12@0@Z@DataStructures@@$1??$defaultMapKeyComparison@UPlayerIdAndGroupId@ConnectionGraph@@@4@YAHABU12@0@Z@DataStructures@@@DataStructures@@QBEIXZ ; DataStructures::List<DataStructures::Map<ConnectionGraph::PlayerIdAndGroupId,DataStructures::Map<ConnectionGraph::PlayerIdAndGroupId,unsigned short,&DataStructures::defaultMapKeyComparison<ConnectionGraph::PlayerIdAndGroupId> > *,&DataStructures::defaultMapKeyComparison<ConnectionGraph::PlayerIdAndGroupId> >::MapNode>::Size
PUBLIC	?Clear@?$List@UMapNode@?$Map@UPlayerIdAndGroupId@ConnectionGraph@@PAV?$Map@UPlayerIdAndGroupId@ConnectionGraph@@G$1??$defaultMapKeyComparison@UPlayerIdAndGroupId@ConnectionGraph@@@DataStructures@@YAHABU12@0@Z@DataStructures@@$1??$defaultMapKeyComparison@UPlayerIdAndGroupId@ConnectionGraph@@@4@YAHABU12@0@Z@DataStructures@@@DataStructures@@QAEX_N@Z ; DataStructures::List<DataStructures::Map<ConnectionGraph::PlayerIdAndGroupId,DataStructures::Map<ConnectionGraph::PlayerIdAndGroupId,unsigned short,&DataStructures::defaultMapKeyComparison<ConnectionGraph::PlayerIdAndGroupId> > *,&DataStructures::defaultMapKeyComparison<ConnectionGraph::PlayerIdAndGroupId> >::MapNode>::Clear
PUBLIC	?SaveLastSearch@?$Map@UPlayerIdAndGroupId@ConnectionGraph@@PAV?$Map@UPlayerIdAndGroupId@ConnectionGraph@@G$1??$defaultMapKeyComparison@UPlayerIdAndGroupId@ConnectionGraph@@@DataStructures@@YAHABU12@0@Z@DataStructures@@$1??$defaultMapKeyComparison@UPlayerIdAndGroupId@ConnectionGraph@@@4@YAHABU12@0@Z@DataStructures@@IAEXABUPlayerIdAndGroupId@ConnectionGraph@@I@Z ; DataStructures::Map<ConnectionGraph::PlayerIdAndGroupId,DataStructures::Map<ConnectionGraph::PlayerIdAndGroupId,unsigned short,&DataStructures::defaultMapKeyComparison<ConnectionGraph::PlayerIdAndGroupId> > *,&DataStructures::defaultMapKeyComparison<ConnectionGraph::PlayerIdAndGroupId> >::SaveLastSearch
PUBLIC	?HasSavedSearchResult@?$Map@UPlayerIdAndGroupId@ConnectionGraph@@PAV?$Map@UPlayerIdAndGroupId@ConnectionGraph@@G$1??$defaultMapKeyComparison@UPlayerIdAndGroupId@ConnectionGraph@@@DataStructures@@YAHABU12@0@Z@DataStructures@@$1??$defaultMapKeyComparison@UPlayerIdAndGroupId@ConnectionGraph@@@4@YAHABU12@0@Z@DataStructures@@IBE_NABUPlayerIdAndGroupId@ConnectionGraph@@@Z ; DataStructures::Map<ConnectionGraph::PlayerIdAndGroupId,DataStructures::Map<ConnectionGraph::PlayerIdAndGroupId,unsigned short,&DataStructures::defaultMapKeyComparison<ConnectionGraph::PlayerIdAndGroupId> > *,&DataStructures::defaultMapKeyComparison<ConnectionGraph::PlayerIdAndGroupId> >::HasSavedSearchResult
PUBLIC	??$defaultOrderedListComparison@UPlayerIdAndGroupId@ConnectionGraph@@U12@@DataStructures@@YAHABUPlayerIdAndGroupId@ConnectionGraph@@0@Z ; DataStructures::defaultOrderedListComparison<ConnectionGraph::PlayerIdAndGroupId,ConnectionGraph::PlayerIdAndGroupId>
PUBLIC	?IMPLEMENT_DEFAULT_COMPARISON@?$OrderedList@UPlayerIdAndGroupId@ConnectionGraph@@U12@$1??$defaultOrderedListComparison@UPlayerIdAndGroupId@ConnectionGraph@@U12@@DataStructures@@YAHABU12@0@Z@DataStructures@@SAXXZ ; DataStructures::OrderedList<ConnectionGraph::PlayerIdAndGroupId,ConnectionGraph::PlayerIdAndGroupId,&DataStructures::defaultOrderedListComparison<ConnectionGraph::PlayerIdAndGroupId,ConnectionGraph::PlayerIdAndGroupId> >::IMPLEMENT_DEFAULT_COMPARISON
PUBLIC	??0?$OrderedList@UPlayerIdAndGroupId@ConnectionGraph@@U12@$1??$defaultOrderedListComparison@UPlayerIdAndGroupId@ConnectionGraph@@U12@@DataStructures@@YAHABU12@0@Z@DataStructures@@QAE@XZ ; DataStructures::OrderedList<ConnectionGraph::PlayerIdAndGroupId,ConnectionGraph::PlayerIdAndGroupId,&DataStructures::defaultOrderedListComparison<ConnectionGraph::PlayerIdAndGroupId,ConnectionGraph::PlayerIdAndGroupId> >::OrderedList<ConnectionGraph::PlayerIdAndGroupId,ConnectionGraph::PlayerIdAndGroupId,&DataStructures::defaultOrderedListComparison<ConnectionGraph::PlayerIdAndGroupId,ConnectionGraph::PlayerIdAndGroupId> >
PUBLIC	??1?$OrderedList@UPlayerIdAndGroupId@ConnectionGraph@@U12@$1??$defaultOrderedListComparison@UPlayerIdAndGroupId@ConnectionGraph@@U12@@DataStructures@@YAHABU12@0@Z@DataStructures@@QAE@XZ ; DataStructures::OrderedList<ConnectionGraph::PlayerIdAndGroupId,ConnectionGraph::PlayerIdAndGroupId,&DataStructures::defaultOrderedListComparison<ConnectionGraph::PlayerIdAndGroupId,ConnectionGraph::PlayerIdAndGroupId> >::~OrderedList<ConnectionGraph::PlayerIdAndGroupId,ConnectionGraph::PlayerIdAndGroupId,&DataStructures::defaultOrderedListComparison<ConnectionGraph::PlayerIdAndGroupId,ConnectionGraph::PlayerIdAndGroupId> >
PUBLIC	?Clear@?$OrderedList@UPlayerIdAndGroupId@ConnectionGraph@@U12@$1??$defaultOrderedListComparison@UPlayerIdAndGroupId@ConnectionGraph@@U12@@DataStructures@@YAHABU12@0@Z@DataStructures@@QAEXXZ ; DataStructures::OrderedList<ConnectionGraph::PlayerIdAndGroupId,ConnectionGraph::PlayerIdAndGroupId,&DataStructures::defaultOrderedListComparison<ConnectionGraph::PlayerIdAndGroupId,ConnectionGraph::PlayerIdAndGroupId> >::Clear
PUBLIC	??0?$List@UPlayerIdAndGroupId@ConnectionGraph@@@DataStructures@@QAE@XZ ; DataStructures::List<ConnectionGraph::PlayerIdAndGroupId>::List<ConnectionGraph::PlayerIdAndGroupId>
PUBLIC	??1?$List@UPlayerIdAndGroupId@ConnectionGraph@@@DataStructures@@QAE@XZ ; DataStructures::List<ConnectionGraph::PlayerIdAndGroupId>::~List<ConnectionGraph::PlayerIdAndGroupId>
PUBLIC	?Clear@?$List@UPlayerIdAndGroupId@ConnectionGraph@@@DataStructures@@QAEX_N@Z ; DataStructures::List<ConnectionGraph::PlayerIdAndGroupId>::Clear
PUBLIC	??$defaultOrderedListComparison@EE@DataStructures@@YAHABE0@Z ; DataStructures::defaultOrderedListComparison<unsigned char,unsigned char>
PUBLIC	?IMPLEMENT_DEFAULT_COMPARISON@?$OrderedList@EE$1??$defaultOrderedListComparison@EE@DataStructures@@YAHABE0@Z@DataStructures@@SAXXZ ; DataStructures::OrderedList<unsigned char,unsigned char,&DataStructures::defaultOrderedListComparison<unsigned char,unsigned char> >::IMPLEMENT_DEFAULT_COMPARISON
PUBLIC	??0?$OrderedList@EE$1??$defaultOrderedListComparison@EE@DataStructures@@YAHABE0@Z@DataStructures@@QAE@XZ ; DataStructures::OrderedList<unsigned char,unsigned char,&DataStructures::defaultOrderedListComparison<unsigned char,unsigned char> >::OrderedList<unsigned char,unsigned char,&DataStructures::defaultOrderedListComparison<unsigned char,unsigned char> >
PUBLIC	??1?$OrderedList@EE$1??$defaultOrderedListComparison@EE@DataStructures@@YAHABE0@Z@DataStructures@@QAE@XZ ; DataStructures::OrderedList<unsigned char,unsigned char,&DataStructures::defaultOrderedListComparison<unsigned char,unsigned char> >::~OrderedList<unsigned char,unsigned char,&DataStructures::defaultOrderedListComparison<unsigned char,unsigned char> >
PUBLIC	?HasData@?$OrderedList@EE$1??$defaultOrderedListComparison@EE@DataStructures@@YAHABE0@Z@DataStructures@@QBE_NABE@Z ; DataStructures::OrderedList<unsigned char,unsigned char,&DataStructures::defaultOrderedListComparison<unsigned char,unsigned char> >::HasData
PUBLIC	?GetIndexFromKey@?$OrderedList@EE$1??$defaultOrderedListComparison@EE@DataStructures@@YAHABE0@Z@DataStructures@@QBEIABEPA_N@Z ; DataStructures::OrderedList<unsigned char,unsigned char,&DataStructures::defaultOrderedListComparison<unsigned char,unsigned char> >::GetIndexFromKey
PUBLIC	?Insert@?$OrderedList@EE$1??$defaultOrderedListComparison@EE@DataStructures@@YAHABE0@Z@DataStructures@@QAEIABE0@Z ; DataStructures::OrderedList<unsigned char,unsigned char,&DataStructures::defaultOrderedListComparison<unsigned char,unsigned char> >::Insert
PUBLIC	?Remove@?$OrderedList@EE$1??$defaultOrderedListComparison@EE@DataStructures@@YAHABE0@Z@DataStructures@@QAEIABE@Z ; DataStructures::OrderedList<unsigned char,unsigned char,&DataStructures::defaultOrderedListComparison<unsigned char,unsigned char> >::Remove
PUBLIC	?Clear@?$OrderedList@EE$1??$defaultOrderedListComparison@EE@DataStructures@@YAHABE0@Z@DataStructures@@QAEXXZ ; DataStructures::OrderedList<unsigned char,unsigned char,&DataStructures::defaultOrderedListComparison<unsigned char,unsigned char> >::Clear
PUBLIC	??0?$List@E@DataStructures@@QAE@XZ		; DataStructures::List<unsigned char>::List<unsigned char>
PUBLIC	??1?$List@E@DataStructures@@QAE@XZ		; DataStructures::List<unsigned char>::~List<unsigned char>
PUBLIC	??A?$List@E@DataStructures@@QBEAAEI@Z		; DataStructures::List<unsigned char>::operator[]
PUBLIC	?Insert@?$List@E@DataStructures@@QAEXEI@Z	; DataStructures::List<unsigned char>::Insert
PUBLIC	?Insert@?$List@E@DataStructures@@QAEXE@Z	; DataStructures::List<unsigned char>::Insert
PUBLIC	?RemoveAtIndex@?$List@E@DataStructures@@QAEXI@Z	; DataStructures::List<unsigned char>::RemoveAtIndex
PUBLIC	?Del@?$List@E@DataStructures@@QAEXI@Z		; DataStructures::List<unsigned char>::Del
PUBLIC	?Size@?$List@E@DataStructures@@QBEIXZ		; DataStructures::List<unsigned char>::Size
PUBLIC	?Clear@?$List@E@DataStructures@@QAEX_N@Z	; DataStructures::List<unsigned char>::Clear
PUBLIC	?GetWriteOffset@BitStream@RakNet@@QBEHXZ	; RakNet::BitStream::GetWriteOffset
PUBLIC	??$Write@UPlayerID@@@BitStream@RakNet@@QAEXUPlayerID@@@Z ; RakNet::BitStream::Write<PlayerID>
PUBLIC	??$Write@I@BitStream@RakNet@@QAEXI@Z		; RakNet::BitStream::Write<unsigned int>
PUBLIC	??$Write@G@BitStream@RakNet@@QAEXG@Z		; RakNet::BitStream::Write<unsigned short>
PUBLIC	??$Read@UPlayerID@@@BitStream@RakNet@@QAE_NAAUPlayerID@@@Z ; RakNet::BitStream::Read<PlayerID>
PUBLIC	??$Read@I@BitStream@RakNet@@QAE_NAAI@Z		; RakNet::BitStream::Read<unsigned int>
PUBLIC	??$Read@G@BitStream@RakNet@@QAE_NAAG@Z		; RakNet::BitStream::Read<unsigned short>
PUBLIC	??$Write@E@BitStream@RakNet@@QAEXE@Z		; RakNet::BitStream::Write<unsigned char>
PUBLIC	??$Read@E@BitStream@RakNet@@QAE_NAAE@Z		; RakNet::BitStream::Read<unsigned char>
PUBLIC	??$WriteCompressed@I@BitStream@RakNet@@QAEXI@Z	; RakNet::BitStream::WriteCompressed<unsigned int>
PUBLIC	??$ReadCompressed@I@BitStream@RakNet@@QAE_NAAI@Z ; RakNet::BitStream::ReadCompressed<unsigned int>
PUBLIC	?NodeComparisonFunc@?$Map@UPlayerIdAndGroupId@ConnectionGraph@@G$1??$defaultMapKeyComparison@UPlayerIdAndGroupId@ConnectionGraph@@@DataStructures@@YAHABU12@0@Z@DataStructures@@SAHABUPlayerIdAndGroupId@ConnectionGraph@@ABUMapNode@12@@Z ; DataStructures::Map<ConnectionGraph::PlayerIdAndGroupId,unsigned short,&DataStructures::defaultMapKeyComparison<ConnectionGraph::PlayerIdAndGroupId> >::NodeComparisonFunc
PUBLIC	??0?$Map@UPlayerIdAndGroupId@ConnectionGraph@@G$1??$defaultMapKeyComparison@UPlayerIdAndGroupId@ConnectionGraph@@@DataStructures@@YAHABU12@0@Z@DataStructures@@QAE@XZ ; DataStructures::Map<ConnectionGraph::PlayerIdAndGroupId,unsigned short,&DataStructures::defaultMapKeyComparison<ConnectionGraph::PlayerIdAndGroupId> >::Map<ConnectionGraph::PlayerIdAndGroupId,unsigned short,&DataStructures::defaultMapKeyComparison<ConnectionGraph::PlayerIdAndGroupId> >
PUBLIC	??1?$Map@UPlayerIdAndGroupId@ConnectionGraph@@G$1??$defaultMapKeyComparison@UPlayerIdAndGroupId@ConnectionGraph@@@DataStructures@@YAHABU12@0@Z@DataStructures@@QAE@XZ ; DataStructures::Map<ConnectionGraph::PlayerIdAndGroupId,unsigned short,&DataStructures::defaultMapKeyComparison<ConnectionGraph::PlayerIdAndGroupId> >::~Map<ConnectionGraph::PlayerIdAndGroupId,unsigned short,&DataStructures::defaultMapKeyComparison<ConnectionGraph::PlayerIdAndGroupId> >
PUBLIC	?Set@?$Map@UPlayerIdAndGroupId@ConnectionGraph@@G$1??$defaultMapKeyComparison@UPlayerIdAndGroupId@ConnectionGraph@@@DataStructures@@YAHABU12@0@Z@DataStructures@@QAEXABUPlayerIdAndGroupId@ConnectionGraph@@ABG@Z ; DataStructures::Map<ConnectionGraph::PlayerIdAndGroupId,unsigned short,&DataStructures::defaultMapKeyComparison<ConnectionGraph::PlayerIdAndGroupId> >::Set
PUBLIC	?Has@?$Map@UPlayerIdAndGroupId@ConnectionGraph@@G$1??$defaultMapKeyComparison@UPlayerIdAndGroupId@ConnectionGraph@@@DataStructures@@YAHABU12@0@Z@DataStructures@@QAE_NABUPlayerIdAndGroupId@ConnectionGraph@@@Z ; DataStructures::Map<ConnectionGraph::PlayerIdAndGroupId,unsigned short,&DataStructures::defaultMapKeyComparison<ConnectionGraph::PlayerIdAndGroupId> >::Has
PUBLIC	?Delete@?$Map@UPlayerIdAndGroupId@ConnectionGraph@@G$1??$defaultMapKeyComparison@UPlayerIdAndGroupId@ConnectionGraph@@@DataStructures@@YAHABU12@0@Z@DataStructures@@QAE_NABUPlayerIdAndGroupId@ConnectionGraph@@@Z ; DataStructures::Map<ConnectionGraph::PlayerIdAndGroupId,unsigned short,&DataStructures::defaultMapKeyComparison<ConnectionGraph::PlayerIdAndGroupId> >::Delete
PUBLIC	??A?$Map@UPlayerIdAndGroupId@ConnectionGraph@@G$1??$defaultMapKeyComparison@UPlayerIdAndGroupId@ConnectionGraph@@@DataStructures@@YAHABU12@0@Z@DataStructures@@QBEAAGI@Z ; DataStructures::Map<ConnectionGraph::PlayerIdAndGroupId,unsigned short,&DataStructures::defaultMapKeyComparison<ConnectionGraph::PlayerIdAndGroupId> >::operator[]
PUBLIC	?GetKeyAtIndex@?$Map@UPlayerIdAndGroupId@ConnectionGraph@@G$1??$defaultMapKeyComparison@UPlayerIdAndGroupId@ConnectionGraph@@@DataStructures@@YAHABU12@0@Z@DataStructures@@QBE?AUPlayerIdAndGroupId@ConnectionGraph@@I@Z ; DataStructures::Map<ConnectionGraph::PlayerIdAndGroupId,unsigned short,&DataStructures::defaultMapKeyComparison<ConnectionGraph::PlayerIdAndGroupId> >::GetKeyAtIndex
PUBLIC	?Clear@?$Map@UPlayerIdAndGroupId@ConnectionGraph@@G$1??$defaultMapKeyComparison@UPlayerIdAndGroupId@ConnectionGraph@@@DataStructures@@YAHABU12@0@Z@DataStructures@@QAEXXZ ; DataStructures::Map<ConnectionGraph::PlayerIdAndGroupId,unsigned short,&DataStructures::defaultMapKeyComparison<ConnectionGraph::PlayerIdAndGroupId> >::Clear
PUBLIC	?Size@?$Map@UPlayerIdAndGroupId@ConnectionGraph@@G$1??$defaultMapKeyComparison@UPlayerIdAndGroupId@ConnectionGraph@@@DataStructures@@YAHABU12@0@Z@DataStructures@@QBEIXZ ; DataStructures::Map<ConnectionGraph::PlayerIdAndGroupId,unsigned short,&DataStructures::defaultMapKeyComparison<ConnectionGraph::PlayerIdAndGroupId> >::Size
PUBLIC	??0?$OrderedList@UPlayerIdAndGroupId@ConnectionGraph@@UMapNode@?$Map@UPlayerIdAndGroupId@ConnectionGraph@@G$1??$defaultMapKeyComparison@UPlayerIdAndGroupId@ConnectionGraph@@@DataStructures@@YAHABU12@0@Z@DataStructures@@$1?NodeComparisonFunc@45@SAHABU12@ABU345@@Z@DataStructures@@QAE@XZ ; DataStructures::OrderedList<ConnectionGraph::PlayerIdAndGroupId,DataStructures::Map<ConnectionGraph::PlayerIdAndGroupId,unsigned short,&DataStructures::defaultMapKeyComparison<ConnectionGraph::PlayerIdAndGroupId> >::MapNode,&DataStructures::Map<ConnectionGraph::PlayerIdAndGroupId,unsigned short,&DataStructures::defaultMapKeyComparison<ConnectionGraph::PlayerIdAndGroupId> >::NodeComparisonFunc>::OrderedList<ConnectionGraph::PlayerIdAndGroupId,DataStructures::Map<ConnectionGraph::PlayerIdAndGroupId,unsigned short,&DataStructures::defaultMapKeyComparison<ConnectionGraph::PlayerIdAndGroupId> >::MapNode,&DataStructures::Map<ConnectionGraph::PlayerIdAndGroupId,unsigned short,&DataStructures::defaultMapKeyComparison<ConnectionGraph::PlayerIdAndGroupId> >::NodeComparisonFunc>
PUBLIC	??1?$OrderedList@UPlayerIdAndGroupId@ConnectionGraph@@UMapNode@?$Map@UPlayerIdAndGroupId@ConnectionGraph@@G$1??$defaultMapKeyComparison@UPlayerIdAndGroupId@ConnectionGraph@@@DataStructures@@YAHABU12@0@Z@DataStructures@@$1?NodeComparisonFunc@45@SAHABU12@ABU345@@Z@DataStructures@@QAE@XZ ; DataStructures::OrderedList<ConnectionGraph::PlayerIdAndGroupId,DataStructures::Map<ConnectionGraph::PlayerIdAndGroupId,unsigned short,&DataStructures::defaultMapKeyComparison<ConnectionGraph::PlayerIdAndGroupId> >::MapNode,&DataStructures::Map<ConnectionGraph::PlayerIdAndGroupId,unsigned short,&DataStructures::defaultMapKeyComparison<ConnectionGraph::PlayerIdAndGroupId> >::NodeComparisonFunc>::~OrderedList<ConnectionGraph::PlayerIdAndGroupId,DataStructures::Map<ConnectionGraph::PlayerIdAndGroupId,unsigned short,&DataStructures::defaultMapKeyComparison<ConnectionGraph::PlayerIdAndGroupId> >::MapNode,&DataStructures::Map<ConnectionGraph::PlayerIdAndGroupId,unsigned short,&DataStructures::defaultMapKeyComparison<ConnectionGraph::PlayerIdAndGroupId> >::NodeComparisonFunc>
PUBLIC	?GetIndexFromKey@?$OrderedList@UPlayerIdAndGroupId@ConnectionGraph@@UMapNode@?$Map@UPlayerIdAndGroupId@ConnectionGraph@@G$1??$defaultMapKeyComparison@UPlayerIdAndGroupId@ConnectionGraph@@@DataStructures@@YAHABU12@0@Z@DataStructures@@$1?NodeComparisonFunc@45@SAHABU12@ABU345@@Z@DataStructures@@QBEIABUPlayerIdAndGroupId@ConnectionGraph@@PA_N@Z ; DataStructures::OrderedList<ConnectionGraph::PlayerIdAndGroupId,DataStructures::Map<ConnectionGraph::PlayerIdAndGroupId,unsigned short,&DataStructures::defaultMapKeyComparison<ConnectionGraph::PlayerIdAndGroupId> >::MapNode,&DataStructures::Map<ConnectionGraph::PlayerIdAndGroupId,unsigned short,&DataStructures::defaultMapKeyComparison<ConnectionGraph::PlayerIdAndGroupId> >::NodeComparisonFunc>::GetIndexFromKey
PUBLIC	?Insert@?$OrderedList@UPlayerIdAndGroupId@ConnectionGraph@@UMapNode@?$Map@UPlayerIdAndGroupId@ConnectionGraph@@G$1??$defaultMapKeyComparison@UPlayerIdAndGroupId@ConnectionGraph@@@DataStructures@@YAHABU12@0@Z@DataStructures@@$1?NodeComparisonFunc@45@SAHABU12@ABU345@@Z@DataStructures@@QAEIABUPlayerIdAndGroupId@ConnectionGraph@@ABUMapNode@?$Map@UPlayerIdAndGroupId@ConnectionGraph@@G$1??$defaultMapKeyComparison@UPlayerIdAndGroupId@ConnectionGraph@@@DataStructures@@YAHABU12@0@Z@2@@Z ; DataStructures::OrderedList<ConnectionGraph::PlayerIdAndGroupId,DataStructures::Map<ConnectionGraph::PlayerIdAndGroupId,unsigned short,&DataStructures::defaultMapKeyComparison<ConnectionGraph::PlayerIdAndGroupId> >::MapNode,&DataStructures::Map<ConnectionGraph::PlayerIdAndGroupId,unsigned short,&DataStructures::defaultMapKeyComparison<ConnectionGraph::PlayerIdAndGroupId> >::NodeComparisonFunc>::Insert
PUBLIC	??A?$OrderedList@UPlayerIdAndGroupId@ConnectionGraph@@UMapNode@?$Map@UPlayerIdAndGroupId@ConnectionGraph@@G$1??$defaultMapKeyComparison@UPlayerIdAndGroupId@ConnectionGraph@@@DataStructures@@YAHABU12@0@Z@DataStructures@@$1?NodeComparisonFunc@45@SAHABU12@ABU345@@Z@DataStructures@@QBEAAUMapNode@?$Map@UPlayerIdAndGroupId@ConnectionGraph@@G$1??$defaultMapKeyComparison@UPlayerIdAndGroupId@ConnectionGraph@@@DataStructures@@YAHABU12@0@Z@1@I@Z ; DataStructures::OrderedList<ConnectionGraph::PlayerIdAndGroupId,DataStructures::Map<ConnectionGraph::PlayerIdAndGroupId,unsigned short,&DataStructures::defaultMapKeyComparison<ConnectionGraph::PlayerIdAndGroupId> >::MapNode,&DataStructures::Map<ConnectionGraph::PlayerIdAndGroupId,unsigned short,&DataStructures::defaultMapKeyComparison<ConnectionGraph::PlayerIdAndGroupId> >::NodeComparisonFunc>::operator[]
PUBLIC	?RemoveAtIndex@?$OrderedList@UPlayerIdAndGroupId@ConnectionGraph@@UMapNode@?$Map@UPlayerIdAndGroupId@ConnectionGraph@@G$1??$defaultMapKeyComparison@UPlayerIdAndGroupId@ConnectionGraph@@@DataStructures@@YAHABU12@0@Z@DataStructures@@$1?NodeComparisonFunc@45@SAHABU12@ABU345@@Z@DataStructures@@QAEXI@Z ; DataStructures::OrderedList<ConnectionGraph::PlayerIdAndGroupId,DataStructures::Map<ConnectionGraph::PlayerIdAndGroupId,unsigned short,&DataStructures::defaultMapKeyComparison<ConnectionGraph::PlayerIdAndGroupId> >::MapNode,&DataStructures::Map<ConnectionGraph::PlayerIdAndGroupId,unsigned short,&DataStructures::defaultMapKeyComparison<ConnectionGraph::PlayerIdAndGroupId> >::NodeComparisonFunc>::RemoveAtIndex
PUBLIC	?Clear@?$OrderedList@UPlayerIdAndGroupId@ConnectionGraph@@UMapNode@?$Map@UPlayerIdAndGroupId@ConnectionGraph@@G$1??$defaultMapKeyComparison@UPlayerIdAndGroupId@ConnectionGraph@@@DataStructures@@YAHABU12@0@Z@DataStructures@@$1?NodeComparisonFunc@45@SAHABU12@ABU345@@Z@DataStructures@@QAEXXZ ; DataStructures::OrderedList<ConnectionGraph::PlayerIdAndGroupId,DataStructures::Map<ConnectionGraph::PlayerIdAndGroupId,unsigned short,&DataStructures::defaultMapKeyComparison<ConnectionGraph::PlayerIdAndGroupId> >::MapNode,&DataStructures::Map<ConnectionGraph::PlayerIdAndGroupId,unsigned short,&DataStructures::defaultMapKeyComparison<ConnectionGraph::PlayerIdAndGroupId> >::NodeComparisonFunc>::Clear
PUBLIC	?Size@?$OrderedList@UPlayerIdAndGroupId@ConnectionGraph@@UMapNode@?$Map@UPlayerIdAndGroupId@ConnectionGraph@@G$1??$defaultMapKeyComparison@UPlayerIdAndGroupId@ConnectionGraph@@@DataStructures@@YAHABU12@0@Z@DataStructures@@$1?NodeComparisonFunc@45@SAHABU12@ABU345@@Z@DataStructures@@QBEIXZ ; DataStructures::OrderedList<ConnectionGraph::PlayerIdAndGroupId,DataStructures::Map<ConnectionGraph::PlayerIdAndGroupId,unsigned short,&DataStructures::defaultMapKeyComparison<ConnectionGraph::PlayerIdAndGroupId> >::MapNode,&DataStructures::Map<ConnectionGraph::PlayerIdAndGroupId,unsigned short,&DataStructures::defaultMapKeyComparison<ConnectionGraph::PlayerIdAndGroupId> >::NodeComparisonFunc>::Size
PUBLIC	??0?$List@UMapNode@?$Map@UPlayerIdAndGroupId@ConnectionGraph@@G$1??$defaultMapKeyComparison@UPlayerIdAndGroupId@ConnectionGraph@@@DataStructures@@YAHABU12@0@Z@DataStructures@@@DataStructures@@QAE@XZ ; DataStructures::List<DataStructures::Map<ConnectionGraph::PlayerIdAndGroupId,unsigned short,&DataStructures::defaultMapKeyComparison<ConnectionGraph::PlayerIdAndGroupId> >::MapNode>::List<DataStructures::Map<ConnectionGraph::PlayerIdAndGroupId,unsigned short,&DataStructures::defaultMapKeyComparison<ConnectionGraph::PlayerIdAndGroupId> >::MapNode>
PUBLIC	??1?$List@UMapNode@?$Map@UPlayerIdAndGroupId@ConnectionGraph@@G$1??$defaultMapKeyComparison@UPlayerIdAndGroupId@ConnectionGraph@@@DataStructures@@YAHABU12@0@Z@DataStructures@@@DataStructures@@QAE@XZ ; DataStructures::List<DataStructures::Map<ConnectionGraph::PlayerIdAndGroupId,unsigned short,&DataStructures::defaultMapKeyComparison<ConnectionGraph::PlayerIdAndGroupId> >::MapNode>::~List<DataStructures::Map<ConnectionGraph::PlayerIdAndGroupId,unsigned short,&DataStructures::defaultMapKeyComparison<ConnectionGraph::PlayerIdAndGroupId> >::MapNode>
PUBLIC	??A?$List@UMapNode@?$Map@UPlayerIdAndGroupId@ConnectionGraph@@G$1??$defaultMapKeyComparison@UPlayerIdAndGroupId@ConnectionGraph@@@DataStructures@@YAHABU12@0@Z@DataStructures@@@DataStructures@@QBEAAUMapNode@?$Map@UPlayerIdAndGroupId@ConnectionGraph@@G$1??$defaultMapKeyComparison@UPlayerIdAndGroupId@ConnectionGraph@@@DataStructures@@YAHABU12@0@Z@1@I@Z ; DataStructures::List<DataStructures::Map<ConnectionGraph::PlayerIdAndGroupId,unsigned short,&DataStructures::defaultMapKeyComparison<ConnectionGraph::PlayerIdAndGroupId> >::MapNode>::operator[]
PUBLIC	?Insert@?$List@UMapNode@?$Map@UPlayerIdAndGroupId@ConnectionGraph@@G$1??$defaultMapKeyComparison@UPlayerIdAndGroupId@ConnectionGraph@@@DataStructures@@YAHABU12@0@Z@DataStructures@@@DataStructures@@QAEXUMapNode@?$Map@UPlayerIdAndGroupId@ConnectionGraph@@G$1??$defaultMapKeyComparison@UPlayerIdAndGroupId@ConnectionGraph@@@DataStructures@@YAHABU12@0@Z@2@I@Z ; DataStructures::List<DataStructures::Map<ConnectionGraph::PlayerIdAndGroupId,unsigned short,&DataStructures::defaultMapKeyComparison<ConnectionGraph::PlayerIdAndGroupId> >::MapNode>::Insert
PUBLIC	?Insert@?$List@UMapNode@?$Map@UPlayerIdAndGroupId@ConnectionGraph@@G$1??$defaultMapKeyComparison@UPlayerIdAndGroupId@ConnectionGraph@@@DataStructures@@YAHABU12@0@Z@DataStructures@@@DataStructures@@QAEXUMapNode@?$Map@UPlayerIdAndGroupId@ConnectionGraph@@G$1??$defaultMapKeyComparison@UPlayerIdAndGroupId@ConnectionGraph@@@DataStructures@@YAHABU12@0@Z@2@@Z ; DataStructures::List<DataStructures::Map<ConnectionGraph::PlayerIdAndGroupId,unsigned short,&DataStructures::defaultMapKeyComparison<ConnectionGraph::PlayerIdAndGroupId> >::MapNode>::Insert
PUBLIC	?RemoveAtIndex@?$List@UMapNode@?$Map@UPlayerIdAndGroupId@ConnectionGraph@@G$1??$defaultMapKeyComparison@UPlayerIdAndGroupId@ConnectionGraph@@@DataStructures@@YAHABU12@0@Z@DataStructures@@@DataStructures@@QAEXI@Z ; DataStructures::List<DataStructures::Map<ConnectionGraph::PlayerIdAndGroupId,unsigned short,&DataStructures::defaultMapKeyComparison<ConnectionGraph::PlayerIdAndGroupId> >::MapNode>::RemoveAtIndex
PUBLIC	?Del@?$List@UMapNode@?$Map@UPlayerIdAndGroupId@ConnectionGraph@@G$1??$defaultMapKeyComparison@UPlayerIdAndGroupId@ConnectionGraph@@@DataStructures@@YAHABU12@0@Z@DataStructures@@@DataStructures@@QAEXI@Z ; DataStructures::List<DataStructures::Map<ConnectionGraph::PlayerIdAndGroupId,unsigned short,&DataStructures::defaultMapKeyComparison<ConnectionGraph::PlayerIdAndGroupId> >::MapNode>::Del
PUBLIC	?Size@?$List@UMapNode@?$Map@UPlayerIdAndGroupId@ConnectionGraph@@G$1??$defaultMapKeyComparison@UPlayerIdAndGroupId@ConnectionGraph@@@DataStructures@@YAHABU12@0@Z@DataStructures@@@DataStructures@@QBEIXZ ; DataStructures::List<DataStructures::Map<ConnectionGraph::PlayerIdAndGroupId,unsigned short,&DataStructures::defaultMapKeyComparison<ConnectionGraph::PlayerIdAndGroupId> >::MapNode>::Size
PUBLIC	?Clear@?$List@UMapNode@?$Map@UPlayerIdAndGroupId@ConnectionGraph@@G$1??$defaultMapKeyComparison@UPlayerIdAndGroupId@ConnectionGraph@@@DataStructures@@YAHABU12@0@Z@DataStructures@@@DataStructures@@QAEX_N@Z ; DataStructures::List<DataStructures::Map<ConnectionGraph::PlayerIdAndGroupId,unsigned short,&DataStructures::defaultMapKeyComparison<ConnectionGraph::PlayerIdAndGroupId> >::MapNode>::Clear
PUBLIC	?SaveLastSearch@?$Map@UPlayerIdAndGroupId@ConnectionGraph@@G$1??$defaultMapKeyComparison@UPlayerIdAndGroupId@ConnectionGraph@@@DataStructures@@YAHABU12@0@Z@DataStructures@@IAEXABUPlayerIdAndGroupId@ConnectionGraph@@I@Z ; DataStructures::Map<ConnectionGraph::PlayerIdAndGroupId,unsigned short,&DataStructures::defaultMapKeyComparison<ConnectionGraph::PlayerIdAndGroupId> >::SaveLastSearch
PUBLIC	?HasSavedSearchResult@?$Map@UPlayerIdAndGroupId@ConnectionGraph@@G$1??$defaultMapKeyComparison@UPlayerIdAndGroupId@ConnectionGraph@@@DataStructures@@YAHABU12@0@Z@DataStructures@@IBE_NABUPlayerIdAndGroupId@ConnectionGraph@@@Z ; DataStructures::Map<ConnectionGraph::PlayerIdAndGroupId,unsigned short,&DataStructures::defaultMapKeyComparison<ConnectionGraph::PlayerIdAndGroupId> >::HasSavedSearchResult
PUBLIC	??_G?$Map@UPlayerIdAndGroupId@ConnectionGraph@@G$1??$defaultMapKeyComparison@UPlayerIdAndGroupId@ConnectionGraph@@@DataStructures@@YAHABU12@0@Z@DataStructures@@QAEPAXI@Z ; DataStructures::Map<ConnectionGraph::PlayerIdAndGroupId,unsigned short,&DataStructures::defaultMapKeyComparison<ConnectionGraph::PlayerIdAndGroupId> >::`scalar deleting destructor'
PUBLIC	??0?$Queue@UPlayerIdAndGroupId@ConnectionGraph@@@DataStructures@@QAE@XZ ; DataStructures::Queue<ConnectionGraph::PlayerIdAndGroupId>::Queue<ConnectionGraph::PlayerIdAndGroupId>
PUBLIC	??1?$Queue@UPlayerIdAndGroupId@ConnectionGraph@@@DataStructures@@QAE@XZ ; DataStructures::Queue<ConnectionGraph::PlayerIdAndGroupId>::~Queue<ConnectionGraph::PlayerIdAndGroupId>
PUBLIC	?Push@?$Queue@UPlayerIdAndGroupId@ConnectionGraph@@@DataStructures@@QAEXABUPlayerIdAndGroupId@ConnectionGraph@@@Z ; DataStructures::Queue<ConnectionGraph::PlayerIdAndGroupId>::Push
PUBLIC	?Pop@?$Queue@UPlayerIdAndGroupId@ConnectionGraph@@@DataStructures@@QAE?AUPlayerIdAndGroupId@ConnectionGraph@@XZ ; DataStructures::Queue<ConnectionGraph::PlayerIdAndGroupId>::Pop
PUBLIC	?Size@?$Queue@UPlayerIdAndGroupId@ConnectionGraph@@@DataStructures@@QBEIXZ ; DataStructures::Queue<ConnectionGraph::PlayerIdAndGroupId>::Size
PUBLIC	??0MapNode@?$Map@UPlayerIdAndGroupId@ConnectionGraph@@PAV?$Map@UPlayerIdAndGroupId@ConnectionGraph@@G$1??$defaultMapKeyComparison@UPlayerIdAndGroupId@ConnectionGraph@@@DataStructures@@YAHABU12@0@Z@DataStructures@@$1??$defaultMapKeyComparison@UPlayerIdAndGroupId@ConnectionGraph@@@4@YAHABU12@0@Z@DataStructures@@QAE@XZ ; DataStructures::Map<ConnectionGraph::PlayerIdAndGroupId,DataStructures::Map<ConnectionGraph::PlayerIdAndGroupId,unsigned short,&DataStructures::defaultMapKeyComparison<ConnectionGraph::PlayerIdAndGroupId> > *,&DataStructures::defaultMapKeyComparison<ConnectionGraph::PlayerIdAndGroupId> >::MapNode::MapNode
PUBLIC	??0MapNode@?$Map@UPlayerIdAndGroupId@ConnectionGraph@@PAV?$Map@UPlayerIdAndGroupId@ConnectionGraph@@G$1??$defaultMapKeyComparison@UPlayerIdAndGroupId@ConnectionGraph@@@DataStructures@@YAHABU12@0@Z@DataStructures@@$1??$defaultMapKeyComparison@UPlayerIdAndGroupId@ConnectionGraph@@@4@YAHABU12@0@Z@DataStructures@@QAE@UPlayerIdAndGroupId@ConnectionGraph@@PAV?$Map@UPlayerIdAndGroupId@ConnectionGraph@@G$1??$defaultMapKeyComparison@UPlayerIdAndGroupId@ConnectionGraph@@@DataStructures@@YAHABU12@0@Z@2@@Z ; DataStructures::Map<ConnectionGraph::PlayerIdAndGroupId,DataStructures::Map<ConnectionGraph::PlayerIdAndGroupId,unsigned short,&DataStructures::defaultMapKeyComparison<ConnectionGraph::PlayerIdAndGroupId> > *,&DataStructures::defaultMapKeyComparison<ConnectionGraph::PlayerIdAndGroupId> >::MapNode::MapNode
PUBLIC	??1MapNode@?$Map@UPlayerIdAndGroupId@ConnectionGraph@@PAV?$Map@UPlayerIdAndGroupId@ConnectionGraph@@G$1??$defaultMapKeyComparison@UPlayerIdAndGroupId@ConnectionGraph@@@DataStructures@@YAHABU12@0@Z@DataStructures@@$1??$defaultMapKeyComparison@UPlayerIdAndGroupId@ConnectionGraph@@@4@YAHABU12@0@Z@DataStructures@@QAE@XZ ; DataStructures::Map<ConnectionGraph::PlayerIdAndGroupId,DataStructures::Map<ConnectionGraph::PlayerIdAndGroupId,unsigned short,&DataStructures::defaultMapKeyComparison<ConnectionGraph::PlayerIdAndGroupId> > *,&DataStructures::defaultMapKeyComparison<ConnectionGraph::PlayerIdAndGroupId> >::MapNode::~MapNode
PUBLIC	??4MapNode@?$Map@UPlayerIdAndGroupId@ConnectionGraph@@PAV?$Map@UPlayerIdAndGroupId@ConnectionGraph@@G$1??$defaultMapKeyComparison@UPlayerIdAndGroupId@ConnectionGraph@@@DataStructures@@YAHABU12@0@Z@DataStructures@@$1??$defaultMapKeyComparison@UPlayerIdAndGroupId@ConnectionGraph@@@4@YAHABU12@0@Z@DataStructures@@QAEAAU012@ABU012@@Z ; DataStructures::Map<ConnectionGraph::PlayerIdAndGroupId,DataStructures::Map<ConnectionGraph::PlayerIdAndGroupId,unsigned short,&DataStructures::defaultMapKeyComparison<ConnectionGraph::PlayerIdAndGroupId> > *,&DataStructures::defaultMapKeyComparison<ConnectionGraph::PlayerIdAndGroupId> >::MapNode::operator=
PUBLIC	??_EMapNode@?$Map@UPlayerIdAndGroupId@ConnectionGraph@@PAV?$Map@UPlayerIdAndGroupId@ConnectionGraph@@G$1??$defaultMapKeyComparison@UPlayerIdAndGroupId@ConnectionGraph@@@DataStructures@@YAHABU12@0@Z@DataStructures@@$1??$defaultMapKeyComparison@UPlayerIdAndGroupId@ConnectionGraph@@@4@YAHABU12@0@Z@DataStructures@@QAEPAXI@Z ; DataStructures::Map<ConnectionGraph::PlayerIdAndGroupId,DataStructures::Map<ConnectionGraph::PlayerIdAndGroupId,unsigned short,&DataStructures::defaultMapKeyComparison<ConnectionGraph::PlayerIdAndGroupId> > *,&DataStructures::defaultMapKeyComparison<ConnectionGraph::PlayerIdAndGroupId> >::MapNode::`vector deleting destructor'
PUBLIC	??0MapNode@?$Map@UPlayerIdAndGroupId@ConnectionGraph@@G$1??$defaultMapKeyComparison@UPlayerIdAndGroupId@ConnectionGraph@@@DataStructures@@YAHABU12@0@Z@DataStructures@@QAE@XZ ; DataStructures::Map<ConnectionGraph::PlayerIdAndGroupId,unsigned short,&DataStructures::defaultMapKeyComparison<ConnectionGraph::PlayerIdAndGroupId> >::MapNode::MapNode
PUBLIC	??0MapNode@?$Map@UPlayerIdAndGroupId@ConnectionGraph@@G$1??$defaultMapKeyComparison@UPlayerIdAndGroupId@ConnectionGraph@@@DataStructures@@YAHABU12@0@Z@DataStructures@@QAE@UPlayerIdAndGroupId@ConnectionGraph@@G@Z ; DataStructures::Map<ConnectionGraph::PlayerIdAndGroupId,unsigned short,&DataStructures::defaultMapKeyComparison<ConnectionGraph::PlayerIdAndGroupId> >::MapNode::MapNode
PUBLIC	??1MapNode@?$Map@UPlayerIdAndGroupId@ConnectionGraph@@G$1??$defaultMapKeyComparison@UPlayerIdAndGroupId@ConnectionGraph@@@DataStructures@@YAHABU12@0@Z@DataStructures@@QAE@XZ ; DataStructures::Map<ConnectionGraph::PlayerIdAndGroupId,unsigned short,&DataStructures::defaultMapKeyComparison<ConnectionGraph::PlayerIdAndGroupId> >::MapNode::~MapNode
PUBLIC	??4MapNode@?$Map@UPlayerIdAndGroupId@ConnectionGraph@@G$1??$defaultMapKeyComparison@UPlayerIdAndGroupId@ConnectionGraph@@@DataStructures@@YAHABU12@0@Z@DataStructures@@QAEAAU012@ABU012@@Z ; DataStructures::Map<ConnectionGraph::PlayerIdAndGroupId,unsigned short,&DataStructures::defaultMapKeyComparison<ConnectionGraph::PlayerIdAndGroupId> >::MapNode::operator=
PUBLIC	??_EMapNode@?$Map@UPlayerIdAndGroupId@ConnectionGraph@@G$1??$defaultMapKeyComparison@UPlayerIdAndGroupId@ConnectionGraph@@@DataStructures@@YAHABU12@0@Z@DataStructures@@QAEPAXI@Z ; DataStructures::Map<ConnectionGraph::PlayerIdAndGroupId,unsigned short,&DataStructures::defaultMapKeyComparison<ConnectionGraph::PlayerIdAndGroupId> >::MapNode::`vector deleting destructor'
PUBLIC	??_7PluginInterface@@6B@			; PluginInterface::`vftable'
PUBLIC	??_7ConnectionGraph@@6B@			; ConnectionGraph::`vftable'
PUBLIC	?__LINE__Var@?1??SetPassword@ConnectionGraph@@QAEXPBD@Z@4JA ; `ConnectionGraph::SetPassword'::`2'::__LINE__Var
PUBLIC	??_C@_1FI@HAMPLOBF@?$AAz?$AA?3?$AA?2?$AAs?$AAa?$AAm?$AAp?$AAs?$AAr?$AAc?$AA?2?$AA0?$AA2?$AAx?$AAu?$AA1?$AA?2?$AAr?$AAa?$AAk?$AAn?$AAe?$AAt?$AA?2?$AAc?$AAo?$AAn?$AAn?$AAe?$AAc?$AAt?$AAi@ ; `string'
PUBLIC	??_C@_1CK@OAIJMFJM@?$AAs?$AAt?$AAr?$AAl?$AAe?$AAn?$AA?$CI?$AAp?$AAa?$AAs?$AAs?$AAw?$AAo?$AAr?$AAd?$AA?$CJ?$AA?$DM?$AA2?$AA5?$AA6?$AA?$AA@ ; `string'
PUBLIC	?__LINE__Var@?1??HandleDroppedConnection@ConnectionGraph@@IAEXPAVRakPeerInterface@@UPlayerID@@E@Z@4JA ; `ConnectionGraph::HandleDroppedConnection'::`2'::__LINE__Var
PUBLIC	??_C@_19OLDIEKDA@?$AAp?$AAe?$AAe?$AAr?$AA?$AA@	; `string'
PUBLIC	?__LINE__Var@?1??DeserializeIgnoreList@ConnectionGraph@@IAE_NAAV?$OrderedList@UPlayerID@@U1@$1??$defaultOrderedListComparison@UPlayerID@@U1@@DataStructures@@YAHABU1@0@Z@DataStructures@@PAVBitStream@RakNet@@@Z@4JA ; `ConnectionGraph::DeserializeIgnoreList'::`2'::__LINE__Var
PUBLIC	??_C@_13COJANIEC@?$AA0?$AA?$AA@			; `string'
PUBLIC	?__LINE__Var@?1??DeserializeWeightedGraph@ConnectionGraph@@IAE_NPAVBitStream@RakNet@@PAVRakPeerInterface@@@Z@4JA ; `ConnectionGraph::DeserializeWeightedGraph'::`2'::__LINE__Var
PUBLIC	??_C@_1EI@CNBBGJFB@?$AAn?$AAo?$AAd?$AAe?$AA?4?$AAp?$AAl?$AAa?$AAy?$AAe?$AAr?$AAI?$AAd?$AA?$CB?$AA?$DN?$AAU?$AAN?$AAA?$AAS?$AAS?$AAI?$AAG?$AAN?$AAE?$AAD?$AA_?$AAP?$AAL?$AAA?$AAY?$AAE?$AAR@ ; `string'
PUBLIC	??_C@_1FE@GDDODEON@?$AAc?$AAo?$AAn?$AAn?$AAe?$AAc?$AAt?$AAi?$AAo?$AAn?$AA?4?$AAp?$AAl?$AAa?$AAy?$AAe?$AAr?$AAI?$AAd?$AA?$CB?$AA?$DN?$AAU?$AAN?$AAA?$AAS?$AAS?$AAI?$AAG?$AAN?$AAE?$AAD?$AA_@ ; `string'
PUBLIC	?__LINE__Var@?1??AddAndRelayConnection@ConnectionGraph@@IAEXAAV?$OrderedList@UPlayerID@@U1@$1??$defaultOrderedListComparison@UPlayerID@@U1@@DataStructures@@YAHABU1@0@Z@DataStructures@@ABUPlayerIdAndGroupId@2@1GPAVRakPeerInterface@@@Z@4JA ; `ConnectionGraph::AddAndRelayConnection'::`2'::__LINE__Var
PUBLIC	??_C@_1EK@MGLCJFKJ@?$AAc?$AAo?$AAn?$AAn?$AA1?$AA?4?$AAp?$AAl?$AAa?$AAy?$AAe?$AAr?$AAI?$AAd?$AA?$CB?$AA?$DN?$AAU?$AAN?$AAA?$AAS?$AAS?$AAI?$AAG?$AAN?$AAE?$AAD?$AA_?$AAP?$AAL?$AAA?$AAY?$AAE@ ; `string'
PUBLIC	??_C@_1EK@BMIIGCII@?$AAc?$AAo?$AAn?$AAn?$AA2?$AA?4?$AAp?$AAl?$AAa?$AAy?$AAe?$AAr?$AAI?$AAd?$AA?$CB?$AA?$DN?$AAU?$AAN?$AAA?$AAS?$AAS?$AAI?$AAG?$AAN?$AAE?$AAD?$AA_?$AAP?$AAL?$AAA?$AAY?$AAE@ ; `string'
PUBLIC	??_C@_1EE@MBOIAKFO@?$AAz?$AA?3?$AA?2?$AAs?$AAa?$AAm?$AAp?$AAs?$AAr?$AAc?$AA?2?$AA0?$AA2?$AAx?$AAu?$AA1?$AA?2?$AAr?$AAa?$AAk?$AAn?$AAe?$AAt?$AA?2?$AAd?$AAs?$AA_?$AAl?$AAi?$AAs?$AAt?$AA?4@ ; `string'
PUBLIC	??_C@_1CK@HINNGFPG@?$AAp?$AAo?$AAs?$AAi?$AAt?$AAi?$AAo?$AAn?$AA?5?$AA?$DM?$AA?5?$AAl?$AAi?$AAs?$AAt?$AA_?$AAs?$AAi?$AAz?$AAe?$AA?$AA@ ; `string'
PUBLIC	??_C@_1FC@PKHPOOLI@?$AAz?$AA?3?$AA?2?$AAs?$AAa?$AAm?$AAp?$AAs?$AAr?$AAc?$AA?2?$AA0?$AA2?$AAx?$AAu?$AA1?$AA?2?$AAr?$AAa?$AAk?$AAn?$AAe?$AAt?$AA?2?$AAd?$AAs?$AA_?$AAo?$AAr?$AAd?$AAe?$AAr@ ; `string'
PUBLIC	??_C@_1CG@FNLJFNDG@?$AAo?$AAb?$AAj?$AAe?$AAc?$AAt?$AAE?$AAx?$AAi?$AAs?$AAt?$AAs?$AA?$DN?$AA?$DN?$AAt?$AAr?$AAu?$AAe?$AA?$AA@ ; `string'
PUBLIC	??_C@_1CM@FMCFHBCK@?$AAp?$AAo?$AAs?$AAi?$AAt?$AAi?$AAo?$AAn?$AA?5?$AA?$DM?$AA?$DN?$AA?5?$AAl?$AAi?$AAs?$AAt?$AA_?$AAs?$AAi?$AAz?$AAe?$AA?$AA@ ; `string'
PUBLIC	??_C@_1EC@HMGNBIDO@?$AAz?$AA?3?$AA?2?$AAs?$AAa?$AAm?$AAp?$AAs?$AAr?$AAc?$AA?2?$AA0?$AA2?$AAx?$AAu?$AA1?$AA?2?$AAr?$AAa?$AAk?$AAn?$AAe?$AAt?$AA?2?$AAd?$AAs?$AA_?$AAm?$AAa?$AAp?$AA?4?$AAh@ ; `string'
PUBLIC	??_C@_1BK@EBNJALNF@?$AAo?$AAb?$AAj?$AAe?$AAc?$AAt?$AAE?$AAx?$AAi?$AAs?$AAt?$AAs?$AA?$AA@ ; `string'
PUBLIC	??_C@_1BO@JBFMBKMD@?$AAl?$AAi?$AAs?$AAt?$AA_?$AAs?$AAi?$AAz?$AAe?$AA?$DO?$AA?$DN?$AAn?$AAu?$AAm?$AA?$AA@ ; `string'
PUBLIC	??_C@_1CI@KPPGELK@?$AAo?$AAb?$AAj?$AAe?$AAc?$AAt?$AAE?$AAx?$AAi?$AAs?$AAt?$AAs?$AA?$DN?$AA?$DN?$AAf?$AAa?$AAl?$AAs?$AAe?$AA?$AA@ ; `string'
PUBLIC	??_C@_1EG@DIEEECKO@?$AAz?$AA?3?$AA?2?$AAs?$AAa?$AAm?$AAp?$AAs?$AAr?$AAc?$AA?2?$AA0?$AA2?$AAx?$AAu?$AA1?$AA?2?$AAr?$AAa?$AAk?$AAn?$AAe?$AAt?$AA?2?$AAd?$AAs?$AA_?$AAq?$AAu?$AAe?$AAu?$AAe@ ; `string'
PUBLIC	??_C@_1BE@OMEGJCHO@?$AAn?$AAe?$AAw?$AA_?$AAa?$AAr?$AAr?$AAa?$AAy?$AA?$AA@ ; `string'
PUBLIC	??_C@_1GG@JDEIIJCO@?$AAa?$AAl?$AAl?$AAo?$AAc?$AAa?$AAt?$AAi?$AAo?$AAn?$AA_?$AAs?$AAi?$AAz?$AAe?$AA?5?$AA?$DO?$AA?5?$AA0?$AA?5?$AA?$CG?$AA?$CG?$AA?5?$AAS?$AAi?$AAz?$AAe?$AA?$CI?$AA?$CJ?$AA?5?$AA?$DO?$AA?$DN@ ; `string'
PUBLIC	??_R4PluginInterface@@6B@			; PluginInterface::`RTTI Complete Object Locator'
PUBLIC	??_R0?AVPluginInterface@@@8			; PluginInterface `RTTI Type Descriptor'
PUBLIC	??_R3PluginInterface@@8				; PluginInterface::`RTTI Class Hierarchy Descriptor'
PUBLIC	??_R2PluginInterface@@8				; PluginInterface::`RTTI Base Class Array'
PUBLIC	??_R1A@?0A@EA@PluginInterface@@8		; PluginInterface::`RTTI Base Class Descriptor at (0,-1,0,64)'
PUBLIC	??_R4ConnectionGraph@@6B@			; ConnectionGraph::`RTTI Complete Object Locator'
PUBLIC	??_R0?AVConnectionGraph@@@8			; ConnectionGraph `RTTI Type Descriptor'
PUBLIC	??_R3ConnectionGraph@@8				; ConnectionGraph::`RTTI Class Hierarchy Descriptor'
PUBLIC	??_R2ConnectionGraph@@8				; ConnectionGraph::`RTTI Base Class Array'
PUBLIC	??_R1A@?0A@EA@ConnectionGraph@@8		; ConnectionGraph::`RTTI Base Class Descriptor at (0,-1,0,64)'
EXTRN	??_L@YGXPAXIHP6EX0@Z1@Z:PROC			; `eh vector constructor iterator'
EXTRN	??_M@YGXPAXIHP6EX0@Z@Z:PROC			; `eh vector destructor iterator'
EXTRN	??2@YAPAXI@Z:PROC				; operator new
EXTRN	??3@YAXPAX@Z:PROC				; operator delete
EXTRN	??8PlayerID@@QBE_NABU0@@Z:PROC			; PlayerID::operator==
EXTRN	??9PlayerID@@QBE_NABU0@@Z:PROC			; PlayerID::operator!=
EXTRN	??OPlayerID@@QBE_NABU0@@Z:PROC			; PlayerID::operator>
EXTRN	??MPlayerID@@QBE_NABU0@@Z:PROC			; PlayerID::operator<
EXTRN	?OnAttach@PluginInterface@@UAEXPAVRakPeerInterface@@@Z:PROC ; PluginInterface::OnAttach
EXTRN	?OnDetach@PluginInterface@@UAEXPAVRakPeerInterface@@@Z:PROC ; PluginInterface::OnDetach
EXTRN	?OnInitialize@PluginInterface@@UAEXPAVRakPeerInterface@@@Z:PROC ; PluginInterface::OnInitialize
EXTRN	?Update@PluginInterface@@UAEXPAVRakPeerInterface@@@Z:PROC ; PluginInterface::Update
EXTRN	?OnReceive@PluginInterface@@UAE?AW4PluginReceiveResult@@PAVRakPeerInterface@@PAUPacket@@@Z:PROC ; PluginInterface::OnReceive
EXTRN	?OnDisconnect@PluginInterface@@UAEXPAVRakPeerInterface@@@Z:PROC ; PluginInterface::OnDisconnect
EXTRN	?OnCloseConnection@PluginInterface@@UAEXPAVRakPeerInterface@@UPlayerID@@@Z:PROC ; PluginInterface::OnCloseConnection
EXTRN	?OnDirectSocketSend@PluginInterface@@UAEXPBDIUPlayerID@@@Z:PROC ; PluginInterface::OnDirectSocketSend
EXTRN	?OnDirectSocketReceive@PluginInterface@@UAEXPBDIUPlayerID@@@Z:PROC ; PluginInterface::OnDirectSocketReceive
EXTRN	?OnInternalPacket@PluginInterface@@UAEXPAUInternalPacket@@IUPlayerID@@I_N@Z:PROC ; PluginInterface::OnInternalPacket
EXTRN	__wassert:PROC
EXTRN	_memcpy:PROC
EXTRN	_strcpy:PROC
EXTRN	_strcmp:PROC
EXTRN	_strlen:PROC
EXTRN	_memmove:PROC
EXTRN	??0BitStream@RakNet@@QAE@XZ:PROC		; RakNet::BitStream::BitStream
EXTRN	??0BitStream@RakNet@@QAE@PAEI_N@Z:PROC		; RakNet::BitStream::BitStream
EXTRN	??1BitStream@RakNet@@QAE@XZ:PROC		; RakNet::BitStream::~BitStream
EXTRN	?IgnoreBits@BitStream@RakNet@@QAEXH@Z:PROC	; RakNet::BitStream::IgnoreBits
EXTRN	?SetWriteOffset@BitStream@RakNet@@QAEXH@Z:PROC	; RakNet::BitStream::SetWriteOffset
EXTRN	?WriteBits@BitStream@RakNet@@QAEXPBEH_N@Z:PROC	; RakNet::BitStream::WriteBits
EXTRN	?AlignWriteToByteBoundary@BitStream@RakNet@@QAEXXZ:PROC ; RakNet::BitStream::AlignWriteToByteBoundary
EXTRN	?AlignReadToByteBoundary@BitStream@RakNet@@QAEXXZ:PROC ; RakNet::BitStream::AlignReadToByteBoundary
EXTRN	?ReadBits@BitStream@RakNet@@QAE_NPAEH_N@Z:PROC	; RakNet::BitStream::ReadBits
EXTRN	?WriteCompressed@BitStream@RakNet@@AAEXPBEH_N@Z:PROC ; RakNet::BitStream::WriteCompressed
EXTRN	?ReadCompressed@BitStream@RakNet@@AAE_NPAEH_N@Z:PROC ; RakNet::BitStream::ReadCompressed
EXTRN	?Instance@StringCompressor@@SAPAV1@XZ:PROC	; StringCompressor::Instance
EXTRN	?EncodeString@StringCompressor@@QAEXPBDHPAVBitStream@RakNet@@H@Z:PROC ; StringCompressor::EncodeString
EXTRN	?DecodeString@StringCompressor@@QAE_NPADHPAVBitStream@RakNet@@H@Z:PROC ; StringCompressor::DecodeString
EXTRN	?AllocPacket@@YAPAUPacket@@I@Z:PROC		; AllocPacket
EXTRN	@_RTC_CheckStackVars@8:PROC
EXTRN	@__security_check_cookie@4:PROC
EXTRN	__RTC_CheckEsp:PROC
EXTRN	__RTC_InitBase:PROC
EXTRN	__RTC_Shutdown:PROC
EXTRN	___CxxFrameHandler3:PROC
EXTRN	??_7type_info@@6B@:QWORD			; type_info::`vftable'
EXTRN	___security_cookie:DWORD
;	COMDAT rtc$TMZ
rtc$TMZ	SEGMENT
__RTC_Shutdown.rtc$TMZ DD FLAT:__RTC_Shutdown
rtc$TMZ	ENDS
;	COMDAT rtc$IMZ
rtc$IMZ	SEGMENT
__RTC_InitBase.rtc$IMZ DD FLAT:__RTC_InitBase
rtc$IMZ	ENDS
;	COMDAT ??_R1A@?0A@EA@ConnectionGraph@@8
rdata$r	SEGMENT
??_R1A@?0A@EA@ConnectionGraph@@8 DD FLAT:??_R0?AVConnectionGraph@@@8 ; ConnectionGraph::`RTTI Base Class Descriptor at (0,-1,0,64)'
	DD	01H
	DD	00H
	DD	0ffffffffH
	DD	00H
	DD	040H
	DD	FLAT:??_R3ConnectionGraph@@8
rdata$r	ENDS
;	COMDAT ??_R2ConnectionGraph@@8
rdata$r	SEGMENT
??_R2ConnectionGraph@@8 DD FLAT:??_R1A@?0A@EA@ConnectionGraph@@8 ; ConnectionGraph::`RTTI Base Class Array'
	DD	FLAT:??_R1A@?0A@EA@PluginInterface@@8
rdata$r	ENDS
;	COMDAT ??_R3ConnectionGraph@@8
rdata$r	SEGMENT
??_R3ConnectionGraph@@8 DD 00H				; ConnectionGraph::`RTTI Class Hierarchy Descriptor'
	DD	00H
	DD	02H
	DD	FLAT:??_R2ConnectionGraph@@8
rdata$r	ENDS
;	COMDAT ??_R0?AVConnectionGraph@@@8
data$r	SEGMENT
??_R0?AVConnectionGraph@@@8 DD FLAT:??_7type_info@@6B@	; ConnectionGraph `RTTI Type Descriptor'
	DD	00H
	DB	'.?AVConnectionGraph@@', 00H
data$r	ENDS
;	COMDAT ??_R4ConnectionGraph@@6B@
rdata$r	SEGMENT
??_R4ConnectionGraph@@6B@ DD 00H			; ConnectionGraph::`RTTI Complete Object Locator'
	DD	00H
	DD	00H
	DD	FLAT:??_R0?AVConnectionGraph@@@8
	DD	FLAT:??_R3ConnectionGraph@@8
rdata$r	ENDS
;	COMDAT ??_R1A@?0A@EA@PluginInterface@@8
rdata$r	SEGMENT
??_R1A@?0A@EA@PluginInterface@@8 DD FLAT:??_R0?AVPluginInterface@@@8 ; PluginInterface::`RTTI Base Class Descriptor at (0,-1,0,64)'
	DD	00H
	DD	00H
	DD	0ffffffffH
	DD	00H
	DD	040H
	DD	FLAT:??_R3PluginInterface@@8
rdata$r	ENDS
;	COMDAT ??_R2PluginInterface@@8
rdata$r	SEGMENT
??_R2PluginInterface@@8 DD FLAT:??_R1A@?0A@EA@PluginInterface@@8 ; PluginInterface::`RTTI Base Class Array'
rdata$r	ENDS
;	COMDAT ??_R3PluginInterface@@8
rdata$r	SEGMENT
??_R3PluginInterface@@8 DD 00H				; PluginInterface::`RTTI Class Hierarchy Descriptor'
	DD	00H
	DD	01H
	DD	FLAT:??_R2PluginInterface@@8
rdata$r	ENDS
;	COMDAT ??_R0?AVPluginInterface@@@8
data$r	SEGMENT
??_R0?AVPluginInterface@@@8 DD FLAT:??_7type_info@@6B@	; PluginInterface `RTTI Type Descriptor'
	DD	00H
	DB	'.?AVPluginInterface@@', 00H
data$r	ENDS
;	COMDAT ??_R4PluginInterface@@6B@
rdata$r	SEGMENT
??_R4PluginInterface@@6B@ DD 00H			; PluginInterface::`RTTI Complete Object Locator'
	DD	00H
	DD	00H
	DD	FLAT:??_R0?AVPluginInterface@@@8
	DD	FLAT:??_R3PluginInterface@@8
rdata$r	ENDS
;	COMDAT ??_C@_1GG@JDEIIJCO@?$AAa?$AAl?$AAl?$AAo?$AAc?$AAa?$AAt?$AAi?$AAo?$AAn?$AA_?$AAs?$AAi?$AAz?$AAe?$AA?5?$AA?$DO?$AA?5?$AA0?$AA?5?$AA?$CG?$AA?$CG?$AA?5?$AAS?$AAi?$AAz?$AAe?$AA?$CI?$AA?$CJ?$AA?5?$AA?$DO?$AA?$DN@
CONST	SEGMENT
??_C@_1GG@JDEIIJCO@?$AAa?$AAl?$AAl?$AAo?$AAc?$AAa?$AAt?$AAi?$AAo?$AAn?$AA_?$AAs?$AAi?$AAz?$AAe?$AA?5?$AA?$DO?$AA?5?$AA0?$AA?5?$AA?$CG?$AA?$CG?$AA?5?$AAS?$AAi?$AAz?$AAe?$AA?$CI?$AA?$CJ?$AA?5?$AA?$DO?$AA?$DN@ DB 'a'
	DB	00H, 'l', 00H, 'l', 00H, 'o', 00H, 'c', 00H, 'a', 00H, 't', 00H
	DB	'i', 00H, 'o', 00H, 'n', 00H, '_', 00H, 's', 00H, 'i', 00H, 'z'
	DB	00H, 'e', 00H, ' ', 00H, '>', 00H, ' ', 00H, '0', 00H, ' ', 00H
	DB	'&', 00H, '&', 00H, ' ', 00H, 'S', 00H, 'i', 00H, 'z', 00H, 'e'
	DB	00H, '(', 00H, ')', 00H, ' ', 00H, '>', 00H, '=', 00H, ' ', 00H
	DB	'0', 00H, ' ', 00H, '&', 00H, '&', 00H, ' ', 00H, 'h', 00H, 'e'
	DB	00H, 'a', 00H, 'd', 00H, ' ', 00H, '!', 00H, '=', 00H, ' ', 00H
	DB	't', 00H, 'a', 00H, 'i', 00H, 'l', 00H, 00H, 00H ; `string'
CONST	ENDS
;	COMDAT ??_C@_1BE@OMEGJCHO@?$AAn?$AAe?$AAw?$AA_?$AAa?$AAr?$AAr?$AAa?$AAy?$AA?$AA@
CONST	SEGMENT
??_C@_1BE@OMEGJCHO@?$AAn?$AAe?$AAw?$AA_?$AAa?$AAr?$AAr?$AAa?$AAy?$AA?$AA@ DB 'n'
	DB	00H, 'e', 00H, 'w', 00H, '_', 00H, 'a', 00H, 'r', 00H, 'r', 00H
	DB	'a', 00H, 'y', 00H, 00H, 00H			; `string'
CONST	ENDS
;	COMDAT ??_C@_1EG@DIEEECKO@?$AAz?$AA?3?$AA?2?$AAs?$AAa?$AAm?$AAp?$AAs?$AAr?$AAc?$AA?2?$AA0?$AA2?$AAx?$AAu?$AA1?$AA?2?$AAr?$AAa?$AAk?$AAn?$AAe?$AAt?$AA?2?$AAd?$AAs?$AA_?$AAq?$AAu?$AAe?$AAu?$AAe@
CONST	SEGMENT
??_C@_1EG@DIEEECKO@?$AAz?$AA?3?$AA?2?$AAs?$AAa?$AAm?$AAp?$AAs?$AAr?$AAc?$AA?2?$AA0?$AA2?$AAx?$AAu?$AA1?$AA?2?$AAr?$AAa?$AAk?$AAn?$AAe?$AAt?$AA?2?$AAd?$AAs?$AA_?$AAq?$AAu?$AAe?$AAu?$AAe@ DB 'z'
	DB	00H, ':', 00H, '\', 00H, 's', 00H, 'a', 00H, 'm', 00H, 'p', 00H
	DB	's', 00H, 'r', 00H, 'c', 00H, '\', 00H, '0', 00H, '2', 00H, 'x'
	DB	00H, 'u', 00H, '1', 00H, '\', 00H, 'r', 00H, 'a', 00H, 'k', 00H
	DB	'n', 00H, 'e', 00H, 't', 00H, '\', 00H, 'd', 00H, 's', 00H, '_'
	DB	00H, 'q', 00H, 'u', 00H, 'e', 00H, 'u', 00H, 'e', 00H, '.', 00H
	DB	'h', 00H, 00H, 00H				; `string'
CONST	ENDS
;	COMDAT ??_C@_1CI@KPPGELK@?$AAo?$AAb?$AAj?$AAe?$AAc?$AAt?$AAE?$AAx?$AAi?$AAs?$AAt?$AAs?$AA?$DN?$AA?$DN?$AAf?$AAa?$AAl?$AAs?$AAe?$AA?$AA@
CONST	SEGMENT
??_C@_1CI@KPPGELK@?$AAo?$AAb?$AAj?$AAe?$AAc?$AAt?$AAE?$AAx?$AAi?$AAs?$AAt?$AAs?$AA?$DN?$AA?$DN?$AAf?$AAa?$AAl?$AAs?$AAe?$AA?$AA@ DB 'o'
	DB	00H, 'b', 00H, 'j', 00H, 'e', 00H, 'c', 00H, 't', 00H, 'E', 00H
	DB	'x', 00H, 'i', 00H, 's', 00H, 't', 00H, 's', 00H, '=', 00H, '='
	DB	00H, 'f', 00H, 'a', 00H, 'l', 00H, 's', 00H, 'e', 00H, 00H, 00H ; `string'
CONST	ENDS
;	COMDAT ??_C@_1BO@JBFMBKMD@?$AAl?$AAi?$AAs?$AAt?$AA_?$AAs?$AAi?$AAz?$AAe?$AA?$DO?$AA?$DN?$AAn?$AAu?$AAm?$AA?$AA@
CONST	SEGMENT
??_C@_1BO@JBFMBKMD@?$AAl?$AAi?$AAs?$AAt?$AA_?$AAs?$AAi?$AAz?$AAe?$AA?$DO?$AA?$DN?$AAn?$AAu?$AAm?$AA?$AA@ DB 'l'
	DB	00H, 'i', 00H, 's', 00H, 't', 00H, '_', 00H, 's', 00H, 'i', 00H
	DB	'z', 00H, 'e', 00H, '>', 00H, '=', 00H, 'n', 00H, 'u', 00H, 'm'
	DB	00H, 00H, 00H				; `string'
CONST	ENDS
;	COMDAT ??_C@_1BK@EBNJALNF@?$AAo?$AAb?$AAj?$AAe?$AAc?$AAt?$AAE?$AAx?$AAi?$AAs?$AAt?$AAs?$AA?$AA@
CONST	SEGMENT
??_C@_1BK@EBNJALNF@?$AAo?$AAb?$AAj?$AAe?$AAc?$AAt?$AAE?$AAx?$AAi?$AAs?$AAt?$AAs?$AA?$AA@ DB 'o'
	DB	00H, 'b', 00H, 'j', 00H, 'e', 00H, 'c', 00H, 't', 00H, 'E', 00H
	DB	'x', 00H, 'i', 00H, 's', 00H, 't', 00H, 's', 00H, 00H, 00H ; `string'
CONST	ENDS
;	COMDAT ??_C@_1EC@HMGNBIDO@?$AAz?$AA?3?$AA?2?$AAs?$AAa?$AAm?$AAp?$AAs?$AAr?$AAc?$AA?2?$AA0?$AA2?$AAx?$AAu?$AA1?$AA?2?$AAr?$AAa?$AAk?$AAn?$AAe?$AAt?$AA?2?$AAd?$AAs?$AA_?$AAm?$AAa?$AAp?$AA?4?$AAh@
CONST	SEGMENT
??_C@_1EC@HMGNBIDO@?$AAz?$AA?3?$AA?2?$AAs?$AAa?$AAm?$AAp?$AAs?$AAr?$AAc?$AA?2?$AA0?$AA2?$AAx?$AAu?$AA1?$AA?2?$AAr?$AAa?$AAk?$AAn?$AAe?$AAt?$AA?2?$AAd?$AAs?$AA_?$AAm?$AAa?$AAp?$AA?4?$AAh@ DB 'z'
	DB	00H, ':', 00H, '\', 00H, 's', 00H, 'a', 00H, 'm', 00H, 'p', 00H
	DB	's', 00H, 'r', 00H, 'c', 00H, '\', 00H, '0', 00H, '2', 00H, 'x'
	DB	00H, 'u', 00H, '1', 00H, '\', 00H, 'r', 00H, 'a', 00H, 'k', 00H
	DB	'n', 00H, 'e', 00H, 't', 00H, '\', 00H, 'd', 00H, 's', 00H, '_'
	DB	00H, 'm', 00H, 'a', 00H, 'p', 00H, '.', 00H, 'h', 00H, 00H, 00H ; `string'
CONST	ENDS
;	COMDAT ??_C@_1CM@FMCFHBCK@?$AAp?$AAo?$AAs?$AAi?$AAt?$AAi?$AAo?$AAn?$AA?5?$AA?$DM?$AA?$DN?$AA?5?$AAl?$AAi?$AAs?$AAt?$AA_?$AAs?$AAi?$AAz?$AAe?$AA?$AA@
CONST	SEGMENT
??_C@_1CM@FMCFHBCK@?$AAp?$AAo?$AAs?$AAi?$AAt?$AAi?$AAo?$AAn?$AA?5?$AA?$DM?$AA?$DN?$AA?5?$AAl?$AAi?$AAs?$AAt?$AA_?$AAs?$AAi?$AAz?$AAe?$AA?$AA@ DB 'p'
	DB	00H, 'o', 00H, 's', 00H, 'i', 00H, 't', 00H, 'i', 00H, 'o', 00H
	DB	'n', 00H, ' ', 00H, '<', 00H, '=', 00H, ' ', 00H, 'l', 00H, 'i'
	DB	00H, 's', 00H, 't', 00H, '_', 00H, 's', 00H, 'i', 00H, 'z', 00H
	DB	'e', 00H, 00H, 00H				; `string'
CONST	ENDS
;	COMDAT ??_C@_1CG@FNLJFNDG@?$AAo?$AAb?$AAj?$AAe?$AAc?$AAt?$AAE?$AAx?$AAi?$AAs?$AAt?$AAs?$AA?$DN?$AA?$DN?$AAt?$AAr?$AAu?$AAe?$AA?$AA@
CONST	SEGMENT
??_C@_1CG@FNLJFNDG@?$AAo?$AAb?$AAj?$AAe?$AAc?$AAt?$AAE?$AAx?$AAi?$AAs?$AAt?$AAs?$AA?$DN?$AA?$DN?$AAt?$AAr?$AAu?$AAe?$AA?$AA@ DB 'o'
	DB	00H, 'b', 00H, 'j', 00H, 'e', 00H, 'c', 00H, 't', 00H, 'E', 00H
	DB	'x', 00H, 'i', 00H, 's', 00H, 't', 00H, 's', 00H, '=', 00H, '='
	DB	00H, 't', 00H, 'r', 00H, 'u', 00H, 'e', 00H, 00H, 00H ; `string'
CONST	ENDS
;	COMDAT ??_C@_1FC@PKHPOOLI@?$AAz?$AA?3?$AA?2?$AAs?$AAa?$AAm?$AAp?$AAs?$AAr?$AAc?$AA?2?$AA0?$AA2?$AAx?$AAu?$AA1?$AA?2?$AAr?$AAa?$AAk?$AAn?$AAe?$AAt?$AA?2?$AAd?$AAs?$AA_?$AAo?$AAr?$AAd?$AAe?$AAr@
CONST	SEGMENT
??_C@_1FC@PKHPOOLI@?$AAz?$AA?3?$AA?2?$AAs?$AAa?$AAm?$AAp?$AAs?$AAr?$AAc?$AA?2?$AA0?$AA2?$AAx?$AAu?$AA1?$AA?2?$AAr?$AAa?$AAk?$AAn?$AAe?$AAt?$AA?2?$AAd?$AAs?$AA_?$AAo?$AAr?$AAd?$AAe?$AAr@ DB 'z'
	DB	00H, ':', 00H, '\', 00H, 's', 00H, 'a', 00H, 'm', 00H, 'p', 00H
	DB	's', 00H, 'r', 00H, 'c', 00H, '\', 00H, '0', 00H, '2', 00H, 'x'
	DB	00H, 'u', 00H, '1', 00H, '\', 00H, 'r', 00H, 'a', 00H, 'k', 00H
	DB	'n', 00H, 'e', 00H, 't', 00H, '\', 00H, 'd', 00H, 's', 00H, '_'
	DB	00H, 'o', 00H, 'r', 00H, 'd', 00H, 'e', 00H, 'r', 00H, 'e', 00H
	DB	'd', 00H, 'l', 00H, 'i', 00H, 's', 00H, 't', 00H, '.', 00H, 'h'
	DB	00H, 00H, 00H				; `string'
CONST	ENDS
;	COMDAT ??_C@_1CK@HINNGFPG@?$AAp?$AAo?$AAs?$AAi?$AAt?$AAi?$AAo?$AAn?$AA?5?$AA?$DM?$AA?5?$AAl?$AAi?$AAs?$AAt?$AA_?$AAs?$AAi?$AAz?$AAe?$AA?$AA@
CONST	SEGMENT
??_C@_1CK@HINNGFPG@?$AAp?$AAo?$AAs?$AAi?$AAt?$AAi?$AAo?$AAn?$AA?5?$AA?$DM?$AA?5?$AAl?$AAi?$AAs?$AAt?$AA_?$AAs?$AAi?$AAz?$AAe?$AA?$AA@ DB 'p'
	DB	00H, 'o', 00H, 's', 00H, 'i', 00H, 't', 00H, 'i', 00H, 'o', 00H
	DB	'n', 00H, ' ', 00H, '<', 00H, ' ', 00H, 'l', 00H, 'i', 00H, 's'
	DB	00H, 't', 00H, '_', 00H, 's', 00H, 'i', 00H, 'z', 00H, 'e', 00H
	DB	00H, 00H					; `string'
CONST	ENDS
;	COMDAT ??_C@_1EE@MBOIAKFO@?$AAz?$AA?3?$AA?2?$AAs?$AAa?$AAm?$AAp?$AAs?$AAr?$AAc?$AA?2?$AA0?$AA2?$AAx?$AAu?$AA1?$AA?2?$AAr?$AAa?$AAk?$AAn?$AAe?$AAt?$AA?2?$AAd?$AAs?$AA_?$AAl?$AAi?$AAs?$AAt?$AA?4@
CONST	SEGMENT
??_C@_1EE@MBOIAKFO@?$AAz?$AA?3?$AA?2?$AAs?$AAa?$AAm?$AAp?$AAs?$AAr?$AAc?$AA?2?$AA0?$AA2?$AAx?$AAu?$AA1?$AA?2?$AAr?$AAa?$AAk?$AAn?$AAe?$AAt?$AA?2?$AAd?$AAs?$AA_?$AAl?$AAi?$AAs?$AAt?$AA?4@ DB 'z'
	DB	00H, ':', 00H, '\', 00H, 's', 00H, 'a', 00H, 'm', 00H, 'p', 00H
	DB	's', 00H, 'r', 00H, 'c', 00H, '\', 00H, '0', 00H, '2', 00H, 'x'
	DB	00H, 'u', 00H, '1', 00H, '\', 00H, 'r', 00H, 'a', 00H, 'k', 00H
	DB	'n', 00H, 'e', 00H, 't', 00H, '\', 00H, 'd', 00H, 's', 00H, '_'
	DB	00H, 'l', 00H, 'i', 00H, 's', 00H, 't', 00H, '.', 00H, 'h', 00H
	DB	00H, 00H					; `string'
CONST	ENDS
;	COMDAT ??_C@_1EK@BMIIGCII@?$AAc?$AAo?$AAn?$AAn?$AA2?$AA?4?$AAp?$AAl?$AAa?$AAy?$AAe?$AAr?$AAI?$AAd?$AA?$CB?$AA?$DN?$AAU?$AAN?$AAA?$AAS?$AAS?$AAI?$AAG?$AAN?$AAE?$AAD?$AA_?$AAP?$AAL?$AAA?$AAY?$AAE@
CONST	SEGMENT
??_C@_1EK@BMIIGCII@?$AAc?$AAo?$AAn?$AAn?$AA2?$AA?4?$AAp?$AAl?$AAa?$AAy?$AAe?$AAr?$AAI?$AAd?$AA?$CB?$AA?$DN?$AAU?$AAN?$AAA?$AAS?$AAS?$AAI?$AAG?$AAN?$AAE?$AAD?$AA_?$AAP?$AAL?$AAA?$AAY?$AAE@ DB 'c'
	DB	00H, 'o', 00H, 'n', 00H, 'n', 00H, '2', 00H, '.', 00H, 'p', 00H
	DB	'l', 00H, 'a', 00H, 'y', 00H, 'e', 00H, 'r', 00H, 'I', 00H, 'd'
	DB	00H, '!', 00H, '=', 00H, 'U', 00H, 'N', 00H, 'A', 00H, 'S', 00H
	DB	'S', 00H, 'I', 00H, 'G', 00H, 'N', 00H, 'E', 00H, 'D', 00H, '_'
	DB	00H, 'P', 00H, 'L', 00H, 'A', 00H, 'Y', 00H, 'E', 00H, 'R', 00H
	DB	'_', 00H, 'I', 00H, 'D', 00H, 00H, 00H	; `string'
CONST	ENDS
;	COMDAT ??_C@_1EK@MGLCJFKJ@?$AAc?$AAo?$AAn?$AAn?$AA1?$AA?4?$AAp?$AAl?$AAa?$AAy?$AAe?$AAr?$AAI?$AAd?$AA?$CB?$AA?$DN?$AAU?$AAN?$AAA?$AAS?$AAS?$AAI?$AAG?$AAN?$AAE?$AAD?$AA_?$AAP?$AAL?$AAA?$AAY?$AAE@
CONST	SEGMENT
??_C@_1EK@MGLCJFKJ@?$AAc?$AAo?$AAn?$AAn?$AA1?$AA?4?$AAp?$AAl?$AAa?$AAy?$AAe?$AAr?$AAI?$AAd?$AA?$CB?$AA?$DN?$AAU?$AAN?$AAA?$AAS?$AAS?$AAI?$AAG?$AAN?$AAE?$AAD?$AA_?$AAP?$AAL?$AAA?$AAY?$AAE@ DB 'c'
	DB	00H, 'o', 00H, 'n', 00H, 'n', 00H, '1', 00H, '.', 00H, 'p', 00H
	DB	'l', 00H, 'a', 00H, 'y', 00H, 'e', 00H, 'r', 00H, 'I', 00H, 'd'
	DB	00H, '!', 00H, '=', 00H, 'U', 00H, 'N', 00H, 'A', 00H, 'S', 00H
	DB	'S', 00H, 'I', 00H, 'G', 00H, 'N', 00H, 'E', 00H, 'D', 00H, '_'
	DB	00H, 'P', 00H, 'L', 00H, 'A', 00H, 'Y', 00H, 'E', 00H, 'R', 00H
	DB	'_', 00H, 'I', 00H, 'D', 00H, 00H, 00H	; `string'
CONST	ENDS
;	COMDAT ?__LINE__Var@?1??AddAndRelayConnection@ConnectionGraph@@IAEXAAV?$OrderedList@UPlayerID@@U1@$1??$defaultOrderedListComparison@UPlayerID@@U1@@DataStructures@@YAHABU1@0@Z@DataStructures@@ABUPlayerIdAndGroupId@2@1GPAVRakPeerInterface@@@Z@4JA
_DATA	SEGMENT
?__LINE__Var@?1??AddAndRelayConnection@ConnectionGraph@@IAEXAAV?$OrderedList@UPlayerID@@U1@$1??$defaultOrderedListComparison@UPlayerID@@U1@@DataStructures@@YAHABU1@0@Z@DataStructures@@ABUPlayerIdAndGroupId@2@1GPAVRakPeerInterface@@@Z@4JA DD 01f7H ; `ConnectionGraph::AddAndRelayConnection'::`2'::__LINE__Var
_DATA	ENDS
;	COMDAT ??_C@_1FE@GDDODEON@?$AAc?$AAo?$AAn?$AAn?$AAe?$AAc?$AAt?$AAi?$AAo?$AAn?$AA?4?$AAp?$AAl?$AAa?$AAy?$AAe?$AAr?$AAI?$AAd?$AA?$CB?$AA?$DN?$AAU?$AAN?$AAA?$AAS?$AAS?$AAI?$AAG?$AAN?$AAE?$AAD?$AA_@
CONST	SEGMENT
??_C@_1FE@GDDODEON@?$AAc?$AAo?$AAn?$AAn?$AAe?$AAc?$AAt?$AAi?$AAo?$AAn?$AA?4?$AAp?$AAl?$AAa?$AAy?$AAe?$AAr?$AAI?$AAd?$AA?$CB?$AA?$DN?$AAU?$AAN?$AAA?$AAS?$AAS?$AAI?$AAG?$AAN?$AAE?$AAD?$AA_@ DB 'c'
	DB	00H, 'o', 00H, 'n', 00H, 'n', 00H, 'e', 00H, 'c', 00H, 't', 00H
	DB	'i', 00H, 'o', 00H, 'n', 00H, '.', 00H, 'p', 00H, 'l', 00H, 'a'
	DB	00H, 'y', 00H, 'e', 00H, 'r', 00H, 'I', 00H, 'd', 00H, '!', 00H
	DB	'=', 00H, 'U', 00H, 'N', 00H, 'A', 00H, 'S', 00H, 'S', 00H, 'I'
	DB	00H, 'G', 00H, 'N', 00H, 'E', 00H, 'D', 00H, '_', 00H, 'P', 00H
	DB	'L', 00H, 'A', 00H, 'Y', 00H, 'E', 00H, 'R', 00H, '_', 00H, 'I'
	DB	00H, 'D', 00H, 00H, 00H			; `string'
CONST	ENDS
;	COMDAT ??_C@_1EI@CNBBGJFB@?$AAn?$AAo?$AAd?$AAe?$AA?4?$AAp?$AAl?$AAa?$AAy?$AAe?$AAr?$AAI?$AAd?$AA?$CB?$AA?$DN?$AAU?$AAN?$AAA?$AAS?$AAS?$AAI?$AAG?$AAN?$AAE?$AAD?$AA_?$AAP?$AAL?$AAA?$AAY?$AAE?$AAR@
CONST	SEGMENT
??_C@_1EI@CNBBGJFB@?$AAn?$AAo?$AAd?$AAe?$AA?4?$AAp?$AAl?$AAa?$AAy?$AAe?$AAr?$AAI?$AAd?$AA?$CB?$AA?$DN?$AAU?$AAN?$AAA?$AAS?$AAS?$AAI?$AAG?$AAN?$AAE?$AAD?$AA_?$AAP?$AAL?$AAA?$AAY?$AAE?$AAR@ DB 'n'
	DB	00H, 'o', 00H, 'd', 00H, 'e', 00H, '.', 00H, 'p', 00H, 'l', 00H
	DB	'a', 00H, 'y', 00H, 'e', 00H, 'r', 00H, 'I', 00H, 'd', 00H, '!'
	DB	00H, '=', 00H, 'U', 00H, 'N', 00H, 'A', 00H, 'S', 00H, 'S', 00H
	DB	'I', 00H, 'G', 00H, 'N', 00H, 'E', 00H, 'D', 00H, '_', 00H, 'P'
	DB	00H, 'L', 00H, 'A', 00H, 'Y', 00H, 'E', 00H, 'R', 00H, '_', 00H
	DB	'I', 00H, 'D', 00H, 00H, 00H			; `string'
CONST	ENDS
;	COMDAT ?__LINE__Var@?1??DeserializeWeightedGraph@ConnectionGraph@@IAE_NPAVBitStream@RakNet@@PAVRakPeerInterface@@@Z@4JA
_DATA	SEGMENT
?__LINE__Var@?1??DeserializeWeightedGraph@ConnectionGraph@@IAE_NPAVBitStream@RakNet@@PAVRakPeerInterface@@@Z@4JA DD 01bcH ; `ConnectionGraph::DeserializeWeightedGraph'::`2'::__LINE__Var
_DATA	ENDS
;	COMDAT ??_C@_13COJANIEC@?$AA0?$AA?$AA@
CONST	SEGMENT
??_C@_13COJANIEC@?$AA0?$AA?$AA@ DB '0', 00H, 00H, 00H	; `string'
CONST	ENDS
;	COMDAT ?__LINE__Var@?1??DeserializeIgnoreList@ConnectionGraph@@IAE_NAAV?$OrderedList@UPlayerID@@U1@$1??$defaultOrderedListComparison@UPlayerID@@U1@@DataStructures@@YAHABU1@0@Z@DataStructures@@PAVBitStream@RakNet@@@Z@4JA
_DATA	SEGMENT
?__LINE__Var@?1??DeserializeIgnoreList@ConnectionGraph@@IAE_NAAV?$OrderedList@UPlayerID@@U1@$1??$defaultOrderedListComparison@UPlayerID@@U1@@DataStructures@@YAHABU1@0@Z@DataStructures@@PAVBitStream@RakNet@@@Z@4JA DD 017bH ; `ConnectionGraph::DeserializeIgnoreList'::`2'::__LINE__Var
_DATA	ENDS
;	COMDAT ??_C@_19OLDIEKDA@?$AAp?$AAe?$AAe?$AAr?$AA?$AA@
CONST	SEGMENT
??_C@_19OLDIEKDA@?$AAp?$AAe?$AAe?$AAr?$AA?$AA@ DB 'p', 00H, 'e', 00H, 'e', 00H
	DB	'r', 00H, 00H, 00H				; `string'
CONST	ENDS
;	COMDAT ?__LINE__Var@?1??HandleDroppedConnection@ConnectionGraph@@IAEXPAVRakPeerInterface@@UPlayerID@@E@Z@4JA
_DATA	SEGMENT
?__LINE__Var@?1??HandleDroppedConnection@ConnectionGraph@@IAEXPAVRakPeerInterface@@UPlayerID@@E@Z@4JA DD 0b9H ; `ConnectionGraph::HandleDroppedConnection'::`2'::__LINE__Var
_DATA	ENDS
;	COMDAT ??_C@_1CK@OAIJMFJM@?$AAs?$AAt?$AAr?$AAl?$AAe?$AAn?$AA?$CI?$AAp?$AAa?$AAs?$AAs?$AAw?$AAo?$AAr?$AAd?$AA?$CJ?$AA?$DM?$AA2?$AA5?$AA6?$AA?$AA@
CONST	SEGMENT
??_C@_1CK@OAIJMFJM@?$AAs?$AAt?$AAr?$AAl?$AAe?$AAn?$AA?$CI?$AAp?$AAa?$AAs?$AAs?$AAw?$AAo?$AAr?$AAd?$AA?$CJ?$AA?$DM?$AA2?$AA5?$AA6?$AA?$AA@ DB 's'
	DB	00H, 't', 00H, 'r', 00H, 'l', 00H, 'e', 00H, 'n', 00H, '(', 00H
	DB	'p', 00H, 'a', 00H, 's', 00H, 's', 00H, 'w', 00H, 'o', 00H, 'r'
	DB	00H, 'd', 00H, ')', 00H, '<', 00H, '2', 00H, '5', 00H, '6', 00H
	DB	00H, 00H					; `string'
CONST	ENDS
;	COMDAT ??_C@_1FI@HAMPLOBF@?$AAz?$AA?3?$AA?2?$AAs?$AAa?$AAm?$AAp?$AAs?$AAr?$AAc?$AA?2?$AA0?$AA2?$AAx?$AAu?$AA1?$AA?2?$AAr?$AAa?$AAk?$AAn?$AAe?$AAt?$AA?2?$AAc?$AAo?$AAn?$AAn?$AAe?$AAc?$AAt?$AAi@
CONST	SEGMENT
??_C@_1FI@HAMPLOBF@?$AAz?$AA?3?$AA?2?$AAs?$AAa?$AAm?$AAp?$AAs?$AAr?$AAc?$AA?2?$AA0?$AA2?$AAx?$AAu?$AA1?$AA?2?$AAr?$AAa?$AAk?$AAn?$AAe?$AAt?$AA?2?$AAc?$AAo?$AAn?$AAn?$AAe?$AAc?$AAt?$AAi@ DB 'z'
	DB	00H, ':', 00H, '\', 00H, 's', 00H, 'a', 00H, 'm', 00H, 'p', 00H
	DB	's', 00H, 'r', 00H, 'c', 00H, '\', 00H, '0', 00H, '2', 00H, 'x'
	DB	00H, 'u', 00H, '1', 00H, '\', 00H, 'r', 00H, 'a', 00H, 'k', 00H
	DB	'n', 00H, 'e', 00H, 't', 00H, '\', 00H, 'c', 00H, 'o', 00H, 'n'
	DB	00H, 'n', 00H, 'e', 00H, 'c', 00H, 't', 00H, 'i', 00H, 'o', 00H
	DB	'n', 00H, 'g', 00H, 'r', 00H, 'a', 00H, 'p', 00H, 'h', 00H, '.'
	DB	00H, 'c', 00H, 'p', 00H, 'p', 00H, 00H, 00H	; `string'
CONST	ENDS
;	COMDAT ?__LINE__Var@?1??SetPassword@ConnectionGraph@@QAEXPBD@Z@4JA
_DATA	SEGMENT
?__LINE__Var@?1??SetPassword@ConnectionGraph@@QAEXPBD@Z@4JA DD 055H ; `ConnectionGraph::SetPassword'::`2'::__LINE__Var
_DATA	ENDS
;	COMDAT ??_7ConnectionGraph@@6B@
CONST	SEGMENT
??_7ConnectionGraph@@6B@ DD FLAT:??_R4ConnectionGraph@@6B@ ; ConnectionGraph::`vftable'
	DD	FLAT:?OnAttach@PluginInterface@@UAEXPAVRakPeerInterface@@@Z
	DD	FLAT:?OnDetach@PluginInterface@@UAEXPAVRakPeerInterface@@@Z
	DD	FLAT:?OnInitialize@PluginInterface@@UAEXPAVRakPeerInterface@@@Z
	DD	FLAT:?Update@ConnectionGraph@@UAEXPAVRakPeerInterface@@@Z
	DD	FLAT:?OnReceive@ConnectionGraph@@UAE?AW4PluginReceiveResult@@PAVRakPeerInterface@@PAUPacket@@@Z
	DD	FLAT:?OnDisconnect@ConnectionGraph@@UAEXPAVRakPeerInterface@@@Z
	DD	FLAT:?OnCloseConnection@ConnectionGraph@@UAEXPAVRakPeerInterface@@UPlayerID@@@Z
	DD	FLAT:?OnDirectSocketSend@PluginInterface@@UAEXPBDIUPlayerID@@@Z
	DD	FLAT:?OnDirectSocketReceive@PluginInterface@@UAEXPBDIUPlayerID@@@Z
	DD	FLAT:?OnInternalPacket@PluginInterface@@UAEXPAUInternalPacket@@IUPlayerID@@I_N@Z
CONST	ENDS
;	COMDAT ??_7PluginInterface@@6B@
CONST	SEGMENT
??_7PluginInterface@@6B@ DD FLAT:??_R4PluginInterface@@6B@ ; PluginInterface::`vftable'
	DD	FLAT:?OnAttach@PluginInterface@@UAEXPAVRakPeerInterface@@@Z
	DD	FLAT:?OnDetach@PluginInterface@@UAEXPAVRakPeerInterface@@@Z
	DD	FLAT:?OnInitialize@PluginInterface@@UAEXPAVRakPeerInterface@@@Z
	DD	FLAT:?Update@PluginInterface@@UAEXPAVRakPeerInterface@@@Z
	DD	FLAT:?OnReceive@PluginInterface@@UAE?AW4PluginReceiveResult@@PAVRakPeerInterface@@PAUPacket@@@Z
	DD	FLAT:?OnDisconnect@PluginInterface@@UAEXPAVRakPeerInterface@@@Z
	DD	FLAT:?OnCloseConnection@PluginInterface@@UAEXPAVRakPeerInterface@@UPlayerID@@@Z
	DD	FLAT:?OnDirectSocketSend@PluginInterface@@UAEXPBDIUPlayerID@@@Z
	DD	FLAT:?OnDirectSocketReceive@PluginInterface@@UAEXPBDIUPlayerID@@@Z
	DD	FLAT:?OnInternalPacket@PluginInterface@@UAEXPAUInternalPacket@@IUPlayerID@@I_N@Z
CONST	ENDS
;	COMDAT xdata$x
xdata$x	SEGMENT
__unwindtable$?Pop@?$Queue@UPlayerIdAndGroupId@ConnectionGraph@@@DataStructures@@QAE?AUPlayerIdAndGroupId@ConnectionGraph@@XZ DD 0ffffffffH
	DD	FLAT:__unwindfunclet$?Pop@?$Queue@UPlayerIdAndGroupId@ConnectionGraph@@@DataStructures@@QAE?AUPlayerIdAndGroupId@ConnectionGraph@@XZ$1
__ehfuncinfo$?Pop@?$Queue@UPlayerIdAndGroupId@ConnectionGraph@@@DataStructures@@QAE?AUPlayerIdAndGroupId@ConnectionGraph@@XZ DD 019930522H
	DD	01H
	DD	FLAT:__unwindtable$?Pop@?$Queue@UPlayerIdAndGroupId@ConnectionGraph@@@DataStructures@@QAE?AUPlayerIdAndGroupId@ConnectionGraph@@XZ
	DD	2 DUP(00H)
	DD	2 DUP(00H)
	DD	00H
	DD	01H
xdata$x	ENDS
;	COMDAT xdata$x
xdata$x	SEGMENT
__unwindtable$?Push@?$Queue@UPlayerIdAndGroupId@ConnectionGraph@@@DataStructures@@QAEXABUPlayerIdAndGroupId@ConnectionGraph@@@Z DD 0ffffffffH
	DD	FLAT:__unwindfunclet$?Push@?$Queue@UPlayerIdAndGroupId@ConnectionGraph@@@DataStructures@@QAEXABUPlayerIdAndGroupId@ConnectionGraph@@@Z$0
	DD	0ffffffffH
	DD	FLAT:__unwindfunclet$?Push@?$Queue@UPlayerIdAndGroupId@ConnectionGraph@@@DataStructures@@QAEXABUPlayerIdAndGroupId@ConnectionGraph@@@Z$1
__ehfuncinfo$?Push@?$Queue@UPlayerIdAndGroupId@ConnectionGraph@@@DataStructures@@QAEXABUPlayerIdAndGroupId@ConnectionGraph@@@Z DD 019930522H
	DD	02H
	DD	FLAT:__unwindtable$?Push@?$Queue@UPlayerIdAndGroupId@ConnectionGraph@@@DataStructures@@QAEXABUPlayerIdAndGroupId@ConnectionGraph@@@Z
	DD	2 DUP(00H)
	DD	2 DUP(00H)
	DD	00H
	DD	01H
xdata$x	ENDS
;	COMDAT xdata$x
xdata$x	SEGMENT
__unwindtable$??0?$Queue@UPlayerIdAndGroupId@ConnectionGraph@@@DataStructures@@QAE@XZ DD 0ffffffffH
	DD	FLAT:__unwindfunclet$??0?$Queue@UPlayerIdAndGroupId@ConnectionGraph@@@DataStructures@@QAE@XZ$0
__ehfuncinfo$??0?$Queue@UPlayerIdAndGroupId@ConnectionGraph@@@DataStructures@@QAE@XZ DD 019930522H
	DD	01H
	DD	FLAT:__unwindtable$??0?$Queue@UPlayerIdAndGroupId@ConnectionGraph@@@DataStructures@@QAE@XZ
	DD	2 DUP(00H)
	DD	2 DUP(00H)
	DD	00H
	DD	01H
xdata$x	ENDS
;	COMDAT xdata$x
xdata$x	SEGMENT
__unwindtable$?Insert@?$List@UMapNode@?$Map@UPlayerIdAndGroupId@ConnectionGraph@@G$1??$defaultMapKeyComparison@UPlayerIdAndGroupId@ConnectionGraph@@@DataStructures@@YAHABU12@0@Z@DataStructures@@@DataStructures@@QAEXUMapNode@?$Map@UPlayerIdAndGroupId@ConnectionGraph@@G$1??$defaultMapKeyComparison@UPlayerIdAndGroupId@ConnectionGraph@@@DataStructures@@YAHABU12@0@Z@2@@Z DD 0ffffffffH
	DD	FLAT:__unwindfunclet$?Insert@?$List@UMapNode@?$Map@UPlayerIdAndGroupId@ConnectionGraph@@G$1??$defaultMapKeyComparison@UPlayerIdAndGroupId@ConnectionGraph@@@DataStructures@@YAHABU12@0@Z@DataStructures@@@DataStructures@@QAEXUMapNode@?$Map@UPlayerIdAndGroupId@ConnectionGraph@@G$1??$defaultMapKeyComparison@UPlayerIdAndGroupId@ConnectionGraph@@@DataStructures@@YAHABU12@0@Z@2@@Z$0
	DD	00H
	DD	FLAT:__unwindfunclet$?Insert@?$List@UMapNode@?$Map@UPlayerIdAndGroupId@ConnectionGraph@@G$1??$defaultMapKeyComparison@UPlayerIdAndGroupId@ConnectionGraph@@@DataStructures@@YAHABU12@0@Z@DataStructures@@@DataStructures@@QAEXUMapNode@?$Map@UPlayerIdAndGroupId@ConnectionGraph@@G$1??$defaultMapKeyComparison@UPlayerIdAndGroupId@ConnectionGraph@@@DataStructures@@YAHABU12@0@Z@2@@Z$1
__ehfuncinfo$?Insert@?$List@UMapNode@?$Map@UPlayerIdAndGroupId@ConnectionGraph@@G$1??$defaultMapKeyComparison@UPlayerIdAndGroupId@ConnectionGraph@@@DataStructures@@YAHABU12@0@Z@DataStructures@@@DataStructures@@QAEXUMapNode@?$Map@UPlayerIdAndGroupId@ConnectionGraph@@G$1??$defaultMapKeyComparison@UPlayerIdAndGroupId@ConnectionGraph@@@DataStructures@@YAHABU12@0@Z@2@@Z DD 019930522H
	DD	02H
	DD	FLAT:__unwindtable$?Insert@?$List@UMapNode@?$Map@UPlayerIdAndGroupId@ConnectionGraph@@G$1??$defaultMapKeyComparison@UPlayerIdAndGroupId@ConnectionGraph@@@DataStructures@@YAHABU12@0@Z@DataStructures@@@DataStructures@@QAEXUMapNode@?$Map@UPlayerIdAndGroupId@ConnectionGraph@@G$1??$defaultMapKeyComparison@UPlayerIdAndGroupId@ConnectionGraph@@@DataStructures@@YAHABU12@0@Z@2@@Z
	DD	2 DUP(00H)
	DD	2 DUP(00H)
	DD	00H
	DD	01H
xdata$x	ENDS
;	COMDAT xdata$x
xdata$x	SEGMENT
__unwindtable$?Insert@?$List@UMapNode@?$Map@UPlayerIdAndGroupId@ConnectionGraph@@G$1??$defaultMapKeyComparison@UPlayerIdAndGroupId@ConnectionGraph@@@DataStructures@@YAHABU12@0@Z@DataStructures@@@DataStructures@@QAEXUMapNode@?$Map@UPlayerIdAndGroupId@ConnectionGraph@@G$1??$defaultMapKeyComparison@UPlayerIdAndGroupId@ConnectionGraph@@@DataStructures@@YAHABU12@0@Z@2@I@Z DD 0ffffffffH
	DD	FLAT:__unwindfunclet$?Insert@?$List@UMapNode@?$Map@UPlayerIdAndGroupId@ConnectionGraph@@G$1??$defaultMapKeyComparison@UPlayerIdAndGroupId@ConnectionGraph@@@DataStructures@@YAHABU12@0@Z@DataStructures@@@DataStructures@@QAEXUMapNode@?$Map@UPlayerIdAndGroupId@ConnectionGraph@@G$1??$defaultMapKeyComparison@UPlayerIdAndGroupId@ConnectionGraph@@@DataStructures@@YAHABU12@0@Z@2@I@Z$0
	DD	00H
	DD	FLAT:__unwindfunclet$?Insert@?$List@UMapNode@?$Map@UPlayerIdAndGroupId@ConnectionGraph@@G$1??$defaultMapKeyComparison@UPlayerIdAndGroupId@ConnectionGraph@@@DataStructures@@YAHABU12@0@Z@DataStructures@@@DataStructures@@QAEXUMapNode@?$Map@UPlayerIdAndGroupId@ConnectionGraph@@G$1??$defaultMapKeyComparison@UPlayerIdAndGroupId@ConnectionGraph@@@DataStructures@@YAHABU12@0@Z@2@I@Z$1
__ehfuncinfo$?Insert@?$List@UMapNode@?$Map@UPlayerIdAndGroupId@ConnectionGraph@@G$1??$defaultMapKeyComparison@UPlayerIdAndGroupId@ConnectionGraph@@@DataStructures@@YAHABU12@0@Z@DataStructures@@@DataStructures@@QAEXUMapNode@?$Map@UPlayerIdAndGroupId@ConnectionGraph@@G$1??$defaultMapKeyComparison@UPlayerIdAndGroupId@ConnectionGraph@@@DataStructures@@YAHABU12@0@Z@2@I@Z DD 019930522H
	DD	02H
	DD	FLAT:__unwindtable$?Insert@?$List@UMapNode@?$Map@UPlayerIdAndGroupId@ConnectionGraph@@G$1??$defaultMapKeyComparison@UPlayerIdAndGroupId@ConnectionGraph@@@DataStructures@@YAHABU12@0@Z@DataStructures@@@DataStructures@@QAEXUMapNode@?$Map@UPlayerIdAndGroupId@ConnectionGraph@@G$1??$defaultMapKeyComparison@UPlayerIdAndGroupId@ConnectionGraph@@@DataStructures@@YAHABU12@0@Z@2@I@Z
	DD	2 DUP(00H)
	DD	2 DUP(00H)
	DD	00H
	DD	01H
xdata$x	ENDS
;	COMDAT xdata$x
xdata$x	SEGMENT
__unwindtable$??1?$OrderedList@UPlayerIdAndGroupId@ConnectionGraph@@UMapNode@?$Map@UPlayerIdAndGroupId@ConnectionGraph@@G$1??$defaultMapKeyComparison@UPlayerIdAndGroupId@ConnectionGraph@@@DataStructures@@YAHABU12@0@Z@DataStructures@@$1?NodeComparisonFunc@45@SAHABU12@ABU345@@Z@DataStructures@@QAE@XZ DD 0ffffffffH
	DD	FLAT:__unwindfunclet$??1?$OrderedList@UPlayerIdAndGroupId@ConnectionGraph@@UMapNode@?$Map@UPlayerIdAndGroupId@ConnectionGraph@@G$1??$defaultMapKeyComparison@UPlayerIdAndGroupId@ConnectionGraph@@@DataStructures@@YAHABU12@0@Z@DataStructures@@$1?NodeComparisonFunc@45@SAHABU12@ABU345@@Z@DataStructures@@QAE@XZ$0
__ehfuncinfo$??1?$OrderedList@UPlayerIdAndGroupId@ConnectionGraph@@UMapNode@?$Map@UPlayerIdAndGroupId@ConnectionGraph@@G$1??$defaultMapKeyComparison@UPlayerIdAndGroupId@ConnectionGraph@@@DataStructures@@YAHABU12@0@Z@DataStructures@@$1?NodeComparisonFunc@45@SAHABU12@ABU345@@Z@DataStructures@@QAE@XZ DD 019930522H
	DD	01H
	DD	FLAT:__unwindtable$??1?$OrderedList@UPlayerIdAndGroupId@ConnectionGraph@@UMapNode@?$Map@UPlayerIdAndGroupId@ConnectionGraph@@G$1??$defaultMapKeyComparison@UPlayerIdAndGroupId@ConnectionGraph@@@DataStructures@@YAHABU12@0@Z@DataStructures@@$1?NodeComparisonFunc@45@SAHABU12@ABU345@@Z@DataStructures@@QAE@XZ
	DD	2 DUP(00H)
	DD	2 DUP(00H)
	DD	00H
	DD	01H
xdata$x	ENDS
;	COMDAT xdata$x
xdata$x	SEGMENT
__unwindtable$?Set@?$Map@UPlayerIdAndGroupId@ConnectionGraph@@G$1??$defaultMapKeyComparison@UPlayerIdAndGroupId@ConnectionGraph@@@DataStructures@@YAHABU12@0@Z@DataStructures@@QAEXABUPlayerIdAndGroupId@ConnectionGraph@@ABG@Z DD 0ffffffffH
	DD	FLAT:__unwindfunclet$?Set@?$Map@UPlayerIdAndGroupId@ConnectionGraph@@G$1??$defaultMapKeyComparison@UPlayerIdAndGroupId@ConnectionGraph@@@DataStructures@@YAHABU12@0@Z@DataStructures@@QAEXABUPlayerIdAndGroupId@ConnectionGraph@@ABG@Z$0
__ehfuncinfo$?Set@?$Map@UPlayerIdAndGroupId@ConnectionGraph@@G$1??$defaultMapKeyComparison@UPlayerIdAndGroupId@ConnectionGraph@@@DataStructures@@YAHABU12@0@Z@DataStructures@@QAEXABUPlayerIdAndGroupId@ConnectionGraph@@ABG@Z DD 019930522H
	DD	01H
	DD	FLAT:__unwindtable$?Set@?$Map@UPlayerIdAndGroupId@ConnectionGraph@@G$1??$defaultMapKeyComparison@UPlayerIdAndGroupId@ConnectionGraph@@@DataStructures@@YAHABU12@0@Z@DataStructures@@QAEXABUPlayerIdAndGroupId@ConnectionGraph@@ABG@Z
	DD	2 DUP(00H)
	DD	2 DUP(00H)
	DD	00H
	DD	01H
xdata$x	ENDS
;	COMDAT xdata$x
xdata$x	SEGMENT
__unwindtable$??1?$Map@UPlayerIdAndGroupId@ConnectionGraph@@G$1??$defaultMapKeyComparison@UPlayerIdAndGroupId@ConnectionGraph@@@DataStructures@@YAHABU12@0@Z@DataStructures@@QAE@XZ DD 0ffffffffH
	DD	FLAT:__unwindfunclet$??1?$Map@UPlayerIdAndGroupId@ConnectionGraph@@G$1??$defaultMapKeyComparison@UPlayerIdAndGroupId@ConnectionGraph@@@DataStructures@@YAHABU12@0@Z@DataStructures@@QAE@XZ$0
	DD	00H
	DD	FLAT:__unwindfunclet$??1?$Map@UPlayerIdAndGroupId@ConnectionGraph@@G$1??$defaultMapKeyComparison@UPlayerIdAndGroupId@ConnectionGraph@@@DataStructures@@YAHABU12@0@Z@DataStructures@@QAE@XZ$1
__ehfuncinfo$??1?$Map@UPlayerIdAndGroupId@ConnectionGraph@@G$1??$defaultMapKeyComparison@UPlayerIdAndGroupId@ConnectionGraph@@@DataStructures@@YAHABU12@0@Z@DataStructures@@QAE@XZ DD 019930522H
	DD	02H
	DD	FLAT:__unwindtable$??1?$Map@UPlayerIdAndGroupId@ConnectionGraph@@G$1??$defaultMapKeyComparison@UPlayerIdAndGroupId@ConnectionGraph@@@DataStructures@@YAHABU12@0@Z@DataStructures@@QAE@XZ
	DD	2 DUP(00H)
	DD	2 DUP(00H)
	DD	00H
	DD	01H
xdata$x	ENDS
;	COMDAT xdata$x
xdata$x	SEGMENT
__unwindtable$??0?$Map@UPlayerIdAndGroupId@ConnectionGraph@@G$1??$defaultMapKeyComparison@UPlayerIdAndGroupId@ConnectionGraph@@@DataStructures@@YAHABU12@0@Z@DataStructures@@QAE@XZ DD 0ffffffffH
	DD	FLAT:__unwindfunclet$??0?$Map@UPlayerIdAndGroupId@ConnectionGraph@@G$1??$defaultMapKeyComparison@UPlayerIdAndGroupId@ConnectionGraph@@@DataStructures@@YAHABU12@0@Z@DataStructures@@QAE@XZ$0
__ehfuncinfo$??0?$Map@UPlayerIdAndGroupId@ConnectionGraph@@G$1??$defaultMapKeyComparison@UPlayerIdAndGroupId@ConnectionGraph@@@DataStructures@@YAHABU12@0@Z@DataStructures@@QAE@XZ DD 019930522H
	DD	01H
	DD	FLAT:__unwindtable$??0?$Map@UPlayerIdAndGroupId@ConnectionGraph@@G$1??$defaultMapKeyComparison@UPlayerIdAndGroupId@ConnectionGraph@@@DataStructures@@YAHABU12@0@Z@DataStructures@@QAE@XZ
	DD	2 DUP(00H)
	DD	2 DUP(00H)
	DD	00H
	DD	01H
xdata$x	ENDS
;	COMDAT xdata$x
xdata$x	SEGMENT
__unwindtable$??1?$OrderedList@EE$1??$defaultOrderedListComparison@EE@DataStructures@@YAHABE0@Z@DataStructures@@QAE@XZ DD 0ffffffffH
	DD	FLAT:__unwindfunclet$??1?$OrderedList@EE$1??$defaultOrderedListComparison@EE@DataStructures@@YAHABE0@Z@DataStructures@@QAE@XZ$0
__ehfuncinfo$??1?$OrderedList@EE$1??$defaultOrderedListComparison@EE@DataStructures@@YAHABE0@Z@DataStructures@@QAE@XZ DD 019930522H
	DD	01H
	DD	FLAT:__unwindtable$??1?$OrderedList@EE$1??$defaultOrderedListComparison@EE@DataStructures@@YAHABE0@Z@DataStructures@@QAE@XZ
	DD	2 DUP(00H)
	DD	2 DUP(00H)
	DD	00H
	DD	01H
xdata$x	ENDS
;	COMDAT xdata$x
xdata$x	SEGMENT
__unwindtable$??1?$OrderedList@UPlayerIdAndGroupId@ConnectionGraph@@U12@$1??$defaultOrderedListComparison@UPlayerIdAndGroupId@ConnectionGraph@@U12@@DataStructures@@YAHABU12@0@Z@DataStructures@@QAE@XZ DD 0ffffffffH
	DD	FLAT:__unwindfunclet$??1?$OrderedList@UPlayerIdAndGroupId@ConnectionGraph@@U12@$1??$defaultOrderedListComparison@UPlayerIdAndGroupId@ConnectionGraph@@U12@@DataStructures@@YAHABU12@0@Z@DataStructures@@QAE@XZ$0
__ehfuncinfo$??1?$OrderedList@UPlayerIdAndGroupId@ConnectionGraph@@U12@$1??$defaultOrderedListComparison@UPlayerIdAndGroupId@ConnectionGraph@@U12@@DataStructures@@YAHABU12@0@Z@DataStructures@@QAE@XZ DD 019930522H
	DD	01H
	DD	FLAT:__unwindtable$??1?$OrderedList@UPlayerIdAndGroupId@ConnectionGraph@@U12@$1??$defaultOrderedListComparison@UPlayerIdAndGroupId@ConnectionGraph@@U12@@DataStructures@@YAHABU12@0@Z@DataStructures@@QAE@XZ
	DD	2 DUP(00H)
	DD	2 DUP(00H)
	DD	00H
	DD	01H
xdata$x	ENDS
;	COMDAT xdata$x
xdata$x	SEGMENT
__unwindtable$?IMPLEMENT_DEFAULT_COMPARISON@?$OrderedList@UPlayerIdAndGroupId@ConnectionGraph@@U12@$1??$defaultOrderedListComparison@UPlayerIdAndGroupId@ConnectionGraph@@U12@@DataStructures@@YAHABU12@0@Z@DataStructures@@SAXXZ DD 0ffffffffH
	DD	FLAT:__unwindfunclet$?IMPLEMENT_DEFAULT_COMPARISON@?$OrderedList@UPlayerIdAndGroupId@ConnectionGraph@@U12@$1??$defaultOrderedListComparison@UPlayerIdAndGroupId@ConnectionGraph@@U12@@DataStructures@@YAHABU12@0@Z@DataStructures@@SAXXZ$0
	DD	00H
	DD	FLAT:__unwindfunclet$?IMPLEMENT_DEFAULT_COMPARISON@?$OrderedList@UPlayerIdAndGroupId@ConnectionGraph@@U12@$1??$defaultOrderedListComparison@UPlayerIdAndGroupId@ConnectionGraph@@U12@@DataStructures@@YAHABU12@0@Z@DataStructures@@SAXXZ$1
__ehfuncinfo$?IMPLEMENT_DEFAULT_COMPARISON@?$OrderedList@UPlayerIdAndGroupId@ConnectionGraph@@U12@$1??$defaultOrderedListComparison@UPlayerIdAndGroupId@ConnectionGraph@@U12@@DataStructures@@YAHABU12@0@Z@DataStructures@@SAXXZ DD 019930522H
	DD	02H
	DD	FLAT:__unwindtable$?IMPLEMENT_DEFAULT_COMPARISON@?$OrderedList@UPlayerIdAndGroupId@ConnectionGraph@@U12@$1??$defaultOrderedListComparison@UPlayerIdAndGroupId@ConnectionGraph@@U12@@DataStructures@@YAHABU12@0@Z@DataStructures@@SAXXZ
	DD	2 DUP(00H)
	DD	2 DUP(00H)
	DD	00H
	DD	01H
xdata$x	ENDS
;	COMDAT xdata$x
xdata$x	SEGMENT
__unwindtable$?Insert@?$List@UMapNode@?$Map@UPlayerIdAndGroupId@ConnectionGraph@@PAV?$Map@UPlayerIdAndGroupId@ConnectionGraph@@G$1??$defaultMapKeyComparison@UPlayerIdAndGroupId@ConnectionGraph@@@DataStructures@@YAHABU12@0@Z@DataStructures@@$1??$defaultMapKeyComparison@UPlayerIdAndGroupId@ConnectionGraph@@@4@YAHABU12@0@Z@DataStructures@@@DataStructures@@QAEXUMapNode@?$Map@UPlayerIdAndGroupId@ConnectionGraph@@PAV?$Map@UPlayerIdAndGroupId@ConnectionGraph@@G$1??$defaultMapKeyComparison@UPlayerIdAndGroupId@ConnectionGraph@@@DataStructures@@YAHABU12@0@Z@DataStructures@@$1??$defaultMapKeyComparison@UPlayerIdAndGroupId@ConnectionGraph@@@4@YAHABU12@0@Z@2@@Z DD 0ffffffffH
	DD	FLAT:__unwindfunclet$?Insert@?$List@UMapNode@?$Map@UPlayerIdAndGroupId@ConnectionGraph@@PAV?$Map@UPlayerIdAndGroupId@ConnectionGraph@@G$1??$defaultMapKeyComparison@UPlayerIdAndGroupId@ConnectionGraph@@@DataStructures@@YAHABU12@0@Z@DataStructures@@$1??$defaultMapKeyComparison@UPlayerIdAndGroupId@ConnectionGraph@@@4@YAHABU12@0@Z@DataStructures@@@DataStructures@@QAEXUMapNode@?$Map@UPlayerIdAndGroupId@ConnectionGraph@@PAV?$Map@UPlayerIdAndGroupId@ConnectionGraph@@G$1??$defaultMapKeyComparison@UPlayerIdAndGroupId@ConnectionGraph@@@DataStructures@@YAHABU12@0@Z@DataStructures@@$1??$defaultMapKeyComparison@UPlayerIdAndGroupId@ConnectionGraph@@@4@YAHABU12@0@Z@2@@Z$0
	DD	00H
	DD	FLAT:__unwindfunclet$?Insert@?$List@UMapNode@?$Map@UPlayerIdAndGroupId@ConnectionGraph@@PAV?$Map@UPlayerIdAndGroupId@ConnectionGraph@@G$1??$defaultMapKeyComparison@UPlayerIdAndGroupId@ConnectionGraph@@@DataStructures@@YAHABU12@0@Z@DataStructures@@$1??$defaultMapKeyComparison@UPlayerIdAndGroupId@ConnectionGraph@@@4@YAHABU12@0@Z@DataStructures@@@DataStructures@@QAEXUMapNode@?$Map@UPlayerIdAndGroupId@ConnectionGraph@@PAV?$Map@UPlayerIdAndGroupId@ConnectionGraph@@G$1??$defaultMapKeyComparison@UPlayerIdAndGroupId@ConnectionGraph@@@DataStructures@@YAHABU12@0@Z@DataStructures@@$1??$defaultMapKeyComparison@UPlayerIdAndGroupId@ConnectionGraph@@@4@YAHABU12@0@Z@2@@Z$1
__ehfuncinfo$?Insert@?$List@UMapNode@?$Map@UPlayerIdAndGroupId@ConnectionGraph@@PAV?$Map@UPlayerIdAndGroupId@ConnectionGraph@@G$1??$defaultMapKeyComparison@UPlayerIdAndGroupId@ConnectionGraph@@@DataStructures@@YAHABU12@0@Z@DataStructures@@$1??$defaultMapKeyComparison@UPlayerIdAndGroupId@ConnectionGraph@@@4@YAHABU12@0@Z@DataStructures@@@DataStructures@@QAEXUMapNode@?$Map@UPlayerIdAndGroupId@ConnectionGraph@@PAV?$Map@UPlayerIdAndGroupId@ConnectionGraph@@G$1??$defaultMapKeyComparison@UPlayerIdAndGroupId@ConnectionGraph@@@DataStructures@@YAHABU12@0@Z@DataStructures@@$1??$defaultMapKeyComparison@UPlayerIdAndGroupId@ConnectionGraph@@@4@YAHABU12@0@Z@2@@Z DD 019930522H
	DD	02H
	DD	FLAT:__unwindtable$?Insert@?$List@UMapNode@?$Map@UPlayerIdAndGroupId@ConnectionGraph@@PAV?$Map@UPlayerIdAndGroupId@ConnectionGraph@@G$1??$defaultMapKeyComparison@UPlayerIdAndGroupId@ConnectionGraph@@@DataStructures@@YAHABU12@0@Z@DataStructures@@$1??$defaultMapKeyComparison@UPlayerIdAndGroupId@ConnectionGraph@@@4@YAHABU12@0@Z@DataStructures@@@DataStructures@@QAEXUMapNode@?$Map@UPlayerIdAndGroupId@ConnectionGraph@@PAV?$Map@UPlayerIdAndGroupId@ConnectionGraph@@G$1??$defaultMapKeyComparison@UPlayerIdAndGroupId@ConnectionGraph@@@DataStructures@@YAHABU12@0@Z@DataStructures@@$1??$defaultMapKeyComparison@UPlayerIdAndGroupId@ConnectionGraph@@@4@YAHABU12@0@Z@2@@Z
	DD	2 DUP(00H)
	DD	2 DUP(00H)
	DD	00H
	DD	01H
xdata$x	ENDS
;	COMDAT xdata$x
xdata$x	SEGMENT
__unwindtable$?Insert@?$List@UMapNode@?$Map@UPlayerIdAndGroupId@ConnectionGraph@@PAV?$Map@UPlayerIdAndGroupId@ConnectionGraph@@G$1??$defaultMapKeyComparison@UPlayerIdAndGroupId@ConnectionGraph@@@DataStructures@@YAHABU12@0@Z@DataStructures@@$1??$defaultMapKeyComparison@UPlayerIdAndGroupId@ConnectionGraph@@@4@YAHABU12@0@Z@DataStructures@@@DataStructures@@QAEXUMapNode@?$Map@UPlayerIdAndGroupId@ConnectionGraph@@PAV?$Map@UPlayerIdAndGroupId@ConnectionGraph@@G$1??$defaultMapKeyComparison@UPlayerIdAndGroupId@ConnectionGraph@@@DataStructures@@YAHABU12@0@Z@DataStructures@@$1??$defaultMapKeyComparison@UPlayerIdAndGroupId@ConnectionGraph@@@4@YAHABU12@0@Z@2@I@Z DD 0ffffffffH
	DD	FLAT:__unwindfunclet$?Insert@?$List@UMapNode@?$Map@UPlayerIdAndGroupId@ConnectionGraph@@PAV?$Map@UPlayerIdAndGroupId@ConnectionGraph@@G$1??$defaultMapKeyComparison@UPlayerIdAndGroupId@ConnectionGraph@@@DataStructures@@YAHABU12@0@Z@DataStructures@@$1??$defaultMapKeyComparison@UPlayerIdAndGroupId@ConnectionGraph@@@4@YAHABU12@0@Z@DataStructures@@@DataStructures@@QAEXUMapNode@?$Map@UPlayerIdAndGroupId@ConnectionGraph@@PAV?$Map@UPlayerIdAndGroupId@ConnectionGraph@@G$1??$defaultMapKeyComparison@UPlayerIdAndGroupId@ConnectionGraph@@@DataStructures@@YAHABU12@0@Z@DataStructures@@$1??$defaultMapKeyComparison@UPlayerIdAndGroupId@ConnectionGraph@@@4@YAHABU12@0@Z@2@I@Z$0
	DD	00H
	DD	FLAT:__unwindfunclet$?Insert@?$List@UMapNode@?$Map@UPlayerIdAndGroupId@ConnectionGraph@@PAV?$Map@UPlayerIdAndGroupId@ConnectionGraph@@G$1??$defaultMapKeyComparison@UPlayerIdAndGroupId@ConnectionGraph@@@DataStructures@@YAHABU12@0@Z@DataStructures@@$1??$defaultMapKeyComparison@UPlayerIdAndGroupId@ConnectionGraph@@@4@YAHABU12@0@Z@DataStructures@@@DataStructures@@QAEXUMapNode@?$Map@UPlayerIdAndGroupId@ConnectionGraph@@PAV?$Map@UPlayerIdAndGroupId@ConnectionGraph@@G$1??$defaultMapKeyComparison@UPlayerIdAndGroupId@ConnectionGraph@@@DataStructures@@YAHABU12@0@Z@DataStructures@@$1??$defaultMapKeyComparison@UPlayerIdAndGroupId@ConnectionGraph@@@4@YAHABU12@0@Z@2@I@Z$1
__ehfuncinfo$?Insert@?$List@UMapNode@?$Map@UPlayerIdAndGroupId@ConnectionGraph@@PAV?$Map@UPlayerIdAndGroupId@ConnectionGraph@@G$1??$defaultMapKeyComparison@UPlayerIdAndGroupId@ConnectionGraph@@@DataStructures@@YAHABU12@0@Z@DataStructures@@$1??$defaultMapKeyComparison@UPlayerIdAndGroupId@ConnectionGraph@@@4@YAHABU12@0@Z@DataStructures@@@DataStructures@@QAEXUMapNode@?$Map@UPlayerIdAndGroupId@ConnectionGraph@@PAV?$Map@UPlayerIdAndGroupId@ConnectionGraph@@G$1??$defaultMapKeyComparison@UPlayerIdAndGroupId@ConnectionGraph@@@DataStructures@@YAHABU12@0@Z@DataStructures@@$1??$defaultMapKeyComparison@UPlayerIdAndGroupId@ConnectionGraph@@@4@YAHABU12@0@Z@2@I@Z DD 019930522H
	DD	02H
	DD	FLAT:__unwindtable$?Insert@?$List@UMapNode@?$Map@UPlayerIdAndGroupId@ConnectionGraph@@PAV?$Map@UPlayerIdAndGroupId@ConnectionGraph@@G$1??$defaultMapKeyComparison@UPlayerIdAndGroupId@ConnectionGraph@@@DataStructures@@YAHABU12@0@Z@DataStructures@@$1??$defaultMapKeyComparison@UPlayerIdAndGroupId@ConnectionGraph@@@4@YAHABU12@0@Z@DataStructures@@@DataStructures@@QAEXUMapNode@?$Map@UPlayerIdAndGroupId@ConnectionGraph@@PAV?$Map@UPlayerIdAndGroupId@ConnectionGraph@@G$1??$defaultMapKeyComparison@UPlayerIdAndGroupId@ConnectionGraph@@@DataStructures@@YAHABU12@0@Z@DataStructures@@$1??$defaultMapKeyComparison@UPlayerIdAndGroupId@ConnectionGraph@@@4@YAHABU12@0@Z@2@I@Z
	DD	2 DUP(00H)
	DD	2 DUP(00H)
	DD	00H
	DD	01H
xdata$x	ENDS
;	COMDAT xdata$x
xdata$x	SEGMENT
__unwindtable$??1?$OrderedList@UPlayerIdAndGroupId@ConnectionGraph@@UMapNode@?$Map@UPlayerIdAndGroupId@ConnectionGraph@@PAV?$Map@UPlayerIdAndGroupId@ConnectionGraph@@G$1??$defaultMapKeyComparison@UPlayerIdAndGroupId@ConnectionGraph@@@DataStructures@@YAHABU12@0@Z@DataStructures@@$1??$defaultMapKeyComparison@UPlayerIdAndGroupId@ConnectionGraph@@@4@YAHABU12@0@Z@DataStructures@@$1?NodeComparisonFunc@45@SAHABU12@ABU345@@Z@DataStructures@@QAE@XZ DD 0ffffffffH
	DD	FLAT:__unwindfunclet$??1?$OrderedList@UPlayerIdAndGroupId@ConnectionGraph@@UMapNode@?$Map@UPlayerIdAndGroupId@ConnectionGraph@@PAV?$Map@UPlayerIdAndGroupId@ConnectionGraph@@G$1??$defaultMapKeyComparison@UPlayerIdAndGroupId@ConnectionGraph@@@DataStructures@@YAHABU12@0@Z@DataStructures@@$1??$defaultMapKeyComparison@UPlayerIdAndGroupId@ConnectionGraph@@@4@YAHABU12@0@Z@DataStructures@@$1?NodeComparisonFunc@45@SAHABU12@ABU345@@Z@DataStructures@@QAE@XZ$0
__ehfuncinfo$??1?$OrderedList@UPlayerIdAndGroupId@ConnectionGraph@@UMapNode@?$Map@UPlayerIdAndGroupId@ConnectionGraph@@PAV?$Map@UPlayerIdAndGroupId@ConnectionGraph@@G$1??$defaultMapKeyComparison@UPlayerIdAndGroupId@ConnectionGraph@@@DataStructures@@YAHABU12@0@Z@DataStructures@@$1??$defaultMapKeyComparison@UPlayerIdAndGroupId@ConnectionGraph@@@4@YAHABU12@0@Z@DataStructures@@$1?NodeComparisonFunc@45@SAHABU12@ABU345@@Z@DataStructures@@QAE@XZ DD 019930522H
	DD	01H
	DD	FLAT:__unwindtable$??1?$OrderedList@UPlayerIdAndGroupId@ConnectionGraph@@UMapNode@?$Map@UPlayerIdAndGroupId@ConnectionGraph@@PAV?$Map@UPlayerIdAndGroupId@ConnectionGraph@@G$1??$defaultMapKeyComparison@UPlayerIdAndGroupId@ConnectionGraph@@@DataStructures@@YAHABU12@0@Z@DataStructures@@$1??$defaultMapKeyComparison@UPlayerIdAndGroupId@ConnectionGraph@@@4@YAHABU12@0@Z@DataStructures@@$1?NodeComparisonFunc@45@SAHABU12@ABU345@@Z@DataStructures@@QAE@XZ
	DD	2 DUP(00H)
	DD	2 DUP(00H)
	DD	00H
	DD	01H
xdata$x	ENDS
;	COMDAT xdata$x
xdata$x	SEGMENT
__unwindtable$?SetNew@?$Map@UPlayerIdAndGroupId@ConnectionGraph@@PAV?$Map@UPlayerIdAndGroupId@ConnectionGraph@@G$1??$defaultMapKeyComparison@UPlayerIdAndGroupId@ConnectionGraph@@@DataStructures@@YAHABU12@0@Z@DataStructures@@$1??$defaultMapKeyComparison@UPlayerIdAndGroupId@ConnectionGraph@@@4@YAHABU12@0@Z@DataStructures@@QAEXABUPlayerIdAndGroupId@ConnectionGraph@@ABQAV?$Map@UPlayerIdAndGroupId@ConnectionGraph@@G$1??$defaultMapKeyComparison@UPlayerIdAndGroupId@ConnectionGraph@@@DataStructures@@YAHABU12@0@Z@2@@Z DD 0ffffffffH
	DD	FLAT:__unwindfunclet$?SetNew@?$Map@UPlayerIdAndGroupId@ConnectionGraph@@PAV?$Map@UPlayerIdAndGroupId@ConnectionGraph@@G$1??$defaultMapKeyComparison@UPlayerIdAndGroupId@ConnectionGraph@@@DataStructures@@YAHABU12@0@Z@DataStructures@@$1??$defaultMapKeyComparison@UPlayerIdAndGroupId@ConnectionGraph@@@4@YAHABU12@0@Z@DataStructures@@QAEXABUPlayerIdAndGroupId@ConnectionGraph@@ABQAV?$Map@UPlayerIdAndGroupId@ConnectionGraph@@G$1??$defaultMapKeyComparison@UPlayerIdAndGroupId@ConnectionGraph@@@DataStructures@@YAHABU12@0@Z@2@@Z$0
__ehfuncinfo$?SetNew@?$Map@UPlayerIdAndGroupId@ConnectionGraph@@PAV?$Map@UPlayerIdAndGroupId@ConnectionGraph@@G$1??$defaultMapKeyComparison@UPlayerIdAndGroupId@ConnectionGraph@@@DataStructures@@YAHABU12@0@Z@DataStructures@@$1??$defaultMapKeyComparison@UPlayerIdAndGroupId@ConnectionGraph@@@4@YAHABU12@0@Z@DataStructures@@QAEXABUPlayerIdAndGroupId@ConnectionGraph@@ABQAV?$Map@UPlayerIdAndGroupId@ConnectionGraph@@G$1??$defaultMapKeyComparison@UPlayerIdAndGroupId@ConnectionGraph@@@DataStructures@@YAHABU12@0@Z@2@@Z DD 019930522H
	DD	01H
	DD	FLAT:__unwindtable$?SetNew@?$Map@UPlayerIdAndGroupId@ConnectionGraph@@PAV?$Map@UPlayerIdAndGroupId@ConnectionGraph@@G$1??$defaultMapKeyComparison@UPlayerIdAndGroupId@ConnectionGraph@@@DataStructures@@YAHABU12@0@Z@DataStructures@@$1??$defaultMapKeyComparison@UPlayerIdAndGroupId@ConnectionGraph@@@4@YAHABU12@0@Z@DataStructures@@QAEXABUPlayerIdAndGroupId@ConnectionGraph@@ABQAV?$Map@UPlayerIdAndGroupId@ConnectionGraph@@G$1??$defaultMapKeyComparison@UPlayerIdAndGroupId@ConnectionGraph@@@DataStructures@@YAHABU12@0@Z@2@@Z
	DD	2 DUP(00H)
	DD	2 DUP(00H)
	DD	00H
	DD	01H
xdata$x	ENDS
;	COMDAT xdata$x
xdata$x	SEGMENT
__unwindtable$??1?$Map@UPlayerIdAndGroupId@ConnectionGraph@@PAV?$Map@UPlayerIdAndGroupId@ConnectionGraph@@G$1??$defaultMapKeyComparison@UPlayerIdAndGroupId@ConnectionGraph@@@DataStructures@@YAHABU12@0@Z@DataStructures@@$1??$defaultMapKeyComparison@UPlayerIdAndGroupId@ConnectionGraph@@@4@YAHABU12@0@Z@DataStructures@@QAE@XZ DD 0ffffffffH
	DD	FLAT:__unwindfunclet$??1?$Map@UPlayerIdAndGroupId@ConnectionGraph@@PAV?$Map@UPlayerIdAndGroupId@ConnectionGraph@@G$1??$defaultMapKeyComparison@UPlayerIdAndGroupId@ConnectionGraph@@@DataStructures@@YAHABU12@0@Z@DataStructures@@$1??$defaultMapKeyComparison@UPlayerIdAndGroupId@ConnectionGraph@@@4@YAHABU12@0@Z@DataStructures@@QAE@XZ$0
	DD	00H
	DD	FLAT:__unwindfunclet$??1?$Map@UPlayerIdAndGroupId@ConnectionGraph@@PAV?$Map@UPlayerIdAndGroupId@ConnectionGraph@@G$1??$defaultMapKeyComparison@UPlayerIdAndGroupId@ConnectionGraph@@@DataStructures@@YAHABU12@0@Z@DataStructures@@$1??$defaultMapKeyComparison@UPlayerIdAndGroupId@ConnectionGraph@@@4@YAHABU12@0@Z@DataStructures@@QAE@XZ$1
__ehfuncinfo$??1?$Map@UPlayerIdAndGroupId@ConnectionGraph@@PAV?$Map@UPlayerIdAndGroupId@ConnectionGraph@@G$1??$defaultMapKeyComparison@UPlayerIdAndGroupId@ConnectionGraph@@@DataStructures@@YAHABU12@0@Z@DataStructures@@$1??$defaultMapKeyComparison@UPlayerIdAndGroupId@ConnectionGraph@@@4@YAHABU12@0@Z@DataStructures@@QAE@XZ DD 019930522H
	DD	02H
	DD	FLAT:__unwindtable$??1?$Map@UPlayerIdAndGroupId@ConnectionGraph@@PAV?$Map@UPlayerIdAndGroupId@ConnectionGraph@@G$1??$defaultMapKeyComparison@UPlayerIdAndGroupId@ConnectionGraph@@@DataStructures@@YAHABU12@0@Z@DataStructures@@$1??$defaultMapKeyComparison@UPlayerIdAndGroupId@ConnectionGraph@@@4@YAHABU12@0@Z@DataStructures@@QAE@XZ
	DD	2 DUP(00H)
	DD	2 DUP(00H)
	DD	00H
	DD	01H
xdata$x	ENDS
;	COMDAT xdata$x
xdata$x	SEGMENT
__unwindtable$??0?$Map@UPlayerIdAndGroupId@ConnectionGraph@@PAV?$Map@UPlayerIdAndGroupId@ConnectionGraph@@G$1??$defaultMapKeyComparison@UPlayerIdAndGroupId@ConnectionGraph@@@DataStructures@@YAHABU12@0@Z@DataStructures@@$1??$defaultMapKeyComparison@UPlayerIdAndGroupId@ConnectionGraph@@@4@YAHABU12@0@Z@DataStructures@@QAE@XZ DD 0ffffffffH
	DD	FLAT:__unwindfunclet$??0?$Map@UPlayerIdAndGroupId@ConnectionGraph@@PAV?$Map@UPlayerIdAndGroupId@ConnectionGraph@@G$1??$defaultMapKeyComparison@UPlayerIdAndGroupId@ConnectionGraph@@@DataStructures@@YAHABU12@0@Z@DataStructures@@$1??$defaultMapKeyComparison@UPlayerIdAndGroupId@ConnectionGraph@@@4@YAHABU12@0@Z@DataStructures@@QAE@XZ$0
__ehfuncinfo$??0?$Map@UPlayerIdAndGroupId@ConnectionGraph@@PAV?$Map@UPlayerIdAndGroupId@ConnectionGraph@@G$1??$defaultMapKeyComparison@UPlayerIdAndGroupId@ConnectionGraph@@@DataStructures@@YAHABU12@0@Z@DataStructures@@$1??$defaultMapKeyComparison@UPlayerIdAndGroupId@ConnectionGraph@@@4@YAHABU12@0@Z@DataStructures@@QAE@XZ DD 019930522H
	DD	01H
	DD	FLAT:__unwindtable$??0?$Map@UPlayerIdAndGroupId@ConnectionGraph@@PAV?$Map@UPlayerIdAndGroupId@ConnectionGraph@@G$1??$defaultMapKeyComparison@UPlayerIdAndGroupId@ConnectionGraph@@@DataStructures@@YAHABU12@0@Z@DataStructures@@$1??$defaultMapKeyComparison@UPlayerIdAndGroupId@ConnectionGraph@@@4@YAHABU12@0@Z@DataStructures@@QAE@XZ
	DD	2 DUP(00H)
	DD	2 DUP(00H)
	DD	00H
	DD	01H
xdata$x	ENDS
;	COMDAT xdata$x
xdata$x	SEGMENT
__unwindtable$?GetConnectionAtIndex@?$WeightedGraph@UPlayerIdAndGroupId@ConnectionGraph@@G$0A@@DataStructures@@QBEXIIAAUPlayerIdAndGroupId@ConnectionGraph@@AAG@Z DD 0ffffffffH
	DD	FLAT:__unwindfunclet$?GetConnectionAtIndex@?$WeightedGraph@UPlayerIdAndGroupId@ConnectionGraph@@G$0A@@DataStructures@@QBEXIIAAUPlayerIdAndGroupId@ConnectionGraph@@AAG@Z$0
__ehfuncinfo$?GetConnectionAtIndex@?$WeightedGraph@UPlayerIdAndGroupId@ConnectionGraph@@G$0A@@DataStructures@@QBEXIIAAUPlayerIdAndGroupId@ConnectionGraph@@AAG@Z DD 019930522H
	DD	01H
	DD	FLAT:__unwindtable$?GetConnectionAtIndex@?$WeightedGraph@UPlayerIdAndGroupId@ConnectionGraph@@G$0A@@DataStructures@@QBEXIIAAUPlayerIdAndGroupId@ConnectionGraph@@AAG@Z
	DD	2 DUP(00H)
	DD	2 DUP(00H)
	DD	00H
	DD	01H
xdata$x	ENDS
;	COMDAT xdata$x
xdata$x	SEGMENT
__unwindtable$?RemoveNode@?$WeightedGraph@UPlayerIdAndGroupId@ConnectionGraph@@G$0A@@DataStructures@@QAEXABUPlayerIdAndGroupId@ConnectionGraph@@@Z DD 0ffffffffH
	DD	FLAT:__unwindfunclet$?RemoveNode@?$WeightedGraph@UPlayerIdAndGroupId@ConnectionGraph@@G$0A@@DataStructures@@QAEXABUPlayerIdAndGroupId@ConnectionGraph@@@Z$0
	DD	00H
	DD	FLAT:__unwindfunclet$?RemoveNode@?$WeightedGraph@UPlayerIdAndGroupId@ConnectionGraph@@G$0A@@DataStructures@@QAEXABUPlayerIdAndGroupId@ConnectionGraph@@@Z$1
	DD	00H
	DD	FLAT:__unwindfunclet$?RemoveNode@?$WeightedGraph@UPlayerIdAndGroupId@ConnectionGraph@@G$0A@@DataStructures@@QAEXABUPlayerIdAndGroupId@ConnectionGraph@@@Z$2
__ehfuncinfo$?RemoveNode@?$WeightedGraph@UPlayerIdAndGroupId@ConnectionGraph@@G$0A@@DataStructures@@QAEXABUPlayerIdAndGroupId@ConnectionGraph@@@Z DD 019930522H
	DD	03H
	DD	FLAT:__unwindtable$?RemoveNode@?$WeightedGraph@UPlayerIdAndGroupId@ConnectionGraph@@G$0A@@DataStructures@@QAEXABUPlayerIdAndGroupId@ConnectionGraph@@@Z
	DD	2 DUP(00H)
	DD	2 DUP(00H)
	DD	00H
	DD	01H
xdata$x	ENDS
;	COMDAT xdata$x
xdata$x	SEGMENT
__unwindtable$?AddNode@?$WeightedGraph@UPlayerIdAndGroupId@ConnectionGraph@@G$0A@@DataStructures@@QAEXABUPlayerIdAndGroupId@ConnectionGraph@@@Z DD 0ffffffffH
	DD	FLAT:__unwindfunclet$?AddNode@?$WeightedGraph@UPlayerIdAndGroupId@ConnectionGraph@@G$0A@@DataStructures@@QAEXABUPlayerIdAndGroupId@ConnectionGraph@@@Z$0
__ehfuncinfo$?AddNode@?$WeightedGraph@UPlayerIdAndGroupId@ConnectionGraph@@G$0A@@DataStructures@@QAEXABUPlayerIdAndGroupId@ConnectionGraph@@@Z DD 019930522H
	DD	01H
	DD	FLAT:__unwindtable$?AddNode@?$WeightedGraph@UPlayerIdAndGroupId@ConnectionGraph@@G$0A@@DataStructures@@QAEXABUPlayerIdAndGroupId@ConnectionGraph@@@Z
	DD	2 DUP(00H)
	DD	2 DUP(00H)
	DD	00H
	DD	01H
xdata$x	ENDS
;	COMDAT xdata$x
xdata$x	SEGMENT
__unwindtable$??1?$WeightedGraph@UPlayerIdAndGroupId@ConnectionGraph@@G$0A@@DataStructures@@QAE@XZ DD 0ffffffffH
	DD	FLAT:__unwindfunclet$??1?$WeightedGraph@UPlayerIdAndGroupId@ConnectionGraph@@G$0A@@DataStructures@@QAE@XZ$0
	DD	00H
	DD	FLAT:__unwindfunclet$??1?$WeightedGraph@UPlayerIdAndGroupId@ConnectionGraph@@G$0A@@DataStructures@@QAE@XZ$1
	DD	01H
	DD	FLAT:__unwindfunclet$??1?$WeightedGraph@UPlayerIdAndGroupId@ConnectionGraph@@G$0A@@DataStructures@@QAE@XZ$2
__ehfuncinfo$??1?$WeightedGraph@UPlayerIdAndGroupId@ConnectionGraph@@G$0A@@DataStructures@@QAE@XZ DD 019930522H
	DD	03H
	DD	FLAT:__unwindtable$??1?$WeightedGraph@UPlayerIdAndGroupId@ConnectionGraph@@G$0A@@DataStructures@@QAE@XZ
	DD	2 DUP(00H)
	DD	2 DUP(00H)
	DD	00H
	DD	01H
xdata$x	ENDS
;	COMDAT xdata$x
xdata$x	SEGMENT
__unwindtable$??0?$WeightedGraph@UPlayerIdAndGroupId@ConnectionGraph@@G$0A@@DataStructures@@QAE@XZ DD 0ffffffffH
	DD	FLAT:__unwindfunclet$??0?$WeightedGraph@UPlayerIdAndGroupId@ConnectionGraph@@G$0A@@DataStructures@@QAE@XZ$0
	DD	00H
	DD	FLAT:__unwindfunclet$??0?$WeightedGraph@UPlayerIdAndGroupId@ConnectionGraph@@G$0A@@DataStructures@@QAE@XZ$1
__ehfuncinfo$??0?$WeightedGraph@UPlayerIdAndGroupId@ConnectionGraph@@G$0A@@DataStructures@@QAE@XZ DD 019930522H
	DD	02H
	DD	FLAT:__unwindtable$??0?$WeightedGraph@UPlayerIdAndGroupId@ConnectionGraph@@G$0A@@DataStructures@@QAE@XZ
	DD	2 DUP(00H)
	DD	2 DUP(00H)
	DD	00H
	DD	01H
xdata$x	ENDS
;	COMDAT xdata$x
xdata$x	SEGMENT
__unwindtable$?IMPLEMENT_DEFAULT_COMPARISON@?$WeightedGraph@UPlayerIdAndGroupId@ConnectionGraph@@G$0A@@DataStructures@@SAXXZ DD 0ffffffffH
	DD	FLAT:__unwindfunclet$?IMPLEMENT_DEFAULT_COMPARISON@?$WeightedGraph@UPlayerIdAndGroupId@ConnectionGraph@@G$0A@@DataStructures@@SAXXZ$0
	DD	00H
	DD	FLAT:__unwindfunclet$?IMPLEMENT_DEFAULT_COMPARISON@?$WeightedGraph@UPlayerIdAndGroupId@ConnectionGraph@@G$0A@@DataStructures@@SAXXZ$1
__ehfuncinfo$?IMPLEMENT_DEFAULT_COMPARISON@?$WeightedGraph@UPlayerIdAndGroupId@ConnectionGraph@@G$0A@@DataStructures@@SAXXZ DD 019930522H
	DD	02H
	DD	FLAT:__unwindtable$?IMPLEMENT_DEFAULT_COMPARISON@?$WeightedGraph@UPlayerIdAndGroupId@ConnectionGraph@@G$0A@@DataStructures@@SAXXZ
	DD	2 DUP(00H)
	DD	2 DUP(00H)
	DD	00H
	DD	01H
xdata$x	ENDS
;	COMDAT xdata$x
xdata$x	SEGMENT
__unwindtable$??1?$OrderedList@UPlayerID@@U1@$1??$defaultOrderedListComparison@UPlayerID@@U1@@DataStructures@@YAHABU1@0@Z@DataStructures@@QAE@XZ DD 0ffffffffH
	DD	FLAT:__unwindfunclet$??1?$OrderedList@UPlayerID@@U1@$1??$defaultOrderedListComparison@UPlayerID@@U1@@DataStructures@@YAHABU1@0@Z@DataStructures@@QAE@XZ$0
__ehfuncinfo$??1?$OrderedList@UPlayerID@@U1@$1??$defaultOrderedListComparison@UPlayerID@@U1@@DataStructures@@YAHABU1@0@Z@DataStructures@@QAE@XZ DD 019930522H
	DD	01H
	DD	FLAT:__unwindtable$??1?$OrderedList@UPlayerID@@U1@$1??$defaultOrderedListComparison@UPlayerID@@U1@@DataStructures@@YAHABU1@0@Z@DataStructures@@QAE@XZ
	DD	2 DUP(00H)
	DD	2 DUP(00H)
	DD	00H
	DD	01H
xdata$x	ENDS
;	COMDAT xdata$x
xdata$x	SEGMENT
__unwindtable$?SerializeIgnoreListAndBroadcast@ConnectionGraph@@IAEXPAVBitStream@RakNet@@AAV?$OrderedList@UPlayerID@@U1@$1??$defaultOrderedListComparison@UPlayerID@@U1@@DataStructures@@YAHABU1@0@Z@DataStructures@@PAVRakPeerInterface@@@Z DD 0ffffffffH
	DD	FLAT:__unwindfunclet$?SerializeIgnoreListAndBroadcast@ConnectionGraph@@IAEXPAVBitStream@RakNet@@AAV?$OrderedList@UPlayerID@@U1@$1??$defaultOrderedListComparison@UPlayerID@@U1@@DataStructures@@YAHABU1@0@Z@DataStructures@@PAVRakPeerInterface@@@Z$0
__ehfuncinfo$?SerializeIgnoreListAndBroadcast@ConnectionGraph@@IAEXPAVBitStream@RakNet@@AAV?$OrderedList@UPlayerID@@U1@$1??$defaultOrderedListComparison@UPlayerID@@U1@@DataStructures@@YAHABU1@0@Z@DataStructures@@PAVRakPeerInterface@@@Z DD 019930522H
	DD	01H
	DD	FLAT:__unwindtable$?SerializeIgnoreListAndBroadcast@ConnectionGraph@@IAEXPAVBitStream@RakNet@@AAV?$OrderedList@UPlayerID@@U1@$1??$defaultOrderedListComparison@UPlayerID@@U1@@DataStructures@@YAHABU1@0@Z@DataStructures@@PAVRakPeerInterface@@@Z
	DD	2 DUP(00H)
	DD	2 DUP(00H)
	DD	00H
	DD	01H
xdata$x	ENDS
;	COMDAT xdata$x
xdata$x	SEGMENT
__unwindtable$?NotifyUserOfRemoteConnection@ConnectionGraph@@IAEXABUPlayerIdAndGroupId@1@0GPAVRakPeerInterface@@@Z DD 0ffffffffH
	DD	FLAT:__unwindfunclet$?NotifyUserOfRemoteConnection@ConnectionGraph@@IAEXABUPlayerIdAndGroupId@1@0GPAVRakPeerInterface@@@Z$0
__ehfuncinfo$?NotifyUserOfRemoteConnection@ConnectionGraph@@IAEXABUPlayerIdAndGroupId@1@0GPAVRakPeerInterface@@@Z DD 019930522H
	DD	01H
	DD	FLAT:__unwindtable$?NotifyUserOfRemoteConnection@ConnectionGraph@@IAEXABUPlayerIdAndGroupId@1@0GPAVRakPeerInterface@@@Z
	DD	2 DUP(00H)
	DD	2 DUP(00H)
	DD	00H
	DD	01H
xdata$x	ENDS
;	COMDAT xdata$x
xdata$x	SEGMENT
__unwindtable$?BroadcastGraphUpdate@ConnectionGraph@@IAEXAAV?$OrderedList@UPlayerID@@U1@$1??$defaultOrderedListComparison@UPlayerID@@U1@@DataStructures@@YAHABU1@0@Z@DataStructures@@PAVRakPeerInterface@@@Z DD 0ffffffffH
	DD	FLAT:__unwindfunclet$?BroadcastGraphUpdate@ConnectionGraph@@IAEXAAV?$OrderedList@UPlayerID@@U1@$1??$defaultOrderedListComparison@UPlayerID@@U1@@DataStructures@@YAHABU1@0@Z@DataStructures@@PAVRakPeerInterface@@@Z$0
__ehfuncinfo$?BroadcastGraphUpdate@ConnectionGraph@@IAEXAAV?$OrderedList@UPlayerID@@U1@$1??$defaultOrderedListComparison@UPlayerID@@U1@@DataStructures@@YAHABU1@0@Z@DataStructures@@PAVRakPeerInterface@@@Z DD 019930522H
	DD	01H
	DD	FLAT:__unwindtable$?BroadcastGraphUpdate@ConnectionGraph@@IAEXAAV?$OrderedList@UPlayerID@@U1@$1??$defaultOrderedListComparison@UPlayerID@@U1@@DataStructures@@YAHABU1@0@Z@DataStructures@@PAVRakPeerInterface@@@Z
	DD	2 DUP(00H)
	DD	2 DUP(00H)
	DD	00H
	DD	01H
xdata$x	ENDS
;	COMDAT xdata$x
xdata$x	SEGMENT
__unwindtable$?RemoveAndRelayConnection@ConnectionGraph@@IAE_NAAV?$OrderedList@UPlayerID@@U1@$1??$defaultOrderedListComparison@UPlayerID@@U1@@DataStructures@@YAHABU1@0@Z@DataStructures@@EUPlayerID@@1PAVRakPeerInterface@@@Z DD 0ffffffffH
	DD	FLAT:__unwindfunclet$?RemoveAndRelayConnection@ConnectionGraph@@IAE_NAAV?$OrderedList@UPlayerID@@U1@$1??$defaultOrderedListComparison@UPlayerID@@U1@@DataStructures@@YAHABU1@0@Z@DataStructures@@EUPlayerID@@1PAVRakPeerInterface@@@Z$0
	DD	00H
	DD	FLAT:__unwindfunclet$?RemoveAndRelayConnection@ConnectionGraph@@IAE_NAAV?$OrderedList@UPlayerID@@U1@$1??$defaultOrderedListComparison@UPlayerID@@U1@@DataStructures@@YAHABU1@0@Z@DataStructures@@EUPlayerID@@1PAVRakPeerInterface@@@Z$1
	DD	01H
	DD	FLAT:__unwindfunclet$?RemoveAndRelayConnection@ConnectionGraph@@IAE_NAAV?$OrderedList@UPlayerID@@U1@$1??$defaultOrderedListComparison@UPlayerID@@U1@@DataStructures@@YAHABU1@0@Z@DataStructures@@EUPlayerID@@1PAVRakPeerInterface@@@Z$2
__ehfuncinfo$?RemoveAndRelayConnection@ConnectionGraph@@IAE_NAAV?$OrderedList@UPlayerID@@U1@$1??$defaultOrderedListComparison@UPlayerID@@U1@@DataStructures@@YAHABU1@0@Z@DataStructures@@EUPlayerID@@1PAVRakPeerInterface@@@Z DD 019930522H
	DD	03H
	DD	FLAT:__unwindtable$?RemoveAndRelayConnection@ConnectionGraph@@IAE_NAAV?$OrderedList@UPlayerID@@U1@$1??$defaultOrderedListComparison@UPlayerID@@U1@@DataStructures@@YAHABU1@0@Z@DataStructures@@EUPlayerID@@1PAVRakPeerInterface@@@Z
	DD	2 DUP(00H)
	DD	2 DUP(00H)
	DD	00H
	DD	01H
xdata$x	ENDS
;	COMDAT xdata$x
xdata$x	SEGMENT
__unwindtable$?AddAndRelayConnection@ConnectionGraph@@IAEXAAV?$OrderedList@UPlayerID@@U1@$1??$defaultOrderedListComparison@UPlayerID@@U1@@DataStructures@@YAHABU1@0@Z@DataStructures@@ABUPlayerIdAndGroupId@1@1GPAVRakPeerInterface@@@Z DD 0ffffffffH
	DD	FLAT:__unwindfunclet$?AddAndRelayConnection@ConnectionGraph@@IAEXAAV?$OrderedList@UPlayerID@@U1@$1??$defaultOrderedListComparison@UPlayerID@@U1@@DataStructures@@YAHABU1@0@Z@DataStructures@@ABUPlayerIdAndGroupId@1@1GPAVRakPeerInterface@@@Z$0
__ehfuncinfo$?AddAndRelayConnection@ConnectionGraph@@IAEXAAV?$OrderedList@UPlayerID@@U1@$1??$defaultOrderedListComparison@UPlayerID@@U1@@DataStructures@@YAHABU1@0@Z@DataStructures@@ABUPlayerIdAndGroupId@1@1GPAVRakPeerInterface@@@Z DD 019930522H
	DD	01H
	DD	FLAT:__unwindtable$?AddAndRelayConnection@ConnectionGraph@@IAEXAAV?$OrderedList@UPlayerID@@U1@$1??$defaultOrderedListComparison@UPlayerID@@U1@@DataStructures@@YAHABU1@0@Z@DataStructures@@ABUPlayerIdAndGroupId@1@1GPAVRakPeerInterface@@@Z
	DD	2 DUP(00H)
	DD	2 DUP(00H)
	DD	00H
	DD	01H
xdata$x	ENDS
;	COMDAT xdata$x
xdata$x	SEGMENT
__unwindtable$?DeserializeWeightedGraph@ConnectionGraph@@IAE_NPAVBitStream@RakNet@@PAVRakPeerInterface@@@Z DD 0ffffffffH
	DD	FLAT:__unwindfunclet$?DeserializeWeightedGraph@ConnectionGraph@@IAE_NPAVBitStream@RakNet@@PAVRakPeerInterface@@@Z$0
	DD	00H
	DD	FLAT:__unwindfunclet$?DeserializeWeightedGraph@ConnectionGraph@@IAE_NPAVBitStream@RakNet@@PAVRakPeerInterface@@@Z$1
__ehfuncinfo$?DeserializeWeightedGraph@ConnectionGraph@@IAE_NPAVBitStream@RakNet@@PAVRakPeerInterface@@@Z DD 019930522H
	DD	02H
	DD	FLAT:__unwindtable$?DeserializeWeightedGraph@ConnectionGraph@@IAE_NPAVBitStream@RakNet@@PAVRakPeerInterface@@@Z
	DD	2 DUP(00H)
	DD	2 DUP(00H)
	DD	00H
	DD	01H
xdata$x	ENDS
;	COMDAT xdata$x
xdata$x	SEGMENT
__unwindtable$?SerializeWeightedGraph@ConnectionGraph@@IBEXPAVBitStream@RakNet@@ABV?$WeightedGraph@UPlayerIdAndGroupId@ConnectionGraph@@G$0A@@DataStructures@@@Z DD 0ffffffffH
	DD	FLAT:__unwindfunclet$?SerializeWeightedGraph@ConnectionGraph@@IBEXPAVBitStream@RakNet@@ABV?$WeightedGraph@UPlayerIdAndGroupId@ConnectionGraph@@G$0A@@DataStructures@@@Z$0
	DD	00H
	DD	FLAT:__unwindfunclet$?SerializeWeightedGraph@ConnectionGraph@@IBEXPAVBitStream@RakNet@@ABV?$WeightedGraph@UPlayerIdAndGroupId@ConnectionGraph@@G$0A@@DataStructures@@@Z$1
	DD	01H
	DD	FLAT:__unwindfunclet$?SerializeWeightedGraph@ConnectionGraph@@IBEXPAVBitStream@RakNet@@ABV?$WeightedGraph@UPlayerIdAndGroupId@ConnectionGraph@@G$0A@@DataStructures@@@Z$2
__ehfuncinfo$?SerializeWeightedGraph@ConnectionGraph@@IBEXPAVBitStream@RakNet@@ABV?$WeightedGraph@UPlayerIdAndGroupId@ConnectionGraph@@G$0A@@DataStructures@@@Z DD 019930522H
	DD	03H
	DD	FLAT:__unwindtable$?SerializeWeightedGraph@ConnectionGraph@@IBEXPAVBitStream@RakNet@@ABV?$WeightedGraph@UPlayerIdAndGroupId@ConnectionGraph@@G$0A@@DataStructures@@@Z
	DD	2 DUP(00H)
	DD	2 DUP(00H)
	DD	00H
	DD	01H
xdata$x	ENDS
;	COMDAT xdata$x
xdata$x	SEGMENT
__unwindtable$?OnConnectionLost@ConnectionGraph@@IAE_NPAVRakPeerInterface@@PAUPacket@@E@Z DD 0ffffffffH
	DD	FLAT:__unwindfunclet$?OnConnectionLost@ConnectionGraph@@IAE_NPAVRakPeerInterface@@PAUPacket@@E@Z$0
	DD	00H
	DD	FLAT:__unwindfunclet$?OnConnectionLost@ConnectionGraph@@IAE_NPAVRakPeerInterface@@PAUPacket@@E@Z$1
__ehfuncinfo$?OnConnectionLost@ConnectionGraph@@IAE_NPAVRakPeerInterface@@PAUPacket@@E@Z DD 019930522H
	DD	02H
	DD	FLAT:__unwindtable$?OnConnectionLost@ConnectionGraph@@IAE_NPAVRakPeerInterface@@PAUPacket@@E@Z
	DD	2 DUP(00H)
	DD	2 DUP(00H)
	DD	00H
	DD	01H
xdata$x	ENDS
;	COMDAT xdata$x
xdata$x	SEGMENT
__unwindtable$?OnNewConnection@ConnectionGraph@@IAEXPAVRakPeerInterface@@PAUPacket@@@Z DD 0ffffffffH
	DD	FLAT:__unwindfunclet$?OnNewConnection@ConnectionGraph@@IAEXPAVRakPeerInterface@@PAUPacket@@@Z$0
	DD	00H
	DD	FLAT:__unwindfunclet$?OnNewConnection@ConnectionGraph@@IAEXPAVRakPeerInterface@@PAUPacket@@@Z$1
	DD	01H
	DD	FLAT:__unwindfunclet$?OnNewConnection@ConnectionGraph@@IAEXPAVRakPeerInterface@@PAUPacket@@@Z$2
	DD	02H
	DD	FLAT:__unwindfunclet$?OnNewConnection@ConnectionGraph@@IAEXPAVRakPeerInterface@@PAUPacket@@@Z$3
__ehfuncinfo$?OnNewConnection@ConnectionGraph@@IAEXPAVRakPeerInterface@@PAUPacket@@@Z DD 019930522H
	DD	04H
	DD	FLAT:__unwindtable$?OnNewConnection@ConnectionGraph@@IAEXPAVRakPeerInterface@@PAUPacket@@@Z
	DD	2 DUP(00H)
	DD	2 DUP(00H)
	DD	00H
	DD	01H
xdata$x	ENDS
;	COMDAT xdata$x
xdata$x	SEGMENT
__unwindtable$?OnConnectionGraphUpdate@ConnectionGraph@@IAEXPAVRakPeerInterface@@PAUPacket@@@Z DD 0ffffffffH
	DD	FLAT:__unwindfunclet$?OnConnectionGraphUpdate@ConnectionGraph@@IAEXPAVRakPeerInterface@@PAUPacket@@@Z$0
	DD	00H
	DD	FLAT:__unwindfunclet$?OnConnectionGraphUpdate@ConnectionGraph@@IAEXPAVRakPeerInterface@@PAUPacket@@@Z$1
__ehfuncinfo$?OnConnectionGraphUpdate@ConnectionGraph@@IAEXPAVRakPeerInterface@@PAUPacket@@@Z DD 019930522H
	DD	02H
	DD	FLAT:__unwindtable$?OnConnectionGraphUpdate@ConnectionGraph@@IAEXPAVRakPeerInterface@@PAUPacket@@@Z
	DD	2 DUP(00H)
	DD	2 DUP(00H)
	DD	00H
	DD	01H
xdata$x	ENDS
;	COMDAT xdata$x
xdata$x	SEGMENT
__unwindtable$?OnConnectionGraphReply@ConnectionGraph@@IAEXPAVRakPeerInterface@@PAUPacket@@@Z DD 0ffffffffH
	DD	FLAT:__unwindfunclet$?OnConnectionGraphReply@ConnectionGraph@@IAEXPAVRakPeerInterface@@PAUPacket@@@Z$0
	DD	00H
	DD	FLAT:__unwindfunclet$?OnConnectionGraphReply@ConnectionGraph@@IAEXPAVRakPeerInterface@@PAUPacket@@@Z$1
	DD	01H
	DD	FLAT:__unwindfunclet$?OnConnectionGraphReply@ConnectionGraph@@IAEXPAVRakPeerInterface@@PAUPacket@@@Z$2
__ehfuncinfo$?OnConnectionGraphReply@ConnectionGraph@@IAEXPAVRakPeerInterface@@PAUPacket@@@Z DD 019930522H
	DD	03H
	DD	FLAT:__unwindtable$?OnConnectionGraphReply@ConnectionGraph@@IAEXPAVRakPeerInterface@@PAUPacket@@@Z
	DD	2 DUP(00H)
	DD	2 DUP(00H)
	DD	00H
	DD	01H
xdata$x	ENDS
;	COMDAT xdata$x
xdata$x	SEGMENT
__unwindtable$?OnConnectionGraphRequest@ConnectionGraph@@IAEXPAVRakPeerInterface@@PAUPacket@@@Z DD 0ffffffffH
	DD	FLAT:__unwindfunclet$?OnConnectionGraphRequest@ConnectionGraph@@IAEXPAVRakPeerInterface@@PAUPacket@@@Z$0
	DD	00H
	DD	FLAT:__unwindfunclet$?OnConnectionGraphRequest@ConnectionGraph@@IAEXPAVRakPeerInterface@@PAUPacket@@@Z$1
__ehfuncinfo$?OnConnectionGraphRequest@ConnectionGraph@@IAEXPAVRakPeerInterface@@PAUPacket@@@Z DD 019930522H
	DD	02H
	DD	FLAT:__unwindtable$?OnConnectionGraphRequest@ConnectionGraph@@IAEXPAVRakPeerInterface@@PAUPacket@@@Z
	DD	2 DUP(00H)
	DD	2 DUP(00H)
	DD	00H
	DD	01H
xdata$x	ENDS
;	COMDAT xdata$x
xdata$x	SEGMENT
__unwindtable$?HandleDroppedConnection@ConnectionGraph@@IAEXPAVRakPeerInterface@@UPlayerID@@E@Z DD 0ffffffffH
	DD	FLAT:__unwindfunclet$?HandleDroppedConnection@ConnectionGraph@@IAEXPAVRakPeerInterface@@UPlayerID@@E@Z$0
__ehfuncinfo$?HandleDroppedConnection@ConnectionGraph@@IAEXPAVRakPeerInterface@@UPlayerID@@E@Z DD 019930522H
	DD	01H
	DD	FLAT:__unwindtable$?HandleDroppedConnection@ConnectionGraph@@IAEXPAVRakPeerInterface@@UPlayerID@@E@Z
	DD	2 DUP(00H)
	DD	2 DUP(00H)
	DD	00H
	DD	01H
xdata$x	ENDS
;	COMDAT xdata$x
xdata$x	SEGMENT
__unwindtable$?AddNewConnection@ConnectionGraph@@QAEXPAVRakPeerInterface@@UPlayerID@@E@Z DD 0ffffffffH
	DD	FLAT:__unwindfunclet$?AddNewConnection@ConnectionGraph@@QAEXPAVRakPeerInterface@@UPlayerID@@E@Z$0
	DD	00H
	DD	FLAT:__unwindfunclet$?AddNewConnection@ConnectionGraph@@QAEXPAVRakPeerInterface@@UPlayerID@@E@Z$1
	DD	01H
	DD	FLAT:__unwindfunclet$?AddNewConnection@ConnectionGraph@@QAEXPAVRakPeerInterface@@UPlayerID@@E@Z$2
__ehfuncinfo$?AddNewConnection@ConnectionGraph@@QAEXPAVRakPeerInterface@@UPlayerID@@E@Z DD 019930522H
	DD	03H
	DD	FLAT:__unwindtable$?AddNewConnection@ConnectionGraph@@QAEXPAVRakPeerInterface@@UPlayerID@@E@Z
	DD	2 DUP(00H)
	DD	2 DUP(00H)
	DD	00H
	DD	01H
xdata$x	ENDS
;	COMDAT xdata$x
xdata$x	SEGMENT
__unwindtable$?RequestConnectionGraph@ConnectionGraph@@QAEXPAVRakPeerInterface@@UPlayerID@@@Z DD 0ffffffffH
	DD	FLAT:__unwindfunclet$?RequestConnectionGraph@ConnectionGraph@@QAEXPAVRakPeerInterface@@UPlayerID@@@Z$0
__ehfuncinfo$?RequestConnectionGraph@ConnectionGraph@@QAEXPAVRakPeerInterface@@UPlayerID@@@Z DD 019930522H
	DD	01H
	DD	FLAT:__unwindtable$?RequestConnectionGraph@ConnectionGraph@@QAEXPAVRakPeerInterface@@UPlayerID@@@Z
	DD	2 DUP(00H)
	DD	2 DUP(00H)
	DD	00H
	DD	01H
xdata$x	ENDS
;	COMDAT xdata$x
xdata$x	SEGMENT
__unwindtable$??1ConnectionGraph@@QAE@XZ DD 0ffffffffH
	DD	FLAT:__unwindfunclet$??1ConnectionGraph@@QAE@XZ$0
	DD	00H
	DD	FLAT:__unwindfunclet$??1ConnectionGraph@@QAE@XZ$1
__ehfuncinfo$??1ConnectionGraph@@QAE@XZ DD 019930522H
	DD	02H
	DD	FLAT:__unwindtable$??1ConnectionGraph@@QAE@XZ
	DD	2 DUP(00H)
	DD	2 DUP(00H)
	DD	00H
	DD	01H
xdata$x	ENDS
;	COMDAT xdata$x
xdata$x	SEGMENT
__unwindtable$??0ConnectionGraph@@QAE@XZ DD 0ffffffffH
	DD	FLAT:__unwindfunclet$??0ConnectionGraph@@QAE@XZ$0
	DD	00H
	DD	FLAT:__unwindfunclet$??0ConnectionGraph@@QAE@XZ$1
	DD	01H
	DD	FLAT:__unwindfunclet$??0ConnectionGraph@@QAE@XZ$2
__ehfuncinfo$??0ConnectionGraph@@QAE@XZ DD 019930522H
	DD	03H
	DD	FLAT:__unwindtable$??0ConnectionGraph@@QAE@XZ
	DD	2 DUP(00H)
	DD	2 DUP(00H)
	DD	00H
	DD	01H
xdata$x	ENDS
; Function compile flags: /Odtp /RTCsu /ZI
;	COMDAT ??_EMapNode@?$Map@UPlayerIdAndGroupId@ConnectionGraph@@G$1??$defaultMapKeyComparison@UPlayerIdAndGroupId@ConnectionGraph@@@DataStructures@@YAHABU12@0@Z@DataStructures@@QAEPAXI@Z
_TEXT	SEGMENT
_this$ = -8						; size = 4
___flags$ = 8						; size = 4
??_EMapNode@?$Map@UPlayerIdAndGroupId@ConnectionGraph@@G$1??$defaultMapKeyComparison@UPlayerIdAndGroupId@ConnectionGraph@@@DataStructures@@YAHABU12@0@Z@DataStructures@@QAEPAXI@Z PROC ; DataStructures::Map<ConnectionGraph::PlayerIdAndGroupId,unsigned short,&DataStructures::defaultMapKeyComparison<ConnectionGraph::PlayerIdAndGroupId> >::MapNode::`vector deleting destructor', COMDAT
; _this$ = ecx
	push	ebp
	mov	ebp, esp
	sub	esp, 204				; 000000ccH
	push	ebx
	push	esi
	push	edi
	push	ecx
	lea	edi, DWORD PTR [ebp-204]
	mov	ecx, 51					; 00000033H
	mov	eax, -858993460				; ccccccccH
	rep stosd
	pop	ecx
	mov	DWORD PTR _this$[ebp], ecx
	mov	eax, DWORD PTR ___flags$[ebp]
	and	eax, 2
	je	SHORT $LN3@vector
	push	OFFSET ??1MapNode@?$Map@UPlayerIdAndGroupId@ConnectionGraph@@G$1??$defaultMapKeyComparison@UPlayerIdAndGroupId@ConnectionGraph@@@DataStructures@@YAHABU12@0@Z@DataStructures@@QAE@XZ
	mov	eax, DWORD PTR _this$[ebp]
	mov	ecx, DWORD PTR [eax-4]
	push	ecx
	push	9
	mov	edx, DWORD PTR _this$[ebp]
	push	edx
	call	??_M@YGXPAXIHP6EX0@Z@Z
	mov	eax, DWORD PTR ___flags$[ebp]
	and	eax, 1
	je	SHORT $LN2@vector
	mov	eax, DWORD PTR _this$[ebp]
	sub	eax, 4
	push	eax
	call	??3@YAXPAX@Z				; operator delete
	add	esp, 4
$LN2@vector:
	mov	eax, DWORD PTR _this$[ebp]
	sub	eax, 4
	jmp	SHORT $LN4@vector
$LN3@vector:
	mov	ecx, DWORD PTR _this$[ebp]
	call	??1MapNode@?$Map@UPlayerIdAndGroupId@ConnectionGraph@@G$1??$defaultMapKeyComparison@UPlayerIdAndGroupId@ConnectionGraph@@@DataStructures@@YAHABU12@0@Z@DataStructures@@QAE@XZ
	mov	eax, DWORD PTR ___flags$[ebp]
	and	eax, 1
	je	SHORT $LN1@vector
	mov	eax, DWORD PTR _this$[ebp]
	push	eax
	call	??3@YAXPAX@Z				; operator delete
	add	esp, 4
$LN1@vector:
	mov	eax, DWORD PTR _this$[ebp]
$LN4@vector:
	pop	edi
	pop	esi
	pop	ebx
	add	esp, 204				; 000000ccH
	cmp	ebp, esp
	call	__RTC_CheckEsp
	mov	esp, ebp
	pop	ebp
	ret	4
??_EMapNode@?$Map@UPlayerIdAndGroupId@ConnectionGraph@@G$1??$defaultMapKeyComparison@UPlayerIdAndGroupId@ConnectionGraph@@@DataStructures@@YAHABU12@0@Z@DataStructures@@QAEPAXI@Z ENDP ; DataStructures::Map<ConnectionGraph::PlayerIdAndGroupId,unsigned short,&DataStructures::defaultMapKeyComparison<ConnectionGraph::PlayerIdAndGroupId> >::MapNode::`vector deleting destructor'
_TEXT	ENDS
; Function compile flags: /Odtp /RTCsu /ZI
;	COMDAT ??4MapNode@?$Map@UPlayerIdAndGroupId@ConnectionGraph@@G$1??$defaultMapKeyComparison@UPlayerIdAndGroupId@ConnectionGraph@@@DataStructures@@YAHABU12@0@Z@DataStructures@@QAEAAU012@ABU012@@Z
_TEXT	SEGMENT
_this$ = -8						; size = 4
___that$ = 8						; size = 4
??4MapNode@?$Map@UPlayerIdAndGroupId@ConnectionGraph@@G$1??$defaultMapKeyComparison@UPlayerIdAndGroupId@ConnectionGraph@@@DataStructures@@YAHABU12@0@Z@DataStructures@@QAEAAU012@ABU012@@Z PROC ; DataStructures::Map<ConnectionGraph::PlayerIdAndGroupId,unsigned short,&DataStructures::defaultMapKeyComparison<ConnectionGraph::PlayerIdAndGroupId> >::MapNode::operator=, COMDAT
; _this$ = ecx
	push	ebp
	mov	ebp, esp
	sub	esp, 204				; 000000ccH
	push	ebx
	push	esi
	push	edi
	push	ecx
	lea	edi, DWORD PTR [ebp-204]
	mov	ecx, 51					; 00000033H
	mov	eax, -858993460				; ccccccccH
	rep stosd
	pop	ecx
	mov	DWORD PTR _this$[ebp], ecx
	mov	eax, DWORD PTR ___that$[ebp]
	push	eax
	mov	ecx, DWORD PTR _this$[ebp]
	call	??4PlayerIdAndGroupId@ConnectionGraph@@QAEAAU01@ABU01@@Z
	mov	eax, DWORD PTR _this$[ebp]
	mov	ecx, DWORD PTR ___that$[ebp]
	mov	dx, WORD PTR [ecx+7]
	mov	WORD PTR [eax+7], dx
	mov	eax, DWORD PTR _this$[ebp]
	pop	edi
	pop	esi
	pop	ebx
	add	esp, 204				; 000000ccH
	cmp	ebp, esp
	call	__RTC_CheckEsp
	mov	esp, ebp
	pop	ebp
	ret	4
??4MapNode@?$Map@UPlayerIdAndGroupId@ConnectionGraph@@G$1??$defaultMapKeyComparison@UPlayerIdAndGroupId@ConnectionGraph@@@DataStructures@@YAHABU12@0@Z@DataStructures@@QAEAAU012@ABU012@@Z ENDP ; DataStructures::Map<ConnectionGraph::PlayerIdAndGroupId,unsigned short,&DataStructures::defaultMapKeyComparison<ConnectionGraph::PlayerIdAndGroupId> >::MapNode::operator=
_TEXT	ENDS
; Function compile flags: /Odtp /RTCsu /ZI
;	COMDAT ??1MapNode@?$Map@UPlayerIdAndGroupId@ConnectionGraph@@G$1??$defaultMapKeyComparison@UPlayerIdAndGroupId@ConnectionGraph@@@DataStructures@@YAHABU12@0@Z@DataStructures@@QAE@XZ
_TEXT	SEGMENT
_this$ = -8						; size = 4
??1MapNode@?$Map@UPlayerIdAndGroupId@ConnectionGraph@@G$1??$defaultMapKeyComparison@UPlayerIdAndGroupId@ConnectionGraph@@@DataStructures@@YAHABU12@0@Z@DataStructures@@QAE@XZ PROC ; DataStructures::Map<ConnectionGraph::PlayerIdAndGroupId,unsigned short,&DataStructures::defaultMapKeyComparison<ConnectionGraph::PlayerIdAndGroupId> >::MapNode::~MapNode, COMDAT
; _this$ = ecx
	push	ebp
	mov	ebp, esp
	sub	esp, 204				; 000000ccH
	push	ebx
	push	esi
	push	edi
	push	ecx
	lea	edi, DWORD PTR [ebp-204]
	mov	ecx, 51					; 00000033H
	mov	eax, -858993460				; ccccccccH
	rep stosd
	pop	ecx
	mov	DWORD PTR _this$[ebp], ecx
	mov	ecx, DWORD PTR _this$[ebp]
	call	??1PlayerIdAndGroupId@ConnectionGraph@@QAE@XZ ; ConnectionGraph::PlayerIdAndGroupId::~PlayerIdAndGroupId
	pop	edi
	pop	esi
	pop	ebx
	add	esp, 204				; 000000ccH
	cmp	ebp, esp
	call	__RTC_CheckEsp
	mov	esp, ebp
	pop	ebp
	ret	0
??1MapNode@?$Map@UPlayerIdAndGroupId@ConnectionGraph@@G$1??$defaultMapKeyComparison@UPlayerIdAndGroupId@ConnectionGraph@@@DataStructures@@YAHABU12@0@Z@DataStructures@@QAE@XZ ENDP ; DataStructures::Map<ConnectionGraph::PlayerIdAndGroupId,unsigned short,&DataStructures::defaultMapKeyComparison<ConnectionGraph::PlayerIdAndGroupId> >::MapNode::~MapNode
_TEXT	ENDS
; Function compile flags: /Odtp /RTCsu /ZI
; File z:\sampsrc\02xu1\raknet\ds_map.h
;	COMDAT ??0MapNode@?$Map@UPlayerIdAndGroupId@ConnectionGraph@@G$1??$defaultMapKeyComparison@UPlayerIdAndGroupId@ConnectionGraph@@@DataStructures@@YAHABU12@0@Z@DataStructures@@QAE@UPlayerIdAndGroupId@ConnectionGraph@@G@Z
_TEXT	SEGMENT
_this$ = -8						; size = 4
__key$ = 8						; size = 7
__data$ = 16						; size = 2
??0MapNode@?$Map@UPlayerIdAndGroupId@ConnectionGraph@@G$1??$defaultMapKeyComparison@UPlayerIdAndGroupId@ConnectionGraph@@@DataStructures@@YAHABU12@0@Z@DataStructures@@QAE@UPlayerIdAndGroupId@ConnectionGraph@@G@Z PROC ; DataStructures::Map<ConnectionGraph::PlayerIdAndGroupId,unsigned short,&DataStructures::defaultMapKeyComparison<ConnectionGraph::PlayerIdAndGroupId> >::MapNode::MapNode, COMDAT
; _this$ = ecx

; 49   : 			MapNode(key_type _key, data_type _data) : mapNodeKey(_key), mapNodeData(_data) {}

	push	ebp
	mov	ebp, esp
	sub	esp, 204				; 000000ccH
	push	ebx
	push	esi
	push	edi
	push	ecx
	lea	edi, DWORD PTR [ebp-204]
	mov	ecx, 51					; 00000033H
	mov	eax, -858993460				; ccccccccH
	rep stosd
	pop	ecx
	mov	DWORD PTR _this$[ebp], ecx
	mov	eax, DWORD PTR _this$[ebp]
	mov	ecx, DWORD PTR __key$[ebp]
	mov	DWORD PTR [eax], ecx
	mov	dx, WORD PTR __key$[ebp+4]
	mov	WORD PTR [eax+4], dx
	mov	cl, BYTE PTR __key$[ebp+6]
	mov	BYTE PTR [eax+6], cl
	mov	eax, DWORD PTR _this$[ebp]
	mov	cx, WORD PTR __data$[ebp]
	mov	WORD PTR [eax+7], cx
	lea	ecx, DWORD PTR __key$[ebp]
	call	??1PlayerIdAndGroupId@ConnectionGraph@@QAE@XZ ; ConnectionGraph::PlayerIdAndGroupId::~PlayerIdAndGroupId
	mov	eax, DWORD PTR _this$[ebp]
	pop	edi
	pop	esi
	pop	ebx
	add	esp, 204				; 000000ccH
	cmp	ebp, esp
	call	__RTC_CheckEsp
	mov	esp, ebp
	pop	ebp
	ret	12					; 0000000cH
??0MapNode@?$Map@UPlayerIdAndGroupId@ConnectionGraph@@G$1??$defaultMapKeyComparison@UPlayerIdAndGroupId@ConnectionGraph@@@DataStructures@@YAHABU12@0@Z@DataStructures@@QAE@UPlayerIdAndGroupId@ConnectionGraph@@G@Z ENDP ; DataStructures::Map<ConnectionGraph::PlayerIdAndGroupId,unsigned short,&DataStructures::defaultMapKeyComparison<ConnectionGraph::PlayerIdAndGroupId> >::MapNode::MapNode
_TEXT	ENDS
; Function compile flags: /Odtp /RTCsu /ZI
; File z:\sampsrc\02xu1\raknet\ds_map.h
;	COMDAT ??0MapNode@?$Map@UPlayerIdAndGroupId@ConnectionGraph@@G$1??$defaultMapKeyComparison@UPlayerIdAndGroupId@ConnectionGraph@@@DataStructures@@YAHABU12@0@Z@DataStructures@@QAE@XZ
_TEXT	SEGMENT
_this$ = -8						; size = 4
??0MapNode@?$Map@UPlayerIdAndGroupId@ConnectionGraph@@G$1??$defaultMapKeyComparison@UPlayerIdAndGroupId@ConnectionGraph@@@DataStructures@@YAHABU12@0@Z@DataStructures@@QAE@XZ PROC ; DataStructures::Map<ConnectionGraph::PlayerIdAndGroupId,unsigned short,&DataStructures::defaultMapKeyComparison<ConnectionGraph::PlayerIdAndGroupId> >::MapNode::MapNode, COMDAT
; _this$ = ecx

; 48   : 			MapNode() {}

	push	ebp
	mov	ebp, esp
	sub	esp, 204				; 000000ccH
	push	ebx
	push	esi
	push	edi
	push	ecx
	lea	edi, DWORD PTR [ebp-204]
	mov	ecx, 51					; 00000033H
	mov	eax, -858993460				; ccccccccH
	rep stosd
	pop	ecx
	mov	DWORD PTR _this$[ebp], ecx
	mov	ecx, DWORD PTR _this$[ebp]
	call	??0PlayerIdAndGroupId@ConnectionGraph@@QAE@XZ ; ConnectionGraph::PlayerIdAndGroupId::PlayerIdAndGroupId
	mov	eax, DWORD PTR _this$[ebp]
	pop	edi
	pop	esi
	pop	ebx
	add	esp, 204				; 000000ccH
	cmp	ebp, esp
	call	__RTC_CheckEsp
	mov	esp, ebp
	pop	ebp
	ret	0
??0MapNode@?$Map@UPlayerIdAndGroupId@ConnectionGraph@@G$1??$defaultMapKeyComparison@UPlayerIdAndGroupId@ConnectionGraph@@@DataStructures@@YAHABU12@0@Z@DataStructures@@QAE@XZ ENDP ; DataStructures::Map<ConnectionGraph::PlayerIdAndGroupId,unsigned short,&DataStructures::defaultMapKeyComparison<ConnectionGraph::PlayerIdAndGroupId> >::MapNode::MapNode
_TEXT	ENDS
; Function compile flags: /Odtp /RTCsu /ZI
;	COMDAT ??_EMapNode@?$Map@UPlayerIdAndGroupId@ConnectionGraph@@PAV?$Map@UPlayerIdAndGroupId@ConnectionGraph@@G$1??$defaultMapKeyComparison@UPlayerIdAndGroupId@ConnectionGraph@@@DataStructures@@YAHABU12@0@Z@DataStructures@@$1??$defaultMapKeyComparison@UPlayerIdAndGroupId@ConnectionGraph@@@4@YAHABU12@0@Z@DataStructures@@QAEPAXI@Z
_TEXT	SEGMENT
_this$ = -8						; size = 4
___flags$ = 8						; size = 4
??_EMapNode@?$Map@UPlayerIdAndGroupId@ConnectionGraph@@PAV?$Map@UPlayerIdAndGroupId@ConnectionGraph@@G$1??$defaultMapKeyComparison@UPlayerIdAndGroupId@ConnectionGraph@@@DataStructures@@YAHABU12@0@Z@DataStructures@@$1??$defaultMapKeyComparison@UPlayerIdAndGroupId@ConnectionGraph@@@4@YAHABU12@0@Z@DataStructures@@QAEPAXI@Z PROC ; DataStructures::Map<ConnectionGraph::PlayerIdAndGroupId,DataStructures::Map<ConnectionGraph::PlayerIdAndGroupId,unsigned short,&DataStructures::defaultMapKeyComparison<ConnectionGraph::PlayerIdAndGroupId> > *,&DataStructures::defaultMapKeyComparison<ConnectionGraph::PlayerIdAndGroupId> >::MapNode::`vector deleting destructor', COMDAT
; _this$ = ecx
	push	ebp
	mov	ebp, esp
	sub	esp, 204				; 000000ccH
	push	ebx
	push	esi
	push	edi
	push	ecx
	lea	edi, DWORD PTR [ebp-204]
	mov	ecx, 51					; 00000033H
	mov	eax, -858993460				; ccccccccH
	rep stosd
	pop	ecx
	mov	DWORD PTR _this$[ebp], ecx
	mov	eax, DWORD PTR ___flags$[ebp]
	and	eax, 2
	je	SHORT $LN3@vector
	push	OFFSET ??1MapNode@?$Map@UPlayerIdAndGroupId@ConnectionGraph@@PAV?$Map@UPlayerIdAndGroupId@ConnectionGraph@@G$1??$defaultMapKeyComparison@UPlayerIdAndGroupId@ConnectionGraph@@@DataStructures@@YAHABU12@0@Z@DataStructures@@$1??$defaultMapKeyComparison@UPlayerIdAndGroupId@ConnectionGraph@@@4@YAHABU12@0@Z@DataStructures@@QAE@XZ
	mov	eax, DWORD PTR _this$[ebp]
	mov	ecx, DWORD PTR [eax-4]
	push	ecx
	push	11					; 0000000bH
	mov	edx, DWORD PTR _this$[ebp]
	push	edx
	call	??_M@YGXPAXIHP6EX0@Z@Z
	mov	eax, DWORD PTR ___flags$[ebp]
	and	eax, 1
	je	SHORT $LN2@vector
	mov	eax, DWORD PTR _this$[ebp]
	sub	eax, 4
	push	eax
	call	??3@YAXPAX@Z				; operator delete
	add	esp, 4
$LN2@vector:
	mov	eax, DWORD PTR _this$[ebp]
	sub	eax, 4
	jmp	SHORT $LN4@vector
$LN3@vector:
	mov	ecx, DWORD PTR _this$[ebp]
	call	??1MapNode@?$Map@UPlayerIdAndGroupId@ConnectionGraph@@PAV?$Map@UPlayerIdAndGroupId@ConnectionGraph@@G$1??$defaultMapKeyComparison@UPlayerIdAndGroupId@ConnectionGraph@@@DataStructures@@YAHABU12@0@Z@DataStructures@@$1??$defaultMapKeyComparison@UPlayerIdAndGroupId@ConnectionGraph@@@4@YAHABU12@0@Z@DataStructures@@QAE@XZ
	mov	eax, DWORD PTR ___flags$[ebp]
	and	eax, 1
	je	SHORT $LN1@vector
	mov	eax, DWORD PTR _this$[ebp]
	push	eax
	call	??3@YAXPAX@Z				; operator delete
	add	esp, 4
$LN1@vector:
	mov	eax, DWORD PTR _this$[ebp]
$LN4@vector:
	pop	edi
	pop	esi
	pop	ebx
	add	esp, 204				; 000000ccH
	cmp	ebp, esp
	call	__RTC_CheckEsp
	mov	esp, ebp
	pop	ebp
	ret	4
??_EMapNode@?$Map@UPlayerIdAndGroupId@ConnectionGraph@@PAV?$Map@UPlayerIdAndGroupId@ConnectionGraph@@G$1??$defaultMapKeyComparison@UPlayerIdAndGroupId@ConnectionGraph@@@DataStructures@@YAHABU12@0@Z@DataStructures@@$1??$defaultMapKeyComparison@UPlayerIdAndGroupId@ConnectionGraph@@@4@YAHABU12@0@Z@DataStructures@@QAEPAXI@Z ENDP ; DataStructures::Map<ConnectionGraph::PlayerIdAndGroupId,DataStructures::Map<ConnectionGraph::PlayerIdAndGroupId,unsigned short,&DataStructures::defaultMapKeyComparison<ConnectionGraph::PlayerIdAndGroupId> > *,&DataStructures::defaultMapKeyComparison<ConnectionGraph::PlayerIdAndGroupId> >::MapNode::`vector deleting destructor'
_TEXT	ENDS
; Function compile flags: /Odtp /RTCsu /ZI
;	COMDAT ??4MapNode@?$Map@UPlayerIdAndGroupId@ConnectionGraph@@PAV?$Map@UPlayerIdAndGroupId@ConnectionGraph@@G$1??$defaultMapKeyComparison@UPlayerIdAndGroupId@ConnectionGraph@@@DataStructures@@YAHABU12@0@Z@DataStructures@@$1??$defaultMapKeyComparison@UPlayerIdAndGroupId@ConnectionGraph@@@4@YAHABU12@0@Z@DataStructures@@QAEAAU012@ABU012@@Z
_TEXT	SEGMENT
_this$ = -8						; size = 4
___that$ = 8						; size = 4
??4MapNode@?$Map@UPlayerIdAndGroupId@ConnectionGraph@@PAV?$Map@UPlayerIdAndGroupId@ConnectionGraph@@G$1??$defaultMapKeyComparison@UPlayerIdAndGroupId@ConnectionGraph@@@DataStructures@@YAHABU12@0@Z@DataStructures@@$1??$defaultMapKeyComparison@UPlayerIdAndGroupId@ConnectionGraph@@@4@YAHABU12@0@Z@DataStructures@@QAEAAU012@ABU012@@Z PROC ; DataStructures::Map<ConnectionGraph::PlayerIdAndGroupId,DataStructures::Map<ConnectionGraph::PlayerIdAndGroupId,unsigned short,&DataStructures::defaultMapKeyComparison<ConnectionGraph::PlayerIdAndGroupId> > *,&DataStructures::defaultMapKeyComparison<ConnectionGraph::PlayerIdAndGroupId> >::MapNode::operator=, COMDAT
; _this$ = ecx
	push	ebp
	mov	ebp, esp
	sub	esp, 204				; 000000ccH
	push	ebx
	push	esi
	push	edi
	push	ecx
	lea	edi, DWORD PTR [ebp-204]
	mov	ecx, 51					; 00000033H
	mov	eax, -858993460				; ccccccccH
	rep stosd
	pop	ecx
	mov	DWORD PTR _this$[ebp], ecx
	mov	eax, DWORD PTR ___that$[ebp]
	push	eax
	mov	ecx, DWORD PTR _this$[ebp]
	call	??4PlayerIdAndGroupId@ConnectionGraph@@QAEAAU01@ABU01@@Z
	mov	eax, DWORD PTR _this$[ebp]
	mov	ecx, DWORD PTR ___that$[ebp]
	mov	edx, DWORD PTR [ecx+7]
	mov	DWORD PTR [eax+7], edx
	mov	eax, DWORD PTR _this$[ebp]
	pop	edi
	pop	esi
	pop	ebx
	add	esp, 204				; 000000ccH
	cmp	ebp, esp
	call	__RTC_CheckEsp
	mov	esp, ebp
	pop	ebp
	ret	4
??4MapNode@?$Map@UPlayerIdAndGroupId@ConnectionGraph@@PAV?$Map@UPlayerIdAndGroupId@ConnectionGraph@@G$1??$defaultMapKeyComparison@UPlayerIdAndGroupId@ConnectionGraph@@@DataStructures@@YAHABU12@0@Z@DataStructures@@$1??$defaultMapKeyComparison@UPlayerIdAndGroupId@ConnectionGraph@@@4@YAHABU12@0@Z@DataStructures@@QAEAAU012@ABU012@@Z ENDP ; DataStructures::Map<ConnectionGraph::PlayerIdAndGroupId,DataStructures::Map<ConnectionGraph::PlayerIdAndGroupId,unsigned short,&DataStructures::defaultMapKeyComparison<ConnectionGraph::PlayerIdAndGroupId> > *,&DataStructures::defaultMapKeyComparison<ConnectionGraph::PlayerIdAndGroupId> >::MapNode::operator=
_TEXT	ENDS
; Function compile flags: /Odtp /RTCsu /ZI
;	COMDAT ??1MapNode@?$Map@UPlayerIdAndGroupId@ConnectionGraph@@PAV?$Map@UPlayerIdAndGroupId@ConnectionGraph@@G$1??$defaultMapKeyComparison@UPlayerIdAndGroupId@ConnectionGraph@@@DataStructures@@YAHABU12@0@Z@DataStructures@@$1??$defaultMapKeyComparison@UPlayerIdAndGroupId@ConnectionGraph@@@4@YAHABU12@0@Z@DataStructures@@QAE@XZ
_TEXT	SEGMENT
_this$ = -8						; size = 4
??1MapNode@?$Map@UPlayerIdAndGroupId@ConnectionGraph@@PAV?$Map@UPlayerIdAndGroupId@ConnectionGraph@@G$1??$defaultMapKeyComparison@UPlayerIdAndGroupId@ConnectionGraph@@@DataStructures@@YAHABU12@0@Z@DataStructures@@$1??$defaultMapKeyComparison@UPlayerIdAndGroupId@ConnectionGraph@@@4@YAHABU12@0@Z@DataStructures@@QAE@XZ PROC ; DataStructures::Map<ConnectionGraph::PlayerIdAndGroupId,DataStructures::Map<ConnectionGraph::PlayerIdAndGroupId,unsigned short,&DataStructures::defaultMapKeyComparison<ConnectionGraph::PlayerIdAndGroupId> > *,&DataStructures::defaultMapKeyComparison<ConnectionGraph::PlayerIdAndGroupId> >::MapNode::~MapNode, COMDAT
; _this$ = ecx
	push	ebp
	mov	ebp, esp
	sub	esp, 204				; 000000ccH
	push	ebx
	push	esi
	push	edi
	push	ecx
	lea	edi, DWORD PTR [ebp-204]
	mov	ecx, 51					; 00000033H
	mov	eax, -858993460				; ccccccccH
	rep stosd
	pop	ecx
	mov	DWORD PTR _this$[ebp], ecx
	mov	ecx, DWORD PTR _this$[ebp]
	call	??1PlayerIdAndGroupId@ConnectionGraph@@QAE@XZ ; ConnectionGraph::PlayerIdAndGroupId::~PlayerIdAndGroupId
	pop	edi
	pop	esi
	pop	ebx
	add	esp, 204				; 000000ccH
	cmp	ebp, esp
	call	__RTC_CheckEsp
	mov	esp, ebp
	pop	ebp
	ret	0
??1MapNode@?$Map@UPlayerIdAndGroupId@ConnectionGraph@@PAV?$Map@UPlayerIdAndGroupId@ConnectionGraph@@G$1??$defaultMapKeyComparison@UPlayerIdAndGroupId@ConnectionGraph@@@DataStructures@@YAHABU12@0@Z@DataStructures@@$1??$defaultMapKeyComparison@UPlayerIdAndGroupId@ConnectionGraph@@@4@YAHABU12@0@Z@DataStructures@@QAE@XZ ENDP ; DataStructures::Map<ConnectionGraph::PlayerIdAndGroupId,DataStructures::Map<ConnectionGraph::PlayerIdAndGroupId,unsigned short,&DataStructures::defaultMapKeyComparison<ConnectionGraph::PlayerIdAndGroupId> > *,&DataStructures::defaultMapKeyComparison<ConnectionGraph::PlayerIdAndGroupId> >::MapNode::~MapNode
_TEXT	ENDS
; Function compile flags: /Odtp /RTCsu /ZI
; File z:\sampsrc\02xu1\raknet\ds_map.h
;	COMDAT ??0MapNode@?$Map@UPlayerIdAndGroupId@ConnectionGraph@@PAV?$Map@UPlayerIdAndGroupId@ConnectionGraph@@G$1??$defaultMapKeyComparison@UPlayerIdAndGroupId@ConnectionGraph@@@DataStructures@@YAHABU12@0@Z@DataStructures@@$1??$defaultMapKeyComparison@UPlayerIdAndGroupId@ConnectionGraph@@@4@YAHABU12@0@Z@DataStructures@@QAE@UPlayerIdAndGroupId@ConnectionGraph@@PAV?$Map@UPlayerIdAndGroupId@ConnectionGraph@@G$1??$defaultMapKeyComparison@UPlayerIdAndGroupId@ConnectionGraph@@@DataStructures@@YAHABU12@0@Z@2@@Z
_TEXT	SEGMENT
_this$ = -8						; size = 4
__key$ = 8						; size = 7
__data$ = 16						; size = 4
??0MapNode@?$Map@UPlayerIdAndGroupId@ConnectionGraph@@PAV?$Map@UPlayerIdAndGroupId@ConnectionGraph@@G$1??$defaultMapKeyComparison@UPlayerIdAndGroupId@ConnectionGraph@@@DataStructures@@YAHABU12@0@Z@DataStructures@@$1??$defaultMapKeyComparison@UPlayerIdAndGroupId@ConnectionGraph@@@4@YAHABU12@0@Z@DataStructures@@QAE@UPlayerIdAndGroupId@ConnectionGraph@@PAV?$Map@UPlayerIdAndGroupId@ConnectionGraph@@G$1??$defaultMapKeyComparison@UPlayerIdAndGroupId@ConnectionGraph@@@DataStructures@@YAHABU12@0@Z@2@@Z PROC ; DataStructures::Map<ConnectionGraph::PlayerIdAndGroupId,DataStructures::Map<ConnectionGraph::PlayerIdAndGroupId,unsigned short,&DataStructures::defaultMapKeyComparison<ConnectionGraph::PlayerIdAndGroupId> > *,&DataStructures::defaultMapKeyComparison<ConnectionGraph::PlayerIdAndGroupId> >::MapNode::MapNode, COMDAT
; _this$ = ecx

; 49   : 			MapNode(key_type _key, data_type _data) : mapNodeKey(_key), mapNodeData(_data) {}

	push	ebp
	mov	ebp, esp
	sub	esp, 204				; 000000ccH
	push	ebx
	push	esi
	push	edi
	push	ecx
	lea	edi, DWORD PTR [ebp-204]
	mov	ecx, 51					; 00000033H
	mov	eax, -858993460				; ccccccccH
	rep stosd
	pop	ecx
	mov	DWORD PTR _this$[ebp], ecx
	mov	eax, DWORD PTR _this$[ebp]
	mov	ecx, DWORD PTR __key$[ebp]
	mov	DWORD PTR [eax], ecx
	mov	dx, WORD PTR __key$[ebp+4]
	mov	WORD PTR [eax+4], dx
	mov	cl, BYTE PTR __key$[ebp+6]
	mov	BYTE PTR [eax+6], cl
	mov	eax, DWORD PTR _this$[ebp]
	mov	ecx, DWORD PTR __data$[ebp]
	mov	DWORD PTR [eax+7], ecx
	lea	ecx, DWORD PTR __key$[ebp]
	call	??1PlayerIdAndGroupId@ConnectionGraph@@QAE@XZ ; ConnectionGraph::PlayerIdAndGroupId::~PlayerIdAndGroupId
	mov	eax, DWORD PTR _this$[ebp]
	pop	edi
	pop	esi
	pop	ebx
	add	esp, 204				; 000000ccH
	cmp	ebp, esp
	call	__RTC_CheckEsp
	mov	esp, ebp
	pop	ebp
	ret	12					; 0000000cH
??0MapNode@?$Map@UPlayerIdAndGroupId@ConnectionGraph@@PAV?$Map@UPlayerIdAndGroupId@ConnectionGraph@@G$1??$defaultMapKeyComparison@UPlayerIdAndGroupId@ConnectionGraph@@@DataStructures@@YAHABU12@0@Z@DataStructures@@$1??$defaultMapKeyComparison@UPlayerIdAndGroupId@ConnectionGraph@@@4@YAHABU12@0@Z@DataStructures@@QAE@UPlayerIdAndGroupId@ConnectionGraph@@PAV?$Map@UPlayerIdAndGroupId@ConnectionGraph@@G$1??$defaultMapKeyComparison@UPlayerIdAndGroupId@ConnectionGraph@@@DataStructures@@YAHABU12@0@Z@2@@Z ENDP ; DataStructures::Map<ConnectionGraph::PlayerIdAndGroupId,DataStructures::Map<ConnectionGraph::PlayerIdAndGroupId,unsigned short,&DataStructures::defaultMapKeyComparison<ConnectionGraph::PlayerIdAndGroupId> > *,&DataStructures::defaultMapKeyComparison<ConnectionGraph::PlayerIdAndGroupId> >::MapNode::MapNode
_TEXT	ENDS
; Function compile flags: /Odtp /RTCsu /ZI
; File z:\sampsrc\02xu1\raknet\ds_map.h
;	COMDAT ??0MapNode@?$Map@UPlayerIdAndGroupId@ConnectionGraph@@PAV?$Map@UPlayerIdAndGroupId@ConnectionGraph@@G$1??$defaultMapKeyComparison@UPlayerIdAndGroupId@ConnectionGraph@@@DataStructures@@YAHABU12@0@Z@DataStructures@@$1??$defaultMapKeyComparison@UPlayerIdAndGroupId@ConnectionGraph@@@4@YAHABU12@0@Z@DataStructures@@QAE@XZ
_TEXT	SEGMENT
_this$ = -8						; size = 4
??0MapNode@?$Map@UPlayerIdAndGroupId@ConnectionGraph@@PAV?$Map@UPlayerIdAndGroupId@ConnectionGraph@@G$1??$defaultMapKeyComparison@UPlayerIdAndGroupId@ConnectionGraph@@@DataStructures@@YAHABU12@0@Z@DataStructures@@$1??$defaultMapKeyComparison@UPlayerIdAndGroupId@ConnectionGraph@@@4@YAHABU12@0@Z@DataStructures@@QAE@XZ PROC ; DataStructures::Map<ConnectionGraph::PlayerIdAndGroupId,DataStructures::Map<ConnectionGraph::PlayerIdAndGroupId,unsigned short,&DataStructures::defaultMapKeyComparison<ConnectionGraph::PlayerIdAndGroupId> > *,&DataStructures::defaultMapKeyComparison<ConnectionGraph::PlayerIdAndGroupId> >::MapNode::MapNode, COMDAT
; _this$ = ecx

; 48   : 			MapNode() {}

	push	ebp
	mov	ebp, esp
	sub	esp, 204				; 000000ccH
	push	ebx
	push	esi
	push	edi
	push	ecx
	lea	edi, DWORD PTR [ebp-204]
	mov	ecx, 51					; 00000033H
	mov	eax, -858993460				; ccccccccH
	rep stosd
	pop	ecx
	mov	DWORD PTR _this$[ebp], ecx
	mov	ecx, DWORD PTR _this$[ebp]
	call	??0PlayerIdAndGroupId@ConnectionGraph@@QAE@XZ ; ConnectionGraph::PlayerIdAndGroupId::PlayerIdAndGroupId
	mov	eax, DWORD PTR _this$[ebp]
	pop	edi
	pop	esi
	pop	ebx
	add	esp, 204				; 000000ccH
	cmp	ebp, esp
	call	__RTC_CheckEsp
	mov	esp, ebp
	pop	ebp
	ret	0
??0MapNode@?$Map@UPlayerIdAndGroupId@ConnectionGraph@@PAV?$Map@UPlayerIdAndGroupId@ConnectionGraph@@G$1??$defaultMapKeyComparison@UPlayerIdAndGroupId@ConnectionGraph@@@DataStructures@@YAHABU12@0@Z@DataStructures@@$1??$defaultMapKeyComparison@UPlayerIdAndGroupId@ConnectionGraph@@@4@YAHABU12@0@Z@DataStructures@@QAE@XZ ENDP ; DataStructures::Map<ConnectionGraph::PlayerIdAndGroupId,DataStructures::Map<ConnectionGraph::PlayerIdAndGroupId,unsigned short,&DataStructures::defaultMapKeyComparison<ConnectionGraph::PlayerIdAndGroupId> > *,&DataStructures::defaultMapKeyComparison<ConnectionGraph::PlayerIdAndGroupId> >::MapNode::MapNode
_TEXT	ENDS
; Function compile flags: /Odtp /RTCsu /ZI
; File z:\sampsrc\02xu1\raknet\ds_queue.h
;	COMDAT ?Size@?$Queue@UPlayerIdAndGroupId@ConnectionGraph@@@DataStructures@@QBEIXZ
_TEXT	SEGMENT
_this$ = -8						; size = 4
?Size@?$Queue@UPlayerIdAndGroupId@ConnectionGraph@@@DataStructures@@QBEIXZ PROC ; DataStructures::Queue<ConnectionGraph::PlayerIdAndGroupId>::Size, COMDAT
; _this$ = ecx

; 62   : 	{

	push	ebp
	mov	ebp, esp
	sub	esp, 204				; 000000ccH
	push	ebx
	push	esi
	push	edi
	push	ecx
	lea	edi, DWORD PTR [ebp-204]
	mov	ecx, 51					; 00000033H
	mov	eax, -858993460				; ccccccccH
	rep stosd
	pop	ecx
	mov	DWORD PTR _this$[ebp], ecx

; 63   : 		if ( head <= tail )

	mov	eax, DWORD PTR _this$[ebp]
	mov	ecx, DWORD PTR _this$[ebp]
	mov	edx, DWORD PTR [eax+4]
	cmp	edx, DWORD PTR [ecx+8]
	ja	SHORT $LN2@Size

; 64   : 			return tail -head;

	mov	eax, DWORD PTR _this$[ebp]
	mov	ecx, DWORD PTR _this$[ebp]
	mov	eax, DWORD PTR [eax+8]
	sub	eax, DWORD PTR [ecx+4]
	jmp	SHORT $LN3@Size

; 65   : 		else

	jmp	SHORT $LN3@Size
$LN2@Size:

; 66   : 			return allocation_size -head + tail;

	mov	eax, DWORD PTR _this$[ebp]
	mov	ecx, DWORD PTR _this$[ebp]
	mov	eax, DWORD PTR [eax+12]
	sub	eax, DWORD PTR [ecx+4]
	mov	edx, DWORD PTR _this$[ebp]
	add	eax, DWORD PTR [edx+8]
$LN3@Size:

; 67   : 	}

	pop	edi
	pop	esi
	pop	ebx
	mov	esp, ebp
	pop	ebp
	ret	0
?Size@?$Queue@UPlayerIdAndGroupId@ConnectionGraph@@@DataStructures@@QBEIXZ ENDP ; DataStructures::Queue<ConnectionGraph::PlayerIdAndGroupId>::Size
_TEXT	ENDS
; Function compile flags: /Odtp /RTCsu /ZI
; File z:\sampsrc\02xu1\raknet\ds_queue.h
;	COMDAT ?Pop@?$Queue@UPlayerIdAndGroupId@ConnectionGraph@@@DataStructures@@QAE?AUPlayerIdAndGroupId@ConnectionGraph@@XZ
_TEXT	SEGMENT
tv145 = -264						; size = 4
tv139 = -264						; size = 4
tv78 = -264						; size = 4
$T2 = -255						; size = 7
$T3 = -239						; size = 7
$T4 = -224						; size = 4
_this$ = -20						; size = 4
__$EHRec$ = -12						; size = 12
___$ReturnUdt$ = 8					; size = 4
?Pop@?$Queue@UPlayerIdAndGroupId@ConnectionGraph@@@DataStructures@@QAE?AUPlayerIdAndGroupId@ConnectionGraph@@XZ PROC ; DataStructures::Queue<ConnectionGraph::PlayerIdAndGroupId>::Pop, COMDAT
; _this$ = ecx

; 99   : 	{

	push	ebp
	mov	ebp, esp
	push	-1
	push	__ehhandler$?Pop@?$Queue@UPlayerIdAndGroupId@ConnectionGraph@@@DataStructures@@QAE?AUPlayerIdAndGroupId@ConnectionGraph@@XZ
	mov	eax, DWORD PTR fs:0
	push	eax
	sub	esp, 252				; 000000fcH
	push	ebx
	push	esi
	push	edi
	push	ecx
	lea	edi, DWORD PTR [ebp-264]
	mov	ecx, 63					; 0000003fH
	mov	eax, -858993460				; ccccccccH
	rep stosd
	pop	ecx
	mov	eax, DWORD PTR ___security_cookie
	xor	eax, ebp
	push	eax
	lea	eax, DWORD PTR __$EHRec$[ebp]
	mov	DWORD PTR fs:0, eax
	mov	DWORD PTR _this$[ebp], ecx
	mov	DWORD PTR $T4[ebp], 0

; 100  : #ifdef _DEBUG
; 101  : 		assert( allocation_size > 0 && Size() >= 0 && head != tail);

	mov	eax, DWORD PTR _this$[ebp]
	cmp	DWORD PTR [eax+12], 0
	jbe	SHORT $LN5@Pop
	mov	ecx, DWORD PTR _this$[ebp]
	call	?Size@?$Queue@UPlayerIdAndGroupId@ConnectionGraph@@@DataStructures@@QBEIXZ ; DataStructures::Queue<ConnectionGraph::PlayerIdAndGroupId>::Size
	test	eax, eax
	jb	SHORT $LN5@Pop
	mov	ecx, DWORD PTR _this$[ebp]
	mov	edx, DWORD PTR _this$[ebp]
	mov	eax, DWORD PTR [ecx+4]
	cmp	eax, DWORD PTR [edx+8]
	jne	SHORT $LN6@Pop
$LN5@Pop:
	push	101					; 00000065H
	push	OFFSET ??_C@_1EG@DIEEECKO@?$AAz?$AA?3?$AA?2?$AAs?$AAa?$AAm?$AAp?$AAs?$AAr?$AAc?$AA?2?$AA0?$AA2?$AAx?$AAu?$AA1?$AA?2?$AAr?$AAa?$AAk?$AAn?$AAe?$AAt?$AA?2?$AAd?$AAs?$AA_?$AAq?$AAu?$AAe?$AAu?$AAe@
	push	OFFSET ??_C@_1GG@JDEIIJCO@?$AAa?$AAl?$AAl?$AAo?$AAc?$AAa?$AAt?$AAi?$AAo?$AAn?$AA_?$AAs?$AAi?$AAz?$AAe?$AA?5?$AA?$DO?$AA?5?$AA0?$AA?5?$AA?$CG?$AA?$CG?$AA?5?$AAS?$AAi?$AAz?$AAe?$AA?$CI?$AA?$CJ?$AA?5?$AA?$DO?$AA?$DN@
	call	__wassert
	add	esp, 12					; 0000000cH
$LN6@Pop:

; 102  : #endif
; 103  : 		//head=(head+1) % allocation_size;
; 104  : 
; 105  : 		if ( ++head == allocation_size )

	mov	eax, DWORD PTR _this$[ebp]
	mov	ecx, DWORD PTR [eax+4]
	add	ecx, 1
	mov	DWORD PTR tv78[ebp], ecx
	mov	edx, DWORD PTR _this$[ebp]
	mov	eax, DWORD PTR tv78[ebp]
	mov	DWORD PTR [edx+4], eax
	mov	ecx, DWORD PTR _this$[ebp]
	mov	edx, DWORD PTR tv78[ebp]
	cmp	edx, DWORD PTR [ecx+12]
	jne	SHORT $LN2@Pop

; 106  : 			head = 0;

	mov	eax, DWORD PTR _this$[ebp]
	mov	DWORD PTR [eax+4], 0
$LN2@Pop:

; 107  : 
; 108  : 		if ( head == 0 )

	mov	eax, DWORD PTR _this$[ebp]
	cmp	DWORD PTR [eax+4], 0
	jne	SHORT $LN1@Pop

; 109  : 			return ( queue_type ) array[ allocation_size -1 ];

	mov	eax, DWORD PTR _this$[ebp]
	mov	ecx, DWORD PTR [eax+12]
	sub	ecx, 1
	imul	edx, ecx, 7
	mov	eax, DWORD PTR _this$[ebp]
	mov	ecx, DWORD PTR [eax]
	add	ecx, edx
	mov	edx, DWORD PTR [ecx]
	mov	DWORD PTR $T2[ebp], edx
	mov	ax, WORD PTR [ecx+4]
	mov	WORD PTR $T2[ebp+4], ax
	mov	cl, BYTE PTR [ecx+6]
	mov	BYTE PTR $T2[ebp+6], cl
	lea	edx, DWORD PTR $T2[ebp]
	mov	DWORD PTR tv139[ebp], edx
	mov	eax, DWORD PTR tv139[ebp]
	mov	ecx, DWORD PTR ___$ReturnUdt$[ebp]
	mov	edx, DWORD PTR [eax]
	mov	DWORD PTR [ecx], edx
	mov	dx, WORD PTR [eax+4]
	mov	WORD PTR [ecx+4], dx
	mov	al, BYTE PTR [eax+6]
	mov	BYTE PTR [ecx+6], al
	mov	DWORD PTR __$EHRec$[ebp+8], 0
	mov	ecx, DWORD PTR $T4[ebp]
	or	ecx, 1
	mov	DWORD PTR $T4[ebp], ecx
	lea	ecx, DWORD PTR $T2[ebp]
	call	??1PlayerIdAndGroupId@ConnectionGraph@@QAE@XZ ; ConnectionGraph::PlayerIdAndGroupId::~PlayerIdAndGroupId
	mov	eax, DWORD PTR ___$ReturnUdt$[ebp]
	jmp	SHORT $LN3@Pop
$LN1@Pop:

; 110  : 
; 111  : 		return ( queue_type ) array[ head -1 ];

	mov	eax, DWORD PTR _this$[ebp]
	mov	ecx, DWORD PTR [eax+4]
	sub	ecx, 1
	imul	edx, ecx, 7
	mov	eax, DWORD PTR _this$[ebp]
	mov	ecx, DWORD PTR [eax]
	add	ecx, edx
	mov	edx, DWORD PTR [ecx]
	mov	DWORD PTR $T3[ebp], edx
	mov	ax, WORD PTR [ecx+4]
	mov	WORD PTR $T3[ebp+4], ax
	mov	cl, BYTE PTR [ecx+6]
	mov	BYTE PTR $T3[ebp+6], cl
	lea	edx, DWORD PTR $T3[ebp]
	mov	DWORD PTR tv145[ebp], edx
	mov	eax, DWORD PTR tv145[ebp]
	mov	ecx, DWORD PTR ___$ReturnUdt$[ebp]
	mov	edx, DWORD PTR [eax]
	mov	DWORD PTR [ecx], edx
	mov	dx, WORD PTR [eax+4]
	mov	WORD PTR [ecx+4], dx
	mov	al, BYTE PTR [eax+6]
	mov	BYTE PTR [ecx+6], al
	mov	DWORD PTR __$EHRec$[ebp+8], 0
	mov	ecx, DWORD PTR $T4[ebp]
	or	ecx, 1
	mov	DWORD PTR $T4[ebp], ecx
	lea	ecx, DWORD PTR $T3[ebp]
	call	??1PlayerIdAndGroupId@ConnectionGraph@@QAE@XZ ; ConnectionGraph::PlayerIdAndGroupId::~PlayerIdAndGroupId
	mov	eax, DWORD PTR ___$ReturnUdt$[ebp]
$LN3@Pop:

; 112  : 	}

	mov	ecx, DWORD PTR __$EHRec$[ebp]
	mov	DWORD PTR fs:0, ecx
	pop	ecx
	pop	edi
	pop	esi
	pop	ebx
	add	esp, 264				; 00000108H
	cmp	ebp, esp
	call	__RTC_CheckEsp
	mov	esp, ebp
	pop	ebp
	ret	4
_TEXT	ENDS
;	COMDAT text$x
text$x	SEGMENT
__unwindfunclet$?Pop@?$Queue@UPlayerIdAndGroupId@ConnectionGraph@@@DataStructures@@QAE?AUPlayerIdAndGroupId@ConnectionGraph@@XZ$1:
	mov	eax, DWORD PTR $T4[ebp]
	and	eax, 1
	je	$LN9@Pop
	and	DWORD PTR $T4[ebp], -2			; fffffffeH
	mov	ecx, DWORD PTR ___$ReturnUdt$[ebp]
	jmp	??1PlayerIdAndGroupId@ConnectionGraph@@QAE@XZ ; ConnectionGraph::PlayerIdAndGroupId::~PlayerIdAndGroupId
$LN9@Pop:
	ret	0
__ehhandler$?Pop@?$Queue@UPlayerIdAndGroupId@ConnectionGraph@@@DataStructures@@QAE?AUPlayerIdAndGroupId@ConnectionGraph@@XZ:
	mov	edx, DWORD PTR [esp+8]
	lea	eax, DWORD PTR [edx+12]
	mov	ecx, DWORD PTR [edx-268]
	xor	ecx, eax
	call	@__security_check_cookie@4
	mov	eax, OFFSET __ehfuncinfo$?Pop@?$Queue@UPlayerIdAndGroupId@ConnectionGraph@@@DataStructures@@QAE?AUPlayerIdAndGroupId@ConnectionGraph@@XZ
	jmp	___CxxFrameHandler3
text$x	ENDS
?Pop@?$Queue@UPlayerIdAndGroupId@ConnectionGraph@@@DataStructures@@QAE?AUPlayerIdAndGroupId@ConnectionGraph@@XZ ENDP ; DataStructures::Queue<ConnectionGraph::PlayerIdAndGroupId>::Pop
; Function compile flags: /Odtp /RTCsu /ZI
; File z:\sampsrc\02xu1\raknet\ds_queue.h
;	COMDAT ?Push@?$Queue@UPlayerIdAndGroupId@ConnectionGraph@@@DataStructures@@QAEXABUPlayerIdAndGroupId@ConnectionGraph@@@Z
_TEXT	SEGMENT
tv195 = -328						; size = 4
tv163 = -328						; size = 4
tv129 = -328						; size = 4
tv79 = -328						; size = 4
$T2 = -320						; size = 4
$T3 = -308						; size = 4
$T4 = -296						; size = 4
$T5 = -284						; size = 4
$T6 = -272						; size = 4
$T7 = -260						; size = 4
$T8 = -248						; size = 4
_counter$9 = -44					; size = 4
_new_array$10 = -32					; size = 4
_this$ = -20						; size = 4
__$EHRec$ = -12						; size = 12
_input$ = 8						; size = 4
?Push@?$Queue@UPlayerIdAndGroupId@ConnectionGraph@@@DataStructures@@QAEXABUPlayerIdAndGroupId@ConnectionGraph@@@Z PROC ; DataStructures::Queue<ConnectionGraph::PlayerIdAndGroupId>::Push, COMDAT
; _this$ = ecx

; 182  : 	{

	push	ebp
	mov	ebp, esp
	push	-1
	push	__ehhandler$?Push@?$Queue@UPlayerIdAndGroupId@ConnectionGraph@@@DataStructures@@QAEXABUPlayerIdAndGroupId@ConnectionGraph@@@Z
	mov	eax, DWORD PTR fs:0
	push	eax
	sub	esp, 316				; 0000013cH
	push	ebx
	push	esi
	push	edi
	push	ecx
	lea	edi, DWORD PTR [ebp-328]
	mov	ecx, 79					; 0000004fH
	mov	eax, -858993460				; ccccccccH
	rep stosd
	pop	ecx
	mov	eax, DWORD PTR ___security_cookie
	xor	eax, ebp
	push	eax
	lea	eax, DWORD PTR __$EHRec$[ebp]
	mov	DWORD PTR fs:0, eax
	mov	DWORD PTR _this$[ebp], ecx

; 183  : 		if ( allocation_size == 0 )

	mov	eax, DWORD PTR _this$[ebp]
	cmp	DWORD PTR [eax+12], 0
	jne	$LN6@Push

; 184  : 		{
; 185  : 			array = new queue_type[ 16 ];

	push	116					; 00000074H
	call	??2@YAPAXI@Z				; operator new
	add	esp, 4
	mov	DWORD PTR $T3[ebp], eax
	mov	DWORD PTR __$EHRec$[ebp+8], 0
	cmp	DWORD PTR $T3[ebp], 0
	je	SHORT $LN9@Push
	mov	eax, DWORD PTR $T3[ebp]
	mov	DWORD PTR [eax], 16			; 00000010H
	push	OFFSET ??1PlayerIdAndGroupId@ConnectionGraph@@QAE@XZ ; ConnectionGraph::PlayerIdAndGroupId::~PlayerIdAndGroupId
	push	OFFSET ??0PlayerIdAndGroupId@ConnectionGraph@@QAE@XZ ; ConnectionGraph::PlayerIdAndGroupId::PlayerIdAndGroupId
	push	16					; 00000010H
	push	7
	mov	ecx, DWORD PTR $T3[ebp]
	add	ecx, 4
	push	ecx
	call	??_L@YGXPAXIHP6EX0@Z1@Z
	mov	edx, DWORD PTR $T3[ebp]
	add	edx, 4
	mov	DWORD PTR tv79[ebp], edx
	jmp	SHORT $LN10@Push
$LN9@Push:
	mov	DWORD PTR tv79[ebp], 0
$LN10@Push:
	mov	eax, DWORD PTR tv79[ebp]
	mov	DWORD PTR $T2[ebp], eax
	mov	DWORD PTR __$EHRec$[ebp+8], -1
	mov	ecx, DWORD PTR _this$[ebp]
	mov	edx, DWORD PTR $T2[ebp]
	mov	DWORD PTR [ecx], edx

; 186  : 			head = 0;

	mov	eax, DWORD PTR _this$[ebp]
	mov	DWORD PTR [eax+4], 0

; 187  : 			tail = 1;

	mov	eax, DWORD PTR _this$[ebp]
	mov	DWORD PTR [eax+8], 1

; 188  : 			array[ 0 ] = input;

	mov	eax, DWORD PTR _input$[ebp]
	push	eax
	mov	ecx, 7
	imul	ecx, ecx, 0
	mov	edx, DWORD PTR _this$[ebp]
	add	ecx, DWORD PTR [edx]
	call	??4PlayerIdAndGroupId@ConnectionGraph@@QAEAAU01@ABU01@@Z

; 189  : 			allocation_size = 16;

	mov	eax, DWORD PTR _this$[ebp]
	mov	DWORD PTR [eax+12], 16			; 00000010H

; 190  : 			return ;

	jmp	$LN7@Push
$LN6@Push:

; 191  : 		}
; 192  : 
; 193  : 		array[ tail++ ] = input;

	mov	eax, DWORD PTR _this$[ebp]
	imul	ecx, DWORD PTR [eax+8], 7
	mov	edx, DWORD PTR _this$[ebp]
	add	ecx, DWORD PTR [edx]
	mov	DWORD PTR tv129[ebp], ecx
	mov	eax, DWORD PTR _this$[ebp]
	mov	ecx, DWORD PTR [eax+8]
	add	ecx, 1
	mov	edx, DWORD PTR _this$[ebp]
	mov	DWORD PTR [edx+8], ecx
	mov	eax, DWORD PTR _input$[ebp]
	push	eax
	mov	ecx, DWORD PTR tv129[ebp]
	call	??4PlayerIdAndGroupId@ConnectionGraph@@QAEAAU01@ABU01@@Z

; 194  : 
; 195  : 		if ( tail == allocation_size )

	mov	eax, DWORD PTR _this$[ebp]
	mov	ecx, DWORD PTR _this$[ebp]
	mov	edx, DWORD PTR [eax+8]
	cmp	edx, DWORD PTR [ecx+12]
	jne	SHORT $LN5@Push

; 196  : 			tail = 0;

	mov	eax, DWORD PTR _this$[ebp]
	mov	DWORD PTR [eax+8], 0
$LN5@Push:

; 197  : 
; 198  : 		if ( tail == head )

	mov	eax, DWORD PTR _this$[ebp]
	mov	ecx, DWORD PTR _this$[ebp]
	mov	edx, DWORD PTR [eax+8]
	cmp	edx, DWORD PTR [ecx+4]
	jne	$LN7@Push

; 199  : 		{
; 200  : 			//  unsigned int index=tail;
; 201  : 
; 202  : 			// Need to allocate more memory.
; 203  : 			queue_type * new_array;
; 204  : 			new_array = new queue_type[ allocation_size * 2 ];

	mov	eax, DWORD PTR _this$[ebp]
	mov	ecx, DWORD PTR [eax+12]
	shl	ecx, 1
	mov	DWORD PTR $T4[ebp], ecx
	xor	ecx, ecx
	mov	eax, DWORD PTR $T4[ebp]
	mov	edx, 7
	mul	edx
	seto	cl
	neg	ecx
	or	ecx, eax
	xor	eax, eax
	add	ecx, 4
	setb	al
	neg	eax
	or	eax, ecx
	push	eax
	call	??2@YAPAXI@Z				; operator new
	add	esp, 4
	mov	DWORD PTR $T6[ebp], eax
	mov	DWORD PTR __$EHRec$[ebp+8], 1
	cmp	DWORD PTR $T6[ebp], 0
	je	SHORT $LN11@Push
	mov	ecx, DWORD PTR $T6[ebp]
	mov	edx, DWORD PTR $T4[ebp]
	mov	DWORD PTR [ecx], edx
	push	OFFSET ??1PlayerIdAndGroupId@ConnectionGraph@@QAE@XZ ; ConnectionGraph::PlayerIdAndGroupId::~PlayerIdAndGroupId
	push	OFFSET ??0PlayerIdAndGroupId@ConnectionGraph@@QAE@XZ ; ConnectionGraph::PlayerIdAndGroupId::PlayerIdAndGroupId
	mov	eax, DWORD PTR $T4[ebp]
	push	eax
	push	7
	mov	ecx, DWORD PTR $T6[ebp]
	add	ecx, 4
	push	ecx
	call	??_L@YGXPAXIHP6EX0@Z1@Z
	mov	edx, DWORD PTR $T6[ebp]
	add	edx, 4
	mov	DWORD PTR tv163[ebp], edx
	jmp	SHORT $LN12@Push
$LN11@Push:
	mov	DWORD PTR tv163[ebp], 0
$LN12@Push:
	mov	eax, DWORD PTR tv163[ebp]
	mov	DWORD PTR $T5[ebp], eax
	mov	DWORD PTR __$EHRec$[ebp+8], -1
	mov	ecx, DWORD PTR $T5[ebp]
	mov	DWORD PTR _new_array$10[ebp], ecx

; 205  : #ifdef _DEBUG
; 206  : 
; 207  : 			assert( new_array );

	cmp	DWORD PTR _new_array$10[ebp], 0
	jne	SHORT $LN13@Push
	push	207					; 000000cfH
	push	OFFSET ??_C@_1EG@DIEEECKO@?$AAz?$AA?3?$AA?2?$AAs?$AAa?$AAm?$AAp?$AAs?$AAr?$AAc?$AA?2?$AA0?$AA2?$AAx?$AAu?$AA1?$AA?2?$AAr?$AAa?$AAk?$AAn?$AAe?$AAt?$AA?2?$AAd?$AAs?$AA_?$AAq?$AAu?$AAe?$AAu?$AAe@
	push	OFFSET ??_C@_1BE@OMEGJCHO@?$AAn?$AAe?$AAw?$AA_?$AAa?$AAr?$AAr?$AAa?$AAy?$AA?$AA@
	call	__wassert
	add	esp, 12					; 0000000cH
$LN13@Push:

; 208  : #endif
; 209  : 
; 210  : 			for ( unsigned int counter = 0; counter < allocation_size; ++counter )

	mov	DWORD PTR _counter$9[ebp], 0
	jmp	SHORT $LN3@Push
$LN2@Push:
	mov	eax, DWORD PTR _counter$9[ebp]
	add	eax, 1
	mov	DWORD PTR _counter$9[ebp], eax
$LN3@Push:
	mov	eax, DWORD PTR _this$[ebp]
	mov	ecx, DWORD PTR _counter$9[ebp]
	cmp	ecx, DWORD PTR [eax+12]
	jae	SHORT $LN1@Push

; 211  : 				new_array[ counter ] = array[ ( head + counter ) % ( allocation_size ) ];

	mov	eax, DWORD PTR _this$[ebp]
	mov	eax, DWORD PTR [eax+4]
	add	eax, DWORD PTR _counter$9[ebp]
	mov	ecx, DWORD PTR _this$[ebp]
	xor	edx, edx
	div	DWORD PTR [ecx+12]
	imul	edx, edx, 7
	mov	eax, DWORD PTR _this$[ebp]
	add	edx, DWORD PTR [eax]
	push	edx
	imul	ecx, DWORD PTR _counter$9[ebp], 7
	add	ecx, DWORD PTR _new_array$10[ebp]
	call	??4PlayerIdAndGroupId@ConnectionGraph@@QAEAAU01@ABU01@@Z
	jmp	SHORT $LN2@Push
$LN1@Push:

; 212  : 
; 213  : 			head = 0;

	mov	eax, DWORD PTR _this$[ebp]
	mov	DWORD PTR [eax+4], 0

; 214  : 
; 215  : 			tail = allocation_size;

	mov	eax, DWORD PTR _this$[ebp]
	mov	ecx, DWORD PTR _this$[ebp]
	mov	edx, DWORD PTR [ecx+12]
	mov	DWORD PTR [eax+8], edx

; 216  : 
; 217  : 			allocation_size *= 2;

	mov	eax, DWORD PTR _this$[ebp]
	mov	ecx, DWORD PTR [eax+12]
	shl	ecx, 1
	mov	edx, DWORD PTR _this$[ebp]
	mov	DWORD PTR [edx+12], ecx

; 218  : 
; 219  : 			// Delete the old array and move the pointer to the new array
; 220  : 			delete [] array;

	mov	eax, DWORD PTR _this$[ebp]
	mov	ecx, DWORD PTR [eax]
	mov	DWORD PTR $T8[ebp], ecx
	mov	edx, DWORD PTR $T8[ebp]
	mov	DWORD PTR $T7[ebp], edx
	cmp	DWORD PTR $T7[ebp], 0
	je	SHORT $LN14@Push
	push	3
	mov	ecx, DWORD PTR $T7[ebp]
	call	??_EPlayerIdAndGroupId@ConnectionGraph@@QAEPAXI@Z
	mov	DWORD PTR tv195[ebp], eax
	jmp	SHORT $LN15@Push
$LN14@Push:
	mov	DWORD PTR tv195[ebp], 0
$LN15@Push:

; 221  : 
; 222  : 			array = new_array;

	mov	eax, DWORD PTR _this$[ebp]
	mov	ecx, DWORD PTR _new_array$10[ebp]
	mov	DWORD PTR [eax], ecx
$LN7@Push:

; 223  : 		}
; 224  : 
; 225  : 	}

	mov	ecx, DWORD PTR __$EHRec$[ebp]
	mov	DWORD PTR fs:0, ecx
	pop	ecx
	pop	edi
	pop	esi
	pop	ebx
	add	esp, 328				; 00000148H
	cmp	ebp, esp
	call	__RTC_CheckEsp
	mov	esp, ebp
	pop	ebp
	ret	4
_TEXT	ENDS
;	COMDAT text$x
text$x	SEGMENT
__unwindfunclet$?Push@?$Queue@UPlayerIdAndGroupId@ConnectionGraph@@@DataStructures@@QAEXABUPlayerIdAndGroupId@ConnectionGraph@@@Z$0:
	mov	eax, DWORD PTR $T3[ebp]
	push	eax
	call	??3@YAXPAX@Z				; operator delete
	pop	ecx
	ret	0
__unwindfunclet$?Push@?$Queue@UPlayerIdAndGroupId@ConnectionGraph@@@DataStructures@@QAEXABUPlayerIdAndGroupId@ConnectionGraph@@@Z$1:
	mov	eax, DWORD PTR $T6[ebp]
	push	eax
	call	??3@YAXPAX@Z				; operator delete
	pop	ecx
	ret	0
__ehhandler$?Push@?$Queue@UPlayerIdAndGroupId@ConnectionGraph@@@DataStructures@@QAEXABUPlayerIdAndGroupId@ConnectionGraph@@@Z:
	mov	edx, DWORD PTR [esp+8]
	lea	eax, DWORD PTR [edx+12]
	mov	ecx, DWORD PTR [edx-332]
	xor	ecx, eax
	call	@__security_check_cookie@4
	mov	eax, OFFSET __ehfuncinfo$?Push@?$Queue@UPlayerIdAndGroupId@ConnectionGraph@@@DataStructures@@QAEXABUPlayerIdAndGroupId@ConnectionGraph@@@Z
	jmp	___CxxFrameHandler3
text$x	ENDS
?Push@?$Queue@UPlayerIdAndGroupId@ConnectionGraph@@@DataStructures@@QAEXABUPlayerIdAndGroupId@ConnectionGraph@@@Z ENDP ; DataStructures::Queue<ConnectionGraph::PlayerIdAndGroupId>::Push
; Function compile flags: /Odtp /RTCsu /ZI
; File z:\sampsrc\02xu1\raknet\ds_queue.h
;	COMDAT ??1?$Queue@UPlayerIdAndGroupId@ConnectionGraph@@@DataStructures@@QAE@XZ
_TEXT	SEGMENT
tv71 = -232						; size = 4
$T1 = -224						; size = 4
$T2 = -212						; size = 4
_this$ = -8						; size = 4
??1?$Queue@UPlayerIdAndGroupId@ConnectionGraph@@@DataStructures@@QAE@XZ PROC ; DataStructures::Queue<ConnectionGraph::PlayerIdAndGroupId>::~Queue<ConnectionGraph::PlayerIdAndGroupId>, COMDAT
; _this$ = ecx

; 92   : 	{

	push	ebp
	mov	ebp, esp
	sub	esp, 232				; 000000e8H
	push	ebx
	push	esi
	push	edi
	push	ecx
	lea	edi, DWORD PTR [ebp-232]
	mov	ecx, 58					; 0000003aH
	mov	eax, -858993460				; ccccccccH
	rep stosd
	pop	ecx
	mov	DWORD PTR _this$[ebp], ecx

; 93   : 		if (allocation_size>0)

	mov	eax, DWORD PTR _this$[ebp]
	cmp	DWORD PTR [eax+12], 0
	jbe	SHORT $LN2@Queue

; 94   : 			delete [] array;

	mov	eax, DWORD PTR _this$[ebp]
	mov	ecx, DWORD PTR [eax]
	mov	DWORD PTR $T2[ebp], ecx
	mov	edx, DWORD PTR $T2[ebp]
	mov	DWORD PTR $T1[ebp], edx
	cmp	DWORD PTR $T1[ebp], 0
	je	SHORT $LN4@Queue
	push	3
	mov	ecx, DWORD PTR $T1[ebp]
	call	??_EPlayerIdAndGroupId@ConnectionGraph@@QAEPAXI@Z
	mov	DWORD PTR tv71[ebp], eax
	jmp	SHORT $LN2@Queue
$LN4@Queue:
	mov	DWORD PTR tv71[ebp], 0
$LN2@Queue:

; 95   : 	}

	pop	edi
	pop	esi
	pop	ebx
	add	esp, 232				; 000000e8H
	cmp	ebp, esp
	call	__RTC_CheckEsp
	mov	esp, ebp
	pop	ebp
	ret	0
??1?$Queue@UPlayerIdAndGroupId@ConnectionGraph@@@DataStructures@@QAE@XZ ENDP ; DataStructures::Queue<ConnectionGraph::PlayerIdAndGroupId>::~Queue<ConnectionGraph::PlayerIdAndGroupId>
_TEXT	ENDS
; Function compile flags: /Odtp /RTCsu /ZI
; File z:\sampsrc\02xu1\raknet\ds_queue.h
;	COMDAT ??0?$Queue@UPlayerIdAndGroupId@ConnectionGraph@@@DataStructures@@QAE@XZ
_TEXT	SEGMENT
tv89 = -256						; size = 4
$T2 = -248						; size = 4
$T3 = -236						; size = 4
$T4 = -224						; size = 4
_this$ = -20						; size = 4
__$EHRec$ = -12						; size = 12
??0?$Queue@UPlayerIdAndGroupId@ConnectionGraph@@@DataStructures@@QAE@XZ PROC ; DataStructures::Queue<ConnectionGraph::PlayerIdAndGroupId>::Queue<ConnectionGraph::PlayerIdAndGroupId>, COMDAT
; _this$ = ecx

; 83   : 	{

	push	ebp
	mov	ebp, esp
	push	-1
	push	__ehhandler$??0?$Queue@UPlayerIdAndGroupId@ConnectionGraph@@@DataStructures@@QAE@XZ
	mov	eax, DWORD PTR fs:0
	push	eax
	sub	esp, 244				; 000000f4H
	push	ebx
	push	esi
	push	edi
	push	ecx
	lea	edi, DWORD PTR [ebp-256]
	mov	ecx, 61					; 0000003dH
	mov	eax, -858993460				; ccccccccH
	rep stosd
	pop	ecx
	mov	eax, DWORD PTR ___security_cookie
	xor	eax, ebp
	push	eax
	lea	eax, DWORD PTR __$EHRec$[ebp]
	mov	DWORD PTR fs:0, eax
	mov	DWORD PTR _this$[ebp], ecx

; 84   : 		allocation_size = 16;

	mov	eax, DWORD PTR _this$[ebp]
	mov	DWORD PTR [eax+12], 16			; 00000010H

; 85   : 		array = new queue_type[ allocation_size ];

	mov	eax, DWORD PTR _this$[ebp]
	mov	ecx, DWORD PTR [eax+12]
	mov	DWORD PTR $T2[ebp], ecx
	xor	ecx, ecx
	mov	eax, DWORD PTR $T2[ebp]
	mov	edx, 7
	mul	edx
	seto	cl
	neg	ecx
	or	ecx, eax
	xor	eax, eax
	add	ecx, 4
	setb	al
	neg	eax
	or	eax, ecx
	push	eax
	call	??2@YAPAXI@Z				; operator new
	add	esp, 4
	mov	DWORD PTR $T4[ebp], eax
	mov	DWORD PTR __$EHRec$[ebp+8], 0
	cmp	DWORD PTR $T4[ebp], 0
	je	SHORT $LN3@Queue
	mov	ecx, DWORD PTR $T4[ebp]
	mov	edx, DWORD PTR $T2[ebp]
	mov	DWORD PTR [ecx], edx
	push	OFFSET ??1PlayerIdAndGroupId@ConnectionGraph@@QAE@XZ ; ConnectionGraph::PlayerIdAndGroupId::~PlayerIdAndGroupId
	push	OFFSET ??0PlayerIdAndGroupId@ConnectionGraph@@QAE@XZ ; ConnectionGraph::PlayerIdAndGroupId::PlayerIdAndGroupId
	mov	eax, DWORD PTR $T2[ebp]
	push	eax
	push	7
	mov	ecx, DWORD PTR $T4[ebp]
	add	ecx, 4
	push	ecx
	call	??_L@YGXPAXIHP6EX0@Z1@Z
	mov	edx, DWORD PTR $T4[ebp]
	add	edx, 4
	mov	DWORD PTR tv89[ebp], edx
	jmp	SHORT $LN4@Queue
$LN3@Queue:
	mov	DWORD PTR tv89[ebp], 0
$LN4@Queue:
	mov	eax, DWORD PTR tv89[ebp]
	mov	DWORD PTR $T3[ebp], eax
	mov	DWORD PTR __$EHRec$[ebp+8], -1
	mov	ecx, DWORD PTR _this$[ebp]
	mov	edx, DWORD PTR $T3[ebp]
	mov	DWORD PTR [ecx], edx

; 86   : 		head = 0;

	mov	eax, DWORD PTR _this$[ebp]
	mov	DWORD PTR [eax+4], 0

; 87   : 		tail = 0;

	mov	eax, DWORD PTR _this$[ebp]
	mov	DWORD PTR [eax+8], 0

; 88   : 	}

	mov	eax, DWORD PTR _this$[ebp]
	mov	ecx, DWORD PTR __$EHRec$[ebp]
	mov	DWORD PTR fs:0, ecx
	pop	ecx
	pop	edi
	pop	esi
	pop	ebx
	add	esp, 256				; 00000100H
	cmp	ebp, esp
	call	__RTC_CheckEsp
	mov	esp, ebp
	pop	ebp
	ret	0
_TEXT	ENDS
;	COMDAT text$x
text$x	SEGMENT
__unwindfunclet$??0?$Queue@UPlayerIdAndGroupId@ConnectionGraph@@@DataStructures@@QAE@XZ$0:
	mov	eax, DWORD PTR $T4[ebp]
	push	eax
	call	??3@YAXPAX@Z				; operator delete
	pop	ecx
	ret	0
__ehhandler$??0?$Queue@UPlayerIdAndGroupId@ConnectionGraph@@@DataStructures@@QAE@XZ:
	mov	edx, DWORD PTR [esp+8]
	lea	eax, DWORD PTR [edx+12]
	mov	ecx, DWORD PTR [edx-260]
	xor	ecx, eax
	call	@__security_check_cookie@4
	mov	eax, OFFSET __ehfuncinfo$??0?$Queue@UPlayerIdAndGroupId@ConnectionGraph@@@DataStructures@@QAE@XZ
	jmp	___CxxFrameHandler3
text$x	ENDS
??0?$Queue@UPlayerIdAndGroupId@ConnectionGraph@@@DataStructures@@QAE@XZ ENDP ; DataStructures::Queue<ConnectionGraph::PlayerIdAndGroupId>::Queue<ConnectionGraph::PlayerIdAndGroupId>
; Function compile flags: /Odtp /RTCsu /ZI
;	COMDAT ??_G?$Map@UPlayerIdAndGroupId@ConnectionGraph@@G$1??$defaultMapKeyComparison@UPlayerIdAndGroupId@ConnectionGraph@@@DataStructures@@YAHABU12@0@Z@DataStructures@@QAEPAXI@Z
_TEXT	SEGMENT
_this$ = -8						; size = 4
___flags$ = 8						; size = 4
??_G?$Map@UPlayerIdAndGroupId@ConnectionGraph@@G$1??$defaultMapKeyComparison@UPlayerIdAndGroupId@ConnectionGraph@@@DataStructures@@YAHABU12@0@Z@DataStructures@@QAEPAXI@Z PROC ; DataStructures::Map<ConnectionGraph::PlayerIdAndGroupId,unsigned short,&DataStructures::defaultMapKeyComparison<ConnectionGraph::PlayerIdAndGroupId> >::`scalar deleting destructor', COMDAT
; _this$ = ecx
	push	ebp
	mov	ebp, esp
	sub	esp, 204				; 000000ccH
	push	ebx
	push	esi
	push	edi
	push	ecx
	lea	edi, DWORD PTR [ebp-204]
	mov	ecx, 51					; 00000033H
	mov	eax, -858993460				; ccccccccH
	rep stosd
	pop	ecx
	mov	DWORD PTR _this$[ebp], ecx
	mov	ecx, DWORD PTR _this$[ebp]
	call	??1?$Map@UPlayerIdAndGroupId@ConnectionGraph@@G$1??$defaultMapKeyComparison@UPlayerIdAndGroupId@ConnectionGraph@@@DataStructures@@YAHABU12@0@Z@DataStructures@@QAE@XZ ; DataStructures::Map<ConnectionGraph::PlayerIdAndGroupId,unsigned short,&DataStructures::defaultMapKeyComparison<ConnectionGraph::PlayerIdAndGroupId> >::~Map<ConnectionGraph::PlayerIdAndGroupId,unsigned short,&DataStructures::defaultMapKeyComparison<ConnectionGraph::PlayerIdAndGroupId> >
	mov	eax, DWORD PTR ___flags$[ebp]
	and	eax, 1
	je	SHORT $LN1@scalar
	mov	eax, DWORD PTR _this$[ebp]
	push	eax
	call	??3@YAXPAX@Z				; operator delete
	add	esp, 4
$LN1@scalar:
	mov	eax, DWORD PTR _this$[ebp]
	pop	edi
	pop	esi
	pop	ebx
	add	esp, 204				; 000000ccH
	cmp	ebp, esp
	call	__RTC_CheckEsp
	mov	esp, ebp
	pop	ebp
	ret	4
??_G?$Map@UPlayerIdAndGroupId@ConnectionGraph@@G$1??$defaultMapKeyComparison@UPlayerIdAndGroupId@ConnectionGraph@@@DataStructures@@YAHABU12@0@Z@DataStructures@@QAEPAXI@Z ENDP ; DataStructures::Map<ConnectionGraph::PlayerIdAndGroupId,unsigned short,&DataStructures::defaultMapKeyComparison<ConnectionGraph::PlayerIdAndGroupId> >::`scalar deleting destructor'
_TEXT	ENDS
; Function compile flags: /Odtp /RTCsu /ZI
; File z:\sampsrc\02xu1\raknet\ds_map.h
;	COMDAT ?HasSavedSearchResult@?$Map@UPlayerIdAndGroupId@ConnectionGraph@@G$1??$defaultMapKeyComparison@UPlayerIdAndGroupId@ConnectionGraph@@@DataStructures@@YAHABU12@0@Z@DataStructures@@IBE_NABUPlayerIdAndGroupId@ConnectionGraph@@@Z
_TEXT	SEGMENT
tv72 = -208						; size = 4
_this$ = -8						; size = 4
_key$ = 8						; size = 4
?HasSavedSearchResult@?$Map@UPlayerIdAndGroupId@ConnectionGraph@@G$1??$defaultMapKeyComparison@UPlayerIdAndGroupId@ConnectionGraph@@@DataStructures@@YAHABU12@0@Z@DataStructures@@IBE_NABUPlayerIdAndGroupId@ConnectionGraph@@@Z PROC ; DataStructures::Map<ConnectionGraph::PlayerIdAndGroupId,unsigned short,&DataStructures::defaultMapKeyComparison<ConnectionGraph::PlayerIdAndGroupId> >::HasSavedSearchResult, COMDAT
; _this$ = ecx

; 309  : 	{

	push	ebp
	mov	ebp, esp
	sub	esp, 208				; 000000d0H
	push	ebx
	push	esi
	push	edi
	push	ecx
	lea	edi, DWORD PTR [ebp-208]
	mov	ecx, 52					; 00000034H
	mov	eax, -858993460				; ccccccccH
	rep stosd
	pop	ecx
	mov	DWORD PTR _this$[ebp], ecx

; 310  : 		return lastSearchIndexValid && key_comparison_func(key,lastSearchKey)==0;

	mov	eax, DWORD PTR _this$[ebp]
	movzx	ecx, BYTE PTR [eax+23]
	test	ecx, ecx
	je	SHORT $LN3@HasSavedSe
	mov	edx, DWORD PTR _this$[ebp]
	add	edx, 16					; 00000010H
	push	edx
	mov	eax, DWORD PTR _key$[ebp]
	push	eax
	call	??$defaultMapKeyComparison@UPlayerIdAndGroupId@ConnectionGraph@@@DataStructures@@YAHABUPlayerIdAndGroupId@ConnectionGraph@@0@Z ; DataStructures::defaultMapKeyComparison<ConnectionGraph::PlayerIdAndGroupId>
	add	esp, 8
	test	eax, eax
	jne	SHORT $LN3@HasSavedSe
	mov	DWORD PTR tv72[ebp], 1
	jmp	SHORT $LN4@HasSavedSe
$LN3@HasSavedSe:
	mov	DWORD PTR tv72[ebp], 0
$LN4@HasSavedSe:
	mov	al, BYTE PTR tv72[ebp]

; 311  : 	}

	pop	edi
	pop	esi
	pop	ebx
	add	esp, 208				; 000000d0H
	cmp	ebp, esp
	call	__RTC_CheckEsp
	mov	esp, ebp
	pop	ebp
	ret	4
?HasSavedSearchResult@?$Map@UPlayerIdAndGroupId@ConnectionGraph@@G$1??$defaultMapKeyComparison@UPlayerIdAndGroupId@ConnectionGraph@@@DataStructures@@YAHABU12@0@Z@DataStructures@@IBE_NABUPlayerIdAndGroupId@ConnectionGraph@@@Z ENDP ; DataStructures::Map<ConnectionGraph::PlayerIdAndGroupId,unsigned short,&DataStructures::defaultMapKeyComparison<ConnectionGraph::PlayerIdAndGroupId> >::HasSavedSearchResult
_TEXT	ENDS
; Function compile flags: /Odtp /RTCsu /ZI
; File z:\sampsrc\02xu1\raknet\ds_map.h
;	COMDAT ?SaveLastSearch@?$Map@UPlayerIdAndGroupId@ConnectionGraph@@G$1??$defaultMapKeyComparison@UPlayerIdAndGroupId@ConnectionGraph@@@DataStructures@@YAHABU12@0@Z@DataStructures@@IAEXABUPlayerIdAndGroupId@ConnectionGraph@@I@Z
_TEXT	SEGMENT
_this$ = -8						; size = 4
_key$ = 8						; size = 4
_index$ = 12						; size = 4
?SaveLastSearch@?$Map@UPlayerIdAndGroupId@ConnectionGraph@@G$1??$defaultMapKeyComparison@UPlayerIdAndGroupId@ConnectionGraph@@@DataStructures@@YAHABU12@0@Z@DataStructures@@IAEXABUPlayerIdAndGroupId@ConnectionGraph@@I@Z PROC ; DataStructures::Map<ConnectionGraph::PlayerIdAndGroupId,unsigned short,&DataStructures::defaultMapKeyComparison<ConnectionGraph::PlayerIdAndGroupId> >::SaveLastSearch, COMDAT
; _this$ = ecx

; 301  : 	{

	push	ebp
	mov	ebp, esp
	sub	esp, 204				; 000000ccH
	push	ebx
	push	esi
	push	edi
	push	ecx
	lea	edi, DWORD PTR [ebp-204]
	mov	ecx, 51					; 00000033H
	mov	eax, -858993460				; ccccccccH
	rep stosd
	pop	ecx
	mov	DWORD PTR _this$[ebp], ecx

; 302  : 		lastSearchIndex=index;

	mov	eax, DWORD PTR _this$[ebp]
	mov	ecx, DWORD PTR _index$[ebp]
	mov	DWORD PTR [eax+12], ecx

; 303  : 		lastSearchKey=key;

	mov	eax, DWORD PTR _key$[ebp]
	push	eax
	mov	ecx, DWORD PTR _this$[ebp]
	add	ecx, 16					; 00000010H
	call	??4PlayerIdAndGroupId@ConnectionGraph@@QAEAAU01@ABU01@@Z

; 304  : 		lastSearchIndexValid=true;

	mov	eax, DWORD PTR _this$[ebp]
	mov	BYTE PTR [eax+23], 1

; 305  : 	}

	pop	edi
	pop	esi
	pop	ebx
	add	esp, 204				; 000000ccH
	cmp	ebp, esp
	call	__RTC_CheckEsp
	mov	esp, ebp
	pop	ebp
	ret	8
?SaveLastSearch@?$Map@UPlayerIdAndGroupId@ConnectionGraph@@G$1??$defaultMapKeyComparison@UPlayerIdAndGroupId@ConnectionGraph@@@DataStructures@@YAHABU12@0@Z@DataStructures@@IAEXABUPlayerIdAndGroupId@ConnectionGraph@@I@Z ENDP ; DataStructures::Map<ConnectionGraph::PlayerIdAndGroupId,unsigned short,&DataStructures::defaultMapKeyComparison<ConnectionGraph::PlayerIdAndGroupId> >::SaveLastSearch
_TEXT	ENDS
; Function compile flags: /Odtp /RTCsu /ZI
; File z:\sampsrc\02xu1\raknet\ds_list.h
;	COMDAT ?Clear@?$List@UMapNode@?$Map@UPlayerIdAndGroupId@ConnectionGraph@@G$1??$defaultMapKeyComparison@UPlayerIdAndGroupId@ConnectionGraph@@@DataStructures@@YAHABU12@0@Z@DataStructures@@@DataStructures@@QAEX_N@Z
_TEXT	SEGMENT
tv75 = -232						; size = 4
$T1 = -224						; size = 4
$T2 = -212						; size = 4
_this$ = -8						; size = 4
_doNotDeallocate$ = 8					; size = 1
?Clear@?$List@UMapNode@?$Map@UPlayerIdAndGroupId@ConnectionGraph@@G$1??$defaultMapKeyComparison@UPlayerIdAndGroupId@ConnectionGraph@@@DataStructures@@YAHABU12@0@Z@DataStructures@@@DataStructures@@QAEX_N@Z PROC ; DataStructures::List<DataStructures::Map<ConnectionGraph::PlayerIdAndGroupId,unsigned short,&DataStructures::defaultMapKeyComparison<ConnectionGraph::PlayerIdAndGroupId> >::MapNode>::Clear, COMDAT
; _this$ = ecx

; 379  : 	{

	push	ebp
	mov	ebp, esp
	sub	esp, 232				; 000000e8H
	push	ebx
	push	esi
	push	edi
	push	ecx
	lea	edi, DWORD PTR [ebp-232]
	mov	ecx, 58					; 0000003aH
	mov	eax, -858993460				; ccccccccH
	rep stosd
	pop	ecx
	mov	DWORD PTR _this$[ebp], ecx

; 380  : 		if ( allocation_size == 0 )

	mov	eax, DWORD PTR _this$[ebp]
	cmp	DWORD PTR [eax+8], 0
	jne	SHORT $LN2@Clear

; 381  : 			return;

	jmp	SHORT $LN3@Clear
$LN2@Clear:

; 382  : 
; 383  : 		if (allocation_size>512 && doNotDeallocate==false)

	mov	eax, DWORD PTR _this$[ebp]
	cmp	DWORD PTR [eax+8], 512			; 00000200H
	jbe	SHORT $LN1@Clear
	movzx	eax, BYTE PTR _doNotDeallocate$[ebp]
	test	eax, eax
	jne	SHORT $LN1@Clear

; 384  : 		{
; 385  : 			delete [] listArray;

	mov	eax, DWORD PTR _this$[ebp]
	mov	ecx, DWORD PTR [eax]
	mov	DWORD PTR $T2[ebp], ecx
	mov	edx, DWORD PTR $T2[ebp]
	mov	DWORD PTR $T1[ebp], edx
	cmp	DWORD PTR $T1[ebp], 0
	je	SHORT $LN5@Clear
	push	3
	mov	ecx, DWORD PTR $T1[ebp]
	call	??_EMapNode@?$Map@UPlayerIdAndGroupId@ConnectionGraph@@G$1??$defaultMapKeyComparison@UPlayerIdAndGroupId@ConnectionGraph@@@DataStructures@@YAHABU12@0@Z@DataStructures@@QAEPAXI@Z
	mov	DWORD PTR tv75[ebp], eax
	jmp	SHORT $LN6@Clear
$LN5@Clear:
	mov	DWORD PTR tv75[ebp], 0
$LN6@Clear:

; 386  : 			allocation_size = 0;

	mov	eax, DWORD PTR _this$[ebp]
	mov	DWORD PTR [eax+8], 0

; 387  : 			listArray = 0;

	mov	eax, DWORD PTR _this$[ebp]
	mov	DWORD PTR [eax], 0
$LN1@Clear:

; 388  : 		}
; 389  : 		list_size = 0;

	mov	eax, DWORD PTR _this$[ebp]
	mov	DWORD PTR [eax+4], 0
$LN3@Clear:

; 390  : 	}

	pop	edi
	pop	esi
	pop	ebx
	add	esp, 232				; 000000e8H
	cmp	ebp, esp
	call	__RTC_CheckEsp
	mov	esp, ebp
	pop	ebp
	ret	4
?Clear@?$List@UMapNode@?$Map@UPlayerIdAndGroupId@ConnectionGraph@@G$1??$defaultMapKeyComparison@UPlayerIdAndGroupId@ConnectionGraph@@@DataStructures@@YAHABU12@0@Z@DataStructures@@@DataStructures@@QAEX_N@Z ENDP ; DataStructures::List<DataStructures::Map<ConnectionGraph::PlayerIdAndGroupId,unsigned short,&DataStructures::defaultMapKeyComparison<ConnectionGraph::PlayerIdAndGroupId> >::MapNode>::Clear
_TEXT	ENDS
; Function compile flags: /Odtp /RTCsu /ZI
; File z:\sampsrc\02xu1\raknet\ds_list.h
;	COMDAT ?Size@?$List@UMapNode@?$Map@UPlayerIdAndGroupId@ConnectionGraph@@G$1??$defaultMapKeyComparison@UPlayerIdAndGroupId@ConnectionGraph@@@DataStructures@@YAHABU12@0@Z@DataStructures@@@DataStructures@@QBEIXZ
_TEXT	SEGMENT
_this$ = -8						; size = 4
?Size@?$List@UMapNode@?$Map@UPlayerIdAndGroupId@ConnectionGraph@@G$1??$defaultMapKeyComparison@UPlayerIdAndGroupId@ConnectionGraph@@@DataStructures@@YAHABU12@0@Z@DataStructures@@@DataStructures@@QBEIXZ PROC ; DataStructures::List<DataStructures::Map<ConnectionGraph::PlayerIdAndGroupId,unsigned short,&DataStructures::defaultMapKeyComparison<ConnectionGraph::PlayerIdAndGroupId> >::MapNode>::Size, COMDAT
; _this$ = ecx

; 373  : 	{

	push	ebp
	mov	ebp, esp
	sub	esp, 204				; 000000ccH
	push	ebx
	push	esi
	push	edi
	push	ecx
	lea	edi, DWORD PTR [ebp-204]
	mov	ecx, 51					; 00000033H
	mov	eax, -858993460				; ccccccccH
	rep stosd
	pop	ecx
	mov	DWORD PTR _this$[ebp], ecx

; 374  : 		return list_size;

	mov	eax, DWORD PTR _this$[ebp]
	mov	eax, DWORD PTR [eax+4]

; 375  : 	}

	pop	edi
	pop	esi
	pop	ebx
	mov	esp, ebp
	pop	ebp
	ret	0
?Size@?$List@UMapNode@?$Map@UPlayerIdAndGroupId@ConnectionGraph@@G$1??$defaultMapKeyComparison@UPlayerIdAndGroupId@ConnectionGraph@@@DataStructures@@YAHABU12@0@Z@DataStructures@@@DataStructures@@QBEIXZ ENDP ; DataStructures::List<DataStructures::Map<ConnectionGraph::PlayerIdAndGroupId,unsigned short,&DataStructures::defaultMapKeyComparison<ConnectionGraph::PlayerIdAndGroupId> >::MapNode>::Size
_TEXT	ENDS
; Function compile flags: /Odtp /RTCsu /ZI
; File z:\sampsrc\02xu1\raknet\ds_list.h
;	COMDAT ?Del@?$List@UMapNode@?$Map@UPlayerIdAndGroupId@ConnectionGraph@@G$1??$defaultMapKeyComparison@UPlayerIdAndGroupId@ConnectionGraph@@@DataStructures@@YAHABU12@0@Z@DataStructures@@@DataStructures@@QAEXI@Z
_TEXT	SEGMENT
_this$ = -8						; size = 4
_num$ = 8						; size = 4
?Del@?$List@UMapNode@?$Map@UPlayerIdAndGroupId@ConnectionGraph@@G$1??$defaultMapKeyComparison@UPlayerIdAndGroupId@ConnectionGraph@@@DataStructures@@YAHABU12@0@Z@DataStructures@@@DataStructures@@QAEXI@Z PROC ; DataStructures::List<DataStructures::Map<ConnectionGraph::PlayerIdAndGroupId,unsigned short,&DataStructures::defaultMapKeyComparison<ConnectionGraph::PlayerIdAndGroupId> >::MapNode>::Del, COMDAT
; _this$ = ecx

; 353  : 	{

	push	ebp
	mov	ebp, esp
	sub	esp, 204				; 000000ccH
	push	ebx
	push	esi
	push	edi
	push	ecx
	lea	edi, DWORD PTR [ebp-204]
	mov	ecx, 51					; 00000033H
	mov	eax, -858993460				; ccccccccH
	rep stosd
	pop	ecx
	mov	DWORD PTR _this$[ebp], ecx

; 354  : 		// Delete the last elements on the list.  No compression needed
; 355  : #ifdef _DEBUG
; 356  : 		assert(list_size>=num);

	mov	eax, DWORD PTR _this$[ebp]
	mov	ecx, DWORD PTR [eax+4]
	cmp	ecx, DWORD PTR _num$[ebp]
	jae	SHORT $LN3@Del
	push	356					; 00000164H
	push	OFFSET ??_C@_1EE@MBOIAKFO@?$AAz?$AA?3?$AA?2?$AAs?$AAa?$AAm?$AAp?$AAs?$AAr?$AAc?$AA?2?$AA0?$AA2?$AAx?$AAu?$AA1?$AA?2?$AAr?$AAa?$AAk?$AAn?$AAe?$AAt?$AA?2?$AAd?$AAs?$AA_?$AAl?$AAi?$AAs?$AAt?$AA?4@
	push	OFFSET ??_C@_1BO@JBFMBKMD@?$AAl?$AAi?$AAs?$AAt?$AA_?$AAs?$AAi?$AAz?$AAe?$AA?$DO?$AA?$DN?$AAn?$AAu?$AAm?$AA?$AA@
	call	__wassert
	add	esp, 12					; 0000000cH
$LN3@Del:

; 357  : #endif
; 358  : 		list_size-=num;

	mov	eax, DWORD PTR _this$[ebp]
	mov	ecx, DWORD PTR [eax+4]
	sub	ecx, DWORD PTR _num$[ebp]
	mov	edx, DWORD PTR _this$[ebp]
	mov	DWORD PTR [edx+4], ecx

; 359  : 	}

	pop	edi
	pop	esi
	pop	ebx
	add	esp, 204				; 000000ccH
	cmp	ebp, esp
	call	__RTC_CheckEsp
	mov	esp, ebp
	pop	ebp
	ret	4
?Del@?$List@UMapNode@?$Map@UPlayerIdAndGroupId@ConnectionGraph@@G$1??$defaultMapKeyComparison@UPlayerIdAndGroupId@ConnectionGraph@@@DataStructures@@YAHABU12@0@Z@DataStructures@@@DataStructures@@QAEXI@Z ENDP ; DataStructures::List<DataStructures::Map<ConnectionGraph::PlayerIdAndGroupId,unsigned short,&DataStructures::defaultMapKeyComparison<ConnectionGraph::PlayerIdAndGroupId> >::MapNode>::Del
_TEXT	ENDS
; Function compile flags: /Odtp /RTCsu /ZI
; File z:\sampsrc\02xu1\raknet\ds_list.h
;	COMDAT ?RemoveAtIndex@?$List@UMapNode@?$Map@UPlayerIdAndGroupId@ConnectionGraph@@G$1??$defaultMapKeyComparison@UPlayerIdAndGroupId@ConnectionGraph@@@DataStructures@@YAHABU12@0@Z@DataStructures@@@DataStructures@@QAEXI@Z
_TEXT	SEGMENT
_this$ = -8						; size = 4
_position$ = 8						; size = 4
?RemoveAtIndex@?$List@UMapNode@?$Map@UPlayerIdAndGroupId@ConnectionGraph@@G$1??$defaultMapKeyComparison@UPlayerIdAndGroupId@ConnectionGraph@@@DataStructures@@YAHABU12@0@Z@DataStructures@@@DataStructures@@QAEXI@Z PROC ; DataStructures::List<DataStructures::Map<ConnectionGraph::PlayerIdAndGroupId,unsigned short,&DataStructures::defaultMapKeyComparison<ConnectionGraph::PlayerIdAndGroupId> >::MapNode>::RemoveAtIndex, COMDAT
; _this$ = ecx

; 333  : 	{

	push	ebp
	mov	ebp, esp
	sub	esp, 204				; 000000ccH
	push	ebx
	push	esi
	push	edi
	push	ecx
	lea	edi, DWORD PTR [ebp-204]
	mov	ecx, 51					; 00000033H
	mov	eax, -858993460				; ccccccccH
	rep stosd
	pop	ecx
	mov	DWORD PTR _this$[ebp], ecx

; 334  : #ifdef _DEBUG
; 335  : 		assert( position < list_size );

	mov	eax, DWORD PTR _this$[ebp]
	mov	ecx, DWORD PTR _position$[ebp]
	cmp	ecx, DWORD PTR [eax+4]
	jb	SHORT $LN4@RemoveAtIn
	push	335					; 0000014fH
	push	OFFSET ??_C@_1EE@MBOIAKFO@?$AAz?$AA?3?$AA?2?$AAs?$AAa?$AAm?$AAp?$AAs?$AAr?$AAc?$AA?2?$AA0?$AA2?$AAx?$AAu?$AA1?$AA?2?$AAr?$AAa?$AAk?$AAn?$AAe?$AAt?$AA?2?$AAd?$AAs?$AA_?$AAl?$AAi?$AAs?$AAt?$AA?4@
	push	OFFSET ??_C@_1CK@HINNGFPG@?$AAp?$AAo?$AAs?$AAi?$AAt?$AAi?$AAo?$AAn?$AA?5?$AA?$DM?$AA?5?$AAl?$AAi?$AAs?$AAt?$AA_?$AAs?$AAi?$AAz?$AAe?$AA?$AA@
	call	__wassert
	add	esp, 12					; 0000000cH
$LN4@RemoveAtIn:

; 336  : #endif
; 337  : 
; 338  : 		if ( position < list_size )

	mov	eax, DWORD PTR _this$[ebp]
	mov	ecx, DWORD PTR _position$[ebp]
	cmp	ecx, DWORD PTR [eax+4]
	jae	SHORT $LN2@RemoveAtIn

; 339  : 		{
; 340  : 			// Compress the array
; 341  : 			/*
; 342  : 			for ( unsigned int counter = position; counter < list_size - 1 ; ++counter )
; 343  : 			listArray[ counter ] = listArray[ counter + 1 ];
; 344  : 			*/
; 345  : 			memmove(listArray+position, listArray+position+1, (list_size-1-position) * sizeof(list_type));

	mov	eax, DWORD PTR _this$[ebp]
	mov	ecx, DWORD PTR [eax+4]
	sub	ecx, 1
	sub	ecx, DWORD PTR _position$[ebp]
	imul	edx, ecx, 9
	push	edx
	imul	eax, DWORD PTR _position$[ebp], 9
	mov	ecx, DWORD PTR _this$[ebp]
	mov	edx, DWORD PTR [ecx]
	lea	eax, DWORD PTR [edx+eax+9]
	push	eax
	imul	ecx, DWORD PTR _position$[ebp], 9
	mov	edx, DWORD PTR _this$[ebp]
	add	ecx, DWORD PTR [edx]
	push	ecx
	call	_memmove
	add	esp, 12					; 0000000cH

; 346  : 
; 347  : 			Del();

	push	1
	mov	ecx, DWORD PTR _this$[ebp]
	call	?Del@?$List@UMapNode@?$Map@UPlayerIdAndGroupId@ConnectionGraph@@G$1??$defaultMapKeyComparison@UPlayerIdAndGroupId@ConnectionGraph@@@DataStructures@@YAHABU12@0@Z@DataStructures@@@DataStructures@@QAEXI@Z ; DataStructures::List<DataStructures::Map<ConnectionGraph::PlayerIdAndGroupId,unsigned short,&DataStructures::defaultMapKeyComparison<ConnectionGraph::PlayerIdAndGroupId> >::MapNode>::Del
$LN2@RemoveAtIn:

; 348  : 		}
; 349  : 	}

	pop	edi
	pop	esi
	pop	ebx
	add	esp, 204				; 000000ccH
	cmp	ebp, esp
	call	__RTC_CheckEsp
	mov	esp, ebp
	pop	ebp
	ret	4
?RemoveAtIndex@?$List@UMapNode@?$Map@UPlayerIdAndGroupId@ConnectionGraph@@G$1??$defaultMapKeyComparison@UPlayerIdAndGroupId@ConnectionGraph@@@DataStructures@@YAHABU12@0@Z@DataStructures@@@DataStructures@@QAEXI@Z ENDP ; DataStructures::List<DataStructures::Map<ConnectionGraph::PlayerIdAndGroupId,unsigned short,&DataStructures::defaultMapKeyComparison<ConnectionGraph::PlayerIdAndGroupId> >::MapNode>::RemoveAtIndex
_TEXT	ENDS
; Function compile flags: /Odtp /RTCsu /ZI
; File z:\sampsrc\02xu1\raknet\ds_list.h
;	COMDAT ?Insert@?$List@UMapNode@?$Map@UPlayerIdAndGroupId@ConnectionGraph@@G$1??$defaultMapKeyComparison@UPlayerIdAndGroupId@ConnectionGraph@@@DataStructures@@YAHABU12@0@Z@DataStructures@@@DataStructures@@QAEXUMapNode@?$Map@UPlayerIdAndGroupId@ConnectionGraph@@G$1??$defaultMapKeyComparison@UPlayerIdAndGroupId@ConnectionGraph@@@DataStructures@@YAHABU12@0@Z@2@@Z
_TEXT	SEGMENT
tv140 = -292						; size = 4
tv129 = -292						; size = 4
$T2 = -284						; size = 4
$T3 = -272						; size = 4
$T4 = -260						; size = 4
$T5 = -248						; size = 4
$T6 = -236						; size = 4
_new_array$7 = -32					; size = 4
_this$ = -20						; size = 4
__$EHRec$ = -12						; size = 12
_input$ = 8						; size = 9
?Insert@?$List@UMapNode@?$Map@UPlayerIdAndGroupId@ConnectionGraph@@G$1??$defaultMapKeyComparison@UPlayerIdAndGroupId@ConnectionGraph@@@DataStructures@@YAHABU12@0@Z@DataStructures@@@DataStructures@@QAEXUMapNode@?$Map@UPlayerIdAndGroupId@ConnectionGraph@@G$1??$defaultMapKeyComparison@UPlayerIdAndGroupId@ConnectionGraph@@@DataStructures@@YAHABU12@0@Z@2@@Z PROC ; DataStructures::List<DataStructures::Map<ConnectionGraph::PlayerIdAndGroupId,unsigned short,&DataStructures::defaultMapKeyComparison<ConnectionGraph::PlayerIdAndGroupId> >::MapNode>::Insert, COMDAT
; _this$ = ecx

; 242  : 	{

	push	ebp
	mov	ebp, esp
	push	-1
	push	__ehhandler$?Insert@?$List@UMapNode@?$Map@UPlayerIdAndGroupId@ConnectionGraph@@G$1??$defaultMapKeyComparison@UPlayerIdAndGroupId@ConnectionGraph@@@DataStructures@@YAHABU12@0@Z@DataStructures@@@DataStructures@@QAEXUMapNode@?$Map@UPlayerIdAndGroupId@ConnectionGraph@@G$1??$defaultMapKeyComparison@UPlayerIdAndGroupId@ConnectionGraph@@@DataStructures@@YAHABU12@0@Z@2@@Z
	mov	eax, DWORD PTR fs:0
	push	eax
	sub	esp, 280				; 00000118H
	push	ebx
	push	esi
	push	edi
	push	ecx
	lea	edi, DWORD PTR [ebp-292]
	mov	ecx, 70					; 00000046H
	mov	eax, -858993460				; ccccccccH
	rep stosd
	pop	ecx
	mov	eax, DWORD PTR ___security_cookie
	xor	eax, ebp
	push	eax
	lea	eax, DWORD PTR __$EHRec$[ebp]
	mov	DWORD PTR fs:0, eax
	mov	DWORD PTR _this$[ebp], ecx
	mov	DWORD PTR __$EHRec$[ebp+8], 0

; 243  : 		// Reallocate list if necessary
; 244  : 
; 245  : 		if ( list_size == allocation_size )

	mov	eax, DWORD PTR _this$[ebp]
	mov	ecx, DWORD PTR _this$[ebp]
	mov	edx, DWORD PTR [eax+4]
	cmp	edx, DWORD PTR [ecx+8]
	jne	$LN3@Insert

; 246  : 		{
; 247  : 			// allocate twice the currently allocated memory
; 248  : 			list_type * new_array;
; 249  : 
; 250  : 			if ( allocation_size == 0 )

	mov	eax, DWORD PTR _this$[ebp]
	cmp	DWORD PTR [eax+8], 0
	jne	SHORT $LN2@Insert

; 251  : 				allocation_size = 16;

	mov	eax, DWORD PTR _this$[ebp]
	mov	DWORD PTR [eax+8], 16			; 00000010H

; 252  : 			else

	jmp	SHORT $LN1@Insert
$LN2@Insert:

; 253  : 				allocation_size *= 2;

	mov	eax, DWORD PTR _this$[ebp]
	mov	ecx, DWORD PTR [eax+8]
	shl	ecx, 1
	mov	edx, DWORD PTR _this$[ebp]
	mov	DWORD PTR [edx+8], ecx
$LN1@Insert:

; 254  : 
; 255  : 			new_array = new list_type [ allocation_size ];

	mov	eax, DWORD PTR _this$[ebp]
	mov	ecx, DWORD PTR [eax+8]
	mov	DWORD PTR $T2[ebp], ecx
	xor	ecx, ecx
	mov	eax, DWORD PTR $T2[ebp]
	mov	edx, 9
	mul	edx
	seto	cl
	neg	ecx
	or	ecx, eax
	xor	eax, eax
	add	ecx, 4
	setb	al
	neg	eax
	or	eax, ecx
	push	eax
	call	??2@YAPAXI@Z				; operator new
	add	esp, 4
	mov	DWORD PTR $T4[ebp], eax
	mov	BYTE PTR __$EHRec$[ebp+8], 1
	cmp	DWORD PTR $T4[ebp], 0
	je	SHORT $LN6@Insert
	mov	ecx, DWORD PTR $T4[ebp]
	mov	edx, DWORD PTR $T2[ebp]
	mov	DWORD PTR [ecx], edx
	push	OFFSET ??1MapNode@?$Map@UPlayerIdAndGroupId@ConnectionGraph@@G$1??$defaultMapKeyComparison@UPlayerIdAndGroupId@ConnectionGraph@@@DataStructures@@YAHABU12@0@Z@DataStructures@@QAE@XZ
	push	OFFSET ??0MapNode@?$Map@UPlayerIdAndGroupId@ConnectionGraph@@G$1??$defaultMapKeyComparison@UPlayerIdAndGroupId@ConnectionGraph@@@DataStructures@@YAHABU12@0@Z@DataStructures@@QAE@XZ ; DataStructures::Map<ConnectionGraph::PlayerIdAndGroupId,unsigned short,&DataStructures::defaultMapKeyComparison<ConnectionGraph::PlayerIdAndGroupId> >::MapNode::MapNode
	mov	eax, DWORD PTR $T2[ebp]
	push	eax
	push	9
	mov	ecx, DWORD PTR $T4[ebp]
	add	ecx, 4
	push	ecx
	call	??_L@YGXPAXIHP6EX0@Z1@Z
	mov	edx, DWORD PTR $T4[ebp]
	add	edx, 4
	mov	DWORD PTR tv129[ebp], edx
	jmp	SHORT $LN7@Insert
$LN6@Insert:
	mov	DWORD PTR tv129[ebp], 0
$LN7@Insert:
	mov	eax, DWORD PTR tv129[ebp]
	mov	DWORD PTR $T3[ebp], eax
	mov	BYTE PTR __$EHRec$[ebp+8], 0
	mov	ecx, DWORD PTR $T3[ebp]
	mov	DWORD PTR _new_array$7[ebp], ecx

; 256  : 
; 257  : 			// copy old array over
; 258  : 			//	for ( unsigned int counter = 0; counter < list_size; ++counter )
; 259  : 			//		new_array[ counter ] = listArray[ counter ];
; 260  : 
; 261  : 			// Don't call constructors, assignment operators, etc.
; 262  : 			memcpy(new_array, listArray, list_size*sizeof(list_type));

	mov	eax, DWORD PTR _this$[ebp]
	imul	ecx, DWORD PTR [eax+4], 9
	push	ecx
	mov	edx, DWORD PTR _this$[ebp]
	mov	eax, DWORD PTR [edx]
	push	eax
	mov	ecx, DWORD PTR _new_array$7[ebp]
	push	ecx
	call	_memcpy
	add	esp, 12					; 0000000cH

; 263  : 
; 264  : 			// set old array to point to the newly allocated and twice as large array
; 265  : 			delete[] listArray;

	mov	eax, DWORD PTR _this$[ebp]
	mov	ecx, DWORD PTR [eax]
	mov	DWORD PTR $T6[ebp], ecx
	mov	edx, DWORD PTR $T6[ebp]
	mov	DWORD PTR $T5[ebp], edx
	cmp	DWORD PTR $T5[ebp], 0
	je	SHORT $LN8@Insert
	push	3
	mov	ecx, DWORD PTR $T5[ebp]
	call	??_EMapNode@?$Map@UPlayerIdAndGroupId@ConnectionGraph@@G$1??$defaultMapKeyComparison@UPlayerIdAndGroupId@ConnectionGraph@@@DataStructures@@YAHABU12@0@Z@DataStructures@@QAEPAXI@Z
	mov	DWORD PTR tv140[ebp], eax
	jmp	SHORT $LN9@Insert
$LN8@Insert:
	mov	DWORD PTR tv140[ebp], 0
$LN9@Insert:

; 266  : 
; 267  : 			listArray = new_array;

	mov	eax, DWORD PTR _this$[ebp]
	mov	ecx, DWORD PTR _new_array$7[ebp]
	mov	DWORD PTR [eax], ecx
$LN3@Insert:

; 268  : 		}
; 269  : 
; 270  : 		// Insert the new item at the correct spot
; 271  : 		listArray[ list_size ] = input;

	lea	eax, DWORD PTR _input$[ebp]
	push	eax
	mov	ecx, DWORD PTR _this$[ebp]
	imul	ecx, DWORD PTR [ecx+4], 9
	mov	edx, DWORD PTR _this$[ebp]
	add	ecx, DWORD PTR [edx]
	call	??4MapNode@?$Map@UPlayerIdAndGroupId@ConnectionGraph@@G$1??$defaultMapKeyComparison@UPlayerIdAndGroupId@ConnectionGraph@@@DataStructures@@YAHABU12@0@Z@DataStructures@@QAEAAU012@ABU012@@Z

; 272  : 
; 273  : 		++list_size;

	mov	eax, DWORD PTR _this$[ebp]
	mov	ecx, DWORD PTR [eax+4]
	add	ecx, 1
	mov	edx, DWORD PTR _this$[ebp]
	mov	DWORD PTR [edx+4], ecx

; 274  : 	}

	mov	DWORD PTR __$EHRec$[ebp+8], -1
	lea	ecx, DWORD PTR _input$[ebp]
	call	??1MapNode@?$Map@UPlayerIdAndGroupId@ConnectionGraph@@G$1??$defaultMapKeyComparison@UPlayerIdAndGroupId@ConnectionGraph@@@DataStructures@@YAHABU12@0@Z@DataStructures@@QAE@XZ
	mov	ecx, DWORD PTR __$EHRec$[ebp]
	mov	DWORD PTR fs:0, ecx
	pop	ecx
	pop	edi
	pop	esi
	pop	ebx
	add	esp, 292				; 00000124H
	cmp	ebp, esp
	call	__RTC_CheckEsp
	mov	esp, ebp
	pop	ebp
	ret	12					; 0000000cH
_TEXT	ENDS
;	COMDAT text$x
text$x	SEGMENT
__unwindfunclet$?Insert@?$List@UMapNode@?$Map@UPlayerIdAndGroupId@ConnectionGraph@@G$1??$defaultMapKeyComparison@UPlayerIdAndGroupId@ConnectionGraph@@@DataStructures@@YAHABU12@0@Z@DataStructures@@@DataStructures@@QAEXUMapNode@?$Map@UPlayerIdAndGroupId@ConnectionGraph@@G$1??$defaultMapKeyComparison@UPlayerIdAndGroupId@ConnectionGraph@@@DataStructures@@YAHABU12@0@Z@2@@Z$0:
	lea	ecx, DWORD PTR _input$[ebp]
	jmp	??1MapNode@?$Map@UPlayerIdAndGroupId@ConnectionGraph@@G$1??$defaultMapKeyComparison@UPlayerIdAndGroupId@ConnectionGraph@@@DataStructures@@YAHABU12@0@Z@DataStructures@@QAE@XZ
__unwindfunclet$?Insert@?$List@UMapNode@?$Map@UPlayerIdAndGroupId@ConnectionGraph@@G$1??$defaultMapKeyComparison@UPlayerIdAndGroupId@ConnectionGraph@@@DataStructures@@YAHABU12@0@Z@DataStructures@@@DataStructures@@QAEXUMapNode@?$Map@UPlayerIdAndGroupId@ConnectionGraph@@G$1??$defaultMapKeyComparison@UPlayerIdAndGroupId@ConnectionGraph@@@DataStructures@@YAHABU12@0@Z@2@@Z$1:
	mov	eax, DWORD PTR $T4[ebp]
	push	eax
	call	??3@YAXPAX@Z				; operator delete
	pop	ecx
	ret	0
__ehhandler$?Insert@?$List@UMapNode@?$Map@UPlayerIdAndGroupId@ConnectionGraph@@G$1??$defaultMapKeyComparison@UPlayerIdAndGroupId@ConnectionGraph@@@DataStructures@@YAHABU12@0@Z@DataStructures@@@DataStructures@@QAEXUMapNode@?$Map@UPlayerIdAndGroupId@ConnectionGraph@@G$1??$defaultMapKeyComparison@UPlayerIdAndGroupId@ConnectionGraph@@@DataStructures@@YAHABU12@0@Z@2@@Z:
	mov	edx, DWORD PTR [esp+8]
	lea	eax, DWORD PTR [edx+12]
	mov	ecx, DWORD PTR [edx-296]
	xor	ecx, eax
	call	@__security_check_cookie@4
	mov	eax, OFFSET __ehfuncinfo$?Insert@?$List@UMapNode@?$Map@UPlayerIdAndGroupId@ConnectionGraph@@G$1??$defaultMapKeyComparison@UPlayerIdAndGroupId@ConnectionGraph@@@DataStructures@@YAHABU12@0@Z@DataStructures@@@DataStructures@@QAEXUMapNode@?$Map@UPlayerIdAndGroupId@ConnectionGraph@@G$1??$defaultMapKeyComparison@UPlayerIdAndGroupId@ConnectionGraph@@@DataStructures@@YAHABU12@0@Z@2@@Z
	jmp	___CxxFrameHandler3
text$x	ENDS
?Insert@?$List@UMapNode@?$Map@UPlayerIdAndGroupId@ConnectionGraph@@G$1??$defaultMapKeyComparison@UPlayerIdAndGroupId@ConnectionGraph@@@DataStructures@@YAHABU12@0@Z@DataStructures@@@DataStructures@@QAEXUMapNode@?$Map@UPlayerIdAndGroupId@ConnectionGraph@@G$1??$defaultMapKeyComparison@UPlayerIdAndGroupId@ConnectionGraph@@@DataStructures@@YAHABU12@0@Z@2@@Z ENDP ; DataStructures::List<DataStructures::Map<ConnectionGraph::PlayerIdAndGroupId,unsigned short,&DataStructures::defaultMapKeyComparison<ConnectionGraph::PlayerIdAndGroupId> >::MapNode>::Insert
; Function compile flags: /Odtp /RTCsu /ZI
; File z:\sampsrc\02xu1\raknet\ds_list.h
;	COMDAT ?Insert@?$List@UMapNode@?$Map@UPlayerIdAndGroupId@ConnectionGraph@@G$1??$defaultMapKeyComparison@UPlayerIdAndGroupId@ConnectionGraph@@@DataStructures@@YAHABU12@0@Z@DataStructures@@@DataStructures@@QAEXUMapNode@?$Map@UPlayerIdAndGroupId@ConnectionGraph@@G$1??$defaultMapKeyComparison@UPlayerIdAndGroupId@ConnectionGraph@@@DataStructures@@YAHABU12@0@Z@2@I@Z
_TEXT	SEGMENT
tv146 = -292						; size = 4
tv135 = -292						; size = 4
$T2 = -284						; size = 4
$T3 = -272						; size = 4
$T4 = -260						; size = 4
$T5 = -248						; size = 4
$T6 = -236						; size = 4
_new_array$7 = -32					; size = 4
_this$ = -20						; size = 4
__$EHRec$ = -12						; size = 12
_input$ = 8						; size = 9
_position$ = 20						; size = 4
?Insert@?$List@UMapNode@?$Map@UPlayerIdAndGroupId@ConnectionGraph@@G$1??$defaultMapKeyComparison@UPlayerIdAndGroupId@ConnectionGraph@@@DataStructures@@YAHABU12@0@Z@DataStructures@@@DataStructures@@QAEXUMapNode@?$Map@UPlayerIdAndGroupId@ConnectionGraph@@G$1??$defaultMapKeyComparison@UPlayerIdAndGroupId@ConnectionGraph@@@DataStructures@@YAHABU12@0@Z@2@I@Z PROC ; DataStructures::List<DataStructures::Map<ConnectionGraph::PlayerIdAndGroupId,unsigned short,&DataStructures::defaultMapKeyComparison<ConnectionGraph::PlayerIdAndGroupId> >::MapNode>::Insert, COMDAT
; _this$ = ecx

; 194  : 	{

	push	ebp
	mov	ebp, esp
	push	-1
	push	__ehhandler$?Insert@?$List@UMapNode@?$Map@UPlayerIdAndGroupId@ConnectionGraph@@G$1??$defaultMapKeyComparison@UPlayerIdAndGroupId@ConnectionGraph@@@DataStructures@@YAHABU12@0@Z@DataStructures@@@DataStructures@@QAEXUMapNode@?$Map@UPlayerIdAndGroupId@ConnectionGraph@@G$1??$defaultMapKeyComparison@UPlayerIdAndGroupId@ConnectionGraph@@@DataStructures@@YAHABU12@0@Z@2@I@Z
	mov	eax, DWORD PTR fs:0
	push	eax
	sub	esp, 280				; 00000118H
	push	ebx
	push	esi
	push	edi
	push	ecx
	lea	edi, DWORD PTR [ebp-292]
	mov	ecx, 70					; 00000046H
	mov	eax, -858993460				; ccccccccH
	rep stosd
	pop	ecx
	mov	eax, DWORD PTR ___security_cookie
	xor	eax, ebp
	push	eax
	lea	eax, DWORD PTR __$EHRec$[ebp]
	mov	DWORD PTR fs:0, eax
	mov	DWORD PTR _this$[ebp], ecx
	mov	DWORD PTR __$EHRec$[ebp+8], 0

; 195  : #ifdef _DEBUG
; 196  : 		assert( position <= list_size );

	mov	eax, DWORD PTR _this$[ebp]
	mov	ecx, DWORD PTR _position$[ebp]
	cmp	ecx, DWORD PTR [eax+4]
	jbe	SHORT $LN6@Insert
	push	196					; 000000c4H
	push	OFFSET ??_C@_1EE@MBOIAKFO@?$AAz?$AA?3?$AA?2?$AAs?$AAa?$AAm?$AAp?$AAs?$AAr?$AAc?$AA?2?$AA0?$AA2?$AAx?$AAu?$AA1?$AA?2?$AAr?$AAa?$AAk?$AAn?$AAe?$AAt?$AA?2?$AAd?$AAs?$AA_?$AAl?$AAi?$AAs?$AAt?$AA?4@
	push	OFFSET ??_C@_1CM@FMCFHBCK@?$AAp?$AAo?$AAs?$AAi?$AAt?$AAi?$AAo?$AAn?$AA?5?$AA?$DM?$AA?$DN?$AA?5?$AAl?$AAi?$AAs?$AAt?$AA_?$AAs?$AAi?$AAz?$AAe?$AA?$AA@
	call	__wassert
	add	esp, 12					; 0000000cH
$LN6@Insert:

; 197  : #endif
; 198  : 
; 199  : 		// Reallocate list if necessary
; 200  : 		if ( list_size == allocation_size )

	mov	eax, DWORD PTR _this$[ebp]
	mov	ecx, DWORD PTR _this$[ebp]
	mov	edx, DWORD PTR [eax+4]
	cmp	edx, DWORD PTR [ecx+8]
	jne	$LN3@Insert

; 201  : 		{
; 202  : 			// allocate twice the currently allocated memory
; 203  : 			list_type * new_array;
; 204  : 
; 205  : 			if ( allocation_size == 0 )

	mov	eax, DWORD PTR _this$[ebp]
	cmp	DWORD PTR [eax+8], 0
	jne	SHORT $LN2@Insert

; 206  : 				allocation_size = 16;

	mov	eax, DWORD PTR _this$[ebp]
	mov	DWORD PTR [eax+8], 16			; 00000010H

; 207  : 			else

	jmp	SHORT $LN1@Insert
$LN2@Insert:

; 208  : 				allocation_size *= 2;

	mov	eax, DWORD PTR _this$[ebp]
	mov	ecx, DWORD PTR [eax+8]
	shl	ecx, 1
	mov	edx, DWORD PTR _this$[ebp]
	mov	DWORD PTR [edx+8], ecx
$LN1@Insert:

; 209  : 
; 210  : 			new_array = new list_type [ allocation_size ];

	mov	eax, DWORD PTR _this$[ebp]
	mov	ecx, DWORD PTR [eax+8]
	mov	DWORD PTR $T2[ebp], ecx
	xor	ecx, ecx
	mov	eax, DWORD PTR $T2[ebp]
	mov	edx, 9
	mul	edx
	seto	cl
	neg	ecx
	or	ecx, eax
	xor	eax, eax
	add	ecx, 4
	setb	al
	neg	eax
	or	eax, ecx
	push	eax
	call	??2@YAPAXI@Z				; operator new
	add	esp, 4
	mov	DWORD PTR $T4[ebp], eax
	mov	BYTE PTR __$EHRec$[ebp+8], 1
	cmp	DWORD PTR $T4[ebp], 0
	je	SHORT $LN7@Insert
	mov	ecx, DWORD PTR $T4[ebp]
	mov	edx, DWORD PTR $T2[ebp]
	mov	DWORD PTR [ecx], edx
	push	OFFSET ??1MapNode@?$Map@UPlayerIdAndGroupId@ConnectionGraph@@G$1??$defaultMapKeyComparison@UPlayerIdAndGroupId@ConnectionGraph@@@DataStructures@@YAHABU12@0@Z@DataStructures@@QAE@XZ
	push	OFFSET ??0MapNode@?$Map@UPlayerIdAndGroupId@ConnectionGraph@@G$1??$defaultMapKeyComparison@UPlayerIdAndGroupId@ConnectionGraph@@@DataStructures@@YAHABU12@0@Z@DataStructures@@QAE@XZ ; DataStructures::Map<ConnectionGraph::PlayerIdAndGroupId,unsigned short,&DataStructures::defaultMapKeyComparison<ConnectionGraph::PlayerIdAndGroupId> >::MapNode::MapNode
	mov	eax, DWORD PTR $T2[ebp]
	push	eax
	push	9
	mov	ecx, DWORD PTR $T4[ebp]
	add	ecx, 4
	push	ecx
	call	??_L@YGXPAXIHP6EX0@Z1@Z
	mov	edx, DWORD PTR $T4[ebp]
	add	edx, 4
	mov	DWORD PTR tv135[ebp], edx
	jmp	SHORT $LN8@Insert
$LN7@Insert:
	mov	DWORD PTR tv135[ebp], 0
$LN8@Insert:
	mov	eax, DWORD PTR tv135[ebp]
	mov	DWORD PTR $T3[ebp], eax
	mov	BYTE PTR __$EHRec$[ebp+8], 0
	mov	ecx, DWORD PTR $T3[ebp]
	mov	DWORD PTR _new_array$7[ebp], ecx

; 211  : 
; 212  : 			// copy old array over
; 213  : 			//for ( unsigned int counter = 0; counter < list_size; ++counter )
; 214  : 			//	new_array[ counter ] = listArray[ counter ];
; 215  : 
; 216  : 			// Don't call constructors, assignment operators, etc.
; 217  : 			memcpy(new_array, listArray, list_size*sizeof(list_type));

	mov	eax, DWORD PTR _this$[ebp]
	imul	ecx, DWORD PTR [eax+4], 9
	push	ecx
	mov	edx, DWORD PTR _this$[ebp]
	mov	eax, DWORD PTR [edx]
	push	eax
	mov	ecx, DWORD PTR _new_array$7[ebp]
	push	ecx
	call	_memcpy
	add	esp, 12					; 0000000cH

; 218  : 
; 219  : 			// set old array to point to the newly allocated and twice as large array
; 220  : 			delete[] listArray;

	mov	eax, DWORD PTR _this$[ebp]
	mov	ecx, DWORD PTR [eax]
	mov	DWORD PTR $T6[ebp], ecx
	mov	edx, DWORD PTR $T6[ebp]
	mov	DWORD PTR $T5[ebp], edx
	cmp	DWORD PTR $T5[ebp], 0
	je	SHORT $LN9@Insert
	push	3
	mov	ecx, DWORD PTR $T5[ebp]
	call	??_EMapNode@?$Map@UPlayerIdAndGroupId@ConnectionGraph@@G$1??$defaultMapKeyComparison@UPlayerIdAndGroupId@ConnectionGraph@@@DataStructures@@YAHABU12@0@Z@DataStructures@@QAEPAXI@Z
	mov	DWORD PTR tv146[ebp], eax
	jmp	SHORT $LN10@Insert
$LN9@Insert:
	mov	DWORD PTR tv146[ebp], 0
$LN10@Insert:

; 221  : 
; 222  : 			listArray = new_array;

	mov	eax, DWORD PTR _this$[ebp]
	mov	ecx, DWORD PTR _new_array$7[ebp]
	mov	DWORD PTR [eax], ecx
$LN3@Insert:

; 223  : 		}
; 224  : 
; 225  : 		// Move the elements in the list to make room
; 226  : 		//for ( unsigned int counter = list_size; counter != position; counter-- )
; 227  : 		//	listArray[ counter ] = listArray[ counter - 1 ];
; 228  : 
; 229  : 		// Don't call constructors, assignment operators, etc.
; 230  : 		memmove(listArray+position+1, listArray+position, (list_size-position)*sizeof(list_type));

	mov	eax, DWORD PTR _this$[ebp]
	mov	ecx, DWORD PTR [eax+4]
	sub	ecx, DWORD PTR _position$[ebp]
	imul	edx, ecx, 9
	push	edx
	imul	eax, DWORD PTR _position$[ebp], 9
	mov	ecx, DWORD PTR _this$[ebp]
	add	eax, DWORD PTR [ecx]
	push	eax
	imul	edx, DWORD PTR _position$[ebp], 9
	mov	eax, DWORD PTR _this$[ebp]
	mov	ecx, DWORD PTR [eax]
	lea	edx, DWORD PTR [ecx+edx+9]
	push	edx
	call	_memmove
	add	esp, 12					; 0000000cH

; 231  : 
; 232  : 		// Insert the new item at the correct spot
; 233  : 		listArray[ position ] = input;

	lea	eax, DWORD PTR _input$[ebp]
	push	eax
	imul	ecx, DWORD PTR _position$[ebp], 9
	mov	edx, DWORD PTR _this$[ebp]
	add	ecx, DWORD PTR [edx]
	call	??4MapNode@?$Map@UPlayerIdAndGroupId@ConnectionGraph@@G$1??$defaultMapKeyComparison@UPlayerIdAndGroupId@ConnectionGraph@@@DataStructures@@YAHABU12@0@Z@DataStructures@@QAEAAU012@ABU012@@Z

; 234  : 
; 235  : 		++list_size;

	mov	eax, DWORD PTR _this$[ebp]
	mov	ecx, DWORD PTR [eax+4]
	add	ecx, 1
	mov	edx, DWORD PTR _this$[ebp]
	mov	DWORD PTR [edx+4], ecx

; 236  : 
; 237  : 	}

	mov	DWORD PTR __$EHRec$[ebp+8], -1
	lea	ecx, DWORD PTR _input$[ebp]
	call	??1MapNode@?$Map@UPlayerIdAndGroupId@ConnectionGraph@@G$1??$defaultMapKeyComparison@UPlayerIdAndGroupId@ConnectionGraph@@@DataStructures@@YAHABU12@0@Z@DataStructures@@QAE@XZ
	mov	ecx, DWORD PTR __$EHRec$[ebp]
	mov	DWORD PTR fs:0, ecx
	pop	ecx
	pop	edi
	pop	esi
	pop	ebx
	add	esp, 292				; 00000124H
	cmp	ebp, esp
	call	__RTC_CheckEsp
	mov	esp, ebp
	pop	ebp
	ret	16					; 00000010H
_TEXT	ENDS
;	COMDAT text$x
text$x	SEGMENT
__unwindfunclet$?Insert@?$List@UMapNode@?$Map@UPlayerIdAndGroupId@ConnectionGraph@@G$1??$defaultMapKeyComparison@UPlayerIdAndGroupId@ConnectionGraph@@@DataStructures@@YAHABU12@0@Z@DataStructures@@@DataStructures@@QAEXUMapNode@?$Map@UPlayerIdAndGroupId@ConnectionGraph@@G$1??$defaultMapKeyComparison@UPlayerIdAndGroupId@ConnectionGraph@@@DataStructures@@YAHABU12@0@Z@2@I@Z$0:
	lea	ecx, DWORD PTR _input$[ebp]
	jmp	??1MapNode@?$Map@UPlayerIdAndGroupId@ConnectionGraph@@G$1??$defaultMapKeyComparison@UPlayerIdAndGroupId@ConnectionGraph@@@DataStructures@@YAHABU12@0@Z@DataStructures@@QAE@XZ
__unwindfunclet$?Insert@?$List@UMapNode@?$Map@UPlayerIdAndGroupId@ConnectionGraph@@G$1??$defaultMapKeyComparison@UPlayerIdAndGroupId@ConnectionGraph@@@DataStructures@@YAHABU12@0@Z@DataStructures@@@DataStructures@@QAEXUMapNode@?$Map@UPlayerIdAndGroupId@ConnectionGraph@@G$1??$defaultMapKeyComparison@UPlayerIdAndGroupId@ConnectionGraph@@@DataStructures@@YAHABU12@0@Z@2@I@Z$1:
	mov	eax, DWORD PTR $T4[ebp]
	push	eax
	call	??3@YAXPAX@Z				; operator delete
	pop	ecx
	ret	0
__ehhandler$?Insert@?$List@UMapNode@?$Map@UPlayerIdAndGroupId@ConnectionGraph@@G$1??$defaultMapKeyComparison@UPlayerIdAndGroupId@ConnectionGraph@@@DataStructures@@YAHABU12@0@Z@DataStructures@@@DataStructures@@QAEXUMapNode@?$Map@UPlayerIdAndGroupId@ConnectionGraph@@G$1??$defaultMapKeyComparison@UPlayerIdAndGroupId@ConnectionGraph@@@DataStructures@@YAHABU12@0@Z@2@I@Z:
	mov	edx, DWORD PTR [esp+8]
	lea	eax, DWORD PTR [edx+12]
	mov	ecx, DWORD PTR [edx-296]
	xor	ecx, eax
	call	@__security_check_cookie@4
	mov	eax, OFFSET __ehfuncinfo$?Insert@?$List@UMapNode@?$Map@UPlayerIdAndGroupId@ConnectionGraph@@G$1??$defaultMapKeyComparison@UPlayerIdAndGroupId@ConnectionGraph@@@DataStructures@@YAHABU12@0@Z@DataStructures@@@DataStructures@@QAEXUMapNode@?$Map@UPlayerIdAndGroupId@ConnectionGraph@@G$1??$defaultMapKeyComparison@UPlayerIdAndGroupId@ConnectionGraph@@@DataStructures@@YAHABU12@0@Z@2@I@Z
	jmp	___CxxFrameHandler3
text$x	ENDS
?Insert@?$List@UMapNode@?$Map@UPlayerIdAndGroupId@ConnectionGraph@@G$1??$defaultMapKeyComparison@UPlayerIdAndGroupId@ConnectionGraph@@@DataStructures@@YAHABU12@0@Z@DataStructures@@@DataStructures@@QAEXUMapNode@?$Map@UPlayerIdAndGroupId@ConnectionGraph@@G$1??$defaultMapKeyComparison@UPlayerIdAndGroupId@ConnectionGraph@@@DataStructures@@YAHABU12@0@Z@2@I@Z ENDP ; DataStructures::List<DataStructures::Map<ConnectionGraph::PlayerIdAndGroupId,unsigned short,&DataStructures::defaultMapKeyComparison<ConnectionGraph::PlayerIdAndGroupId> >::MapNode>::Insert
; Function compile flags: /Odtp /RTCsu /ZI
; File z:\sampsrc\02xu1\raknet\ds_list.h
;	COMDAT ??A?$List@UMapNode@?$Map@UPlayerIdAndGroupId@ConnectionGraph@@G$1??$defaultMapKeyComparison@UPlayerIdAndGroupId@ConnectionGraph@@@DataStructures@@YAHABU12@0@Z@DataStructures@@@DataStructures@@QBEAAUMapNode@?$Map@UPlayerIdAndGroupId@ConnectionGraph@@G$1??$defaultMapKeyComparison@UPlayerIdAndGroupId@ConnectionGraph@@@DataStructures@@YAHABU12@0@Z@1@I@Z
_TEXT	SEGMENT
_this$ = -8						; size = 4
_position$ = 8						; size = 4
??A?$List@UMapNode@?$Map@UPlayerIdAndGroupId@ConnectionGraph@@G$1??$defaultMapKeyComparison@UPlayerIdAndGroupId@ConnectionGraph@@@DataStructures@@YAHABU12@0@Z@DataStructures@@@DataStructures@@QBEAAUMapNode@?$Map@UPlayerIdAndGroupId@ConnectionGraph@@G$1??$defaultMapKeyComparison@UPlayerIdAndGroupId@ConnectionGraph@@@DataStructures@@YAHABU12@0@Z@1@I@Z PROC ; DataStructures::List<DataStructures::Map<ConnectionGraph::PlayerIdAndGroupId,unsigned short,&DataStructures::defaultMapKeyComparison<ConnectionGraph::PlayerIdAndGroupId> >::MapNode>::operator[], COMDAT
; _this$ = ecx

; 185  : 	{

	push	ebp
	mov	ebp, esp
	sub	esp, 204				; 000000ccH
	push	ebx
	push	esi
	push	edi
	push	ecx
	lea	edi, DWORD PTR [ebp-204]
	mov	ecx, 51					; 00000033H
	mov	eax, -858993460				; ccccccccH
	rep stosd
	pop	ecx
	mov	DWORD PTR _this$[ebp], ecx

; 186  : #ifdef _DEBUG
; 187  : 		assert ( position < list_size );

	mov	eax, DWORD PTR _this$[ebp]
	mov	ecx, DWORD PTR _position$[ebp]
	cmp	ecx, DWORD PTR [eax+4]
	jb	SHORT $LN3@operator
	push	187					; 000000bbH
	push	OFFSET ??_C@_1EE@MBOIAKFO@?$AAz?$AA?3?$AA?2?$AAs?$AAa?$AAm?$AAp?$AAs?$AAr?$AAc?$AA?2?$AA0?$AA2?$AAx?$AAu?$AA1?$AA?2?$AAr?$AAa?$AAk?$AAn?$AAe?$AAt?$AA?2?$AAd?$AAs?$AA_?$AAl?$AAi?$AAs?$AAt?$AA?4@
	push	OFFSET ??_C@_1CK@HINNGFPG@?$AAp?$AAo?$AAs?$AAi?$AAt?$AAi?$AAo?$AAn?$AA?5?$AA?$DM?$AA?5?$AAl?$AAi?$AAs?$AAt?$AA_?$AAs?$AAi?$AAz?$AAe?$AA?$AA@
	call	__wassert
	add	esp, 12					; 0000000cH
$LN3@operator:

; 188  : #endif
; 189  : 		return listArray[ position ];

	imul	eax, DWORD PTR _position$[ebp], 9
	mov	ecx, DWORD PTR _this$[ebp]
	add	eax, DWORD PTR [ecx]

; 190  : 	}

	pop	edi
	pop	esi
	pop	ebx
	add	esp, 204				; 000000ccH
	cmp	ebp, esp
	call	__RTC_CheckEsp
	mov	esp, ebp
	pop	ebp
	ret	4
??A?$List@UMapNode@?$Map@UPlayerIdAndGroupId@ConnectionGraph@@G$1??$defaultMapKeyComparison@UPlayerIdAndGroupId@ConnectionGraph@@@DataStructures@@YAHABU12@0@Z@DataStructures@@@DataStructures@@QBEAAUMapNode@?$Map@UPlayerIdAndGroupId@ConnectionGraph@@G$1??$defaultMapKeyComparison@UPlayerIdAndGroupId@ConnectionGraph@@@DataStructures@@YAHABU12@0@Z@1@I@Z ENDP ; DataStructures::List<DataStructures::Map<ConnectionGraph::PlayerIdAndGroupId,unsigned short,&DataStructures::defaultMapKeyComparison<ConnectionGraph::PlayerIdAndGroupId> >::MapNode>::operator[]
_TEXT	ENDS
; Function compile flags: /Odtp /RTCsu /ZI
; File z:\sampsrc\02xu1\raknet\ds_list.h
;	COMDAT ??1?$List@UMapNode@?$Map@UPlayerIdAndGroupId@ConnectionGraph@@G$1??$defaultMapKeyComparison@UPlayerIdAndGroupId@ConnectionGraph@@@DataStructures@@YAHABU12@0@Z@DataStructures@@@DataStructures@@QAE@XZ
_TEXT	SEGMENT
tv71 = -232						; size = 4
$T1 = -224						; size = 4
$T2 = -212						; size = 4
_this$ = -8						; size = 4
??1?$List@UMapNode@?$Map@UPlayerIdAndGroupId@ConnectionGraph@@G$1??$defaultMapKeyComparison@UPlayerIdAndGroupId@ConnectionGraph@@@DataStructures@@YAHABU12@0@Z@DataStructures@@@DataStructures@@QAE@XZ PROC ; DataStructures::List<DataStructures::Map<ConnectionGraph::PlayerIdAndGroupId,unsigned short,&DataStructures::defaultMapKeyComparison<ConnectionGraph::PlayerIdAndGroupId> >::MapNode>::~List<DataStructures::Map<ConnectionGraph::PlayerIdAndGroupId,unsigned short,&DataStructures::defaultMapKeyComparison<ConnectionGraph::PlayerIdAndGroupId> >::MapNode>, COMDAT
; _this$ = ecx

; 121  : 	{

	push	ebp
	mov	ebp, esp
	sub	esp, 232				; 000000e8H
	push	ebx
	push	esi
	push	edi
	push	ecx
	lea	edi, DWORD PTR [ebp-232]
	mov	ecx, 58					; 0000003aH
	mov	eax, -858993460				; ccccccccH
	rep stosd
	pop	ecx
	mov	DWORD PTR _this$[ebp], ecx

; 122  : 		if (allocation_size>0)

	mov	eax, DWORD PTR _this$[ebp]
	cmp	DWORD PTR [eax+8], 0
	jbe	SHORT $LN2@List

; 123  : 			delete [] listArray;

	mov	eax, DWORD PTR _this$[ebp]
	mov	ecx, DWORD PTR [eax]
	mov	DWORD PTR $T2[ebp], ecx
	mov	edx, DWORD PTR $T2[ebp]
	mov	DWORD PTR $T1[ebp], edx
	cmp	DWORD PTR $T1[ebp], 0
	je	SHORT $LN4@List
	push	3
	mov	ecx, DWORD PTR $T1[ebp]
	call	??_EMapNode@?$Map@UPlayerIdAndGroupId@ConnectionGraph@@G$1??$defaultMapKeyComparison@UPlayerIdAndGroupId@ConnectionGraph@@@DataStructures@@YAHABU12@0@Z@DataStructures@@QAEPAXI@Z
	mov	DWORD PTR tv71[ebp], eax
	jmp	SHORT $LN2@List
$LN4@List:
	mov	DWORD PTR tv71[ebp], 0
$LN2@List:

; 124  : 	}

	pop	edi
	pop	esi
	pop	ebx
	add	esp, 232				; 000000e8H
	cmp	ebp, esp
	call	__RTC_CheckEsp
	mov	esp, ebp
	pop	ebp
	ret	0
??1?$List@UMapNode@?$Map@UPlayerIdAndGroupId@ConnectionGraph@@G$1??$defaultMapKeyComparison@UPlayerIdAndGroupId@ConnectionGraph@@@DataStructures@@YAHABU12@0@Z@DataStructures@@@DataStructures@@QAE@XZ ENDP ; DataStructures::List<DataStructures::Map<ConnectionGraph::PlayerIdAndGroupId,unsigned short,&DataStructures::defaultMapKeyComparison<ConnectionGraph::PlayerIdAndGroupId> >::MapNode>::~List<DataStructures::Map<ConnectionGraph::PlayerIdAndGroupId,unsigned short,&DataStructures::defaultMapKeyComparison<ConnectionGraph::PlayerIdAndGroupId> >::MapNode>
_TEXT	ENDS
; Function compile flags: /Odtp /RTCsu /ZI
; File z:\sampsrc\02xu1\raknet\ds_list.h
;	COMDAT ??0?$List@UMapNode@?$Map@UPlayerIdAndGroupId@ConnectionGraph@@G$1??$defaultMapKeyComparison@UPlayerIdAndGroupId@ConnectionGraph@@@DataStructures@@YAHABU12@0@Z@DataStructures@@@DataStructures@@QAE@XZ
_TEXT	SEGMENT
_this$ = -8						; size = 4
??0?$List@UMapNode@?$Map@UPlayerIdAndGroupId@ConnectionGraph@@G$1??$defaultMapKeyComparison@UPlayerIdAndGroupId@ConnectionGraph@@@DataStructures@@YAHABU12@0@Z@DataStructures@@@DataStructures@@QAE@XZ PROC ; DataStructures::List<DataStructures::Map<ConnectionGraph::PlayerIdAndGroupId,unsigned short,&DataStructures::defaultMapKeyComparison<ConnectionGraph::PlayerIdAndGroupId> >::MapNode>::List<DataStructures::Map<ConnectionGraph::PlayerIdAndGroupId,unsigned short,&DataStructures::defaultMapKeyComparison<ConnectionGraph::PlayerIdAndGroupId> >::MapNode>, COMDAT
; _this$ = ecx

; 113  : 	{

	push	ebp
	mov	ebp, esp
	sub	esp, 204				; 000000ccH
	push	ebx
	push	esi
	push	edi
	push	ecx
	lea	edi, DWORD PTR [ebp-204]
	mov	ecx, 51					; 00000033H
	mov	eax, -858993460				; ccccccccH
	rep stosd
	pop	ecx
	mov	DWORD PTR _this$[ebp], ecx

; 114  : 		allocation_size = 0;

	mov	eax, DWORD PTR _this$[ebp]
	mov	DWORD PTR [eax+8], 0

; 115  : 		listArray = 0;

	mov	eax, DWORD PTR _this$[ebp]
	mov	DWORD PTR [eax], 0

; 116  : 		list_size = 0;

	mov	eax, DWORD PTR _this$[ebp]
	mov	DWORD PTR [eax+4], 0

; 117  : 	}

	mov	eax, DWORD PTR _this$[ebp]
	pop	edi
	pop	esi
	pop	ebx
	mov	esp, ebp
	pop	ebp
	ret	0
??0?$List@UMapNode@?$Map@UPlayerIdAndGroupId@ConnectionGraph@@G$1??$defaultMapKeyComparison@UPlayerIdAndGroupId@ConnectionGraph@@@DataStructures@@YAHABU12@0@Z@DataStructures@@@DataStructures@@QAE@XZ ENDP ; DataStructures::List<DataStructures::Map<ConnectionGraph::PlayerIdAndGroupId,unsigned short,&DataStructures::defaultMapKeyComparison<ConnectionGraph::PlayerIdAndGroupId> >::MapNode>::List<DataStructures::Map<ConnectionGraph::PlayerIdAndGroupId,unsigned short,&DataStructures::defaultMapKeyComparison<ConnectionGraph::PlayerIdAndGroupId> >::MapNode>
_TEXT	ENDS
; Function compile flags: /Odtp /RTCsu /ZI
; File z:\sampsrc\02xu1\raknet\ds_orderedlist.h
;	COMDAT ?Size@?$OrderedList@UPlayerIdAndGroupId@ConnectionGraph@@UMapNode@?$Map@UPlayerIdAndGroupId@ConnectionGraph@@G$1??$defaultMapKeyComparison@UPlayerIdAndGroupId@ConnectionGraph@@@DataStructures@@YAHABU12@0@Z@DataStructures@@$1?NodeComparisonFunc@45@SAHABU12@ABU345@@Z@DataStructures@@QBEIXZ
_TEXT	SEGMENT
_this$ = -8						; size = 4
?Size@?$OrderedList@UPlayerIdAndGroupId@ConnectionGraph@@UMapNode@?$Map@UPlayerIdAndGroupId@ConnectionGraph@@G$1??$defaultMapKeyComparison@UPlayerIdAndGroupId@ConnectionGraph@@@DataStructures@@YAHABU12@0@Z@DataStructures@@$1?NodeComparisonFunc@45@SAHABU12@ABU345@@Z@DataStructures@@QBEIXZ PROC ; DataStructures::OrderedList<ConnectionGraph::PlayerIdAndGroupId,DataStructures::Map<ConnectionGraph::PlayerIdAndGroupId,unsigned short,&DataStructures::defaultMapKeyComparison<ConnectionGraph::PlayerIdAndGroupId> >::MapNode,&DataStructures::Map<ConnectionGraph::PlayerIdAndGroupId,unsigned short,&DataStructures::defaultMapKeyComparison<ConnectionGraph::PlayerIdAndGroupId> >::NodeComparisonFunc>::Size, COMDAT
; _this$ = ecx

; 231  : 	{

	push	ebp
	mov	ebp, esp
	sub	esp, 204				; 000000ccH
	push	ebx
	push	esi
	push	edi
	push	ecx
	lea	edi, DWORD PTR [ebp-204]
	mov	ecx, 51					; 00000033H
	mov	eax, -858993460				; ccccccccH
	rep stosd
	pop	ecx
	mov	DWORD PTR _this$[ebp], ecx

; 232  : 		return orderedList.Size();

	mov	ecx, DWORD PTR _this$[ebp]
	call	?Size@?$List@UMapNode@?$Map@UPlayerIdAndGroupId@ConnectionGraph@@G$1??$defaultMapKeyComparison@UPlayerIdAndGroupId@ConnectionGraph@@@DataStructures@@YAHABU12@0@Z@DataStructures@@@DataStructures@@QBEIXZ ; DataStructures::List<DataStructures::Map<ConnectionGraph::PlayerIdAndGroupId,unsigned short,&DataStructures::defaultMapKeyComparison<ConnectionGraph::PlayerIdAndGroupId> >::MapNode>::Size

; 233  : 	}

	pop	edi
	pop	esi
	pop	ebx
	add	esp, 204				; 000000ccH
	cmp	ebp, esp
	call	__RTC_CheckEsp
	mov	esp, ebp
	pop	ebp
	ret	0
?Size@?$OrderedList@UPlayerIdAndGroupId@ConnectionGraph@@UMapNode@?$Map@UPlayerIdAndGroupId@ConnectionGraph@@G$1??$defaultMapKeyComparison@UPlayerIdAndGroupId@ConnectionGraph@@@DataStructures@@YAHABU12@0@Z@DataStructures@@$1?NodeComparisonFunc@45@SAHABU12@ABU345@@Z@DataStructures@@QBEIXZ ENDP ; DataStructures::OrderedList<ConnectionGraph::PlayerIdAndGroupId,DataStructures::Map<ConnectionGraph::PlayerIdAndGroupId,unsigned short,&DataStructures::defaultMapKeyComparison<ConnectionGraph::PlayerIdAndGroupId> >::MapNode,&DataStructures::Map<ConnectionGraph::PlayerIdAndGroupId,unsigned short,&DataStructures::defaultMapKeyComparison<ConnectionGraph::PlayerIdAndGroupId> >::NodeComparisonFunc>::Size
_TEXT	ENDS
; Function compile flags: /Odtp /RTCsu /ZI
; File z:\sampsrc\02xu1\raknet\ds_orderedlist.h
;	COMDAT ?Clear@?$OrderedList@UPlayerIdAndGroupId@ConnectionGraph@@UMapNode@?$Map@UPlayerIdAndGroupId@ConnectionGraph@@G$1??$defaultMapKeyComparison@UPlayerIdAndGroupId@ConnectionGraph@@@DataStructures@@YAHABU12@0@Z@DataStructures@@$1?NodeComparisonFunc@45@SAHABU12@ABU345@@Z@DataStructures@@QAEXXZ
_TEXT	SEGMENT
_this$ = -8						; size = 4
?Clear@?$OrderedList@UPlayerIdAndGroupId@ConnectionGraph@@UMapNode@?$Map@UPlayerIdAndGroupId@ConnectionGraph@@G$1??$defaultMapKeyComparison@UPlayerIdAndGroupId@ConnectionGraph@@@DataStructures@@YAHABU12@0@Z@DataStructures@@$1?NodeComparisonFunc@45@SAHABU12@ABU345@@Z@DataStructures@@QAEXXZ PROC ; DataStructures::OrderedList<ConnectionGraph::PlayerIdAndGroupId,DataStructures::Map<ConnectionGraph::PlayerIdAndGroupId,unsigned short,&DataStructures::defaultMapKeyComparison<ConnectionGraph::PlayerIdAndGroupId> >::MapNode,&DataStructures::Map<ConnectionGraph::PlayerIdAndGroupId,unsigned short,&DataStructures::defaultMapKeyComparison<ConnectionGraph::PlayerIdAndGroupId> >::NodeComparisonFunc>::Clear, COMDAT
; _this$ = ecx

; 219  : 	{

	push	ebp
	mov	ebp, esp
	sub	esp, 204				; 000000ccH
	push	ebx
	push	esi
	push	edi
	push	ecx
	lea	edi, DWORD PTR [ebp-204]
	mov	ecx, 51					; 00000033H
	mov	eax, -858993460				; ccccccccH
	rep stosd
	pop	ecx
	mov	DWORD PTR _this$[ebp], ecx

; 220  : 		orderedList.Clear();

	push	0
	mov	ecx, DWORD PTR _this$[ebp]
	call	?Clear@?$List@UMapNode@?$Map@UPlayerIdAndGroupId@ConnectionGraph@@G$1??$defaultMapKeyComparison@UPlayerIdAndGroupId@ConnectionGraph@@@DataStructures@@YAHABU12@0@Z@DataStructures@@@DataStructures@@QAEX_N@Z ; DataStructures::List<DataStructures::Map<ConnectionGraph::PlayerIdAndGroupId,unsigned short,&DataStructures::defaultMapKeyComparison<ConnectionGraph::PlayerIdAndGroupId> >::MapNode>::Clear

; 221  : 	}

	pop	edi
	pop	esi
	pop	ebx
	add	esp, 204				; 000000ccH
	cmp	ebp, esp
	call	__RTC_CheckEsp
	mov	esp, ebp
	pop	ebp
	ret	0
?Clear@?$OrderedList@UPlayerIdAndGroupId@ConnectionGraph@@UMapNode@?$Map@UPlayerIdAndGroupId@ConnectionGraph@@G$1??$defaultMapKeyComparison@UPlayerIdAndGroupId@ConnectionGraph@@@DataStructures@@YAHABU12@0@Z@DataStructures@@$1?NodeComparisonFunc@45@SAHABU12@ABU345@@Z@DataStructures@@QAEXXZ ENDP ; DataStructures::OrderedList<ConnectionGraph::PlayerIdAndGroupId,DataStructures::Map<ConnectionGraph::PlayerIdAndGroupId,unsigned short,&DataStructures::defaultMapKeyComparison<ConnectionGraph::PlayerIdAndGroupId> >::MapNode,&DataStructures::Map<ConnectionGraph::PlayerIdAndGroupId,unsigned short,&DataStructures::defaultMapKeyComparison<ConnectionGraph::PlayerIdAndGroupId> >::NodeComparisonFunc>::Clear
_TEXT	ENDS
; Function compile flags: /Odtp /RTCsu /ZI
; File z:\sampsrc\02xu1\raknet\ds_orderedlist.h
;	COMDAT ?RemoveAtIndex@?$OrderedList@UPlayerIdAndGroupId@ConnectionGraph@@UMapNode@?$Map@UPlayerIdAndGroupId@ConnectionGraph@@G$1??$defaultMapKeyComparison@UPlayerIdAndGroupId@ConnectionGraph@@@DataStructures@@YAHABU12@0@Z@DataStructures@@$1?NodeComparisonFunc@45@SAHABU12@ABU345@@Z@DataStructures@@QAEXI@Z
_TEXT	SEGMENT
_this$ = -8						; size = 4
_index$ = 8						; size = 4
?RemoveAtIndex@?$OrderedList@UPlayerIdAndGroupId@ConnectionGraph@@UMapNode@?$Map@UPlayerIdAndGroupId@ConnectionGraph@@G$1??$defaultMapKeyComparison@UPlayerIdAndGroupId@ConnectionGraph@@@DataStructures@@YAHABU12@0@Z@DataStructures@@$1?NodeComparisonFunc@45@SAHABU12@ABU345@@Z@DataStructures@@QAEXI@Z PROC ; DataStructures::OrderedList<ConnectionGraph::PlayerIdAndGroupId,DataStructures::Map<ConnectionGraph::PlayerIdAndGroupId,unsigned short,&DataStructures::defaultMapKeyComparison<ConnectionGraph::PlayerIdAndGroupId> >::MapNode,&DataStructures::Map<ConnectionGraph::PlayerIdAndGroupId,unsigned short,&DataStructures::defaultMapKeyComparison<ConnectionGraph::PlayerIdAndGroupId> >::NodeComparisonFunc>::RemoveAtIndex, COMDAT
; _this$ = ecx

; 195  : 	{

	push	ebp
	mov	ebp, esp
	sub	esp, 204				; 000000ccH
	push	ebx
	push	esi
	push	edi
	push	ecx
	lea	edi, DWORD PTR [ebp-204]
	mov	ecx, 51					; 00000033H
	mov	eax, -858993460				; ccccccccH
	rep stosd
	pop	ecx
	mov	DWORD PTR _this$[ebp], ecx

; 196  : 		orderedList.RemoveAtIndex(index);

	mov	eax, DWORD PTR _index$[ebp]
	push	eax
	mov	ecx, DWORD PTR _this$[ebp]
	call	?RemoveAtIndex@?$List@UMapNode@?$Map@UPlayerIdAndGroupId@ConnectionGraph@@G$1??$defaultMapKeyComparison@UPlayerIdAndGroupId@ConnectionGraph@@@DataStructures@@YAHABU12@0@Z@DataStructures@@@DataStructures@@QAEXI@Z ; DataStructures::List<DataStructures::Map<ConnectionGraph::PlayerIdAndGroupId,unsigned short,&DataStructures::defaultMapKeyComparison<ConnectionGraph::PlayerIdAndGroupId> >::MapNode>::RemoveAtIndex

; 197  : 	}

	pop	edi
	pop	esi
	pop	ebx
	add	esp, 204				; 000000ccH
	cmp	ebp, esp
	call	__RTC_CheckEsp
	mov	esp, ebp
	pop	ebp
	ret	4
?RemoveAtIndex@?$OrderedList@UPlayerIdAndGroupId@ConnectionGraph@@UMapNode@?$Map@UPlayerIdAndGroupId@ConnectionGraph@@G$1??$defaultMapKeyComparison@UPlayerIdAndGroupId@ConnectionGraph@@@DataStructures@@YAHABU12@0@Z@DataStructures@@$1?NodeComparisonFunc@45@SAHABU12@ABU345@@Z@DataStructures@@QAEXI@Z ENDP ; DataStructures::OrderedList<ConnectionGraph::PlayerIdAndGroupId,DataStructures::Map<ConnectionGraph::PlayerIdAndGroupId,unsigned short,&DataStructures::defaultMapKeyComparison<ConnectionGraph::PlayerIdAndGroupId> >::MapNode,&DataStructures::Map<ConnectionGraph::PlayerIdAndGroupId,unsigned short,&DataStructures::defaultMapKeyComparison<ConnectionGraph::PlayerIdAndGroupId> >::NodeComparisonFunc>::RemoveAtIndex
_TEXT	ENDS
; Function compile flags: /Odtp /RTCsu /ZI
; File z:\sampsrc\02xu1\raknet\ds_orderedlist.h
;	COMDAT ??A?$OrderedList@UPlayerIdAndGroupId@ConnectionGraph@@UMapNode@?$Map@UPlayerIdAndGroupId@ConnectionGraph@@G$1??$defaultMapKeyComparison@UPlayerIdAndGroupId@ConnectionGraph@@@DataStructures@@YAHABU12@0@Z@DataStructures@@$1?NodeComparisonFunc@45@SAHABU12@ABU345@@Z@DataStructures@@QBEAAUMapNode@?$Map@UPlayerIdAndGroupId@ConnectionGraph@@G$1??$defaultMapKeyComparison@UPlayerIdAndGroupId@ConnectionGraph@@@DataStructures@@YAHABU12@0@Z@1@I@Z
_TEXT	SEGMENT
_this$ = -8						; size = 4
_position$ = 8						; size = 4
??A?$OrderedList@UPlayerIdAndGroupId@ConnectionGraph@@UMapNode@?$Map@UPlayerIdAndGroupId@ConnectionGraph@@G$1??$defaultMapKeyComparison@UPlayerIdAndGroupId@ConnectionGraph@@@DataStructures@@YAHABU12@0@Z@DataStructures@@$1?NodeComparisonFunc@45@SAHABU12@ABU345@@Z@DataStructures@@QBEAAUMapNode@?$Map@UPlayerIdAndGroupId@ConnectionGraph@@G$1??$defaultMapKeyComparison@UPlayerIdAndGroupId@ConnectionGraph@@@DataStructures@@YAHABU12@0@Z@1@I@Z PROC ; DataStructures::OrderedList<ConnectionGraph::PlayerIdAndGroupId,DataStructures::Map<ConnectionGraph::PlayerIdAndGroupId,unsigned short,&DataStructures::defaultMapKeyComparison<ConnectionGraph::PlayerIdAndGroupId> >::MapNode,&DataStructures::Map<ConnectionGraph::PlayerIdAndGroupId,unsigned short,&DataStructures::defaultMapKeyComparison<ConnectionGraph::PlayerIdAndGroupId> >::NodeComparisonFunc>::operator[], COMDAT
; _this$ = ecx

; 225  : 	{

	push	ebp
	mov	ebp, esp
	sub	esp, 204				; 000000ccH
	push	ebx
	push	esi
	push	edi
	push	ecx
	lea	edi, DWORD PTR [ebp-204]
	mov	ecx, 51					; 00000033H
	mov	eax, -858993460				; ccccccccH
	rep stosd
	pop	ecx
	mov	DWORD PTR _this$[ebp], ecx

; 226  : 		return orderedList[position];

	mov	eax, DWORD PTR _position$[ebp]
	push	eax
	mov	ecx, DWORD PTR _this$[ebp]
	call	??A?$List@UMapNode@?$Map@UPlayerIdAndGroupId@ConnectionGraph@@G$1??$defaultMapKeyComparison@UPlayerIdAndGroupId@ConnectionGraph@@@DataStructures@@YAHABU12@0@Z@DataStructures@@@DataStructures@@QBEAAUMapNode@?$Map@UPlayerIdAndGroupId@ConnectionGraph@@G$1??$defaultMapKeyComparison@UPlayerIdAndGroupId@ConnectionGraph@@@DataStructures@@YAHABU12@0@Z@1@I@Z ; DataStructures::List<DataStructures::Map<ConnectionGraph::PlayerIdAndGroupId,unsigned short,&DataStructures::defaultMapKeyComparison<ConnectionGraph::PlayerIdAndGroupId> >::MapNode>::operator[]

; 227  : 	}

	pop	edi
	pop	esi
	pop	ebx
	add	esp, 204				; 000000ccH
	cmp	ebp, esp
	call	__RTC_CheckEsp
	mov	esp, ebp
	pop	ebp
	ret	4
??A?$OrderedList@UPlayerIdAndGroupId@ConnectionGraph@@UMapNode@?$Map@UPlayerIdAndGroupId@ConnectionGraph@@G$1??$defaultMapKeyComparison@UPlayerIdAndGroupId@ConnectionGraph@@@DataStructures@@YAHABU12@0@Z@DataStructures@@$1?NodeComparisonFunc@45@SAHABU12@ABU345@@Z@DataStructures@@QBEAAUMapNode@?$Map@UPlayerIdAndGroupId@ConnectionGraph@@G$1??$defaultMapKeyComparison@UPlayerIdAndGroupId@ConnectionGraph@@@DataStructures@@YAHABU12@0@Z@1@I@Z ENDP ; DataStructures::OrderedList<ConnectionGraph::PlayerIdAndGroupId,DataStructures::Map<ConnectionGraph::PlayerIdAndGroupId,unsigned short,&DataStructures::defaultMapKeyComparison<ConnectionGraph::PlayerIdAndGroupId> >::MapNode,&DataStructures::Map<ConnectionGraph::PlayerIdAndGroupId,unsigned short,&DataStructures::defaultMapKeyComparison<ConnectionGraph::PlayerIdAndGroupId> >::NodeComparisonFunc>::operator[]
_TEXT	ENDS
; Function compile flags: /Odtp /RTCsu /ZI
; File z:\sampsrc\02xu1\raknet\ds_orderedlist.h
;	COMDAT ?Insert@?$OrderedList@UPlayerIdAndGroupId@ConnectionGraph@@UMapNode@?$Map@UPlayerIdAndGroupId@ConnectionGraph@@G$1??$defaultMapKeyComparison@UPlayerIdAndGroupId@ConnectionGraph@@@DataStructures@@YAHABU12@0@Z@DataStructures@@$1?NodeComparisonFunc@45@SAHABU12@ABU345@@Z@DataStructures@@QAEIABUPlayerIdAndGroupId@ConnectionGraph@@ABUMapNode@?$Map@UPlayerIdAndGroupId@ConnectionGraph@@G$1??$defaultMapKeyComparison@UPlayerIdAndGroupId@ConnectionGraph@@@DataStructures@@YAHABU12@0@Z@2@@Z
_TEXT	SEGMENT
_index$ = -32						; size = 4
_objectExists$ = -17					; size = 1
_this$ = -8						; size = 4
_key$ = 8						; size = 4
_data$ = 12						; size = 4
?Insert@?$OrderedList@UPlayerIdAndGroupId@ConnectionGraph@@UMapNode@?$Map@UPlayerIdAndGroupId@ConnectionGraph@@G$1??$defaultMapKeyComparison@UPlayerIdAndGroupId@ConnectionGraph@@@DataStructures@@YAHABU12@0@Z@DataStructures@@$1?NodeComparisonFunc@45@SAHABU12@ABU345@@Z@DataStructures@@QAEIABUPlayerIdAndGroupId@ConnectionGraph@@ABUMapNode@?$Map@UPlayerIdAndGroupId@ConnectionGraph@@G$1??$defaultMapKeyComparison@UPlayerIdAndGroupId@ConnectionGraph@@@DataStructures@@YAHABU12@0@Z@2@@Z PROC ; DataStructures::OrderedList<ConnectionGraph::PlayerIdAndGroupId,DataStructures::Map<ConnectionGraph::PlayerIdAndGroupId,unsigned short,&DataStructures::defaultMapKeyComparison<ConnectionGraph::PlayerIdAndGroupId> >::MapNode,&DataStructures::Map<ConnectionGraph::PlayerIdAndGroupId,unsigned short,&DataStructures::defaultMapKeyComparison<ConnectionGraph::PlayerIdAndGroupId> >::NodeComparisonFunc>::Insert, COMDAT
; _this$ = ecx

; 156  : 	{

	push	ebp
	mov	ebp, esp
	sub	esp, 228				; 000000e4H
	push	ebx
	push	esi
	push	edi
	push	ecx
	lea	edi, DWORD PTR [ebp-228]
	mov	ecx, 57					; 00000039H
	mov	eax, -858993460				; ccccccccH
	rep stosd
	pop	ecx
	mov	DWORD PTR _this$[ebp], ecx

; 157  : 		bool objectExists;
; 158  : 		unsigned index;
; 159  : 		index = GetIndexFromKey(key, &objectExists);

	lea	eax, DWORD PTR _objectExists$[ebp]
	push	eax
	mov	ecx, DWORD PTR _key$[ebp]
	push	ecx
	mov	ecx, DWORD PTR _this$[ebp]
