; Listing generated by Microsoft (R) Optimizing Compiler Version 18.00.31101.0 

	TITLE	Z:\sampsrc\02Xu1\saco\d3d9\common\DXUTmisc.cpp
	.686P
	.XMM
	include listing.inc
	.model	flat

INCLUDELIB LIBCMTD
INCLUDELIB OLDNAMES

PUBLIC	?s_pd3dDevice@CDXUTDirectionWidget@@1PAUIDirect3DDevice9@@A ; CDXUTDirectionWidget::s_pd3dDevice
PUBLIC	?s_pEffect@CDXUTDirectionWidget@@1PAUID3DXEffect@@A ; CDXUTDirectionWidget::s_pEffect
PUBLIC	?s_pMesh@CDXUTDirectionWidget@@1PAUID3DXMesh@@A	; CDXUTDirectionWidget::s_pMesh
_BSS	SEGMENT
_s_hModD3D9 DD	01H DUP (?)
_s_DynamicDirect3DCreate9 DD 01H DUP (?)
_s_DynamicD3DPERF_BeginEvent DD 01H DUP (?)
_s_DynamicD3DPERF_EndEvent DD 01H DUP (?)
_s_DynamicD3DPERF_SetMarker DD 01H DUP (?)
_s_DynamicD3DPERF_SetRegion DD 01H DUP (?)
_s_DynamicD3DPERF_QueryRepeatFrame DD 01H DUP (?)
_s_DynamicD3DPERF_SetOptions DD 01H DUP (?)
_s_DynamicD3DPERF_GetStatus DD 01H DUP (?)
?s_pd3dDevice@CDXUTDirectionWidget@@1PAUIDirect3DDevice9@@A DD 01H DUP (?) ; CDXUTDirectionWidget::s_pd3dDevice
?s_pEffect@CDXUTDirectionWidget@@1PAUID3DXEffect@@A DD 01H DUP (?) ; CDXUTDirectionWidget::s_pEffect
?s_pMesh@CDXUTDirectionWidget@@1PAUID3DXMesh@@A DD 01H DUP (?) ; CDXUTDirectionWidget::s_pMesh
?s_strMediaSearchPath@?1??DXUTMediaSearchPath@@YAPADXZ@4PADA DB 0104H DUP (?) ; `DXUTMediaSearchPath'::`2'::s_strMediaSearchPath
_BSS	ENDS
PUBLIC	??_H@YGXPAXIHP6EPAX0@Z@Z			; `vector constructor iterator'
PUBLIC	?strrchr@@YAPADPADH@Z				; strrchr
PUBLIC	?strstr@@YAPADPADPBD@Z				; strstr
PUBLIC	??2@YAPAXIPAX@Z					; operator new
PUBLIC	_atan2f
PUBLIC	_sqrtf
PUBLIC	??0D3DXVECTOR2@@QAE@XZ				; D3DXVECTOR2::D3DXVECTOR2
PUBLIC	??0D3DXVECTOR2@@QAE@MM@Z			; D3DXVECTOR2::D3DXVECTOR2
PUBLIC	??DD3DXVECTOR2@@QBE?AU0@M@Z			; D3DXVECTOR2::operator*
PUBLIC	??0D3DXVECTOR3@@QAE@XZ				; D3DXVECTOR3::D3DXVECTOR3
PUBLIC	??0D3DXVECTOR3@@QAE@MMM@Z			; D3DXVECTOR3::D3DXVECTOR3
PUBLIC	??YD3DXVECTOR3@@QAEAAU0@ABU0@@Z			; D3DXVECTOR3::operator+=
PUBLIC	??ZD3DXVECTOR3@@QAEAAU0@ABU0@@Z			; D3DXVECTOR3::operator-=
PUBLIC	??XD3DXVECTOR3@@QAEAAU0@M@Z			; D3DXVECTOR3::operator*=
PUBLIC	??HD3DXVECTOR3@@QBE?AU0@ABU0@@Z			; D3DXVECTOR3::operator+
PUBLIC	??GD3DXVECTOR3@@QBE?AU0@ABU0@@Z			; D3DXVECTOR3::operator-
PUBLIC	??DD3DXVECTOR3@@QBE?AU0@M@Z			; D3DXVECTOR3::operator*
PUBLIC	??KD3DXVECTOR3@@QBE?AU0@M@Z			; D3DXVECTOR3::operator/
PUBLIC	??0D3DXMATRIX@@QAE@XZ				; D3DXMATRIX::D3DXMATRIX
PUBLIC	??XD3DXMATRIX@@QAEAAU0@ABU0@@Z			; D3DXMATRIX::operator*=
PUBLIC	??DD3DXMATRIX@@QBE?AU0@ABU0@@Z			; D3DXMATRIX::operator*
PUBLIC	??0_D3DXMATRIXA16@@QAE@XZ			; _D3DXMATRIXA16::_D3DXMATRIXA16
PUBLIC	??4_D3DXMATRIXA16@@QAEAAU0@ABUD3DXMATRIX@@@Z	; _D3DXMATRIXA16::operator=
PUBLIC	??0D3DXQUATERNION@@QAE@XZ			; D3DXQUATERNION::D3DXQUATERNION
PUBLIC	??0D3DXQUATERNION@@QAE@MMMM@Z			; D3DXQUATERNION::D3DXQUATERNION
PUBLIC	??DD3DXQUATERNION@@QBE?AU0@ABU0@@Z		; D3DXQUATERNION::operator*
PUBLIC	??0D3DXCOLOR@@QAE@XZ				; D3DXCOLOR::D3DXCOLOR
PUBLIC	??0D3DXCOLOR@@QAE@MMMM@Z			; D3DXCOLOR::D3DXCOLOR
PUBLIC	??BD3DXCOLOR@@QBEKXZ				; D3DXCOLOR::operator unsigned long
PUBLIC	?D3DXVec3Length@@YAMPBUD3DXVECTOR3@@@Z		; D3DXVec3Length
PUBLIC	?D3DXVec3LengthSq@@YAMPBUD3DXVECTOR3@@@Z	; D3DXVec3LengthSq
PUBLIC	?D3DXVec3Dot@@YAMPBUD3DXVECTOR3@@0@Z		; D3DXVec3Dot
PUBLIC	?D3DXVec3Cross@@YAPAUD3DXVECTOR3@@PAU1@PBU1@1@Z	; D3DXVec3Cross
PUBLIC	?D3DXVec3Subtract@@YAPAUD3DXVECTOR3@@PAU1@PBU1@1@Z ; D3DXVec3Subtract
PUBLIC	?D3DXMatrixIdentity@@YAPAUD3DXMATRIX@@PAU1@@Z	; D3DXMatrixIdentity
PUBLIC	?D3DXQuaternionIdentity@@YAPAUD3DXQUATERNION@@PAU1@@Z ; D3DXQuaternionIdentity
PUBLIC	?DXTraceWrapper@@YGJPBDKJ0H@Z			; DXTraceWrapper
PUBLIC	?StringCopyWorkerA@@YGJPADIPBD@Z		; StringCopyWorkerA
PUBLIC	?StringCatWorkerA@@YGJPADIPBD@Z			; StringCatWorkerA
PUBLIC	?StringVPrintfWorkerA@@YGJPADIPBD0@Z		; StringVPrintfWorkerA
PUBLIC	?StringLengthWorkerA@@YGJPBDIPAI@Z		; StringLengthWorkerA
PUBLIC	?StringCchCopyA@@YGJPADIPBD@Z			; StringCchCopyA
PUBLIC	?StringCchCatA@@YGJPADIPBD@Z			; StringCchCatA
PUBLIC	?StringCchVPrintfA@@YGJPADIPBD0@Z		; StringCchVPrintfA
PUBLIC	?StringCchPrintfA@@YAJPADIPBDZZ			; StringCchPrintfA
PUBLIC	?StringCchLengthA@@YGJPBDIPAI@Z			; StringCchLengthA
PUBLIC	??0CDXUTTimer@@QAE@XZ				; CDXUTTimer::CDXUTTimer
PUBLIC	?Reset@CDXUTTimer@@QAEXXZ			; CDXUTTimer::Reset
PUBLIC	?Start@CDXUTTimer@@QAEXXZ			; CDXUTTimer::Start
PUBLIC	?Stop@CDXUTTimer@@QAEXXZ			; CDXUTTimer::Stop
PUBLIC	?Advance@CDXUTTimer@@QAEXXZ			; CDXUTTimer::Advance
PUBLIC	?GetAbsoluteTime@CDXUTTimer@@QAENXZ		; CDXUTTimer::GetAbsoluteTime
PUBLIC	?GetTime@CDXUTTimer@@QAENXZ			; CDXUTTimer::GetTime
PUBLIC	?GetElapsedTime@CDXUTTimer@@QAENXZ		; CDXUTTimer::GetElapsedTime
PUBLIC	?IsStopped@CDXUTTimer@@QAE_NXZ			; CDXUTTimer::IsStopped
PUBLIC	?DXUTGetGlobalTimer@@YAPAVCDXUTTimer@@XZ	; DXUTGetGlobalTimer
PUBLIC	??1CDXUTResourceCache@@QAE@XZ			; CDXUTResourceCache::~CDXUTResourceCache
PUBLIC	?CreateTextureFromFile@CDXUTResourceCache@@QAEJPAUIDirect3DDevice9@@PBDPAPAUIDirect3DTexture9@@@Z ; CDXUTResourceCache::CreateTextureFromFile
PUBLIC	?CreateTextureFromFileEx@CDXUTResourceCache@@QAEJPAUIDirect3DDevice9@@PBDIIIKW4_D3DFORMAT@@W4_D3DPOOL@@KKKPAU_D3DXIMAGE_INFO@@PAUtagPALETTEENTRY@@PAPAUIDirect3DTexture9@@@Z ; CDXUTResourceCache::CreateTextureFromFileEx
PUBLIC	?CreateTextureFromResource@CDXUTResourceCache@@QAEJPAUIDirect3DDevice9@@PAUHINSTANCE__@@PBDPAPAUIDirect3DTexture9@@@Z ; CDXUTResourceCache::CreateTextureFromResource
PUBLIC	?CreateTextureFromResourceEx@CDXUTResourceCache@@QAEJPAUIDirect3DDevice9@@PAUHINSTANCE__@@PBDIIIKW4_D3DFORMAT@@W4_D3DPOOL@@KKKPAU_D3DXIMAGE_INFO@@PAUtagPALETTEENTRY@@PAPAUIDirect3DTexture9@@@Z ; CDXUTResourceCache::CreateTextureFromResourceEx
PUBLIC	?CreateCubeTextureFromFile@CDXUTResourceCache@@QAEJPAUIDirect3DDevice9@@PBDPAPAUIDirect3DCubeTexture9@@@Z ; CDXUTResourceCache::CreateCubeTextureFromFile
PUBLIC	?CreateCubeTextureFromFileEx@CDXUTResourceCache@@QAEJPAUIDirect3DDevice9@@PBDIIKW4_D3DFORMAT@@W4_D3DPOOL@@KKKPAU_D3DXIMAGE_INFO@@PAUtagPALETTEENTRY@@PAPAUIDirect3DCubeTexture9@@@Z ; CDXUTResourceCache::CreateCubeTextureFromFileEx
PUBLIC	?CreateCubeTextureFromResource@CDXUTResourceCache@@QAEJPAUIDirect3DDevice9@@PAUHINSTANCE__@@PBDPAPAUIDirect3DCubeTexture9@@@Z ; CDXUTResourceCache::CreateCubeTextureFromResource
PUBLIC	?CreateCubeTextureFromResourceEx@CDXUTResourceCache@@QAEJPAUIDirect3DDevice9@@PAUHINSTANCE__@@PBDIIKW4_D3DFORMAT@@W4_D3DPOOL@@KKKPAU_D3DXIMAGE_INFO@@PAUtagPALETTEENTRY@@PAPAUIDirect3DCubeTexture9@@@Z ; CDXUTResourceCache::CreateCubeTextureFromResourceEx
PUBLIC	?CreateVolumeTextureFromFile@CDXUTResourceCache@@QAEJPAUIDirect3DDevice9@@PBDPAPAUIDirect3DVolumeTexture9@@@Z ; CDXUTResourceCache::CreateVolumeTextureFromFile
PUBLIC	?CreateVolumeTextureFromFileEx@CDXUTResourceCache@@QAEJPAUIDirect3DDevice9@@PBDIIIIKW4_D3DFORMAT@@W4_D3DPOOL@@KKKPAU_D3DXIMAGE_INFO@@PAUtagPALETTEENTRY@@PAPAUIDirect3DVolumeTexture9@@@Z ; CDXUTResourceCache::CreateVolumeTextureFromFileEx
PUBLIC	?CreateVolumeTextureFromResource@CDXUTResourceCache@@QAEJPAUIDirect3DDevice9@@PAUHINSTANCE__@@PBDPAPAUIDirect3DVolumeTexture9@@@Z ; CDXUTResourceCache::CreateVolumeTextureFromResource
PUBLIC	?CreateVolumeTextureFromResourceEx@CDXUTResourceCache@@QAEJPAUIDirect3DDevice9@@PAUHINSTANCE__@@PBDIIIIKW4_D3DFORMAT@@W4_D3DPOOL@@KKKPAU_D3DXIMAGE_INFO@@PAUtagPALETTEENTRY@@PAPAUIDirect3DVolumeTexture9@@@Z ; CDXUTResourceCache::CreateVolumeTextureFromResourceEx
PUBLIC	?CreateFontA@CDXUTResourceCache@@QAEJPAUIDirect3DDevice9@@IIIIHKKKKPBDPAPAUID3DXFont@@@Z ; CDXUTResourceCache::CreateFontA
PUBLIC	?CreateFontIndirectA@CDXUTResourceCache@@QAEJPAUIDirect3DDevice9@@PBU_D3DXFONT_DESCA@@PAPAUID3DXFont@@@Z ; CDXUTResourceCache::CreateFontIndirectA
PUBLIC	?CreateEffectFromFile@CDXUTResourceCache@@QAEJPAUIDirect3DDevice9@@PBDPBU_D3DXMACRO@@PAUID3DXInclude@@KPAUID3DXEffectPool@@PAPAUID3DXEffect@@PAPAUID3DXBuffer@@@Z ; CDXUTResourceCache::CreateEffectFromFile
PUBLIC	?CreateEffectFromResource@CDXUTResourceCache@@QAEJPAUIDirect3DDevice9@@PAUHINSTANCE__@@PBDPBU_D3DXMACRO@@PAUID3DXInclude@@KPAUID3DXEffectPool@@PAPAUID3DXEffect@@PAPAUID3DXBuffer@@@Z ; CDXUTResourceCache::CreateEffectFromResource
PUBLIC	?OnCreateDevice@CDXUTResourceCache@@QAEJPAUIDirect3DDevice9@@@Z ; CDXUTResourceCache::OnCreateDevice
PUBLIC	?OnResetDevice@CDXUTResourceCache@@QAEJPAUIDirect3DDevice9@@@Z ; CDXUTResourceCache::OnResetDevice
PUBLIC	?OnLostDevice@CDXUTResourceCache@@QAEJXZ	; CDXUTResourceCache::OnLostDevice
PUBLIC	?OnDestroyDevice@CDXUTResourceCache@@QAEJXZ	; CDXUTResourceCache::OnDestroyDevice
PUBLIC	?DXUTGetGlobalResourceCache@@YAAAVCDXUTResourceCache@@XZ ; DXUTGetGlobalResourceCache
PUBLIC	??0CDXUTResourceCache@@IAE@XZ			; CDXUTResourceCache::CDXUTResourceCache
PUBLIC	??0?$CGrowableArray@UDXUTCache_Texture@@@@QAE@XZ ; CGrowableArray<DXUTCache_Texture>::CGrowableArray<DXUTCache_Texture>
PUBLIC	??1?$CGrowableArray@UDXUTCache_Texture@@@@QAE@XZ ; CGrowableArray<DXUTCache_Texture>::~CGrowableArray<DXUTCache_Texture>
PUBLIC	??A?$CGrowableArray@UDXUTCache_Texture@@@@QAEAAUDXUTCache_Texture@@H@Z ; CGrowableArray<DXUTCache_Texture>::operator[]
PUBLIC	?SetSize@?$CGrowableArray@UDXUTCache_Texture@@@@QAEJH@Z ; CGrowableArray<DXUTCache_Texture>::SetSize
PUBLIC	?Add@?$CGrowableArray@UDXUTCache_Texture@@@@QAEJABUDXUTCache_Texture@@@Z ; CGrowableArray<DXUTCache_Texture>::Add
PUBLIC	?GetAt@?$CGrowableArray@UDXUTCache_Texture@@@@QAEAAUDXUTCache_Texture@@H@Z ; CGrowableArray<DXUTCache_Texture>::GetAt
PUBLIC	?GetSize@?$CGrowableArray@UDXUTCache_Texture@@@@QBEHXZ ; CGrowableArray<DXUTCache_Texture>::GetSize
PUBLIC	?Remove@?$CGrowableArray@UDXUTCache_Texture@@@@QAEJH@Z ; CGrowableArray<DXUTCache_Texture>::Remove
PUBLIC	?RemoveAll@?$CGrowableArray@UDXUTCache_Texture@@@@QAEXXZ ; CGrowableArray<DXUTCache_Texture>::RemoveAll
PUBLIC	?SetSizeInternal@?$CGrowableArray@UDXUTCache_Texture@@@@IAEJH@Z ; CGrowableArray<DXUTCache_Texture>::SetSizeInternal
PUBLIC	??0?$CGrowableArray@UDXUTCache_Effect@@@@QAE@XZ	; CGrowableArray<DXUTCache_Effect>::CGrowableArray<DXUTCache_Effect>
PUBLIC	??1?$CGrowableArray@UDXUTCache_Effect@@@@QAE@XZ	; CGrowableArray<DXUTCache_Effect>::~CGrowableArray<DXUTCache_Effect>
PUBLIC	??A?$CGrowableArray@UDXUTCache_Effect@@@@QAEAAUDXUTCache_Effect@@H@Z ; CGrowableArray<DXUTCache_Effect>::operator[]
PUBLIC	?SetSize@?$CGrowableArray@UDXUTCache_Effect@@@@QAEJH@Z ; CGrowableArray<DXUTCache_Effect>::SetSize
PUBLIC	?Add@?$CGrowableArray@UDXUTCache_Effect@@@@QAEJABUDXUTCache_Effect@@@Z ; CGrowableArray<DXUTCache_Effect>::Add
PUBLIC	?GetAt@?$CGrowableArray@UDXUTCache_Effect@@@@QAEAAUDXUTCache_Effect@@H@Z ; CGrowableArray<DXUTCache_Effect>::GetAt
PUBLIC	?GetSize@?$CGrowableArray@UDXUTCache_Effect@@@@QBEHXZ ; CGrowableArray<DXUTCache_Effect>::GetSize
PUBLIC	?Remove@?$CGrowableArray@UDXUTCache_Effect@@@@QAEJH@Z ; CGrowableArray<DXUTCache_Effect>::Remove
PUBLIC	?RemoveAll@?$CGrowableArray@UDXUTCache_Effect@@@@QAEXXZ ; CGrowableArray<DXUTCache_Effect>::RemoveAll
PUBLIC	?SetSizeInternal@?$CGrowableArray@UDXUTCache_Effect@@@@IAEJH@Z ; CGrowableArray<DXUTCache_Effect>::SetSizeInternal
PUBLIC	??0?$CGrowableArray@UDXUTCache_Font@@@@QAE@XZ	; CGrowableArray<DXUTCache_Font>::CGrowableArray<DXUTCache_Font>
PUBLIC	??1?$CGrowableArray@UDXUTCache_Font@@@@QAE@XZ	; CGrowableArray<DXUTCache_Font>::~CGrowableArray<DXUTCache_Font>
PUBLIC	??A?$CGrowableArray@UDXUTCache_Font@@@@QAEAAUDXUTCache_Font@@H@Z ; CGrowableArray<DXUTCache_Font>::operator[]
PUBLIC	?SetSize@?$CGrowableArray@UDXUTCache_Font@@@@QAEJH@Z ; CGrowableArray<DXUTCache_Font>::SetSize
PUBLIC	?Add@?$CGrowableArray@UDXUTCache_Font@@@@QAEJABUDXUTCache_Font@@@Z ; CGrowableArray<DXUTCache_Font>::Add
PUBLIC	?GetAt@?$CGrowableArray@UDXUTCache_Font@@@@QAEAAUDXUTCache_Font@@H@Z ; CGrowableArray<DXUTCache_Font>::GetAt
PUBLIC	?GetSize@?$CGrowableArray@UDXUTCache_Font@@@@QBEHXZ ; CGrowableArray<DXUTCache_Font>::GetSize
PUBLIC	?Remove@?$CGrowableArray@UDXUTCache_Font@@@@QAEJH@Z ; CGrowableArray<DXUTCache_Font>::Remove
PUBLIC	?RemoveAll@?$CGrowableArray@UDXUTCache_Font@@@@QAEXXZ ; CGrowableArray<DXUTCache_Font>::RemoveAll
PUBLIC	?SetSizeInternal@?$CGrowableArray@UDXUTCache_Font@@@@IAEJH@Z ; CGrowableArray<DXUTCache_Font>::SetSizeInternal
PUBLIC	??0CD3DArcBall@@QAE@XZ				; CD3DArcBall::CD3DArcBall
PUBLIC	?Reset@CD3DArcBall@@QAEXXZ			; CD3DArcBall::Reset
PUBLIC	?SetWindow@CD3DArcBall@@QAEXHHM@Z		; CD3DArcBall::SetWindow
PUBLIC	?SetOffset@CD3DArcBall@@QAEXHH@Z		; CD3DArcBall::SetOffset
PUBLIC	?OnBegin@CD3DArcBall@@QAEXHH@Z			; CD3DArcBall::OnBegin
PUBLIC	?OnMove@CD3DArcBall@@QAEXHH@Z			; CD3DArcBall::OnMove
PUBLIC	?OnEnd@CD3DArcBall@@QAEXXZ			; CD3DArcBall::OnEnd
PUBLIC	?HandleMessages@CD3DArcBall@@QAEJPAUHWND__@@IIJ@Z ; CD3DArcBall::HandleMessages
PUBLIC	?GetRotationMatrix@CD3DArcBall@@QAEPBUD3DXMATRIX@@XZ ; CD3DArcBall::GetRotationMatrix
PUBLIC	?IsBeingDragged@CD3DArcBall@@QBE_NXZ		; CD3DArcBall::IsBeingDragged
PUBLIC	?SetQuatNow@CD3DArcBall@@QAEXUD3DXQUATERNION@@@Z ; CD3DArcBall::SetQuatNow
PUBLIC	?QuatFromBallPoints@CD3DArcBall@@SA?AUD3DXQUATERNION@@ABUD3DXVECTOR3@@0@Z ; CD3DArcBall::QuatFromBallPoints
PUBLIC	?ScreenToVector@CD3DArcBall@@IAE?AUD3DXVECTOR3@@MM@Z ; CD3DArcBall::ScreenToVector
PUBLIC	??0CBaseCamera@@QAE@XZ				; CBaseCamera::CBaseCamera
PUBLIC	?HandleMessages@CBaseCamera@@UAEJPAUHWND__@@IIJ@Z ; CBaseCamera::HandleMessages
PUBLIC	?Reset@CBaseCamera@@UAEXXZ			; CBaseCamera::Reset
PUBLIC	?SetViewParams@CBaseCamera@@UAEXPAUD3DXVECTOR3@@0@Z ; CBaseCamera::SetViewParams
PUBLIC	?SetProjParams@CBaseCamera@@UAEXMMMM@Z		; CBaseCamera::SetProjParams
PUBLIC	?SetDragRect@CBaseCamera@@UAEXAAUtagRECT@@@Z	; CBaseCamera::SetDragRect
PUBLIC	?MapKey@CBaseCamera@@MAE?AW4D3DUtil_CameraKeys@@I@Z ; CBaseCamera::MapKey
PUBLIC	?IsKeyDown@CBaseCamera@@IBE_NE@Z		; CBaseCamera::IsKeyDown
PUBLIC	?ConstrainToBoundary@CBaseCamera@@IAEXPAUD3DXVECTOR3@@@Z ; CBaseCamera::ConstrainToBoundary
PUBLIC	?UpdateMouseDelta@CBaseCamera@@IAEXM@Z		; CBaseCamera::UpdateMouseDelta
PUBLIC	?UpdateVelocity@CBaseCamera@@IAEXM@Z		; CBaseCamera::UpdateVelocity
PUBLIC	??0CFirstPersonCamera@@QAE@XZ			; CFirstPersonCamera::CFirstPersonCamera
PUBLIC	?FrameMove@CFirstPersonCamera@@UAEXM@Z		; CFirstPersonCamera::FrameMove
PUBLIC	?SetRotateButtons@CFirstPersonCamera@@QAEX_N00@Z ; CFirstPersonCamera::SetRotateButtons
PUBLIC	??0CModelViewerCamera@@QAE@XZ			; CModelViewerCamera::CModelViewerCamera
PUBLIC	?HandleMessages@CModelViewerCamera@@UAEJPAUHWND__@@IIJ@Z ; CModelViewerCamera::HandleMessages
PUBLIC	?FrameMove@CModelViewerCamera@@UAEXM@Z		; CModelViewerCamera::FrameMove
PUBLIC	?SetDragRect@CModelViewerCamera@@UAEXAAUtagRECT@@@Z ; CModelViewerCamera::SetDragRect
PUBLIC	?Reset@CModelViewerCamera@@UAEXXZ		; CModelViewerCamera::Reset
PUBLIC	?SetViewParams@CModelViewerCamera@@UAEXPAUD3DXVECTOR3@@0@Z ; CModelViewerCamera::SetViewParams
PUBLIC	?SetWindow@CModelViewerCamera@@QAEXHHM@Z	; CModelViewerCamera::SetWindow
PUBLIC	?SetRadius@CModelViewerCamera@@QAEXMMM@Z	; CModelViewerCamera::SetRadius
PUBLIC	??0CDXUTTextHelper@@QAE@PAUID3DXFont@@PAUID3DXSprite@@H@Z ; CDXUTTextHelper::CDXUTTextHelper
PUBLIC	?Begin@CDXUTTextHelper@@QAEXXZ			; CDXUTTextHelper::Begin
PUBLIC	?DrawFormattedTextLine@CDXUTTextHelper@@QAAJPBDZZ ; CDXUTTextHelper::DrawFormattedTextLine
PUBLIC	?DrawTextLine@CDXUTTextHelper@@QAEJPBD@Z	; CDXUTTextHelper::DrawTextLine
PUBLIC	?DrawFormattedTextLine@CDXUTTextHelper@@QAAJAAUtagRECT@@KPBDZZ ; CDXUTTextHelper::DrawFormattedTextLine
PUBLIC	?DrawTextLine@CDXUTTextHelper@@QAEJAAUtagRECT@@KPBD@Z ; CDXUTTextHelper::DrawTextLine
PUBLIC	?End@CDXUTTextHelper@@QAEXXZ			; CDXUTTextHelper::End
PUBLIC	??0CDXUTLineManager@@QAE@XZ			; CDXUTLineManager::CDXUTLineManager
PUBLIC	??1CDXUTLineManager@@QAE@XZ			; CDXUTLineManager::~CDXUTLineManager
PUBLIC	?OnCreatedDevice@CDXUTLineManager@@QAEJPAUIDirect3DDevice9@@@Z ; CDXUTLineManager::OnCreatedDevice
PUBLIC	?OnResetDevice@CDXUTLineManager@@QAEJXZ		; CDXUTLineManager::OnResetDevice
PUBLIC	?OnRender@CDXUTLineManager@@QAEJXZ		; CDXUTLineManager::OnRender
PUBLIC	?OnLostDevice@CDXUTLineManager@@QAEJXZ		; CDXUTLineManager::OnLostDevice
PUBLIC	?OnDeletedDevice@CDXUTLineManager@@QAEJXZ	; CDXUTLineManager::OnDeletedDevice
PUBLIC	?AddLine@CDXUTLineManager@@QAEJPAHPAUD3DXVECTOR2@@KKMM_N@Z ; CDXUTLineManager::AddLine
PUBLIC	?AddRect@CDXUTLineManager@@QAEJPAHUtagRECT@@KMM_N@Z ; CDXUTLineManager::AddRect
PUBLIC	?RemoveLine@CDXUTLineManager@@QAEJH@Z		; CDXUTLineManager::RemoveLine
PUBLIC	?RemoveAllLines@CDXUTLineManager@@QAEJXZ	; CDXUTLineManager::RemoveAllLines
PUBLIC	??0?$CGrowableArray@PAULINE_NODE@CDXUTLineManager@@@@QAE@XZ ; CGrowableArray<CDXUTLineManager::LINE_NODE *>::CGrowableArray<CDXUTLineManager::LINE_NODE *>
PUBLIC	??1?$CGrowableArray@PAULINE_NODE@CDXUTLineManager@@@@QAE@XZ ; CGrowableArray<CDXUTLineManager::LINE_NODE *>::~CGrowableArray<CDXUTLineManager::LINE_NODE *>
PUBLIC	?SetSize@?$CGrowableArray@PAULINE_NODE@CDXUTLineManager@@@@QAEJH@Z ; CGrowableArray<CDXUTLineManager::LINE_NODE *>::SetSize
PUBLIC	?Add@?$CGrowableArray@PAULINE_NODE@CDXUTLineManager@@@@QAEJABQAULINE_NODE@CDXUTLineManager@@@Z ; CGrowableArray<CDXUTLineManager::LINE_NODE *>::Add
PUBLIC	?SetAt@?$CGrowableArray@PAULINE_NODE@CDXUTLineManager@@@@QAEJHABQAULINE_NODE@CDXUTLineManager@@@Z ; CGrowableArray<CDXUTLineManager::LINE_NODE *>::SetAt
PUBLIC	?GetAt@?$CGrowableArray@PAULINE_NODE@CDXUTLineManager@@@@QAEAAPAULINE_NODE@CDXUTLineManager@@H@Z ; CGrowableArray<CDXUTLineManager::LINE_NODE *>::GetAt
PUBLIC	?GetSize@?$CGrowableArray@PAULINE_NODE@CDXUTLineManager@@@@QBEHXZ ; CGrowableArray<CDXUTLineManager::LINE_NODE *>::GetSize
PUBLIC	?RemoveAll@?$CGrowableArray@PAULINE_NODE@CDXUTLineManager@@@@QAEXXZ ; CGrowableArray<CDXUTLineManager::LINE_NODE *>::RemoveAll
PUBLIC	?SetSizeInternal@?$CGrowableArray@PAULINE_NODE@CDXUTLineManager@@@@IAEJH@Z ; CGrowableArray<CDXUTLineManager::LINE_NODE *>::SetSizeInternal
PUBLIC	??0CDXUTDirectionWidget@@QAE@XZ			; CDXUTDirectionWidget::CDXUTDirectionWidget
PUBLIC	?StaticOnCreateDevice@CDXUTDirectionWidget@@SAJPAUIDirect3DDevice9@@@Z ; CDXUTDirectionWidget::StaticOnCreateDevice
PUBLIC	?OnResetDevice@CDXUTDirectionWidget@@QAEJPBU_D3DSURFACE_DESC@@@Z ; CDXUTDirectionWidget::OnResetDevice
PUBLIC	?OnRender@CDXUTDirectionWidget@@QAEJUD3DXCOLOR@@PBUD3DXMATRIX@@1PBUD3DXVECTOR3@@@Z ; CDXUTDirectionWidget::OnRender
PUBLIC	?HandleMessages@CDXUTDirectionWidget@@QAEJPAUHWND__@@IIJ@Z ; CDXUTDirectionWidget::HandleMessages
PUBLIC	?StaticOnLostDevice@CDXUTDirectionWidget@@SAXXZ	; CDXUTDirectionWidget::StaticOnLostDevice
PUBLIC	?StaticOnDestroyDevice@CDXUTDirectionWidget@@SAXXZ ; CDXUTDirectionWidget::StaticOnDestroyDevice
PUBLIC	?UpdateLightDir@CDXUTDirectionWidget@@IAEJXZ	; CDXUTDirectionWidget::UpdateLightDir
PUBLIC	?DXUTDisplaySwitchingToREFWarning@@YAXXZ	; DXUTDisplaySwitchingToREFWarning
PUBLIC	?DXUTFindDXSDKMediaFileCch@@YAJPADHPBD@Z	; DXUTFindDXSDKMediaFileCch
PUBLIC	?DXUTSetMediaSearchPath@@YAJPBD@Z		; DXUTSetMediaSearchPath
PUBLIC	?DXUTGetMediaSearchPath@@YAPBDXZ		; DXUTGetMediaSearchPath
PUBLIC	?DXUTD3DFormatToString@@YAPBDW4_D3DFORMAT@@_N@Z	; DXUTD3DFormatToString
PUBLIC	?DXUTGetCubeMapViewMatrix@@YA?AUD3DXMATRIX@@K@Z	; DXUTGetCubeMapViewMatrix
PUBLIC	?DXUTOutputDebugStringW@@YAXPBDZZ		; DXUTOutputDebugStringW
PUBLIC	?DXUTOutputDebugStringA@@YAXPBDZZ		; DXUTOutputDebugStringA
PUBLIC	?DXUT_Dynamic_Direct3DCreate9@@YGPAUIDirect3D9@@I@Z ; DXUT_Dynamic_Direct3DCreate9
PUBLIC	?DXUT_Dynamic_D3DPERF_BeginEvent@@YGHKPBD@Z	; DXUT_Dynamic_D3DPERF_BeginEvent
PUBLIC	?DXUT_Dynamic_D3DPERF_EndEvent@@YGHXZ		; DXUT_Dynamic_D3DPERF_EndEvent
PUBLIC	?DXUT_Dynamic_D3DPERF_SetMarker@@YGXKPBD@Z	; DXUT_Dynamic_D3DPERF_SetMarker
PUBLIC	?DXUT_Dynamic_D3DPERF_SetRegion@@YGXKPBD@Z	; DXUT_Dynamic_D3DPERF_SetRegion
PUBLIC	?DXUT_Dynamic_D3DPERF_QueryRepeatFrame@@YGHXZ	; DXUT_Dynamic_D3DPERF_QueryRepeatFrame
PUBLIC	?DXUT_Dynamic_D3DPERF_SetOptions@@YGXK@Z	; DXUT_Dynamic_D3DPERF_SetOptions
PUBLIC	?DXUT_Dynamic_D3DPERF_GetStatus@@YGKXZ		; DXUT_Dynamic_D3DPERF_GetStatus
PUBLIC	?DXUTFindMediaSearchTypicalDirs@@YA_NPADHPBD00@Z ; DXUTFindMediaSearchTypicalDirs
PUBLIC	?DXUTFindMediaSearchParentDirs@@YA_NPADH00@Z	; DXUTFindMediaSearchParentDirs
PUBLIC	?DisplaySwitchToREFWarningProc@@YGHPAUHWND__@@IIJ@Z ; DisplaySwitchToREFWarningProc
PUBLIC	?DXUTMediaSearchPath@@YAPADXZ			; DXUTMediaSearchPath
PUBLIC	??_7CBaseCamera@@6B@				; CBaseCamera::`vftable'
PUBLIC	??_7CFirstPersonCamera@@6B@			; CFirstPersonCamera::`vftable'
PUBLIC	??_7CModelViewerCamera@@6B@			; CModelViewerCamera::`vftable'
PUBLIC	??_C@_0CD@JNJEACIN@Software?2Microsoft?2DirectX?59?40?5S@ ; `string'
PUBLIC	??_C@_0BE@ONMNIDPM@Skip?5Warning?5On?5REF?$AA@	; `string'
PUBLIC	??_C@_01CLKCMJKC@?5?$AA@			; `string'
PUBLIC	??_C@_0O@LMJDHGJK@MS?5Sans?5Serif?$AA@		; `string'
PUBLIC	??_C@_0KC@EOHLBFGP@Switching?5to?5the?5Direct3D?5refere@ ; `string'
PUBLIC	??_C@_04ILFHLBJA@?$CGYes?$AA@			; `string'
PUBLIC	??_C@_03MDIDAHKD@?$CGNo?$AA@			; `string'
PUBLIC	??_C@_0BC@KPPJBALB@?$CGDon?8t?5show?5again?$AA@	; `string'
PUBLIC	??_C@_01KICIPPFI@?2?$AA@			; `string'
PUBLIC	??_C@_08GDMOFFMA@media?2?$CFs?$AA@		; `string'
PUBLIC	??_C@_01LFCBOECM@?4?$AA@			; `string'
PUBLIC	??_C@_05LGCFLFFL@?4?4?2?$CFs?$AA@		; `string'
PUBLIC	??_C@_08KDFEKKMA@?4?4?2?4?4?2?$CFs?$AA@		; `string'
PUBLIC	??_C@_05BMGBEOOC@?$CFs?2?$CFs?$AA@		; `string'
PUBLIC	??_C@_08OPCCNCAK@?$CFs?2?4?4?2?$CFs?$AA@	; `string'
PUBLIC	??_C@_0M@HKPCIGNN@?$CFs?2?4?4?2?4?4?2?$CFs?$AA@	; `string'
PUBLIC	??_C@_0M@NALGHNGE@?$CFs?2?4?4?2?$CFs?2?$CFs?$AA@ ; `string'
PUBLIC	??_C@_0P@HEBEMA@?$CFs?2?4?4?2?4?4?2?$CFs?2?$CFs?$AA@ ; `string'
PUBLIC	??_C@_04HDOCAJNK@?$CFs?$CFs?$AA@		; `string'
PUBLIC	??_C@_05BPCBICBK@?$CFs?2?4?4?$AA@		; `string'
PUBLIC	??_C@_0P@FCGOGLON@D3DFMT_UNKNOWN?$AA@		; `string'
PUBLIC	??_C@_0O@OOCIJBAM@D3DFMT_R8G8B8?$AA@		; `string'
PUBLIC	??_C@_0BA@CHHHKFAO@D3DFMT_A8R8G8B8?$AA@		; `string'
PUBLIC	??_C@_0BA@CHBEFBCE@D3DFMT_X8R8G8B8?$AA@		; `string'
PUBLIC	??_C@_0O@HMHILKM@D3DFMT_R5G6B5?$AA@		; `string'
PUBLIC	??_C@_0BA@MDABPPEB@D3DFMT_X1R5G5B5?$AA@		; `string'
PUBLIC	??_C@_0BA@MDGCALGL@D3DFMT_A1R5G5B5?$AA@		; `string'
PUBLIC	??_C@_0BA@OBHJIAIO@D3DFMT_A4R4G4B4?$AA@		; `string'
PUBLIC	??_C@_0O@KJABAOEE@D3DFMT_R3G3B2?$AA@		; `string'
PUBLIC	??_C@_09JNGIHEFB@D3DFMT_A8?$AA@			; `string'
PUBLIC	??_C@_0BA@GAFODKEG@D3DFMT_A8R3G3B2?$AA@		; `string'
PUBLIC	??_C@_0BA@OBBKHEKE@D3DFMT_X4R4G4B4?$AA@		; `string'
PUBLIC	??_C@_0BD@OELFJMLB@D3DFMT_A2B10G10R10?$AA@	; `string'
PUBLIC	??_C@_0BA@FMIPJKLA@D3DFMT_A8B8G8R8?$AA@		; `string'
PUBLIC	??_C@_0BA@FMOMGOJK@D3DFMT_X8B8G8R8?$AA@		; `string'
PUBLIC	??_C@_0O@KENMFGDC@D3DFMT_G16R16?$AA@		; `string'
PUBLIC	??_C@_0BD@JDACEKMG@D3DFMT_A2R10G10B10?$AA@	; `string'
PUBLIC	??_C@_0BE@GGADDKEH@D3DFMT_A16B16G16R16?$AA@	; `string'
PUBLIC	??_C@_0M@IPOLNGBD@D3DFMT_A8P8?$AA@		; `string'
PUBLIC	??_C@_09IAIMLNBG@D3DFMT_P8?$AA@			; `string'
PUBLIC	??_C@_09JFLAOHAC@D3DFMT_L8?$AA@			; `string'
PUBLIC	??_C@_0M@JKNHIMAH@D3DFMT_A8L8?$AA@		; `string'
PUBLIC	??_C@_0M@HMLEHMLD@D3DFMT_A4L4?$AA@		; `string'
PUBLIC	??_C@_0M@FLOAFPGK@D3DFMT_V8U8?$AA@		; `string'
PUBLIC	??_C@_0O@OAOOLKLI@D3DFMT_L6V5U5?$AA@		; `string'
PUBLIC	??_C@_0BA@FEBMLNHA@D3DFMT_X8L8V8U8?$AA@		; `string'
PUBLIC	??_C@_0BA@JNGGMDBP@D3DFMT_Q8W8V8U8?$AA@		; `string'
PUBLIC	??_C@_0O@PIKCPJPB@D3DFMT_V16U16?$AA@		; `string'
PUBLIC	??_C@_0BD@HJEMHJNO@D3DFMT_A2W10V10U10?$AA@	; `string'
PUBLIC	??_C@_0M@OBHKFBGD@D3DFMT_UYVY?$AA@		; `string'
PUBLIC	??_C@_0M@ODAJPGIL@D3DFMT_YUY2?$AA@		; `string'
PUBLIC	??_C@_0M@KKOGLNPF@D3DFMT_DXT1?$AA@		; `string'
PUBLIC	??_C@_0M@IBMLOODG@D3DFMT_DXT2?$AA@		; `string'
PUBLIC	??_C@_0M@JINANPHH@D3DFMT_DXT3?$AA@		; `string'
PUBLIC	??_C@_0M@NHJBEJLA@D3DFMT_DXT4?$AA@		; `string'
PUBLIC	??_C@_0M@MOIKHIPB@D3DFMT_DXT5?$AA@		; `string'
PUBLIC	??_C@_0BE@GKJJNPH@D3DFMT_D16_LOCKABLE?$AA@	; `string'
PUBLIC	??_C@_0L@MKAKECLE@D3DFMT_D32?$AA@		; `string'
PUBLIC	??_C@_0N@FHMLHNII@D3DFMT_D15S1?$AA@		; `string'
PUBLIC	??_C@_0N@HJBFNLHE@D3DFMT_D24S8?$AA@		; `string'
PUBLIC	??_C@_0N@HFEADEJF@D3DFMT_D24X8?$AA@		; `string'
PUBLIC	??_C@_0P@LCIECDAM@D3DFMT_D24X4S4?$AA@		; `string'
PUBLIC	??_C@_0L@KNOCFDNO@D3DFMT_D16?$AA@		; `string'
PUBLIC	??_C@_0L@GIFGHLDB@D3DFMT_L16?$AA@		; `string'
PUBLIC	??_C@_0BC@LPMKMLOH@D3DFMT_VERTEXDATA?$AA@	; `string'
PUBLIC	??_C@_0P@JJIOOHAH@D3DFMT_INDEX16?$AA@		; `string'
PUBLIC	??_C@_0P@POGGPGGN@D3DFMT_INDEX32?$AA@		; `string'
PUBLIC	??_C@_0BE@EPPNHJPC@D3DFMT_Q16W16V16U16?$AA@	; `string'
PUBLIC	??_C@_0BE@LCLDBCOL@D3DFMT_MULTI2_ARGB8?$AA@	; `string'
PUBLIC	??_C@_0M@CIEFJHCB@D3DFMT_R16F?$AA@		; `string'
PUBLIC	??_C@_0P@GOFAGFFF@D3DFMT_G16R16F?$AA@		; `string'
PUBLIC	??_C@_0BF@EOPNDPIK@D3DFMT_A16B16G16R16F?$AA@	; `string'
PUBLIC	??_C@_0M@IFEFPHHG@D3DFMT_R32F?$AA@		; `string'
PUBLIC	??_C@_0P@MPFOFGDN@D3DFMT_G32R32F?$AA@		; `string'
PUBLIC	??_C@_0BF@NFLAADOH@D3DFMT_A32B32G32R32F?$AA@	; `string'
PUBLIC	??_C@_0O@GEDAAHNN@D3DFMT_CxV8U8?$AA@		; `string'
PUBLIC	??_C@_0P@BJJPCHFI@Unknown?5format?$AA@		; `string'
PUBLIC	??_C@_07NCBDPBMK@D3DFMT_?$AA@			; `string'
PUBLIC	?__LINE__Var@?1??DrawTextLine@CDXUTTextHelper@@QAEJPBD@Z@4JA ; `CDXUTTextHelper::DrawTextLine'::`2'::__LINE__Var
PUBLIC	??_C@_0N@LJGOJBAF@DrawTextLine?$AA@		; `string'
PUBLIC	??_C@_0CP@NFIJGOGO@z?3?2sampsrc?202xu1?2saco?2d3d9?2commo@ ; `string'
PUBLIC	??_C@_08JPMBLOLP@DrawText?$AA@			; `string'
PUBLIC	?__LINE__Var@?1??DrawTextLine@CDXUTTextHelper@@QAEJAAUtagRECT@@KPBD@Z@4JA ; `CDXUTTextHelper::DrawTextLine'::`2'::__LINE__Var
PUBLIC	??_C@_0BB@NKBHBICM@UI?2DXUTShared?4fx?$AA@	; `string'
PUBLIC	??_C@_0L@HCLLIMDN@UI?2arrow?4x?$AA@		; `string'
PUBLIC	??_C@_0BK@MCNKOHBK@RenderWith1LightNoTexture?$AA@ ; `string'
PUBLIC	??_C@_0BH@JOJPMGMM@g_MaterialDiffuseColor?$AA@	; `string'
PUBLIC	??_C@_09KLCMKMDE@?2d3d9?4dll?$AA@		; `string'
PUBLIC	??_C@_0BA@FAFMMBOF@Direct3DCreate9?$AA@		; `string'
PUBLIC	??_C@_0BD@CLFNPJIE@D3DPERF_BeginEvent?$AA@	; `string'
PUBLIC	??_C@_0BB@KDHKMPMH@D3DPERF_EndEvent?$AA@	; `string'
PUBLIC	??_C@_0BC@BJDCGGFC@D3DPERF_SetMarker?$AA@	; `string'
PUBLIC	??_C@_0BC@PKNMMAJB@D3DPERF_SetRegion?$AA@	; `string'
PUBLIC	??_C@_0BJ@IGNIEEPP@D3DPERF_QueryRepeatFrame?$AA@ ; `string'
PUBLIC	??_C@_0BD@NEPKLCIB@D3DPERF_SetOptions?$AA@	; `string'
PUBLIC	??_C@_0BC@HJIKALNB@D3DPERF_GetStatus?$AA@	; `string'
PUBLIC	??_C@_0CH@FHFOAIFP@DXTrace?3?5?$CFs?5?$CI?$CFd?$CJ?5returned?50x?$CFx?0?5@ ; `string'
PUBLIC	??_C@_1FK@FIMIDMPE@?$AAz?$AA?3?$AA?2?$AAs?$AAa?$AAm?$AAp?$AAs?$AAr?$AAc?$AA?2?$AA0?$AA2?$AAx?$AAu?$AA1?$AA?2?$AAs?$AAa?$AAc?$AAo?$AA?2?$AAd?$AA3?$AAd?$AA9?$AA?2?$AAc?$AAo?$AAm?$AAm?$AAo@ ; `string'
PUBLIC	??_C@_1EA@JHMKKLFC@?$AAn?$AAI?$AAn?$AAd?$AAe?$AAx?$AA?5?$AA?$DO?$AA?$DN?$AA?5?$AA0?$AA?5?$AA?$CG?$AA?$CG?$AA?5?$AAn?$AAI?$AAn?$AAd?$AAe?$AAx?$AA?5?$AA?$DM?$AA?5?$AAm?$AA_?$AAn?$AAS?$AAi?$AAz?$AAe?$AA?$AA@ ; `string'
PUBLIC	??_C@_1M@HLGKFCJM@?$AAf?$AAa?$AAl?$AAs?$AAe?$AA?$AA@ ; `string'
PUBLIC	??_R4CBaseCamera@@6B@				; CBaseCamera::`RTTI Complete Object Locator'
PUBLIC	??_R0?AVCBaseCamera@@@8				; CBaseCamera `RTTI Type Descriptor'
PUBLIC	??_R3CBaseCamera@@8				; CBaseCamera::`RTTI Class Hierarchy Descriptor'
PUBLIC	??_R2CBaseCamera@@8				; CBaseCamera::`RTTI Base Class Array'
PUBLIC	??_R1A@?0A@EA@CBaseCamera@@8			; CBaseCamera::`RTTI Base Class Descriptor at (0,-1,0,64)'
PUBLIC	??_R4CFirstPersonCamera@@6B@			; CFirstPersonCamera::`RTTI Complete Object Locator'
PUBLIC	??_R0?AVCFirstPersonCamera@@@8			; CFirstPersonCamera `RTTI Type Descriptor'
PUBLIC	??_R3CFirstPersonCamera@@8			; CFirstPersonCamera::`RTTI Class Hierarchy Descriptor'
PUBLIC	??_R2CFirstPersonCamera@@8			; CFirstPersonCamera::`RTTI Base Class Array'
PUBLIC	??_R1A@?0A@EA@CFirstPersonCamera@@8		; CFirstPersonCamera::`RTTI Base Class Descriptor at (0,-1,0,64)'
PUBLIC	??_R4CModelViewerCamera@@6B@			; CModelViewerCamera::`RTTI Complete Object Locator'
PUBLIC	??_R0?AVCModelViewerCamera@@@8			; CModelViewerCamera `RTTI Type Descriptor'
PUBLIC	??_R3CModelViewerCamera@@8			; CModelViewerCamera::`RTTI Class Hierarchy Descriptor'
PUBLIC	??_R2CModelViewerCamera@@8			; CModelViewerCamera::`RTTI Base Class Array'
PUBLIC	??_R1A@?0A@EA@CModelViewerCamera@@8		; CModelViewerCamera::`RTTI Base Class Descriptor at (0,-1,0,64)'
PUBLIC	__real@00000000
PUBLIC	__real@358637bd
PUBLIC	__real@3c23d70a
PUBLIC	__real@3dcccccd
PUBLIC	__real@3e4ccccd
PUBLIC	__real@3e800000
PUBLIC	__real@3f000000
PUBLIC	__real@3f490fdb
PUBLIC	__real@3f666666
PUBLIC	__real@3f800000
PUBLIC	__real@3fc90fdb
PUBLIC	__real@40000000
PUBLIC	__real@40490fdb
PUBLIC	__real@40a00000
PUBLIC	__real@437f0000
PUBLIC	__real@447a0000
PUBLIC	__real@7f7fffff
PUBLIC	__real@bf800000
PUBLIC	__real@bfc90fdb
PUBLIC	__real@bff0000000000000
PUBLIC	__real@c0000000
PUBLIC	__xmm@80000000800000008000000080000000
EXTRN	__purecall:PROC
EXTRN	??2@YAPAXI@Z:PROC				; operator new
EXTRN	??3@YAXPAX@Z:PROC				; operator delete
EXTRN	_atexit:PROC
EXTRN	___report_rangecheckfailure:PROC
EXTRN	_memcpy:PROC
EXTRN	_memset:PROC
EXTRN	_memmove:PROC
EXTRN	_strrchr:PROC
EXTRN	_strstr:PROC
EXTRN	__imp__GetFileAttributesA@4:PROC
EXTRN	__imp__GetFullPathNameA@16:PROC
EXTRN	__imp__OutputDebugStringA@4:PROC
EXTRN	__imp__QueryPerformanceCounter@4:PROC
EXTRN	__imp__QueryPerformanceFrequency@4:PROC
EXTRN	__imp__GetSystemDirectoryA@8:PROC
EXTRN	__imp__GetModuleFileNameA@12:PROC
EXTRN	__imp__GetProcAddress@8:PROC
EXTRN	__imp__lstrcmpA@8:PROC
EXTRN	__imp__lstrlenA@4:PROC
EXTRN	__imp__LoadLibraryA@4:PROC
EXTRN	__imp__SendMessageA@16:PROC
EXTRN	__imp__DialogBoxIndirectParamA@20:PROC
EXTRN	__imp__EndDialog@8:PROC
EXTRN	__imp__GetDlgItem@8:PROC
EXTRN	__imp__SetDlgItemTextA@12:PROC
EXTRN	__imp__CheckDlgButton@12:PROC
EXTRN	__imp__IsDlgButtonChecked@8:PROC
EXTRN	__imp__SetCapture@4:PROC
EXTRN	__imp__ReleaseCapture@0:PROC
EXTRN	__imp__EnableWindow@8:PROC
EXTRN	__imp__GetForegroundWindow@0:PROC
EXTRN	__imp__SetWindowTextA@8:PROC
EXTRN	__imp__GetClientRect@8:PROC
EXTRN	__imp__GetWindowRect@8:PROC
EXTRN	__imp__SetCursorPos@8:PROC
EXTRN	__imp__GetCursorPos@4:PROC
EXTRN	__imp__SetRect@20:PROC
EXTRN	__imp__PtInRect@12:PROC
EXTRN	__imp__GetDesktopWindow@0:PROC
EXTRN	__imp__LoadIconA@8:PROC
EXTRN	__imp__CompareStringA@24:PROC
EXTRN	__imp__RegCloseKey@4:PROC
EXTRN	__imp__RegOpenKeyExA@20:PROC
EXTRN	__imp__RegQueryValueExA@24:PROC
EXTRN	__imp__RegSetValueExA@24:PROC
EXTRN	_free:PROC
EXTRN	_realloc:PROC
EXTRN	__wassert:PROC
EXTRN	_atan2:PROC
EXTRN	_sqrt:PROC
EXTRN	__vsnprintf:PROC
EXTRN	_sprintf:PROC
EXTRN	??_U@YAPAXI@Z:PROC				; operator new[]
EXTRN	??_V@YAXPAX@Z:PROC				; operator delete[]
EXTRN	_D3DXVec3Normalize@8:PROC
EXTRN	_D3DXVec3TransformCoord@12:PROC
EXTRN	_D3DXVec3TransformNormal@12:PROC
EXTRN	_D3DXMatrixMultiply@12:PROC
EXTRN	_D3DXMatrixInverse@12:PROC
EXTRN	_D3DXMatrixScaling@16:PROC
EXTRN	_D3DXMatrixTranslation@16:PROC
EXTRN	_D3DXMatrixRotationX@8:PROC
EXTRN	_D3DXMatrixRotationQuaternion@8:PROC
EXTRN	_D3DXMatrixRotationYawPitchRoll@16:PROC
EXTRN	_D3DXMatrixLookAtLH@16:PROC
EXTRN	_D3DXMatrixPerspectiveFovLH@20:PROC
EXTRN	_D3DXQuaternionRotationMatrix@8:PROC
EXTRN	_D3DXQuaternionMultiply@12:PROC
EXTRN	_D3DXCreateFontIndirectA@12:PROC
EXTRN	_D3DXCreateLine@8:PROC
EXTRN	_D3DXLoadMeshFromXA@32:PROC
EXTRN	_D3DXCreateEffectFromFileA@32:PROC
EXTRN	_D3DXCreateEffectFromResourceA@36:PROC
EXTRN	_D3DXCreateTextureFromFileExA@56:PROC
EXTRN	_D3DXCreateCubeTextureFromFileExA@52:PROC
EXTRN	_D3DXCreateVolumeTextureFromFileExA@60:PROC
EXTRN	_D3DXCreateTextureFromResourceExA@60:PROC
EXTRN	_D3DXCreateCubeTextureFromResourceExA@56:PROC
EXTRN	_D3DXCreateVolumeTextureFromResourceExA@64:PROC
EXTRN	?DXUTShutdown@@YAXH@Z:PROC			; DXUTShutdown
EXTRN	?DXUTGetHINSTANCE@@YAPAUHINSTANCE__@@XZ:PROC	; DXUTGetHINSTANCE
EXTRN	?DXUTGetHWND@@YAPAUHWND__@@XZ:PROC		; DXUTGetHWND
EXTRN	?DXUTGetFPS@@YAMXZ:PROC				; DXUTGetFPS
EXTRN	?DXUTGetWindowTitle@@YAPBDXZ:PROC		; DXUTGetWindowTitle
EXTRN	?DXUTGetShowMsgBoxOnError@@YA_NXZ:PROC		; DXUTGetShowMsgBoxOnError
EXTRN	?DXUTTrace@@YGJPBDKJ0_N@Z:PROC			; DXUTTrace
EXTRN	@_RTC_CheckStackVars@8:PROC
EXTRN	@__security_check_cookie@4:PROC
EXTRN	__RTC_CheckEsp:PROC
EXTRN	__RTC_InitBase:PROC
EXTRN	__RTC_Shutdown:PROC
EXTRN	__RTC_UninitUse:PROC
EXTRN	___CxxFrameHandler3:PROC
EXTRN	__alldiv:PROC
EXTRN	__ftoui3:PROC
EXTRN	__ltod3:PROC
EXTRN	_memset:PROC
EXTRN	_IID_IDirect3DBaseTexture9:BYTE
EXTRN	_IID_IDirect3DTexture9:BYTE
EXTRN	_IID_IDirect3DCubeTexture9:BYTE
EXTRN	_IID_IDirect3DVolumeTexture9:BYTE
EXTRN	??_7type_info@@6B@:QWORD			; type_info::`vftable'
EXTRN	___security_cookie:DWORD
EXTRN	__fltused:DWORD
_BSS	SEGMENT
?cache@?1??DXUTGetGlobalResourceCache@@YAAAVCDXUTResourceCache@@XZ@4V2@A DB 024H DUP (?) ; `DXUTGetGlobalResourceCache'::`2'::cache
?$S1@?1??DXUTGetGlobalResourceCache@@YAAAVCDXUTResourceCache@@XZ@4IA DD 01H DUP (?) ; `DXUTGetGlobalResourceCache'::`2'::$S1
?timer@?1??DXUTGetGlobalTimer@@YAPAVCDXUTTimer@@XZ@4V2@A DB 022H DUP (?) ; `DXUTGetGlobalTimer'::`2'::timer
	ALIGN	4

?$S2@?1??DXUTGetGlobalTimer@@YAPAVCDXUTTimer@@XZ@4IA DD 01H DUP (?) ; `DXUTGetGlobalTimer'::`2'::$S2
_BSS	ENDS
;	COMDAT __xmm@80000000800000008000000080000000
CONST	SEGMENT
__xmm@80000000800000008000000080000000 DB 00H, 00H, 00H, 080H, 00H, 00H, 00H
	DB	080H, 00H, 00H, 00H, 080H, 00H, 00H, 00H, 080H
CONST	ENDS
;	COMDAT __real@c0000000
CONST	SEGMENT
__real@c0000000 DD 0c0000000r			; -2
CONST	ENDS
;	COMDAT __real@bff0000000000000
CONST	SEGMENT
__real@bff0000000000000 DQ 0bff0000000000000r	; -1
CONST	ENDS
;	COMDAT __real@bfc90fdb
CONST	SEGMENT
__real@bfc90fdb DD 0bfc90fdbr			; -1.5708
CONST	ENDS
;	COMDAT __real@bf800000
CONST	SEGMENT
__real@bf800000 DD 0bf800000r			; -1
CONST	ENDS
;	COMDAT __real@7f7fffff
CONST	SEGMENT
__real@7f7fffff DD 07f7fffffr			; 3.40282e+038
CONST	ENDS
;	COMDAT __real@447a0000
CONST	SEGMENT
__real@447a0000 DD 0447a0000r			; 1000
CONST	ENDS
;	COMDAT __real@437f0000
CONST	SEGMENT
__real@437f0000 DD 0437f0000r			; 255
CONST	ENDS
;	COMDAT __real@40a00000
CONST	SEGMENT
__real@40a00000 DD 040a00000r			; 5
CONST	ENDS
;	COMDAT __real@40490fdb
CONST	SEGMENT
__real@40490fdb DD 040490fdbr			; 3.14159
CONST	ENDS
;	COMDAT __real@40000000
CONST	SEGMENT
__real@40000000 DD 040000000r			; 2
CONST	ENDS
;	COMDAT __real@3fc90fdb
CONST	SEGMENT
__real@3fc90fdb DD 03fc90fdbr			; 1.5708
CONST	ENDS
;	COMDAT __real@3f800000
CONST	SEGMENT
__real@3f800000 DD 03f800000r			; 1
CONST	ENDS
;	COMDAT __real@3f666666
CONST	SEGMENT
__real@3f666666 DD 03f666666r			; 0.9
CONST	ENDS
;	COMDAT __real@3f490fdb
CONST	SEGMENT
__real@3f490fdb DD 03f490fdbr			; 0.785398
CONST	ENDS
;	COMDAT __real@3f000000
CONST	SEGMENT
__real@3f000000 DD 03f000000r			; 0.5
CONST	ENDS
;	COMDAT __real@3e800000
CONST	SEGMENT
__real@3e800000 DD 03e800000r			; 0.25
CONST	ENDS
;	COMDAT __real@3e4ccccd
CONST	SEGMENT
__real@3e4ccccd DD 03e4ccccdr			; 0.2
CONST	ENDS
;	COMDAT __real@3dcccccd
CONST	SEGMENT
__real@3dcccccd DD 03dcccccdr			; 0.1
CONST	ENDS
;	COMDAT __real@3c23d70a
CONST	SEGMENT
__real@3c23d70a DD 03c23d70ar			; 0.01
CONST	ENDS
;	COMDAT __real@358637bd
CONST	SEGMENT
__real@358637bd DD 0358637bdr			; 1e-006
CONST	ENDS
;	COMDAT __real@00000000
CONST	SEGMENT
__real@00000000 DD 000000000r			; 0
CONST	ENDS
;	COMDAT rtc$TMZ
rtc$TMZ	SEGMENT
__RTC_Shutdown.rtc$TMZ DD FLAT:__RTC_Shutdown
rtc$TMZ	ENDS
;	COMDAT rtc$IMZ
rtc$IMZ	SEGMENT
__RTC_InitBase.rtc$IMZ DD FLAT:__RTC_InitBase
rtc$IMZ	ENDS
;	COMDAT ??_R1A@?0A@EA@CModelViewerCamera@@8
rdata$r	SEGMENT
??_R1A@?0A@EA@CModelViewerCamera@@8 DD FLAT:??_R0?AVCModelViewerCamera@@@8 ; CModelViewerCamera::`RTTI Base Class Descriptor at (0,-1,0,64)'
	DD	01H
	DD	00H
	DD	0ffffffffH
	DD	00H
	DD	040H
	DD	FLAT:??_R3CModelViewerCamera@@8
rdata$r	ENDS
;	COMDAT ??_R2CModelViewerCamera@@8
rdata$r	SEGMENT
??_R2CModelViewerCamera@@8 DD FLAT:??_R1A@?0A@EA@CModelViewerCamera@@8 ; CModelViewerCamera::`RTTI Base Class Array'
	DD	FLAT:??_R1A@?0A@EA@CBaseCamera@@8
rdata$r	ENDS
;	COMDAT ??_R3CModelViewerCamera@@8
rdata$r	SEGMENT
??_R3CModelViewerCamera@@8 DD 00H			; CModelViewerCamera::`RTTI Class Hierarchy Descriptor'
	DD	00H
	DD	02H
	DD	FLAT:??_R2CModelViewerCamera@@8
rdata$r	ENDS
;	COMDAT ??_R0?AVCModelViewerCamera@@@8
data$r	SEGMENT
??_R0?AVCModelViewerCamera@@@8 DD FLAT:??_7type_info@@6B@ ; CModelViewerCamera `RTTI Type Descriptor'
	DD	00H
	DB	'.?AVCModelViewerCamera@@', 00H
data$r	ENDS
;	COMDAT ??_R4CModelViewerCamera@@6B@
rdata$r	SEGMENT
??_R4CModelViewerCamera@@6B@ DD 00H			; CModelViewerCamera::`RTTI Complete Object Locator'
	DD	00H
	DD	00H
	DD	FLAT:??_R0?AVCModelViewerCamera@@@8
	DD	FLAT:??_R3CModelViewerCamera@@8
rdata$r	ENDS
;	COMDAT ??_R1A@?0A@EA@CFirstPersonCamera@@8
rdata$r	SEGMENT
??_R1A@?0A@EA@CFirstPersonCamera@@8 DD FLAT:??_R0?AVCFirstPersonCamera@@@8 ; CFirstPersonCamera::`RTTI Base Class Descriptor at (0,-1,0,64)'
	DD	01H
	DD	00H
	DD	0ffffffffH
	DD	00H
	DD	040H
	DD	FLAT:??_R3CFirstPersonCamera@@8
rdata$r	ENDS
;	COMDAT ??_R2CFirstPersonCamera@@8
rdata$r	SEGMENT
??_R2CFirstPersonCamera@@8 DD FLAT:??_R1A@?0A@EA@CFirstPersonCamera@@8 ; CFirstPersonCamera::`RTTI Base Class Array'
	DD	FLAT:??_R1A@?0A@EA@CBaseCamera@@8
rdata$r	ENDS
;	COMDAT ??_R3CFirstPersonCamera@@8
rdata$r	SEGMENT
??_R3CFirstPersonCamera@@8 DD 00H			; CFirstPersonCamera::`RTTI Class Hierarchy Descriptor'
	DD	00H
	DD	02H
	DD	FLAT:??_R2CFirstPersonCamera@@8
rdata$r	ENDS
;	COMDAT ??_R0?AVCFirstPersonCamera@@@8
data$r	SEGMENT
??_R0?AVCFirstPersonCamera@@@8 DD FLAT:??_7type_info@@6B@ ; CFirstPersonCamera `RTTI Type Descriptor'
	DD	00H
	DB	'.?AVCFirstPersonCamera@@', 00H
data$r	ENDS
;	COMDAT ??_R4CFirstPersonCamera@@6B@
rdata$r	SEGMENT
??_R4CFirstPersonCamera@@6B@ DD 00H			; CFirstPersonCamera::`RTTI Complete Object Locator'
	DD	00H
	DD	00H
	DD	FLAT:??_R0?AVCFirstPersonCamera@@@8
	DD	FLAT:??_R3CFirstPersonCamera@@8
rdata$r	ENDS
;	COMDAT ??_R1A@?0A@EA@CBaseCamera@@8
rdata$r	SEGMENT
??_R1A@?0A@EA@CBaseCamera@@8 DD FLAT:??_R0?AVCBaseCamera@@@8 ; CBaseCamera::`RTTI Base Class Descriptor at (0,-1,0,64)'
	DD	00H
	DD	00H
	DD	0ffffffffH
	DD	00H
	DD	040H
	DD	FLAT:??_R3CBaseCamera@@8
rdata$r	ENDS
;	COMDAT ??_R2CBaseCamera@@8
rdata$r	SEGMENT
??_R2CBaseCamera@@8 DD FLAT:??_R1A@?0A@EA@CBaseCamera@@8 ; CBaseCamera::`RTTI Base Class Array'
rdata$r	ENDS
;	COMDAT ??_R3CBaseCamera@@8
rdata$r	SEGMENT
??_R3CBaseCamera@@8 DD 00H				; CBaseCamera::`RTTI Class Hierarchy Descriptor'
	DD	00H
	DD	01H
	DD	FLAT:??_R2CBaseCamera@@8
rdata$r	ENDS
;	COMDAT ??_R0?AVCBaseCamera@@@8
data$r	SEGMENT
??_R0?AVCBaseCamera@@@8 DD FLAT:??_7type_info@@6B@	; CBaseCamera `RTTI Type Descriptor'
	DD	00H
	DB	'.?AVCBaseCamera@@', 00H
data$r	ENDS
;	COMDAT ??_R4CBaseCamera@@6B@
rdata$r	SEGMENT
??_R4CBaseCamera@@6B@ DD 00H				; CBaseCamera::`RTTI Complete Object Locator'
	DD	00H
	DD	00H
	DD	FLAT:??_R0?AVCBaseCamera@@@8
	DD	FLAT:??_R3CBaseCamera@@8
rdata$r	ENDS
;	COMDAT ??_C@_1M@HLGKFCJM@?$AAf?$AAa?$AAl?$AAs?$AAe?$AA?$AA@
CONST	SEGMENT
??_C@_1M@HLGKFCJM@?$AAf?$AAa?$AAl?$AAs?$AAe?$AA?$AA@ DB 'f', 00H, 'a', 00H
	DB	'l', 00H, 's', 00H, 'e', 00H, 00H, 00H	; `string'
CONST	ENDS
;	COMDAT ??_C@_1EA@JHMKKLFC@?$AAn?$AAI?$AAn?$AAd?$AAe?$AAx?$AA?5?$AA?$DO?$AA?$DN?$AA?5?$AA0?$AA?5?$AA?$CG?$AA?$CG?$AA?5?$AAn?$AAI?$AAn?$AAd?$AAe?$AAx?$AA?5?$AA?$DM?$AA?5?$AAm?$AA_?$AAn?$AAS?$AAi?$AAz?$AAe?$AA?$AA@
CONST	SEGMENT
??_C@_1EA@JHMKKLFC@?$AAn?$AAI?$AAn?$AAd?$AAe?$AAx?$AA?5?$AA?$DO?$AA?$DN?$AA?5?$AA0?$AA?5?$AA?$CG?$AA?$CG?$AA?5?$AAn?$AAI?$AAn?$AAd?$AAe?$AAx?$AA?5?$AA?$DM?$AA?5?$AAm?$AA_?$AAn?$AAS?$AAi?$AAz?$AAe?$AA?$AA@ DB 'n'
	DB	00H, 'I', 00H, 'n', 00H, 'd', 00H, 'e', 00H, 'x', 00H, ' ', 00H
	DB	'>', 00H, '=', 00H, ' ', 00H, '0', 00H, ' ', 00H, '&', 00H, '&'
	DB	00H, ' ', 00H, 'n', 00H, 'I', 00H, 'n', 00H, 'd', 00H, 'e', 00H
	DB	'x', 00H, ' ', 00H, '<', 00H, ' ', 00H, 'm', 00H, '_', 00H, 'n'
	DB	00H, 'S', 00H, 'i', 00H, 'z', 00H, 'e', 00H, 00H, 00H ; `string'
CONST	ENDS
;	COMDAT ??_C@_1FK@FIMIDMPE@?$AAz?$AA?3?$AA?2?$AAs?$AAa?$AAm?$AAp?$AAs?$AAr?$AAc?$AA?2?$AA0?$AA2?$AAx?$AAu?$AA1?$AA?2?$AAs?$AAa?$AAc?$AAo?$AA?2?$AAd?$AA3?$AAd?$AA9?$AA?2?$AAc?$AAo?$AAm?$AAm?$AAo@
CONST	SEGMENT
??_C@_1FK@FIMIDMPE@?$AAz?$AA?3?$AA?2?$AAs?$AAa?$AAm?$AAp?$AAs?$AAr?$AAc?$AA?2?$AA0?$AA2?$AAx?$AAu?$AA1?$AA?2?$AAs?$AAa?$AAc?$AAo?$AA?2?$AAd?$AA3?$AAd?$AA9?$AA?2?$AAc?$AAo?$AAm?$AAm?$AAo@ DB 'z'
	DB	00H, ':', 00H, '\', 00H, 's', 00H, 'a', 00H, 'm', 00H, 'p', 00H
	DB	's', 00H, 'r', 00H, 'c', 00H, '\', 00H, '0', 00H, '2', 00H, 'x'
	DB	00H, 'u', 00H, '1', 00H, '\', 00H, 's', 00H, 'a', 00H, 'c', 00H
	DB	'o', 00H, '\', 00H, 'd', 00H, '3', 00H, 'd', 00H, '9', 00H, '\'
	DB	00H, 'c', 00H, 'o', 00H, 'm', 00H, 'm', 00H, 'o', 00H, 'n', 00H
	DB	'\', 00H, 'd', 00H, 'x', 00H, 'u', 00H, 't', 00H, 'm', 00H, 'i'
	DB	00H, 's', 00H, 'c', 00H, '.', 00H, 'h', 00H, 00H, 00H ; `string'
CONST	ENDS
;	COMDAT ??_C@_0CH@FHFOAIFP@DXTrace?3?5?$CFs?5?$CI?$CFd?$CJ?5returned?50x?$CFx?0?5@
CONST	SEGMENT
??_C@_0CH@FHFOAIFP@DXTrace?3?5?$CFs?5?$CI?$CFd?$CJ?5returned?50x?$CFx?0?5@ DB 'D'
	DB	'XTrace: %s (%d) returned 0x%x, msg=%s', 00H	; `string'
CONST	ENDS
;	COMDAT ??_C@_0BC@HJIKALNB@D3DPERF_GetStatus?$AA@
CONST	SEGMENT
??_C@_0BC@HJIKALNB@D3DPERF_GetStatus?$AA@ DB 'D3DPERF_GetStatus', 00H ; `string'
CONST	ENDS
;	COMDAT ??_C@_0BD@NEPKLCIB@D3DPERF_SetOptions?$AA@
CONST	SEGMENT
??_C@_0BD@NEPKLCIB@D3DPERF_SetOptions?$AA@ DB 'D3DPERF_SetOptions', 00H ; `string'
CONST	ENDS
;	COMDAT ??_C@_0BJ@IGNIEEPP@D3DPERF_QueryRepeatFrame?$AA@
CONST	SEGMENT
??_C@_0BJ@IGNIEEPP@D3DPERF_QueryRepeatFrame?$AA@ DB 'D3DPERF_QueryRepeatF'
	DB	'rame', 00H					; `string'
CONST	ENDS
;	COMDAT ??_C@_0BC@PKNMMAJB@D3DPERF_SetRegion?$AA@
CONST	SEGMENT
??_C@_0BC@PKNMMAJB@D3DPERF_SetRegion?$AA@ DB 'D3DPERF_SetRegion', 00H ; `string'
CONST	ENDS
;	COMDAT ??_C@_0BC@BJDCGGFC@D3DPERF_SetMarker?$AA@
CONST	SEGMENT
??_C@_0BC@BJDCGGFC@D3DPERF_SetMarker?$AA@ DB 'D3DPERF_SetMarker', 00H ; `string'
CONST	ENDS
;	COMDAT ??_C@_0BB@KDHKMPMH@D3DPERF_EndEvent?$AA@
CONST	SEGMENT
??_C@_0BB@KDHKMPMH@D3DPERF_EndEvent?$AA@ DB 'D3DPERF_EndEvent', 00H ; `string'
CONST	ENDS
;	COMDAT ??_C@_0BD@CLFNPJIE@D3DPERF_BeginEvent?$AA@
CONST	SEGMENT
??_C@_0BD@CLFNPJIE@D3DPERF_BeginEvent?$AA@ DB 'D3DPERF_BeginEvent', 00H ; `string'
CONST	ENDS
;	COMDAT ??_C@_0BA@FAFMMBOF@Direct3DCreate9?$AA@
CONST	SEGMENT
??_C@_0BA@FAFMMBOF@Direct3DCreate9?$AA@ DB 'Direct3DCreate9', 00H ; `string'
CONST	ENDS
;	COMDAT ??_C@_09KLCMKMDE@?2d3d9?4dll?$AA@
CONST	SEGMENT
??_C@_09KLCMKMDE@?2d3d9?4dll?$AA@ DB '\d3d9.dll', 00H	; `string'
CONST	ENDS
;	COMDAT ??_C@_0BH@JOJPMGMM@g_MaterialDiffuseColor?$AA@
CONST	SEGMENT
??_C@_0BH@JOJPMGMM@g_MaterialDiffuseColor?$AA@ DB 'g_MaterialDiffuseColor'
	DB	00H						; `string'
CONST	ENDS
;	COMDAT ??_C@_0BK@MCNKOHBK@RenderWith1LightNoTexture?$AA@
CONST	SEGMENT
??_C@_0BK@MCNKOHBK@RenderWith1LightNoTexture?$AA@ DB 'RenderWith1LightNoT'
	DB	'exture', 00H				; `string'
CONST	ENDS
;	COMDAT ??_C@_0L@HCLLIMDN@UI?2arrow?4x?$AA@
CONST	SEGMENT
??_C@_0L@HCLLIMDN@UI?2arrow?4x?$AA@ DB 'UI\arrow.x', 00H ; `string'
CONST	ENDS
;	COMDAT ??_C@_0BB@NKBHBICM@UI?2DXUTShared?4fx?$AA@
CONST	SEGMENT
??_C@_0BB@NKBHBICM@UI?2DXUTShared?4fx?$AA@ DB 'UI\DXUTShared.fx', 00H ; `string'
CONST	ENDS
;	COMDAT ?__LINE__Var@?1??DrawTextLine@CDXUTTextHelper@@QAEJAAUtagRECT@@KPBD@Z@4JA
_DATA	SEGMENT
?__LINE__Var@?1??DrawTextLine@CDXUTTextHelper@@QAEJAAUtagRECT@@KPBD@Z@4JA DD 09a8H ; `CDXUTTextHelper::DrawTextLine'::`2'::__LINE__Var
_DATA	ENDS
;	COMDAT ??_C@_08JPMBLOLP@DrawText?$AA@
CONST	SEGMENT
??_C@_08JPMBLOLP@DrawText?$AA@ DB 'DrawText', 00H	; `string'
CONST	ENDS
;	COMDAT ??_C@_0CP@NFIJGOGO@z?3?2sampsrc?202xu1?2saco?2d3d9?2commo@
CONST	SEGMENT
??_C@_0CP@NFIJGOGO@z?3?2sampsrc?202xu1?2saco?2d3d9?2commo@ DB 'z:\sampsrc'
	DB	'\02xu1\saco\d3d9\common\dxutmisc.cpp', 00H	; `string'
CONST	ENDS
;	COMDAT ??_C@_0N@LJGOJBAF@DrawTextLine?$AA@
CONST	SEGMENT
??_C@_0N@LJGOJBAF@DrawTextLine?$AA@ DB 'DrawTextLine', 00H ; `string'
CONST	ENDS
;	COMDAT ?__LINE__Var@?1??DrawTextLine@CDXUTTextHelper@@QAEJPBD@Z@4JA
_DATA	SEGMENT
?__LINE__Var@?1??DrawTextLine@CDXUTTextHelper@@QAEJPBD@Z@4JA DD 0988H ; `CDXUTTextHelper::DrawTextLine'::`2'::__LINE__Var
_DATA	ENDS
;	COMDAT ??_C@_07NCBDPBMK@D3DFMT_?$AA@
CONST	SEGMENT
??_C@_07NCBDPBMK@D3DFMT_?$AA@ DB 'D3DFMT_', 00H		; `string'
CONST	ENDS
;	COMDAT ??_C@_0P@BJJPCHFI@Unknown?5format?$AA@
CONST	SEGMENT
??_C@_0P@BJJPCHFI@Unknown?5format?$AA@ DB 'Unknown format', 00H ; `string'
CONST	ENDS
;	COMDAT ??_C@_0O@GEDAAHNN@D3DFMT_CxV8U8?$AA@
CONST	SEGMENT
??_C@_0O@GEDAAHNN@D3DFMT_CxV8U8?$AA@ DB 'D3DFMT_CxV8U8', 00H ; `string'
CONST	ENDS
;	COMDAT ??_C@_0BF@NFLAADOH@D3DFMT_A32B32G32R32F?$AA@
CONST	SEGMENT
??_C@_0BF@NFLAADOH@D3DFMT_A32B32G32R32F?$AA@ DB 'D3DFMT_A32B32G32R32F', 00H ; `string'
CONST	ENDS
;	COMDAT ??_C@_0P@MPFOFGDN@D3DFMT_G32R32F?$AA@
CONST	SEGMENT
??_C@_0P@MPFOFGDN@D3DFMT_G32R32F?$AA@ DB 'D3DFMT_G32R32F', 00H ; `string'
CONST	ENDS
;	COMDAT ??_C@_0M@IFEFPHHG@D3DFMT_R32F?$AA@
CONST	SEGMENT
??_C@_0M@IFEFPHHG@D3DFMT_R32F?$AA@ DB 'D3DFMT_R32F', 00H ; `string'
CONST	ENDS
;	COMDAT ??_C@_0BF@EOPNDPIK@D3DFMT_A16B16G16R16F?$AA@
CONST	SEGMENT
??_C@_0BF@EOPNDPIK@D3DFMT_A16B16G16R16F?$AA@ DB 'D3DFMT_A16B16G16R16F', 00H ; `string'
CONST	ENDS
;	COMDAT ??_C@_0P@GOFAGFFF@D3DFMT_G16R16F?$AA@
CONST	SEGMENT
??_C@_0P@GOFAGFFF@D3DFMT_G16R16F?$AA@ DB 'D3DFMT_G16R16F', 00H ; `string'
CONST	ENDS
;	COMDAT ??_C@_0M@CIEFJHCB@D3DFMT_R16F?$AA@
CONST	SEGMENT
??_C@_0M@CIEFJHCB@D3DFMT_R16F?$AA@ DB 'D3DFMT_R16F', 00H ; `string'
CONST	ENDS
;	COMDAT ??_C@_0BE@LCLDBCOL@D3DFMT_MULTI2_ARGB8?$AA@
CONST	SEGMENT
??_C@_0BE@LCLDBCOL@D3DFMT_MULTI2_ARGB8?$AA@ DB 'D3DFMT_MULTI2_ARGB8', 00H ; `string'
CONST	ENDS
;	COMDAT ??_C@_0BE@EPPNHJPC@D3DFMT_Q16W16V16U16?$AA@
CONST	SEGMENT
??_C@_0BE@EPPNHJPC@D3DFMT_Q16W16V16U16?$AA@ DB 'D3DFMT_Q16W16V16U16', 00H ; `string'
CONST	ENDS
;	COMDAT ??_C@_0P@POGGPGGN@D3DFMT_INDEX32?$AA@
CONST	SEGMENT
??_C@_0P@POGGPGGN@D3DFMT_INDEX32?$AA@ DB 'D3DFMT_INDEX32', 00H ; `string'
CONST	ENDS
;	COMDAT ??_C@_0P@JJIOOHAH@D3DFMT_INDEX16?$AA@
CONST	SEGMENT
??_C@_0P@JJIOOHAH@D3DFMT_INDEX16?$AA@ DB 'D3DFMT_INDEX16', 00H ; `string'
CONST	ENDS
;	COMDAT ??_C@_0BC@LPMKMLOH@D3DFMT_VERTEXDATA?$AA@
CONST	SEGMENT
??_C@_0BC@LPMKMLOH@D3DFMT_VERTEXDATA?$AA@ DB 'D3DFMT_VERTEXDATA', 00H ; `string'
CONST	ENDS
;	COMDAT ??_C@_0L@GIFGHLDB@D3DFMT_L16?$AA@
CONST	SEGMENT
??_C@_0L@GIFGHLDB@D3DFMT_L16?$AA@ DB 'D3DFMT_L16', 00H	; `string'
CONST	ENDS
;	COMDAT ??_C@_0L@KNOCFDNO@D3DFMT_D16?$AA@
CONST	SEGMENT
??_C@_0L@KNOCFDNO@D3DFMT_D16?$AA@ DB 'D3DFMT_D16', 00H	; `string'
CONST	ENDS
;	COMDAT ??_C@_0P@LCIECDAM@D3DFMT_D24X4S4?$AA@
CONST	SEGMENT
??_C@_0P@LCIECDAM@D3DFMT_D24X4S4?$AA@ DB 'D3DFMT_D24X4S4', 00H ; `string'
CONST	ENDS
;	COMDAT ??_C@_0N@HFEADEJF@D3DFMT_D24X8?$AA@
CONST	SEGMENT
??_C@_0N@HFEADEJF@D3DFMT_D24X8?$AA@ DB 'D3DFMT_D24X8', 00H ; `string'
CONST	ENDS
;	COMDAT ??_C@_0N@HJBFNLHE@D3DFMT_D24S8?$AA@
CONST	SEGMENT
??_C@_0N@HJBFNLHE@D3DFMT_D24S8?$AA@ DB 'D3DFMT_D24S8', 00H ; `string'
CONST	ENDS
;	COMDAT ??_C@_0N@FHMLHNII@D3DFMT_D15S1?$AA@
CONST	SEGMENT
??_C@_0N@FHMLHNII@D3DFMT_D15S1?$AA@ DB 'D3DFMT_D15S1', 00H ; `string'
CONST	ENDS
;	COMDAT ??_C@_0L@MKAKECLE@D3DFMT_D32?$AA@
CONST	SEGMENT
??_C@_0L@MKAKECLE@D3DFMT_D32?$AA@ DB 'D3DFMT_D32', 00H	; `string'
CONST	ENDS
;	COMDAT ??_C@_0BE@GKJJNPH@D3DFMT_D16_LOCKABLE?$AA@
CONST	SEGMENT
??_C@_0BE@GKJJNPH@D3DFMT_D16_LOCKABLE?$AA@ DB 'D3DFMT_D16_LOCKABLE', 00H ; `string'
CONST	ENDS
;	COMDAT ??_C@_0M@MOIKHIPB@D3DFMT_DXT5?$AA@
CONST	SEGMENT
??_C@_0M@MOIKHIPB@D3DFMT_DXT5?$AA@ DB 'D3DFMT_DXT5', 00H ; `string'
CONST	ENDS
;	COMDAT ??_C@_0M@NHJBEJLA@D3DFMT_DXT4?$AA@
CONST	SEGMENT
??_C@_0M@NHJBEJLA@D3DFMT_DXT4?$AA@ DB 'D3DFMT_DXT4', 00H ; `string'
CONST	ENDS
;	COMDAT ??_C@_0M@JINANPHH@D3DFMT_DXT3?$AA@
CONST	SEGMENT
??_C@_0M@JINANPHH@D3DFMT_DXT3?$AA@ DB 'D3DFMT_DXT3', 00H ; `string'
CONST	ENDS
;	COMDAT ??_C@_0M@IBMLOODG@D3DFMT_DXT2?$AA@
CONST	SEGMENT
??_C@_0M@IBMLOODG@D3DFMT_DXT2?$AA@ DB 'D3DFMT_DXT2', 00H ; `string'
CONST	ENDS
;	COMDAT ??_C@_0M@KKOGLNPF@D3DFMT_DXT1?$AA@
CONST	SEGMENT
??_C@_0M@KKOGLNPF@D3DFMT_DXT1?$AA@ DB 'D3DFMT_DXT1', 00H ; `string'
CONST	ENDS
;	COMDAT ??_C@_0M@ODAJPGIL@D3DFMT_YUY2?$AA@
CONST	SEGMENT
??_C@_0M@ODAJPGIL@D3DFMT_YUY2?$AA@ DB 'D3DFMT_YUY2', 00H ; `string'
CONST	ENDS
;	COMDAT ??_C@_0M@OBHKFBGD@D3DFMT_UYVY?$AA@
CONST	SEGMENT
??_C@_0M@OBHKFBGD@D3DFMT_UYVY?$AA@ DB 'D3DFMT_UYVY', 00H ; `string'
CONST	ENDS
;	COMDAT ??_C@_0BD@HJEMHJNO@D3DFMT_A2W10V10U10?$AA@
CONST	SEGMENT
??_C@_0BD@HJEMHJNO@D3DFMT_A2W10V10U10?$AA@ DB 'D3DFMT_A2W10V10U10', 00H ; `string'
CONST	ENDS
;	COMDAT ??_C@_0O@PIKCPJPB@D3DFMT_V16U16?$AA@
CONST	SEGMENT
??_C@_0O@PIKCPJPB@D3DFMT_V16U16?$AA@ DB 'D3DFMT_V16U16', 00H ; `string'
CONST	ENDS
;	COMDAT ??_C@_0BA@JNGGMDBP@D3DFMT_Q8W8V8U8?$AA@
CONST	SEGMENT
??_C@_0BA@JNGGMDBP@D3DFMT_Q8W8V8U8?$AA@ DB 'D3DFMT_Q8W8V8U8', 00H ; `string'
CONST	ENDS
;	COMDAT ??_C@_0BA@FEBMLNHA@D3DFMT_X8L8V8U8?$AA@
CONST	SEGMENT
??_C@_0BA@FEBMLNHA@D3DFMT_X8L8V8U8?$AA@ DB 'D3DFMT_X8L8V8U8', 00H ; `string'
CONST	ENDS
;	COMDAT ??_C@_0O@OAOOLKLI@D3DFMT_L6V5U5?$AA@
CONST	SEGMENT
??_C@_0O@OAOOLKLI@D3DFMT_L6V5U5?$AA@ DB 'D3DFMT_L6V5U5', 00H ; `string'
CONST	ENDS
;	COMDAT ??_C@_0M@FLOAFPGK@D3DFMT_V8U8?$AA@
CONST	SEGMENT
??_C@_0M@FLOAFPGK@D3DFMT_V8U8?$AA@ DB 'D3DFMT_V8U8', 00H ; `string'
CONST	ENDS
;	COMDAT ??_C@_0M@HMLEHMLD@D3DFMT_A4L4?$AA@
CONST	SEGMENT
??_C@_0M@HMLEHMLD@D3DFMT_A4L4?$AA@ DB 'D3DFMT_A4L4', 00H ; `string'
CONST	ENDS
;	COMDAT ??_C@_0M@JKNHIMAH@D3DFMT_A8L8?$AA@
CONST	SEGMENT
??_C@_0M@JKNHIMAH@D3DFMT_A8L8?$AA@ DB 'D3DFMT_A8L8', 00H ; `string'
CONST	ENDS
;	COMDAT ??_C@_09JFLAOHAC@D3DFMT_L8?$AA@
CONST	SEGMENT
??_C@_09JFLAOHAC@D3DFMT_L8?$AA@ DB 'D3DFMT_L8', 00H	; `string'
CONST	ENDS
;	COMDAT ??_C@_09IAIMLNBG@D3DFMT_P8?$AA@
CONST	SEGMENT
??_C@_09IAIMLNBG@D3DFMT_P8?$AA@ DB 'D3DFMT_P8', 00H	; `string'
CONST	ENDS
;	COMDAT ??_C@_0M@IPOLNGBD@D3DFMT_A8P8?$AA@
CONST	SEGMENT
??_C@_0M@IPOLNGBD@D3DFMT_A8P8?$AA@ DB 'D3DFMT_A8P8', 00H ; `string'
CONST	ENDS
;	COMDAT ??_C@_0BE@GGADDKEH@D3DFMT_A16B16G16R16?$AA@
CONST	SEGMENT
??_C@_0BE@GGADDKEH@D3DFMT_A16B16G16R16?$AA@ DB 'D3DFMT_A16B16G16R16', 00H ; `string'
CONST	ENDS
;	COMDAT ??_C@_0BD@JDACEKMG@D3DFMT_A2R10G10B10?$AA@
CONST	SEGMENT
??_C@_0BD@JDACEKMG@D3DFMT_A2R10G10B10?$AA@ DB 'D3DFMT_A2R10G10B10', 00H ; `string'
CONST	ENDS
;	COMDAT ??_C@_0O@KENMFGDC@D3DFMT_G16R16?$AA@
CONST	SEGMENT
??_C@_0O@KENMFGDC@D3DFMT_G16R16?$AA@ DB 'D3DFMT_G16R16', 00H ; `string'
CONST	ENDS
;	COMDAT ??_C@_0BA@FMOMGOJK@D3DFMT_X8B8G8R8?$AA@
CONST	SEGMENT
??_C@_0BA@FMOMGOJK@D3DFMT_X8B8G8R8?$AA@ DB 'D3DFMT_X8B8G8R8', 00H ; `string'
CONST	ENDS
;	COMDAT ??_C@_0BA@FMIPJKLA@D3DFMT_A8B8G8R8?$AA@
CONST	SEGMENT
??_C@_0BA@FMIPJKLA@D3DFMT_A8B8G8R8?$AA@ DB 'D3DFMT_A8B8G8R8', 00H ; `string'
CONST	ENDS
;	COMDAT ??_C@_0BD@OELFJMLB@D3DFMT_A2B10G10R10?$AA@
CONST	SEGMENT
??_C@_0BD@OELFJMLB@D3DFMT_A2B10G10R10?$AA@ DB 'D3DFMT_A2B10G10R10', 00H ; `string'
CONST	ENDS
;	COMDAT ??_C@_0BA@OBBKHEKE@D3DFMT_X4R4G4B4?$AA@
CONST	SEGMENT
??_C@_0BA@OBBKHEKE@D3DFMT_X4R4G4B4?$AA@ DB 'D3DFMT_X4R4G4B4', 00H ; `string'
CONST	ENDS
;	COMDAT ??_C@_0BA@GAFODKEG@D3DFMT_A8R3G3B2?$AA@
CONST	SEGMENT
??_C@_0BA@GAFODKEG@D3DFMT_A8R3G3B2?$AA@ DB 'D3DFMT_A8R3G3B2', 00H ; `string'
CONST	ENDS
;	COMDAT ??_C@_09JNGIHEFB@D3DFMT_A8?$AA@
CONST	SEGMENT
??_C@_09JNGIHEFB@D3DFMT_A8?$AA@ DB 'D3DFMT_A8', 00H	; `string'
CONST	ENDS
;	COMDAT ??_C@_0O@KJABAOEE@D3DFMT_R3G3B2?$AA@
CONST	SEGMENT
??_C@_0O@KJABAOEE@D3DFMT_R3G3B2?$AA@ DB 'D3DFMT_R3G3B2', 00H ; `string'
CONST	ENDS
;	COMDAT ??_C@_0BA@OBHJIAIO@D3DFMT_A4R4G4B4?$AA@
CONST	SEGMENT
??_C@_0BA@OBHJIAIO@D3DFMT_A4R4G4B4?$AA@ DB 'D3DFMT_A4R4G4B4', 00H ; `string'
CONST	ENDS
;	COMDAT ??_C@_0BA@MDGCALGL@D3DFMT_A1R5G5B5?$AA@
CONST	SEGMENT
??_C@_0BA@MDGCALGL@D3DFMT_A1R5G5B5?$AA@ DB 'D3DFMT_A1R5G5B5', 00H ; `string'
CONST	ENDS
;	COMDAT ??_C@_0BA@MDABPPEB@D3DFMT_X1R5G5B5?$AA@
CONST	SEGMENT
??_C@_0BA@MDABPPEB@D3DFMT_X1R5G5B5?$AA@ DB 'D3DFMT_X1R5G5B5', 00H ; `string'
CONST	ENDS
;	COMDAT ??_C@_0O@HMHILKM@D3DFMT_R5G6B5?$AA@
CONST	SEGMENT
??_C@_0O@HMHILKM@D3DFMT_R5G6B5?$AA@ DB 'D3DFMT_R5G6B5', 00H ; `string'
CONST	ENDS
;	COMDAT ??_C@_0BA@CHBEFBCE@D3DFMT_X8R8G8B8?$AA@
CONST	SEGMENT
??_C@_0BA@CHBEFBCE@D3DFMT_X8R8G8B8?$AA@ DB 'D3DFMT_X8R8G8B8', 00H ; `string'
CONST	ENDS
;	COMDAT ??_C@_0BA@CHHHKFAO@D3DFMT_A8R8G8B8?$AA@
CONST	SEGMENT
??_C@_0BA@CHHHKFAO@D3DFMT_A8R8G8B8?$AA@ DB 'D3DFMT_A8R8G8B8', 00H ; `string'
CONST	ENDS
;	COMDAT ??_C@_0O@OOCIJBAM@D3DFMT_R8G8B8?$AA@
CONST	SEGMENT
??_C@_0O@OOCIJBAM@D3DFMT_R8G8B8?$AA@ DB 'D3DFMT_R8G8B8', 00H ; `string'
CONST	ENDS
;	COMDAT ??_C@_0P@FCGOGLON@D3DFMT_UNKNOWN?$AA@
CONST	SEGMENT
??_C@_0P@FCGOGLON@D3DFMT_UNKNOWN?$AA@ DB 'D3DFMT_UNKNOWN', 00H ; `string'
CONST	ENDS
;	COMDAT ??_C@_05BPCBICBK@?$CFs?2?4?4?$AA@
CONST	SEGMENT
??_C@_05BPCBICBK@?$CFs?2?4?4?$AA@ DB '%s\..', 00H	; `string'
CONST	ENDS
;	COMDAT ??_C@_04HDOCAJNK@?$CFs?$CFs?$AA@
CONST	SEGMENT
??_C@_04HDOCAJNK@?$CFs?$CFs?$AA@ DB '%s%s', 00H		; `string'
CONST	ENDS
;	COMDAT ??_C@_0P@HEBEMA@?$CFs?2?4?4?2?4?4?2?$CFs?2?$CFs?$AA@
CONST	SEGMENT
??_C@_0P@HEBEMA@?$CFs?2?4?4?2?4?4?2?$CFs?2?$CFs?$AA@ DB '%s\..\..\%s\%s', 00H ; `string'
CONST	ENDS
;	COMDAT ??_C@_0M@NALGHNGE@?$CFs?2?4?4?2?$CFs?2?$CFs?$AA@
CONST	SEGMENT
??_C@_0M@NALGHNGE@?$CFs?2?4?4?2?$CFs?2?$CFs?$AA@ DB '%s\..\%s\%s', 00H ; `string'
CONST	ENDS
;	COMDAT ??_C@_0M@HKPCIGNN@?$CFs?2?4?4?2?4?4?2?$CFs?$AA@
CONST	SEGMENT
??_C@_0M@HKPCIGNN@?$CFs?2?4?4?2?4?4?2?$CFs?$AA@ DB '%s\..\..\%s', 00H ; `string'
CONST	ENDS
;	COMDAT ??_C@_08OPCCNCAK@?$CFs?2?4?4?2?$CFs?$AA@
CONST	SEGMENT
??_C@_08OPCCNCAK@?$CFs?2?4?4?2?$CFs?$AA@ DB '%s\..\%s', 00H ; `string'
CONST	ENDS
;	COMDAT ??_C@_05BMGBEOOC@?$CFs?2?$CFs?$AA@
CONST	SEGMENT
??_C@_05BMGBEOOC@?$CFs?2?$CFs?$AA@ DB '%s\%s', 00H	; `string'
CONST	ENDS
;	COMDAT ??_C@_08KDFEKKMA@?4?4?2?4?4?2?$CFs?$AA@
CONST	SEGMENT
??_C@_08KDFEKKMA@?4?4?2?4?4?2?$CFs?$AA@ DB '..\..\%s', 00H ; `string'
CONST	ENDS
;	COMDAT ??_C@_05LGCFLFFL@?4?4?2?$CFs?$AA@
CONST	SEGMENT
??_C@_05LGCFLFFL@?4?4?2?$CFs?$AA@ DB '..\%s', 00H	; `string'
CONST	ENDS
;	COMDAT ??_C@_01LFCBOECM@?4?$AA@
CONST	SEGMENT
??_C@_01LFCBOECM@?4?$AA@ DB '.', 00H			; `string'
CONST	ENDS
;	COMDAT ??_C@_08GDMOFFMA@media?2?$CFs?$AA@
CONST	SEGMENT
??_C@_08GDMOFFMA@media?2?$CFs?$AA@ DB 'media\%s', 00H	; `string'
CONST	ENDS
;	COMDAT ??_C@_01KICIPPFI@?2?$AA@
CONST	SEGMENT
??_C@_01KICIPPFI@?2?$AA@ DB '\', 00H			; `string'
CONST	ENDS
;	COMDAT ??_C@_0BC@KPPJBALB@?$CGDon?8t?5show?5again?$AA@
CONST	SEGMENT
??_C@_0BC@KPPJBALB@?$CGDon?8t?5show?5again?$AA@ DB '&Don''t show again', 00H ; `string'
CONST	ENDS
;	COMDAT ??_C@_03MDIDAHKD@?$CGNo?$AA@
CONST	SEGMENT
??_C@_03MDIDAHKD@?$CGNo?$AA@ DB '&No', 00H		; `string'
CONST	ENDS
;	COMDAT ??_C@_04ILFHLBJA@?$CGYes?$AA@
CONST	SEGMENT
??_C@_04ILFHLBJA@?$CGYes?$AA@ DB '&Yes', 00H		; `string'
CONST	ENDS
;	COMDAT ??_C@_0KC@EOHLBFGP@Switching?5to?5the?5Direct3D?5refere@
CONST	SEGMENT
??_C@_0KC@EOHLBFGP@Switching?5to?5the?5Direct3D?5refere@ DB 'Switching to'
	DB	' the Direct3D reference rasterizer, a software device', 0aH, 't'
	DB	'hat implements the entire Direct3D feature set, but runs very'
	DB	' slowly.', 0aH, 'Do you wish to continue?', 00H ; `string'
CONST	ENDS
;	COMDAT ??_C@_0O@LMJDHGJK@MS?5Sans?5Serif?$AA@
CONST	SEGMENT
??_C@_0O@LMJDHGJK@MS?5Sans?5Serif?$AA@ DB 'MS Sans Serif', 00H ; `string'
CONST	ENDS
;	COMDAT ??_C@_01CLKCMJKC@?5?$AA@
CONST	SEGMENT
??_C@_01CLKCMJKC@?5?$AA@ DB ' ', 00H			; `string'
CONST	ENDS
;	COMDAT ??_C@_0BE@ONMNIDPM@Skip?5Warning?5On?5REF?$AA@
CONST	SEGMENT
??_C@_0BE@ONMNIDPM@Skip?5Warning?5On?5REF?$AA@ DB 'Skip Warning On REF', 00H ; `string'
CONST	ENDS
;	COMDAT ??_C@_0CD@JNJEACIN@Software?2Microsoft?2DirectX?59?40?5S@
CONST	SEGMENT
??_C@_0CD@JNJEACIN@Software?2Microsoft?2DirectX?59?40?5S@ DB 'Software\Mi'
	DB	'crosoft\DirectX 9.0 SDK', 00H		; `string'
CONST	ENDS
;	COMDAT ??_7CModelViewerCamera@@6B@
CONST	SEGMENT
??_7CModelViewerCamera@@6B@ DD FLAT:??_R4CModelViewerCamera@@6B@ ; CModelViewerCamera::`vftable'
	DD	FLAT:?HandleMessages@CModelViewerCamera@@UAEJPAUHWND__@@IIJ@Z
	DD	FLAT:?FrameMove@CModelViewerCamera@@UAEXM@Z
	DD	FLAT:?Reset@CModelViewerCamera@@UAEXXZ
	DD	FLAT:?SetViewParams@CModelViewerCamera@@UAEXPAUD3DXVECTOR3@@0@Z
	DD	FLAT:?SetProjParams@CBaseCamera@@UAEXMMMM@Z
	DD	FLAT:?SetDragRect@CModelViewerCamera@@UAEXAAUtagRECT@@@Z
	DD	FLAT:?MapKey@CBaseCamera@@MAE?AW4D3DUtil_CameraKeys@@I@Z
CONST	ENDS
;	COMDAT ??_7CFirstPersonCamera@@6B@
CONST	SEGMENT
??_7CFirstPersonCamera@@6B@ DD FLAT:??_R4CFirstPersonCamera@@6B@ ; CFirstPersonCamera::`vftable'
	DD	FLAT:?HandleMessages@CBaseCamera@@UAEJPAUHWND__@@IIJ@Z
	DD	FLAT:?FrameMove@CFirstPersonCamera@@UAEXM@Z
	DD	FLAT:?Reset@CBaseCamera@@UAEXXZ
	DD	FLAT:?SetViewParams@CBaseCamera@@UAEXPAUD3DXVECTOR3@@0@Z
	DD	FLAT:?SetProjParams@CBaseCamera@@UAEXMMMM@Z
	DD	FLAT:?SetDragRect@CBaseCamera@@UAEXAAUtagRECT@@@Z
	DD	FLAT:?MapKey@CBaseCamera@@MAE?AW4D3DUtil_CameraKeys@@I@Z
CONST	ENDS
;	COMDAT ??_7CBaseCamera@@6B@
CONST	SEGMENT
??_7CBaseCamera@@6B@ DD FLAT:??_R4CBaseCamera@@6B@	; CBaseCamera::`vftable'
	DD	FLAT:?HandleMessages@CBaseCamera@@UAEJPAUHWND__@@IIJ@Z
	DD	FLAT:__purecall
	DD	FLAT:?Reset@CBaseCamera@@UAEXXZ
	DD	FLAT:?SetViewParams@CBaseCamera@@UAEXPAUD3DXVECTOR3@@0@Z
	DD	FLAT:?SetProjParams@CBaseCamera@@UAEXMMMM@Z
	DD	FLAT:?SetDragRect@CBaseCamera@@UAEXAAUtagRECT@@@Z
	DD	FLAT:?MapKey@CBaseCamera@@MAE?AW4D3DUtil_CameraKeys@@I@Z
CONST	ENDS
;	COMDAT xdata$x
xdata$x	SEGMENT
__unwindtable$?AddLine@CDXUTLineManager@@QAEJPAHPAUD3DXVECTOR2@@KKMM_N@Z DD 0ffffffffH
	DD	FLAT:__unwindfunclet$?AddLine@CDXUTLineManager@@QAEJPAHPAUD3DXVECTOR2@@KKMM_N@Z$0
__ehfuncinfo$?AddLine@CDXUTLineManager@@QAEJPAHPAUD3DXVECTOR2@@KKMM_N@Z DD 019930522H
	DD	01H
	DD	FLAT:__unwindtable$?AddLine@CDXUTLineManager@@QAEJPAHPAUD3DXVECTOR2@@KKMM_N@Z
	DD	2 DUP(00H)
	DD	2 DUP(00H)
	DD	00H
	DD	01H
xdata$x	ENDS
;	COMDAT xdata$x
xdata$x	SEGMENT
__unwindtable$??1CDXUTLineManager@@QAE@XZ DD 0ffffffffH
	DD	FLAT:__unwindfunclet$??1CDXUTLineManager@@QAE@XZ$0
__ehfuncinfo$??1CDXUTLineManager@@QAE@XZ DD 019930522H
	DD	01H
	DD	FLAT:__unwindtable$??1CDXUTLineManager@@QAE@XZ
	DD	2 DUP(00H)
	DD	2 DUP(00H)
	DD	00H
	DD	01H
xdata$x	ENDS
;	COMDAT xdata$x
xdata$x	SEGMENT
__unwindtable$??0CDXUTResourceCache@@IAE@XZ DD 0ffffffffH
	DD	FLAT:__unwindfunclet$??0CDXUTResourceCache@@IAE@XZ$0
	DD	00H
	DD	FLAT:__unwindfunclet$??0CDXUTResourceCache@@IAE@XZ$1
__ehfuncinfo$??0CDXUTResourceCache@@IAE@XZ DD 019930522H
	DD	02H
	DD	FLAT:__unwindtable$??0CDXUTResourceCache@@IAE@XZ
	DD	2 DUP(00H)
	DD	2 DUP(00H)
	DD	00H
	DD	01H
xdata$x	ENDS
;	COMDAT xdata$x
xdata$x	SEGMENT
__unwindtable$?DXUTGetGlobalResourceCache@@YAAAVCDXUTResourceCache@@XZ DD 0ffffffffH
	DD	FLAT:__unwindfunclet$?DXUTGetGlobalResourceCache@@YAAAVCDXUTResourceCache@@XZ$0
__ehfuncinfo$?DXUTGetGlobalResourceCache@@YAAAVCDXUTResourceCache@@XZ DD 019930522H
	DD	01H
	DD	FLAT:__unwindtable$?DXUTGetGlobalResourceCache@@YAAAVCDXUTResourceCache@@XZ
	DD	2 DUP(00H)
	DD	2 DUP(00H)
	DD	00H
	DD	01H
xdata$x	ENDS
;	COMDAT xdata$x
xdata$x	SEGMENT
__unwindtable$??1CDXUTResourceCache@@QAE@XZ DD 0ffffffffH
	DD	FLAT:__unwindfunclet$??1CDXUTResourceCache@@QAE@XZ$0
	DD	00H
	DD	FLAT:__unwindfunclet$??1CDXUTResourceCache@@QAE@XZ$1
	DD	01H
	DD	FLAT:__unwindfunclet$??1CDXUTResourceCache@@QAE@XZ$2
__ehfuncinfo$??1CDXUTResourceCache@@QAE@XZ DD 019930522H
	DD	03H
	DD	FLAT:__unwindtable$??1CDXUTResourceCache@@QAE@XZ
	DD	2 DUP(00H)
	DD	2 DUP(00H)
	DD	00H
	DD	01H
xdata$x	ENDS
;	COMDAT xdata$x
xdata$x	SEGMENT
__unwindtable$?DXUTGetGlobalTimer@@YAPAVCDXUTTimer@@XZ DD 0ffffffffH
	DD	FLAT:__unwindfunclet$?DXUTGetGlobalTimer@@YAPAVCDXUTTimer@@XZ$0
__ehfuncinfo$?DXUTGetGlobalTimer@@YAPAVCDXUTTimer@@XZ DD 019930522H
	DD	01H
	DD	FLAT:__unwindtable$?DXUTGetGlobalTimer@@YAPAVCDXUTTimer@@XZ
	DD	2 DUP(00H)
	DD	2 DUP(00H)
	DD	00H
	DD	01H
xdata$x	ENDS
; Function compile flags: /Odtp /RTCsu /ZI
; File z:\sampsrc\02xu1\saco\d3d9\common\dxutmisc.cpp
;	COMDAT ?DXUT_EnsureD3DAPIs@@YA_NXZ
_TEXT	SEGMENT
_wszPath$ = -272					; size = 261
__$ArrayPad$ = -4					; size = 4
?DXUT_EnsureD3DAPIs@@YA_NXZ PROC			; DXUT_EnsureD3DAPIs, COMDAT

; 2755 : {

	push	ebp
	mov	ebp, esp
	sub	esp, 468				; 000001d4H
	push	ebx
	push	esi
	push	edi
	lea	edi, DWORD PTR [ebp-468]
	mov	ecx, 117				; 00000075H
	mov	eax, -858993460				; ccccccccH
	rep stosd
	mov	eax, DWORD PTR ___security_cookie
	xor	eax, ebp
	mov	DWORD PTR __$ArrayPad$[ebp], eax

; 2756 :     // If module is non-NULL, this function has already been called.  Note
; 2757 :     // that this doesn't guarantee that all D3D9 procaddresses were found.
; 2758 :     if( s_hModD3D9 != NULL )

	cmp	DWORD PTR _s_hModD3D9, 0
	je	SHORT $LN3@DXUT_Ensur

; 2759 :         return true;

	mov	al, 1
	jmp	$LN4@DXUT_Ensur
$LN3@DXUT_Ensur:

; 2760 : 
; 2761 :     // This may fail if DirectX 9 isn't installed
; 2762 :     TCHAR wszPath[MAX_PATH+1];
; 2763 :     if( !::GetSystemDirectory( wszPath, MAX_PATH+1 ) )

	mov	esi, esp
	push	261					; 00000105H
	lea	eax, DWORD PTR _wszPath$[ebp]
	push	eax
	call	DWORD PTR __imp__GetSystemDirectoryA@8
	cmp	esi, esp
	call	__RTC_CheckEsp
	test	eax, eax
	jne	SHORT $LN2@DXUT_Ensur

; 2764 :         return false;

	xor	al, al
	jmp	$LN4@DXUT_Ensur
$LN2@DXUT_Ensur:

; 2765 :     StringCchCat( wszPath, MAX_PATH, "\\d3d9.dll" );

	push	OFFSET ??_C@_09KLCMKMDE@?2d3d9?4dll?$AA@
	push	260					; 00000104H
	lea	eax, DWORD PTR _wszPath$[ebp]
	push	eax
	call	?StringCchCatA@@YGJPADIPBD@Z		; StringCchCatA

; 2766 :     s_hModD3D9 = LoadLibrary( wszPath );

	mov	esi, esp
	lea	eax, DWORD PTR _wszPath$[ebp]
	push	eax
	call	DWORD PTR __imp__LoadLibraryA@4
	cmp	esi, esp
	call	__RTC_CheckEsp
	mov	DWORD PTR _s_hModD3D9, eax

; 2767 :     if( s_hModD3D9 == NULL ) 

	cmp	DWORD PTR _s_hModD3D9, 0
	jne	SHORT $LN1@DXUT_Ensur

; 2768 :         return false;

	xor	al, al
	jmp	$LN4@DXUT_Ensur
$LN1@DXUT_Ensur:

; 2769 :     s_DynamicDirect3DCreate9 = (LPDIRECT3DCREATE9)GetProcAddress( s_hModD3D9, "Direct3DCreate9" );

	mov	esi, esp
	push	OFFSET ??_C@_0BA@FAFMMBOF@Direct3DCreate9?$AA@
	mov	eax, DWORD PTR _s_hModD3D9
	push	eax
	call	DWORD PTR __imp__GetProcAddress@8
	cmp	esi, esp
	call	__RTC_CheckEsp
	mov	DWORD PTR _s_DynamicDirect3DCreate9, eax

; 2770 :     s_DynamicD3DPERF_BeginEvent = (LPD3DPERF_BEGINEVENT)GetProcAddress( s_hModD3D9, "D3DPERF_BeginEvent" );

	mov	esi, esp
	push	OFFSET ??_C@_0BD@CLFNPJIE@D3DPERF_BeginEvent?$AA@
	mov	eax, DWORD PTR _s_hModD3D9
	push	eax
	call	DWORD PTR __imp__GetProcAddress@8
	cmp	esi, esp
	call	__RTC_CheckEsp
	mov	DWORD PTR _s_DynamicD3DPERF_BeginEvent, eax

; 2771 :     s_DynamicD3DPERF_EndEvent = (LPD3DPERF_ENDEVENT)GetProcAddress( s_hModD3D9, "D3DPERF_EndEvent" );

	mov	esi, esp
	push	OFFSET ??_C@_0BB@KDHKMPMH@D3DPERF_EndEvent?$AA@
	mov	eax, DWORD PTR _s_hModD3D9
	push	eax
	call	DWORD PTR __imp__GetProcAddress@8
	cmp	esi, esp
	call	__RTC_CheckEsp
	mov	DWORD PTR _s_DynamicD3DPERF_EndEvent, eax

; 2772 :     s_DynamicD3DPERF_SetMarker = (LPD3DPERF_SETMARKER)GetProcAddress( s_hModD3D9, "D3DPERF_SetMarker" );

	mov	esi, esp
	push	OFFSET ??_C@_0BC@BJDCGGFC@D3DPERF_SetMarker?$AA@
	mov	eax, DWORD PTR _s_hModD3D9
	push	eax
	call	DWORD PTR __imp__GetProcAddress@8
	cmp	esi, esp
	call	__RTC_CheckEsp
	mov	DWORD PTR _s_DynamicD3DPERF_SetMarker, eax

; 2773 :     s_DynamicD3DPERF_SetRegion = (LPD3DPERF_SETREGION)GetProcAddress( s_hModD3D9, "D3DPERF_SetRegion" );

	mov	esi, esp
	push	OFFSET ??_C@_0BC@PKNMMAJB@D3DPERF_SetRegion?$AA@
	mov	eax, DWORD PTR _s_hModD3D9
	push	eax
	call	DWORD PTR __imp__GetProcAddress@8
	cmp	esi, esp
	call	__RTC_CheckEsp
	mov	DWORD PTR _s_DynamicD3DPERF_SetRegion, eax

; 2774 :     s_DynamicD3DPERF_QueryRepeatFrame = (LPD3DPERF_QUERYREPEATFRAME)GetProcAddress( s_hModD3D9, "D3DPERF_QueryRepeatFrame" );

	mov	esi, esp
	push	OFFSET ??_C@_0BJ@IGNIEEPP@D3DPERF_QueryRepeatFrame?$AA@
	mov	eax, DWORD PTR _s_hModD3D9
	push	eax
	call	DWORD PTR __imp__GetProcAddress@8
	cmp	esi, esp
	call	__RTC_CheckEsp
	mov	DWORD PTR _s_DynamicD3DPERF_QueryRepeatFrame, eax

; 2775 :     s_DynamicD3DPERF_SetOptions = (LPD3DPERF_SETOPTIONS)GetProcAddress( s_hModD3D9, "D3DPERF_SetOptions" );

	mov	esi, esp
	push	OFFSET ??_C@_0BD@NEPKLCIB@D3DPERF_SetOptions?$AA@
	mov	eax, DWORD PTR _s_hModD3D9
	push	eax
	call	DWORD PTR __imp__GetProcAddress@8
	cmp	esi, esp
	call	__RTC_CheckEsp
	mov	DWORD PTR _s_DynamicD3DPERF_SetOptions, eax

; 2776 :     s_DynamicD3DPERF_GetStatus = (LPD3DPERF_GETSTATUS)GetProcAddress( s_hModD3D9, "D3DPERF_GetStatus" );

	mov	esi, esp
	push	OFFSET ??_C@_0BC@HJIKALNB@D3DPERF_GetStatus?$AA@
	mov	eax, DWORD PTR _s_hModD3D9
	push	eax
	call	DWORD PTR __imp__GetProcAddress@8
	cmp	esi, esp
	call	__RTC_CheckEsp
	mov	DWORD PTR _s_DynamicD3DPERF_GetStatus, eax

; 2777 :     return true;

	mov	al, 1
$LN4@DXUT_Ensur:

; 2778 : }

	push	edx
	mov	ecx, ebp
	push	eax
	lea	edx, DWORD PTR $LN8@DXUT_Ensur
	call	@_RTC_CheckStackVars@8
	pop	eax
	pop	edx
	pop	edi
	pop	esi
	pop	ebx
	mov	ecx, DWORD PTR __$ArrayPad$[ebp]
	xor	ecx, ebp
	call	@__security_check_cookie@4
	add	esp, 468				; 000001d4H
	cmp	ebp, esp
	call	__RTC_CheckEsp
	mov	esp, ebp
	pop	ebp
	ret	0
$LN8@DXUT_Ensur:
	DD	1
	DD	$LN7@DXUT_Ensur
$LN7@DXUT_Ensur:
	DD	-272					; fffffef0H
	DD	261					; 00000105H
	DD	$LN6@DXUT_Ensur
$LN6@DXUT_Ensur:
	DB	119					; 00000077H
	DB	115					; 00000073H
	DB	122					; 0000007aH
	DB	80					; 00000050H
	DB	97					; 00000061H
	DB	116					; 00000074H
	DB	104					; 00000068H
	DB	0
?DXUT_EnsureD3DAPIs@@YA_NXZ ENDP			; DXUT_EnsureD3DAPIs
_TEXT	ENDS
; Function compile flags: /Odtp /RTCsu /ZI
; File z:\sampsrc\02xu1\saco\d3d9\common\dxutmisc.cpp
;	COMDAT ?DXUTMediaSearchPath@@YAPADXZ
_TEXT	SEGMENT
?DXUTMediaSearchPath@@YAPADXZ PROC			; DXUTMediaSearchPath, COMDAT

; 284  : {

	push	ebp
	mov	ebp, esp
	sub	esp, 192				; 000000c0H
	push	ebx
	push	esi
	push	edi
	lea	edi, DWORD PTR [ebp-192]
	mov	ecx, 48					; 00000030H
	mov	eax, -858993460				; ccccccccH
	rep stosd

; 285  :     static TCHAR s_strMediaSearchPath[MAX_PATH] = {0};
; 286  :     return s_strMediaSearchPath;

	mov	eax, OFFSET ?s_strMediaSearchPath@?1??DXUTMediaSearchPath@@YAPADXZ@4PADA

; 287  : 
; 288  : }   

	pop	edi
	pop	esi
	pop	ebx
	mov	esp, ebp
	pop	ebp
	ret	0
?DXUTMediaSearchPath@@YAPADXZ ENDP			; DXUTMediaSearchPath
_TEXT	ENDS
; Function compile flags: /Odtp /RTCsu /ZI
; File z:\sampsrc\02xu1\saco\d3d9\common\dxutmisc.cpp
;	COMDAT ?DisplaySwitchToREFWarningProc@@YGHPAUHWND__@@IIJ@Z
_TEXT	SEGMENT
tv156 = -196						; size = 4
tv149 = -196						; size = 4
tv139 = -196						; size = 4
tv131 = -196						; size = 4
tv93 = -196						; size = 4
tv64 = -196						; size = 4
_hDlg$ = 8						; size = 4
_message$ = 12						; size = 4
_wParam$ = 16						; size = 4
_lParam$ = 20						; size = 4
?DisplaySwitchToREFWarningProc@@YGHPAUHWND__@@IIJ@Z PROC ; DisplaySwitchToREFWarningProc, COMDAT

; 100  : { 

	push	ebp
	mov	ebp, esp
	sub	esp, 196				; 000000c4H
	push	ebx
	push	esi
	push	edi
	lea	edi, DWORD PTR [ebp-196]
	mov	ecx, 49					; 00000031H
	mov	eax, -858993460				; ccccccccH
	rep stosd

; 101  :     switch (message) 

	mov	eax, DWORD PTR _message$[ebp]
	mov	DWORD PTR tv64[ebp], eax
	cmp	DWORD PTR tv64[ebp], 272		; 00000110H
	je	SHORT $LN7@DisplaySwi
	cmp	DWORD PTR tv64[ebp], 273		; 00000111H
	je	$LN6@DisplaySwi
	jmp	$LN8@DisplaySwi
$LN7@DisplaySwi:

; 102  :     { 
; 103  :         case WM_INITDIALOG:
; 104  :             // Easier to set text here than in the DLGITEMTEMPLATE
; 105  :             SetWindowText( hDlg, DXUTGetWindowTitle() );

	call	?DXUTGetWindowTitle@@YAPBDXZ		; DXUTGetWindowTitle
	mov	esi, esp
	push	eax
	mov	eax, DWORD PTR _hDlg$[ebp]
	push	eax
	call	DWORD PTR __imp__SetWindowTextA@8
	cmp	esi, esp
	call	__RTC_CheckEsp

; 106  :             SendMessage( GetDlgItem(hDlg, 0x100), STM_SETIMAGE, IMAGE_ICON, (LPARAM)LoadIcon(0, IDI_QUESTION));

	mov	esi, esp
	push	32514					; 00007f02H
	push	0
	call	DWORD PTR __imp__LoadIconA@8
	cmp	esi, esp
	call	__RTC_CheckEsp
	mov	esi, esp
	push	eax
	push	1
	push	370					; 00000172H
	mov	edi, esp
	push	256					; 00000100H
	mov	eax, DWORD PTR _hDlg$[ebp]
	push	eax
	call	DWORD PTR __imp__GetDlgItem@8
	cmp	edi, esp
	call	__RTC_CheckEsp
	push	eax
	call	DWORD PTR __imp__SendMessageA@16
	cmp	esi, esp
	call	__RTC_CheckEsp

; 107  :             SetDlgItemText( hDlg, 0x101, "Switching to the Direct3D reference rasterizer, a software device\nthat implements the entire Direct3D feature set, but runs very slowly.\nDo you wish to continue?" ); 

	mov	esi, esp
	push	OFFSET ??_C@_0KC@EOHLBFGP@Switching?5to?5the?5Direct3D?5refere@
	push	257					; 00000101H
	mov	eax, DWORD PTR _hDlg$[ebp]
	push	eax
	call	DWORD PTR __imp__SetDlgItemTextA@12
	cmp	esi, esp
	call	__RTC_CheckEsp

; 108  :             SetDlgItemText( hDlg, IDYES, "&Yes" );

	mov	esi, esp
	push	OFFSET ??_C@_04ILFHLBJA@?$CGYes?$AA@
	push	6
	mov	eax, DWORD PTR _hDlg$[ebp]
	push	eax
	call	DWORD PTR __imp__SetDlgItemTextA@12
	cmp	esi, esp
	call	__RTC_CheckEsp

; 109  :             SetDlgItemText( hDlg, IDNO, "&No" );

	mov	esi, esp
	push	OFFSET ??_C@_03MDIDAHKD@?$CGNo?$AA@
	push	7
	mov	eax, DWORD PTR _hDlg$[ebp]
	push	eax
	call	DWORD PTR __imp__SetDlgItemTextA@12
	cmp	esi, esp
	call	__RTC_CheckEsp

; 110  :             SetDlgItemText( hDlg, IDIGNORE, "&Don't show again" );

	mov	esi, esp
	push	OFFSET ??_C@_0BC@KPPJBALB@?$CGDon?8t?5show?5again?$AA@
	push	5
	mov	eax, DWORD PTR _hDlg$[ebp]
	push	eax
	call	DWORD PTR __imp__SetDlgItemTextA@12
	cmp	esi, esp
	call	__RTC_CheckEsp

; 111  :             break;

	jmp	$LN8@DisplaySwi
$LN6@DisplaySwi:

; 112  : 
; 113  :         case WM_COMMAND: 
; 114  :             switch (LOWORD(wParam)) 

	mov	eax, DWORD PTR _wParam$[ebp]
	and	eax, 65535				; 0000ffffH
	movzx	ecx, ax
	mov	DWORD PTR tv93[ebp], ecx
	mov	edx, DWORD PTR tv93[ebp]
	sub	edx, 2
	mov	DWORD PTR tv93[ebp], edx
	cmp	DWORD PTR tv93[ebp], 5
	ja	$LN8@DisplaySwi
	mov	eax, DWORD PTR tv93[ebp]
	jmp	DWORD PTR $LN20@DisplaySwi[eax*4]
$LN3@DisplaySwi:

; 115  :             { 
; 116  :                 case IDIGNORE: CheckDlgButton( hDlg, IDIGNORE, (IsDlgButtonChecked( hDlg, IDIGNORE ) == BST_CHECKED) ? BST_UNCHECKED : BST_CHECKED ); EnableWindow( GetDlgItem( hDlg, IDNO ), (IsDlgButtonChecked( hDlg, IDIGNORE ) != BST_CHECKED) ); break;

	mov	esi, esp
	push	5
	mov	eax, DWORD PTR _hDlg$[ebp]
	push	eax
	call	DWORD PTR __imp__IsDlgButtonChecked@8
	cmp	esi, esp
	call	__RTC_CheckEsp
	cmp	eax, 1
	jne	SHORT $LN12@DisplaySwi
	mov	DWORD PTR tv131[ebp], 0
	jmp	SHORT $LN13@DisplaySwi
$LN12@DisplaySwi:
	mov	DWORD PTR tv131[ebp], 1
$LN13@DisplaySwi:
	mov	esi, esp
	mov	ecx, DWORD PTR tv131[ebp]
	push	ecx
	push	5
	mov	edx, DWORD PTR _hDlg$[ebp]
	push	edx
	call	DWORD PTR __imp__CheckDlgButton@12
	cmp	esi, esp
	call	__RTC_CheckEsp
	mov	esi, esp
	push	5
	mov	eax, DWORD PTR _hDlg$[ebp]
	push	eax
	call	DWORD PTR __imp__IsDlgButtonChecked@8
	cmp	esi, esp
	call	__RTC_CheckEsp
	cmp	eax, 1
	je	SHORT $LN14@DisplaySwi
	mov	DWORD PTR tv139[ebp], 1
	jmp	SHORT $LN15@DisplaySwi
$LN14@DisplaySwi:
	mov	DWORD PTR tv139[ebp], 0
$LN15@DisplaySwi:
	mov	esi, esp
	mov	ecx, DWORD PTR tv139[ebp]
	push	ecx
	mov	edi, esp
	push	7
	mov	edx, DWORD PTR _hDlg$[ebp]
	push	edx
	call	DWORD PTR __imp__GetDlgItem@8
	cmp	edi, esp
	call	__RTC_CheckEsp
	push	eax
	call	DWORD PTR __imp__EnableWindow@8
	cmp	esi, esp
	call	__RTC_CheckEsp
	jmp	$LN8@DisplaySwi
$LN2@DisplaySwi:

; 117  :                 case IDNO: EndDialog(hDlg, (IsDlgButtonChecked( hDlg, IDIGNORE ) == BST_CHECKED) ? IDNO|0x80 : IDNO|0x00 ); return TRUE; 

	mov	esi, esp
	push	5
	mov	eax, DWORD PTR _hDlg$[ebp]
	push	eax
	call	DWORD PTR __imp__IsDlgButtonChecked@8
	cmp	esi, esp
	call	__RTC_CheckEsp
	cmp	eax, 1
	jne	SHORT $LN16@DisplaySwi
	mov	DWORD PTR tv149[ebp], 135		; 00000087H
	jmp	SHORT $LN17@DisplaySwi
$LN16@DisplaySwi:
	mov	DWORD PTR tv149[ebp], 7
$LN17@DisplaySwi:
	mov	esi, esp
	mov	ecx, DWORD PTR tv149[ebp]
	push	ecx
	mov	edx, DWORD PTR _hDlg$[ebp]
	push	edx
	call	DWORD PTR __imp__EndDialog@8
	cmp	esi, esp
	call	__RTC_CheckEsp
	mov	eax, 1
	jmp	SHORT $LN10@DisplaySwi
$LN1@DisplaySwi:

; 118  :                 case IDCANCEL:
; 119  :                 case IDYES: EndDialog(hDlg, (IsDlgButtonChecked( hDlg, IDIGNORE ) == BST_CHECKED) ? IDYES|0x80 : IDYES|0x00 ); return TRUE; 

	mov	esi, esp
	push	5
	mov	eax, DWORD PTR _hDlg$[ebp]
	push	eax
	call	DWORD PTR __imp__IsDlgButtonChecked@8
	cmp	esi, esp
	call	__RTC_CheckEsp
	cmp	eax, 1
	jne	SHORT $LN18@DisplaySwi
	mov	DWORD PTR tv156[ebp], 134		; 00000086H
	jmp	SHORT $LN19@DisplaySwi
$LN18@DisplaySwi:
	mov	DWORD PTR tv156[ebp], 6
$LN19@DisplaySwi:
	mov	esi, esp
	mov	ecx, DWORD PTR tv156[ebp]
	push	ecx
	mov	edx, DWORD PTR _hDlg$[ebp]
	push	edx
	call	DWORD PTR __imp__EndDialog@8
	cmp	esi, esp
	call	__RTC_CheckEsp
	mov	eax, 1
	jmp	SHORT $LN10@DisplaySwi
$LN8@DisplaySwi:

; 120  :             } 
; 121  :             break;
; 122  :     } 
; 123  :     return FALSE; 

	xor	eax, eax
$LN10@DisplaySwi:

; 124  : } 

	pop	edi
	pop	esi
	pop	ebx
	add	esp, 196				; 000000c4H
	cmp	ebp, esp
	call	__RTC_CheckEsp
	mov	esp, ebp
	pop	ebp
	ret	16					; 00000010H
$LN20@DisplaySwi:
	DD	$LN1@DisplaySwi
	DD	$LN8@DisplaySwi
	DD	$LN8@DisplaySwi
	DD	$LN3@DisplaySwi
	DD	$LN1@DisplaySwi
	DD	$LN2@DisplaySwi
?DisplaySwitchToREFWarningProc@@YGHPAUHWND__@@IIJ@Z ENDP ; DisplaySwitchToREFWarningProc
_TEXT	ENDS
; Function compile flags: /Odtp /RTCsu /ZI
; File z:\sampsrc\02xu1\saco\d3d9\common\dxutmisc.cpp
;	COMDAT ?DXUTFindMediaSearchParentDirs@@YA_NPADH00@Z
_TEXT	SEGMENT
_strFilePart$ = -816					; size = 4
_strSearch$ = -804					; size = 260
_strFullFileName$ = -536				; size = 260
_strFullPath$ = -268					; size = 260
__$ArrayPad$ = -4					; size = 4
_strSearchPath$ = 8					; size = 4
_cchSearch$ = 12					; size = 4
_strStartAt$ = 16					; size = 4
_strLeafName$ = 20					; size = 4
?DXUTFindMediaSearchParentDirs@@YA_NPADH00@Z PROC	; DXUTFindMediaSearchParentDirs, COMDAT

; 486  : {

	push	ebp
	mov	ebp, esp
	sub	esp, 1012				; 000003f4H
	push	ebx
	push	esi
	push	edi
	lea	edi, DWORD PTR [ebp-1012]
	mov	ecx, 253				; 000000fdH
	mov	eax, -858993460				; ccccccccH
	rep stosd
	mov	eax, DWORD PTR ___security_cookie
	xor	eax, ebp
	mov	DWORD PTR __$ArrayPad$[ebp], eax

; 487  :     TCHAR strFullPath[MAX_PATH] = {0};

	mov	BYTE PTR _strFullPath$[ebp], 0
	push	259					; 00000103H
	push	0
	lea	eax, DWORD PTR _strFullPath$[ebp+1]
	push	eax
	call	_memset
	add	esp, 12					; 0000000cH

; 488  :     TCHAR strFullFileName[MAX_PATH] = {0};

	mov	BYTE PTR _strFullFileName$[ebp], 0
	push	259					; 00000103H
	push	0
	lea	eax, DWORD PTR _strFullFileName$[ebp+1]
	push	eax
	call	_memset
	add	esp, 12					; 0000000cH

; 489  :     TCHAR strSearch[MAX_PATH] = {0};

	mov	BYTE PTR _strSearch$[ebp], 0
	push	259					; 00000103H
	push	0
	lea	eax, DWORD PTR _strSearch$[ebp+1]
	push	eax
	call	_memset
	add	esp, 12					; 0000000cH

; 490  :     TCHAR* strFilePart = NULL;

	mov	DWORD PTR _strFilePart$[ebp], 0

; 491  : 
; 492  :     GetFullPathName( strStartAt, MAX_PATH, strFullPath, &strFilePart );

	mov	esi, esp
	lea	eax, DWORD PTR _strFilePart$[ebp]
	push	eax
	lea	ecx, DWORD PTR _strFullPath$[ebp]
	push	ecx
	push	260					; 00000104H
	mov	edx, DWORD PTR _strStartAt$[ebp]
	push	edx
	call	DWORD PTR __imp__GetFullPathNameA@16
	cmp	esi, esp
	call	__RTC_CheckEsp

; 493  :     if( strFilePart == NULL )

	cmp	DWORD PTR _strFilePart$[ebp], 0
	jne	SHORT $LN3@DXUTFindMe

; 494  :         return false;

	xor	al, al
	jmp	$LN5@DXUTFindMe
$LN3@DXUTFindMe:

; 495  :    
; 496  :     while( strFilePart != NULL && *strFilePart != '\0' )

	cmp	DWORD PTR _strFilePart$[ebp], 0
	je	$LN2@DXUTFindMe
	mov	eax, DWORD PTR _strFilePart$[ebp]
	movsx	ecx, BYTE PTR [eax]
	test	ecx, ecx
	je	$LN2@DXUTFindMe

; 497  :     {
; 498  :         StringCchPrintf( strFullFileName, MAX_PATH, "%s\\%s", strFullPath, strLeafName ); 

	mov	eax, DWORD PTR _strLeafName$[ebp]
	push	eax
	lea	ecx, DWORD PTR _strFullPath$[ebp]
	push	ecx
	push	OFFSET ??_C@_05BMGBEOOC@?$CFs?2?$CFs?$AA@
	push	260					; 00000104H
	lea	edx, DWORD PTR _strFullFileName$[ebp]
	push	edx
	call	?StringCchPrintfA@@YAJPADIPBDZZ		; StringCchPrintfA
	add	esp, 20					; 00000014H

; 499  :         if( GetFileAttributes( strFullFileName ) != 0xFFFFFFFF )

	mov	esi, esp
	lea	eax, DWORD PTR _strFullFileName$[ebp]
	push	eax
	call	DWORD PTR __imp__GetFileAttributesA@4
	cmp	esi, esp
	call	__RTC_CheckEsp
	cmp	eax, -1
	je	SHORT $LN1@DXUTFindMe

; 500  :         {
; 501  :             StringCchCopy( strSearchPath, cchSearch, strFullFileName ); 

	lea	eax, DWORD PTR _strFullFileName$[ebp]
	push	eax
	mov	ecx, DWORD PTR _cchSearch$[ebp]
	push	ecx
	mov	edx, DWORD PTR _strSearchPath$[ebp]
	push	edx
	call	?StringCchCopyA@@YGJPADIPBD@Z		; StringCchCopyA

; 502  :             return true;

	mov	al, 1
	jmp	SHORT $LN5@DXUTFindMe
$LN1@DXUTFindMe:

; 503  :         }
; 504  : 
; 505  :         StringCchPrintf( strSearch, MAX_PATH, "%s\\..", strFullPath ); 

	lea	eax, DWORD PTR _strFullPath$[ebp]
	push	eax
	push	OFFSET ??_C@_05BPCBICBK@?$CFs?2?4?4?$AA@
	push	260					; 00000104H
	lea	ecx, DWORD PTR _strSearch$[ebp]
	push	ecx
	call	?StringCchPrintfA@@YAJPADIPBDZZ		; StringCchPrintfA
	add	esp, 16					; 00000010H

; 506  :         GetFullPathName( strSearch, MAX_PATH, strFullPath, &strFilePart );

	mov	esi, esp
	lea	eax, DWORD PTR _strFilePart$[ebp]
	push	eax
	lea	ecx, DWORD PTR _strFullPath$[ebp]
	push	ecx
	push	260					; 00000104H
	lea	edx, DWORD PTR _strSearch$[ebp]
	push	edx
	call	DWORD PTR __imp__GetFullPathNameA@16
	cmp	esi, esp
	call	__RTC_CheckEsp

; 507  :     }

	jmp	$LN3@DXUTFindMe
$LN2@DXUTFindMe:

; 508  : 
; 509  :     return false;

	xor	al, al
$LN5@DXUTFindMe:

; 510  : }

	push	edx
	mov	ecx, ebp
	push	eax
	lea	edx, DWORD PTR $LN12@DXUTFindMe
	call	@_RTC_CheckStackVars@8
	pop	eax
	pop	edx
	pop	edi
	pop	esi
	pop	ebx
	mov	ecx, DWORD PTR __$ArrayPad$[ebp]
	xor	ecx, ebp
	call	@__security_check_cookie@4
	add	esp, 1012				; 000003f4H
	cmp	ebp, esp
	call	__RTC_CheckEsp
	mov	esp, ebp
	pop	ebp
	ret	0
	npad	1
$LN12@DXUTFindMe:
	DD	4
	DD	$LN11@DXUTFindMe
$LN11@DXUTFindMe:
	DD	-268					; fffffef4H
	DD	260					; 00000104H
	DD	$LN7@DXUTFindMe
	DD	-536					; fffffde8H
	DD	260					; 00000104H
	DD	$LN8@DXUTFindMe
	DD	-804					; fffffcdcH
	DD	260					; 00000104H
	DD	$LN9@DXUTFindMe
	DD	-816					; fffffcd0H
	DD	4
	DD	$LN10@DXUTFindMe
$LN10@DXUTFindMe:
	DB	115					; 00000073H
	DB	116					; 00000074H
	DB	114					; 00000072H
	DB	70					; 00000046H
	DB	105					; 00000069H
	DB	108					; 0000006cH
	DB	101					; 00000065H
	DB	80					; 00000050H
	DB	97					; 00000061H
	DB	114					; 00000072H
	DB	116					; 00000074H
	DB	0
$LN9@DXUTFindMe:
	DB	115					; 00000073H
	DB	116					; 00000074H
	DB	114					; 00000072H
	DB	83					; 00000053H
	DB	101					; 00000065H
	DB	97					; 00000061H
	DB	114					; 00000072H
	DB	99					; 00000063H
	DB	104					; 00000068H
	DB	0
$LN8@DXUTFindMe:
	DB	115					; 00000073H
	DB	116					; 00000074H
	DB	114					; 00000072H
	DB	70					; 00000046H
	DB	117					; 00000075H
	DB	108					; 0000006cH
	DB	108					; 0000006cH
	DB	70					; 00000046H
	DB	105					; 00000069H
	DB	108					; 0000006cH
	DB	101					; 00000065H
	DB	78					; 0000004eH
	DB	97					; 00000061H
	DB	109					; 0000006dH
	DB	101					; 00000065H
	DB	0
$LN7@DXUTFindMe:
	DB	115					; 00000073H
	DB	116					; 00000074H
	DB	114					; 00000072H
	DB	70					; 00000046H
	DB	117					; 00000075H
	DB	108					; 0000006cH
	DB	108					; 0000006cH
	DB	80					; 00000050H
	DB	97					; 00000061H
	DB	116					; 00000074H
	DB	104					; 00000068H
	DB	0
?DXUTFindMediaSearchParentDirs@@YA_NPADH00@Z ENDP	; DXUTFindMediaSearchParentDirs
_TEXT	ENDS
; Function compile flags: /Odtp /RTCsu /ZI
; File z:\sampsrc\02xu1\saco\d3d9\common\dxutmisc.cpp
;	COMDAT ?DXUTFindMediaSearchTypicalDirs@@YA_NPADHPBD00@Z
_TEXT	SEGMENT
_s_strSearchPath$ = -8					; size = 4
_strSearchPath$ = 8					; size = 4
_cchSearch$ = 12					; size = 4
_strLeaf$ = 16						; size = 4
_strExePath$ = 20					; size = 4
_strExeName$ = 24					; size = 4
?DXUTFindMediaSearchTypicalDirs@@YA_NPADHPBD00@Z PROC	; DXUTFindMediaSearchTypicalDirs, COMDAT

; 410  : {

	push	ebp
	mov	ebp, esp
	sub	esp, 204				; 000000ccH
	push	ebx
	push	esi
	push	edi
	lea	edi, DWORD PTR [ebp-204]
	mov	ecx, 51					; 00000033H
	mov	eax, -858993460				; ccccccccH
	rep stosd

; 411  :     // Typical directories:
; 412  :     //      .\
; 413  :     //      ..\
; 414  :     //      ..\..\
; 415  :     //      %EXE_DIR%\
; 416  :     //      %EXE_DIR%\..\
; 417  :     //      %EXE_DIR%\..\..\
; 418  :     //      %EXE_DIR%\..\%EXE_NAME%
; 419  :     //      %EXE_DIR%\..\..\%EXE_NAME%
; 420  :     //      DXSDK media path
; 421  : 
; 422  :     // Search in .\  
; 423  :     StringCchCopy( strSearchPath, cchSearch, strLeaf ); 

	mov	eax, DWORD PTR _strLeaf$[ebp]
	push	eax
	mov	ecx, DWORD PTR _cchSearch$[ebp]
	push	ecx
	mov	edx, DWORD PTR _strSearchPath$[ebp]
	push	edx
	call	?StringCchCopyA@@YGJPADIPBD@Z		; StringCchCopyA

; 424  :     if( GetFileAttributes( strSearchPath ) != 0xFFFFFFFF )

	mov	esi, esp
	mov	eax, DWORD PTR _strSearchPath$[ebp]
	push	eax
	call	DWORD PTR __imp__GetFileAttributesA@4
	cmp	esi, esp
	call	__RTC_CheckEsp
	cmp	eax, -1
	je	SHORT $LN11@DXUTFindMe

; 425  :         return true;

	mov	al, 1
	jmp	$LN12@DXUTFindMe
$LN11@DXUTFindMe:

; 426  : 
; 427  :     // Search in ..\  
; 428  :     StringCchPrintf( strSearchPath, cchSearch, "..\\%s", strLeaf ); 

	mov	eax, DWORD PTR _strLeaf$[ebp]
	push	eax
	push	OFFSET ??_C@_05LGCFLFFL@?4?4?2?$CFs?$AA@
	mov	ecx, DWORD PTR _cchSearch$[ebp]
	push	ecx
	mov	edx, DWORD PTR _strSearchPath$[ebp]
	push	edx
	call	?StringCchPrintfA@@YAJPADIPBDZZ		; StringCchPrintfA
	add	esp, 16					; 00000010H

; 429  :     if( GetFileAttributes( strSearchPath ) != 0xFFFFFFFF )

	mov	esi, esp
	mov	eax, DWORD PTR _strSearchPath$[ebp]
	push	eax
	call	DWORD PTR __imp__GetFileAttributesA@4
	cmp	esi, esp
	call	__RTC_CheckEsp
	cmp	eax, -1
	je	SHORT $LN10@DXUTFindMe

; 430  :         return true;

	mov	al, 1
	jmp	$LN12@DXUTFindMe
$LN10@DXUTFindMe:

; 431  : 
; 432  :     // Search in ..\..\ 
; 433  :     StringCchPrintf( strSearchPath, cchSearch, "..\\..\\%s", strLeaf ); 

	mov	eax, DWORD PTR _strLeaf$[ebp]
	push	eax
	push	OFFSET ??_C@_08KDFEKKMA@?4?4?2?4?4?2?$CFs?$AA@
	mov	ecx, DWORD PTR _cchSearch$[ebp]
	push	ecx
	mov	edx, DWORD PTR _strSearchPath$[ebp]
	push	edx
	call	?StringCchPrintfA@@YAJPADIPBDZZ		; StringCchPrintfA
	add	esp, 16					; 00000010H

; 434  :     if( GetFileAttributes( strSearchPath ) != 0xFFFFFFFF )

	mov	esi, esp
	mov	eax, DWORD PTR _strSearchPath$[ebp]
	push	eax
	call	DWORD PTR __imp__GetFileAttributesA@4
	cmp	esi, esp
	call	__RTC_CheckEsp
	cmp	eax, -1
	je	SHORT $LN9@DXUTFindMe

; 435  :         return true;

	mov	al, 1
	jmp	$LN12@DXUTFindMe
$LN9@DXUTFindMe:

; 436  : 
; 437  :     // Search in ..\..\ 
; 438  :     StringCchPrintf( strSearchPath, cchSearch, "..\\..\\%s", strLeaf ); 

	mov	eax, DWORD PTR _strLeaf$[ebp]
	push	eax
	push	OFFSET ??_C@_08KDFEKKMA@?4?4?2?4?4?2?$CFs?$AA@
	mov	ecx, DWORD PTR _cchSearch$[ebp]
	push	ecx
	mov	edx, DWORD PTR _strSearchPath$[ebp]
	push	edx
	call	?StringCchPrintfA@@YAJPADIPBDZZ		; StringCchPrintfA
	add	esp, 16					; 00000010H

; 439  :     if( GetFileAttributes( strSearchPath ) != 0xFFFFFFFF )

	mov	esi, esp
	mov	eax, DWORD PTR _strSearchPath$[ebp]
	push	eax
	call	DWORD PTR __imp__GetFileAttributesA@4
	cmp	esi, esp
	call	__RTC_CheckEsp
	cmp	eax, -1
	je	SHORT $LN8@DXUTFindMe

; 440  :         return true;

	mov	al, 1
	jmp	$LN12@DXUTFindMe
$LN8@DXUTFindMe:

; 441  : 
; 442  :     // Search in the %EXE_DIR%\ 
; 443  :     StringCchPrintf( strSearchPath, cchSearch, "%s\\%s", strExePath, strLeaf ); 

	mov	eax, DWORD PTR _strLeaf$[ebp]
	push	eax
	mov	ecx, DWORD PTR _strExePath$[ebp]
	push	ecx
	push	OFFSET ??_C@_05BMGBEOOC@?$CFs?2?$CFs?$AA@
	mov	edx, DWORD PTR _cchSearch$[ebp]
	push	edx
	mov	eax, DWORD PTR _strSearchPath$[ebp]
	push	eax
	call	?StringCchPrintfA@@YAJPADIPBDZZ		; StringCchPrintfA
	add	esp, 20					; 00000014H

; 444  :     if( GetFileAttributes( strSearchPath ) != 0xFFFFFFFF )

	mov	esi, esp
	mov	eax, DWORD PTR _strSearchPath$[ebp]
	push	eax
	call	DWORD PTR __imp__GetFileAttributesA@4
	cmp	esi, esp
	call	__RTC_CheckEsp
	cmp	eax, -1
	je	SHORT $LN7@DXUTFindMe

; 445  :         return true;

	mov	al, 1
	jmp	$LN12@DXUTFindMe
$LN7@DXUTFindMe:

; 446  : 
; 447  :     // Search in the %EXE_DIR%\..\ 
; 448  :     StringCchPrintf( strSearchPath, cchSearch, "%s\\..\\%s", strExePath, strLeaf ); 

	mov	eax, DWORD PTR _strLeaf$[ebp]
	push	eax
	mov	ecx, DWORD PTR _strExePath$[ebp]
	push	ecx
	push	OFFSET ??_C@_08OPCCNCAK@?$CFs?2?4?4?2?$CFs?$AA@
	mov	edx, DWORD PTR _cchSearch$[ebp]
	push	edx
	mov	eax, DWORD PTR _strSearchPath$[ebp]
	push	eax
	call	?StringCchPrintfA@@YAJPADIPBDZZ		; StringCchPrintfA
	add	esp, 20					; 00000014H

; 449  :     if( GetFileAttributes( strSearchPath ) != 0xFFFFFFFF )

	mov	esi, esp
	mov	eax, DWORD PTR _strSearchPath$[ebp]
	push	eax
	call	DWORD PTR __imp__GetFileAttributesA@4
	cmp	esi, esp
	call	__RTC_CheckEsp
	cmp	eax, -1
	je	SHORT $LN6@DXUTFindMe

; 450  :         return true;

	mov	al, 1
	jmp	$LN12@DXUTFindMe
$LN6@DXUTFindMe:

; 451  : 
; 452  :     // Search in the %EXE_DIR%\..\..\ 
; 453  :     StringCchPrintf( strSearchPath, cchSearch, "%s\\..\\..\\%s", strExePath, strLeaf ); 

	mov	eax, DWORD PTR _strLeaf$[ebp]
	push	eax
	mov	ecx, DWORD PTR _strExePath$[ebp]
	push	ecx
	push	OFFSET ??_C@_0M@HKPCIGNN@?$CFs?2?4?4?2?4?4?2?$CFs?$AA@
	mov	edx, DWORD PTR _cchSearch$[ebp]
	push	edx
	mov	eax, DWORD PTR _strSearchPath$[ebp]
	push	eax
	call	?StringCchPrintfA@@YAJPADIPBDZZ		; StringCchPrintfA
	add	esp, 20					; 00000014H

; 454  :     if( GetFileAttributes( strSearchPath ) != 0xFFFFFFFF )

	mov	esi, esp
	mov	eax, DWORD PTR _strSearchPath$[ebp]
	push	eax
	call	DWORD PTR __imp__GetFileAttributesA@4
	cmp	esi, esp
	call	__RTC_CheckEsp
	cmp	eax, -1
	je	SHORT $LN5@DXUTFindMe

; 455  :         return true;

	mov	al, 1
	jmp	$LN12@DXUTFindMe
$LN5@DXUTFindMe:

; 456  : 
; 457  :     // Search in "%EXE_DIR%\..\%EXE_NAME%\".  This matches the DirectX SDK layout
; 458  :     StringCchPrintf( strSearchPath, cchSearch, "%s\\..\\%s\\%s", strExePath, strExeName, strLeaf ); 

	mov	eax, DWORD PTR _strLeaf$[ebp]
	push	eax
	mov	ecx, DWORD PTR _strExeName$[ebp]
	push	ecx
	mov	edx, DWORD PTR _strExePath$[ebp]
	push	edx
	push	OFFSET ??_C@_0M@NALGHNGE@?$CFs?2?4?4?2?$CFs?2?$CFs?$AA@
	mov	eax, DWORD PTR _cchSearch$[ebp]
	push	eax
	mov	ecx, DWORD PTR _strSearchPath$[ebp]
	push	ecx
	call	?StringCchPrintfA@@YAJPADIPBDZZ		; StringCchPrintfA
	add	esp, 24					; 00000018H

; 459  :     if( GetFileAttributes( strSearchPath ) != 0xFFFFFFFF )

	mov	esi, esp
	mov	eax, DWORD PTR _strSearchPath$[ebp]
	push	eax
	call	DWORD PTR __imp__GetFileAttributesA@4
	cmp	esi, esp
	call	__RTC_CheckEsp
	cmp	eax, -1
	je	SHORT $LN4@DXUTFindMe

; 460  :         return true;

	mov	al, 1
	jmp	$LN12@DXUTFindMe
$LN4@DXUTFindMe:

; 461  : 
; 462  :     // Search in "%EXE_DIR%\..\..\%EXE_NAME%\".  This matches the DirectX SDK layout
; 463  :     StringCchPrintf( strSearchPath, cchSearch, "%s\\..\\..\\%s\\%s", strExePath, strExeName, strLeaf ); 

	mov	eax, DWORD PTR _strLeaf$[ebp]
	push	eax
	mov	ecx, DWORD PTR _strExeName$[ebp]
	push	ecx
	mov	edx, DWORD PTR _strExePath$[ebp]
	push	edx
	push	OFFSET ??_C@_0P@HEBEMA@?$CFs?2?4?4?2?4?4?2?$CFs?2?$CFs?$AA@
	mov	eax, DWORD PTR _cchSearch$[ebp]
	push	eax
	mov	ecx, DWORD PTR _strSearchPath$[ebp]
	push	ecx
	call	?StringCchPrintfA@@YAJPADIPBDZZ		; StringCchPrintfA
	add	esp, 24					; 00000018H

; 464  :     if( GetFileAttributes( strSearchPath ) != 0xFFFFFFFF )

	mov	esi, esp
	mov	eax, DWORD PTR _strSearchPath$[ebp]
	push	eax
	call	DWORD PTR __imp__GetFileAttributesA@4
	cmp	esi, esp
	call	__RTC_CheckEsp
	cmp	eax, -1
	je	SHORT $LN3@DXUTFindMe

; 465  :         return true;

	mov	al, 1
	jmp	SHORT $LN12@DXUTFindMe
$LN3@DXUTFindMe:

; 466  : 
; 467  :     // Search in media search dir 
; 468  :     TCHAR* s_strSearchPath = DXUTMediaSearchPath();

	call	?DXUTMediaSearchPath@@YAPADXZ		; DXUTMediaSearchPath
	mov	DWORD PTR _s_strSearchPath$[ebp], eax

; 469  :     if( s_strSearchPath[0] != 0 )

	mov	eax, 1
	imul	ecx, eax, 0
	mov	edx, DWORD PTR _s_strSearchPath$[ebp]
	movsx	eax, BYTE PTR [edx+ecx]
	test	eax, eax
	je	SHORT $LN2@DXUTFindMe

; 470  :     {
; 471  :         StringCchPrintf( strSearchPath, cchSearch, "%s%s", s_strSearchPath, strLeaf ); 

	mov	eax, DWORD PTR _strLeaf$[ebp]
	push	eax
	mov	ecx, DWORD PTR _s_strSearchPath$[ebp]
	push	ecx
	push	OFFSET ??_C@_04HDOCAJNK@?$CFs?$CFs?$AA@
	mov	edx, DWORD PTR _cchSearch$[ebp]
	push	edx
	mov	eax, DWORD PTR _strSearchPath$[ebp]
	push	eax
	call	?StringCchPrintfA@@YAJPADIPBDZZ		; StringCchPrintfA
	add	esp, 20					; 00000014H

; 472  :         if( GetFileAttributes( strSearchPath ) != 0xFFFFFFFF )

	mov	esi, esp
	mov	eax, DWORD PTR _strSearchPath$[ebp]
	push	eax
	call	DWORD PTR __imp__GetFileAttributesA@4
	cmp	esi, esp
	call	__RTC_CheckEsp
	cmp	eax, -1
	je	SHORT $LN2@DXUTFindMe

; 473  :             return true;

	mov	al, 1
	jmp	SHORT $LN12@DXUTFindMe
$LN2@DXUTFindMe:

; 474  :     }
; 475  : 
; 476  :     return false;

	xor	al, al
$LN12@DXUTFindMe:

; 477  : }

	pop	edi
	pop	esi
	pop	ebx
	add	esp, 204				; 000000ccH
	cmp	ebp, esp
	call	__RTC_CheckEsp
	mov	esp, ebp
	pop	ebp
	ret	0
?DXUTFindMediaSearchTypicalDirs@@YA_NPADHPBD00@Z ENDP	; DXUTFindMediaSearchTypicalDirs
_TEXT	ENDS
; Function compile flags: /Odtp /RTCsu /ZI
;	COMDAT ??__Fcache@?1??DXUTGetGlobalResourceCache@@YAAAVCDXUTResourceCache@@XZ@YAXXZ
text$yd	SEGMENT
??__Fcache@?1??DXUTGetGlobalResourceCache@@YAAAVCDXUTResourceCache@@XZ@YAXXZ PROC ; `DXUTGetGlobalResourceCache'::`2'::`dynamic atexit destructor for 'cache'', COMDAT
	push	ebp
	mov	ebp, esp
	sub	esp, 192				; 000000c0H
	push	ebx
	push	esi
	push	edi
	lea	edi, DWORD PTR [ebp-192]
	mov	ecx, 48					; 00000030H
	mov	eax, -858993460				; ccccccccH
	rep stosd
	mov	ecx, OFFSET ?cache@?1??DXUTGetGlobalResourceCache@@YAAAVCDXUTResourceCache@@XZ@4V2@A
	call	??1CDXUTResourceCache@@QAE@XZ		; CDXUTResourceCache::~CDXUTResourceCache
	pop	edi
	pop	esi
	pop	ebx
	add	esp, 192				; 000000c0H
	cmp	ebp, esp
	call	__RTC_CheckEsp
	mov	esp, ebp
	pop	ebp
	ret	0
??__Fcache@?1??DXUTGetGlobalResourceCache@@YAAAVCDXUTResourceCache@@XZ@YAXXZ ENDP ; `DXUTGetGlobalResourceCache'::`2'::`dynamic atexit destructor for 'cache''
text$yd	ENDS
; Function compile flags: /Odtp /RTCsu /ZI
; File z:\sampsrc\02xu1\saco\d3d9\common\dxutmisc.cpp
;	COMDAT ?DXUT_Dynamic_D3DPERF_GetStatus@@YGKXZ
_TEXT	SEGMENT
?DXUT_Dynamic_D3DPERF_GetStatus@@YGKXZ PROC		; DXUT_Dynamic_D3DPERF_GetStatus, COMDAT

; 2831 : {

	push	ebp
	mov	ebp, esp
	sub	esp, 192				; 000000c0H
	push	ebx
	push	esi
	push	edi
	lea	edi, DWORD PTR [ebp-192]
	mov	ecx, 48					; 00000030H
	mov	eax, -858993460				; ccccccccH
	rep stosd

; 2832 :     if( DXUT_EnsureD3DAPIs() && s_DynamicD3DPERF_GetStatus != NULL )

	call	?DXUT_EnsureD3DAPIs@@YA_NXZ		; DXUT_EnsureD3DAPIs
	movzx	eax, al
	test	eax, eax
	je	SHORT $LN2@DXUT_Dynam
	cmp	DWORD PTR _s_DynamicD3DPERF_GetStatus, 0
	je	SHORT $LN2@DXUT_Dynam

; 2833 :         return s_DynamicD3DPERF_GetStatus();

	mov	esi, esp
	call	DWORD PTR _s_DynamicD3DPERF_GetStatus
	cmp	esi, esp
	call	__RTC_CheckEsp
	jmp	SHORT $LN3@DXUT_Dynam

; 2834 :     else

	jmp	SHORT $LN3@DXUT_Dynam
$LN2@DXUT_Dynam:

; 2835 :         return 0;

	xor	eax, eax
$LN3@DXUT_Dynam:

; 2836 : }

	pop	edi
	pop	esi
	pop	ebx
	add	esp, 192				; 000000c0H
	cmp	ebp, esp
	call	__RTC_CheckEsp
	mov	esp, ebp
	pop	ebp
	ret	0
?DXUT_Dynamic_D3DPERF_GetStatus@@YGKXZ ENDP		; DXUT_Dynamic_D3DPERF_GetStatus
_TEXT	ENDS
; Function compile flags: /Odtp /RTCsu /ZI
; File z:\sampsrc\02xu1\saco\d3d9\common\dxutmisc.cpp
;	COMDAT ?DXUT_Dynamic_D3DPERF_SetOptions@@YGXK@Z
_TEXT	SEGMENT
_dwOptions$ = 8						; size = 4
?DXUT_Dynamic_D3DPERF_SetOptions@@YGXK@Z PROC		; DXUT_Dynamic_D3DPERF_SetOptions, COMDAT

; 2825 : {

	push	ebp
	mov	ebp, esp
	sub	esp, 192				; 000000c0H
	push	ebx
	push	esi
	push	edi
	lea	edi, DWORD PTR [ebp-192]
	mov	ecx, 48					; 00000030H
	mov	eax, -858993460				; ccccccccH
	rep stosd

; 2826 :     if( DXUT_EnsureD3DAPIs() && s_DynamicD3DPERF_SetOptions != NULL )

	call	?DXUT_EnsureD3DAPIs@@YA_NXZ		; DXUT_EnsureD3DAPIs
	movzx	eax, al
	test	eax, eax
	je	SHORT $LN2@DXUT_Dynam
	cmp	DWORD PTR _s_DynamicD3DPERF_SetOptions, 0
	je	SHORT $LN2@DXUT_Dynam

; 2827 :         s_DynamicD3DPERF_SetOptions( dwOptions );

	mov	esi, esp
	mov	eax, DWORD PTR _dwOptions$[ebp]
	push	eax
	call	DWORD PTR _s_DynamicD3DPERF_SetOptions
	cmp	esi, esp
	call	__RTC_CheckEsp
$LN2@DXUT_Dynam:

; 2828 : }

	pop	edi
	pop	esi
	pop	ebx
	add	esp, 192				; 000000c0H
	cmp	ebp, esp
	call	__RTC_CheckEsp
	mov	esp, ebp
	pop	ebp
	ret	4
?DXUT_Dynamic_D3DPERF_SetOptions@@YGXK@Z ENDP		; DXUT_Dynamic_D3DPERF_SetOptions
_TEXT	ENDS
; Function compile flags: /Odtp /RTCsu /ZI
; File z:\sampsrc\02xu1\saco\d3d9\common\dxutmisc.cpp
;	COMDAT ?DXUT_Dynamic_D3DPERF_QueryRepeatFrame@@YGHXZ
_TEXT	SEGMENT
?DXUT_Dynamic_D3DPERF_QueryRepeatFrame@@YGHXZ PROC	; DXUT_Dynamic_D3DPERF_QueryRepeatFrame, COMDAT

; 2817 : {

	push	ebp
	mov	ebp, esp
	sub	esp, 192				; 000000c0H
	push	ebx
	push	esi
	push	edi
	lea	edi, DWORD PTR [ebp-192]
	mov	ecx, 48					; 00000030H
	mov	eax, -858993460				; ccccccccH
	rep stosd

; 2818 :     if( DXUT_EnsureD3DAPIs() && s_DynamicD3DPERF_QueryRepeatFrame != NULL )

	call	?DXUT_EnsureD3DAPIs@@YA_NXZ		; DXUT_EnsureD3DAPIs
	movzx	eax, al
	test	eax, eax
	je	SHORT $LN2@DXUT_Dynam
	cmp	DWORD PTR _s_DynamicD3DPERF_QueryRepeatFrame, 0
	je	SHORT $LN2@DXUT_Dynam

; 2819 :         return s_DynamicD3DPERF_QueryRepeatFrame();

	mov	esi, esp
	call	DWORD PTR _s_DynamicD3DPERF_QueryRepeatFrame
	cmp	esi, esp
	call	__RTC_CheckEsp
	jmp	SHORT $LN3@DXUT_Dynam

; 2820 :     else

	jmp	SHORT $LN3@DXUT_Dynam
$LN2@DXUT_Dynam:

; 2821 :         return FALSE;

	xor	eax, eax
$LN3@DXUT_Dynam:

; 2822 : }

	pop	edi
	pop	esi
	pop	ebx
	add	esp, 192				; 000000c0H
	cmp	ebp, esp
	call	__RTC_CheckEsp
	mov	esp, ebp
	pop	ebp
	ret	0
?DXUT_Dynamic_D3DPERF_QueryRepeatFrame@@YGHXZ ENDP	; DXUT_Dynamic_D3DPERF_QueryRepeatFrame
_TEXT	ENDS
; Function compile flags: /Odtp /RTCsu /ZI
; File z:\sampsrc\02xu1\saco\d3d9\common\dxutmisc.cpp
;	COMDAT ?DXUT_Dynamic_D3DPERF_SetRegion@@YGXKPBD@Z
_TEXT	SEGMENT
_col$ = 8						; size = 4
_wszName$ = 12						; size = 4
?DXUT_Dynamic_D3DPERF_SetRegion@@YGXKPBD@Z PROC		; DXUT_Dynamic_D3DPERF_SetRegion, COMDAT

; 2811 : {

	push	ebp
	mov	ebp, esp
	sub	esp, 192				; 000000c0H
	push	ebx
	push	esi
	push	edi
	lea	edi, DWORD PTR [ebp-192]
	mov	ecx, 48					; 00000030H
	mov	eax, -858993460				; ccccccccH
	rep stosd

; 2812 :     if( DXUT_EnsureD3DAPIs() && s_DynamicD3DPERF_SetRegion != NULL )

	call	?DXUT_EnsureD3DAPIs@@YA_NXZ		; DXUT_EnsureD3DAPIs
	movzx	eax, al
	test	eax, eax
	je	SHORT $LN2@DXUT_Dynam
	cmp	DWORD PTR _s_DynamicD3DPERF_SetRegion, 0
	je	SHORT $LN2@DXUT_Dynam

; 2813 :         s_DynamicD3DPERF_SetRegion( col, wszName );

	mov	esi, esp
	mov	eax, DWORD PTR _wszName$[ebp]
	push	eax
	mov	ecx, DWORD PTR _col$[ebp]
	push	ecx
	call	DWORD PTR _s_DynamicD3DPERF_SetRegion
	cmp	esi, esp
	call	__RTC_CheckEsp
$LN2@DXUT_Dynam:

; 2814 : }

	pop	edi
	pop	esi
	pop	ebx
	add	esp, 192				; 000000c0H
	cmp	ebp, esp
	call	__RTC_CheckEsp
	mov	esp, ebp
	pop	ebp
	ret	8
?DXUT_Dynamic_D3DPERF_SetRegion@@YGXKPBD@Z ENDP		; DXUT_Dynamic_D3DPERF_SetRegion
_TEXT	ENDS
; Function compile flags: /Odtp /RTCsu /ZI
; File z:\sampsrc\02xu1\saco\d3d9\common\dxutmisc.cpp
;	COMDAT ?DXUT_Dynamic_D3DPERF_SetMarker@@YGXKPBD@Z
_TEXT	SEGMENT
_col$ = 8						; size = 4
_wszName$ = 12						; size = 4
?DXUT_Dynamic_D3DPERF_SetMarker@@YGXKPBD@Z PROC		; DXUT_Dynamic_D3DPERF_SetMarker, COMDAT

; 2805 : {

	push	ebp
	mov	ebp, esp
	sub	esp, 192				; 000000c0H
	push	ebx
	push	esi
	push	edi
	lea	edi, DWORD PTR [ebp-192]
	mov	ecx, 48					; 00000030H
	mov	eax, -858993460				; ccccccccH
	rep stosd

; 2806 :     if( DXUT_EnsureD3DAPIs() && s_DynamicD3DPERF_SetMarker != NULL )

	call	?DXUT_EnsureD3DAPIs@@YA_NXZ		; DXUT_EnsureD3DAPIs
	movzx	eax, al
	test	eax, eax
	je	SHORT $LN2@DXUT_Dynam
	cmp	DWORD PTR _s_DynamicD3DPERF_SetMarker, 0
	je	SHORT $LN2@DXUT_Dynam

; 2807 :         s_DynamicD3DPERF_SetMarker( col, wszName );

	mov	esi, esp
	mov	eax, DWORD PTR _wszName$[ebp]
	push	eax
	mov	ecx, DWORD PTR _col$[ebp]
	push	ecx
	call	DWORD PTR _s_DynamicD3DPERF_SetMarker
	cmp	esi, esp
	call	__RTC_CheckEsp
$LN2@DXUT_Dynam:

; 2808 : }

	pop	edi
	pop	esi
	pop	ebx
	add	esp, 192				; 000000c0H
	cmp	ebp, esp
	call	__RTC_CheckEsp
	mov	esp, ebp
	pop	ebp
	ret	8
?DXUT_Dynamic_D3DPERF_SetMarker@@YGXKPBD@Z ENDP		; DXUT_Dynamic_D3DPERF_SetMarker
_TEXT	ENDS
; Function compile flags: /Odtp /RTCsu /ZI
; File z:\sampsrc\02xu1\saco\d3d9\common\dxutmisc.cpp
;	COMDAT ?DXUT_Dynamic_D3DPERF_EndEvent@@YGHXZ
_TEXT	SEGMENT
?DXUT_Dynamic_D3DPERF_EndEvent@@YGHXZ PROC		; DXUT_Dynamic_D3DPERF_EndEvent, COMDAT

; 2797 : {

	push	ebp
	mov	ebp, esp
	sub	esp, 192				; 000000c0H
	push	ebx
	push	esi
	push	edi
	lea	edi, DWORD PTR [ebp-192]
	mov	ecx, 48					; 00000030H
	mov	eax, -858993460				; ccccccccH
	rep stosd

; 2798 :     if( DXUT_EnsureD3DAPIs() && s_DynamicD3DPERF_EndEvent != NULL )

	call	?DXUT_EnsureD3DAPIs@@YA_NXZ		; DXUT_EnsureD3DAPIs
	movzx	eax, al
	test	eax, eax
	je	SHORT $LN2@DXUT_Dynam
	cmp	DWORD PTR _s_DynamicD3DPERF_EndEvent, 0
	je	SHORT $LN2@DXUT_Dynam

; 2799 :         return s_DynamicD3DPERF_EndEvent();

	mov	esi, esp
	call	DWORD PTR _s_DynamicD3DPERF_EndEvent
	cmp	esi, esp
	call	__RTC_CheckEsp
	jmp	SHORT $LN3@DXUT_Dynam

; 2800 :     else

	jmp	SHORT $LN3@DXUT_Dynam
$LN2@DXUT_Dynam:

; 2801 :         return -1;

	or	eax, -1
$LN3@DXUT_Dynam:

; 2802 : }

	pop	edi
	pop	esi
	pop	ebx
	add	esp, 192				; 000000c0H
	cmp	ebp, esp
	call	__RTC_CheckEsp
	mov	esp, ebp
	pop	ebp
	ret	0
?DXUT_Dynamic_D3DPERF_EndEvent@@YGHXZ ENDP		; DXUT_Dynamic_D3DPERF_EndEvent
_TEXT	ENDS
; Function compile flags: /Odtp /RTCsu /ZI
; File z:\sampsrc\02xu1\saco\d3d9\common\dxutmisc.cpp
;	COMDAT ?DXUT_Dynamic_D3DPERF_BeginEvent@@YGHKPBD@Z
_TEXT	SEGMENT
_col$ = 8						; size = 4
_wszName$ = 12						; size = 4
?DXUT_Dynamic_D3DPERF_BeginEvent@@YGHKPBD@Z PROC	; DXUT_Dynamic_D3DPERF_BeginEvent, COMDAT

; 2789 : {

	push	ebp
	mov	ebp, esp
	sub	esp, 192				; 000000c0H
	push	ebx
	push	esi
	push	edi
	lea	edi, DWORD PTR [ebp-192]
	mov	ecx, 48					; 00000030H
	mov	eax, -858993460				; ccccccccH
	rep stosd

; 2790 :     if( DXUT_EnsureD3DAPIs() && s_DynamicD3DPERF_BeginEvent != NULL )

	call	?DXUT_EnsureD3DAPIs@@YA_NXZ		; DXUT_EnsureD3DAPIs
	movzx	eax, al
	test	eax, eax
	je	SHORT $LN2@DXUT_Dynam
	cmp	DWORD PTR _s_DynamicD3DPERF_BeginEvent, 0
	je	SHORT $LN2@DXUT_Dynam

; 2791 :         return s_DynamicD3DPERF_BeginEvent( col, wszName );

	mov	esi, esp
	mov	eax, DWORD PTR _wszName$[ebp]
	push	eax
	mov	ecx, DWORD PTR _col$[ebp]
	push	ecx
	call	DWORD PTR _s_DynamicD3DPERF_BeginEvent
	cmp	esi, esp
	call	__RTC_CheckEsp
	jmp	SHORT $LN3@DXUT_Dynam

; 2792 :     else

	jmp	SHORT $LN3@DXUT_Dynam
$LN2@DXUT_Dynam:

; 2793 :         return -1;

	or	eax, -1
$LN3@DXUT_Dynam:

; 2794 : }

	pop	edi
	pop	esi
	pop	ebx
	add	esp, 192				; 000000c0H
	cmp	ebp, esp
	call	__RTC_CheckEsp
	mov	esp, ebp
	pop	ebp
	ret	8
?DXUT_Dynamic_D3DPERF_BeginEvent@@YGHKPBD@Z ENDP	; DXUT_Dynamic_D3DPERF_BeginEvent
_TEXT	ENDS
; Function compile flags: /Odtp /RTCsu /ZI
; File z:\sampsrc\02xu1\saco\d3d9\common\dxutmisc.cpp
;	COMDAT ?DXUT_Dynamic_Direct3DCreate9@@YGPAUIDirect3D9@@I@Z
_TEXT	SEGMENT
_SDKVersion$ = 8					; size = 4
?DXUT_Dynamic_Direct3DCreate9@@YGPAUIDirect3D9@@I@Z PROC ; DXUT_Dynamic_Direct3DCreate9, COMDAT

; 2781 : {

	push	ebp
	mov	ebp, esp
	sub	esp, 192				; 000000c0H
	push	ebx
	push	esi
	push	edi
	lea	edi, DWORD PTR [ebp-192]
	mov	ecx, 48					; 00000030H
	mov	eax, -858993460				; ccccccccH
	rep stosd

; 2782 :     if( DXUT_EnsureD3DAPIs() && s_DynamicDirect3DCreate9 != NULL )

	call	?DXUT_EnsureD3DAPIs@@YA_NXZ		; DXUT_EnsureD3DAPIs
	movzx	eax, al
	test	eax, eax
	je	SHORT $LN2@DXUT_Dynam
	cmp	DWORD PTR _s_DynamicDirect3DCreate9, 0
	je	SHORT $LN2@DXUT_Dynam

; 2783 :         return s_DynamicDirect3DCreate9( SDKVersion );

	mov	esi, esp
	mov	eax, DWORD PTR _SDKVersion$[ebp]
	push	eax
	call	DWORD PTR _s_DynamicDirect3DCreate9
	cmp	esi, esp
	call	__RTC_CheckEsp
	jmp	SHORT $LN3@DXUT_Dynam

; 2784 :     else

	jmp	SHORT $LN3@DXUT_Dynam
$LN2@DXUT_Dynam:

; 2785 :         return NULL;

	xor	eax, eax
$LN3@DXUT_Dynam:

; 2786 : }

	pop	edi
	pop	esi
	pop	ebx
	add	esp, 192				; 000000c0H
	cmp	ebp, esp
	call	__RTC_CheckEsp
	mov	esp, ebp
	pop	ebp
	ret	4
?DXUT_Dynamic_Direct3DCreate9@@YGPAUIDirect3D9@@I@Z ENDP ; DXUT_Dynamic_Direct3DCreate9
_TEXT	ENDS
; Function compile flags: /Odtp /RTCsu /ZI
; File z:\sampsrc\02xu1\saco\d3d9\common\dxutmisc.cpp
;	COMDAT ?DXUTOutputDebugStringA@@YAXPBDZZ
_TEXT	SEGMENT
$T1 = -736						; size = 4
_args$ = -532						; size = 4
_strBuffer$ = -520					; size = 512
__$ArrayPad$ = -4					; size = 4
_strMsg$ = 8						; size = 4
?DXUTOutputDebugStringA@@YAXPBDZZ PROC			; DXUTOutputDebugStringA, COMDAT

; 2149 : {

	push	ebp
	mov	ebp, esp
	sub	esp, 740				; 000002e4H
	push	ebx
	push	esi
	push	edi
	lea	edi, DWORD PTR [ebp-740]
	mov	ecx, 185				; 000000b9H
	mov	eax, -858993460				; ccccccccH
	rep stosd
	mov	eax, DWORD PTR ___security_cookie
	xor	eax, ebp
	mov	DWORD PTR __$ArrayPad$[ebp], eax

; 2150 : #if defined(DEBUG) | defined(_DEBUG)
; 2151 :     CHAR strBuffer[512];
; 2152 :     
; 2153 :     va_list args;
; 2154 :     va_start(args, strMsg);

	lea	eax, DWORD PTR _strMsg$[ebp+4]
	mov	DWORD PTR _args$[ebp], eax

; 2155 :     StringCchVPrintfA( strBuffer, 512, strMsg, args );

	mov	eax, DWORD PTR _args$[ebp]
	push	eax
	mov	ecx, DWORD PTR _strMsg$[ebp]
	push	ecx
	push	512					; 00000200H
	lea	edx, DWORD PTR _strBuffer$[ebp]
	push	edx
	call	?StringCchVPrintfA@@YGJPADIPBD0@Z	; StringCchVPrintfA

; 2156 :     strBuffer[511] = '\0';

	mov	eax, 1
	imul	ecx, eax, 511
	mov	DWORD PTR $T1[ebp], ecx
	cmp	DWORD PTR $T1[ebp], 512			; 00000200H
	jae	SHORT $LN3@DXUTOutput
	jmp	SHORT $LN4@DXUTOutput
$LN3@DXUTOutput:
	call	___report_rangecheckfailure
$LN4@DXUTOutput:
	mov	edx, DWORD PTR $T1[ebp]
	mov	BYTE PTR _strBuffer$[ebp+edx], 0

; 2157 :     va_end(args);

	mov	DWORD PTR _args$[ebp], 0

; 2158 : 
; 2159 :     OutputDebugStringA( strBuffer );

	mov	esi, esp
	lea	eax, DWORD PTR _strBuffer$[ebp]
	push	eax
	call	DWORD PTR __imp__OutputDebugStringA@4
	cmp	esi, esp
	call	__RTC_CheckEsp
$LN2@DXUTOutput:

; 2160 : #else
; 2161 :     UNREFERENCED_PARAMETER(strMsg);
; 2162 : #endif
; 2163 : }

	push	edx
	mov	ecx, ebp
	push	eax
	lea	edx, DWORD PTR $LN7@DXUTOutput
	call	@_RTC_CheckStackVars@8
	pop	eax
	pop	edx
	pop	edi
	pop	esi
	pop	ebx
	mov	ecx, DWORD PTR __$ArrayPad$[ebp]
	xor	ecx, ebp
	call	@__security_check_cookie@4
	add	esp, 740				; 000002e4H
	cmp	ebp, esp
	call	__RTC_CheckEsp
	mov	esp, ebp
	pop	ebp
	ret	0
	npad	2
$LN7@DXUTOutput:
	DD	1
	DD	$LN6@DXUTOutput
$LN6@DXUTOutput:
	DD	-520					; fffffdf8H
	DD	512					; 00000200H
	DD	$LN5@DXUTOutput
$LN5@DXUTOutput:
	DB	115					; 00000073H
	DB	116					; 00000074H
	DB	114					; 00000072H
	DB	66					; 00000042H
	DB	117					; 00000075H
	DB	102					; 00000066H
	DB	102					; 00000066H
	DB	101					; 00000065H
	DB	114					; 00000072H
	DB	0
?DXUTOutputDebugStringA@@YAXPBDZZ ENDP			; DXUTOutputDebugStringA
_TEXT	ENDS
; Function compile flags: /Odtp /RTCsu /ZI
; File z:\sampsrc\02xu1\saco\d3d9\common\dxutmisc.cpp
;	COMDAT ?DXUTOutputDebugStringW@@YAXPBDZZ
_TEXT	SEGMENT
$T1 = -736						; size = 4
_args$ = -532						; size = 4
_strBuffer$ = -520					; size = 512
__$ArrayPad$ = -4					; size = 4
_strMsg$ = 8						; size = 4
?DXUTOutputDebugStringW@@YAXPBDZZ PROC			; DXUTOutputDebugStringW, COMDAT

; 2128 : {

	push	ebp
	mov	ebp, esp
	sub	esp, 740				; 000002e4H
	push	ebx
	push	esi
	push	edi
	lea	edi, DWORD PTR [ebp-740]
	mov	ecx, 185				; 000000b9H
	mov	eax, -858993460				; ccccccccH
	rep stosd
	mov	eax, DWORD PTR ___security_cookie
	xor	eax, ebp
	mov	DWORD PTR __$ArrayPad$[ebp], eax

; 2129 : #if defined(DEBUG) | defined(_DEBUG)
; 2130 :     TCHAR strBuffer[512];
; 2131 :     
; 2132 :     va_list args;
; 2133 :     va_start(args, strMsg);

	lea	eax, DWORD PTR _strMsg$[ebp+4]
	mov	DWORD PTR _args$[ebp], eax

; 2134 :     StringCchVPrintfA( strBuffer, 512, strMsg, args );

	mov	eax, DWORD PTR _args$[ebp]
	push	eax
	mov	ecx, DWORD PTR _strMsg$[ebp]
	push	ecx
	push	512					; 00000200H
	lea	edx, DWORD PTR _strBuffer$[ebp]
	push	edx
	call	?StringCchVPrintfA@@YGJPADIPBD0@Z	; StringCchVPrintfA

; 2135 :     strBuffer[511] = L'\0';

	mov	eax, 1
	imul	ecx, eax, 511
	mov	DWORD PTR $T1[ebp], ecx
	cmp	DWORD PTR $T1[ebp], 512			; 00000200H
	jae	SHORT $LN3@DXUTOutput
	jmp	SHORT $LN4@DXUTOutput
$LN3@DXUTOutput:
	call	___report_rangecheckfailure
$LN4@DXUTOutput:
	mov	edx, DWORD PTR $T1[ebp]
	mov	BYTE PTR _strBuffer$[ebp+edx], 0

; 2136 :     va_end(args);

	mov	DWORD PTR _args$[ebp], 0

; 2137 : 
; 2138 :     OutputDebugString( strBuffer );

	mov	esi, esp
	lea	eax, DWORD PTR _strBuffer$[ebp]
	push	eax
	call	DWORD PTR __imp__OutputDebugStringA@4
	cmp	esi, esp
	call	__RTC_CheckEsp
$LN2@DXUTOutput:

; 2139 : #else
; 2140 :     UNREFERENCED_PARAMETER(strMsg);
; 2141 : #endif
; 2142 : }

	push	edx
	mov	ecx, ebp
	push	eax
	lea	edx, DWORD PTR $LN7@DXUTOutput
	call	@_RTC_CheckStackVars@8
	pop	eax
	pop	edx
	pop	edi
	pop	esi
	pop	ebx
	mov	ecx, DWORD PTR __$ArrayPad$[ebp]
	xor	ecx, ebp
	call	@__security_check_cookie@4
	add	esp, 740				; 000002e4H
	cmp	ebp, esp
	call	__RTC_CheckEsp
	mov	esp, ebp
	pop	ebp
	ret	0
	npad	2
$LN7@DXUTOutput:
	DD	1
	DD	$LN6@DXUTOutput
$LN6@DXUTOutput:
	DD	-520					; fffffdf8H
	DD	512					; 00000200H
	DD	$LN5@DXUTOutput
$LN5@DXUTOutput:
	DB	115					; 00000073H
	DB	116					; 00000074H
	DB	114					; 00000072H
	DB	66					; 00000042H
	DB	117					; 00000075H
	DB	102					; 00000066H
	DB	102					; 00000066H
	DB	101					; 00000065H
	DB	114					; 00000072H
	DB	0
?DXUTOutputDebugStringW@@YAXPBDZZ ENDP			; DXUTOutputDebugStringW
_TEXT	ENDS
; Function compile flags: /Odtp /RTCsu /ZI
; File z:\sampsrc\02xu1\saco\d3d9\common\dxutmisc.cpp
;	COMDAT ?DXUTGetCubeMapViewMatrix@@YA?AUD3DXMATRIX@@K@Z
_TEXT	SEGMENT
tv70 = -584						; size = 4
$T1 = -576						; size = 12
$T2 = -556						; size = 12
$T3 = -536						; size = 12
$T4 = -516						; size = 12
$T5 = -496						; size = 12
$T6 = -476						; size = 12
$T7 = -456						; size = 12
$T8 = -436						; size = 12
$T9 = -416						; size = 12
$T10 = -396						; size = 12
$T11 = -376						; size = 12
$T12 = -356						; size = 12
_mView$ = -144						; size = 64
_vUpDir$ = -60						; size = 12
_vLookDir$ = -40					; size = 12
_vEyePt$ = -20						; size = 12
__$ArrayPad$ = -4					; size = 4
___$ReturnUdt$ = 8					; size = 4
_dwFace$ = 12						; size = 4
?DXUTGetCubeMapViewMatrix@@YA?AUD3DXMATRIX@@K@Z PROC	; DXUTGetCubeMapViewMatrix, COMDAT

; 2010 : {

	push	ebx
	mov	ebx, esp
	sub	esp, 8
	and	esp, -16				; fffffff0H
	add	esp, 4
	push	ebp
	mov	ebp, DWORD PTR [ebx+4]
	mov	DWORD PTR [esp+4], ebp
	mov	ebp, esp
	sub	esp, 584				; 00000248H
	push	esi
	push	edi
	lea	edi, DWORD PTR [ebp-584]
	mov	ecx, 146				; 00000092H
	mov	eax, -858993460				; ccccccccH
	rep stosd
	mov	eax, DWORD PTR ___security_cookie
	xor	eax, ebp
	mov	DWORD PTR __$ArrayPad$[ebp], eax

; 2011 :     D3DXVECTOR3 vEyePt   = D3DXVECTOR3( 0.0f, 0.0f, 0.0f );

	push	ecx
	movss	xmm0, DWORD PTR __real@00000000
	movss	DWORD PTR [esp], xmm0
	push	ecx
	movss	xmm0, DWORD PTR __real@00000000
	movss	DWORD PTR [esp], xmm0
	push	ecx
	movss	xmm0, DWORD PTR __real@00000000
	movss	DWORD PTR [esp], xmm0
	lea	ecx, DWORD PTR _vEyePt$[ebp]
	call	??0D3DXVECTOR3@@QAE@MMM@Z		; D3DXVECTOR3::D3DXVECTOR3

; 2012 :     D3DXVECTOR3 vLookDir;

	lea	ecx, DWORD PTR _vLookDir$[ebp]
	call	??0D3DXVECTOR3@@QAE@XZ			; D3DXVECTOR3::D3DXVECTOR3

; 2013 :     D3DXVECTOR3 vUpDir;

	lea	ecx, DWORD PTR _vUpDir$[ebp]
	call	??0D3DXVECTOR3@@QAE@XZ			; D3DXVECTOR3::D3DXVECTOR3

; 2014 : 
; 2015 :     switch( dwFace )

	mov	eax, DWORD PTR _dwFace$[ebx]
	mov	DWORD PTR tv70[ebp], eax
	cmp	DWORD PTR tv70[ebp], 5
	ja	$LN7@DXUTGetCub
	mov	ecx, DWORD PTR tv70[ebp]
	jmp	DWORD PTR $LN17@DXUTGetCub[ecx*4]
$LN6@DXUTGetCub:

; 2016 :     {
; 2017 :         case D3DCUBEMAP_FACE_POSITIVE_X:
; 2018 :             vLookDir = D3DXVECTOR3( 1.0f, 0.0f, 0.0f );

	push	ecx
	movss	xmm0, DWORD PTR __real@00000000
	movss	DWORD PTR [esp], xmm0
	push	ecx
	movss	xmm0, DWORD PTR __real@00000000
	movss	DWORD PTR [esp], xmm0
	push	ecx
	movss	xmm0, DWORD PTR __real@3f800000
	movss	DWORD PTR [esp], xmm0
	lea	ecx, DWORD PTR $T1[ebp]
	call	??0D3DXVECTOR3@@QAE@MMM@Z		; D3DXVECTOR3::D3DXVECTOR3
	mov	ecx, DWORD PTR [eax]
	mov	DWORD PTR _vLookDir$[ebp], ecx
	mov	edx, DWORD PTR [eax+4]
	mov	DWORD PTR _vLookDir$[ebp+4], edx
	mov	eax, DWORD PTR [eax+8]
	mov	DWORD PTR _vLookDir$[ebp+8], eax

; 2019 :             vUpDir   = D3DXVECTOR3( 0.0f, 1.0f, 0.0f );

	push	ecx
	movss	xmm0, DWORD PTR __real@00000000
	movss	DWORD PTR [esp], xmm0
	push	ecx
	movss	xmm0, DWORD PTR __real@3f800000
	movss	DWORD PTR [esp], xmm0
	push	ecx
	movss	xmm0, DWORD PTR __real@00000000
	movss	DWORD PTR [esp], xmm0
	lea	ecx, DWORD PTR $T2[ebp]
	call	??0D3DXVECTOR3@@QAE@MMM@Z		; D3DXVECTOR3::D3DXVECTOR3
	mov	ecx, DWORD PTR [eax]
	mov	DWORD PTR _vUpDir$[ebp], ecx
	mov	edx, DWORD PTR [eax+4]
	mov	DWORD PTR _vUpDir$[ebp+4], edx
	mov	eax, DWORD PTR [eax+8]
	mov	DWORD PTR _vUpDir$[ebp+8], eax

; 2020 :             break;

	jmp	$LN7@DXUTGetCub
$LN5@DXUTGetCub:

; 2021 :         case D3DCUBEMAP_FACE_NEGATIVE_X:
; 2022 :             vLookDir = D3DXVECTOR3(-1.0f, 0.0f, 0.0f );

	push	ecx
	movss	xmm0, DWORD PTR __real@00000000
	movss	DWORD PTR [esp], xmm0
	push	ecx
	movss	xmm0, DWORD PTR __real@00000000
	movss	DWORD PTR [esp], xmm0
	push	ecx
	movss	xmm0, DWORD PTR __real@bf800000
	movss	DWORD PTR [esp], xmm0
	lea	ecx, DWORD PTR $T3[ebp]
	call	??0D3DXVECTOR3@@QAE@MMM@Z		; D3DXVECTOR3::D3DXVECTOR3
	mov	ecx, DWORD PTR [eax]
	mov	DWORD PTR _vLookDir$[ebp], ecx
	mov	edx, DWORD PTR [eax+4]
	mov	DWORD PTR _vLookDir$[ebp+4], edx
	mov	eax, DWORD PTR [eax+8]
	mov	DWORD PTR _vLookDir$[ebp+8], eax

; 2023 :             vUpDir   = D3DXVECTOR3( 0.0f, 1.0f, 0.0f );

	push	ecx
	movss	xmm0, DWORD PTR __real@00000000
	movss	DWORD PTR [esp], xmm0
	push	ecx
	movss	xmm0, DWORD PTR __real@3f800000
	movss	DWORD PTR [esp], xmm0
	push	ecx
	movss	xmm0, DWORD PTR __real@00000000
	movss	DWORD PTR [esp], xmm0
	lea	ecx, DWORD PTR $T4[ebp]
	call	??0D3DXVECTOR3@@QAE@MMM@Z		; D3DXVECTOR3::D3DXVECTOR3
	mov	ecx, DWORD PTR [eax]
	mov	DWORD PTR _vUpDir$[ebp], ecx
	mov	edx, DWORD PTR [eax+4]
	mov	DWORD PTR _vUpDir$[ebp+4], edx
	mov	eax, DWORD PTR [eax+8]
	mov	DWORD PTR _vUpDir$[ebp+8], eax

; 2024 :             break;

	jmp	$LN7@DXUTGetCub
$LN4@DXUTGetCub:

; 2025 :         case D3DCUBEMAP_FACE_POSITIVE_Y:
; 2026 :             vLookDir = D3DXVECTOR3( 0.0f, 1.0f, 0.0f );

	push	ecx
	movss	xmm0, DWORD PTR __real@00000000
	movss	DWORD PTR [esp], xmm0
	push	ecx
	movss	xmm0, DWORD PTR __real@3f800000
	movss	DWORD PTR [esp], xmm0
	push	ecx
	movss	xmm0, DWORD PTR __real@00000000
	movss	DWORD PTR [esp], xmm0
	lea	ecx, DWORD PTR $T5[ebp]
	call	??0D3DXVECTOR3@@QAE@MMM@Z		; D3DXVECTOR3::D3DXVECTOR3
	mov	ecx, DWORD PTR [eax]
	mov	DWORD PTR _vLookDir$[ebp], ecx
	mov	edx, DWORD PTR [eax+4]
	mov	DWORD PTR _vLookDir$[ebp+4], edx
	mov	eax, DWORD PTR [eax+8]
	mov	DWORD PTR _vLookDir$[ebp+8], eax

; 2027 :             vUpDir   = D3DXVECTOR3( 0.0f, 0.0f,-1.0f );

	push	ecx
	movss	xmm0, DWORD PTR __real@bf800000
	movss	DWORD PTR [esp], xmm0
	push	ecx
	movss	xmm0, DWORD PTR __real@00000000
	movss	DWORD PTR [esp], xmm0
	push	ecx
	movss	xmm0, DWORD PTR __real@00000000
	movss	DWORD PTR [esp], xmm0
	lea	ecx, DWORD PTR $T6[ebp]
	call	??0D3DXVECTOR3@@QAE@MMM@Z		; D3DXVECTOR3::D3DXVECTOR3
	mov	ecx, DWORD PTR [eax]
	mov	DWORD PTR _vUpDir$[ebp], ecx
	mov	edx, DWORD PTR [eax+4]
	mov	DWORD PTR _vUpDir$[ebp+4], edx
	mov	eax, DWORD PTR [eax+8]
	mov	DWORD PTR _vUpDir$[ebp+8], eax

; 2028 :             break;

	jmp	$LN7@DXUTGetCub
$LN3@DXUTGetCub:

; 2029 :         case D3DCUBEMAP_FACE_NEGATIVE_Y:
; 2030 :             vLookDir = D3DXVECTOR3( 0.0f,-1.0f, 0.0f );

	push	ecx
	movss	xmm0, DWORD PTR __real@00000000
	movss	DWORD PTR [esp], xmm0
	push	ecx
	movss	xmm0, DWORD PTR __real@bf800000
	movss	DWORD PTR [esp], xmm0
	push	ecx
	movss	xmm0, DWORD PTR __real@00000000
	movss	DWORD PTR [esp], xmm0
	lea	ecx, DWORD PTR $T7[ebp]
	call	??0D3DXVECTOR3@@QAE@MMM@Z		; D3DXVECTOR3::D3DXVECTOR3
	mov	ecx, DWORD PTR [eax]
	mov	DWORD PTR _vLookDir$[ebp], ecx
	mov	edx, DWORD PTR [eax+4]
	mov	DWORD PTR _vLookDir$[ebp+4], edx
	mov	eax, DWORD PTR [eax+8]
	mov	DWORD PTR _vLookDir$[ebp+8], eax

; 2031 :             vUpDir   = D3DXVECTOR3( 0.0f, 0.0f, 1.0f );

	push	ecx
	movss	xmm0, DWORD PTR __real@3f800000
	movss	DWORD PTR [esp], xmm0
	push	ecx
	movss	xmm0, DWORD PTR __real@00000000
	movss	DWORD PTR [esp], xmm0
	push	ecx
	movss	xmm0, DWORD PTR __real@00000000
	movss	DWORD PTR [esp], xmm0
	lea	ecx, DWORD PTR $T8[ebp]
	call	??0D3DXVECTOR3@@QAE@MMM@Z		; D3DXVECTOR3::D3DXVECTOR3
	mov	ecx, DWORD PTR [eax]
	mov	DWORD PTR _vUpDir$[ebp], ecx
	mov	edx, DWORD PTR [eax+4]
	mov	DWORD PTR _vUpDir$[ebp+4], edx
	mov	eax, DWORD PTR [eax+8]
	mov	DWORD PTR _vUpDir$[ebp+8], eax

; 2032 :             break;

	jmp	$LN7@DXUTGetCub
$LN2@DXUTGetCub:

; 2033 :         case D3DCUBEMAP_FACE_POSITIVE_Z:
; 2034 :             vLookDir = D3DXVECTOR3( 0.0f, 0.0f, 1.0f );

	push	ecx
	movss	xmm0, DWORD PTR __real@3f800000
	movss	DWORD PTR [esp], xmm0
	push	ecx
	movss	xmm0, DWORD PTR __real@00000000
	movss	DWORD PTR [esp], xmm0
	push	ecx
	movss	xmm0, DWORD PTR __real@00000000
	movss	DWORD PTR [esp], xmm0
	lea	ecx, DWORD PTR $T9[ebp]
	call	??0D3DXVECTOR3@@QAE@MMM@Z		; D3DXVECTOR3::D3DXVECTOR3
	mov	ecx, DWORD PTR [eax]
	mov	DWORD PTR _vLookDir$[ebp], ecx
	mov	edx, DWORD PTR [eax+4]
	mov	DWORD PTR _vLookDir$[ebp+4], edx
	mov	eax, DWORD PTR [eax+8]
	mov	DWORD PTR _vLookDir$[ebp+8], eax

; 2035 :             vUpDir   = D3DXVECTOR3( 0.0f, 1.0f, 0.0f );

	push	ecx
	movss	xmm0, DWORD PTR __real@00000000
	movss	DWORD PTR [esp], xmm0
	push	ecx
	movss	xmm0, DWORD PTR __real@3f800000
	movss	DWORD PTR [esp], xmm0
	push	ecx
	movss	xmm0, DWORD PTR __real@00000000
	movss	DWORD PTR [esp], xmm0
	lea	ecx, DWORD PTR $T10[ebp]
	call	??0D3DXVECTOR3@@QAE@MMM@Z		; D3DXVECTOR3::D3DXVECTOR3
	mov	ecx, DWORD PTR [eax]
	mov	DWORD PTR _vUpDir$[ebp], ecx
	mov	edx, DWORD PTR [eax+4]
	mov	DWORD PTR _vUpDir$[ebp+4], edx
	mov	eax, DWORD PTR [eax+8]
	mov	DWORD PTR _vUpDir$[ebp+8], eax

; 2036 :             break;

	jmp	$LN7@DXUTGetCub
$LN1@DXUTGetCub:

; 2037 :         case D3DCUBEMAP_FACE_NEGATIVE_Z:
; 2038 :             vLookDir = D3DXVECTOR3( 0.0f, 0.0f,-1.0f );

	push	ecx
	movss	xmm0, DWORD PTR __real@bf800000
	movss	DWORD PTR [esp], xmm0
	push	ecx
	movss	xmm0, DWORD PTR __real@00000000
	movss	DWORD PTR [esp], xmm0
	push	ecx
	movss	xmm0, DWORD PTR __real@00000000
	movss	DWORD PTR [esp], xmm0
	lea	ecx, DWORD PTR $T11[ebp]
	call	??0D3DXVECTOR3@@QAE@MMM@Z		; D3DXVECTOR3::D3DXVECTOR3
	mov	ecx, DWORD PTR [eax]
	mov	DWORD PTR _vLookDir$[ebp], ecx
	mov	edx, DWORD PTR [eax+4]
	mov	DWORD PTR _vLookDir$[ebp+4], edx
	mov	eax, DWORD PTR [eax+8]
	mov	DWORD PTR _vLookDir$[ebp+8], eax

; 2039 :             vUpDir   = D3DXVECTOR3( 0.0f, 1.0f, 0.0f );

	push	ecx
	movss	xmm0, DWORD PTR __real@00000000
	movss	DWORD PTR [esp], xmm0
	push	ecx
	movss	xmm0, DWORD PTR __real@3f800000
	movss	DWORD PTR [esp], xmm0
	push	ecx
	movss	xmm0, DWORD PTR __real@00000000
	movss	DWORD PTR [esp], xmm0
	lea	ecx, DWORD PTR $T12[ebp]
	call	??0D3DXVECTOR3@@QAE@MMM@Z		; D3DXVECTOR3::D3DXVECTOR3
	mov	ecx, DWORD PTR [eax]
	mov	DWORD PTR _vUpDir$[ebp], ecx
	mov	edx, DWORD PTR [eax+4]
	mov	DWORD PTR _vUpDir$[ebp+4], edx
	mov	eax, DWORD PTR [eax+8]
	mov	DWORD PTR _vUpDir$[ebp+8], eax
$LN7@DXUTGetCub:

; 2040 :             break;
; 2041 :     }
; 2042 : 
; 2043 :     // Set the view transform for this cubemap surface
; 2044 :     D3DXMATRIXA16 mView;

	lea	ecx, DWORD PTR _mView$[ebp]
	call	??0_D3DXMATRIXA16@@QAE@XZ		; _D3DXMATRIXA16::_D3DXMATRIXA16

; 2045 :     D3DXMatrixLookAtLH( &mView, &vEyePt, &vLookDir, &vUpDir );

	lea	eax, DWORD PTR _vUpDir$[ebp]
	push	eax
	lea	ecx, DWORD PTR _vLookDir$[ebp]
	push	ecx
	lea	edx, DWORD PTR _vEyePt$[ebp]
	push	edx
	lea	eax, DWORD PTR _mView$[ebp]
	push	eax
	call	_D3DXMatrixLookAtLH@16

; 2046 :     return mView;

	mov	ecx, 16					; 00000010H
	lea	esi, DWORD PTR _mView$[ebp]
	mov	edi, DWORD PTR ___$ReturnUdt$[ebx]
	rep movsd
	mov	eax, DWORD PTR ___$ReturnUdt$[ebx]

; 2047 : }

	push	edx
	mov	ecx, ebp
	push	eax
	lea	edx, DWORD PTR $LN16@DXUTGetCub
	call	@_RTC_CheckStackVars@8
	pop	eax
	pop	edx
	pop	edi
	pop	esi
	mov	ecx, DWORD PTR __$ArrayPad$[ebp]
	xor	ecx, ebp
	call	@__security_check_cookie@4
	mov	esp, ebp
	pop	ebp
	mov	esp, ebx
	pop	ebx
	ret	0
	npad	2
$LN16@DXUTGetCub:
	DD	4
	DD	$LN15@DXUTGetCub
$LN15@DXUTGetCub:
	DD	-20					; ffffffecH
	DD	12					; 0000000cH
	DD	$LN11@DXUTGetCub
	DD	-40					; ffffffd8H
	DD	12					; 0000000cH
	DD	$LN12@DXUTGetCub
	DD	-60					; ffffffc4H
	DD	12					; 0000000cH
	DD	$LN13@DXUTGetCub
	DD	-144					; ffffff70H
	DD	64					; 00000040H
	DD	$LN14@DXUTGetCub
$LN14@DXUTGetCub:
	DB	109					; 0000006dH
	DB	86					; 00000056H
	DB	105					; 00000069H
	DB	101					; 00000065H
	DB	119					; 00000077H
	DB	0
$LN13@DXUTGetCub:
	DB	118					; 00000076H
	DB	85					; 00000055H
	DB	112					; 00000070H
	DB	68					; 00000044H
	DB	105					; 00000069H
	DB	114					; 00000072H
	DB	0
$LN12@DXUTGetCub:
	DB	118					; 00000076H
	DB	76					; 0000004cH
	DB	111					; 0000006fH
	DB	111					; 0000006fH
	DB	107					; 0000006bH
	DB	68					; 00000044H
	DB	105					; 00000069H
	DB	114					; 00000072H
	DB	0
$LN11@DXUTGetCub:
	DB	118					; 00000076H
	DB	69					; 00000045H
	DB	121					; 00000079H
	DB	101					; 00000065H
	DB	80					; 00000050H
	DB	116					; 00000074H
	DB	0
	npad	3
$LN17@DXUTGetCub:
	DD	$LN6@DXUTGetCub
	DD	$LN5@DXUTGetCub
	DD	$LN4@DXUTGetCub
	DD	$LN3@DXUTGetCub
	DD	$LN2@DXUTGetCub
	DD	$LN1@DXUTGetCub
?DXUTGetCubeMapViewMatrix@@YA?AUD3DXMATRIX@@K@Z ENDP	; DXUTGetCubeMapViewMatrix
_TEXT	ENDS
; Function compile flags: /Odtp /RTCsu /ZI
; File z:\sampsrc\02xu1\saco\d3d9\common\dxutmisc.cpp
;	COMDAT ?DXUTD3DFormatToString@@YAPBDW4_D3DFORMAT@@_N@Z
_TEXT	SEGMENT
tv64 = -208						; size = 4
_pstr$ = -8						; size = 4
_format$ = 8						; size = 4
_bWithPrefix$ = 12					; size = 1
?DXUTD3DFormatToString@@YAPBDW4_D3DFORMAT@@_N@Z PROC	; DXUTD3DFormatToString, COMDAT

; 2054 : {

	push	ebp
	mov	ebp, esp
	sub	esp, 208				; 000000d0H
	push	ebx
	push	esi
	push	edi
	lea	edi, DWORD PTR [ebp-208]
	mov	ecx, 52					; 00000034H
	mov	eax, -858993460				; ccccccccH
	rep stosd

; 2055 :     TCHAR* pstr = NULL;

	mov	DWORD PTR _pstr$[ebp], 0

; 2056 :     switch( format )

	mov	eax, DWORD PTR _format$[ebp]
	mov	DWORD PTR tv64[ebp], eax
	cmp	DWORD PTR tv64[ebp], 827606349		; 3154454dH
	jg	SHORT $LN65@DXUTD3DFor
	cmp	DWORD PTR tv64[ebp], 827606349		; 3154454dH
	je	$LN12@DXUTD3DFor
	cmp	DWORD PTR tv64[ebp], 117		; 00000075H
	ja	$LN4@DXUTD3DFor
	mov	ecx, DWORD PTR tv64[ebp]
	movzx	edx, BYTE PTR $LN67@DXUTD3DFor[ecx]
	jmp	DWORD PTR $LN68@DXUTD3DFor[edx*4]
$LN65@DXUTD3DFor:
	cmp	DWORD PTR tv64[ebp], 861165636		; 33545844H
	jg	SHORT $LN66@DXUTD3DFor
	cmp	DWORD PTR tv64[ebp], 861165636		; 33545844H
	je	$LN27@DXUTD3DFor
	cmp	DWORD PTR tv64[ebp], 827611204		; 31545844H
	je	$LN29@DXUTD3DFor
	cmp	DWORD PTR tv64[ebp], 844388420		; 32545844H
	je	$LN28@DXUTD3DFor
	cmp	DWORD PTR tv64[ebp], 844715353		; 32595559H
	je	$LN30@DXUTD3DFor
	jmp	$LN4@DXUTD3DFor
$LN66@DXUTD3DFor:
	cmp	DWORD PTR tv64[ebp], 877942852		; 34545844H
	je	$LN26@DXUTD3DFor
	cmp	DWORD PTR tv64[ebp], 894720068		; 35545844H
	je	$LN25@DXUTD3DFor
	cmp	DWORD PTR tv64[ebp], 1498831189		; 59565955H
	je	$LN31@DXUTD3DFor
	jmp	$LN4@DXUTD3DFor
$LN60@DXUTD3DFor:

; 2057 :     {
; 2058 :     case D3DFMT_UNKNOWN:         pstr = "D3DFMT_UNKNOWN"; break;

	mov	DWORD PTR _pstr$[ebp], OFFSET ??_C@_0P@FCGOGLON@D3DFMT_UNKNOWN?$AA@
	jmp	$LN61@DXUTD3DFor
$LN59@DXUTD3DFor:

; 2059 :     case D3DFMT_R8G8B8:          pstr = "D3DFMT_R8G8B8"; break;

	mov	DWORD PTR _pstr$[ebp], OFFSET ??_C@_0O@OOCIJBAM@D3DFMT_R8G8B8?$AA@
	jmp	$LN61@DXUTD3DFor
$LN58@DXUTD3DFor:

; 2060 :     case D3DFMT_A8R8G8B8:        pstr = "D3DFMT_A8R8G8B8"; break;

	mov	DWORD PTR _pstr$[ebp], OFFSET ??_C@_0BA@CHHHKFAO@D3DFMT_A8R8G8B8?$AA@
	jmp	$LN61@DXUTD3DFor
$LN57@DXUTD3DFor:

; 2061 :     case D3DFMT_X8R8G8B8:        pstr = "D3DFMT_X8R8G8B8"; break;

	mov	DWORD PTR _pstr$[ebp], OFFSET ??_C@_0BA@CHBEFBCE@D3DFMT_X8R8G8B8?$AA@
	jmp	$LN61@DXUTD3DFor
$LN56@DXUTD3DFor:

; 2062 :     case D3DFMT_R5G6B5:          pstr = "D3DFMT_R5G6B5"; break;

	mov	DWORD PTR _pstr$[ebp], OFFSET ??_C@_0O@HMHILKM@D3DFMT_R5G6B5?$AA@
	jmp	$LN61@DXUTD3DFor
$LN55@DXUTD3DFor:

; 2063 :     case D3DFMT_X1R5G5B5:        pstr = "D3DFMT_X1R5G5B5"; break;

	mov	DWORD PTR _pstr$[ebp], OFFSET ??_C@_0BA@MDABPPEB@D3DFMT_X1R5G5B5?$AA@
	jmp	$LN61@DXUTD3DFor
$LN54@DXUTD3DFor:

; 2064 :     case D3DFMT_A1R5G5B5:        pstr = "D3DFMT_A1R5G5B5"; break;

	mov	DWORD PTR _pstr$[ebp], OFFSET ??_C@_0BA@MDGCALGL@D3DFMT_A1R5G5B5?$AA@
	jmp	$LN61@DXUTD3DFor
$LN53@DXUTD3DFor:

; 2065 :     case D3DFMT_A4R4G4B4:        pstr = "D3DFMT_A4R4G4B4"; break;

	mov	DWORD PTR _pstr$[ebp], OFFSET ??_C@_0BA@OBHJIAIO@D3DFMT_A4R4G4B4?$AA@
	jmp	$LN61@DXUTD3DFor
$LN52@DXUTD3DFor:

; 2066 :     case D3DFMT_R3G3B2:          pstr = "D3DFMT_R3G3B2"; break;

	mov	DWORD PTR _pstr$[ebp], OFFSET ??_C@_0O@KJABAOEE@D3DFMT_R3G3B2?$AA@
	jmp	$LN61@DXUTD3DFor
$LN51@DXUTD3DFor:

; 2067 :     case D3DFMT_A8:              pstr = "D3DFMT_A8"; break;

	mov	DWORD PTR _pstr$[ebp], OFFSET ??_C@_09JNGIHEFB@D3DFMT_A8?$AA@
	jmp	$LN61@DXUTD3DFor
$LN50@DXUTD3DFor:

; 2068 :     case D3DFMT_A8R3G3B2:        pstr = "D3DFMT_A8R3G3B2"; break;

	mov	DWORD PTR _pstr$[ebp], OFFSET ??_C@_0BA@GAFODKEG@D3DFMT_A8R3G3B2?$AA@
	jmp	$LN61@DXUTD3DFor
$LN49@DXUTD3DFor:

; 2069 :     case D3DFMT_X4R4G4B4:        pstr = "D3DFMT_X4R4G4B4"; break;

	mov	DWORD PTR _pstr$[ebp], OFFSET ??_C@_0BA@OBBKHEKE@D3DFMT_X4R4G4B4?$AA@
	jmp	$LN61@DXUTD3DFor
$LN48@DXUTD3DFor:

; 2070 :     case D3DFMT_A2B10G10R10:     pstr = "D3DFMT_A2B10G10R10"; break;

	mov	DWORD PTR _pstr$[ebp], OFFSET ??_C@_0BD@OELFJMLB@D3DFMT_A2B10G10R10?$AA@
	jmp	$LN61@DXUTD3DFor
$LN47@DXUTD3DFor:

; 2071 :     case D3DFMT_A8B8G8R8:        pstr = "D3DFMT_A8B8G8R8"; break;

	mov	DWORD PTR _pstr$[ebp], OFFSET ??_C@_0BA@FMIPJKLA@D3DFMT_A8B8G8R8?$AA@
	jmp	$LN61@DXUTD3DFor
$LN46@DXUTD3DFor:

; 2072 :     case D3DFMT_X8B8G8R8:        pstr = "D3DFMT_X8B8G8R8"; break;

	mov	DWORD PTR _pstr$[ebp], OFFSET ??_C@_0BA@FMOMGOJK@D3DFMT_X8B8G8R8?$AA@
	jmp	$LN61@DXUTD3DFor
$LN45@DXUTD3DFor:

; 2073 :     case D3DFMT_G16R16:          pstr = "D3DFMT_G16R16"; break;

	mov	DWORD PTR _pstr$[ebp], OFFSET ??_C@_0O@KENMFGDC@D3DFMT_G16R16?$AA@
	jmp	$LN61@DXUTD3DFor
$LN44@DXUTD3DFor:

; 2074 :     case D3DFMT_A2R10G10B10:     pstr = "D3DFMT_A2R10G10B10"; break;

	mov	DWORD PTR _pstr$[ebp], OFFSET ??_C@_0BD@JDACEKMG@D3DFMT_A2R10G10B10?$AA@
	jmp	$LN61@DXUTD3DFor
$LN43@DXUTD3DFor:

; 2075 :     case D3DFMT_A16B16G16R16:    pstr = "D3DFMT_A16B16G16R16"; break;

	mov	DWORD PTR _pstr$[ebp], OFFSET ??_C@_0BE@GGADDKEH@D3DFMT_A16B16G16R16?$AA@
	jmp	$LN61@DXUTD3DFor
$LN42@DXUTD3DFor:

; 2076 :     case D3DFMT_A8P8:            pstr = "D3DFMT_A8P8"; break;

	mov	DWORD PTR _pstr$[ebp], OFFSET ??_C@_0M@IPOLNGBD@D3DFMT_A8P8?$AA@
	jmp	$LN61@DXUTD3DFor
$LN41@DXUTD3DFor:

; 2077 :     case D3DFMT_P8:              pstr = "D3DFMT_P8"; break;

	mov	DWORD PTR _pstr$[ebp], OFFSET ??_C@_09IAIMLNBG@D3DFMT_P8?$AA@
	jmp	$LN61@DXUTD3DFor
$LN40@DXUTD3DFor:

; 2078 :     case D3DFMT_L8:              pstr = "D3DFMT_L8"; break;

	mov	DWORD PTR _pstr$[ebp], OFFSET ??_C@_09JFLAOHAC@D3DFMT_L8?$AA@
	jmp	$LN61@DXUTD3DFor
$LN39@DXUTD3DFor:

; 2079 :     case D3DFMT_A8L8:            pstr = "D3DFMT_A8L8"; break;

	mov	DWORD PTR _pstr$[ebp], OFFSET ??_C@_0M@JKNHIMAH@D3DFMT_A8L8?$AA@
	jmp	$LN61@DXUTD3DFor
$LN38@DXUTD3DFor:

; 2080 :     case D3DFMT_A4L4:            pstr = "D3DFMT_A4L4"; break;

	mov	DWORD PTR _pstr$[ebp], OFFSET ??_C@_0M@HMLEHMLD@D3DFMT_A4L4?$AA@
	jmp	$LN61@DXUTD3DFor
$LN37@DXUTD3DFor:

; 2081 :     case D3DFMT_V8U8:            pstr = "D3DFMT_V8U8"; break;

	mov	DWORD PTR _pstr$[ebp], OFFSET ??_C@_0M@FLOAFPGK@D3DFMT_V8U8?$AA@
	jmp	$LN61@DXUTD3DFor
$LN36@DXUTD3DFor:

; 2082 :     case D3DFMT_L6V5U5:          pstr = "D3DFMT_L6V5U5"; break;

	mov	DWORD PTR _pstr$[ebp], OFFSET ??_C@_0O@OAOOLKLI@D3DFMT_L6V5U5?$AA@
	jmp	$LN61@DXUTD3DFor
$LN35@DXUTD3DFor:

; 2083 :     case D3DFMT_X8L8V8U8:        pstr = "D3DFMT_X8L8V8U8"; break;

	mov	DWORD PTR _pstr$[ebp], OFFSET ??_C@_0BA@FEBMLNHA@D3DFMT_X8L8V8U8?$AA@
	jmp	$LN61@DXUTD3DFor
$LN34@DXUTD3DFor:

; 2084 :     case D3DFMT_Q8W8V8U8:        pstr = "D3DFMT_Q8W8V8U8"; break;

	mov	DWORD PTR _pstr$[ebp], OFFSET ??_C@_0BA@JNGGMDBP@D3DFMT_Q8W8V8U8?$AA@
	jmp	$LN61@DXUTD3DFor
$LN33@DXUTD3DFor:

; 2085 :     case D3DFMT_V16U16:          pstr = "D3DFMT_V16U16"; break;

	mov	DWORD PTR _pstr$[ebp], OFFSET ??_C@_0O@PIKCPJPB@D3DFMT_V16U16?$AA@
	jmp	$LN61@DXUTD3DFor
$LN32@DXUTD3DFor:

; 2086 :     case D3DFMT_A2W10V10U10:     pstr = "D3DFMT_A2W10V10U10"; break;

	mov	DWORD PTR _pstr$[ebp], OFFSET ??_C@_0BD@HJEMHJNO@D3DFMT_A2W10V10U10?$AA@
	jmp	$LN61@DXUTD3DFor
$LN31@DXUTD3DFor:

; 2087 :     case D3DFMT_UYVY:            pstr = "D3DFMT_UYVY"; break;

	mov	DWORD PTR _pstr$[ebp], OFFSET ??_C@_0M@OBHKFBGD@D3DFMT_UYVY?$AA@
	jmp	$LN61@DXUTD3DFor
$LN30@DXUTD3DFor:

; 2088 :     case D3DFMT_YUY2:            pstr = "D3DFMT_YUY2"; break;

	mov	DWORD PTR _pstr$[ebp], OFFSET ??_C@_0M@ODAJPGIL@D3DFMT_YUY2?$AA@
	jmp	$LN61@DXUTD3DFor
$LN29@DXUTD3DFor:

; 2089 :     case D3DFMT_DXT1:            pstr = "D3DFMT_DXT1"; break;

	mov	DWORD PTR _pstr$[ebp], OFFSET ??_C@_0M@KKOGLNPF@D3DFMT_DXT1?$AA@
	jmp	$LN61@DXUTD3DFor
$LN28@DXUTD3DFor:

; 2090 :     case D3DFMT_DXT2:            pstr = "D3DFMT_DXT2"; break;

	mov	DWORD PTR _pstr$[ebp], OFFSET ??_C@_0M@IBMLOODG@D3DFMT_DXT2?$AA@
	jmp	$LN61@DXUTD3DFor
$LN27@DXUTD3DFor:

; 2091 :     case D3DFMT_DXT3:            pstr = "D3DFMT_DXT3"; break;

	mov	DWORD PTR _pstr$[ebp], OFFSET ??_C@_0M@JINANPHH@D3DFMT_DXT3?$AA@
	jmp	$LN61@DXUTD3DFor
$LN26@DXUTD3DFor:

; 2092 :     case D3DFMT_DXT4:            pstr = "D3DFMT_DXT4"; break;

	mov	DWORD PTR _pstr$[ebp], OFFSET ??_C@_0M@NHJBEJLA@D3DFMT_DXT4?$AA@
	jmp	$LN61@DXUTD3DFor
$LN25@DXUTD3DFor:

; 2093 :     case D3DFMT_DXT5:            pstr = "D3DFMT_DXT5"; break;

	mov	DWORD PTR _pstr$[ebp], OFFSET ??_C@_0M@MOIKHIPB@D3DFMT_DXT5?$AA@
	jmp	$LN61@DXUTD3DFor
$LN24@DXUTD3DFor:

; 2094 :     case D3DFMT_D16_LOCKABLE:    pstr = "D3DFMT_D16_LOCKABLE"; break;

	mov	DWORD PTR _pstr$[ebp], OFFSET ??_C@_0BE@GKJJNPH@D3DFMT_D16_LOCKABLE?$AA@
	jmp	$LN61@DXUTD3DFor
$LN23@DXUTD3DFor:

; 2095 :     case D3DFMT_D32:             pstr = "D3DFMT_D32"; break;

	mov	DWORD PTR _pstr$[ebp], OFFSET ??_C@_0L@MKAKECLE@D3DFMT_D32?$AA@
	jmp	$LN61@DXUTD3DFor
$LN22@DXUTD3DFor:

; 2096 :     case D3DFMT_D15S1:           pstr = "D3DFMT_D15S1"; break;

	mov	DWORD PTR _pstr$[ebp], OFFSET ??_C@_0N@FHMLHNII@D3DFMT_D15S1?$AA@
	jmp	$LN61@DXUTD3DFor
$LN21@DXUTD3DFor:

; 2097 :     case D3DFMT_D24S8:           pstr = "D3DFMT_D24S8"; break;

	mov	DWORD PTR _pstr$[ebp], OFFSET ??_C@_0N@HJBFNLHE@D3DFMT_D24S8?$AA@
	jmp	$LN61@DXUTD3DFor
$LN20@DXUTD3DFor:

; 2098 :     case D3DFMT_D24X8:           pstr = "D3DFMT_D24X8"; break;

	mov	DWORD PTR _pstr$[ebp], OFFSET ??_C@_0N@HFEADEJF@D3DFMT_D24X8?$AA@
	jmp	$LN61@DXUTD3DFor
$LN19@DXUTD3DFor:

; 2099 :     case D3DFMT_D24X4S4:         pstr = "D3DFMT_D24X4S4"; break;

	mov	DWORD PTR _pstr$[ebp], OFFSET ??_C@_0P@LCIECDAM@D3DFMT_D24X4S4?$AA@
	jmp	$LN61@DXUTD3DFor
$LN18@DXUTD3DFor:

; 2100 :     case D3DFMT_D16:             pstr = "D3DFMT_D16"; break;

	mov	DWORD PTR _pstr$[ebp], OFFSET ??_C@_0L@KNOCFDNO@D3DFMT_D16?$AA@
	jmp	SHORT $LN61@DXUTD3DFor
$LN17@DXUTD3DFor:

; 2101 :     case D3DFMT_L16:             pstr = "D3DFMT_L16"; break;

	mov	DWORD PTR _pstr$[ebp], OFFSET ??_C@_0L@GIFGHLDB@D3DFMT_L16?$AA@
	jmp	SHORT $LN61@DXUTD3DFor
$LN16@DXUTD3DFor:

; 2102 :     case D3DFMT_VERTEXDATA:      pstr = "D3DFMT_VERTEXDATA"; break;

	mov	DWORD PTR _pstr$[ebp], OFFSET ??_C@_0BC@LPMKMLOH@D3DFMT_VERTEXDATA?$AA@
	jmp	SHORT $LN61@DXUTD3DFor
$LN15@DXUTD3DFor:

; 2103 :     case D3DFMT_INDEX16:         pstr = "D3DFMT_INDEX16"; break;

	mov	DWORD PTR _pstr$[ebp], OFFSET ??_C@_0P@JJIOOHAH@D3DFMT_INDEX16?$AA@
	jmp	SHORT $LN61@DXUTD3DFor
$LN14@DXUTD3DFor:

; 2104 :     case D3DFMT_INDEX32:         pstr = "D3DFMT_INDEX32"; break;

	mov	DWORD PTR _pstr$[ebp], OFFSET ??_C@_0P@POGGPGGN@D3DFMT_INDEX32?$AA@
	jmp	SHORT $LN61@DXUTD3DFor
$LN13@DXUTD3DFor:

; 2105 :     case D3DFMT_Q16W16V16U16:    pstr = "D3DFMT_Q16W16V16U16"; break;

	mov	DWORD PTR _pstr$[ebp], OFFSET ??_C@_0BE@EPPNHJPC@D3DFMT_Q16W16V16U16?$AA@
	jmp	SHORT $LN61@DXUTD3DFor
$LN12@DXUTD3DFor:

; 2106 :     case D3DFMT_MULTI2_ARGB8:    pstr = "D3DFMT_MULTI2_ARGB8"; break;

	mov	DWORD PTR _pstr$[ebp], OFFSET ??_C@_0BE@LCLDBCOL@D3DFMT_MULTI2_ARGB8?$AA@
	jmp	SHORT $LN61@DXUTD3DFor
$LN11@DXUTD3DFor:

; 2107 :     case D3DFMT_R16F:            pstr = "D3DFMT_R16F"; break;

	mov	DWORD PTR _pstr$[ebp], OFFSET ??_C@_0M@CIEFJHCB@D3DFMT_R16F?$AA@
	jmp	SHORT $LN61@DXUTD3DFor
$LN10@DXUTD3DFor:

; 2108 :     case D3DFMT_G16R16F:         pstr = "D3DFMT_G16R16F"; break;

	mov	DWORD PTR _pstr$[ebp], OFFSET ??_C@_0P@GOFAGFFF@D3DFMT_G16R16F?$AA@
	jmp	SHORT $LN61@DXUTD3DFor
$LN9@DXUTD3DFor:

; 2109 :     case D3DFMT_A16B16G16R16F:   pstr = "D3DFMT_A16B16G16R16F"; break;

	mov	DWORD PTR _pstr$[ebp], OFFSET ??_C@_0BF@EOPNDPIK@D3DFMT_A16B16G16R16F?$AA@
	jmp	SHORT $LN61@DXUTD3DFor
$LN8@DXUTD3DFor:

; 2110 :     case D3DFMT_R32F:            pstr = "D3DFMT_R32F"; break;

	mov	DWORD PTR _pstr$[ebp], OFFSET ??_C@_0M@IFEFPHHG@D3DFMT_R32F?$AA@
	jmp	SHORT $LN61@DXUTD3DFor
$LN7@DXUTD3DFor:

; 2111 :     case D3DFMT_G32R32F:         pstr = "D3DFMT_G32R32F"; break;

	mov	DWORD PTR _pstr$[ebp], OFFSET ??_C@_0P@MPFOFGDN@D3DFMT_G32R32F?$AA@
	jmp	SHORT $LN61@DXUTD3DFor
$LN6@DXUTD3DFor:

; 2112 :     case D3DFMT_A32B32G32R32F:   pstr = "D3DFMT_A32B32G32R32F"; break;

	mov	DWORD PTR _pstr$[ebp], OFFSET ??_C@_0BF@NFLAADOH@D3DFMT_A32B32G32R32F?$AA@
	jmp	SHORT $LN61@DXUTD3DFor
$LN5@DXUTD3DFor:

; 2113 :     case D3DFMT_CxV8U8:          pstr = "D3DFMT_CxV8U8"; break;

	mov	DWORD PTR _pstr$[ebp], OFFSET ??_C@_0O@GEDAAHNN@D3DFMT_CxV8U8?$AA@
	jmp	SHORT $LN61@DXUTD3DFor
$LN4@DXUTD3DFor:

; 2114 :     default:                     pstr = "Unknown format"; break;

	mov	DWORD PTR _pstr$[ebp], OFFSET ??_C@_0P@BJJPCHFI@Unknown?5format?$AA@
$LN61@DXUTD3DFor:

; 2115 :     }
; 2116 :     if( bWithPrefix || strstr( pstr, "D3DFMT_" )== NULL )

	movzx	eax, BYTE PTR _bWithPrefix$[ebp]
	test	eax, eax
	jne	SHORT $LN2@DXUTD3DFor
	push	OFFSET ??_C@_07NCBDPBMK@D3DFMT_?$AA@
	mov	eax, DWORD PTR _pstr$[ebp]
	push	eax
	call	?strstr@@YAPADPADPBD@Z			; strstr
	add	esp, 8
	test	eax, eax
	jne	SHORT $LN3@DXUTD3DFor
$LN2@DXUTD3DFor:

; 2117 :         return pstr;

	mov	eax, DWORD PTR _pstr$[ebp]
	jmp	SHORT $LN63@DXUTD3DFor

; 2118 :     else

	jmp	SHORT $LN63@DXUTD3DFor
$LN3@DXUTD3DFor:

; 2119 :         return pstr + lstrlen( "D3DFMT_" );

	mov	esi, esp
	push	OFFSET ??_C@_07NCBDPBMK@D3DFMT_?$AA@
	call	DWORD PTR __imp__lstrlenA@4
	cmp	esi, esp
	call	__RTC_CheckEsp
	add	eax, DWORD PTR _pstr$[ebp]
$LN63@DXUTD3DFor:

; 2120 : }

	pop	edi
	pop	esi
	pop	ebx
	add	esp, 208				; 000000d0H
	cmp	ebp, esp
	call	__RTC_CheckEsp
	mov	esp, ebp
	pop	ebp
	ret	0
	npad	3
$LN68@DXUTD3DFor:
	DD	$LN60@DXUTD3DFor
	DD	$LN59@DXUTD3DFor
	DD	$LN58@DXUTD3DFor
	DD	$LN57@DXUTD3DFor
	DD	$LN56@DXUTD3DFor
	DD	$LN55@DXUTD3DFor
	DD	$LN54@DXUTD3DFor
	DD	$LN53@DXUTD3DFor
	DD	$LN52@DXUTD3DFor
	DD	$LN51@DXUTD3DFor
	DD	$LN50@DXUTD3DFor
	DD	$LN49@DXUTD3DFor
	DD	$LN48@DXUTD3DFor
	DD	$LN47@DXUTD3DFor
	DD	$LN46@DXUTD3DFor
	DD	$LN45@DXUTD3DFor
	DD	$LN44@DXUTD3DFor
	DD	$LN43@DXUTD3DFor
	DD	$LN42@DXUTD3DFor
	DD	$LN41@DXUTD3DFor
	DD	$LN40@DXUTD3DFor
	DD	$LN39@DXUTD3DFor
	DD	$LN38@DXUTD3DFor
	DD	$LN37@DXUTD3DFor
	DD	$LN36@DXUTD3DFor
	DD	$LN35@DXUTD3DFor
	DD	$LN34@DXUTD3DFor
	DD	$LN33@DXUTD3DFor
	DD	$LN32@DXUTD3DFor
	DD	$LN24@DXUTD3DFor
	DD	$LN23@DXUTD3DFor
	DD	$LN22@DXUTD3DFor
	DD	$LN21@DXUTD3DFor
	DD	$LN20@DXUTD3DFor
	DD	$LN19@DXUTD3DFor
	DD	$LN18@DXUTD3DFor
	DD	$LN17@DXUTD3DFor
	DD	$LN16@DXUTD3DFor
	DD	$LN15@DXUTD3DFor
	DD	$LN14@DXUTD3DFor
	DD	$LN13@DXUTD3DFor
	DD	$LN11@DXUTD3DFor
	DD	$LN10@DXUTD3DFor
	DD	$LN9@DXUTD3DFor
	DD	$LN8@DXUTD3DFor
	DD	$LN7@DXUTD3DFor
	DD	$LN6@DXUTD3DFor
	DD	$LN5@DXUTD3DFor
	DD	$LN4@DXUTD3DFor
$LN67@DXUTD3DFor:
	DB	0
	DB	48					; 00000030H
	DB	48					; 00000030H
	DB	48					; 00000030H
	DB	48					; 00000030H
	DB	48					; 00000030H
	DB	48					; 00000030H
	DB	48					; 00000030H
	DB	48					; 00000030H
	DB	48					; 00000030H
	DB	48					; 00000030H
	DB	48					; 00000030H
	DB	48					; 00000030H
	DB	48					; 00000030H
	DB	48					; 00000030H
	DB	48					; 00000030H
	DB	48					; 00000030H
	DB	48					; 00000030H
	DB	48					; 00000030H
	DB	48					; 00000030H
	DB	1
	DB	2
	DB	3
	DB	4
	DB	5
	DB	6
	DB	7
	DB	8
	DB	9
	DB	10					; 0000000aH
	DB	11					; 0000000bH
	DB	12					; 0000000cH
	DB	13					; 0000000dH
	DB	14					; 0000000eH
	DB	15					; 0000000fH
	DB	16					; 00000010H
	DB	17					; 00000011H
	DB	48					; 00000030H
	DB	48					; 00000030H
	DB	48					; 00000030H
	DB	18					; 00000012H
	DB	19					; 00000013H
	DB	48					; 00000030H
	DB	48					; 00000030H
	DB	48					; 00000030H
	DB	48					; 00000030H
	DB	48					; 00000030H
	DB	48					; 00000030H
	DB	48					; 00000030H
	DB	48					; 00000030H
	DB	20					; 00000014H
	DB	21					; 00000015H
	DB	22					; 00000016H
	DB	48					; 00000030H
	DB	48					; 00000030H
	DB	48					; 00000030H
	DB	48					; 00000030H
	DB	48					; 00000030H
	DB	48					; 00000030H
	DB	48					; 00000030H
	DB	23					; 00000017H
	DB	24					; 00000018H
	DB	25					; 00000019H
	DB	26					; 0000001aH
	DB	27					; 0000001bH
	DB	48					; 00000030H
	DB	48					; 00000030H
	DB	28					; 0000001cH
	DB	48					; 00000030H
	DB	48					; 00000030H
	DB	29					; 0000001dH
	DB	30					; 0000001eH
	DB	48					; 00000030H
	DB	31					; 0000001fH
	DB	48					; 00000030H
	DB	32					; 00000020H
	DB	48					; 00000030H
	DB	33					; 00000021H
	DB	48					; 00000030H
	DB	34					; 00000022H
	DB	35					; 00000023H
	DB	36					; 00000024H
	DB	48					; 00000030H
	DB	48					; 00000030H
	DB	48					; 00000030H
	DB	48					; 00000030H
	DB	48					; 00000030H
	DB	48					; 00000030H
	DB	48					; 00000030H
	DB	48					; 00000030H
	DB	48					; 00000030H
	DB	48					; 00000030H
	DB	48					; 00000030H
	DB	48					; 00000030H
	DB	48					; 00000030H
	DB	48					; 00000030H
	DB	48					; 00000030H
	DB	48					; 00000030H
	DB	48					; 00000030H
	DB	48					; 00000030H
	DB	37					; 00000025H
	DB	38					; 00000026H
	DB	39					; 00000027H
	DB	48					; 00000030H
	DB	48					; 00000030H
	DB	48					; 00000030H
	DB	48					; 00000030H
	DB	48					; 00000030H
	DB	48					; 00000030H
	DB	48					; 00000030H
	DB	40					; 00000028H
	DB	41					; 00000029H
	DB	42					; 0000002aH
	DB	43					; 0000002bH
	DB	44					; 0000002cH
	DB	45					; 0000002dH
	DB	46					; 0000002eH
	DB	47					; 0000002fH
?DXUTD3DFormatToString@@YAPBDW4_D3DFORMAT@@_N@Z ENDP	; DXUTD3DFormatToString
_TEXT	ENDS
; Function compile flags: /Odtp /RTCsu /ZI
; File z:\sampsrc\02xu1\saco\d3d9\common\dxutmisc.cpp
;	COMDAT ?DXUTGetMediaSearchPath@@YAPBDXZ
_TEXT	SEGMENT
?DXUTGetMediaSearchPath@@YAPBDXZ PROC			; DXUTGetMediaSearchPath, COMDAT

; 292  : {

	push	ebp
	mov	ebp, esp
	sub	esp, 192				; 000000c0H
	push	ebx
	push	esi
	push	edi
	lea	edi, DWORD PTR [ebp-192]
	mov	ecx, 48					; 00000030H
	mov	eax, -858993460				; ccccccccH
	rep stosd

; 293  :     return DXUTMediaSearchPath();

	call	?DXUTMediaSearchPath@@YAPADXZ		; DXUTMediaSearchPath

; 294  : }

	pop	edi
	pop	esi
	pop	ebx
	add	esp, 192				; 000000c0H
	cmp	ebp, esp
	call	__RTC_CheckEsp
	mov	esp, ebp
	pop	ebp
	ret	0
?DXUTGetMediaSearchPath@@YAPBDXZ ENDP			; DXUTGetMediaSearchPath
_TEXT	ENDS
; Function compile flags: /Odtp /RTCsu /ZI
; File z:\sampsrc\02xu1\saco\d3d9\common\dxutmisc.cpp
;	COMDAT ?DXUTSetMediaSearchPath@@YAJPBD@Z
_TEXT	SEGMENT
_ch$1 = -32						; size = 4
_s_strSearchPath$ = -20					; size = 4
_hr$ = -8						; size = 4
_strPath$ = 8						; size = 4
?DXUTSetMediaSearchPath@@YAJPBD@Z PROC			; DXUTSetMediaSearchPath, COMDAT

; 299  : {

	push	ebp
	mov	ebp, esp
	sub	esp, 228				; 000000e4H
	push	ebx
	push	esi
	push	edi
	lea	edi, DWORD PTR [ebp-228]
	mov	ecx, 57					; 00000039H
	mov	eax, -858993460				; ccccccccH
	rep stosd

; 300  :     HRESULT hr;
; 301  : 
; 302  :     TCHAR* s_strSearchPath = DXUTMediaSearchPath();

	call	?DXUTMediaSearchPath@@YAPADXZ		; DXUTMediaSearchPath
	mov	DWORD PTR _s_strSearchPath$[ebp], eax

; 303  : 
; 304  :     hr = StringCchCopy( s_strSearchPath, MAX_PATH, strPath );   

	mov	eax, DWORD PTR _strPath$[ebp]
	push	eax
	push	260					; 00000104H
	mov	ecx, DWORD PTR _s_strSearchPath$[ebp]
	push	ecx
	call	?StringCchCopyA@@YGJPADIPBD@Z		; StringCchCopyA
	mov	DWORD PTR _hr$[ebp], eax

; 305  :     if( SUCCEEDED(hr) )

	cmp	DWORD PTR _hr$[ebp], 0
	jl	SHORT $LN2@DXUTSetMed

; 306  :     {
; 307  :         // append slash if needed
; 308  :         size_t ch;
; 309  :         hr = StringCchLength( s_strSearchPath, MAX_PATH, &ch );

	lea	eax, DWORD PTR _ch$1[ebp]
	push	eax
	push	260					; 00000104H
	mov	ecx, DWORD PTR _s_strSearchPath$[ebp]
	push	ecx
	call	?StringCchLengthA@@YGJPBDIPAI@Z		; StringCchLengthA
	mov	DWORD PTR _hr$[ebp], eax

; 310  :         if( SUCCEEDED(hr) && s_strSearchPath[ch-1] != L'\\')

	cmp	DWORD PTR _hr$[ebp], 0
	jl	SHORT $LN2@DXUTSetMed
	mov	eax, DWORD PTR _s_strSearchPath$[ebp]
	add	eax, DWORD PTR _ch$1[ebp]
	movsx	ecx, BYTE PTR [eax-1]
	cmp	ecx, 92					; 0000005cH
	je	SHORT $LN2@DXUTSetMed

; 311  :         {
; 312  :             hr = StringCchCat( s_strSearchPath, MAX_PATH, "\\" );

	push	OFFSET ??_C@_01KICIPPFI@?2?$AA@
	push	260					; 00000104H
	mov	eax, DWORD PTR _s_strSearchPath$[ebp]
	push	eax
	call	?StringCchCatA@@YGJPADIPBD@Z		; StringCchCatA
	mov	DWORD PTR _hr$[ebp], eax
$LN2@DXUTSetMed:

; 313  :         }
; 314  :     }
; 315  : 
; 316  :     return hr;

	mov	eax, DWORD PTR _hr$[ebp]

; 317  : }

	push	edx
	mov	ecx, ebp
	push	eax
	lea	edx, DWORD PTR $LN7@DXUTSetMed
	call	@_RTC_CheckStackVars@8
	pop	eax
	pop	edx
	pop	edi
	pop	esi
	pop	ebx
	add	esp, 228				; 000000e4H
	cmp	ebp, esp
	call	__RTC_CheckEsp
	mov	esp, ebp
	pop	ebp
	ret	0
	npad	3
$LN7@DXUTSetMed:
	DD	1
	DD	$LN6@DXUTSetMed
$LN6@DXUTSetMed:
	DD	-32					; ffffffe0H
	DD	4
	DD	$LN5@DXUTSetMed
$LN5@DXUTSetMed:
	DB	99					; 00000063H
	DB	104					; 00000068H
	DB	0
?DXUTSetMediaSearchPath@@YAJPBD@Z ENDP			; DXUTSetMediaSearchPath
_TEXT	ENDS
; Function compile flags: /Odtp /RTCsu /ZI
; File z:\sampsrc\02xu1\saco\d3d9\common\dxutmisc.cpp
;	COMDAT ?DXUTFindDXSDKMediaFileCch@@YAJPADHPBD@Z
_TEXT	SEGMENT
$T1 = -1300						; size = 4
_strLeafName$ = -1096					; size = 260
_strLastSlash$ = -828					; size = 4
_strExeName$ = -816					; size = 260
_strExePath$ = -548					; size = 260
_strSearchFor$ = -280					; size = 260
_bFound$ = -9						; size = 1
__$ArrayPad$ = -4					; size = 4
_strDestPath$ = 8					; size = 4
_cchDest$ = 12						; size = 4
_strFilename$ = 16					; size = 4
?DXUTFindDXSDKMediaFileCch@@YAJPADHPBD@Z PROC		; DXUTFindDXSDKMediaFileCch, COMDAT

; 326  : {

	push	ebp
	mov	ebp, esp
	sub	esp, 1304				; 00000518H
	push	ebx
	push	esi
	push	edi
	lea	edi, DWORD PTR [ebp-1304]
	mov	ecx, 326				; 00000146H
	mov	eax, -858993460				; ccccccccH
	rep stosd
	mov	eax, DWORD PTR ___security_cookie
	xor	eax, ebp
	mov	DWORD PTR __$ArrayPad$[ebp], eax

; 327  :     bool bFound;
; 328  :     TCHAR strSearchFor[MAX_PATH];
; 329  :     
; 330  :     if( NULL==strFilename || strFilename[0] == 0 || NULL==strDestPath || cchDest < 10 )

	cmp	DWORD PTR _strFilename$[ebp], 0
	je	SHORT $LN9@DXUTFindDX
	mov	eax, 1
	imul	ecx, eax, 0
	mov	edx, DWORD PTR _strFilename$[ebp]
	movsx	eax, BYTE PTR [edx+ecx]
	test	eax, eax
	je	SHORT $LN9@DXUTFindDX
	cmp	DWORD PTR _strDestPath$[ebp], 0
	je	SHORT $LN9@DXUTFindDX
	cmp	DWORD PTR _cchDest$[ebp], 10		; 0000000aH
	jge	SHORT $LN10@DXUTFindDX
$LN9@DXUTFindDX:

; 331  :         return E_INVALIDARG;

	mov	eax, -2147024809			; 80070057H
	jmp	$LN12@DXUTFindDX
$LN10@DXUTFindDX:

; 332  : 
; 333  :     // Get the exe name, and exe path
; 334  :     TCHAR strExePath[MAX_PATH] = {0};

	mov	BYTE PTR _strExePath$[ebp], 0
	push	259					; 00000103H
	push	0
	lea	eax, DWORD PTR _strExePath$[ebp+1]
	push	eax
	call	_memset
	add	esp, 12					; 0000000cH

; 335  :     TCHAR strExeName[MAX_PATH] = {0};

	mov	BYTE PTR _strExeName$[ebp], 0
	push	259					; 00000103H
	push	0
	lea	eax, DWORD PTR _strExeName$[ebp+1]
	push	eax
	call	_memset
	add	esp, 12					; 0000000cH

; 336  :     TCHAR* strLastSlash = NULL;

	mov	DWORD PTR _strLastSlash$[ebp], 0

; 337  :     GetModuleFileName( NULL, strExePath, MAX_PATH );

	mov	esi, esp
	push	260					; 00000104H
	lea	eax, DWORD PTR _strExePath$[ebp]
	push	eax
	push	0
	call	DWORD PTR __imp__GetModuleFileNameA@12
	cmp	esi, esp
	call	__RTC_CheckEsp

; 338  :     strExePath[MAX_PATH-1]=0;

	mov	eax, 1
	imul	ecx, eax, 259
	mov	DWORD PTR $T1[ebp], ecx
	cmp	DWORD PTR $T1[ebp], 260			; 00000104H
	jae	SHORT $LN13@DXUTFindDX
	jmp	SHORT $LN14@DXUTFindDX
$LN13@DXUTFindDX:
	call	___report_rangecheckfailure
$LN14@DXUTFindDX:
	mov	edx, DWORD PTR $T1[ebp]
	mov	BYTE PTR _strExePath$[ebp+edx], 0

; 339  :     strLastSlash = strrchr( strExePath, TEXT('\\') );

	push	92					; 0000005cH
	lea	eax, DWORD PTR _strExePath$[ebp]
	push	eax
	call	?strrchr@@YAPADPADH@Z			; strrchr
	add	esp, 8
	mov	DWORD PTR _strLastSlash$[ebp], eax

; 340  :     if( strLastSlash )

	cmp	DWORD PTR _strLastSlash$[ebp], 0
	je	SHORT $LN8@DXUTFindDX

; 341  :     {
; 342  :         StringCchCopy( strExeName, MAX_PATH, &strLastSlash[1] );

	mov	eax, 1
	shl	eax, 0
	add	eax, DWORD PTR _strLastSlash$[ebp]
	push	eax
	push	260					; 00000104H
	lea	ecx, DWORD PTR _strExeName$[ebp]
	push	ecx
	call	?StringCchCopyA@@YGJPADIPBD@Z		; StringCchCopyA

; 343  : 
; 344  :         // Chop the exe name from the exe path
; 345  :         *strLastSlash = 0;

	mov	eax, DWORD PTR _strLastSlash$[ebp]
	mov	BYTE PTR [eax], 0

; 346  : 
; 347  :         // Chop the .exe from the exe name
; 348  :         strLastSlash = strrchr( strExeName, TEXT('.') );

	push	46					; 0000002eH
	lea	eax, DWORD PTR _strExeName$[ebp]
	push	eax
	call	?strrchr@@YAPADPADH@Z			; strrchr
	add	esp, 8
	mov	DWORD PTR _strLastSlash$[ebp], eax

; 349  :         if( strLastSlash )

	cmp	DWORD PTR _strLastSlash$[ebp], 0
	je	SHORT $LN8@DXUTFindDX

; 350  :             *strLastSlash = 0;

	mov	eax, DWORD PTR _strLastSlash$[ebp]
	mov	BYTE PTR [eax], 0
$LN8@DXUTFindDX:

; 351  :     }
; 352  : 
; 353  :     // Typical directories:
; 354  :     //      .\
; 355  :     //      ..\
; 356  :     //      ..\..\
; 357  :     //      %EXE_DIR%\
; 358  :     //      %EXE_DIR%\..\
; 359  :     //      %EXE_DIR%\..\..\
; 360  :     //      %EXE_DIR%\..\%EXE_NAME%
; 361  :     //      %EXE_DIR%\..\..\%EXE_NAME%
; 362  : 
; 363  :     // Typical directory search
; 364  :     bFound = DXUTFindMediaSearchTypicalDirs( strDestPath, cchDest, strFilename, strExePath, strExeName );

	lea	eax, DWORD PTR _strExeName$[ebp]
	push	eax
	lea	ecx, DWORD PTR _strExePath$[ebp]
	push	ecx
	mov	edx, DWORD PTR _strFilename$[ebp]
	push	edx
	mov	eax, DWORD PTR _cchDest$[ebp]
	push	eax
	mov	ecx, DWORD PTR _strDestPath$[ebp]
	push	ecx
	call	?DXUTFindMediaSearchTypicalDirs@@YA_NPADHPBD00@Z ; DXUTFindMediaSearchTypicalDirs
	add	esp, 20					; 00000014H
	mov	BYTE PTR _bFound$[ebp], al

; 365  :     if( bFound )

	movzx	eax, BYTE PTR _bFound$[ebp]
	test	eax, eax
	je	SHORT $LN6@DXUTFindDX

; 366  :         return S_OK;

	xor	eax, eax
	jmp	$LN12@DXUTFindDX
$LN6@DXUTFindDX:

; 367  : 
; 368  :     // Typical directory search again, but also look in a subdir called "\media\" 
; 369  :     StringCchPrintf( strSearchFor, MAX_PATH, "media\\%s", strFilename ); 

	mov	eax, DWORD PTR _strFilename$[ebp]
	push	eax
	push	OFFSET ??_C@_08GDMOFFMA@media?2?$CFs?$AA@
	push	260					; 00000104H
	lea	ecx, DWORD PTR _strSearchFor$[ebp]
	push	ecx
	call	?StringCchPrintfA@@YAJPADIPBDZZ		; StringCchPrintfA
	add	esp, 16					; 00000010H

; 370  :     bFound = DXUTFindMediaSearchTypicalDirs( strDestPath, cchDest, strSearchFor, strExePath, strExeName );

	lea	eax, DWORD PTR _strExeName$[ebp]
	push	eax
	lea	ecx, DWORD PTR _strExePath$[ebp]
	push	ecx
	lea	edx, DWORD PTR _strSearchFor$[ebp]
	push	edx
	mov	eax, DWORD PTR _cchDest$[ebp]
	push	eax
	mov	ecx, DWORD PTR _strDestPath$[ebp]
	push	ecx
	call	?DXUTFindMediaSearchTypicalDirs@@YA_NPADHPBD00@Z ; DXUTFindMediaSearchTypicalDirs
	add	esp, 20					; 00000014H
	mov	BYTE PTR _bFound$[ebp], al

; 371  :     if( bFound )

	movzx	eax, BYTE PTR _bFound$[ebp]
	test	eax, eax
	je	SHORT $LN5@DXUTFindDX

; 372  :         return S_OK;

	xor	eax, eax
	jmp	$LN12@DXUTFindDX
$LN5@DXUTFindDX:

; 373  : 
; 374  :     TCHAR strLeafName[MAX_PATH] = {0};

	mov	BYTE PTR _strLeafName$[ebp], 0
	push	259					; 00000103H
	push	0
	lea	eax, DWORD PTR _strLeafName$[ebp+1]
	push	eax
	call	_memset
	add	esp, 12					; 0000000cH

; 375  : 
; 376  :     // Search all parent directories starting at .\ and using strFilename as the leaf name
; 377  :     StringCchCopy( strLeafName, MAX_PATH, strFilename ); 

	mov	eax, DWORD PTR _strFilename$[ebp]
	push	eax
	push	260					; 00000104H
	lea	ecx, DWORD PTR _strLeafName$[ebp]
	push	ecx
	call	?StringCchCopyA@@YGJPADIPBD@Z		; StringCchCopyA

; 378  :     bFound = DXUTFindMediaSearchParentDirs( strDestPath, cchDest, ".", strLeafName );

	lea	eax, DWORD PTR _strLeafName$[ebp]
	push	eax
	push	OFFSET ??_C@_01LFCBOECM@?4?$AA@
	mov	ecx, DWORD PTR _cchDest$[ebp]
	push	ecx
	mov	edx, DWORD PTR _strDestPath$[ebp]
	push	edx
	call	?DXUTFindMediaSearchParentDirs@@YA_NPADH00@Z ; DXUTFindMediaSearchParentDirs
	add	esp, 16					; 00000010H
	mov	BYTE PTR _bFound$[ebp], al

; 379  :     if( bFound )

	movzx	eax, BYTE PTR _bFound$[ebp]
	test	eax, eax
	je	SHORT $LN4@DXUTFindDX

; 380  :         return S_OK;

	xor	eax, eax
	jmp	$LN12@DXUTFindDX
$LN4@DXUTFindDX:

; 381  : 
; 382  :     // Search all parent directories starting at the exe's dir and using strFilename as the leaf name
; 383  :     bFound = DXUTFindMediaSearchParentDirs( strDestPath, cchDest, strExePath, strLeafName );

	lea	eax, DWORD PTR _strLeafName$[ebp]
	push	eax
	lea	ecx, DWORD PTR _strExePath$[ebp]
	push	ecx
	mov	edx, DWORD PTR _cchDest$[ebp]
	push	edx
	mov	eax, DWORD PTR _strDestPath$[ebp]
	push	eax
	call	?DXUTFindMediaSearchParentDirs@@YA_NPADH00@Z ; DXUTFindMediaSearchParentDirs
	add	esp, 16					; 00000010H
	mov	BYTE PTR _bFound$[ebp], al

; 384  :     if( bFound )

	movzx	eax, BYTE PTR _bFound$[ebp]
	test	eax, eax
	je	SHORT $LN3@DXUTFindDX

; 385  :         return S_OK;

	xor	eax, eax
	jmp	$LN12@DXUTFindDX
$LN3@DXUTFindDX:

; 386  : 
; 387  :     // Search all parent directories starting at .\ and using "media\strFilename" as the leaf name
; 388  :     StringCchPrintf( strLeafName, MAX_PATH, "media\\%s", strFilename ); 

	mov	eax, DWORD PTR _strFilename$[ebp]
	push	eax
	push	OFFSET ??_C@_08GDMOFFMA@media?2?$CFs?$AA@
	push	260					; 00000104H
	lea	ecx, DWORD PTR _strLeafName$[ebp]
	push	ecx
	call	?StringCchPrintfA@@YAJPADIPBDZZ		; StringCchPrintfA
	add	esp, 16					; 00000010H

; 389  :     bFound = DXUTFindMediaSearchParentDirs( strDestPath, cchDest, ".", strLeafName );

	lea	eax, DWORD PTR _strLeafName$[ebp]
	push	eax
	push	OFFSET ??_C@_01LFCBOECM@?4?$AA@
	mov	ecx, DWORD PTR _cchDest$[ebp]
	push	ecx
	mov	edx, DWORD PTR _strDestPath$[ebp]
	push	edx
	call	?DXUTFindMediaSearchParentDirs@@YA_NPADH00@Z ; DXUTFindMediaSearchParentDirs
	add	esp, 16					; 00000010H
	mov	BYTE PTR _bFound$[ebp], al

; 390  :     if( bFound )

	movzx	eax, BYTE PTR _bFound$[ebp]
	test	eax, eax
	je	SHORT $LN2@DXUTFindDX

; 391  :         return S_OK;

	xor	eax, eax
	jmp	SHORT $LN12@DXUTFindDX
$LN2@DXUTFindDX:

; 392  : 
; 393  :     // Search all parent directories starting at the exe's dir and using "media\strFilename" as the leaf name
; 394  :     bFound = DXUTFindMediaSearchParentDirs( strDestPath, cchDest, strExePath, strLeafName );

	lea	eax, DWORD PTR _strLeafName$[ebp]
	push	eax
	lea	ecx, DWORD PTR _strExePath$[ebp]
	push	ecx
	mov	edx, DWORD PTR _cchDest$[ebp]
	push	edx
	mov	eax, DWORD PTR _strDestPath$[ebp]
	push	eax
	call	?DXUTFindMediaSearchParentDirs@@YA_NPADH00@Z ; DXUTFindMediaSearchParentDirs
	add	esp, 16					; 00000010H
	mov	BYTE PTR _bFound$[ebp], al

; 395  :     if( bFound )

	movzx	eax, BYTE PTR _bFound$[ebp]
	test	eax, eax
	je	SHORT $LN1@DXUTFindDX

; 396  :         return S_OK;

	xor	eax, eax
	jmp	SHORT $LN12@DXUTFindDX
$LN1@DXUTFindDX:

; 397  : 
; 398  :     // On failure, return the file as the path but also return an error code
; 399  :     StringCchCopy( strDestPath, cchDest, strFilename );

	mov	eax, DWORD PTR _strFilename$[ebp]
	push	eax
	mov	ecx, DWORD PTR _cchDest$[ebp]
	push	ecx
	mov	edx, DWORD PTR _strDestPath$[ebp]
	push	edx
	call	?StringCchCopyA@@YGJPADIPBD@Z		; StringCchCopyA

; 400  : 
; 401  :     return DXUTERR_MEDIANOTFOUND;

	mov	eax, -2147219197			; 80040903H
$LN12@DXUTFindDX:

; 402  : }

	push	edx
	mov	ecx, ebp
	push	eax
	lea	edx, DWORD PTR $LN20@DXUTFindDX
	call	@_RTC_CheckStackVars@8
	pop	eax
	pop	edx
	pop	edi
	pop	esi
	pop	ebx
	mov	ecx, DWORD PTR __$ArrayPad$[ebp]
	xor	ecx, ebp
	call	@__security_check_cookie@4
	add	esp, 1304				; 00000518H
	cmp	ebp, esp
	call	__RTC_CheckEsp
	mov	esp, ebp
	pop	ebp
	ret	0
	npad	2
$LN20@DXUTFindDX:
	DD	4
	DD	$LN19@DXUTFindDX
$LN19@DXUTFindDX:
	DD	-280					; fffffee8H
	DD	260					; 00000104H
	DD	$LN15@DXUTFindDX
	DD	-548					; fffffddcH
	DD	260					; 00000104H
	DD	$LN16@DXUTFindDX
	DD	-816					; fffffcd0H
	DD	260					; 00000104H
	DD	$LN17@DXUTFindDX
	DD	-1096					; fffffbb8H
	DD	260					; 00000104H
	DD	$LN18@DXUTFindDX
$LN18@DXUTFindDX:
	DB	115					; 00000073H
	DB	116					; 00000074H
	DB	114					; 00000072H
	DB	76					; 0000004cH
	DB	101					; 00000065H
	DB	97					; 00000061H
	DB	102					; 00000066H
	DB	78					; 0000004eH
	DB	97					; 00000061H
	DB	109					; 0000006dH
	DB	101					; 00000065H
	DB	0
$LN17@DXUTFindDX:
	DB	115					; 00000073H
	DB	116					; 00000074H
	DB	114					; 00000072H
	DB	69					; 00000045H
	DB	120					; 00000078H
	DB	101					; 00000065H
	DB	78					; 0000004eH
	DB	97					; 00000061H
	DB	109					; 0000006dH
	DB	101					; 00000065H
	DB	0
$LN16@DXUTFindDX:
	DB	115					; 00000073H
	DB	116					; 00000074H
	DB	114					; 00000072H
	DB	69					; 00000045H
	DB	120					; 00000078H
	DB	101					; 00000065H
	DB	80					; 00000050H
	DB	97					; 00000061H
	DB	116					; 00000074H
	DB	104					; 00000068H
	DB	0
$LN15@DXUTFindDX:
	DB	115					; 00000073H
	DB	116					; 00000074H
	DB	114					; 00000072H
	DB	83					; 00000053H
	DB	101					; 00000065H
	DB	97					; 00000061H
	DB	114					; 00000072H
	DB	99					; 00000063H
	DB	104					; 00000068H
	DB	70					; 00000046H
	DB	111					; 0000006fH
	DB	114					; 00000072H
	DB	0
?DXUTFindDXSDKMediaFileCch@@YAJPADHPBD@Z ENDP		; DXUTFindDXSDKMediaFileCch
_TEXT	ENDS
; Function compile flags: /Odtp /RTCsu /ZI
; File z:\sampsrc\02xu1\saco\d3d9\common\dxutmisc.cpp
;	COMDAT ?DXUTDisplaySwitchingToREFWarning@@YAXXZ
_TEXT	SEGMENT
_nResult$1 = -260					; size = 4
_dtp$2 = -248						; size = 180
_dwSize$3 = -60						; size = 4
_dwType$4 = -48						; size = 4
_lResult$5 = -36					; size = 4
_hKey$6 = -24						; size = 4
_dwSkipWarning$7 = -12					; size = 4
__$ArrayPad$ = -4					; size = 4
?DXUTDisplaySwitchingToREFWarning@@YAXXZ PROC		; DXUTDisplaySwitchingToREFWarning, COMDAT

; 41   : {

	push	ebp
	mov	ebp, esp
	sub	esp, 456				; 000001c8H
	push	ebx
	push	esi
	push	edi
	lea	edi, DWORD PTR [ebp-456]
	mov	ecx, 114				; 00000072H
	mov	eax, -858993460				; ccccccccH
	rep stosd
	mov	eax, DWORD PTR ___security_cookie
	xor	eax, ebp
	mov	DWORD PTR __$ArrayPad$[ebp], eax

; 42   :     if( DXUTGetShowMsgBoxOnError() )

	call	?DXUTGetShowMsgBoxOnError@@YA_NXZ	; DXUTGetShowMsgBoxOnError
	movzx	eax, al
	test	eax, eax
	je	$LN7@DXUTDispla

; 43   :     {
; 44   :         // Open the appropriate registry key
; 45   :         DWORD dwSkipWarning = 0;

	mov	DWORD PTR _dwSkipWarning$7[ebp], 0

; 46   :         HKEY hKey;
; 47   :         LONG lResult = RegOpenKeyEx( HKEY_CURRENT_USER, "Software\\Microsoft\\DirectX 9.0 SDK", 0, KEY_READ, &hKey );

	mov	esi, esp
	lea	eax, DWORD PTR _hKey$6[ebp]
	push	eax
	push	131097					; 00020019H
	push	0
	push	OFFSET ??_C@_0CD@JNJEACIN@Software?2Microsoft?2DirectX?59?40?5S@
	push	-2147483647				; 80000001H
	call	DWORD PTR __imp__RegOpenKeyExA@20
	cmp	esi, esp
	call	__RTC_CheckEsp
	mov	DWORD PTR _lResult$5[ebp], eax

; 48   :         if( ERROR_SUCCESS == lResult ) 

	cmp	DWORD PTR _lResult$5[ebp], 0
	jne	SHORT $LN5@DXUTDispla

; 49   :         {
; 50   :             DWORD dwType;
; 51   :             DWORD dwSize = sizeof(DWORD);

	mov	DWORD PTR _dwSize$3[ebp], 4

; 52   :             lResult = RegQueryValueEx( hKey, "Skip Warning On REF", NULL, &dwType, (BYTE*)&dwSkipWarning, &dwSize );

	mov	esi, esp
	lea	eax, DWORD PTR _dwSize$3[ebp]
	push	eax
	lea	ecx, DWORD PTR _dwSkipWarning$7[ebp]
	push	ecx
	lea	edx, DWORD PTR _dwType$4[ebp]
	push	edx
	push	0
	push	OFFSET ??_C@_0BE@ONMNIDPM@Skip?5Warning?5On?5REF?$AA@
	mov	eax, DWORD PTR _hKey$6[ebp]
	push	eax
	call	DWORD PTR __imp__RegQueryValueExA@24
	cmp	esi, esp
	call	__RTC_CheckEsp
	mov	DWORD PTR _lResult$5[ebp], eax

; 53   :             RegCloseKey( hKey );

	mov	esi, esp
	mov	eax, DWORD PTR _hKey$6[ebp]
	push	eax
	call	DWORD PTR __imp__RegCloseKey@4
	cmp	esi, esp
	call	__RTC_CheckEsp
$LN5@DXUTDispla:

; 54   :         }
; 55   : 
; 56   :         if( dwSkipWarning == 0 )

	cmp	DWORD PTR _dwSkipWarning$7[ebp], 0
	jne	$LN7@DXUTDispla

; 57   :         {
; 58   :             // Compact code to create a custom dialog box without using a template in a resource file.
; 59   :             // If this dialog were in a .rc file, this would be a lot simpler but every sample calling this function would
; 60   :             // need a copy of the dialog in its own .rc file. Also MessageBox API could be used here instead, but 
; 61   :             // the MessageBox API is simpler to call but it can't provide a "Don't show again" checkbox
; 62   :             typedef struct { DLGITEMTEMPLATE a; WORD b; WORD c; WORD d; WORD e; WORD f; } DXUT_DLG_ITEM; 
; 63   :             typedef struct { DLGTEMPLATE a; WORD b; WORD c; TCHAR d[2]; WORD e; TCHAR f[14]; DXUT_DLG_ITEM i1; DXUT_DLG_ITEM i2; DXUT_DLG_ITEM i3; DXUT_DLG_ITEM i4; DXUT_DLG_ITEM i5; } DXUT_DLG_DATA; 
; 64   : 
; 65   :             DXUT_DLG_DATA dtp = 
; 66   :             {                                                                                                                                                  
; 67   :                 {WS_CAPTION|WS_POPUP|WS_VISIBLE|WS_SYSMENU|DS_ABSALIGN|DS_3DLOOK|DS_SETFONT|DS_MODALFRAME|DS_CENTER,0,5,0,0,269,82},0,0," ",8,"MS Sans Serif", 
; 68   :                 {{WS_CHILD|WS_VISIBLE|SS_ICON|SS_CENTERIMAGE,0,7,7,24,24,0x100},0xFFFF,0x0082,0,0,0}, // icon
; 69   :                 {{WS_CHILD|WS_VISIBLE,0,40,7,230,25,0x101},0xFFFF,0x0082,0,0,0}, // static text
; 70   :                 {{WS_CHILD|WS_VISIBLE|BS_DEFPUSHBUTTON,0,80,39,50,14,IDYES},0xFFFF,0x0080,0,0,0}, // Yes button
; 71   :                 {{WS_CHILD|WS_VISIBLE,0,133,39,50,14,IDNO},0xFFFF,0x0080,0,0,0}, // No button
; 72   :                 {{WS_CHILD|WS_VISIBLE|BS_CHECKBOX,0,7,59,70,16,IDIGNORE},0xFFFF,0x0080,0,0,0}, // checkbox
; 73   :             }; 

	mov	DWORD PTR _dtp$2[ebp], -1865938747	; 90c808c5H
	mov	DWORD PTR _dtp$2[ebp+4], 0
	mov	eax, 5
	mov	WORD PTR _dtp$2[ebp+8], ax
	xor	eax, eax
	mov	WORD PTR _dtp$2[ebp+10], ax
	xor	eax, eax
	mov	WORD PTR _dtp$2[ebp+12], ax
	mov	eax, 269				; 0000010dH
	mov	WORD PTR _dtp$2[ebp+14], ax
	mov	eax, 82					; 00000052H
	mov	WORD PTR _dtp$2[ebp+16], ax
	xor	eax, eax
	mov	WORD PTR _dtp$2[ebp+18], ax
	xor	eax, eax
	mov	WORD PTR _dtp$2[ebp+20], ax
	mov	ax, WORD PTR ??_C@_01CLKCMJKC@?5?$AA@
	mov	WORD PTR _dtp$2[ebp+22], ax
	mov	eax, 8
	mov	WORD PTR _dtp$2[ebp+24], ax
	mov	eax, DWORD PTR ??_C@_0O@LMJDHGJK@MS?5Sans?5Serif?$AA@
	mov	DWORD PTR _dtp$2[ebp+26], eax
	mov	ecx, DWORD PTR ??_C@_0O@LMJDHGJK@MS?5Sans?5Serif?$AA@+4
	mov	DWORD PTR _dtp$2[ebp+30], ecx
	mov	edx, DWORD PTR ??_C@_0O@LMJDHGJK@MS?5Sans?5Serif?$AA@+8
	mov	DWORD PTR _dtp$2[ebp+34], edx
	mov	ax, WORD PTR ??_C@_0O@LMJDHGJK@MS?5Sans?5Serif?$AA@+12
	mov	WORD PTR _dtp$2[ebp+38], ax
	mov	DWORD PTR _dtp$2[ebp+40], 1342177795	; 50000203H
	mov	DWORD PTR _dtp$2[ebp+44], 0
	mov	eax, 7
	mov	WORD PTR _dtp$2[ebp+48], ax
	mov	eax, 7
	mov	WORD PTR _dtp$2[ebp+50], ax
	mov	eax, 24					; 00000018H
	mov	WORD PTR _dtp$2[ebp+52], ax
	mov	eax, 24					; 00000018H
	mov	WORD PTR _dtp$2[ebp+54], ax
	mov	eax, 256				; 00000100H
	mov	WORD PTR _dtp$2[ebp+56], ax
	mov	eax, 65535				; 0000ffffH
	mov	WORD PTR _dtp$2[ebp+58], ax
	mov	eax, 130				; 00000082H
	mov	WORD PTR _dtp$2[ebp+60], ax
	xor	eax, eax
	mov	WORD PTR _dtp$2[ebp+62], ax
	xor	eax, eax
	mov	WORD PTR _dtp$2[ebp+64], ax
	xor	eax, eax
	mov	WORD PTR _dtp$2[ebp+66], ax
	mov	DWORD PTR _dtp$2[ebp+68], 1342177280	; 50000000H
	mov	DWORD PTR _dtp$2[ebp+72], 0
	mov	eax, 40					; 00000028H
	mov	WORD PTR _dtp$2[ebp+76], ax
	mov	eax, 7
	mov	WORD PTR _dtp$2[ebp+78], ax
	mov	eax, 230				; 000000e6H
	mov	WORD PTR _dtp$2[ebp+80], ax
	mov	eax, 25					; 00000019H
	mov	WORD PTR _dtp$2[ebp+82], ax
	mov	eax, 257				; 00000101H
	mov	WORD PTR _dtp$2[ebp+84], ax
	mov	eax, 65535				; 0000ffffH
	mov	WORD PTR _dtp$2[ebp+86], ax
	mov	eax, 130				; 00000082H
	mov	WORD PTR _dtp$2[ebp+88], ax
	xor	eax, eax
	mov	WORD PTR _dtp$2[ebp+90], ax
	xor	eax, eax
	mov	WORD PTR _dtp$2[ebp+92], ax
	xor	eax, eax
	mov	WORD PTR _dtp$2[ebp+94], ax
	mov	DWORD PTR _dtp$2[ebp+96], 1342177281	; 50000001H
	mov	DWORD PTR _dtp$2[ebp+100], 0
	mov	eax, 80					; 00000050H
	mov	WORD PTR _dtp$2[ebp+104], ax
	mov	eax, 39					; 00000027H
	mov	WORD PTR _dtp$2[ebp+106], ax
	mov	eax, 50					; 00000032H
	mov	WORD PTR _dtp$2[ebp+108], ax
	mov	eax, 14					; 0000000eH
	mov	WORD PTR _dtp$2[ebp+110], ax
	mov	eax, 6
	mov	WORD PTR _dtp$2[ebp+112], ax
	mov	eax, 65535				; 0000ffffH
	mov	WORD PTR _dtp$2[ebp+114], ax
	mov	eax, 128				; 00000080H
	mov	WORD PTR _dtp$2[ebp+116], ax
	xor	eax, eax
	mov	WORD PTR _dtp$2[ebp+118], ax
	xor	eax, eax
	mov	WORD PTR _dtp$2[ebp+120], ax
	xor	eax, eax
	mov	WORD PTR _dtp$2[ebp+122], ax
	mov	DWORD PTR _dtp$2[ebp+124], 1342177280	; 50000000H
	mov	DWORD PTR _dtp$2[ebp+128], 0
	mov	eax, 133				; 00000085H
	mov	WORD PTR _dtp$2[ebp+132], ax
	mov	eax, 39					; 00000027H
	mov	WORD PTR _dtp$2[ebp+134], ax
	mov	eax, 50					; 00000032H
	mov	WORD PTR _dtp$2[ebp+136], ax
	mov	eax, 14					; 0000000eH
	mov	WORD PTR _dtp$2[ebp+138], ax
	mov	eax, 7
	mov	WORD PTR _dtp$2[ebp+140], ax
	mov	eax, 65535				; 0000ffffH
	mov	WORD PTR _dtp$2[ebp+142], ax
	mov	eax, 128				; 00000080H
	mov	WORD PTR _dtp$2[ebp+144], ax
	xor	eax, eax
	mov	WORD PTR _dtp$2[ebp+146], ax
	xor	eax, eax
	mov	WORD PTR _dtp$2[ebp+148], ax
	xor	eax, eax
	mov	WORD PTR _dtp$2[ebp+150], ax
	mov	DWORD PTR _dtp$2[ebp+152], 1342177282	; 50000002H
	mov	DWORD PTR _dtp$2[ebp+156], 0
	mov	eax, 7
	mov	WORD PTR _dtp$2[ebp+160], ax
	mov	eax, 59					; 0000003bH
	mov	WORD PTR _dtp$2[ebp+162], ax
	mov	eax, 70					; 00000046H
	mov	WORD PTR _dtp$2[ebp+164], ax
	mov	eax, 16					; 00000010H
	mov	WORD PTR _dtp$2[ebp+166], ax
	mov	eax, 5
	mov	WORD PTR _dtp$2[ebp+168], ax
	mov	eax, 65535				; 0000ffffH
	mov	WORD PTR _dtp$2[ebp+170], ax
	mov	eax, 128				; 00000080H
	mov	WORD PTR _dtp$2[ebp+172], ax
	xor	eax, eax
	mov	WORD PTR _dtp$2[ebp+174], ax
	xor	eax, eax
	mov	WORD PTR _dtp$2[ebp+176], ax
	xor	eax, eax
	mov	WORD PTR _dtp$2[ebp+178], ax

; 74   : 
; 75   :             int nResult = (int) DialogBoxIndirect( DXUTGetHINSTANCE(), (DLGTEMPLATE*)&dtp, DXUTGetHWND(), DisplaySwitchToREFWarningProc ); 

	mov	esi, esp
	push	0
	push	OFFSET ?DisplaySwitchToREFWarningProc@@YGHPAUHWND__@@IIJ@Z ; DisplaySwitchToREFWarningProc
	call	?DXUTGetHWND@@YAPAUHWND__@@XZ		; DXUTGetHWND
	push	eax
	lea	eax, DWORD PTR _dtp$2[ebp]
	push	eax
	call	?DXUTGetHINSTANCE@@YAPAUHINSTANCE__@@XZ	; DXUTGetHINSTANCE
	push	eax
	call	DWORD PTR __imp__DialogBoxIndirectParamA@20
	cmp	esi, esp
	call	__RTC_CheckEsp
	mov	DWORD PTR _nResult$1[ebp], eax

; 76   : 
; 77   :             if( (nResult & 0x80) == 0x80 ) // "Don't show again" checkbox was checked

	mov	eax, DWORD PTR _nResult$1[ebp]
	and	eax, 128				; 00000080H
	je	SHORT $LN3@DXUTDispla

; 78   :             {
; 79   :                 lResult = RegOpenKeyEx( HKEY_CURRENT_USER, "Software\\Microsoft\\DirectX 9.0 SDK", 0, KEY_WRITE, &hKey );

	mov	esi, esp
	lea	eax, DWORD PTR _hKey$6[ebp]
	push	eax
	push	131078					; 00020006H
	push	0
	push	OFFSET ??_C@_0CD@JNJEACIN@Software?2Microsoft?2DirectX?59?40?5S@
	push	-2147483647				; 80000001H
	call	DWORD PTR __imp__RegOpenKeyExA@20
	cmp	esi, esp
	call	__RTC_CheckEsp
	mov	DWORD PTR _lResult$5[ebp], eax

; 80   :                 if( ERROR_SUCCESS == lResult ) 

	cmp	DWORD PTR _lResult$5[ebp], 0
	jne	SHORT $LN3@DXUTDispla

; 81   :                 {
; 82   :                     dwSkipWarning = 1;

	mov	DWORD PTR _dwSkipWarning$7[ebp], 1

; 83   :                     RegSetValueEx( hKey, "Skip Warning On REF", 0, REG_DWORD, (BYTE*)&dwSkipWarning, sizeof(DWORD) );

	mov	esi, esp
	push	4
	lea	eax, DWORD PTR _dwSkipWarning$7[ebp]
	push	eax
	push	4
	push	0
	push	OFFSET ??_C@_0BE@ONMNIDPM@Skip?5Warning?5On?5REF?$AA@
	mov	ecx, DWORD PTR _hKey$6[ebp]
	push	ecx
	call	DWORD PTR __imp__RegSetValueExA@24
	cmp	esi, esp
	call	__RTC_CheckEsp

; 84   :                     RegCloseKey( hKey );

	mov	esi, esp
	mov	eax, DWORD PTR _hKey$6[ebp]
	push	eax
	call	DWORD PTR __imp__RegCloseKey@4
	cmp	esi, esp
	call	__RTC_CheckEsp
$LN3@DXUTDispla:

; 85   :                 }
; 86   :             }
; 87   : 
; 88   :             // User choose not to continue
; 89   :             if( (nResult & 0x0F) == IDNO )

	mov	eax, DWORD PTR _nResult$1[ebp]
	and	eax, 15					; 0000000fH
	cmp	eax, 7
	jne	SHORT $LN7@DXUTDispla

; 90   :                 DXUTShutdown(1);

	push	1
	call	?DXUTShutdown@@YAXH@Z			; DXUTShutdown
	add	esp, 4
$LN7@DXUTDispla:

; 91   :         }
; 92   :     }
; 93   : }

	push	edx
	mov	ecx, ebp
	push	eax
	lea	edx, DWORD PTR $LN15@DXUTDispla
	call	@_RTC_CheckStackVars@8
	pop	eax
	pop	edx
	pop	edi
	pop	esi
	pop	ebx
	mov	ecx, DWORD PTR __$ArrayPad$[ebp]
	xor	ecx, ebp
	call	@__security_check_cookie@4
	add	esp, 456				; 000001c8H
	cmp	ebp, esp
	call	__RTC_CheckEsp
	mov	esp, ebp
	pop	ebp
	ret	0
	npad	1
$LN15@DXUTDispla:
	DD	5
	DD	$LN14@DXUTDispla
$LN14@DXUTDispla:
	DD	-12					; fffffff4H
	DD	4
	DD	$LN9@DXUTDispla
	DD	-24					; ffffffe8H
	DD	4
	DD	$LN10@DXUTDispla
	DD	-48					; ffffffd0H
	DD	4
	DD	$LN11@DXUTDispla
	DD	-60					; ffffffc4H
	DD	4
	DD	$LN12@DXUTDispla
	DD	-248					; ffffff08H
	DD	180					; 000000b4H
	DD	$LN13@DXUTDispla
$LN13@DXUTDispla:
	DB	100					; 00000064H
	DB	116					; 00000074H
	DB	112					; 00000070H
	DB	0
$LN12@DXUTDispla:
	DB	100					; 00000064H
	DB	119					; 00000077H
	DB	83					; 00000053H
	DB	105					; 00000069H
	DB	122					; 0000007aH
	DB	101					; 00000065H
	DB	0
$LN11@DXUTDispla:
	DB	100					; 00000064H
	DB	119					; 00000077H
	DB	84					; 00000054H
	DB	121					; 00000079H
	DB	112					; 00000070H
	DB	101					; 00000065H
	DB	0
$LN10@DXUTDispla:
	DB	104					; 00000068H
	DB	75					; 0000004bH
	DB	101					; 00000065H
	DB	121					; 00000079H
	DB	0
$LN9@DXUTDispla:
	DB	100					; 00000064H
	DB	119					; 00000077H
	DB	83					; 00000053H
	DB	107					; 0000006bH
	DB	105					; 00000069H
	DB	112					; 00000070H
	DB	87					; 00000057H
	DB	97					; 00000061H
	DB	114					; 00000072H
	DB	110					; 0000006eH
	DB	105					; 00000069H
	DB	110					; 0000006eH
	DB	103					; 00000067H
	DB	0
?DXUTDisplaySwitchingToREFWarning@@YAXXZ ENDP		; DXUTDisplaySwitchingToREFWarning
_TEXT	ENDS
; Function compile flags: /Odtp /RTCsu /ZI
; File z:\sampsrc\02xu1\saco\d3d9\common\dxutmisc.cpp
;	COMDAT ?UpdateLightDir@CDXUTDirectionWidget@@IAEJXZ
_TEXT	SEGMENT
$T1 = -672						; size = 64
$T2 = -600						; size = 64
$T3 = -528						; size = 64
_pZBasis$ = -264					; size = 4
_pYBasis$ = -252					; size = 4
_pXBasis$ = -240					; size = 4
_mRot$ = -228						; size = 64
_mLastRotInv$ = -156					; size = 64
_mInvView$ = -84					; size = 64
_this$ = -12						; size = 4
__$ArrayPad$ = -4					; size = 4
?UpdateLightDir@CDXUTDirectionWidget@@IAEJXZ PROC	; CDXUTDirectionWidget::UpdateLightDir, COMDAT
; _this$ = ecx

; 2696 : {

	push	ebp
	mov	ebp, esp
	sub	esp, 676				; 000002a4H
	push	ebx
	push	esi
	push	edi
	push	ecx
	lea	edi, DWORD PTR [ebp-676]
	mov	ecx, 169				; 000000a9H
	mov	eax, -858993460				; ccccccccH
	rep stosd
	pop	ecx
	mov	eax, DWORD PTR ___security_cookie
	xor	eax, ebp
	mov	DWORD PTR __$ArrayPad$[ebp], eax
	mov	DWORD PTR _this$[ebp], ecx

; 2697 :     D3DXMATRIX mInvView;

	lea	ecx, DWORD PTR _mInvView$[ebp]
	call	??0D3DXMATRIX@@QAE@XZ			; D3DXMATRIX::D3DXMATRIX

; 2698 :     D3DXMatrixInverse(&mInvView, NULL, &m_mView);

	mov	eax, DWORD PTR _this$[ebp]
	add	eax, 472				; 000001d8H
	push	eax
	push	0
	lea	ecx, DWORD PTR _mInvView$[ebp]
	push	ecx
	call	_D3DXMatrixInverse@12

; 2699 :     mInvView._41 = mInvView._42 = mInvView._43 = 0;

	movss	xmm0, DWORD PTR __real@00000000
	movss	DWORD PTR _mInvView$[ebp+56], xmm0
	movss	xmm0, DWORD PTR _mInvView$[ebp+56]
	movss	DWORD PTR _mInvView$[ebp+52], xmm0
	movss	xmm0, DWORD PTR _mInvView$[ebp+52]
	movss	DWORD PTR _mInvView$[ebp+48], xmm0

; 2700 : 
; 2701 :     D3DXMATRIX mLastRotInv;

	lea	ecx, DWORD PTR _mLastRotInv$[ebp]
	call	??0D3DXMATRIX@@QAE@XZ			; D3DXMATRIX::D3DXMATRIX

; 2702 :     D3DXMatrixInverse(&mLastRotInv, NULL, &m_mRotSnapshot);

	mov	eax, DWORD PTR _this$[ebp]
	add	eax, 64					; 00000040H
	push	eax
	push	0
	lea	ecx, DWORD PTR _mLastRotInv$[ebp]
	push	ecx
	call	_D3DXMatrixInverse@12

; 2703 : 
; 2704 :     D3DXMATRIX mRot = *m_ArcBall.GetRotationMatrix();

	mov	ecx, DWORD PTR _this$[ebp]
	add	ecx, 144				; 00000090H
	call	?GetRotationMatrix@CD3DArcBall@@QAEPBUD3DXMATRIX@@XZ ; CD3DArcBall::GetRotationMatrix
	mov	ecx, 16					; 00000010H
	mov	esi, eax
	lea	edi, DWORD PTR _mRot$[ebp]
	rep movsd

; 2705 :     m_mRotSnapshot = mRot;

	lea	eax, DWORD PTR _mRot$[ebp]
	push	eax
	mov	ecx, DWORD PTR _this$[ebp]
	add	ecx, 64					; 00000040H
	call	??4_D3DXMATRIXA16@@QAEAAU0@ABUD3DXMATRIX@@@Z ; _D3DXMATRIXA16::operator=

; 2706 : 
; 2707 :     // Accumulate the delta of the arcball's rotation in view space.
; 2708 :     // Note that per-frame delta rotations could be problematic over long periods of time.
; 2709 :     m_mRot *= m_mView * mLastRotInv * mRot * mInvView;

	lea	eax, DWORD PTR _mInvView$[ebp]
	push	eax
	lea	ecx, DWORD PTR $T3[ebp]
	push	ecx
	lea	edx, DWORD PTR _mRot$[ebp]
	push	edx
	lea	eax, DWORD PTR $T2[ebp]
	push	eax
	lea	ecx, DWORD PTR _mLastRotInv$[ebp]
	push	ecx
	lea	edx, DWORD PTR $T1[ebp]
	push	edx
	mov	ecx, DWORD PTR _this$[ebp]
	add	ecx, 472				; 000001d8H
	call	??DD3DXMATRIX@@QBE?AU0@ABU0@@Z		; D3DXMATRIX::operator*
	mov	ecx, eax
	call	??DD3DXMATRIX@@QBE?AU0@ABU0@@Z		; D3DXMATRIX::operator*
	mov	ecx, eax
	call	??DD3DXMATRIX@@QBE?AU0@ABU0@@Z		; D3DXMATRIX::operator*
	push	eax
	mov	ecx, DWORD PTR _this$[ebp]
	call	??XD3DXMATRIX@@QAEAAU0@ABU0@@Z		; D3DXMATRIX::operator*=

; 2710 : 
; 2711 :     // Since we're accumulating delta rotations, we need to orthonormalize 
; 2712 :     // the matrix to prevent eventual matrix skew
; 2713 :     D3DXVECTOR3* pXBasis = (D3DXVECTOR3*) &m_mRot._11;

	mov	eax, DWORD PTR _this$[ebp]
	mov	DWORD PTR _pXBasis$[ebp], eax

; 2714 :     D3DXVECTOR3* pYBasis = (D3DXVECTOR3*) &m_mRot._21;

	mov	eax, DWORD PTR _this$[ebp]
	add	eax, 16					; 00000010H
	mov	DWORD PTR _pYBasis$[ebp], eax

; 2715 :     D3DXVECTOR3* pZBasis = (D3DXVECTOR3*) &m_mRot._31;

	mov	eax, DWORD PTR _this$[ebp]
	add	eax, 32					; 00000020H
	mov	DWORD PTR _pZBasis$[ebp], eax

; 2716 :     D3DXVec3Normalize( pXBasis, pXBasis );

	mov	eax, DWORD PTR _pXBasis$[ebp]
	push	eax
	mov	ecx, DWORD PTR _pXBasis$[ebp]
	push	ecx
	call	_D3DXVec3Normalize@8

; 2717 :     D3DXVec3Cross( pYBasis, pZBasis, pXBasis );

	mov	eax, DWORD PTR _pXBasis$[ebp]
	push	eax
	mov	ecx, DWORD PTR _pZBasis$[ebp]
	push	ecx
	mov	edx, DWORD PTR _pYBasis$[ebp]
	push	edx
	call	?D3DXVec3Cross@@YAPAUD3DXVECTOR3@@PAU1@PBU1@1@Z ; D3DXVec3Cross
	add	esp, 12					; 0000000cH

; 2718 :     D3DXVec3Normalize( pYBasis, pYBasis );

	mov	eax, DWORD PTR _pYBasis$[ebp]
	push	eax
	mov	ecx, DWORD PTR _pYBasis$[ebp]
	push	ecx
	call	_D3DXVec3Normalize@8

; 2719 :     D3DXVec3Cross( pZBasis, pXBasis, pYBasis );

	mov	eax, DWORD PTR _pYBasis$[ebp]
	push	eax
	mov	ecx, DWORD PTR _pXBasis$[ebp]
	push	ecx
	mov	edx, DWORD PTR _pZBasis$[ebp]
	push	edx
	call	?D3DXVec3Cross@@YAPAUD3DXVECTOR3@@PAU1@PBU1@1@Z ; D3DXVec3Cross
	add	esp, 12					; 0000000cH

; 2720 : 
; 2721 :     // Transform the default direction vector by the light's rotation matrix
; 2722 :     D3DXVec3TransformNormal( &m_vCurrentDir, &m_vDefaultDir, &m_mRot );

	mov	eax, DWORD PTR _this$[ebp]
	push	eax
	mov	ecx, DWORD PTR _this$[ebp]
	add	ecx, 448				; 000001c0H
	push	ecx
	mov	edx, DWORD PTR _this$[ebp]
	add	edx, 460				; 000001ccH
	push	edx
	call	_D3DXVec3TransformNormal@12

; 2723 : 
; 2724 :     return S_OK;

	xor	eax, eax

; 2725 : }

	push	edx
	mov	ecx, ebp
	push	eax
	lea	edx, DWORD PTR $LN7@UpdateLigh
	call	@_RTC_CheckStackVars@8
	pop	eax
	pop	edx
	pop	edi
	pop	esi
	pop	ebx
	mov	ecx, DWORD PTR __$ArrayPad$[ebp]
	xor	ecx, ebp
	call	@__security_check_cookie@4
	add	esp, 676				; 000002a4H
	cmp	ebp, esp
	call	__RTC_CheckEsp
	mov	esp, ebp
	pop	ebp
	ret	0
$LN7@UpdateLigh:
	DD	3
	DD	$LN6@UpdateLigh
$LN6@UpdateLigh:
	DD	-84					; ffffffacH
	DD	64					; 00000040H
	DD	$LN3@UpdateLigh
	DD	-156					; ffffff64H
	DD	64					; 00000040H
	DD	$LN4@UpdateLigh
	DD	-228					; ffffff1cH
	DD	64					; 00000040H
	DD	$LN5@UpdateLigh
$LN5@UpdateLigh:
	DB	109					; 0000006dH
	DB	82					; 00000052H
	DB	111					; 0000006fH
	DB	116					; 00000074H
	DB	0
$LN4@UpdateLigh:
	DB	109					; 0000006dH
	DB	76					; 0000004cH
	DB	97					; 00000061H
	DB	115					; 00000073H
	DB	116					; 00000074H
	DB	82					; 00000052H
	DB	111					; 0000006fH
	DB	116					; 00000074H
	DB	73					; 00000049H
	DB	110					; 0000006eH
	DB	118					; 00000076H
	DB	0
$LN3@UpdateLigh:
	DB	109					; 0000006dH
	DB	73					; 00000049H
	DB	110					; 0000006eH
	DB	118					; 00000076H
	DB	86					; 00000056H
	DB	105					; 00000069H
	DB	101					; 00000065H
	DB	119					; 00000077H
	DB	0
?UpdateLightDir@CDXUTDirectionWidget@@IAEJXZ ENDP	; CDXUTDirectionWidget::UpdateLightDir
_TEXT	ENDS
; Function compile flags: /Odtp /RTCsu /ZI
; File z:\sampsrc\02xu1\saco\d3d9\common\dxutmisc.cpp
;	COMDAT ?StaticOnDestroyDevice@CDXUTDirectionWidget@@SAXXZ
_TEXT	SEGMENT
?StaticOnDestroyDevice@CDXUTDirectionWidget@@SAXXZ PROC	; CDXUTDirectionWidget::StaticOnDestroyDevice, COMDAT

; 2577 : {

	push	ebp
	mov	ebp, esp
	sub	esp, 192				; 000000c0H
	push	ebx
	push	esi
	push	edi
	lea	edi, DWORD PTR [ebp-192]
	mov	ecx, 48					; 00000030H
	mov	eax, -858993460				; ccccccccH
	rep stosd

; 2578 :     SAFE_RELEASE(s_pEffect);

	cmp	DWORD PTR ?s_pEffect@CDXUTDirectionWidget@@1PAUID3DXEffect@@A, 0 ; CDXUTDirectionWidget::s_pEffect
	je	SHORT $LN2@StaticOnDe
	mov	eax, DWORD PTR ?s_pEffect@CDXUTDirectionWidget@@1PAUID3DXEffect@@A ; CDXUTDirectionWidget::s_pEffect
	mov	ecx, DWORD PTR [eax]
	mov	esi, esp
	mov	edx, DWORD PTR ?s_pEffect@CDXUTDirectionWidget@@1PAUID3DXEffect@@A ; CDXUTDirectionWidget::s_pEffect
	push	edx
	mov	eax, DWORD PTR [ecx+8]
	call	eax
	cmp	esi, esp
	call	__RTC_CheckEsp
	mov	DWORD PTR ?s_pEffect@CDXUTDirectionWidget@@1PAUID3DXEffect@@A, 0 ; CDXUTDirectionWidget::s_pEffect
$LN2@StaticOnDe:

; 2579 :     SAFE_RELEASE(s_pMesh);

	cmp	DWORD PTR ?s_pMesh@CDXUTDirectionWidget@@1PAUID3DXMesh@@A, 0 ; CDXUTDirectionWidget::s_pMesh
	je	SHORT $LN3@StaticOnDe
	mov	eax, DWORD PTR ?s_pMesh@CDXUTDirectionWidget@@1PAUID3DXMesh@@A ; CDXUTDirectionWidget::s_pMesh
	mov	ecx, DWORD PTR [eax]
	mov	esi, esp
	mov	edx, DWORD PTR ?s_pMesh@CDXUTDirectionWidget@@1PAUID3DXMesh@@A ; CDXUTDirectionWidget::s_pMesh
	push	edx
	mov	eax, DWORD PTR [ecx+8]
	call	eax
	cmp	esi, esp
	call	__RTC_CheckEsp
	mov	DWORD PTR ?s_pMesh@CDXUTDirectionWidget@@1PAUID3DXMesh@@A, 0 ; CDXUTDirectionWidget::s_pMesh
$LN3@StaticOnDe:

; 2580 : }    

	pop	edi
	pop	esi
	pop	ebx
	add	esp, 192				; 000000c0H
	cmp	ebp, esp
	call	__RTC_CheckEsp
	mov	esp, ebp
	pop	ebp
	ret	0
?StaticOnDestroyDevice@CDXUTDirectionWidget@@SAXXZ ENDP	; CDXUTDirectionWidget::StaticOnDestroyDevice
_TEXT	ENDS
; Function compile flags: /Odtp /RTCsu /ZI
; File z:\sampsrc\02xu1\saco\d3d9\common\dxutmisc.cpp
;	COMDAT ?StaticOnLostDevice@CDXUTDirectionWidget@@SAXXZ
_TEXT	SEGMENT
?StaticOnLostDevice@CDXUTDirectionWidget@@SAXXZ PROC	; CDXUTDirectionWidget::StaticOnLostDevice, COMDAT

; 2569 : {

	push	ebp
	mov	ebp, esp
	sub	esp, 192				; 000000c0H
	push	ebx
	push	esi
	push	edi
	lea	edi, DWORD PTR [ebp-192]
	mov	ecx, 48					; 00000030H
	mov	eax, -858993460				; ccccccccH
	rep stosd

; 2570 :     if( s_pEffect )

	cmp	DWORD PTR ?s_pEffect@CDXUTDirectionWidget@@1PAUID3DXEffect@@A, 0 ; CDXUTDirectionWidget::s_pEffect
	je	SHORT $LN2@StaticOnLo

; 2571 :         s_pEffect->OnLostDevice();

	mov	eax, DWORD PTR ?s_pEffect@CDXUTDirectionWidget@@1PAUID3DXEffect@@A ; CDXUTDirectionWidget::s_pEffect
	mov	ecx, DWORD PTR [eax]
	mov	esi, esp
	mov	edx, DWORD PTR ?s_pEffect@CDXUTDirectionWidget@@1PAUID3DXEffect@@A ; CDXUTDirectionWidget::s_pEffect
	push	edx
	mov	eax, DWORD PTR [ecx+276]
	call	eax
	cmp	esi, esp
	call	__RTC_CheckEsp
$LN2@StaticOnLo:

; 2572 : }

	pop	edi
	pop	esi
	pop	ebx
	add	esp, 192				; 000000c0H
	cmp	ebp, esp
	call	__RTC_CheckEsp
	mov	esp, ebp
	pop	ebp
	ret	0
?StaticOnLostDevice@CDXUTDirectionWidget@@SAXXZ ENDP	; CDXUTDirectionWidget::StaticOnLostDevice
_TEXT	ENDS
; Function compile flags: /Odtp /RTCsu /ZI
; File z:\sampsrc\02xu1\saco\d3d9\common\dxutmisc.cpp
;	COMDAT ?HandleMessages@CDXUTDirectionWidget@@QAEJPAUHWND__@@IIJ@Z
_TEXT	SEGMENT
tv64 = -256						; size = 4
_iMouseY$1 = -56					; size = 4
_iMouseX$2 = -44					; size = 4
_iMouseY$3 = -32					; size = 4
_iMouseX$4 = -20					; size = 4
_this$ = -8						; size = 4
_hWnd$ = 8						; size = 4
_uMsg$ = 12						; size = 4
_wParam$ = 16						; size = 4
_lParam$ = 20						; size = 4
?HandleMessages@CDXUTDirectionWidget@@QAEJPAUHWND__@@IIJ@Z PROC ; CDXUTDirectionWidget::HandleMessages, COMDAT
; _this$ = ecx

; 2586 : {

	push	ebp
	mov	ebp, esp
	sub	esp, 256				; 00000100H
	push	ebx
	push	esi
	push	edi
	push	ecx
	lea	edi, DWORD PTR [ebp-256]
	mov	ecx, 64					; 00000040H
	mov	eax, -858993460				; ccccccccH
	rep stosd
	pop	ecx
	mov	DWORD PTR _this$[ebp], ecx

; 2587 :     switch( uMsg )

	mov	eax, DWORD PTR _uMsg$[ebp]
	mov	DWORD PTR tv64[ebp], eax
	mov	ecx, DWORD PTR tv64[ebp]
	sub	ecx, 512				; 00000200H
	mov	DWORD PTR tv64[ebp], ecx
	cmp	DWORD PTR tv64[ebp], 8
	ja	$LN13@HandleMess
	mov	edx, DWORD PTR tv64[ebp]
	movzx	eax, BYTE PTR $LN17@HandleMess[edx]
	jmp	DWORD PTR $LN18@HandleMess[eax*4]
$LN12@HandleMess:

; 2588 :     {
; 2589 :         case WM_LBUTTONDOWN:
; 2590 :         case WM_MBUTTONDOWN:
; 2591 :         case WM_RBUTTONDOWN:
; 2592 :         {
; 2593 :             if( ((m_nRotateMask & MOUSE_LEFT_BUTTON) != 0 && uMsg == WM_LBUTTONDOWN) ||
; 2594 :                 ((m_nRotateMask & MOUSE_MIDDLE_BUTTON) != 0 && uMsg == WM_MBUTTONDOWN) ||
; 2595 :                 ((m_nRotateMask & MOUSE_RIGHT_BUTTON) != 0 && uMsg == WM_RBUTTONDOWN) )

	mov	eax, DWORD PTR _this$[ebp]
	mov	ecx, DWORD PTR [eax+132]
	and	ecx, 1
	je	SHORT $LN9@HandleMess
	cmp	DWORD PTR _uMsg$[ebp], 513		; 00000201H
	je	SHORT $LN10@HandleMess
$LN9@HandleMess:
	mov	eax, DWORD PTR _this$[ebp]
	mov	ecx, DWORD PTR [eax+132]
	and	ecx, 2
	je	SHORT $LN8@HandleMess
	cmp	DWORD PTR _uMsg$[ebp], 519		; 00000207H
	je	SHORT $LN10@HandleMess
$LN8@HandleMess:
	mov	eax, DWORD PTR _this$[ebp]
	mov	ecx, DWORD PTR [eax+132]
	and	ecx, 4
	je	SHORT $LN11@HandleMess
	cmp	DWORD PTR _uMsg$[ebp], 516		; 00000204H
	jne	SHORT $LN11@HandleMess
$LN10@HandleMess:

; 2596 :             {
; 2597 :                 int iMouseX = (int)(short)LOWORD(lParam);

	mov	eax, DWORD PTR _lParam$[ebp]
	and	eax, 65535				; 0000ffffH
	movsx	ecx, ax
	mov	DWORD PTR _iMouseX$4[ebp], ecx

; 2598 :                 int iMouseY = (int)(short)HIWORD(lParam);

	mov	eax, DWORD PTR _lParam$[ebp]
	shr	eax, 16					; 00000010H
	and	eax, 65535				; 0000ffffH
	movsx	ecx, ax
	mov	DWORD PTR _iMouseY$3[ebp], ecx

; 2599 :                 m_ArcBall.OnBegin( iMouseX, iMouseY );

	mov	eax, DWORD PTR _iMouseY$3[ebp]
	push	eax
	mov	ecx, DWORD PTR _iMouseX$4[ebp]
	push	ecx
	mov	ecx, DWORD PTR _this$[ebp]
	add	ecx, 144				; 00000090H
	call	?OnBegin@CD3DArcBall@@QAEXHH@Z		; CD3DArcBall::OnBegin

; 2600 :                 SetCapture(hWnd);

	mov	esi, esp
	mov	eax, DWORD PTR _hWnd$[ebp]
	push	eax
	call	DWORD PTR __imp__SetCapture@4
	cmp	esi, esp
	call	__RTC_CheckEsp
$LN11@HandleMess:

; 2601 :             }
; 2602 :             return TRUE;

	mov	eax, 1
	jmp	$LN15@HandleMess
$LN7@HandleMess:

; 2603 :         }
; 2604 : 
; 2605 :         case WM_MOUSEMOVE:
; 2606 :         {
; 2607 :             if( m_ArcBall.IsBeingDragged() )

	mov	ecx, DWORD PTR _this$[ebp]
	add	ecx, 144				; 00000090H
	call	?IsBeingDragged@CD3DArcBall@@QBE_NXZ	; CD3DArcBall::IsBeingDragged
	movzx	eax, al
	test	eax, eax
	je	SHORT $LN6@HandleMess

; 2608 :             {
; 2609 :                 int iMouseX = (int)(short)LOWORD(lParam);

	mov	eax, DWORD PTR _lParam$[ebp]
	and	eax, 65535				; 0000ffffH
	movsx	ecx, ax
	mov	DWORD PTR _iMouseX$2[ebp], ecx

; 2610 :                 int iMouseY = (int)(short)HIWORD(lParam);

	mov	eax, DWORD PTR _lParam$[ebp]
	shr	eax, 16					; 00000010H
	and	eax, 65535				; 0000ffffH
	movsx	ecx, ax
	mov	DWORD PTR _iMouseY$1[ebp], ecx

; 2611 :                 m_ArcBall.OnMove( iMouseX, iMouseY );

	mov	eax, DWORD PTR _iMouseY$1[ebp]
	push	eax
	mov	ecx, DWORD PTR _iMouseX$2[ebp]
	push	ecx
	mov	ecx, DWORD PTR _this$[ebp]
	add	ecx, 144				; 00000090H
	call	?OnMove@CD3DArcBall@@QAEXHH@Z		; CD3DArcBall::OnMove

; 2612 :                 UpdateLightDir();

	mov	ecx, DWORD PTR _this$[ebp]
	call	?UpdateLightDir@CDXUTDirectionWidget@@IAEJXZ ; CDXUTDirectionWidget::UpdateLightDir
$LN6@HandleMess:

; 2613 :             }
; 2614 :             return TRUE;

	mov	eax, 1
	jmp	SHORT $LN15@HandleMess
$LN5@HandleMess:

; 2615 :         }
; 2616 : 
; 2617 :         case WM_LBUTTONUP:
; 2618 :         case WM_MBUTTONUP:
; 2619 :         case WM_RBUTTONUP:
; 2620 :         {
; 2621 :             if( ((m_nRotateMask & MOUSE_LEFT_BUTTON) != 0 && uMsg == WM_LBUTTONUP) ||
; 2622 :                 ((m_nRotateMask & MOUSE_MIDDLE_BUTTON) != 0 && uMsg == WM_MBUTTONUP) ||
; 2623 :                 ((m_nRotateMask & MOUSE_RIGHT_BUTTON) != 0 && uMsg == WM_RBUTTONUP) )

	mov	eax, DWORD PTR _this$[ebp]
	mov	ecx, DWORD PTR [eax+132]
	and	ecx, 1
	je	SHORT $LN2@HandleMess
	cmp	DWORD PTR _uMsg$[ebp], 514		; 00000202H
	je	SHORT $LN3@HandleMess
$LN2@HandleMess:
	mov	eax, DWORD PTR _this$[ebp]
	mov	ecx, DWORD PTR [eax+132]
	and	ecx, 2
	je	SHORT $LN1@HandleMess
	cmp	DWORD PTR _uMsg$[ebp], 520		; 00000208H
	je	SHORT $LN3@HandleMess
$LN1@HandleMess:
	mov	eax, DWORD PTR _this$[ebp]
	mov	ecx, DWORD PTR [eax+132]
	and	ecx, 4
	je	SHORT $LN4@HandleMess
	cmp	DWORD PTR _uMsg$[ebp], 517		; 00000205H
	jne	SHORT $LN4@HandleMess
$LN3@HandleMess:

; 2624 :             {
; 2625 :                 m_ArcBall.OnEnd();

	mov	ecx, DWORD PTR _this$[ebp]
	add	ecx, 144				; 00000090H
	call	?OnEnd@CD3DArcBall@@QAEXXZ		; CD3DArcBall::OnEnd

; 2626 :                 ReleaseCapture();

	mov	esi, esp
	call	DWORD PTR __imp__ReleaseCapture@0
	cmp	esi, esp
	call	__RTC_CheckEsp
$LN4@HandleMess:

; 2627 :             }
; 2628 : 
; 2629 :             UpdateLightDir();

	mov	ecx, DWORD PTR _this$[ebp]
	call	?UpdateLightDir@CDXUTDirectionWidget@@IAEJXZ ; CDXUTDirectionWidget::UpdateLightDir

; 2630 :             return TRUE;

	mov	eax, 1
	jmp	SHORT $LN15@HandleMess
$LN13@HandleMess:

; 2631 :         }
; 2632 :     }
; 2633 : 
; 2634 :     return 0;

	xor	eax, eax
$LN15@HandleMess:

; 2635 : }

	pop	edi
	pop	esi
	pop	ebx
	add	esp, 256				; 00000100H
	cmp	ebp, esp
	call	__RTC_CheckEsp
	mov	esp, ebp
	pop	ebp
	ret	16					; 00000010H
$LN18@HandleMess:
	DD	$LN7@HandleMess
	DD	$LN12@HandleMess
	DD	$LN5@HandleMess
	DD	$LN13@HandleMess
$LN17@HandleMess:
	DB	0
	DB	1
	DB	2
	DB	3
	DB	1
	DB	2
	DB	3
	DB	1
	DB	2
?HandleMessages@CDXUTDirectionWidget@@QAEJPAUHWND__@@IIJ@Z ENDP ; CDXUTDirectionWidget::HandleMessages
_TEXT	ENDS
; Function compile flags: /Odtp /RTCsu /ZI
; File z:\sampsrc\02xu1\saco\d3d9\common\dxutmisc.cpp
;	COMDAT ?OnRender@CDXUTDirectionWidget@@QAEJUD3DXCOLOR@@PBUD3DXMATRIX@@1PBUD3DXVECTOR3@@@Z
_TEXT	SEGMENT
$T1 = -1176						; size = 64
$T2 = -1100						; size = 12
$T3 = -1080						; size = 64
$T4 = -1008						; size = 64
$T5 = -936						; size = 64
$T6 = -861						; size = 1
_iSubset$7 = -660					; size = 4
_mWorld$ = -648						; size = 64
_vL$ = -572						; size = 12
_vUp$ = -552						; size = 12
_vAt$ = -532						; size = 12
_mRotateB$ = -512					; size = 64
_mRotateA$ = -440					; size = 64
_vEyePt$ = -368						; size = 12
_mWorldViewProj$ = -336					; size = 64
_mTrans$ = -256						; size = 64
_mScale$ = -184						; size = 64
_mRotate$ = -112					; size = 64
_cPasses$ = -36						; size = 4
_iPass$ = -24						; size = 4
_this$ = -12						; size = 4
__$ArrayPad$ = -4					; size = 4
_color$ = 8						; size = 16
_pmView$ = 24						; size = 4
_pmProj$ = 28						; size = 4
_pEyePt$ = 32						; size = 4
?OnRender@CDXUTDirectionWidget@@QAEJUD3DXCOLOR@@PBUD3DXMATRIX@@1PBUD3DXVECTOR3@@@Z PROC ; CDXUTDirectionWidget::OnRender, COMDAT
; _this$ = ecx

; 2641 : {

	push	ebx
	mov	ebx, esp
	sub	esp, 8
	and	esp, -16				; fffffff0H
	add	esp, 4
	push	ebp
	mov	ebp, DWORD PTR [ebx+4]
	mov	DWORD PTR [esp+4], ebp
	mov	ebp, esp
	sub	esp, 1192				; 000004a8H
	push	esi
	push	edi
	push	ecx
	lea	edi, DWORD PTR [ebp-1192]
	mov	ecx, 298				; 0000012aH
	mov	eax, -858993460				; ccccccccH
	rep stosd
	pop	ecx
	mov	eax, DWORD PTR ___security_cookie
	xor	eax, ebp
	mov	DWORD PTR __$ArrayPad$[ebp], eax
	mov	DWORD PTR _this$[ebp], ecx
	mov	BYTE PTR $T6[ebp], 0

; 2642 :     m_mView = *pmView;

	mov	edi, DWORD PTR _this$[ebp]
	add	edi, 472				; 000001d8H
	mov	ecx, 16					; 00000010H
	mov	esi, DWORD PTR _pmView$[ebx]
	rep movsd

; 2643 : 
; 2644 :     // Render the light spheres so the user can visually see the light dir
; 2645 :     UINT iPass, cPasses;
; 2646 :     D3DXMATRIX mRotate;

	lea	ecx, DWORD PTR _mRotate$[ebp]
	call	??0D3DXMATRIX@@QAE@XZ			; D3DXMATRIX::D3DXMATRIX

; 2647 :     D3DXMATRIX mScale;

	lea	ecx, DWORD PTR _mScale$[ebp]
	call	??0D3DXMATRIX@@QAE@XZ			; D3DXMATRIX::D3DXMATRIX

; 2648 :     D3DXMATRIX mTrans;

	lea	ecx, DWORD PTR _mTrans$[ebp]
	call	??0D3DXMATRIX@@QAE@XZ			; D3DXMATRIX::D3DXMATRIX

; 2649 :     D3DXMATRIXA16 mWorldViewProj;

	lea	ecx, DWORD PTR _mWorldViewProj$[ebp]
	call	??0_D3DXMATRIXA16@@QAE@XZ		; _D3DXMATRIXA16::_D3DXMATRIXA16

; 2650 :     HRESULT hr;
; 2651 : 
; 2652 :     s_pEffect->SetTechnique( "RenderWith1LightNoTexture" );

	mov	esi, esp
	push	OFFSET ??_C@_0BK@MCNKOHBK@RenderWith1LightNoTexture?$AA@
	mov	eax, DWORD PTR ?s_pEffect@CDXUTDirectionWidget@@1PAUID3DXEffect@@A ; CDXUTDirectionWidget::s_pEffect
	mov	ecx, DWORD PTR [eax]
	mov	edx, DWORD PTR ?s_pEffect@CDXUTDirectionWidget@@1PAUID3DXEffect@@A ; CDXUTDirectionWidget::s_pEffect
	push	edx
	mov	eax, DWORD PTR [ecx+232]
	call	eax
	cmp	esi, esp
	call	__RTC_CheckEsp

; 2653 :     s_pEffect->SetVector( "g_MaterialDiffuseColor", (D3DXVECTOR4*)&color);

	mov	esi, esp
	lea	eax, DWORD PTR _color$[ebx]
	push	eax
	push	OFFSET ??_C@_0BH@JOJPMGMM@g_MaterialDiffuseColor?$AA@
	mov	ecx, DWORD PTR ?s_pEffect@CDXUTDirectionWidget@@1PAUID3DXEffect@@A ; CDXUTDirectionWidget::s_pEffect
	mov	edx, DWORD PTR [ecx]
	mov	eax, DWORD PTR ?s_pEffect@CDXUTDirectionWidget@@1PAUID3DXEffect@@A ; CDXUTDirectionWidget::s_pEffect
	push	eax
	mov	ecx, DWORD PTR [edx+136]
	call	ecx
	cmp	esi, esp
	call	__RTC_CheckEsp

; 2654 : 
; 2655 :     D3DXVECTOR3 vEyePt;

	lea	ecx, DWORD PTR _vEyePt$[ebp]
	call	??0D3DXVECTOR3@@QAE@XZ			; D3DXVECTOR3::D3DXVECTOR3

; 2656 :     D3DXVec3Normalize( &vEyePt, pEyePt );

	mov	eax, DWORD PTR _pEyePt$[ebx]
	push	eax
	lea	ecx, DWORD PTR _vEyePt$[ebp]
	push	ecx
	call	_D3DXVec3Normalize@8

; 2657 :     V( s_pEffect->SetValue( "g_LightDir", &vEyePt, sizeof(D3DXVECTOR3) ) );
; 2658 : 
; 2659 :     // Rotate arrow model to point towards origin
; 2660 :     D3DXMATRIX mRotateA, mRotateB;

	lea	ecx, DWORD PTR _mRotateA$[ebp]
	call	??0D3DXMATRIX@@QAE@XZ			; D3DXMATRIX::D3DXMATRIX
	lea	ecx, DWORD PTR _mRotateB$[ebp]
	call	??0D3DXMATRIX@@QAE@XZ			; D3DXMATRIX::D3DXMATRIX

; 2661 :     D3DXVECTOR3 vAt = D3DXVECTOR3(0,0,0);

	push	ecx
	movss	xmm0, DWORD PTR __real@00000000
	movss	DWORD PTR [esp], xmm0
	push	ecx
	movss	xmm0, DWORD PTR __real@00000000
	movss	DWORD PTR [esp], xmm0
	push	ecx
	movss	xmm0, DWORD PTR __real@00000000
	movss	DWORD PTR [esp], xmm0
	lea	ecx, DWORD PTR _vAt$[ebp]
	call	??0D3DXVECTOR3@@QAE@MMM@Z		; D3DXVECTOR3::D3DXVECTOR3

; 2662 :     D3DXVECTOR3 vUp = D3DXVECTOR3(0,1,0);

	push	ecx
	movss	xmm0, DWORD PTR __real@00000000
	movss	DWORD PTR [esp], xmm0
	push	ecx
	movss	xmm0, DWORD PTR __real@3f800000
	movss	DWORD PTR [esp], xmm0
	push	ecx
	movss	xmm0, DWORD PTR __real@00000000
	movss	DWORD PTR [esp], xmm0
	lea	ecx, DWORD PTR _vUp$[ebp]
	call	??0D3DXVECTOR3@@QAE@MMM@Z		; D3DXVECTOR3::D3DXVECTOR3

; 2663 :     D3DXMatrixRotationX( &mRotateB, D3DX_PI );

	push	ecx
	movss	xmm0, DWORD PTR __real@40490fdb
	movss	DWORD PTR [esp], xmm0
	lea	eax, DWORD PTR _mRotateB$[ebp]
	push	eax
	call	_D3DXMatrixRotationX@8

; 2664 :     D3DXMatrixLookAtLH( &mRotateA, &m_vCurrentDir, &vAt, &vUp );

	lea	eax, DWORD PTR _vUp$[ebp]
	push	eax
	lea	ecx, DWORD PTR _vAt$[ebp]
	push	ecx
	mov	edx, DWORD PTR _this$[ebp]
	add	edx, 460				; 000001ccH
	push	edx
	lea	eax, DWORD PTR _mRotateA$[ebp]
	push	eax
	call	_D3DXMatrixLookAtLH@16

; 2665 :     D3DXMatrixInverse( &mRotateA, NULL, &mRotateA );

	lea	eax, DWORD PTR _mRotateA$[ebp]
	push	eax
	push	0
	lea	ecx, DWORD PTR _mRotateA$[ebp]
	push	ecx
	call	_D3DXMatrixInverse@12

; 2666 :     mRotate = mRotateB * mRotateA;

	lea	eax, DWORD PTR _mRotateA$[ebp]
	push	eax
	lea	ecx, DWORD PTR $T1[ebp]
	push	ecx
	lea	ecx, DWORD PTR _mRotateB$[ebp]
	call	??DD3DXMATRIX@@QBE?AU0@ABU0@@Z		; D3DXMATRIX::operator*
	mov	ecx, 16					; 00000010H
	mov	esi, eax
	lea	edi, DWORD PTR _mRotate$[ebp]
	rep movsd

; 2667 : 
; 2668 :     D3DXVECTOR3 vL = m_vCurrentDir * m_fRadius * 1.0f;

	push	ecx
	movss	xmm0, DWORD PTR __real@3f800000
	movss	DWORD PTR [esp], xmm0
	lea	eax, DWORD PTR _vL$[ebp]
	push	eax
	mov	ecx, DWORD PTR _this$[ebp]
	push	ecx
	movss	xmm0, DWORD PTR [ecx+128]
	movss	DWORD PTR [esp], xmm0
	lea	edx, DWORD PTR $T2[ebp]
	push	edx
	mov	ecx, DWORD PTR _this$[ebp]
	add	ecx, 460				; 000001ccH
	call	??DD3DXVECTOR3@@QBE?AU0@M@Z		; D3DXVECTOR3::operator*
	mov	ecx, eax
	call	??DD3DXVECTOR3@@QBE?AU0@M@Z		; D3DXVECTOR3::operator*

; 2669 :     D3DXMatrixTranslation( &mTrans, vL.x, vL.y, vL.z );

	push	ecx
	movss	xmm0, DWORD PTR _vL$[ebp+8]
	movss	DWORD PTR [esp], xmm0
	push	ecx
	movss	xmm0, DWORD PTR _vL$[ebp+4]
	movss	DWORD PTR [esp], xmm0
	push	ecx
	movss	xmm0, DWORD PTR _vL$[ebp]
	movss	DWORD PTR [esp], xmm0
	lea	eax, DWORD PTR _mTrans$[ebp]
	push	eax
	call	_D3DXMatrixTranslation@16

; 2670 :     D3DXMatrixScaling( &mScale, m_fRadius*0.2f, m_fRadius*0.2f, m_fRadius*0.2f );

	mov	eax, DWORD PTR _this$[ebp]
	movss	xmm0, DWORD PTR [eax+128]
	mulss	xmm0, DWORD PTR __real@3e4ccccd
	push	ecx
	movss	DWORD PTR [esp], xmm0
	mov	ecx, DWORD PTR _this$[ebp]
	movss	xmm0, DWORD PTR [ecx+128]
	mulss	xmm0, DWORD PTR __real@3e4ccccd
	push	ecx
	movss	DWORD PTR [esp], xmm0
	mov	edx, DWORD PTR _this$[ebp]
	movss	xmm0, DWORD PTR [edx+128]
	mulss	xmm0, DWORD PTR __real@3e4ccccd
	push	ecx
	movss	DWORD PTR [esp], xmm0
	lea	eax, DWORD PTR _mScale$[ebp]
	push	eax
	call	_D3DXMatrixScaling@16

; 2671 : 
; 2672 :     D3DXMATRIX mWorld = mRotate * mScale * mTrans;

	lea	eax, DWORD PTR _mTrans$[ebp]
	push	eax
	lea	ecx, DWORD PTR _mWorld$[ebp]
	push	ecx
	lea	edx, DWORD PTR _mScale$[ebp]
	push	edx
	lea	eax, DWORD PTR $T3[ebp]
	push	eax
	lea	ecx, DWORD PTR _mRotate$[ebp]
	call	??DD3DXMATRIX@@QBE?AU0@ABU0@@Z		; D3DXMATRIX::operator*
	mov	ecx, eax
	call	??DD3DXMATRIX@@QBE?AU0@ABU0@@Z		; D3DXMATRIX::operator*

; 2673 :     mWorldViewProj = mWorld * (m_mView) * (*pmProj);

	mov	eax, DWORD PTR _pmProj$[ebx]
	push	eax
	lea	ecx, DWORD PTR $T5[ebp]
	push	ecx
	mov	edx, DWORD PTR _this$[ebp]
	add	edx, 472				; 000001d8H
	push	edx
	lea	eax, DWORD PTR $T4[ebp]
	push	eax
	lea	ecx, DWORD PTR _mWorld$[ebp]
	call	??DD3DXMATRIX@@QBE?AU0@ABU0@@Z		; D3DXMATRIX::operator*
	mov	ecx, eax
	call	??DD3DXMATRIX@@QBE?AU0@ABU0@@Z		; D3DXMATRIX::operator*
	push	eax
	lea	ecx, DWORD PTR _mWorldViewProj$[ebp]
	call	??4_D3DXMATRIXA16@@QAEAAU0@ABUD3DXMATRIX@@@Z ; _D3DXMATRIXA16::operator=

; 2674 : 
; 2675 :     V( s_pEffect->SetMatrix( "g_mWorldViewProjection", &mWorldViewProj ) );
; 2676 :     V( s_pEffect->SetMatrix( "g_mWorld", &mWorld ) );
; 2677 : 
; 2678 :     for( int iSubset=0; iSubset<2; iSubset++ )

	mov	DWORD PTR _iSubset$7[ebp], 0
	jmp	SHORT $LN6@OnRender
$LN5@OnRender:
	mov	eax, DWORD PTR _iSubset$7[ebp]
	add	eax, 1
	mov	DWORD PTR _iSubset$7[ebp], eax
$LN6@OnRender:
	cmp	DWORD PTR _iSubset$7[ebp], 2
	jge	SHORT $LN4@OnRender

; 2679 :     {
; 2680 :         V( s_pEffect->Begin(&cPasses, 0) );
; 2681 :         for (iPass = 0; iPass < cPasses; iPass++)

	mov	DWORD PTR _iPass$[ebp], 0
	jmp	SHORT $LN3@OnRender
$LN2@OnRender:
	mov	eax, DWORD PTR _iPass$[ebp]
	add	eax, 1
	mov	DWORD PTR _iPass$[ebp], eax
$LN3@OnRender:
	cmp	BYTE PTR $T6[ebp], 0
	jne	SHORT $LN9@OnRender
	push	OFFSET $LN10@OnRender
	call	__RTC_UninitUse
	add	esp, 4
$LN9@OnRender:
	mov	eax, DWORD PTR _iPass$[ebp]
	cmp	eax, DWORD PTR _cPasses$[ebp]
	jae	SHORT $LN1@OnRender

; 2682 :         {
; 2683 :             V( s_pEffect->BeginPass(iPass) );
; 2684 :             V( s_pMesh->DrawSubset(iSubset) );
; 2685 :             V( s_pEffect->EndPass() );
; 2686 :         }

	jmp	SHORT $LN2@OnRender
$LN1@OnRender:

; 2687 :         V( s_pEffect->End() );
; 2688 :     }

	jmp	SHORT $LN5@OnRender
$LN4@OnRender:

; 2689 : 
; 2690 :     return S_OK;

	xor	eax, eax

; 2691 : }

	push	edx
	mov	ecx, ebp
	push	eax
	lea	edx, DWORD PTR $LN23@OnRender
	call	@_RTC_CheckStackVars@8
	pop	eax
	pop	edx
	pop	edi
	pop	esi
	mov	ecx, DWORD PTR __$ArrayPad$[ebp]
	xor	ecx, ebp
	call	@__security_check_cookie@4
	mov	esp, ebp
	pop	ebp
	mov	esp, ebx
	pop	ebx
	ret	28					; 0000001cH
	npad	3
$LN23@OnRender:
	DD	11					; 0000000bH
	DD	$LN22@OnRender
$LN22@OnRender:
	DD	-112					; ffffff90H
	DD	64					; 00000040H
	DD	$LN11@OnRender
	DD	-184					; ffffff48H
	DD	64					; 00000040H
	DD	$LN12@OnRender
	DD	-256					; ffffff00H
	DD	64					; 00000040H
	DD	$LN13@OnRender
	DD	-336					; fffffeb0H
	DD	64					; 00000040H
	DD	$LN14@OnRender
	DD	-368					; fffffe90H
	DD	12					; 0000000cH
	DD	$LN15@OnRender
	DD	-440					; fffffe48H
	DD	64					; 00000040H
	DD	$LN16@OnRender
	DD	-512					; fffffe00H
	DD	64					; 00000040H
	DD	$LN17@OnRender
	DD	-532					; fffffdecH
	DD	12					; 0000000cH
	DD	$LN18@OnRender
	DD	-552					; fffffdd8H
	DD	12					; 0000000cH
	DD	$LN19@OnRender
	DD	-572					; fffffdc4H
	DD	12					; 0000000cH
	DD	$LN20@OnRender
	DD	-648					; fffffd78H
	DD	64					; 00000040H
	DD	$LN21@OnRender
$LN21@OnRender:
	DB	109					; 0000006dH
	DB	87					; 00000057H
	DB	111					; 0000006fH
	DB	114					; 00000072H
	DB	108					; 0000006cH
	DB	100					; 00000064H
	DB	0
$LN20@OnRender:
	DB	118					; 00000076H
	DB	76					; 0000004cH
	DB	0
$LN19@OnRender:
	DB	118					; 00000076H
	DB	85					; 00000055H
	DB	112					; 00000070H
	DB	0
$LN18@OnRender:
	DB	118					; 00000076H
	DB	65					; 00000041H
	DB	116					; 00000074H
	DB	0
$LN17@OnRender:
	DB	109					; 0000006dH
	DB	82					; 00000052H
	DB	111					; 0000006fH
	DB	116					; 00000074H
	DB	97					; 00000061H
	DB	116					; 00000074H
	DB	101					; 00000065H
	DB	66					; 00000042H
	DB	0
$LN16@OnRender:
	DB	109					; 0000006dH
	DB	82					; 00000052H
	DB	111					; 0000006fH
	DB	116					; 00000074H
	DB	97					; 00000061H
	DB	116					; 00000074H
	DB	101					; 00000065H
	DB	65					; 00000041H
	DB	0
$LN15@OnRender:
	DB	118					; 00000076H
	DB	69					; 00000045H
	DB	121					; 00000079H
	DB	101					; 00000065H
	DB	80					; 00000050H
	DB	116					; 00000074H
	DB	0
$LN14@OnRender:
	DB	109					; 0000006dH
	DB	87					; 00000057H
	DB	111					; 0000006fH
	DB	114					; 00000072H
	DB	108					; 0000006cH
	DB	100					; 00000064H
	DB	86					; 00000056H
	DB	105					; 00000069H
	DB	101					; 00000065H
	DB	119					; 00000077H
	DB	80					; 00000050H
	DB	114					; 00000072H
	DB	111					; 0000006fH
	DB	106					; 0000006aH
	DB	0
$LN13@OnRender:
	DB	109					; 0000006dH
	DB	84					; 00000054H
	DB	114					; 00000072H
	DB	97					; 00000061H
	DB	110					; 0000006eH
	DB	115					; 00000073H
	DB	0
$LN12@OnRender:
	DB	109					; 0000006dH
	DB	83					; 00000053H
	DB	99					; 00000063H
	DB	97					; 00000061H
	DB	108					; 0000006cH
	DB	101					; 00000065H
	DB	0
$LN11@OnRender:
	DB	109					; 0000006dH
	DB	82					; 00000052H
	DB	111					; 0000006fH
	DB	116					; 00000074H
	DB	97					; 00000061H
	DB	116					; 00000074H
	DB	101					; 00000065H
	DB	0
$LN10@OnRender:
	DB	99					; 00000063H
	DB	80					; 00000050H
	DB	97					; 00000061H
	DB	115					; 00000073H
	DB	115					; 00000073H
	DB	101					; 00000065H
	DB	115					; 00000073H
	DB	0
?OnRender@CDXUTDirectionWidget@@QAEJUD3DXCOLOR@@PBUD3DXMATRIX@@1PBUD3DXVECTOR3@@@Z ENDP ; CDXUTDirectionWidget::OnRender
_TEXT	ENDS
; Function compile flags: /Odtp /RTCsu /ZI
; File z:\sampsrc\02xu1\saco\d3d9\common\dxutmisc.cpp
;	COMDAT ?OnResetDevice@CDXUTDirectionWidget@@QAEJPBU_D3DSURFACE_DESC@@@Z
_TEXT	SEGMENT
_this$ = -8						; size = 4
_pBackBufferSurfaceDesc$ = 8				; size = 4
?OnResetDevice@CDXUTDirectionWidget@@QAEJPBU_D3DSURFACE_DESC@@@Z PROC ; CDXUTDirectionWidget::OnResetDevice, COMDAT
; _this$ = ecx

; 2561 : {

	push	ebp
	mov	ebp, esp
	sub	esp, 204				; 000000ccH
	push	ebx
	push	esi
	push	edi
	push	ecx
	lea	edi, DWORD PTR [ebp-204]
	mov	ecx, 51					; 00000033H
	mov	eax, -858993460				; ccccccccH
	rep stosd
	pop	ecx
	mov	DWORD PTR _this$[ebp], ecx

; 2562 :     m_ArcBall.SetWindow( pBackBufferSurfaceDesc->Width, pBackBufferSurfaceDesc->Height );

	push	ecx
	movss	xmm0, DWORD PTR __real@3f666666
	movss	DWORD PTR [esp], xmm0
	mov	eax, DWORD PTR _pBackBufferSurfaceDesc$[ebp]
	mov	ecx, DWORD PTR [eax+28]
	push	ecx
	mov	edx, DWORD PTR _pBackBufferSurfaceDesc$[ebp]
	mov	eax, DWORD PTR [edx+24]
	push	eax
	mov	ecx, DWORD PTR _this$[ebp]
	add	ecx, 144				; 00000090H
	call	?SetWindow@CD3DArcBall@@QAEXHHM@Z	; CD3DArcBall::SetWindow

; 2563 :     return S_OK;

	xor	eax, eax

; 2564 : }

	pop	edi
	pop	esi
	pop	ebx
	add	esp, 204				; 000000ccH
	cmp	ebp, esp
	call	__RTC_CheckEsp
	mov	esp, ebp
	pop	ebp
	ret	4
?OnResetDevice@CDXUTDirectionWidget@@QAEJPBU_D3DSURFACE_DESC@@@Z ENDP ; CDXUTDirectionWidget::OnResetDevice
_TEXT	ENDS
; Function compile flags: /Odtp /RTCsu /ZI
; File z:\sampsrc\02xu1\saco\d3d9\common\dxutmisc.cpp
;	COMDAT ?StaticOnCreateDevice@CDXUTDirectionWidget@@SAJPAUIDirect3DDevice9@@@Z
_TEXT	SEGMENT
$T1 = -508						; size = 4
$T2 = -496						; size = 4
_rgdwAdjacency$ = -292					; size = 4
_str$ = -268						; size = 260
__$ArrayPad$ = -4					; size = 4
_pd3dDevice$ = 8					; size = 4
?StaticOnCreateDevice@CDXUTDirectionWidget@@SAJPAUIDirect3DDevice9@@@Z PROC ; CDXUTDirectionWidget::StaticOnCreateDevice, COMDAT

; 2522 : {

	push	ebp
	mov	ebp, esp
	sub	esp, 512				; 00000200H
	push	ebx
	push	esi
	push	edi
	lea	edi, DWORD PTR [ebp-512]
	mov	ecx, 128				; 00000080H
	mov	eax, -858993460				; ccccccccH
	rep stosd
	mov	eax, DWORD PTR ___security_cookie
	xor	eax, ebp
	mov	DWORD PTR __$ArrayPad$[ebp], eax

; 2523 :     TCHAR str[MAX_PATH];
; 2524 :     HRESULT hr;
; 2525 : 
; 2526 :     s_pd3dDevice = pd3dDevice;

	mov	eax, DWORD PTR _pd3dDevice$[ebp]
	mov	DWORD PTR ?s_pd3dDevice@CDXUTDirectionWidget@@1PAUIDirect3DDevice9@@A, eax ; CDXUTDirectionWidget::s_pd3dDevice

; 2527 :    
; 2528 :     // Read the D3DX effect file
; 2529 :     DXUTFindDXSDKMediaFileCch( str, MAX_PATH, "UI\\DXUTShared.fx" );

	push	OFFSET ??_C@_0BB@NKBHBICM@UI?2DXUTShared?4fx?$AA@
	push	260					; 00000104H
	lea	eax, DWORD PTR _str$[ebp]
	push	eax
	call	?DXUTFindDXSDKMediaFileCch@@YAJPADHPBD@Z ; DXUTFindDXSDKMediaFileCch
	add	esp, 12					; 0000000cH

; 2530 : 
; 2531 :     // If this fails, there should be debug output as to 
; 2532 :     // why the .fx file failed to compile
; 2533 :     D3DXCreateEffectFromFileA( s_pd3dDevice, str, NULL, NULL, D3DXFX_NOT_CLONEABLE, NULL, &s_pEffect, NULL );

	push	0
	push	OFFSET ?s_pEffect@CDXUTDirectionWidget@@1PAUID3DXEffect@@A ; CDXUTDirectionWidget::s_pEffect
	push	0
	push	2048					; 00000800H
	push	0
	push	0
	lea	eax, DWORD PTR _str$[ebp]
	push	eax
	mov	ecx, DWORD PTR ?s_pd3dDevice@CDXUTDirectionWidget@@1PAUIDirect3DDevice9@@A ; CDXUTDirectionWidget::s_pd3dDevice
	push	ecx
	call	_D3DXCreateEffectFromFileA@32

; 2534 : 
; 2535 :     // Load the mesh with D3DX and get back a ID3DXMesh*.  For this
; 2536 :     // sample we'll ignore the X file's embedded materials since we know 
; 2537 :     // exactly the model we're loading.  See the mesh samples such as
; 2538 :     // "OptimizedMesh" for a more generic mesh loading example.
; 2539 :     DXUTFindDXSDKMediaFileCch( str, MAX_PATH, "UI\\arrow.x" );

	push	OFFSET ??_C@_0L@HCLLIMDN@UI?2arrow?4x?$AA@
	push	260					; 00000104H
	lea	eax, DWORD PTR _str$[ebp]
	push	eax
	call	?DXUTFindDXSDKMediaFileCch@@YAJPADHPBD@Z ; DXUTFindDXSDKMediaFileCch
	add	esp, 12					; 0000000cH

; 2540 : 
; 2541 :     D3DXLoadMeshFromX( str, D3DXMESH_MANAGED, s_pd3dDevice, NULL, 
; 2542 :                                  NULL, NULL, NULL, &s_pMesh);

	push	OFFSET ?s_pMesh@CDXUTDirectionWidget@@1PAUID3DXMesh@@A ; CDXUTDirectionWidget::s_pMesh
	push	0
	push	0
	push	0
	push	0
	mov	eax, DWORD PTR ?s_pd3dDevice@CDXUTDirectionWidget@@1PAUIDirect3DDevice9@@A ; CDXUTDirectionWidget::s_pd3dDevice
	push	eax
	push	544					; 00000220H
	lea	ecx, DWORD PTR _str$[ebp]
	push	ecx
	call	_D3DXLoadMeshFromXA@32

; 2543 : 
; 2544 :     // Optimize the mesh for this graphics card's vertex cache 
; 2545 :     // so when rendering the mesh's triangle list the vertices will 
; 2546 :     // cache hit more often so it won't have to re-execute the vertex shader 
; 2547 :     // on those vertices so it will improve perf.     
; 2548 :     DWORD* rgdwAdjacency = new DWORD[s_pMesh->GetNumFaces() * 3];

	mov	eax, DWORD PTR ?s_pMesh@CDXUTDirectionWidget@@1PAUID3DXMesh@@A ; CDXUTDirectionWidget::s_pMesh
	mov	ecx, DWORD PTR [eax]
	mov	esi, esp
	mov	edx, DWORD PTR ?s_pMesh@CDXUTDirectionWidget@@1PAUID3DXMesh@@A ; CDXUTDirectionWidget::s_pMesh
	push	edx
	mov	eax, DWORD PTR [ecx+16]
	call	eax
	cmp	esi, esp
	call	__RTC_CheckEsp
	imul	eax, eax, 3
	xor	ecx, ecx
	mov	edx, 4
	mul	edx
	seto	cl
	neg	ecx
	or	ecx, eax
	push	ecx
	call	??_U@YAPAXI@Z				; operator new[]
	add	esp, 4
	mov	DWORD PTR $T1[ebp], eax
	mov	eax, DWORD PTR $T1[ebp]
	mov	DWORD PTR _rgdwAdjacency$[ebp], eax

; 2549 :     if( rgdwAdjacency == NULL )

	cmp	DWORD PTR _rgdwAdjacency$[ebp], 0
	jne	SHORT $LN1@StaticOnCr

; 2550 :         return E_OUTOFMEMORY;

	mov	eax, -2147024882			; 8007000eH
	jmp	SHORT $LN2@StaticOnCr
$LN1@StaticOnCr:

; 2551 :     s_pMesh->GenerateAdjacency(1e-6f,rgdwAdjacency);

	mov	esi, esp
	mov	eax, DWORD PTR _rgdwAdjacency$[ebp]
	push	eax
	push	ecx
	movss	xmm0, DWORD PTR __real@358637bd
	movss	DWORD PTR [esp], xmm0
	mov	ecx, DWORD PTR ?s_pMesh@CDXUTDirectionWidget@@1PAUID3DXMesh@@A ; CDXUTDirectionWidget::s_pMesh
	mov	edx, DWORD PTR [ecx]
	mov	eax, DWORD PTR ?s_pMesh@CDXUTDirectionWidget@@1PAUID3DXMesh@@A ; CDXUTDirectionWidget::s_pMesh
	push	eax
	mov	ecx, DWORD PTR [edx+88]
	call	ecx
	cmp	esi, esp
	call	__RTC_CheckEsp

; 2552 :     s_pMesh->OptimizeInplace(D3DXMESHOPT_VERTEXCACHE, rgdwAdjacency, NULL, NULL, NULL);

	mov	esi, esp
	push	0
	push	0
	push	0
	mov	eax, DWORD PTR _rgdwAdjacency$[ebp]
	push	eax
	push	67108864				; 04000000H
	mov	ecx, DWORD PTR ?s_pMesh@CDXUTDirectionWidget@@1PAUID3DXMesh@@A ; CDXUTDirectionWidget::s_pMesh
	mov	edx, DWORD PTR [ecx]
	mov	eax, DWORD PTR ?s_pMesh@CDXUTDirectionWidget@@1PAUID3DXMesh@@A ; CDXUTDirectionWidget::s_pMesh
	push	eax
	mov	ecx, DWORD PTR [edx+108]
	call	ecx
	cmp	esi, esp
	call	__RTC_CheckEsp

; 2553 :     delete []rgdwAdjacency;

	mov	eax, DWORD PTR _rgdwAdjacency$[ebp]
	mov	DWORD PTR $T2[ebp], eax
	mov	ecx, DWORD PTR $T2[ebp]
	push	ecx
	call	??_V@YAXPAX@Z				; operator delete[]
	add	esp, 4

; 2554 : 
; 2555 :     return S_OK;

	xor	eax, eax
$LN2@StaticOnCr:

; 2556 : }

	push	edx
	mov	ecx, ebp
	push	eax
	lea	edx, DWORD PTR $LN6@StaticOnCr
	call	@_RTC_CheckStackVars@8
	pop	eax
	pop	edx
	pop	edi
	pop	esi
	pop	ebx
	mov	ecx, DWORD PTR __$ArrayPad$[ebp]
	xor	ecx, ebp
	call	@__security_check_cookie@4
	add	esp, 512				; 00000200H
	cmp	ebp, esp
	call	__RTC_CheckEsp
	mov	esp, ebp
	pop	ebp
	ret	0
$LN6@StaticOnCr:
	DD	1
	DD	$LN5@StaticOnCr
$LN5@StaticOnCr:
	DD	-268					; fffffef4H
	DD	260					; 00000104H
	DD	$LN4@StaticOnCr
$LN4@StaticOnCr:
	DB	115					; 00000073H
	DB	116					; 00000074H
	DB	114					; 00000072H
	DB	0
?StaticOnCreateDevice@CDXUTDirectionWidget@@SAJPAUIDirect3DDevice9@@@Z ENDP ; CDXUTDirectionWidget::StaticOnCreateDevice
_TEXT	ENDS
; Function compile flags: /Odtp /RTCsu /ZI
; File z:\sampsrc\02xu1\saco\d3d9\common\dxutmisc.cpp
;	COMDAT ??0CDXUTDirectionWidget@@QAE@XZ
_TEXT	SEGMENT
$T1 = -224						; size = 12
_this$ = -12						; size = 4
__$ArrayPad$ = -4					; size = 4
??0CDXUTDirectionWidget@@QAE@XZ PROC			; CDXUTDirectionWidget::CDXUTDirectionWidget, COMDAT
; _this$ = ecx

; 2508 : {

	push	ebp
	mov	ebp, esp
	sub	esp, 228				; 000000e4H
	push	ebx
	push	esi
	push	edi
	push	ecx
	lea	edi, DWORD PTR [ebp-228]
	mov	ecx, 57					; 00000039H
	mov	eax, -858993460				; ccccccccH
	rep stosd
	pop	ecx
	mov	eax, DWORD PTR ___security_cookie
	xor	eax, ebp
	mov	DWORD PTR __$ArrayPad$[ebp], eax
	mov	DWORD PTR _this$[ebp], ecx
	mov	ecx, DWORD PTR _this$[ebp]
	call	??0_D3DXMATRIXA16@@QAE@XZ		; _D3DXMATRIXA16::_D3DXMATRIXA16
	mov	ecx, DWORD PTR _this$[ebp]
	add	ecx, 64					; 00000040H
	call	??0_D3DXMATRIXA16@@QAE@XZ		; _D3DXMATRIXA16::_D3DXMATRIXA16
	mov	ecx, DWORD PTR _this$[ebp]
	add	ecx, 144				; 00000090H
	call	??0CD3DArcBall@@QAE@XZ			; CD3DArcBall::CD3DArcBall
	mov	ecx, DWORD PTR _this$[ebp]
	add	ecx, 448				; 000001c0H
	call	??0D3DXVECTOR3@@QAE@XZ			; D3DXVECTOR3::D3DXVECTOR3
	mov	ecx, DWORD PTR _this$[ebp]
	add	ecx, 460				; 000001ccH
	call	??0D3DXVECTOR3@@QAE@XZ			; D3DXVECTOR3::D3DXVECTOR3
	mov	ecx, DWORD PTR _this$[ebp]
	add	ecx, 472				; 000001d8H
	call	??0D3DXMATRIX@@QAE@XZ			; D3DXMATRIX::D3DXMATRIX

; 2509 :     m_fRadius = 1.0f;

	mov	eax, DWORD PTR _this$[ebp]
	movss	xmm0, DWORD PTR __real@3f800000
	movss	DWORD PTR [eax+128], xmm0

; 2510 :     m_vDefaultDir = D3DXVECTOR3(0,1,0);

	push	ecx
	movss	xmm0, DWORD PTR __real@00000000
	movss	DWORD PTR [esp], xmm0
	push	ecx
	movss	xmm0, DWORD PTR __real@3f800000
	movss	DWORD PTR [esp], xmm0
	push	ecx
	movss	xmm0, DWORD PTR __real@00000000
	movss	DWORD PTR [esp], xmm0
	lea	ecx, DWORD PTR $T1[ebp]
	call	??0D3DXVECTOR3@@QAE@MMM@Z		; D3DXVECTOR3::D3DXVECTOR3
	mov	ecx, DWORD PTR _this$[ebp]
	add	ecx, 448				; 000001c0H
	mov	edx, DWORD PTR [eax]
	mov	DWORD PTR [ecx], edx
	mov	edx, DWORD PTR [eax+4]
	mov	DWORD PTR [ecx+4], edx
	mov	eax, DWORD PTR [eax+8]
	mov	DWORD PTR [ecx+8], eax

; 2511 :     m_vCurrentDir = m_vDefaultDir;

	mov	eax, DWORD PTR _this$[ebp]
	add	eax, 448				; 000001c0H
	mov	ecx, DWORD PTR _this$[ebp]
	add	ecx, 460				; 000001ccH
	mov	edx, DWORD PTR [eax]
	mov	DWORD PTR [ecx], edx
	mov	edx, DWORD PTR [eax+4]
	mov	DWORD PTR [ecx+4], edx
	mov	eax, DWORD PTR [eax+8]
	mov	DWORD PTR [ecx+8], eax

; 2512 :     m_nRotateMask = MOUSE_RIGHT_BUTTON;

	mov	eax, DWORD PTR _this$[ebp]
	mov	DWORD PTR [eax+132], 4

; 2513 : 
; 2514 :     D3DXMatrixIdentity( &m_mView );

	mov	eax, DWORD PTR _this$[ebp]
	add	eax, 472				; 000001d8H
	push	eax
	call	?D3DXMatrixIdentity@@YAPAUD3DXMATRIX@@PAU1@@Z ; D3DXMatrixIdentity
	add	esp, 4

; 2515 :     D3DXMatrixIdentity( &m_mRot );

	mov	eax, DWORD PTR _this$[ebp]
	push	eax
	call	?D3DXMatrixIdentity@@YAPAUD3DXMATRIX@@PAU1@@Z ; D3DXMatrixIdentity
	add	esp, 4

; 2516 :     D3DXMatrixIdentity( &m_mRotSnapshot );

	mov	eax, DWORD PTR _this$[ebp]
	add	eax, 64					; 00000040H
	push	eax
	call	?D3DXMatrixIdentity@@YAPAUD3DXMATRIX@@PAU1@@Z ; D3DXMatrixIdentity
	add	esp, 4

; 2517 : }

	mov	eax, DWORD PTR _this$[ebp]
	pop	edi
	pop	esi
	pop	ebx
	mov	ecx, DWORD PTR __$ArrayPad$[ebp]
	xor	ecx, ebp
	call	@__security_check_cookie@4
	add	esp, 228				; 000000e4H
	cmp	ebp, esp
	call	__RTC_CheckEsp
	mov	esp, ebp
	pop	ebp
	ret	0
??0CDXUTDirectionWidget@@QAE@XZ ENDP			; CDXUTDirectionWidget::CDXUTDirectionWidget
_TEXT	ENDS
; Function compile flags: /Odtp /RTCsu /ZI
; File z:\sampsrc\02xu1\saco\d3d9\common\dxutmisc.h
;	COMDAT ?SetSizeInternal@?$CGrowableArray@PAULINE_NODE@CDXUTLineManager@@@@IAEJH@Z
_TEXT	SEGMENT
tv91 = -232						; size = 4
tv85 = -232						; size = 4
_pDataNew$1 = -32					; size = 4
_nGrowBy$2 = -20					; size = 4
_this$ = -8						; size = 4
_nNewMaxSize$ = 8					; size = 4
?SetSizeInternal@?$CGrowableArray@PAULINE_NODE@CDXUTLineManager@@@@IAEJH@Z PROC ; CGrowableArray<CDXUTLineManager::LINE_NODE *>::SetSizeInternal, COMDAT
; _this$ = ecx

; 670  : {

	push	ebp
	mov	ebp, esp
	sub	esp, 232				; 000000e8H
	push	ebx
	push	esi
	push	edi
	push	ecx
	lea	edi, DWORD PTR [ebp-232]
	mov	ecx, 58					; 0000003aH
	mov	eax, -858993460				; ccccccccH
	rep stosd
	pop	ecx
	mov	DWORD PTR _this$[ebp], ecx

; 671  :     if( nNewMaxSize < 0 )

	cmp	DWORD PTR _nNewMaxSize$[ebp], 0
	jge	SHORT $LN7@SetSizeInt

; 672  :     {
; 673  :         assert( false );

	xor	eax, eax
	jne	SHORT $LN10@SetSizeInt
	push	673					; 000002a1H
	push	OFFSET ??_C@_1FK@FIMIDMPE@?$AAz?$AA?3?$AA?2?$AAs?$AAa?$AAm?$AAp?$AAs?$AAr?$AAc?$AA?2?$AA0?$AA2?$AAx?$AAu?$AA1?$AA?2?$AAs?$AAa?$AAc?$AAo?$AA?2?$AAd?$AA3?$AAd?$AA9?$AA?2?$AAc?$AAo?$AAm?$AAm?$AAo@
	push	OFFSET ??_C@_1M@HLGKFCJM@?$AAf?$AAa?$AAl?$AAs?$AAe?$AA?$AA@
	call	__wassert
	add	esp, 12					; 0000000cH
$LN10@SetSizeInt:

; 674  :         return E_INVALIDARG;

	mov	eax, -2147024809			; 80070057H
	jmp	$LN8@SetSizeInt
$LN7@SetSizeInt:

; 675  :     }
; 676  : 
; 677  :     if( nNewMaxSize == 0 )

	cmp	DWORD PTR _nNewMaxSize$[ebp], 0
	jne	SHORT $LN6@SetSizeInt

; 678  :     {
; 679  :         // Shrink to 0 size & cleanup
; 680  :         if( m_pData )

	mov	eax, DWORD PTR _this$[ebp]
	cmp	DWORD PTR [eax], 0
	je	SHORT $LN5@SetSizeInt

; 681  :         {
; 682  :             free( m_pData );

	mov	eax, DWORD PTR _this$[ebp]
	mov	ecx, DWORD PTR [eax]
	push	ecx
	call	_free
	add	esp, 4

; 683  :             m_pData = NULL;

	mov	eax, DWORD PTR _this$[ebp]
	mov	DWORD PTR [eax], 0
$LN5@SetSizeInt:

; 684  :         }
; 685  : 
; 686  :         m_nMaxSize = 0;

	mov	eax, DWORD PTR _this$[ebp]
	mov	DWORD PTR [eax+8], 0

; 687  :         m_nSize = 0;

	mov	eax, DWORD PTR _this$[ebp]
	mov	DWORD PTR [eax+4], 0
	jmp	$LN4@SetSizeInt
$LN6@SetSizeInt:

; 688  :     }
; 689  :     else if( m_pData == NULL || nNewMaxSize > m_nMaxSize )

	mov	eax, DWORD PTR _this$[ebp]
	cmp	DWORD PTR [eax], 0
	je	SHORT $LN2@SetSizeInt
	mov	eax, DWORD PTR _this$[ebp]
	mov	ecx, DWORD PTR _nNewMaxSize$[ebp]
	cmp	ecx, DWORD PTR [eax+8]
	jle	$LN4@SetSizeInt
$LN2@SetSizeInt:

; 690  :     {
; 691  :         // Grow array
; 692  :         int nGrowBy = ( m_nMaxSize == 0 ) ? 16 : m_nMaxSize;

	mov	eax, DWORD PTR _this$[ebp]
	cmp	DWORD PTR [eax+8], 0
	jne	SHORT $LN11@SetSizeInt
	mov	DWORD PTR tv85[ebp], 16			; 00000010H
	jmp	SHORT $LN12@SetSizeInt
$LN11@SetSizeInt:
	mov	ecx, DWORD PTR _this$[ebp]
	mov	edx, DWORD PTR [ecx+8]
	mov	DWORD PTR tv85[ebp], edx
$LN12@SetSizeInt:
	mov	eax, DWORD PTR tv85[ebp]
	mov	DWORD PTR _nGrowBy$2[ebp], eax

; 693  :         nNewMaxSize = __max( nNewMaxSize, m_nMaxSize + nGrowBy );

	mov	eax, DWORD PTR _this$[ebp]
	mov	ecx, DWORD PTR [eax+8]
	add	ecx, DWORD PTR _nGrowBy$2[ebp]
	cmp	DWORD PTR _nNewMaxSize$[ebp], ecx
	jle	SHORT $LN13@SetSizeInt
	mov	edx, DWORD PTR _nNewMaxSize$[ebp]
	mov	DWORD PTR tv91[ebp], edx
	jmp	SHORT $LN14@SetSizeInt
$LN13@SetSizeInt:
	mov	eax, DWORD PTR _this$[ebp]
	mov	ecx, DWORD PTR [eax+8]
	add	ecx, DWORD PTR _nGrowBy$2[ebp]
	mov	DWORD PTR tv91[ebp], ecx
$LN14@SetSizeInt:
	mov	edx, DWORD PTR tv91[ebp]
	mov	DWORD PTR _nNewMaxSize$[ebp], edx

; 694  : 
; 695  :         TYPE* pDataNew = (TYPE*) realloc( m_pData, nNewMaxSize * sizeof(TYPE) );

	mov	eax, DWORD PTR _nNewMaxSize$[ebp]
	shl	eax, 2
	push	eax
	mov	ecx, DWORD PTR _this$[ebp]
	mov	edx, DWORD PTR [ecx]
	push	edx
	call	_realloc
	add	esp, 8
	mov	DWORD PTR _pDataNew$1[ebp], eax

; 696  :         if( pDataNew == NULL )

	cmp	DWORD PTR _pDataNew$1[ebp], 0
	jne	SHORT $LN1@SetSizeInt

; 697  :             return E_OUTOFMEMORY;

	mov	eax, -2147024882			; 8007000eH
	jmp	SHORT $LN8@SetSizeInt
$LN1@SetSizeInt:

; 698  : 
; 699  :         m_pData = pDataNew;

	mov	eax, DWORD PTR _this$[ebp]
	mov	ecx, DWORD PTR _pDataNew$1[ebp]
	mov	DWORD PTR [eax], ecx

; 700  :         m_nMaxSize = nNewMaxSize;

	mov	eax, DWORD PTR _this$[ebp]
	mov	ecx, DWORD PTR _nNewMaxSize$[ebp]
	mov	DWORD PTR [eax+8], ecx
$LN4@SetSizeInt:

; 701  :     }
; 702  : 
; 703  :     return S_OK;

	xor	eax, eax
$LN8@SetSizeInt:

; 704  : }

	pop	edi
	pop	esi
	pop	ebx
	add	esp, 232				; 000000e8H
	cmp	ebp, esp
	call	__RTC_CheckEsp
	mov	esp, ebp
	pop	ebp
	ret	4
?SetSizeInternal@?$CGrowableArray@PAULINE_NODE@CDXUTLineManager@@@@IAEJH@Z ENDP ; CGrowableArray<CDXUTLineManager::LINE_NODE *>::SetSizeInternal
_TEXT	ENDS
; Function compile flags: /Odtp /RTCsu /ZI
; File z:\sampsrc\02xu1\saco\d3d9\common\dxutmisc.h
;	COMDAT ?RemoveAll@?$CGrowableArray@PAULINE_NODE@CDXUTLineManager@@@@QAEXXZ
_TEXT	SEGMENT
_this$ = -8						; size = 4
?RemoveAll@?$CGrowableArray@PAULINE_NODE@CDXUTLineManager@@@@QAEXXZ PROC ; CGrowableArray<CDXUTLineManager::LINE_NODE *>::RemoveAll, COMDAT
; _this$ = ecx

; 47   :     void    RemoveAll() { SetSize(0); }

	push	ebp
	mov	ebp, esp
	sub	esp, 204				; 000000ccH
	push	ebx
	push	esi
	push	edi
	push	ecx
	lea	edi, DWORD PTR [ebp-204]
	mov	ecx, 51					; 00000033H
	mov	eax, -858993460				; ccccccccH
	rep stosd
	pop	ecx
	mov	DWORD PTR _this$[ebp], ecx
	push	0
	mov	ecx, DWORD PTR _this$[ebp]
	call	?SetSize@?$CGrowableArray@PAULINE_NODE@CDXUTLineManager@@@@QAEJH@Z ; CGrowableArray<CDXUTLineManager::LINE_NODE *>::SetSize
	pop	edi
	pop	esi
	pop	ebx
	add	esp, 204				; 000000ccH
	cmp	ebp, esp
	call	__RTC_CheckEsp
	mov	esp, ebp
	pop	ebp
	ret	0
?RemoveAll@?$CGrowableArray@PAULINE_NODE@CDXUTLineManager@@@@QAEXXZ ENDP ; CGrowableArray<CDXUTLineManager::LINE_NODE *>::RemoveAll
_TEXT	ENDS
; Function compile flags: /Odtp /RTCsu /ZI
; File z:\sampsrc\02xu1\saco\d3d9\common\dxutmisc.h
;	COMDAT ?GetSize@?$CGrowableArray@PAULINE_NODE@CDXUTLineManager@@@@QBEHXZ
_TEXT	SEGMENT
_this$ = -8						; size = 4
?GetSize@?$CGrowableArray@PAULINE_NODE@CDXUTLineManager@@@@QBEHXZ PROC ; CGrowableArray<CDXUTLineManager::LINE_NODE *>::GetSize, COMDAT
; _this$ = ecx

; 34   :     int     GetSize() const { return m_nSize; }

	push	ebp
	mov	ebp, esp
	sub	esp, 204				; 000000ccH
	push	ebx
	push	esi
	push	edi
	push	ecx
	lea	edi, DWORD PTR [ebp-204]
	mov	ecx, 51					; 00000033H
	mov	eax, -858993460				; ccccccccH
	rep stosd
	pop	ecx
	mov	DWORD PTR _this$[ebp], ecx
	mov	eax, DWORD PTR _this$[ebp]
	mov	eax, DWORD PTR [eax+4]
	pop	edi
	pop	esi
	pop	ebx
	mov	esp, ebp
	pop	ebp
	ret	0
?GetSize@?$CGrowableArray@PAULINE_NODE@CDXUTLineManager@@@@QBEHXZ ENDP ; CGrowableArray<CDXUTLineManager::LINE_NODE *>::GetSize
_TEXT	ENDS
; Function compile flags: /Odtp /RTCsu /ZI
; File z:\sampsrc\02xu1\saco\d3d9\common\dxutmisc.h
;	COMDAT ?GetAt@?$CGrowableArray@PAULINE_NODE@CDXUTLineManager@@@@QAEAAPAULINE_NODE@CDXUTLineManager@@H@Z
_TEXT	SEGMENT
_this$ = -8						; size = 4
_nIndex$ = 8						; size = 4
?GetAt@?$CGrowableArray@PAULINE_NODE@CDXUTLineManager@@@@QAEAAPAULINE_NODE@CDXUTLineManager@@H@Z PROC ; CGrowableArray<CDXUTLineManager::LINE_NODE *>::GetAt, COMDAT
; _this$ = ecx

; 33   :     TYPE&   GetAt( int nIndex ) { assert( nIndex >= 0 && nIndex < m_nSize ); return m_pData[nIndex]; }

	push	ebp
	mov	ebp, esp
	sub	esp, 204				; 000000ccH
	push	ebx
	push	esi
	push	edi
	push	ecx
	lea	edi, DWORD PTR [ebp-204]
	mov	ecx, 51					; 00000033H
	mov	eax, -858993460				; ccccccccH
	rep stosd
	pop	ecx
	mov	DWORD PTR _this$[ebp], ecx
	cmp	DWORD PTR _nIndex$[ebp], 0
	jl	SHORT $LN3@GetAt
	mov	eax, DWORD PTR _this$[ebp]
	mov	ecx, DWORD PTR _nIndex$[ebp]
	cmp	ecx, DWORD PTR [eax+4]
	jl	SHORT $LN4@GetAt
$LN3@GetAt:
	push	33					; 00000021H
	push	OFFSET ??_C@_1FK@FIMIDMPE@?$AAz?$AA?3?$AA?2?$AAs?$AAa?$AAm?$AAp?$AAs?$AAr?$AAc?$AA?2?$AA0?$AA2?$AAx?$AAu?$AA1?$AA?2?$AAs?$AAa?$AAc?$AAo?$AA?2?$AAd?$AA3?$AAd?$AA9?$AA?2?$AAc?$AAo?$AAm?$AAm?$AAo@
	push	OFFSET ??_C@_1EA@JHMKKLFC@?$AAn?$AAI?$AAn?$AAd?$AAe?$AAx?$AA?5?$AA?$DO?$AA?$DN?$AA?5?$AA0?$AA?5?$AA?$CG?$AA?$CG?$AA?5?$AAn?$AAI?$AAn?$AAd?$AAe?$AAx?$AA?5?$AA?$DM?$AA?5?$AAm?$AA_?$AAn?$AAS?$AAi?$AAz?$AAe?$AA?$AA@
	call	__wassert
	add	esp, 12					; 0000000cH
$LN4@GetAt:
	mov	eax, DWORD PTR _this$[ebp]
	mov	ecx, DWORD PTR [eax]
	mov	edx, DWORD PTR _nIndex$[ebp]
	lea	eax, DWORD PTR [ecx+edx*4]
	pop	edi
	pop	esi
	pop	ebx
	add	esp, 204				; 000000ccH
	cmp	ebp, esp
	call	__RTC_CheckEsp
	mov	esp, ebp
	pop	ebp
	ret	4
?GetAt@?$CGrowableArray@PAULINE_NODE@CDXUTLineManager@@@@QAEAAPAULINE_NODE@CDXUTLineManager@@H@Z ENDP ; CGrowableArray<CDXUTLineManager::LINE_NODE *>::GetAt
_TEXT	ENDS
; Function compile flags: /Odtp /RTCsu /ZI
; File z:\sampsrc\02xu1\saco\d3d9\common\dxutmisc.h
;	COMDAT ?SetAt@?$CGrowableArray@PAULINE_NODE@CDXUTLineManager@@@@QAEJHABQAULINE_NODE@CDXUTLineManager@@@Z
_TEXT	SEGMENT
_this$ = -8						; size = 4
_nIndex$ = 8						; size = 4
_value$ = 12						; size = 4
?SetAt@?$CGrowableArray@PAULINE_NODE@CDXUTLineManager@@@@QAEJHABQAULINE_NODE@CDXUTLineManager@@@Z PROC ; CGrowableArray<CDXUTLineManager::LINE_NODE *>::SetAt, COMDAT
; _this$ = ecx

; 791  : {

	push	ebp
	mov	ebp, esp
	sub	esp, 204				; 000000ccH
	push	ebx
	push	esi
	push	edi
	push	ecx
	lea	edi, DWORD PTR [ebp-204]
	mov	ecx, 51					; 00000033H
	mov	eax, -858993460				; ccccccccH
	rep stosd
	pop	ecx
	mov	DWORD PTR _this$[ebp], ecx

; 792  :     // Validate arguments
; 793  :     if( nIndex < 0 ||
; 794  :         nIndex >= m_nSize )

	cmp	DWORD PTR _nIndex$[ebp], 0
	jl	SHORT $LN1@SetAt
	mov	eax, DWORD PTR _this$[ebp]
	mov	ecx, DWORD PTR _nIndex$[ebp]
	cmp	ecx, DWORD PTR [eax+4]
	jl	SHORT $LN2@SetAt
$LN1@SetAt:

; 795  :     {
; 796  :         assert( false );

	xor	eax, eax
	jne	SHORT $LN5@SetAt
	push	796					; 0000031cH
	push	OFFSET ??_C@_1FK@FIMIDMPE@?$AAz?$AA?3?$AA?2?$AAs?$AAa?$AAm?$AAp?$AAs?$AAr?$AAc?$AA?2?$AA0?$AA2?$AAx?$AAu?$AA1?$AA?2?$AAs?$AAa?$AAc?$AAo?$AA?2?$AAd?$AA3?$AAd?$AA9?$AA?2?$AAc?$AAo?$AAm?$AAm?$AAo@
	push	OFFSET ??_C@_1M@HLGKFCJM@?$AAf?$AAa?$AAl?$AAs?$AAe?$AA?$AA@
	call	__wassert
	add	esp, 12					; 0000000cH
$LN5@SetAt:

; 797  :         return E_INVALIDARG;

	mov	eax, -2147024809			; 80070057H
	jmp	SHORT $LN3@SetAt
$LN2@SetAt:

; 798  :     }
; 799  : 
; 800  :     m_pData[nIndex] = value;

	mov	eax, DWORD PTR _this$[ebp]
	mov	ecx, DWORD PTR [eax]
	mov	edx, DWORD PTR _nIndex$[ebp]
	mov	eax, DWORD PTR _value$[ebp]
	mov	eax, DWORD PTR [eax]
	mov	DWORD PTR [ecx+edx*4], eax

; 801  :     return S_OK;

	xor	eax, eax
$LN3@SetAt:

; 802  : }

	pop	edi
	pop	esi
	pop	ebx
	add	esp, 204				; 000000ccH
	cmp	ebp, esp
	call	__RTC_CheckEsp
	mov	esp, ebp
	pop	ebp
	ret	8
?SetAt@?$CGrowableArray@PAULINE_NODE@CDXUTLineManager@@@@QAEJHABQAULINE_NODE@CDXUTLineManager@@@Z ENDP ; CGrowableArray<CDXUTLineManager::LINE_NODE *>::SetAt
_TEXT	ENDS
; Function compile flags: /Odtp /RTCsu /ZI
; File z:\sampsrc\02xu1\saco\d3d9\common\dxutmisc.h
;	COMDAT ?Add@?$CGrowableArray@PAULINE_NODE@CDXUTLineManager@@@@QAEJABQAULINE_NODE@CDXUTLineManager@@@Z
_TEXT	SEGMENT
$T1 = -224						; size = 4
_hr$ = -20						; size = 4
_this$ = -8						; size = 4
_value$ = 8						; size = 4
?Add@?$CGrowableArray@PAULINE_NODE@CDXUTLineManager@@@@QAEJABQAULINE_NODE@CDXUTLineManager@@@Z PROC ; CGrowableArray<CDXUTLineManager::LINE_NODE *>::Add, COMDAT
; _this$ = ecx

; 740  : {

	push	ebp
	mov	ebp, esp
	sub	esp, 228				; 000000e4H
	push	ebx
	push	esi
	push	edi
	push	ecx
	lea	edi, DWORD PTR [ebp-228]
	mov	ecx, 57					; 00000039H
	mov	eax, -858993460				; ccccccccH
	rep stosd
	pop	ecx
	mov	DWORD PTR _this$[ebp], ecx

; 741  :     HRESULT hr;
; 742  :     if( FAILED( hr = SetSizeInternal( m_nSize + 1 ) ) )

	mov	eax, DWORD PTR _this$[ebp]
	mov	ecx, DWORD PTR [eax+4]
	add	ecx, 1
	push	ecx
	mov	ecx, DWORD PTR _this$[ebp]
	call	?SetSizeInternal@?$CGrowableArray@PAULINE_NODE@CDXUTLineManager@@@@IAEJH@Z ; CGrowableArray<CDXUTLineManager::LINE_NODE *>::SetSizeInternal
	mov	DWORD PTR _hr$[ebp], eax
	cmp	DWORD PTR _hr$[ebp], 0
	jge	SHORT $LN1@Add

; 743  :         return hr;

	mov	eax, DWORD PTR _hr$[ebp]
	jmp	SHORT $LN2@Add
$LN1@Add:

; 744  : 
; 745  :     // Construct the new element
; 746  :     ::new (&m_pData[m_nSize]) TYPE;

	mov	eax, DWORD PTR _this$[ebp]
	mov	ecx, DWORD PTR [eax+4]
	mov	edx, DWORD PTR _this$[ebp]
	mov	eax, DWORD PTR [edx]
	lea	ecx, DWORD PTR [eax+ecx*4]
	push	ecx
	push	4
	call	??2@YAPAXIPAX@Z				; operator new
	add	esp, 8
	mov	DWORD PTR $T1[ebp], eax

; 747  : 
; 748  :     // Assign
; 749  :     m_pData[m_nSize] = value;

	mov	eax, DWORD PTR _this$[ebp]
	mov	ecx, DWORD PTR [eax+4]
	mov	edx, DWORD PTR _this$[ebp]
	mov	eax, DWORD PTR [edx]
	mov	edx, DWORD PTR _value$[ebp]
	mov	edx, DWORD PTR [edx]
	mov	DWORD PTR [eax+ecx*4], edx

; 750  :     ++m_nSize;

	mov	eax, DWORD PTR _this$[ebp]
	mov	ecx, DWORD PTR [eax+4]
	add	ecx, 1
	mov	edx, DWORD PTR _this$[ebp]
	mov	DWORD PTR [edx+4], ecx

; 751  : 
; 752  :     return S_OK;

	xor	eax, eax
$LN2@Add:

; 753  : }

	pop	edi
	pop	esi
	pop	ebx
	add	esp, 228				; 000000e4H
	cmp	ebp, esp
	call	__RTC_CheckEsp
	mov	esp, ebp
	pop	ebp
	ret	4
?Add@?$CGrowableArray@PAULINE_NODE@CDXUTLineManager@@@@QAEJABQAULINE_NODE@CDXUTLineManager@@@Z ENDP ; CGrowableArray<CDXUTLineManager::LINE_NODE *>::Add
_TEXT	ENDS
; Function compile flags: /Odtp /RTCsu /ZI
; File z:\sampsrc\02xu1\saco\d3d9\common\dxutmisc.h
;	COMDAT ?SetSize@?$CGrowableArray@PAULINE_NODE@CDXUTLineManager@@@@QAEJH@Z
_TEXT	SEGMENT
$T1 = -260						; size = 4
_i$2 = -56						; size = 4
_hr$ = -44						; size = 4
_i$3 = -32						; size = 4
_nOldSize$ = -20					; size = 4
_this$ = -8						; size = 4
_nNewMaxSize$ = 8					; size = 4
?SetSize@?$CGrowableArray@PAULINE_NODE@CDXUTLineManager@@@@QAEJH@Z PROC ; CGrowableArray<CDXUTLineManager::LINE_NODE *>::SetSize, COMDAT
; _this$ = ecx

; 710  : {

	push	ebp
	mov	ebp, esp
	sub	esp, 264				; 00000108H
	push	ebx
	push	esi
	push	edi
	push	ecx
	lea	edi, DWORD PTR [ebp-264]
	mov	ecx, 66					; 00000042H
	mov	eax, -858993460				; ccccccccH
	rep stosd
	pop	ecx
	mov	DWORD PTR _this$[ebp], ecx

; 711  :     int nOldSize = m_nSize;

	mov	eax, DWORD PTR _this$[ebp]
	mov	ecx, DWORD PTR [eax+4]
	mov	DWORD PTR _nOldSize$[ebp], ecx

; 712  : 
; 713  :     if( nOldSize > nNewMaxSize )

	mov	eax, DWORD PTR _nOldSize$[ebp]
	cmp	eax, DWORD PTR _nNewMaxSize$[ebp]
	jle	SHORT $LN8@SetSize

; 714  :     {
; 715  :         // Removing elements. Call dtor.
; 716  : 
; 717  :         for( int i = nNewMaxSize; i < nOldSize; ++i )

	mov	eax, DWORD PTR _nNewMaxSize$[ebp]
	mov	DWORD PTR _i$3[ebp], eax
	jmp	SHORT $LN7@SetSize
$LN6@SetSize:
	mov	eax, DWORD PTR _i$3[ebp]
	add	eax, 1
	mov	DWORD PTR _i$3[ebp], eax
$LN7@SetSize:
	mov	eax, DWORD PTR _i$3[ebp]
	cmp	eax, DWORD PTR _nOldSize$[ebp]
	jge	SHORT $LN8@SetSize

; 718  :             m_pData[i].~TYPE();

	jmp	SHORT $LN6@SetSize
$LN8@SetSize:

; 719  :     }
; 720  : 
; 721  :     // Adjust buffer.  Note that there's no need to check for error
; 722  :     // since if it happens, nOldSize == nNewMaxSize will be true.)
; 723  :     HRESULT hr = SetSizeInternal( nNewMaxSize );

	mov	eax, DWORD PTR _nNewMaxSize$[ebp]
	push	eax
	mov	ecx, DWORD PTR _this$[ebp]
	call	?SetSizeInternal@?$CGrowableArray@PAULINE_NODE@CDXUTLineManager@@@@IAEJH@Z ; CGrowableArray<CDXUTLineManager::LINE_NODE *>::SetSizeInternal
	mov	DWORD PTR _hr$[ebp], eax

; 724  : 
; 725  :     if( nOldSize < nNewMaxSize )

	mov	eax, DWORD PTR _nOldSize$[ebp]
	cmp	eax, DWORD PTR _nNewMaxSize$[ebp]
	jge	SHORT $LN4@SetSize

; 726  :     {
; 727  :         // Adding elements. Call ctor.
; 728  : 
; 729  :         for( int i = nOldSize; i < nNewMaxSize; ++i )

	mov	eax, DWORD PTR _nOldSize$[ebp]
	mov	DWORD PTR _i$2[ebp], eax
	jmp	SHORT $LN3@SetSize
$LN2@SetSize:
	mov	eax, DWORD PTR _i$2[ebp]
	add	eax, 1
	mov	DWORD PTR _i$2[ebp], eax
$LN3@SetSize:
	mov	eax, DWORD PTR _i$2[ebp]
	cmp	eax, DWORD PTR _nNewMaxSize$[ebp]
	jge	SHORT $LN4@SetSize

; 730  :             ::new (&m_pData[i]) TYPE;

	mov	eax, DWORD PTR _this$[ebp]
	mov	ecx, DWORD PTR [eax]
	mov	edx, DWORD PTR _i$2[ebp]
	lea	eax, DWORD PTR [ecx+edx*4]
	push	eax
	push	4
	call	??2@YAPAXIPAX@Z				; operator new
	add	esp, 8
	mov	DWORD PTR $T1[ebp], eax
	jmp	SHORT $LN2@SetSize
$LN4@SetSize:

; 731  :     }
; 732  : 
; 733  :     return hr;

	mov	eax, DWORD PTR _hr$[ebp]

; 734  : }

	pop	edi
	pop	esi
	pop	ebx
	add	esp, 264				; 00000108H
	cmp	ebp, esp
	call	__RTC_CheckEsp
	mov	esp, ebp
	pop	ebp
	ret	4
?SetSize@?$CGrowableArray@PAULINE_NODE@CDXUTLineManager@@@@QAEJH@Z ENDP ; CGrowableArray<CDXUTLineManager::LINE_NODE *>::SetSize
_TEXT	ENDS
; Function compile flags: /Odtp /RTCsu /ZI
; File z:\sampsrc\02xu1\saco\d3d9\common\dxutmisc.h
;	COMDAT ??1?$CGrowableArray@PAULINE_NODE@CDXUTLineManager@@@@QAE@XZ
_TEXT	SEGMENT
_this$ = -8						; size = 4
??1?$CGrowableArray@PAULINE_NODE@CDXUTLineManager@@@@QAE@XZ PROC ; CGrowableArray<CDXUTLineManager::LINE_NODE *>::~CGrowableArray<CDXUTLineManager::LINE_NODE *>, COMDAT
; _this$ = ecx

; 22   :     ~CGrowableArray() { RemoveAll(); }

	push	ebp
	mov	ebp, esp
	sub	esp, 204				; 000000ccH
	push	ebx
	push	esi
	push	edi
	push	ecx
	lea	edi, DWORD PTR [ebp-204]
	mov	ecx, 51					; 00000033H
	mov	eax, -858993460				; ccccccccH
	rep stosd
	pop	ecx
	mov	DWORD PTR _this$[ebp], ecx
	mov	ecx, DWORD PTR _this$[ebp]
	call	?RemoveAll@?$CGrowableArray@PAULINE_NODE@CDXUTLineManager@@@@QAEXXZ ; CGrowableArray<CDXUTLineManager::LINE_NODE *>::RemoveAll
	pop	edi
	pop	esi
	pop	ebx
	add	esp, 204				; 000000ccH
	cmp	ebp, esp
	call	__RTC_CheckEsp
	mov	esp, ebp
	pop	ebp
	ret	0
??1?$CGrowableArray@PAULINE_NODE@CDXUTLineManager@@@@QAE@XZ ENDP ; CGrowableArray<CDXUTLineManager::LINE_NODE *>::~CGrowableArray<CDXUTLineManager::LINE_NODE *>
_TEXT	ENDS
; Function compile flags: /Odtp /RTCsu /ZI
; File z:\sampsrc\02xu1\saco\d3d9\common\dxutmisc.h
;	COMDAT ??0?$CGrowableArray@PAULINE_NODE@CDXUTLineManager@@@@QAE@XZ
_TEXT	SEGMENT
_this$ = -8						; size = 4
??0?$CGrowableArray@PAULINE_NODE@CDXUTLineManager@@@@QAE@XZ PROC ; CGrowableArray<CDXUTLineManager::LINE_NODE *>::CGrowableArray<CDXUTLineManager::LINE_NODE *>, COMDAT
; _this$ = ecx

; 20   :     CGrowableArray()  { m_pData = NULL; m_nSize = 0; m_nMaxSize = 0; }

	push	ebp
	mov	ebp, esp
	sub	esp, 204				; 000000ccH
	push	ebx
	push	esi
	push	edi
	push	ecx
	lea	edi, DWORD PTR [ebp-204]
	mov	ecx, 51					; 00000033H
	mov	eax, -858993460				; ccccccccH
	rep stosd
	pop	ecx
	mov	DWORD PTR _this$[ebp], ecx
	mov	eax, DWORD PTR _this$[ebp]
	mov	DWORD PTR [eax], 0
	mov	eax, DWORD PTR _this$[ebp]
	mov	DWORD PTR [eax+4], 0
	mov	eax, DWORD PTR _this$[ebp]
	mov	DWORD PTR [eax+8], 0
	mov	eax, DWORD PTR _this$[ebp]
	pop	edi
	pop	esi
	pop	ebx
	mov	esp, ebp
	pop	ebp
	ret	0
??0?$CGrowableArray@PAULINE_NODE@CDXUTLineManager@@@@QAE@XZ ENDP ; CGrowableArray<CDXUTLineManager::LINE_NODE *>::CGrowableArray<CDXUTLineManager::LINE_NODE *>
_TEXT	ENDS
; Function compile flags: /Odtp /RTCsu /ZI
; File z:\sampsrc\02xu1\saco\d3d9\common\dxutmisc.cpp
;	COMDAT ?RemoveAllLines@CDXUTLineManager@@QAEJXZ
_TEXT	SEGMENT
$T1 = -248						; size = 4
$T2 = -236						; size = 4
_pLineNode$3 = -32					; size = 4
_i$4 = -20						; size = 4
_this$ = -8						; size = 4
?RemoveAllLines@CDXUTLineManager@@QAEJXZ PROC		; CDXUTLineManager::RemoveAllLines, COMDAT
; _this$ = ecx

; 2395 : {

	push	ebp
	mov	ebp, esp
	sub	esp, 252				; 000000fcH
	push	ebx
	push	esi
	push	edi
	push	ecx
	lea	edi, DWORD PTR [ebp-252]
	mov	ecx, 63					; 0000003fH
	mov	eax, -858993460				; ccccccccH
	rep stosd
	pop	ecx
	mov	DWORD PTR _this$[ebp], ecx

; 2396 :     for( int i=0; i<m_LinesList.GetSize(); i++ )

	mov	DWORD PTR _i$4[ebp], 0
	jmp	SHORT $LN5@RemoveAllL
$LN4@RemoveAllL:
	mov	eax, DWORD PTR _i$4[ebp]
	add	eax, 1
	mov	DWORD PTR _i$4[ebp], eax
$LN5@RemoveAllL:
	mov	ecx, DWORD PTR _this$[ebp]
	call	?GetSize@?$CGrowableArray@PAULINE_NODE@CDXUTLineManager@@@@QBEHXZ ; CGrowableArray<CDXUTLineManager::LINE_NODE *>::GetSize
	cmp	DWORD PTR _i$4[ebp], eax
	jge	SHORT $LN3@RemoveAllL

; 2397 :     {
; 2398 :         LINE_NODE* pLineNode = m_LinesList.GetAt(i);

	mov	eax, DWORD PTR _i$4[ebp]
	push	eax
	mov	ecx, DWORD PTR _this$[ebp]
	call	?GetAt@?$CGrowableArray@PAULINE_NODE@CDXUTLineManager@@@@QAEAAPAULINE_NODE@CDXUTLineManager@@H@Z ; CGrowableArray<CDXUTLineManager::LINE_NODE *>::GetAt
	mov	ecx, DWORD PTR [eax]
	mov	DWORD PTR _pLineNode$3[ebp], ecx

; 2399 :         if( pLineNode )

	cmp	DWORD PTR _pLineNode$3[ebp], 0
	je	SHORT $LN2@RemoveAllL

; 2400 :         {
; 2401 :             SAFE_DELETE_ARRAY( pLineNode->pVertexList );

	mov	eax, DWORD PTR _pLineNode$3[ebp]
	cmp	DWORD PTR [eax+17], 0
	je	SHORT $LN1@RemoveAllL
	mov	eax, DWORD PTR _pLineNode$3[ebp]
	mov	ecx, DWORD PTR [eax+17]
	mov	DWORD PTR $T1[ebp], ecx
	mov	edx, DWORD PTR $T1[ebp]
	push	edx
	call	??_V@YAXPAX@Z				; operator delete[]
	add	esp, 4
	mov	eax, DWORD PTR _pLineNode$3[ebp]
	mov	DWORD PTR [eax+17], 0
$LN1@RemoveAllL:

; 2402 :             delete pLineNode;

	mov	eax, DWORD PTR _pLineNode$3[ebp]
	mov	DWORD PTR $T2[ebp], eax
	mov	ecx, DWORD PTR $T2[ebp]
	push	ecx
	call	??3@YAXPAX@Z				; operator delete
	add	esp, 4
$LN2@RemoveAllL:

; 2403 :         }
; 2404 :     }

	jmp	SHORT $LN4@RemoveAllL
$LN3@RemoveAllL:

; 2405 :     m_LinesList.RemoveAll();

	mov	ecx, DWORD PTR _this$[ebp]
	call	?RemoveAll@?$CGrowableArray@PAULINE_NODE@CDXUTLineManager@@@@QAEXXZ ; CGrowableArray<CDXUTLineManager::LINE_NODE *>::RemoveAll

; 2406 : 
; 2407 :     return S_OK;

	xor	eax, eax

; 2408 : }

	pop	edi
	pop	esi
	pop	ebx
	add	esp, 252				; 000000fcH
	cmp	ebp, esp
	call	__RTC_CheckEsp
	mov	esp, ebp
	pop	ebp
	ret	0
?RemoveAllLines@CDXUTLineManager@@QAEJXZ ENDP		; CDXUTLineManager::RemoveAllLines
_TEXT	ENDS
; Function compile flags: /Odtp /RTCsu /ZI
; File z:\sampsrc\02xu1\saco\d3d9\common\dxutmisc.cpp
;	COMDAT ?RemoveLine@CDXUTLineManager@@QAEJH@Z
_TEXT	SEGMENT
$T1 = -260						; size = 4
$T2 = -248						; size = 4
$T3 = -236						; size = 4
_pLineNode$4 = -32					; size = 4
_i$5 = -20						; size = 4
_this$ = -8						; size = 4
_nLineID$ = 8						; size = 4
?RemoveLine@CDXUTLineManager@@QAEJH@Z PROC		; CDXUTLineManager::RemoveLine, COMDAT
; _this$ = ecx

; 2377 : {

	push	ebp
	mov	ebp, esp
	sub	esp, 264				; 00000108H
	push	ebx
	push	esi
	push	edi
	push	ecx
	lea	edi, DWORD PTR [ebp-264]
	mov	ecx, 66					; 00000042H
	mov	eax, -858993460				; ccccccccH
	rep stosd
	pop	ecx
	mov	DWORD PTR _this$[ebp], ecx

; 2378 :     for( int i=0; i<m_LinesList.GetSize(); i++ )

	mov	DWORD PTR _i$5[ebp], 0
	jmp	SHORT $LN5@RemoveLine
$LN4@RemoveLine:
	mov	eax, DWORD PTR _i$5[ebp]
	add	eax, 1
	mov	DWORD PTR _i$5[ebp], eax
$LN5@RemoveLine:
	mov	ecx, DWORD PTR _this$[ebp]
	call	?GetSize@?$CGrowableArray@PAULINE_NODE@CDXUTLineManager@@@@QBEHXZ ; CGrowableArray<CDXUTLineManager::LINE_NODE *>::GetSize
	cmp	DWORD PTR _i$5[ebp], eax
	jge	$LN3@RemoveLine

; 2379 :     {
; 2380 :         LINE_NODE* pLineNode = m_LinesList.GetAt(i);

	mov	eax, DWORD PTR _i$5[ebp]
	push	eax
	mov	ecx, DWORD PTR _this$[ebp]
	call	?GetAt@?$CGrowableArray@PAULINE_NODE@CDXUTLineManager@@@@QAEAAPAULINE_NODE@CDXUTLineManager@@H@Z ; CGrowableArray<CDXUTLineManager::LINE_NODE *>::GetAt
	mov	ecx, DWORD PTR [eax]
	mov	DWORD PTR _pLineNode$4[ebp], ecx

; 2381 :         if( pLineNode && pLineNode->nLineID == nLineID )

	cmp	DWORD PTR _pLineNode$4[ebp], 0
	je	SHORT $LN2@RemoveLine
	mov	eax, DWORD PTR _pLineNode$4[ebp]
	mov	ecx, DWORD PTR [eax]
	cmp	ecx, DWORD PTR _nLineID$[ebp]
	jne	SHORT $LN2@RemoveLine

; 2382 :         {
; 2383 :             SAFE_DELETE_ARRAY( pLineNode->pVertexList );

	mov	eax, DWORD PTR _pLineNode$4[ebp]
	cmp	DWORD PTR [eax+17], 0
	je	SHORT $LN1@RemoveLine
	mov	eax, DWORD PTR _pLineNode$4[ebp]
	mov	ecx, DWORD PTR [eax+17]
	mov	DWORD PTR $T1[ebp], ecx
	mov	edx, DWORD PTR $T1[ebp]
	push	edx
	call	??_V@YAXPAX@Z				; operator delete[]
	add	esp, 4
	mov	eax, DWORD PTR _pLineNode$4[ebp]
	mov	DWORD PTR [eax+17], 0
$LN1@RemoveLine:

; 2384 :             delete pLineNode;

	mov	eax, DWORD PTR _pLineNode$4[ebp]
	mov	DWORD PTR $T2[ebp], eax
	mov	ecx, DWORD PTR $T2[ebp]
	push	ecx
	call	??3@YAXPAX@Z				; operator delete
	add	esp, 4

; 2385 :             m_LinesList.SetAt(i, NULL);

	mov	DWORD PTR $T3[ebp], 0
	lea	eax, DWORD PTR $T3[ebp]
	push	eax
	mov	ecx, DWORD PTR _i$5[ebp]
	push	ecx
	mov	ecx, DWORD PTR _this$[ebp]
	call	?SetAt@?$CGrowableArray@PAULINE_NODE@CDXUTLineManager@@@@QAEJHABQAULINE_NODE@CDXUTLineManager@@@Z ; CGrowableArray<CDXUTLineManager::LINE_NODE *>::SetAt
$LN2@RemoveLine:

; 2386 :         }
; 2387 :     }

	jmp	$LN4@RemoveLine
$LN3@RemoveLine:

; 2388 : 
; 2389 :     return S_OK;

	xor	eax, eax

; 2390 : }

	pop	edi
	pop	esi
	pop	ebx
	add	esp, 264				; 00000108H
	cmp	ebp, esp
	call	__RTC_CheckEsp
	mov	esp, ebp
	pop	ebp
	ret	4
?RemoveLine@CDXUTLineManager@@QAEJH@Z ENDP		; CDXUTLineManager::RemoveLine
_TEXT	ENDS
; Function compile flags: /Odtp /RTCsu /ZI
; File z:\sampsrc\02xu1\saco\d3d9\common\dxutmisc.cpp
;	COMDAT ?AddRect@CDXUTLineManager@@QAEJPAHUtagRECT@@KMM_N@Z
_TEXT	SEGMENT
_vertexList$1 = -132					; size = 40
_vertexList$2 = -84					; size = 64
_this$ = -12						; size = 4
__$ArrayPad$ = -4					; size = 4
_pnLineID$ = 8						; size = 4
_rc$ = 12						; size = 16
_Color$ = 28						; size = 4
_fWidth$ = 32						; size = 4
_fScaleRatio$ = 36					; size = 4
_bAntiAlias$ = 40					; size = 1
?AddRect@CDXUTLineManager@@QAEJPAHUtagRECT@@KMM_N@Z PROC ; CDXUTLineManager::AddRect, COMDAT
; _this$ = ecx

; 2320 : {

	push	ebp
	mov	ebp, esp
	sub	esp, 328				; 00000148H
	push	ebx
	push	esi
	push	edi
	push	ecx
	lea	edi, DWORD PTR [ebp-328]
	mov	ecx, 82					; 00000052H
	mov	eax, -858993460				; ccccccccH
	rep stosd
	pop	ecx
	mov	eax, DWORD PTR ___security_cookie
	xor	eax, ebp
	mov	DWORD PTR __$ArrayPad$[ebp], eax
	mov	DWORD PTR _this$[ebp], ecx

; 2321 :     if( fWidth > 2.0f )

	movss	xmm0, DWORD PTR _fWidth$[ebp]
	comiss	xmm0, DWORD PTR __real@40000000
	jbe	$LN2@AddRect

; 2322 :     {
; 2323 :         D3DXVECTOR2 vertexList[8];

	push	OFFSET ??0D3DXVECTOR2@@QAE@XZ		; D3DXVECTOR2::D3DXVECTOR2
	push	8
	push	8
	lea	eax, DWORD PTR _vertexList$2[ebp]
	push	eax
	call	??_H@YGXPAXIHP6EPAX0@Z@Z

; 2324 : 
; 2325 :         vertexList[0].x = (float)rc.left;

	cvtsi2ss xmm0, DWORD PTR _rc$[ebp]
	mov	eax, 8
	imul	ecx, eax, 0
	movss	DWORD PTR _vertexList$2[ebp+ecx], xmm0

; 2326 :         vertexList[0].y = (float)rc.top - (fWidth/2.0f);

	cvtsi2ss xmm0, DWORD PTR _rc$[ebp+4]
	movss	xmm1, DWORD PTR _fWidth$[ebp]
	divss	xmm1, DWORD PTR __real@40000000
	subss	xmm0, xmm1
	mov	eax, 8
	imul	ecx, eax, 0
	movss	DWORD PTR _vertexList$2[ebp+ecx+4], xmm0

; 2327 : 
; 2328 :         vertexList[1].x = (float)rc.left;

	cvtsi2ss xmm0, DWORD PTR _rc$[ebp]
	mov	eax, 8
	shl	eax, 0
	movss	DWORD PTR _vertexList$2[ebp+eax], xmm0

; 2329 :         vertexList[1].y = (float)rc.bottom + (fWidth/2.0f);

	cvtsi2ss xmm0, DWORD PTR _rc$[ebp+12]
	movss	xmm1, DWORD PTR _fWidth$[ebp]
	divss	xmm1, DWORD PTR __real@40000000
	addss	xmm0, xmm1
	mov	eax, 8
	shl	eax, 0
	movss	DWORD PTR _vertexList$2[ebp+eax+4], xmm0

; 2330 : 
; 2331 :         vertexList[2].x = (float)rc.left;

	cvtsi2ss xmm0, DWORD PTR _rc$[ebp]
	mov	eax, 8
	shl	eax, 1
	movss	DWORD PTR _vertexList$2[ebp+eax], xmm0

; 2332 :         vertexList[2].y = (float)rc.bottom - 0.5f;

	cvtsi2ss xmm0, DWORD PTR _rc$[ebp+12]
	subss	xmm0, DWORD PTR __real@3f000000
	mov	eax, 8
	shl	eax, 1
	movss	DWORD PTR _vertexList$2[ebp+eax+4], xmm0

; 2333 : 
; 2334 :         vertexList[3].x = (float)rc.right;

	cvtsi2ss xmm0, DWORD PTR _rc$[ebp+8]
	mov	eax, 8
	imul	ecx, eax, 3
	movss	DWORD PTR _vertexList$2[ebp+ecx], xmm0

; 2335 :         vertexList[3].y = (float)rc.bottom - 0.5f;

	cvtsi2ss xmm0, DWORD PTR _rc$[ebp+12]
	subss	xmm0, DWORD PTR __real@3f000000
	mov	eax, 8
	imul	ecx, eax, 3
	movss	DWORD PTR _vertexList$2[ebp+ecx+4], xmm0

; 2336 : 
; 2337 :         vertexList[4].x = (float)rc.right;

	cvtsi2ss xmm0, DWORD PTR _rc$[ebp+8]
	mov	eax, 8
	shl	eax, 2
	movss	DWORD PTR _vertexList$2[ebp+eax], xmm0

; 2338 :         vertexList[4].y = (float)rc.bottom + (fWidth/2.0f);

	cvtsi2ss xmm0, DWORD PTR _rc$[ebp+12]
	movss	xmm1, DWORD PTR _fWidth$[ebp]
	divss	xmm1, DWORD PTR __real@40000000
	addss	xmm0, xmm1
	mov	eax, 8
	shl	eax, 2
	movss	DWORD PTR _vertexList$2[ebp+eax+4], xmm0

; 2339 : 
; 2340 :         vertexList[5].x = (float)rc.right;

	cvtsi2ss xmm0, DWORD PTR _rc$[ebp+8]
	mov	eax, 8
	imul	ecx, eax, 5
	movss	DWORD PTR _vertexList$2[ebp+ecx], xmm0

; 2341 :         vertexList[5].y = (float)rc.top - (fWidth/2.0f);

	cvtsi2ss xmm0, DWORD PTR _rc$[ebp+4]
	movss	xmm1, DWORD PTR _fWidth$[ebp]
	divss	xmm1, DWORD PTR __real@40000000
	subss	xmm0, xmm1
	mov	eax, 8
	imul	ecx, eax, 5
	movss	DWORD PTR _vertexList$2[ebp+ecx+4], xmm0

; 2342 : 
; 2343 :         vertexList[6].x = (float)rc.right;

	cvtsi2ss xmm0, DWORD PTR _rc$[ebp+8]
	mov	eax, 8
	imul	ecx, eax, 6
	movss	DWORD PTR _vertexList$2[ebp+ecx], xmm0

; 2344 :         vertexList[6].y = (float)rc.top;

	cvtsi2ss xmm0, DWORD PTR _rc$[ebp+4]
	mov	eax, 8
	imul	ecx, eax, 6
	movss	DWORD PTR _vertexList$2[ebp+ecx+4], xmm0

; 2345 : 
; 2346 :         vertexList[7].x = (float)rc.left;

	cvtsi2ss xmm0, DWORD PTR _rc$[ebp]
	mov	eax, 8
	imul	ecx, eax, 7
	movss	DWORD PTR _vertexList$2[ebp+ecx], xmm0

; 2347 :         vertexList[7].y = (float)rc.top;

	cvtsi2ss xmm0, DWORD PTR _rc$[ebp+4]
	mov	eax, 8
	imul	ecx, eax, 7
	movss	DWORD PTR _vertexList$2[ebp+ecx+4], xmm0

; 2348 :         
; 2349 :         return AddLine( pnLineID, vertexList, 8, Color, fWidth, fScaleRatio, bAntiAlias );

	movzx	eax, BYTE PTR _bAntiAlias$[ebp]
	push	eax
	push	ecx
	movss	xmm0, DWORD PTR _fScaleRatio$[ebp]
	movss	DWORD PTR [esp], xmm0
	push	ecx
	movss	xmm0, DWORD PTR _fWidth$[ebp]
	movss	DWORD PTR [esp], xmm0
	mov	ecx, DWORD PTR _Color$[ebp]
	push	ecx
	push	8
	lea	edx, DWORD PTR _vertexList$2[ebp]
	push	edx
	mov	eax, DWORD PTR _pnLineID$[ebp]
	push	eax
	mov	ecx, DWORD PTR _this$[ebp]
	call	?AddLine@CDXUTLineManager@@QAEJPAHPAUD3DXVECTOR2@@KKMM_N@Z ; CDXUTLineManager::AddLine
	jmp	$LN1@AddRect

; 2350 :     }
; 2351 :     else

	jmp	$LN1@AddRect
$LN2@AddRect:

; 2352 :     {
; 2353 :         D3DXVECTOR2 vertexList[5];

	push	OFFSET ??0D3DXVECTOR2@@QAE@XZ		; D3DXVECTOR2::D3DXVECTOR2
	push	5
	push	8
	lea	eax, DWORD PTR _vertexList$1[ebp]
	push	eax
	call	??_H@YGXPAXIHP6EPAX0@Z@Z

; 2354 :         vertexList[0].x = (float)rc.left;

	cvtsi2ss xmm0, DWORD PTR _rc$[ebp]
	mov	eax, 8
	imul	ecx, eax, 0
	movss	DWORD PTR _vertexList$1[ebp+ecx], xmm0

; 2355 :         vertexList[0].y = (float)rc.top;

	cvtsi2ss xmm0, DWORD PTR _rc$[ebp+4]
	mov	eax, 8
	imul	ecx, eax, 0
	movss	DWORD PTR _vertexList$1[ebp+ecx+4], xmm0

; 2356 : 
; 2357 :         vertexList[1].x = (float)rc.left;

	cvtsi2ss xmm0, DWORD PTR _rc$[ebp]
	mov	eax, 8
	shl	eax, 0
	movss	DWORD PTR _vertexList$1[ebp+eax], xmm0

; 2358 :         vertexList[1].y = (float)rc.bottom;

	cvtsi2ss xmm0, DWORD PTR _rc$[ebp+12]
	mov	eax, 8
	shl	eax, 0
	movss	DWORD PTR _vertexList$1[ebp+eax+4], xmm0

; 2359 : 
; 2360 :         vertexList[2].x = (float)rc.right;

	cvtsi2ss xmm0, DWORD PTR _rc$[ebp+8]
	mov	eax, 8
	shl	eax, 1
	movss	DWORD PTR _vertexList$1[ebp+eax], xmm0

; 2361 :         vertexList[2].y = (float)rc.bottom;

	cvtsi2ss xmm0, DWORD PTR _rc$[ebp+12]
	mov	eax, 8
	shl	eax, 1
	movss	DWORD PTR _vertexList$1[ebp+eax+4], xmm0

; 2362 : 
; 2363 :         vertexList[3].x = (float)rc.right;

	cvtsi2ss xmm0, DWORD PTR _rc$[ebp+8]
	mov	eax, 8
	imul	ecx, eax, 3
	movss	DWORD PTR _vertexList$1[ebp+ecx], xmm0

; 2364 :         vertexList[3].y = (float)rc.top;

	cvtsi2ss xmm0, DWORD PTR _rc$[ebp+4]
	mov	eax, 8
	imul	ecx, eax, 3
	movss	DWORD PTR _vertexList$1[ebp+ecx+4], xmm0

; 2365 : 
; 2366 :         vertexList[4].x = (float)rc.left;

	cvtsi2ss xmm0, DWORD PTR _rc$[ebp]
	mov	eax, 8
	shl	eax, 2
	movss	DWORD PTR _vertexList$1[ebp+eax], xmm0

; 2367 :         vertexList[4].y = (float)rc.top;

	cvtsi2ss xmm0, DWORD PTR _rc$[ebp+4]
	mov	eax, 8
	shl	eax, 2
	movss	DWORD PTR _vertexList$1[ebp+eax+4], xmm0

; 2368 :         
; 2369 :         return AddLine( pnLineID, vertexList, 5, Color, fWidth, fScaleRatio, bAntiAlias );

	movzx	eax, BYTE PTR _bAntiAlias$[ebp]
	push	eax
	push	ecx
	movss	xmm0, DWORD PTR _fScaleRatio$[ebp]
	movss	DWORD PTR [esp], xmm0
	push	ecx
	movss	xmm0, DWORD PTR _fWidth$[ebp]
	movss	DWORD PTR [esp], xmm0
	mov	ecx, DWORD PTR _Color$[ebp]
	push	ecx
	push	5
	lea	edx, DWORD PTR _vertexList$1[ebp]
	push	edx
	mov	eax, DWORD PTR _pnLineID$[ebp]
	push	eax
	mov	ecx, DWORD PTR _this$[ebp]
	call	?AddLine@CDXUTLineManager@@QAEJPAHPAUD3DXVECTOR2@@KKMM_N@Z ; CDXUTLineManager::AddLine
$LN1@AddRect:

; 2370 :     }
; 2371 : }

	push	edx
	mov	ecx, ebp
	push	eax
	lea	edx, DWORD PTR $LN8@AddRect
	call	@_RTC_CheckStackVars@8
	pop	eax
	pop	edx
	pop	edi
	pop	esi
	pop	ebx
	mov	ecx, DWORD PTR __$ArrayPad$[ebp]
	xor	ecx, ebp
	call	@__security_check_cookie@4
	add	esp, 328				; 00000148H
	cmp	ebp, esp
	call	__RTC_CheckEsp
	mov	esp, ebp
	pop	ebp
	ret	36					; 00000024H
	npad	1
$LN8@AddRect:
	DD	2
	DD	$LN7@AddRect
$LN7@AddRect:
	DD	-84					; ffffffacH
	DD	64					; 00000040H
	DD	$LN5@AddRect
	DD	-132					; ffffff7cH
	DD	40					; 00000028H
	DD	$LN6@AddRect
$LN6@AddRect:
	DB	118					; 00000076H
	DB	101					; 00000065H
	DB	114					; 00000072H
	DB	116					; 00000074H
	DB	101					; 00000065H
	DB	120					; 00000078H
	DB	76					; 0000004cH
	DB	105					; 00000069H
	DB	115					; 00000073H
	DB	116					; 00000074H
	DB	0
$LN5@AddRect:
	DB	118					; 00000076H
	DB	101					; 00000065H
	DB	114					; 00000072H
	DB	116					; 00000074H
	DB	101					; 00000065H
	DB	120					; 00000078H
	DB	76					; 0000004cH
	DB	105					; 00000069H
	DB	115					; 00000073H
	DB	116					; 00000074H
	DB	0
?AddRect@CDXUTLineManager@@QAEJPAHUtagRECT@@KMM_N@Z ENDP ; CDXUTLineManager::AddRect
_TEXT	ENDS
; Function compile flags: /Odtp /RTCsu /ZI
; File z:\sampsrc\02xu1\saco\d3d9\common\dxutmisc.cpp
;	COMDAT ?AddLine@CDXUTLineManager@@QAEJPAHPAUD3DXVECTOR2@@KKMM_N@Z
_TEXT	SEGMENT
tv129 = -320						; size = 4
$T2 = -312						; size = 4
$T3 = -300						; size = 4
$T4 = -288						; size = 4
$T5 = -276						; size = 4
$T6 = -264						; size = 4
$T7 = -252						; size = 8
_i$8 = -44						; size = 4
_pLineNode$ = -32					; size = 4
_this$ = -20						; size = 4
__$EHRec$ = -12						; size = 12
_pnLineID$ = 8						; size = 4
_pVertexList$ = 12					; size = 4
_dwVertexListCount$ = 16				; size = 4
_Color$ = 20						; size = 4
_fWidth$ = 24						; size = 4
_fScaleRatio$ = 28					; size = 4
_bAntiAlias$ = 32					; size = 1
?AddLine@CDXUTLineManager@@QAEJPAHPAUD3DXVECTOR2@@KKMM_N@Z PROC ; CDXUTLineManager::AddLine, COMDAT
; _this$ = ecx

; 2283 : {

	push	ebp
	mov	ebp, esp
	push	-1
	push	__ehhandler$?AddLine@CDXUTLineManager@@QAEJPAHPAUD3DXVECTOR2@@KKMM_N@Z
	mov	eax, DWORD PTR fs:0
	push	eax
	sub	esp, 308				; 00000134H
	push	ebx
	push	esi
	push	edi
	push	ecx
	lea	edi, DWORD PTR [ebp-320]
	mov	ecx, 77					; 0000004dH
	mov	eax, -858993460				; ccccccccH
	rep stosd
	pop	ecx
	mov	eax, DWORD PTR ___security_cookie
	xor	eax, ebp
	push	eax
	lea	eax, DWORD PTR __$EHRec$[ebp]
	mov	DWORD PTR fs:0, eax
	mov	DWORD PTR _this$[ebp], ecx

; 2284 :     if( pVertexList == NULL || dwVertexListCount == 0 )

	cmp	DWORD PTR _pVertexList$[ebp], 0
	je	SHORT $LN7@AddLine
	cmp	DWORD PTR _dwVertexListCount$[ebp], 0
	jne	SHORT $LN8@AddLine
$LN7@AddLine:

; 2285 :         return E_INVALIDARG;

	mov	eax, -2147024809			; 80070057H
	jmp	$LN9@AddLine
$LN8@AddLine:

; 2286 : 
; 2287 :     LINE_NODE* pLineNode = new LINE_NODE;

	push	25					; 00000019H
	call	??2@YAPAXI@Z				; operator new
	add	esp, 4
	mov	DWORD PTR $T2[ebp], eax
	mov	eax, DWORD PTR $T2[ebp]
	mov	DWORD PTR _pLineNode$[ebp], eax

; 2288 :     if( pLineNode == NULL )

	cmp	DWORD PTR _pLineNode$[ebp], 0
	jne	SHORT $LN6@AddLine

; 2289 :         return E_OUTOFMEMORY;

	mov	eax, -2147024882			; 8007000eH
	jmp	$LN9@AddLine
$LN6@AddLine:

; 2290 :     ZeroMemory( pLineNode, sizeof(LINE_NODE) );

	push	25					; 00000019H
	push	0
	mov	eax, DWORD PTR _pLineNode$[ebp]
	push	eax
	call	_memset
	add	esp, 12					; 0000000cH

; 2291 : 
; 2292 :     pLineNode->nLineID = m_LinesList.GetSize();

	mov	ecx, DWORD PTR _this$[ebp]
	call	?GetSize@?$CGrowableArray@PAULINE_NODE@CDXUTLineManager@@@@QBEHXZ ; CGrowableArray<CDXUTLineManager::LINE_NODE *>::GetSize
	mov	ecx, DWORD PTR _pLineNode$[ebp]
	mov	DWORD PTR [ecx], eax

; 2293 :     pLineNode->Color = Color;

	mov	eax, DWORD PTR _pLineNode$[ebp]
	mov	ecx, DWORD PTR _Color$[ebp]
	mov	DWORD PTR [eax+4], ecx

; 2294 :     pLineNode->fWidth = fWidth;

	mov	eax, DWORD PTR _pLineNode$[ebp]
	movss	xmm0, DWORD PTR _fWidth$[ebp]
	movss	DWORD PTR [eax+8], xmm0

; 2295 :     pLineNode->bAntiAlias = bAntiAlias;

	mov	eax, DWORD PTR _pLineNode$[ebp]
	mov	cl, BYTE PTR _bAntiAlias$[ebp]
	mov	BYTE PTR [eax+12], cl

; 2296 :     pLineNode->dwVertexListCount = dwVertexListCount;

	mov	eax, DWORD PTR _pLineNode$[ebp]
	mov	ecx, DWORD PTR _dwVertexListCount$[ebp]
	mov	DWORD PTR [eax+21], ecx

; 2297 : 
; 2298 :     if( pnLineID )

	cmp	DWORD PTR _pnLineID$[ebp], 0
	je	SHORT $LN5@AddLine

; 2299 :         *pnLineID = pLineNode->nLineID;

	mov	eax, DWORD PTR _pnLineID$[ebp]
	mov	ecx, DWORD PTR _pLineNode$[ebp]
	mov	edx, DWORD PTR [ecx]
	mov	DWORD PTR [eax], edx
$LN5@AddLine:

; 2300 : 
; 2301 :     pLineNode->pVertexList = new D3DXVECTOR2[dwVertexListCount];

	mov	eax, DWORD PTR _dwVertexListCount$[ebp]
	mov	DWORD PTR $T3[ebp], eax
	xor	ecx, ecx
	mov	eax, DWORD PTR $T3[ebp]
	mov	edx, 8
	mul	edx
	seto	cl
	neg	ecx
	or	ecx, eax
	push	ecx
	call	??_U@YAPAXI@Z				; operator new[]
	add	esp, 4
	mov	DWORD PTR $T5[ebp], eax
	mov	DWORD PTR __$EHRec$[ebp+8], 0
	cmp	DWORD PTR $T5[ebp], 0
	je	SHORT $LN11@AddLine
	push	OFFSET ??0D3DXVECTOR2@@QAE@XZ		; D3DXVECTOR2::D3DXVECTOR2
	mov	eax, DWORD PTR $T3[ebp]
	push	eax
	push	8
	mov	ecx, DWORD PTR $T5[ebp]
	push	ecx
	call	??_H@YGXPAXIHP6EPAX0@Z@Z
	mov	edx, DWORD PTR $T5[ebp]
	mov	DWORD PTR tv129[ebp], edx
	jmp	SHORT $LN12@AddLine
$LN11@AddLine:
	mov	DWORD PTR tv129[ebp], 0
$LN12@AddLine:
	mov	eax, DWORD PTR tv129[ebp]
	mov	DWORD PTR $T4[ebp], eax
	mov	DWORD PTR __$EHRec$[ebp+8], -1
	mov	ecx, DWORD PTR _pLineNode$[ebp]
	mov	edx, DWORD PTR $T4[ebp]
	mov	DWORD PTR [ecx+17], edx

; 2302 :     if( pLineNode->pVertexList == NULL )

	mov	eax, DWORD PTR _pLineNode$[ebp]
	cmp	DWORD PTR [eax+17], 0
	jne	SHORT $LN4@AddLine

; 2303 :     {
; 2304 :         delete pLineNode;

	mov	eax, DWORD PTR _pLineNode$[ebp]
	mov	DWORD PTR $T6[ebp], eax
	mov	ecx, DWORD PTR $T6[ebp]
	push	ecx
	call	??3@YAXPAX@Z				; operator delete
	add	esp, 4

; 2305 :         return E_OUTOFMEMORY;

	mov	eax, -2147024882			; 8007000eH
	jmp	SHORT $LN9@AddLine
$LN4@AddLine:

; 2306 :     }
; 2307 :     for( DWORD i=0; i<dwVertexListCount; i++ )

	mov	DWORD PTR _i$8[ebp], 0
	jmp	SHORT $LN3@AddLine
$LN2@AddLine:
	mov	eax, DWORD PTR _i$8[ebp]
	add	eax, 1
	mov	DWORD PTR _i$8[ebp], eax
$LN3@AddLine:
	mov	eax, DWORD PTR _i$8[ebp]
	cmp	eax, DWORD PTR _dwVertexListCount$[ebp]
	jae	SHORT $LN1@AddLine

; 2308 :     {
; 2309 :         pLineNode->pVertexList[i] = pVertexList[i] * fScaleRatio;

	push	ecx
	movss	xmm0, DWORD PTR _fScaleRatio$[ebp]
	movss	DWORD PTR [esp], xmm0
	lea	eax, DWORD PTR $T7[ebp]
	push	eax
	mov	ecx, DWORD PTR _i$8[ebp]
	mov	edx, DWORD PTR _pVertexList$[ebp]
	lea	ecx, DWORD PTR [edx+ecx*8]
	call	??DD3DXVECTOR2@@QBE?AU0@M@Z		; D3DXVECTOR2::operator*
	mov	ecx, DWORD PTR [eax]
	mov	edx, DWORD PTR [eax+4]
	mov	eax, DWORD PTR _pLineNode$[ebp]
	mov	eax, DWORD PTR [eax+17]
	mov	esi, DWORD PTR _i$8[ebp]
	mov	DWORD PTR [eax+esi*8], ecx
	mov	DWORD PTR [eax+esi*8+4], edx

; 2310 :     }

	jmp	SHORT $LN2@AddLine
$LN1@AddLine:

; 2311 : 
; 2312 :     m_LinesList.Add( pLineNode );

	lea	eax, DWORD PTR _pLineNode$[ebp]
	push	eax
	mov	ecx, DWORD PTR _this$[ebp]
	call	?Add@?$CGrowableArray@PAULINE_NODE@CDXUTLineManager@@@@QAEJABQAULINE_NODE@CDXUTLineManager@@@Z ; CGrowableArray<CDXUTLineManager::LINE_NODE *>::Add

; 2313 : 
; 2314 :     return S_OK;

	xor	eax, eax
$LN9@AddLine:

; 2315 : }

	push	edx
	mov	ecx, ebp
	push	eax
	lea	edx, DWORD PTR $LN17@AddLine
	call	@_RTC_CheckStackVars@8
	pop	eax
	pop	edx
	mov	ecx, DWORD PTR __$EHRec$[ebp]
	mov	DWORD PTR fs:0, ecx
	pop	ecx
	pop	edi
	pop	esi
	pop	ebx
	add	esp, 320				; 00000140H
	cmp	ebp, esp
	call	__RTC_CheckEsp
	mov	esp, ebp
	pop	ebp
	ret	28					; 0000001cH
	npad	2
$LN17@AddLine:
	DD	1
	DD	$LN16@AddLine
$LN16@AddLine:
	DD	-32					; ffffffe0H
	DD	4
	DD	$LN14@AddLine
$LN14@AddLine:
	DB	112					; 00000070H
	DB	76					; 0000004cH
	DB	105					; 00000069H
	DB	110					; 0000006eH
	DB	101					; 00000065H
	DB	78					; 0000004eH
	DB	111					; 0000006fH
	DB	100					; 00000064H
	DB	101					; 00000065H
	DB	0
_TEXT	ENDS
;	COMDAT text$x
text$x	SEGMENT
__unwindfunclet$?AddLine@CDXUTLineManager@@QAEJPAHPAUD3DXVECTOR2@@KKMM_N@Z$0:
	mov	eax, DWORD PTR $T5[ebp]
	push	eax
	call	??_V@YAXPAX@Z				; operator delete[]
	pop	ecx
	ret	0
__ehhandler$?AddLine@CDXUTLineManager@@QAEJPAHPAUD3DXVECTOR2@@KKMM_N@Z:
	mov	edx, DWORD PTR [esp+8]
	lea	eax, DWORD PTR [edx+12]
	mov	ecx, DWORD PTR [edx-324]
	xor	ecx, eax
	call	@__security_check_cookie@4
	mov	eax, OFFSET __ehfuncinfo$?AddLine@CDXUTLineManager@@QAEJPAHPAUD3DXVECTOR2@@KKMM_N@Z
	jmp	___CxxFrameHandler3
text$x	ENDS
?AddLine@CDXUTLineManager@@QAEJPAHPAUD3DXVECTOR2@@KKMM_N@Z ENDP ; CDXUTLineManager::AddLine
; Function compile flags: /Odtp /RTCsu /ZI
; File z:\sampsrc\02xu1\saco\d3d9\common\dxutmisc.cpp
;	COMDAT ?OnDeletedDevice@CDXUTLineManager@@QAEJXZ
_TEXT	SEGMENT
_this$ = -8						; size = 4
?OnDeletedDevice@CDXUTLineManager@@QAEJXZ PROC		; CDXUTLineManager::OnDeletedDevice, COMDAT
; _this$ = ecx

; 2273 : {

	push	ebp
	mov	ebp, esp
	sub	esp, 204				; 000000ccH
	push	ebx
	push	esi
	push	edi
	push	ecx
	lea	edi, DWORD PTR [ebp-204]
	mov	ecx, 51					; 00000033H
	mov	eax, -858993460				; ccccccccH
	rep stosd
	pop	ecx
	mov	DWORD PTR _this$[ebp], ecx

; 2274 :     RemoveAllLines();

	mov	ecx, DWORD PTR _this$[ebp]
	call	?RemoveAllLines@CDXUTLineManager@@QAEJXZ ; CDXUTLineManager::RemoveAllLines

; 2275 :     SAFE_RELEASE( m_pD3DXLine );

	mov	eax, DWORD PTR _this$[ebp]
	cmp	DWORD PTR [eax+16], 0
	je	SHORT $LN1@OnDeletedD
	mov	eax, DWORD PTR _this$[ebp]
	mov	ecx, DWORD PTR [eax+16]
	mov	edx, DWORD PTR _this$[ebp]
	mov	eax, DWORD PTR [edx+16]
	mov	ecx, DWORD PTR [ecx]
	mov	esi, esp
	push	eax
	mov	edx, DWORD PTR [ecx+8]
	call	edx
	cmp	esi, esp
	call	__RTC_CheckEsp
	mov	eax, DWORD PTR _this$[ebp]
	mov	DWORD PTR [eax+16], 0
$LN1@OnDeletedD:

; 2276 : 
; 2277 :     return S_OK;

	xor	eax, eax

; 2278 : }

	pop	edi
	pop	esi
	pop	ebx
	add	esp, 204				; 000000ccH
	cmp	ebp, esp
	call	__RTC_CheckEsp
	mov	esp, ebp
	pop	ebp
	ret	0
?OnDeletedDevice@CDXUTLineManager@@QAEJXZ ENDP		; CDXUTLineManager::OnDeletedDevice
_TEXT	ENDS
; Function compile flags: /Odtp /RTCsu /ZI
; File z:\sampsrc\02xu1\saco\d3d9\common\dxutmisc.cpp
;	COMDAT ?OnLostDevice@CDXUTLineManager@@QAEJXZ
_TEXT	SEGMENT
_this$ = -8						; size = 4
?OnLostDevice@CDXUTLineManager@@QAEJXZ PROC		; CDXUTLineManager::OnLostDevice, COMDAT
; _this$ = ecx

; 2263 : {

	push	ebp
	mov	ebp, esp
	sub	esp, 204				; 000000ccH
	push	ebx
	push	esi
	push	edi
	push	ecx
	lea	edi, DWORD PTR [ebp-204]
	mov	ecx, 51					; 00000033H
	mov	eax, -858993460				; ccccccccH
	rep stosd
	pop	ecx
	mov	DWORD PTR _this$[ebp], ecx

; 2264 :     if( m_pD3DXLine )

	mov	eax, DWORD PTR _this$[ebp]
	cmp	DWORD PTR [eax+16], 0
	je	SHORT $LN1@OnLostDevi

; 2265 :         m_pD3DXLine->OnLostDevice();

	mov	eax, DWORD PTR _this$[ebp]
	mov	ecx, DWORD PTR [eax+16]
	mov	edx, DWORD PTR _this$[ebp]
	mov	eax, DWORD PTR [edx+16]
	mov	ecx, DWORD PTR [ecx]
	mov	esi, esp
	push	eax
	mov	edx, DWORD PTR [ecx+72]
	call	edx
	cmp	esi, esp
	call	__RTC_CheckEsp
$LN1@OnLostDevi:

; 2266 : 
; 2267 :     return S_OK;

	xor	eax, eax

; 2268 : }

	pop	edi
	pop	esi
	pop	ebx
	add	esp, 204				; 000000ccH
	cmp	ebp, esp
	call	__RTC_CheckEsp
	mov	esp, ebp
	pop	ebp
	ret	0
?OnLostDevice@CDXUTLineManager@@QAEJXZ ENDP		; CDXUTLineManager::OnLostDevice
_TEXT	ENDS
; Function compile flags: /Odtp /RTCsu /ZI
; File z:\sampsrc\02xu1\saco\d3d9\common\dxutmisc.cpp
;	COMDAT ?OnRender@CDXUTLineManager@@QAEJXZ
_TEXT	SEGMENT
_pLineNode$1 = -80					; size = 4
_i$2 = -68						; size = 4
_bLastAntiAlias$ = -53					; size = 1
_fLastWidth$ = -44					; size = 4
_bDrawingHasBegun$ = -29				; size = 1
_hr$ = -20						; size = 4
_this$ = -8						; size = 4
?OnRender@CDXUTLineManager@@QAEJXZ PROC			; CDXUTLineManager::OnRender, COMDAT
; _this$ = ecx

; 2207 : {

	push	ebp
	mov	ebp, esp
	sub	esp, 276				; 00000114H
	push	ebx
	push	esi
	push	edi
	push	ecx
	lea	edi, DWORD PTR [ebp-276]
	mov	ecx, 69					; 00000045H
	mov	eax, -858993460				; ccccccccH
	rep stosd
	pop	ecx
	mov	DWORD PTR _this$[ebp], ecx

; 2208 :     HRESULT hr;
; 2209 :     if( NULL == m_pD3DXLine )

	mov	eax, DWORD PTR _this$[ebp]
	cmp	DWORD PTR [eax+16], 0
	jne	SHORT $LN13@OnRender

; 2210 :         return E_INVALIDARG;

	mov	eax, -2147024809			; 80070057H
	jmp	$LN14@OnRender
$LN13@OnRender:

; 2211 : 
; 2212 :     bool bDrawingHasBegun = false;

	mov	BYTE PTR _bDrawingHasBegun$[ebp], 0

; 2213 :     float fLastWidth = 0.0f;

	movss	xmm0, DWORD PTR __real@00000000
	movss	DWORD PTR _fLastWidth$[ebp], xmm0

; 2214 :     bool bLastAntiAlias = false;

	mov	BYTE PTR _bLastAntiAlias$[ebp], 0

; 2215 :     
; 2216 :     for( int i=0; i<m_LinesList.GetSize(); i++ )

	mov	DWORD PTR _i$2[ebp], 0
	jmp	SHORT $LN12@OnRender
$LN11@OnRender:
	mov	eax, DWORD PTR _i$2[ebp]
	add	eax, 1
	mov	DWORD PTR _i$2[ebp], eax
$LN12@OnRender:
	mov	ecx, DWORD PTR _this$[ebp]
	call	?GetSize@?$CGrowableArray@PAULINE_NODE@CDXUTLineManager@@@@QBEHXZ ; CGrowableArray<CDXUTLineManager::LINE_NODE *>::GetSize
	cmp	DWORD PTR _i$2[ebp], eax
	jge	$LN10@OnRender

; 2217 :     {
; 2218 :         LINE_NODE* pLineNode = m_LinesList.GetAt(i);

	mov	eax, DWORD PTR _i$2[ebp]
	push	eax
	mov	ecx, DWORD PTR _this$[ebp]
	call	?GetAt@?$CGrowableArray@PAULINE_NODE@CDXUTLineManager@@@@QAEAAPAULINE_NODE@CDXUTLineManager@@H@Z ; CGrowableArray<CDXUTLineManager::LINE_NODE *>::GetAt
	mov	ecx, DWORD PTR [eax]
	mov	DWORD PTR _pLineNode$1[ebp], ecx

; 2219 :         if( pLineNode )

	cmp	DWORD PTR _pLineNode$1[ebp], 0
	je	$LN3@OnRender

