; Listing generated by Microsoft (R) Optimizing Compiler Version 18.00.31101.0 

	TITLE	Z:\sampsrc\02Xu1\saco\d3d9\common\DXUTSettingsDlg.cpp
	.686P
	.XMM
	include listing.inc
	.model	flat

INCLUDELIB LIBCMTD
INCLUDELIB OLDNAMES

PUBLIC	?g_DeviceSettings@@3UDXUTDeviceSettings@@A	; g_DeviceSettings
_BSS	SEGMENT
?g_DeviceSettings@@3UDXUTDeviceSettings@@A DB 048H DUP (?) ; g_DeviceSettings
_BSS	ENDS
PUBLIC	?StringCopyWorkerA@@YGJPADIPBD@Z		; StringCopyWorkerA
PUBLIC	?StringVPrintfWorkerA@@YGJPADIPBD0@Z		; StringVPrintfWorkerA
PUBLIC	?StringCchCopyA@@YGJPADIPBD@Z			; StringCchCopyA
PUBLIC	?StringCchPrintfA@@YAJPADIPBDZZ			; StringCchPrintfA
PUBLIC	?GetAt@?$CGrowableArray@W4_D3DFORMAT@@@@QAEAAW4_D3DFORMAT@@H@Z ; CGrowableArray<enum _D3DFORMAT>::GetAt
PUBLIC	?GetSize@?$CGrowableArray@W4_D3DFORMAT@@@@QBEHXZ ; CGrowableArray<enum _D3DFORMAT>::GetSize
PUBLIC	?GetAt@?$CGrowableArray@W4_D3DMULTISAMPLE_TYPE@@@@QAEAAW4_D3DMULTISAMPLE_TYPE@@H@Z ; CGrowableArray<enum _D3DMULTISAMPLE_TYPE>::GetAt
PUBLIC	?GetSize@?$CGrowableArray@W4_D3DMULTISAMPLE_TYPE@@@@QBEHXZ ; CGrowableArray<enum _D3DMULTISAMPLE_TYPE>::GetSize
PUBLIC	?GetAt@?$CGrowableArray@I@@QAEAAIH@Z		; CGrowableArray<unsigned int>::GetAt
PUBLIC	?GetSize@?$CGrowableArray@I@@QBEHXZ		; CGrowableArray<unsigned int>::GetSize
PUBLIC	?GetAt@?$CGrowableArray@PAVCD3DEnumAdapterInfo@@@@QAEAAPAVCD3DEnumAdapterInfo@@H@Z ; CGrowableArray<CD3DEnumAdapterInfo *>::GetAt
PUBLIC	?GetSize@?$CGrowableArray@PAVCD3DEnumAdapterInfo@@@@QBEHXZ ; CGrowableArray<CD3DEnumAdapterInfo *>::GetSize
PUBLIC	?GetAt@?$CGrowableArray@U_D3DDISPLAYMODE@@@@QAEAAU_D3DDISPLAYMODE@@H@Z ; CGrowableArray<_D3DDISPLAYMODE>::GetAt
PUBLIC	?GetSize@?$CGrowableArray@U_D3DDISPLAYMODE@@@@QBEHXZ ; CGrowableArray<_D3DDISPLAYMODE>::GetSize
PUBLIC	?GetAt@?$CGrowableArray@PAVCD3DEnumDeviceInfo@@@@QAEAAPAVCD3DEnumDeviceInfo@@H@Z ; CGrowableArray<CD3DEnumDeviceInfo *>::GetAt
PUBLIC	?GetSize@?$CGrowableArray@PAVCD3DEnumDeviceInfo@@@@QBEHXZ ; CGrowableArray<CD3DEnumDeviceInfo *>::GetSize
PUBLIC	?GetAt@?$CGrowableArray@PAUCD3DEnumDeviceSettingsCombo@@@@QAEAAPAUCD3DEnumDeviceSettingsCombo@@H@Z ; CGrowableArray<CD3DEnumDeviceSettingsCombo *>::GetAt
PUBLIC	?GetSize@?$CGrowableArray@PAUCD3DEnumDeviceSettingsCombo@@@@QBEHXZ ; CGrowableArray<CD3DEnumDeviceSettingsCombo *>::GetSize
PUBLIC	?GetAt@?$CGrowableArray@K@@QAEAAKH@Z		; CGrowableArray<unsigned long>::GetAt
PUBLIC	?GetAt@?$CGrowableArray@UCD3DEnumDSMSConflict@@@@QAEAAUCD3DEnumDSMSConflict@@H@Z ; CGrowableArray<CD3DEnumDSMSConflict>::GetAt
PUBLIC	?GetSize@?$CGrowableArray@UCD3DEnumDSMSConflict@@@@QBEHXZ ; CGrowableArray<CD3DEnumDSMSConflict>::GetSize
PUBLIC	?GetCheckBox@CDXUTDialog@@QAEPAVCDXUTCheckBox@@H@Z ; CDXUTDialog::GetCheckBox
PUBLIC	?GetRadioButton@CDXUTDialog@@QAEPAVCDXUTRadioButton@@H@Z ; CDXUTDialog::GetRadioButton
PUBLIC	?GetComboBox@CDXUTDialog@@QAEPAVCDXUTComboBox@@H@Z ; CDXUTDialog::GetComboBox
PUBLIC	?SetLocation@CDXUTDialog@@QAEXHH@Z		; CDXUTDialog::SetLocation
PUBLIC	?SetSize@CDXUTDialog@@QAEXHH@Z			; CDXUTDialog::SetSize
PUBLIC	?SetRefreshTime@CDXUTDialog@@SAXM@Z		; CDXUTDialog::SetRefreshTime
PUBLIC	?EnableKeyboardInput@CDXUTDialog@@QAEX_N@Z	; CDXUTDialog::EnableKeyboardInput
PUBLIC	?GetElement@CDXUTControl@@QAEPAVCDXUTElement@@I@Z ; CDXUTControl::GetElement
PUBLIC	?GetAt@?$CGrowableArray@PAVCDXUTElement@@@@QAEAAPAVCDXUTElement@@H@Z ; CGrowableArray<CDXUTElement *>::GetAt
PUBLIC	?GetChecked@CDXUTCheckBox@@QAE_NXZ		; CDXUTCheckBox::GetChecked
PUBLIC	?SetChecked@CDXUTCheckBox@@QAEX_N@Z		; CDXUTCheckBox::SetChecked
PUBLIC	?SetChecked@CDXUTRadioButton@@QAEX_N0@Z		; CDXUTRadioButton::SetChecked
PUBLIC	?SetDropHeight@CDXUTComboBox@@QAEXI@Z		; CDXUTComboBox::SetDropHeight
PUBLIC	??0CD3DSettingsDlg@@QAE@XZ			; CD3DSettingsDlg::CD3DSettingsDlg
PUBLIC	??1CD3DSettingsDlg@@QAE@XZ			; CD3DSettingsDlg::~CD3DSettingsDlg
PUBLIC	?Init@CD3DSettingsDlg@@QAEXPAVCDXUTDialogResourceManager@@@Z ; CD3DSettingsDlg::Init
PUBLIC	?OnCreateDevice@CD3DSettingsDlg@@QAEJPAUIDirect3DDevice9@@@Z ; CD3DSettingsDlg::OnCreateDevice
PUBLIC	?Refresh@CD3DSettingsDlg@@QAEJXZ		; CD3DSettingsDlg::Refresh
PUBLIC	?OnResetDevice@CD3DSettingsDlg@@QAEJXZ		; CD3DSettingsDlg::OnResetDevice
PUBLIC	?OnLostDevice@CD3DSettingsDlg@@QAEJXZ		; CD3DSettingsDlg::OnLostDevice
PUBLIC	?OnRender@CD3DSettingsDlg@@QAEJM@Z		; CD3DSettingsDlg::OnRender
PUBLIC	?OnDestroyDevice@CD3DSettingsDlg@@QAEJXZ	; CD3DSettingsDlg::OnDestroyDevice
PUBLIC	?SetActive@CD3DSettingsDlg@@QAEX_N@Z		; CD3DSettingsDlg::SetActive
PUBLIC	?MsgProc@CD3DSettingsDlg@@QAEJPAUHWND__@@IIJ@Z	; CD3DSettingsDlg::MsgProc
PUBLIC	?DXUTGetSettingsDialog@@YAPAVCD3DSettingsDlg@@XZ ; DXUTGetSettingsDialog
PUBLIC	?CreateControls@CD3DSettingsDlg@@IAEXXZ		; CD3DSettingsDlg::CreateControls
PUBLIC	?SetDeviceSettingsFromUI@CD3DSettingsDlg@@IAEJXZ ; CD3DSettingsDlg::SetDeviceSettingsFromUI
PUBLIC	?OnEvent@CD3DSettingsDlg@@IAEXIHPAVCDXUTControl@@@Z ; CD3DSettingsDlg::OnEvent
PUBLIC	?StaticOnEvent@CD3DSettingsDlg@@KGXIHPAVCDXUTControl@@PAX@Z ; CD3DSettingsDlg::StaticOnEvent
PUBLIC	?GetCurrentAdapterInfo@CD3DSettingsDlg@@IAEPAVCD3DEnumAdapterInfo@@XZ ; CD3DSettingsDlg::GetCurrentAdapterInfo
PUBLIC	?GetCurrentDeviceInfo@CD3DSettingsDlg@@IAEPAVCD3DEnumDeviceInfo@@XZ ; CD3DSettingsDlg::GetCurrentDeviceInfo
PUBLIC	?GetCurrentDeviceSettingsCombo@CD3DSettingsDlg@@IAEPAUCD3DEnumDeviceSettingsCombo@@XZ ; CD3DSettingsDlg::GetCurrentDeviceSettingsCombo
PUBLIC	?AddAdapter@CD3DSettingsDlg@@IAEXPBDI@Z		; CD3DSettingsDlg::AddAdapter
PUBLIC	?GetSelectedAdapter@CD3DSettingsDlg@@IAEIXZ	; CD3DSettingsDlg::GetSelectedAdapter
PUBLIC	?AddDeviceType@CD3DSettingsDlg@@IAEXW4_D3DDEVTYPE@@@Z ; CD3DSettingsDlg::AddDeviceType
PUBLIC	?GetSelectedDeviceType@CD3DSettingsDlg@@IAE?AW4_D3DDEVTYPE@@XZ ; CD3DSettingsDlg::GetSelectedDeviceType
PUBLIC	?SetWindowed@CD3DSettingsDlg@@IAEX_N@Z		; CD3DSettingsDlg::SetWindowed
PUBLIC	?IsWindowed@CD3DSettingsDlg@@IAE_NXZ		; CD3DSettingsDlg::IsWindowed
PUBLIC	?AddAdapterFormat@CD3DSettingsDlg@@IAEXW4_D3DFORMAT@@@Z ; CD3DSettingsDlg::AddAdapterFormat
PUBLIC	?GetSelectedAdapterFormat@CD3DSettingsDlg@@IAE?AW4_D3DFORMAT@@XZ ; CD3DSettingsDlg::GetSelectedAdapterFormat
PUBLIC	?AddResolution@CD3DSettingsDlg@@IAEXKK@Z	; CD3DSettingsDlg::AddResolution
PUBLIC	?GetSelectedResolution@CD3DSettingsDlg@@IAEXPAK0@Z ; CD3DSettingsDlg::GetSelectedResolution
PUBLIC	?AddRefreshRate@CD3DSettingsDlg@@IAEXK@Z	; CD3DSettingsDlg::AddRefreshRate
PUBLIC	?GetSelectedRefreshRate@CD3DSettingsDlg@@IAEKXZ	; CD3DSettingsDlg::GetSelectedRefreshRate
PUBLIC	?AddBackBufferFormat@CD3DSettingsDlg@@IAEXW4_D3DFORMAT@@@Z ; CD3DSettingsDlg::AddBackBufferFormat
PUBLIC	?GetSelectedBackBufferFormat@CD3DSettingsDlg@@IAE?AW4_D3DFORMAT@@XZ ; CD3DSettingsDlg::GetSelectedBackBufferFormat
PUBLIC	?AddDepthStencilBufferFormat@CD3DSettingsDlg@@IAEXW4_D3DFORMAT@@@Z ; CD3DSettingsDlg::AddDepthStencilBufferFormat
PUBLIC	?GetSelectedDepthStencilBufferFormat@CD3DSettingsDlg@@IAE?AW4_D3DFORMAT@@XZ ; CD3DSettingsDlg::GetSelectedDepthStencilBufferFormat
PUBLIC	?AddMultisampleType@CD3DSettingsDlg@@IAEXW4_D3DMULTISAMPLE_TYPE@@@Z ; CD3DSettingsDlg::AddMultisampleType
PUBLIC	?GetSelectedMultisampleType@CD3DSettingsDlg@@IAE?AW4_D3DMULTISAMPLE_TYPE@@XZ ; CD3DSettingsDlg::GetSelectedMultisampleType
PUBLIC	?AddMultisampleQuality@CD3DSettingsDlg@@IAEXK@Z	; CD3DSettingsDlg::AddMultisampleQuality
PUBLIC	?GetSelectedMultisampleQuality@CD3DSettingsDlg@@IAEKXZ ; CD3DSettingsDlg::GetSelectedMultisampleQuality
PUBLIC	?AddVertexProcessingType@CD3DSettingsDlg@@IAEXK@Z ; CD3DSettingsDlg::AddVertexProcessingType
PUBLIC	?GetSelectedVertexProcessingType@CD3DSettingsDlg@@IAEKXZ ; CD3DSettingsDlg::GetSelectedVertexProcessingType
PUBLIC	?AddPresentInterval@CD3DSettingsDlg@@IAEXK@Z	; CD3DSettingsDlg::AddPresentInterval
PUBLIC	?GetSelectedPresentInterval@CD3DSettingsDlg@@IAEKXZ ; CD3DSettingsDlg::GetSelectedPresentInterval
PUBLIC	?SetDeviceClip@CD3DSettingsDlg@@IAEX_N@Z	; CD3DSettingsDlg::SetDeviceClip
PUBLIC	?IsDeviceClip@CD3DSettingsDlg@@IAE_NXZ		; CD3DSettingsDlg::IsDeviceClip
PUBLIC	?OnAdapterChanged@CD3DSettingsDlg@@IAEJXZ	; CD3DSettingsDlg::OnAdapterChanged
PUBLIC	?OnDeviceTypeChanged@CD3DSettingsDlg@@IAEJXZ	; CD3DSettingsDlg::OnDeviceTypeChanged
PUBLIC	?OnWindowedFullScreenChanged@CD3DSettingsDlg@@IAEJXZ ; CD3DSettingsDlg::OnWindowedFullScreenChanged
PUBLIC	?OnAdapterFormatChanged@CD3DSettingsDlg@@IAEJXZ	; CD3DSettingsDlg::OnAdapterFormatChanged
PUBLIC	?OnResolutionChanged@CD3DSettingsDlg@@IAEJXZ	; CD3DSettingsDlg::OnResolutionChanged
PUBLIC	?OnRefreshRateChanged@CD3DSettingsDlg@@IAEJXZ	; CD3DSettingsDlg::OnRefreshRateChanged
PUBLIC	?OnBackBufferFormatChanged@CD3DSettingsDlg@@IAEJXZ ; CD3DSettingsDlg::OnBackBufferFormatChanged
PUBLIC	?OnDepthStencilBufferFormatChanged@CD3DSettingsDlg@@IAEJXZ ; CD3DSettingsDlg::OnDepthStencilBufferFormatChanged
PUBLIC	?OnMultisampleTypeChanged@CD3DSettingsDlg@@IAEJXZ ; CD3DSettingsDlg::OnMultisampleTypeChanged
PUBLIC	?OnMultisampleQualityChanged@CD3DSettingsDlg@@IAEJXZ ; CD3DSettingsDlg::OnMultisampleQualityChanged
PUBLIC	?OnVertexProcessingChanged@CD3DSettingsDlg@@IAEJXZ ; CD3DSettingsDlg::OnVertexProcessingChanged
PUBLIC	?OnPresentIntervalChanged@CD3DSettingsDlg@@IAEJXZ ; CD3DSettingsDlg::OnPresentIntervalChanged
PUBLIC	?OnDeviceClipChanged@CD3DSettingsDlg@@IAEJXZ	; CD3DSettingsDlg::OnDeviceClipChanged
PUBLIC	?DXUTPresentIntervalToString@@YAPADI@Z		; DXUTPresentIntervalToString
PUBLIC	?DXUTMultisampleTypeToString@@YAPADW4_D3DMULTISAMPLE_TYPE@@@Z ; DXUTMultisampleTypeToString
PUBLIC	?DXUTD3DDeviceTypeToString@@YAPADW4_D3DDEVTYPE@@@Z ; DXUTD3DDeviceTypeToString
PUBLIC	?DXUTVertexProcessingTypeToString@@YAPADK@Z	; DXUTVertexProcessingTypeToString
PUBLIC	?__LINE__Var@?1??Init@CD3DSettingsDlg@@QAEXPAVCDXUTDialogResourceManager@@@Z@4JA ; `CD3DSettingsDlg::Init'::`2'::__LINE__Var
PUBLIC	??_C@_1GM@HIEKCNEA@?$AAz?$AA?3?$AA?2?$AAs?$AAa?$AAm?$AAp?$AAs?$AAr?$AAc?$AA?2?$AA0?$AA2?$AAx?$AAu?$AA1?$AA?2?$AAs?$AAa?$AAc?$AAo?$AA?2?$AAd?$AA3?$AAd?$AA9?$AA?2?$AAc?$AAo?$AAm?$AAm?$AAo@ ; `string'
PUBLIC	??_C@_1BC@NLANPBAC@?$AAp?$AAM?$AAa?$AAn?$AAa?$AAg?$AAe?$AAr?$AA?$AA@ ; `string'
PUBLIC	??_C@_05MPFIAJAP@Arial?$AA@			; `string'
PUBLIC	??_C@_0BC@IPHGBCKD@Direct3D?5Settings?$AA@	; `string'
PUBLIC	??_C@_0BA@NCOOEBAA@Display?5Adapter?$AA@	; `string'
PUBLIC	??_C@_0O@EAKEHECG@Render?5Device?$AA@		; `string'
PUBLIC	??_C@_08CKIKNJFL@Windowed?$AA@			; `string'
PUBLIC	??_C@_0DK@IBFBNHLK@Clip?5to?5device?5when?5window?5spans@ ; `string'
PUBLIC	??_C@_0M@PKCOFEIL@Full?5Screen?$AA@		; `string'
PUBLIC	??_C@_0P@PBAFMFII@Adapter?5Format?$AA@		; `string'
PUBLIC	??_C@_0L@KGPBCGJE@Resolution?$AA@		; `string'
PUBLIC	??_C@_0N@GCJECPAO@Refresh?5Rate?$AA@		; `string'
PUBLIC	??_C@_0BD@CBHMGFOH@Back?5Buffer?5Format?$AA@	; `string'
PUBLIC	??_C@_0BF@GFFPGCOA@Depth?1Stencil?5Format?$AA@	; `string'
PUBLIC	??_C@_0BB@HJDEFCIC@Multisample?5Type?$AA@	; `string'
PUBLIC	??_C@_0BE@OKHJGJBB@Multisample?5Quality?$AA@	; `string'
PUBLIC	??_C@_0BC@DCIOODHA@Vertex?5Processing?$AA@	; `string'
PUBLIC	??_C@_0BB@KKDKFJOK@Present?5Interval?$AA@	; `string'
PUBLIC	??_C@_02GIPFHKNO@OK?$AA@			; `string'
PUBLIC	??_C@_06FMBNCPDL@Cancel?$AA@			; `string'
PUBLIC	?__LINE__Var@?1??OnCreateDevice@CD3DSettingsDlg@@QAEJPAUIDirect3DDevice9@@@Z@4JA ; `CD3DSettingsDlg::OnCreateDevice'::`2'::__LINE__Var
PUBLIC	??_C@_0CB@MPDAPCIN@CD3DSettingsDlg?3?3OnCreatedDevice@ ; `string'
PUBLIC	??_C@_0DG@DJJIHDHJ@z?3?2sampsrc?202xu1?2saco?2d3d9?2commo@ ; `string'
PUBLIC	?__LINE__Var@?1??Refresh@CD3DSettingsDlg@@QAEJXZ@4JA ; `CD3DSettingsDlg::Refresh'::`2'::__LINE__Var
PUBLIC	??_C@_0BH@DKAMNCJK@GetDeviceSettingsCombo?$AA@	; `string'
PUBLIC	?__LINE__Var@?1??OnWindowedFullScreenChanged@CD3DSettingsDlg@@IAEJXZ@4JA ; `CD3DSettingsDlg::OnWindowedFullScreenChanged'::`2'::__LINE__Var
PUBLIC	??_C@_0BB@BKKEDFLK@DXUTGetD3DObject?$AA@	; `string'
PUBLIC	??_C@_0BG@HDMFDHKA@GetAdapterDisplayMode?$AA@	; `string'
PUBLIC	??_C@_0L@OBIJABIK@?$CInot?5used?$CJ?$AA@	; `string'
PUBLIC	??_C@_08GEFHBCBJ@?$CFd?5by?5?$CFd?$AA@		; `string'
PUBLIC	??_C@_0N@BDMKPLKO@Default?5Rate?$AA@		; `string'
PUBLIC	??_C@_05HOIFPJGO@?$CFd?5Hz?$AA@			; `string'
PUBLIC	??_C@_02DPKJAMEF@?$CFd?$AA@			; `string'
PUBLIC	??_C@_0O@BPPEFOJH@D3DDEVTYPE_HA?$AA@		; `string'
PUBLIC	??_C@_0O@BDBPKHNB@D3DDEVTYPE_SW?$AA@		; `string'
PUBLIC	??_C@_0P@PAPKAFBN@D3DDEVTYPE_REF?$AA@		; `string'
PUBLIC	??_C@_0BA@DOHCMOHN@Unknown?5devType?$AA@	; `string'
PUBLIC	??_C@_0BE@NJJBJMAG@D3DMULTISAMPLE_NONE?$AA@	; `string'
PUBLIC	??_C@_0BL@DHADFMPE@D3DMULTISAMPLE_NONMASKABLE?$AA@ ; `string'
PUBLIC	??_C@_0BJ@DKGJFAOD@D3DMULTISAMPLE_2_SAMPLES?$AA@ ; `string'
PUBLIC	??_C@_0BJ@NFKLDLNN@D3DMULTISAMPLE_3_SAMPLES?$AA@ ; `string'
PUBLIC	??_C@_0BJ@DHHHCAKE@D3DMULTISAMPLE_4_SAMPLES?$AA@ ; `string'
PUBLIC	??_C@_0BJ@NILFELJK@D3DMULTISAMPLE_5_SAMPLES?$AA@ ; `string'
PUBLIC	??_C@_0BJ@DDICPAJJ@D3DMULTISAMPLE_6_SAMPLES?$AA@ ; `string'
PUBLIC	??_C@_0BJ@NMEAJLKH@D3DMULTISAMPLE_7_SAMPLES?$AA@ ; `string'
PUBLIC	??_C@_0BJ@CNELMACK@D3DMULTISAMPLE_8_SAMPLES?$AA@ ; `string'
PUBLIC	??_C@_0BJ@MCIJKLBE@D3DMULTISAMPLE_9_SAMPLES?$AA@ ; `string'
PUBLIC	??_C@_0BK@HBFALJEB@D3DMULTISAMPLE_10_SAMPLES?$AA@ ; `string'
PUBLIC	??_C@_0BK@JOJCNCHP@D3DMULTISAMPLE_11_SAMPLES?$AA@ ; `string'
PUBLIC	??_C@_0BK@HFKFGJHM@D3DMULTISAMPLE_12_SAMPLES?$AA@ ; `string'
PUBLIC	??_C@_0BK@JKGHACEC@D3DMULTISAMPLE_13_SAMPLES?$AA@ ; `string'
PUBLIC	??_C@_0BK@HILLBJDL@D3DMULTISAMPLE_14_SAMPLES?$AA@ ; `string'
PUBLIC	??_C@_0BK@JHHJHCAF@D3DMULTISAMPLE_15_SAMPLES?$AA@ ; `string'
PUBLIC	??_C@_0BK@HMEOMJAG@D3DMULTISAMPLE_16_SAMPLES?$AA@ ; `string'
PUBLIC	??_C@_0BJ@FDPCNPC@Unknown?5Multisample?5Type?$AA@ ; `string'
PUBLIC	??_C@_0BL@HIDCEKOM@Software?5vertex?5processing?$AA@ ; `string'
PUBLIC	??_C@_0BI@FGJLAPMK@Mixed?5vertex?5processing?$AA@ ; `string'
PUBLIC	??_C@_0BL@OBGGPIFF@Hardware?5vertex?5processing?$AA@ ; `string'
PUBLIC	??_C@_0CA@LGOCNABM@Pure?5hardware?5vertex?5processing?$AA@ ; `string'
PUBLIC	??_C@_0BP@IFOBCMHA@Unknown?5vertex?5processing?5type?$AA@ ; `string'
PUBLIC	??_C@_0BO@IHADFNAE@D3DPRESENT_INTERVAL_IMMEDIATE?$AA@ ; `string'
PUBLIC	??_C@_0BM@KHHJDMNH@D3DPRESENT_INTERVAL_DEFAULT?$AA@ ; `string'
PUBLIC	??_C@_0BI@HEDCGFN@D3DPRESENT_INTERVAL_ONE?$AA@	; `string'
PUBLIC	??_C@_0BI@GJEDIGLG@D3DPRESENT_INTERVAL_TWO?$AA@	; `string'
PUBLIC	??_C@_0BK@NNIDNBC@D3DPRESENT_INTERVAL_THREE?$AA@ ; `string'
PUBLIC	??_C@_0BJ@DENKPHNN@D3DPRESENT_INTERVAL_FOUR?$AA@ ; `string'
PUBLIC	??_C@_0BI@FKLDAGKA@Unknown?5PresentInterval?$AA@ ; `string'
PUBLIC	??_C@_1FK@FIMIDMPE@?$AAz?$AA?3?$AA?2?$AAs?$AAa?$AAm?$AAp?$AAs?$AAr?$AAc?$AA?2?$AA0?$AA2?$AAx?$AAu?$AA1?$AA?2?$AAs?$AAa?$AAc?$AAo?$AA?2?$AAd?$AA3?$AAd?$AA9?$AA?2?$AAc?$AAo?$AAm?$AAm?$AAo@ ; `string'
PUBLIC	??_C@_1EA@JHMKKLFC@?$AAn?$AAI?$AAn?$AAd?$AAe?$AAx?$AA?5?$AA?$DO?$AA?$DN?$AA?5?$AA0?$AA?5?$AA?$CG?$AA?$CG?$AA?5?$AAn?$AAI?$AAn?$AAd?$AAe?$AAx?$AA?5?$AA?$DM?$AA?5?$AAm?$AA_?$AAn?$AAS?$AAi?$AAz?$AAe?$AA?$AA@ ; `string'
PUBLIC	__real@3f800000
EXTRN	_atexit:PROC
EXTRN	__imp__GetClientRect@8:PROC
EXTRN	__wassert:PROC
EXTRN	__vsnprintf:PROC
EXTRN	?DXTraceWrapper@@YGJPBDKJ0H@Z:PROC		; DXTraceWrapper
EXTRN	?DXUTCreateDeviceFromSettings@@YAJPAUDXUTDeviceSettings@@_N1@Z:PROC ; DXUTCreateDeviceFromSettings
EXTRN	?DXUTGetD3DObject@@YAPAUIDirect3D9@@XZ:PROC	; DXUTGetD3DObject
EXTRN	?DXUTGetD3DDevice@@YAPAUIDirect3DDevice9@@XZ:PROC ; DXUTGetD3DDevice
EXTRN	?DXUTGetDeviceSettings@@YA?AUDXUTDeviceSettings@@XZ:PROC ; DXUTGetDeviceSettings
EXTRN	?DXUTGetBackBufferSurfaceDesc@@YAPBU_D3DSURFACE_DESC@@XZ:PROC ; DXUTGetBackBufferSurfaceDesc
EXTRN	?DXUTGetHWND@@YAPAUHWND__@@XZ:PROC		; DXUTGetHWND
EXTRN	?DXUTGetWindowClientRectAtModeChange@@YA?AUtagRECT@@XZ:PROC ; DXUTGetWindowClientRectAtModeChange
EXTRN	?DXUTGetFullsceenClientRectAtModeChange@@YA?AUtagRECT@@XZ:PROC ; DXUTGetFullsceenClientRectAtModeChange
EXTRN	?DXUTGetTime@@YANXZ:PROC			; DXUTGetTime
EXTRN	?DXUTIsWindowed@@YA_NXZ:PROC			; DXUTIsWindowed
EXTRN	?DXUTD3DFormatToString@@YAPBDW4_D3DFORMAT@@_N@Z:PROC ; DXUTD3DFormatToString
EXTRN	?DXUTTrace@@YGJPBDKJ0_N@Z:PROC			; DXUTTrace
EXTRN	?GetPossibleVertexProcessingList@CD3DEnumeration@@QAEXPA_N000@Z:PROC ; CD3DEnumeration::GetPossibleVertexProcessingList
EXTRN	?GetAdapterInfoList@CD3DEnumeration@@QAEPAV?$CGrowableArray@PAVCD3DEnumAdapterInfo@@@@XZ:PROC ; CD3DEnumeration::GetAdapterInfoList
EXTRN	?GetAdapterInfo@CD3DEnumeration@@QAEPAVCD3DEnumAdapterInfo@@I@Z:PROC ; CD3DEnumeration::GetAdapterInfo
EXTRN	?GetDeviceInfo@CD3DEnumeration@@QAEPAVCD3DEnumDeviceInfo@@IW4_D3DDEVTYPE@@@Z:PROC ; CD3DEnumeration::GetDeviceInfo
EXTRN	?GetDeviceSettingsCombo@CD3DEnumeration@@QAEPAUCD3DEnumDeviceSettingsCombo@@IW4_D3DDEVTYPE@@W4_D3DFORMAT@@1H@Z:PROC ; CD3DEnumeration::GetDeviceSettingsCombo
EXTRN	?DXUTGetEnumeration@@YAPAVCD3DEnumeration@@XZ:PROC ; DXUTGetEnumeration
EXTRN	??0CDXUTDialog@@QAE@XZ:PROC			; CDXUTDialog::CDXUTDialog
EXTRN	??1CDXUTDialog@@QAE@XZ:PROC			; CDXUTDialog::~CDXUTDialog
EXTRN	?Init@CDXUTDialog@@QAEXPAVCDXUTDialogResourceManager@@@Z:PROC ; CDXUTDialog::Init
EXTRN	?MsgProc@CDXUTDialog@@QAE_NPAUHWND__@@IIJ@Z:PROC ; CDXUTDialog::MsgProc
EXTRN	?AddStatic@CDXUTDialog@@QAEJHPBDHHHH_NPAPAVCDXUTStatic@@@Z:PROC ; CDXUTDialog::AddStatic
EXTRN	?AddButton@CDXUTDialog@@QAEJHPBDHHHHI_NPAPAVCDXUTButton@@@Z:PROC ; CDXUTDialog::AddButton
EXTRN	?AddCheckBox@CDXUTDialog@@QAEJHPBDHHHH_NI1PAPAVCDXUTCheckBox@@@Z:PROC ; CDXUTDialog::AddCheckBox
EXTRN	?AddRadioButton@CDXUTDialog@@QAEJHIPBDHHHH_NI1PAPAVCDXUTRadioButton@@@Z:PROC ; CDXUTDialog::AddRadioButton
EXTRN	?AddComboBox@CDXUTDialog@@QAEJHHHHHI_NPAPAVCDXUTComboBox@@@Z:PROC ; CDXUTDialog::AddComboBox
EXTRN	?GetControl@CDXUTDialog@@QAEPAVCDXUTControl@@HI@Z:PROC ; CDXUTDialog::GetControl
EXTRN	?SetControlEnabled@CDXUTDialog@@QAEXH_N@Z:PROC	; CDXUTDialog::SetControlEnabled
EXTRN	?GetDefaultElement@CDXUTDialog@@QAEPAVCDXUTElement@@II@Z:PROC ; CDXUTDialog::GetDefaultElement
EXTRN	?SetBackgroundColors@CDXUTDialog@@QAEXKKKK@Z:PROC ; CDXUTDialog::SetBackgroundColors
EXTRN	?SetCallback@CDXUTDialog@@QAEXP6GXIHPAVCDXUTControl@@PAX@Z1@Z:PROC ; CDXUTDialog::SetCallback
EXTRN	?OnRender@CDXUTDialog@@QAEJM@Z:PROC		; CDXUTDialog::OnRender
EXTRN	?SetFont@CDXUTDialog@@QAEJIPBDJJ@Z:PROC		; CDXUTDialog::SetFont
EXTRN	?ClearFocus@CDXUTDialog@@SAXXZ:PROC		; CDXUTDialog::ClearFocus
EXTRN	?AddItem@CDXUTComboBox@@QAEJPBDPAX@Z:PROC	; CDXUTComboBox::AddItem
EXTRN	?RemoveAllItems@CDXUTComboBox@@QAEXXZ:PROC	; CDXUTComboBox::RemoveAllItems
EXTRN	?ContainsItem@CDXUTComboBox@@QAE_NPBDI@Z:PROC	; CDXUTComboBox::ContainsItem
EXTRN	?GetSelectedData@CDXUTComboBox@@QAEPAXXZ:PROC	; CDXUTComboBox::GetSelectedData
EXTRN	?SetSelectedByData@CDXUTComboBox@@QAEJPAX@Z:PROC ; CDXUTComboBox::SetSelectedByData
EXTRN	@_RTC_CheckStackVars@8:PROC
EXTRN	@__security_check_cookie@4:PROC
EXTRN	__RTC_CheckEsp:PROC
EXTRN	__RTC_InitBase:PROC
EXTRN	__RTC_Shutdown:PROC
EXTRN	___CxxFrameHandler3:PROC
EXTRN	?s_fTimeRefresh@CDXUTDialog@@0NA:QWORD		; CDXUTDialog::s_fTimeRefresh
EXTRN	___security_cookie:DWORD
EXTRN	__fltused:DWORD
_BSS	SEGMENT
?dlg@?1??DXUTGetSettingsDialog@@YAPAVCD3DSettingsDlg@@XZ@4V2@A DB 01efH DUP (?) ; `DXUTGetSettingsDialog'::`2'::dlg
	ALIGN	4

?$S1@?1??DXUTGetSettingsDialog@@YAPAVCD3DSettingsDlg@@XZ@4IA DD 01H DUP (?) ; `DXUTGetSettingsDialog'::`2'::$S1
_BSS	ENDS
;	COMDAT __real@3f800000
CONST	SEGMENT
__real@3f800000 DD 03f800000r			; 1
CONST	ENDS
;	COMDAT rtc$TMZ
rtc$TMZ	SEGMENT
__RTC_Shutdown.rtc$TMZ DD FLAT:__RTC_Shutdown
rtc$TMZ	ENDS
;	COMDAT rtc$IMZ
rtc$IMZ	SEGMENT
__RTC_InitBase.rtc$IMZ DD FLAT:__RTC_InitBase
rtc$IMZ	ENDS
;	COMDAT ??_C@_1EA@JHMKKLFC@?$AAn?$AAI?$AAn?$AAd?$AAe?$AAx?$AA?5?$AA?$DO?$AA?$DN?$AA?5?$AA0?$AA?5?$AA?$CG?$AA?$CG?$AA?5?$AAn?$AAI?$AAn?$AAd?$AAe?$AAx?$AA?5?$AA?$DM?$AA?5?$AAm?$AA_?$AAn?$AAS?$AAi?$AAz?$AAe?$AA?$AA@
CONST	SEGMENT
??_C@_1EA@JHMKKLFC@?$AAn?$AAI?$AAn?$AAd?$AAe?$AAx?$AA?5?$AA?$DO?$AA?$DN?$AA?5?$AA0?$AA?5?$AA?$CG?$AA?$CG?$AA?5?$AAn?$AAI?$AAn?$AAd?$AAe?$AAx?$AA?5?$AA?$DM?$AA?5?$AAm?$AA_?$AAn?$AAS?$AAi?$AAz?$AAe?$AA?$AA@ DB 'n'
	DB	00H, 'I', 00H, 'n', 00H, 'd', 00H, 'e', 00H, 'x', 00H, ' ', 00H
	DB	'>', 00H, '=', 00H, ' ', 00H, '0', 00H, ' ', 00H, '&', 00H, '&'
	DB	00H, ' ', 00H, 'n', 00H, 'I', 00H, 'n', 00H, 'd', 00H, 'e', 00H
	DB	'x', 00H, ' ', 00H, '<', 00H, ' ', 00H, 'm', 00H, '_', 00H, 'n'
	DB	00H, 'S', 00H, 'i', 00H, 'z', 00H, 'e', 00H, 00H, 00H ; `string'
CONST	ENDS
;	COMDAT ??_C@_1FK@FIMIDMPE@?$AAz?$AA?3?$AA?2?$AAs?$AAa?$AAm?$AAp?$AAs?$AAr?$AAc?$AA?2?$AA0?$AA2?$AAx?$AAu?$AA1?$AA?2?$AAs?$AAa?$AAc?$AAo?$AA?2?$AAd?$AA3?$AAd?$AA9?$AA?2?$AAc?$AAo?$AAm?$AAm?$AAo@
CONST	SEGMENT
??_C@_1FK@FIMIDMPE@?$AAz?$AA?3?$AA?2?$AAs?$AAa?$AAm?$AAp?$AAs?$AAr?$AAc?$AA?2?$AA0?$AA2?$AAx?$AAu?$AA1?$AA?2?$AAs?$AAa?$AAc?$AAo?$AA?2?$AAd?$AA3?$AAd?$AA9?$AA?2?$AAc?$AAo?$AAm?$AAm?$AAo@ DB 'z'
	DB	00H, ':', 00H, '\', 00H, 's', 00H, 'a', 00H, 'm', 00H, 'p', 00H
	DB	's', 00H, 'r', 00H, 'c', 00H, '\', 00H, '0', 00H, '2', 00H, 'x'
	DB	00H, 'u', 00H, '1', 00H, '\', 00H, 's', 00H, 'a', 00H, 'c', 00H
	DB	'o', 00H, '\', 00H, 'd', 00H, '3', 00H, 'd', 00H, '9', 00H, '\'
	DB	00H, 'c', 00H, 'o', 00H, 'm', 00H, 'm', 00H, 'o', 00H, 'n', 00H
	DB	'\', 00H, 'd', 00H, 'x', 00H, 'u', 00H, 't', 00H, 'm', 00H, 'i'
	DB	00H, 's', 00H, 'c', 00H, '.', 00H, 'h', 00H, 00H, 00H ; `string'
CONST	ENDS
;	COMDAT ??_C@_0BI@FKLDAGKA@Unknown?5PresentInterval?$AA@
CONST	SEGMENT
??_C@_0BI@FKLDAGKA@Unknown?5PresentInterval?$AA@ DB 'Unknown PresentInter'
	DB	'val', 00H					; `string'
CONST	ENDS
;	COMDAT ??_C@_0BJ@DENKPHNN@D3DPRESENT_INTERVAL_FOUR?$AA@
CONST	SEGMENT
??_C@_0BJ@DENKPHNN@D3DPRESENT_INTERVAL_FOUR?$AA@ DB 'D3DPRESENT_INTERVAL_'
	DB	'FOUR', 00H					; `string'
CONST	ENDS
;	COMDAT ??_C@_0BK@NNIDNBC@D3DPRESENT_INTERVAL_THREE?$AA@
CONST	SEGMENT
??_C@_0BK@NNIDNBC@D3DPRESENT_INTERVAL_THREE?$AA@ DB 'D3DPRESENT_INTERVAL_'
	DB	'THREE', 00H					; `string'
CONST	ENDS
;	COMDAT ??_C@_0BI@GJEDIGLG@D3DPRESENT_INTERVAL_TWO?$AA@
CONST	SEGMENT
??_C@_0BI@GJEDIGLG@D3DPRESENT_INTERVAL_TWO?$AA@ DB 'D3DPRESENT_INTERVAL_T'
	DB	'WO', 00H					; `string'
CONST	ENDS
;	COMDAT ??_C@_0BI@HEDCGFN@D3DPRESENT_INTERVAL_ONE?$AA@
CONST	SEGMENT
??_C@_0BI@HEDCGFN@D3DPRESENT_INTERVAL_ONE?$AA@ DB 'D3DPRESENT_INTERVAL_ON'
	DB	'E', 00H					; `string'
CONST	ENDS
;	COMDAT ??_C@_0BM@KHHJDMNH@D3DPRESENT_INTERVAL_DEFAULT?$AA@
CONST	SEGMENT
??_C@_0BM@KHHJDMNH@D3DPRESENT_INTERVAL_DEFAULT?$AA@ DB 'D3DPRESENT_INTERV'
	DB	'AL_DEFAULT', 00H				; `string'
CONST	ENDS
;	COMDAT ??_C@_0BO@IHADFNAE@D3DPRESENT_INTERVAL_IMMEDIATE?$AA@
CONST	SEGMENT
??_C@_0BO@IHADFNAE@D3DPRESENT_INTERVAL_IMMEDIATE?$AA@ DB 'D3DPRESENT_INTE'
	DB	'RVAL_IMMEDIATE', 00H			; `string'
CONST	ENDS
;	COMDAT ??_C@_0BP@IFOBCMHA@Unknown?5vertex?5processing?5type?$AA@
CONST	SEGMENT
??_C@_0BP@IFOBCMHA@Unknown?5vertex?5processing?5type?$AA@ DB 'Unknown ver'
	DB	'tex processing type', 00H			; `string'
CONST	ENDS
;	COMDAT ??_C@_0CA@LGOCNABM@Pure?5hardware?5vertex?5processing?$AA@
CONST	SEGMENT
??_C@_0CA@LGOCNABM@Pure?5hardware?5vertex?5processing?$AA@ DB 'Pure hardw'
	DB	'are vertex processing', 00H			; `string'
CONST	ENDS
;	COMDAT ??_C@_0BL@OBGGPIFF@Hardware?5vertex?5processing?$AA@
CONST	SEGMENT
??_C@_0BL@OBGGPIFF@Hardware?5vertex?5processing?$AA@ DB 'Hardware vertex '
	DB	'processing', 00H				; `string'
CONST	ENDS
;	COMDAT ??_C@_0BI@FGJLAPMK@Mixed?5vertex?5processing?$AA@
CONST	SEGMENT
??_C@_0BI@FGJLAPMK@Mixed?5vertex?5processing?$AA@ DB 'Mixed vertex proces'
	DB	'sing', 00H					; `string'
CONST	ENDS
;	COMDAT ??_C@_0BL@HIDCEKOM@Software?5vertex?5processing?$AA@
CONST	SEGMENT
??_C@_0BL@HIDCEKOM@Software?5vertex?5processing?$AA@ DB 'Software vertex '
	DB	'processing', 00H				; `string'
CONST	ENDS
;	COMDAT ??_C@_0BJ@FDPCNPC@Unknown?5Multisample?5Type?$AA@
CONST	SEGMENT
??_C@_0BJ@FDPCNPC@Unknown?5Multisample?5Type?$AA@ DB 'Unknown Multisample'
	DB	' Type', 00H					; `string'
CONST	ENDS
;	COMDAT ??_C@_0BK@HMEOMJAG@D3DMULTISAMPLE_16_SAMPLES?$AA@
CONST	SEGMENT
??_C@_0BK@HMEOMJAG@D3DMULTISAMPLE_16_SAMPLES?$AA@ DB 'D3DMULTISAMPLE_16_S'
	DB	'AMPLES', 00H				; `string'
CONST	ENDS
;	COMDAT ??_C@_0BK@JHHJHCAF@D3DMULTISAMPLE_15_SAMPLES?$AA@
CONST	SEGMENT
??_C@_0BK@JHHJHCAF@D3DMULTISAMPLE_15_SAMPLES?$AA@ DB 'D3DMULTISAMPLE_15_S'
	DB	'AMPLES', 00H				; `string'
CONST	ENDS
;	COMDAT ??_C@_0BK@HILLBJDL@D3DMULTISAMPLE_14_SAMPLES?$AA@
CONST	SEGMENT
??_C@_0BK@HILLBJDL@D3DMULTISAMPLE_14_SAMPLES?$AA@ DB 'D3DMULTISAMPLE_14_S'
	DB	'AMPLES', 00H				; `string'
CONST	ENDS
;	COMDAT ??_C@_0BK@JKGHACEC@D3DMULTISAMPLE_13_SAMPLES?$AA@
CONST	SEGMENT
??_C@_0BK@JKGHACEC@D3DMULTISAMPLE_13_SAMPLES?$AA@ DB 'D3DMULTISAMPLE_13_S'
	DB	'AMPLES', 00H				; `string'
CONST	ENDS
;	COMDAT ??_C@_0BK@HFKFGJHM@D3DMULTISAMPLE_12_SAMPLES?$AA@
CONST	SEGMENT
??_C@_0BK@HFKFGJHM@D3DMULTISAMPLE_12_SAMPLES?$AA@ DB 'D3DMULTISAMPLE_12_S'
	DB	'AMPLES', 00H				; `string'
CONST	ENDS
;	COMDAT ??_C@_0BK@JOJCNCHP@D3DMULTISAMPLE_11_SAMPLES?$AA@
CONST	SEGMENT
??_C@_0BK@JOJCNCHP@D3DMULTISAMPLE_11_SAMPLES?$AA@ DB 'D3DMULTISAMPLE_11_S'
	DB	'AMPLES', 00H				; `string'
CONST	ENDS
;	COMDAT ??_C@_0BK@HBFALJEB@D3DMULTISAMPLE_10_SAMPLES?$AA@
CONST	SEGMENT
??_C@_0BK@HBFALJEB@D3DMULTISAMPLE_10_SAMPLES?$AA@ DB 'D3DMULTISAMPLE_10_S'
	DB	'AMPLES', 00H				; `string'
CONST	ENDS
;	COMDAT ??_C@_0BJ@MCIJKLBE@D3DMULTISAMPLE_9_SAMPLES?$AA@
CONST	SEGMENT
??_C@_0BJ@MCIJKLBE@D3DMULTISAMPLE_9_SAMPLES?$AA@ DB 'D3DMULTISAMPLE_9_SAM'
	DB	'PLES', 00H					; `string'
CONST	ENDS
;	COMDAT ??_C@_0BJ@CNELMACK@D3DMULTISAMPLE_8_SAMPLES?$AA@
CONST	SEGMENT
??_C@_0BJ@CNELMACK@D3DMULTISAMPLE_8_SAMPLES?$AA@ DB 'D3DMULTISAMPLE_8_SAM'
	DB	'PLES', 00H					; `string'
CONST	ENDS
;	COMDAT ??_C@_0BJ@NMEAJLKH@D3DMULTISAMPLE_7_SAMPLES?$AA@
CONST	SEGMENT
??_C@_0BJ@NMEAJLKH@D3DMULTISAMPLE_7_SAMPLES?$AA@ DB 'D3DMULTISAMPLE_7_SAM'
	DB	'PLES', 00H					; `string'
CONST	ENDS
;	COMDAT ??_C@_0BJ@DDICPAJJ@D3DMULTISAMPLE_6_SAMPLES?$AA@
CONST	SEGMENT
??_C@_0BJ@DDICPAJJ@D3DMULTISAMPLE_6_SAMPLES?$AA@ DB 'D3DMULTISAMPLE_6_SAM'
	DB	'PLES', 00H					; `string'
CONST	ENDS
;	COMDAT ??_C@_0BJ@NILFELJK@D3DMULTISAMPLE_5_SAMPLES?$AA@
CONST	SEGMENT
??_C@_0BJ@NILFELJK@D3DMULTISAMPLE_5_SAMPLES?$AA@ DB 'D3DMULTISAMPLE_5_SAM'
	DB	'PLES', 00H					; `string'
CONST	ENDS
;	COMDAT ??_C@_0BJ@DHHHCAKE@D3DMULTISAMPLE_4_SAMPLES?$AA@
CONST	SEGMENT
??_C@_0BJ@DHHHCAKE@D3DMULTISAMPLE_4_SAMPLES?$AA@ DB 'D3DMULTISAMPLE_4_SAM'
	DB	'PLES', 00H					; `string'
CONST	ENDS
;	COMDAT ??_C@_0BJ@NFKLDLNN@D3DMULTISAMPLE_3_SAMPLES?$AA@
CONST	SEGMENT
??_C@_0BJ@NFKLDLNN@D3DMULTISAMPLE_3_SAMPLES?$AA@ DB 'D3DMULTISAMPLE_3_SAM'
	DB	'PLES', 00H					; `string'
CONST	ENDS
;	COMDAT ??_C@_0BJ@DKGJFAOD@D3DMULTISAMPLE_2_SAMPLES?$AA@
CONST	SEGMENT
??_C@_0BJ@DKGJFAOD@D3DMULTISAMPLE_2_SAMPLES?$AA@ DB 'D3DMULTISAMPLE_2_SAM'
	DB	'PLES', 00H					; `string'
CONST	ENDS
;	COMDAT ??_C@_0BL@DHADFMPE@D3DMULTISAMPLE_NONMASKABLE?$AA@
CONST	SEGMENT
??_C@_0BL@DHADFMPE@D3DMULTISAMPLE_NONMASKABLE?$AA@ DB 'D3DMULTISAMPLE_NON'
	DB	'MASKABLE', 00H				; `string'
CONST	ENDS
;	COMDAT ??_C@_0BE@NJJBJMAG@D3DMULTISAMPLE_NONE?$AA@
CONST	SEGMENT
??_C@_0BE@NJJBJMAG@D3DMULTISAMPLE_NONE?$AA@ DB 'D3DMULTISAMPLE_NONE', 00H ; `string'
CONST	ENDS
;	COMDAT ??_C@_0BA@DOHCMOHN@Unknown?5devType?$AA@
CONST	SEGMENT
??_C@_0BA@DOHCMOHN@Unknown?5devType?$AA@ DB 'Unknown devType', 00H ; `string'
CONST	ENDS
;	COMDAT ??_C@_0P@PAPKAFBN@D3DDEVTYPE_REF?$AA@
CONST	SEGMENT
??_C@_0P@PAPKAFBN@D3DDEVTYPE_REF?$AA@ DB 'D3DDEVTYPE_REF', 00H ; `string'
CONST	ENDS
;	COMDAT ??_C@_0O@BDBPKHNB@D3DDEVTYPE_SW?$AA@
CONST	SEGMENT
??_C@_0O@BDBPKHNB@D3DDEVTYPE_SW?$AA@ DB 'D3DDEVTYPE_SW', 00H ; `string'
CONST	ENDS
;	COMDAT ??_C@_0O@BPPEFOJH@D3DDEVTYPE_HA?$AA@
CONST	SEGMENT
??_C@_0O@BPPEFOJH@D3DDEVTYPE_HA?$AA@ DB 'D3DDEVTYPE_HA', 00H ; `string'
CONST	ENDS
;	COMDAT ??_C@_02DPKJAMEF@?$CFd?$AA@
CONST	SEGMENT
??_C@_02DPKJAMEF@?$CFd?$AA@ DB '%d', 00H		; `string'
CONST	ENDS
;	COMDAT ??_C@_05HOIFPJGO@?$CFd?5Hz?$AA@
CONST	SEGMENT
??_C@_05HOIFPJGO@?$CFd?5Hz?$AA@ DB '%d Hz', 00H		; `string'
CONST	ENDS
;	COMDAT ??_C@_0N@BDMKPLKO@Default?5Rate?$AA@
CONST	SEGMENT
??_C@_0N@BDMKPLKO@Default?5Rate?$AA@ DB 'Default Rate', 00H ; `string'
CONST	ENDS
;	COMDAT ??_C@_08GEFHBCBJ@?$CFd?5by?5?$CFd?$AA@
CONST	SEGMENT
??_C@_08GEFHBCBJ@?$CFd?5by?5?$CFd?$AA@ DB '%d by %d', 00H ; `string'
CONST	ENDS
;	COMDAT ??_C@_0L@OBIJABIK@?$CInot?5used?$CJ?$AA@
CONST	SEGMENT
??_C@_0L@OBIJABIK@?$CInot?5used?$CJ?$AA@ DB '(not used)', 00H ; `string'
CONST	ENDS
;	COMDAT ??_C@_0BG@HDMFDHKA@GetAdapterDisplayMode?$AA@
CONST	SEGMENT
??_C@_0BG@HDMFDHKA@GetAdapterDisplayMode?$AA@ DB 'GetAdapterDisplayMode', 00H ; `string'
CONST	ENDS
;	COMDAT ??_C@_0BB@BKKEDFLK@DXUTGetD3DObject?$AA@
CONST	SEGMENT
??_C@_0BB@BKKEDFLK@DXUTGetD3DObject?$AA@ DB 'DXUTGetD3DObject', 00H ; `string'
CONST	ENDS
;	COMDAT ?__LINE__Var@?1??OnWindowedFullScreenChanged@CD3DSettingsDlg@@IAEJXZ@4JA
_DATA	SEGMENT
?__LINE__Var@?1??OnWindowedFullScreenChanged@CD3DSettingsDlg@@IAEJXZ@4JA DD 01fdH ; `CD3DSettingsDlg::OnWindowedFullScreenChanged'::`2'::__LINE__Var
_DATA	ENDS
;	COMDAT ??_C@_0BH@DKAMNCJK@GetDeviceSettingsCombo?$AA@
CONST	SEGMENT
??_C@_0BH@DKAMNCJK@GetDeviceSettingsCombo?$AA@ DB 'GetDeviceSettingsCombo'
	DB	00H						; `string'
CONST	ENDS
;	COMDAT ?__LINE__Var@?1??Refresh@CD3DSettingsDlg@@QAEJXZ@4JA
_DATA	SEGMENT
?__LINE__Var@?1??Refresh@CD3DSettingsDlg@@QAEJXZ@4JA DD 09aH ; `CD3DSettingsDlg::Refresh'::`2'::__LINE__Var
_DATA	ENDS
;	COMDAT ??_C@_0DG@DJJIHDHJ@z?3?2sampsrc?202xu1?2saco?2d3d9?2commo@
CONST	SEGMENT
??_C@_0DG@DJJIHDHJ@z?3?2sampsrc?202xu1?2saco?2d3d9?2commo@ DB 'z:\sampsrc'
	DB	'\02xu1\saco\d3d9\common\dxutsettingsdlg.cpp', 00H ; `string'
CONST	ENDS
;	COMDAT ??_C@_0CB@MPDAPCIN@CD3DSettingsDlg?3?3OnCreatedDevice@
CONST	SEGMENT
??_C@_0CB@MPDAPCIN@CD3DSettingsDlg?3?3OnCreatedDevice@ DB 'CD3DSettingsDl'
	DB	'g::OnCreatedDevice', 00H			; `string'
CONST	ENDS
;	COMDAT ?__LINE__Var@?1??OnCreateDevice@CD3DSettingsDlg@@QAEJPAUIDirect3DDevice9@@@Z@4JA
_DATA	SEGMENT
?__LINE__Var@?1??OnCreateDevice@CD3DSettingsDlg@@QAEJPAUIDirect3DDevice9@@@Z@4JA DD 08bH ; `CD3DSettingsDlg::OnCreateDevice'::`2'::__LINE__Var
_DATA	ENDS
;	COMDAT ??_C@_06FMBNCPDL@Cancel?$AA@
CONST	SEGMENT
??_C@_06FMBNCPDL@Cancel?$AA@ DB 'Cancel', 00H		; `string'
CONST	ENDS
;	COMDAT ??_C@_02GIPFHKNO@OK?$AA@
CONST	SEGMENT
??_C@_02GIPFHKNO@OK?$AA@ DB 'OK', 00H			; `string'
CONST	ENDS
;	COMDAT ??_C@_0BB@KKDKFJOK@Present?5Interval?$AA@
CONST	SEGMENT
??_C@_0BB@KKDKFJOK@Present?5Interval?$AA@ DB 'Present Interval', 00H ; `string'
CONST	ENDS
;	COMDAT ??_C@_0BC@DCIOODHA@Vertex?5Processing?$AA@
CONST	SEGMENT
??_C@_0BC@DCIOODHA@Vertex?5Processing?$AA@ DB 'Vertex Processing', 00H ; `string'
CONST	ENDS
;	COMDAT ??_C@_0BE@OKHJGJBB@Multisample?5Quality?$AA@
CONST	SEGMENT
??_C@_0BE@OKHJGJBB@Multisample?5Quality?$AA@ DB 'Multisample Quality', 00H ; `string'
CONST	ENDS
;	COMDAT ??_C@_0BB@HJDEFCIC@Multisample?5Type?$AA@
CONST	SEGMENT
??_C@_0BB@HJDEFCIC@Multisample?5Type?$AA@ DB 'Multisample Type', 00H ; `string'
CONST	ENDS
;	COMDAT ??_C@_0BF@GFFPGCOA@Depth?1Stencil?5Format?$AA@
CONST	SEGMENT
??_C@_0BF@GFFPGCOA@Depth?1Stencil?5Format?$AA@ DB 'Depth/Stencil Format', 00H ; `string'
CONST	ENDS
;	COMDAT ??_C@_0BD@CBHMGFOH@Back?5Buffer?5Format?$AA@
CONST	SEGMENT
??_C@_0BD@CBHMGFOH@Back?5Buffer?5Format?$AA@ DB 'Back Buffer Format', 00H ; `string'
CONST	ENDS
;	COMDAT ??_C@_0N@GCJECPAO@Refresh?5Rate?$AA@
CONST	SEGMENT
??_C@_0N@GCJECPAO@Refresh?5Rate?$AA@ DB 'Refresh Rate', 00H ; `string'
CONST	ENDS
;	COMDAT ??_C@_0L@KGPBCGJE@Resolution?$AA@
CONST	SEGMENT
??_C@_0L@KGPBCGJE@Resolution?$AA@ DB 'Resolution', 00H	; `string'
CONST	ENDS
;	COMDAT ??_C@_0P@PBAFMFII@Adapter?5Format?$AA@
CONST	SEGMENT
??_C@_0P@PBAFMFII@Adapter?5Format?$AA@ DB 'Adapter Format', 00H ; `string'
CONST	ENDS
;	COMDAT ??_C@_0M@PKCOFEIL@Full?5Screen?$AA@
CONST	SEGMENT
??_C@_0M@PKCOFEIL@Full?5Screen?$AA@ DB 'Full Screen', 00H ; `string'
CONST	ENDS
;	COMDAT ??_C@_0DK@IBFBNHLK@Clip?5to?5device?5when?5window?5spans@
CONST	SEGMENT
??_C@_0DK@IBFBNHLK@Clip?5to?5device?5when?5window?5spans@ DB 'Clip to dev'
	DB	'ice when window spans across multiple monitors', 00H ; `string'
CONST	ENDS
;	COMDAT ??_C@_08CKIKNJFL@Windowed?$AA@
CONST	SEGMENT
??_C@_08CKIKNJFL@Windowed?$AA@ DB 'Windowed', 00H	; `string'
CONST	ENDS
;	COMDAT ??_C@_0O@EAKEHECG@Render?5Device?$AA@
CONST	SEGMENT
??_C@_0O@EAKEHECG@Render?5Device?$AA@ DB 'Render Device', 00H ; `string'
CONST	ENDS
;	COMDAT ??_C@_0BA@NCOOEBAA@Display?5Adapter?$AA@
CONST	SEGMENT
??_C@_0BA@NCOOEBAA@Display?5Adapter?$AA@ DB 'Display Adapter', 00H ; `string'
CONST	ENDS
;	COMDAT ??_C@_0BC@IPHGBCKD@Direct3D?5Settings?$AA@
CONST	SEGMENT
??_C@_0BC@IPHGBCKD@Direct3D?5Settings?$AA@ DB 'Direct3D Settings', 00H ; `string'
CONST	ENDS
;	COMDAT ??_C@_05MPFIAJAP@Arial?$AA@
CONST	SEGMENT
??_C@_05MPFIAJAP@Arial?$AA@ DB 'Arial', 00H		; `string'
CONST	ENDS
;	COMDAT ??_C@_1BC@NLANPBAC@?$AAp?$AAM?$AAa?$AAn?$AAa?$AAg?$AAe?$AAr?$AA?$AA@
CONST	SEGMENT
??_C@_1BC@NLANPBAC@?$AAp?$AAM?$AAa?$AAn?$AAa?$AAg?$AAe?$AAr?$AA?$AA@ DB 'p'
	DB	00H, 'M', 00H, 'a', 00H, 'n', 00H, 'a', 00H, 'g', 00H, 'e', 00H
	DB	'r', 00H, 00H, 00H				; `string'
CONST	ENDS
;	COMDAT ??_C@_1GM@HIEKCNEA@?$AAz?$AA?3?$AA?2?$AAs?$AAa?$AAm?$AAp?$AAs?$AAr?$AAc?$AA?2?$AA0?$AA2?$AAx?$AAu?$AA1?$AA?2?$AAs?$AAa?$AAc?$AAo?$AA?2?$AAd?$AA3?$AAd?$AA9?$AA?2?$AAc?$AAo?$AAm?$AAm?$AAo@
CONST	SEGMENT
??_C@_1GM@HIEKCNEA@?$AAz?$AA?3?$AA?2?$AAs?$AAa?$AAm?$AAp?$AAs?$AAr?$AAc?$AA?2?$AA0?$AA2?$AAx?$AAu?$AA1?$AA?2?$AAs?$AAa?$AAc?$AAo?$AA?2?$AAd?$AA3?$AAd?$AA9?$AA?2?$AAc?$AAo?$AAm?$AAm?$AAo@ DB 'z'
	DB	00H, ':', 00H, '\', 00H, 's', 00H, 'a', 00H, 'm', 00H, 'p', 00H
	DB	's', 00H, 'r', 00H, 'c', 00H, '\', 00H, '0', 00H, '2', 00H, 'x'
	DB	00H, 'u', 00H, '1', 00H, '\', 00H, 's', 00H, 'a', 00H, 'c', 00H
	DB	'o', 00H, '\', 00H, 'd', 00H, '3', 00H, 'd', 00H, '9', 00H, '\'
	DB	00H, 'c', 00H, 'o', 00H, 'm', 00H, 'm', 00H, 'o', 00H, 'n', 00H
	DB	'\', 00H, 'd', 00H, 'x', 00H, 'u', 00H, 't', 00H, 's', 00H, 'e'
	DB	00H, 't', 00H, 't', 00H, 'i', 00H, 'n', 00H, 'g', 00H, 's', 00H
	DB	'd', 00H, 'l', 00H, 'g', 00H, '.', 00H, 'c', 00H, 'p', 00H, 'p'
	DB	00H, 00H, 00H				; `string'
CONST	ENDS
;	COMDAT ?__LINE__Var@?1??Init@CD3DSettingsDlg@@QAEXPAVCDXUTDialogResourceManager@@@Z@4JA
_DATA	SEGMENT
?__LINE__Var@?1??Init@CD3DSettingsDlg@@QAEXPAVCDXUTDialogResourceManager@@@Z@4JA DD 036H ; `CD3DSettingsDlg::Init'::`2'::__LINE__Var
_DATA	ENDS
;	COMDAT xdata$x
xdata$x	SEGMENT
__unwindtable$?DXUTGetSettingsDialog@@YAPAVCD3DSettingsDlg@@XZ DD 0ffffffffH
	DD	FLAT:__unwindfunclet$?DXUTGetSettingsDialog@@YAPAVCD3DSettingsDlg@@XZ$0
__ehfuncinfo$?DXUTGetSettingsDialog@@YAPAVCD3DSettingsDlg@@XZ DD 019930522H
	DD	01H
	DD	FLAT:__unwindtable$?DXUTGetSettingsDialog@@YAPAVCD3DSettingsDlg@@XZ
	DD	2 DUP(00H)
	DD	2 DUP(00H)
	DD	00H
	DD	01H
xdata$x	ENDS
;	COMDAT xdata$x
xdata$x	SEGMENT
__unwindtable$??1CD3DSettingsDlg@@QAE@XZ DD 0ffffffffH
	DD	FLAT:__unwindfunclet$??1CD3DSettingsDlg@@QAE@XZ$0
__ehfuncinfo$??1CD3DSettingsDlg@@QAE@XZ DD 019930522H
	DD	01H
	DD	FLAT:__unwindtable$??1CD3DSettingsDlg@@QAE@XZ
	DD	2 DUP(00H)
	DD	2 DUP(00H)
	DD	00H
	DD	01H
xdata$x	ENDS
; Function compile flags: /Odtp /RTCsu /ZI
;	COMDAT ??__Fdlg@?1??DXUTGetSettingsDialog@@YAPAVCD3DSettingsDlg@@XZ@YAXXZ
text$yd	SEGMENT
??__Fdlg@?1??DXUTGetSettingsDialog@@YAPAVCD3DSettingsDlg@@XZ@YAXXZ PROC ; `DXUTGetSettingsDialog'::`2'::`dynamic atexit destructor for 'dlg'', COMDAT
	push	ebp
	mov	ebp, esp
	sub	esp, 192				; 000000c0H
	push	ebx
	push	esi
	push	edi
	lea	edi, DWORD PTR [ebp-192]
	mov	ecx, 48					; 00000030H
	mov	eax, -858993460				; ccccccccH
	rep stosd
	mov	ecx, OFFSET ?dlg@?1??DXUTGetSettingsDialog@@YAPAVCD3DSettingsDlg@@XZ@4V2@A
	call	??1CD3DSettingsDlg@@QAE@XZ		; CD3DSettingsDlg::~CD3DSettingsDlg
	pop	edi
	pop	esi
	pop	ebx
	add	esp, 192				; 000000c0H
	cmp	ebp, esp
	call	__RTC_CheckEsp
	mov	esp, ebp
	pop	ebp
	ret	0
??__Fdlg@?1??DXUTGetSettingsDialog@@YAPAVCD3DSettingsDlg@@XZ@YAXXZ ENDP ; `DXUTGetSettingsDialog'::`2'::`dynamic atexit destructor for 'dlg''
text$yd	ENDS
; Function compile flags: /Odtp /RTCsu /ZI
; File z:\sampsrc\02xu1\saco\d3d9\common\dxutsettingsdlg.cpp
;	COMDAT ?DXUTVertexProcessingTypeToString@@YAPADK@Z
_TEXT	SEGMENT
tv64 = -196						; size = 4
_vpt$ = 8						; size = 4
?DXUTVertexProcessingTypeToString@@YAPADK@Z PROC	; DXUTVertexProcessingTypeToString, COMDAT

; 1316 : {

	push	ebp
	mov	ebp, esp
	sub	esp, 196				; 000000c4H
	push	ebx
	push	esi
	push	edi
	lea	edi, DWORD PTR [ebp-196]
	mov	ecx, 49					; 00000031H
	mov	eax, -858993460				; ccccccccH
	rep stosd

; 1317 :     switch (vpt)

	mov	eax, DWORD PTR _vpt$[ebp]
	mov	DWORD PTR tv64[ebp], eax
	mov	ecx, DWORD PTR tv64[ebp]
	sub	ecx, 16					; 00000010H
	mov	DWORD PTR tv64[ebp], ecx
	cmp	DWORD PTR tv64[ebp], 112		; 00000070H
	ja	SHORT $LN1@DXUTVertex
	mov	edx, DWORD PTR tv64[ebp]
	movzx	eax, BYTE PTR $LN10@DXUTVertex[edx]
	jmp	DWORD PTR $LN11@DXUTVertex[eax*4]
$LN5@DXUTVertex:

; 1318 :     {
; 1319 :     case D3DCREATE_SOFTWARE_VERTEXPROCESSING: return "Software vertex processing";

	mov	eax, OFFSET ??_C@_0BL@HIDCEKOM@Software?5vertex?5processing?$AA@
	jmp	SHORT $LN8@DXUTVertex
$LN4@DXUTVertex:

; 1320 :     case D3DCREATE_MIXED_VERTEXPROCESSING:    return "Mixed vertex processing";

	mov	eax, OFFSET ??_C@_0BI@FGJLAPMK@Mixed?5vertex?5processing?$AA@
	jmp	SHORT $LN8@DXUTVertex
$LN3@DXUTVertex:

; 1321 :     case D3DCREATE_HARDWARE_VERTEXPROCESSING: return "Hardware vertex processing";

	mov	eax, OFFSET ??_C@_0BL@OBGGPIFF@Hardware?5vertex?5processing?$AA@
	jmp	SHORT $LN8@DXUTVertex
$LN2@DXUTVertex:

; 1322 :     case D3DCREATE_PUREDEVICE:                return "Pure hardware vertex processing";

	mov	eax, OFFSET ??_C@_0CA@LGOCNABM@Pure?5hardware?5vertex?5processing?$AA@
	jmp	SHORT $LN8@DXUTVertex
$LN1@DXUTVertex:

; 1323 :     default:                                  return "Unknown vertex processing type";

	mov	eax, OFFSET ??_C@_0BP@IFOBCMHA@Unknown?5vertex?5processing?5type?$AA@
$LN8@DXUTVertex:

; 1324 :     }
; 1325 : }

	pop	edi
	pop	esi
	pop	ebx
	mov	esp, ebp
	pop	ebp
	ret	0
	npad	1
$LN11@DXUTVertex:
	DD	$LN2@DXUTVertex
	DD	$LN5@DXUTVertex
	DD	$LN3@DXUTVertex
	DD	$LN4@DXUTVertex
	DD	$LN1@DXUTVertex
$LN10@DXUTVertex:
	DB	0
	DB	4
	DB	4
	DB	4
	DB	4
	DB	4
	DB	4
	DB	4
	DB	4
	DB	4
	DB	4
	DB	4
	DB	4
	DB	4
	DB	4
	DB	4
	DB	1
	DB	4
	DB	4
	DB	4
	DB	4
	DB	4
	DB	4
	DB	4
	DB	4
	DB	4
	DB	4
	DB	4
	DB	4
	DB	4
	DB	4
	DB	4
	DB	4
	DB	4
	DB	4
	DB	4
	DB	4
	DB	4
	DB	4
	DB	4
	DB	4
	DB	4
	DB	4
	DB	4
	DB	4
	DB	4
	DB	4
	DB	4
	DB	2
	DB	4
	DB	4
	DB	4
	DB	4
	DB	4
	DB	4
	DB	4
	DB	4
	DB	4
	DB	4
	DB	4
	DB	4
	DB	4
	DB	4
	DB	4
	DB	4
	DB	4
	DB	4
	DB	4
	DB	4
	DB	4
	DB	4
	DB	4
	DB	4
	DB	4
	DB	4
	DB	4
	DB	4
	DB	4
	DB	4
	DB	4
	DB	4
	DB	4
	DB	4
	DB	4
	DB	4
	DB	4
	DB	4
	DB	4
	DB	4
	DB	4
	DB	4
	DB	4
	DB	4
	DB	4
	DB	4
	DB	4
	DB	4
	DB	4
	DB	4
	DB	4
	DB	4
	DB	4
	DB	4
	DB	4
	DB	4
	DB	4
	DB	4
	DB	4
	DB	4
	DB	4
	DB	4
	DB	4
	DB	3
?DXUTVertexProcessingTypeToString@@YAPADK@Z ENDP	; DXUTVertexProcessingTypeToString
_TEXT	ENDS
; Function compile flags: /Odtp /RTCsu /ZI
; File z:\sampsrc\02xu1\saco\d3d9\common\dxutsettingsdlg.cpp
;	COMDAT ?DXUTD3DDeviceTypeToString@@YAPADW4_D3DDEVTYPE@@@Z
_TEXT	SEGMENT
tv64 = -196						; size = 4
_devType$ = 8						; size = 4
?DXUTD3DDeviceTypeToString@@YAPADW4_D3DDEVTYPE@@@Z PROC	; DXUTD3DDeviceTypeToString, COMDAT

; 1272 : {

	push	ebp
	mov	ebp, esp
	sub	esp, 196				; 000000c4H
	push	ebx
	push	esi
	push	edi
	lea	edi, DWORD PTR [ebp-196]
	mov	ecx, 49					; 00000031H
	mov	eax, -858993460				; ccccccccH
	rep stosd

; 1273 :     switch (devType)

	mov	eax, DWORD PTR _devType$[ebp]
	mov	DWORD PTR tv64[ebp], eax
	cmp	DWORD PTR tv64[ebp], 1
	je	SHORT $LN4@DXUTD3DDev
	cmp	DWORD PTR tv64[ebp], 2
	je	SHORT $LN2@DXUTD3DDev
	cmp	DWORD PTR tv64[ebp], 3
	je	SHORT $LN3@DXUTD3DDev
	jmp	SHORT $LN1@DXUTD3DDev
$LN4@DXUTD3DDev:

; 1274 :     {
; 1275 :         case D3DDEVTYPE_HAL:        return "D3DDEVTYPE_HA";

	mov	eax, OFFSET ??_C@_0O@BPPEFOJH@D3DDEVTYPE_HA?$AA@
	jmp	SHORT $LN7@DXUTD3DDev
$LN3@DXUTD3DDev:

; 1276 :         case D3DDEVTYPE_SW:         return "D3DDEVTYPE_SW";

	mov	eax, OFFSET ??_C@_0O@BDBPKHNB@D3DDEVTYPE_SW?$AA@
	jmp	SHORT $LN7@DXUTD3DDev
$LN2@DXUTD3DDev:

; 1277 :         case D3DDEVTYPE_REF:        return "D3DDEVTYPE_REF";

	mov	eax, OFFSET ??_C@_0P@PAPKAFBN@D3DDEVTYPE_REF?$AA@
	jmp	SHORT $LN7@DXUTD3DDev
$LN1@DXUTD3DDev:

; 1278 :         default:                    return "Unknown devType";

	mov	eax, OFFSET ??_C@_0BA@DOHCMOHN@Unknown?5devType?$AA@
$LN7@DXUTD3DDev:

; 1279 :     }
; 1280 : }

	pop	edi
	pop	esi
	pop	ebx
	mov	esp, ebp
	pop	ebp
	ret	0
?DXUTD3DDeviceTypeToString@@YAPADW4_D3DDEVTYPE@@@Z ENDP	; DXUTD3DDeviceTypeToString
_TEXT	ENDS
; Function compile flags: /Odtp /RTCsu /ZI
; File z:\sampsrc\02xu1\saco\d3d9\common\dxutsettingsdlg.cpp
;	COMDAT ?DXUTMultisampleTypeToString@@YAPADW4_D3DMULTISAMPLE_TYPE@@@Z
_TEXT	SEGMENT
tv64 = -196						; size = 4
_MultiSampleType$ = 8					; size = 4
?DXUTMultisampleTypeToString@@YAPADW4_D3DMULTISAMPLE_TYPE@@@Z PROC ; DXUTMultisampleTypeToString, COMDAT

; 1287 : {

	push	ebp
	mov	ebp, esp
	sub	esp, 196				; 000000c4H
	push	ebx
	push	esi
	push	edi
	lea	edi, DWORD PTR [ebp-196]
	mov	ecx, 49					; 00000031H
	mov	eax, -858993460				; ccccccccH
	rep stosd

; 1288 :     switch (MultiSampleType)

	mov	eax, DWORD PTR _MultiSampleType$[ebp]
	mov	DWORD PTR tv64[ebp], eax
	cmp	DWORD PTR tv64[ebp], 16			; 00000010H
	ja	$LN1@DXUTMultis
	mov	ecx, DWORD PTR tv64[ebp]
	jmp	DWORD PTR $LN23@DXUTMultis[ecx*4]
$LN18@DXUTMultis:

; 1289 :     {
; 1290 :     case D3DMULTISAMPLE_NONE:       return "D3DMULTISAMPLE_NONE";

	mov	eax, OFFSET ??_C@_0BE@NJJBJMAG@D3DMULTISAMPLE_NONE?$AA@
	jmp	SHORT $LN21@DXUTMultis
$LN17@DXUTMultis:

; 1291 :     case D3DMULTISAMPLE_NONMASKABLE: return "D3DMULTISAMPLE_NONMASKABLE";

	mov	eax, OFFSET ??_C@_0BL@DHADFMPE@D3DMULTISAMPLE_NONMASKABLE?$AA@
	jmp	SHORT $LN21@DXUTMultis
$LN16@DXUTMultis:

; 1292 :     case D3DMULTISAMPLE_2_SAMPLES:  return "D3DMULTISAMPLE_2_SAMPLES";

	mov	eax, OFFSET ??_C@_0BJ@DKGJFAOD@D3DMULTISAMPLE_2_SAMPLES?$AA@
	jmp	SHORT $LN21@DXUTMultis
$LN15@DXUTMultis:

; 1293 :     case D3DMULTISAMPLE_3_SAMPLES:  return "D3DMULTISAMPLE_3_SAMPLES";

	mov	eax, OFFSET ??_C@_0BJ@NFKLDLNN@D3DMULTISAMPLE_3_SAMPLES?$AA@
	jmp	SHORT $LN21@DXUTMultis
$LN14@DXUTMultis:

; 1294 :     case D3DMULTISAMPLE_4_SAMPLES:  return "D3DMULTISAMPLE_4_SAMPLES";

	mov	eax, OFFSET ??_C@_0BJ@DHHHCAKE@D3DMULTISAMPLE_4_SAMPLES?$AA@
	jmp	SHORT $LN21@DXUTMultis
$LN13@DXUTMultis:

; 1295 :     case D3DMULTISAMPLE_5_SAMPLES:  return "D3DMULTISAMPLE_5_SAMPLES";

	mov	eax, OFFSET ??_C@_0BJ@NILFELJK@D3DMULTISAMPLE_5_SAMPLES?$AA@
	jmp	SHORT $LN21@DXUTMultis
$LN12@DXUTMultis:

; 1296 :     case D3DMULTISAMPLE_6_SAMPLES:  return "D3DMULTISAMPLE_6_SAMPLES";

	mov	eax, OFFSET ??_C@_0BJ@DDICPAJJ@D3DMULTISAMPLE_6_SAMPLES?$AA@
	jmp	SHORT $LN21@DXUTMultis
$LN11@DXUTMultis:

; 1297 :     case D3DMULTISAMPLE_7_SAMPLES:  return "D3DMULTISAMPLE_7_SAMPLES";

	mov	eax, OFFSET ??_C@_0BJ@NMEAJLKH@D3DMULTISAMPLE_7_SAMPLES?$AA@
	jmp	SHORT $LN21@DXUTMultis
$LN10@DXUTMultis:

; 1298 :     case D3DMULTISAMPLE_8_SAMPLES:  return "D3DMULTISAMPLE_8_SAMPLES";

	mov	eax, OFFSET ??_C@_0BJ@CNELMACK@D3DMULTISAMPLE_8_SAMPLES?$AA@
	jmp	SHORT $LN21@DXUTMultis
$LN9@DXUTMultis:

; 1299 :     case D3DMULTISAMPLE_9_SAMPLES:  return "D3DMULTISAMPLE_9_SAMPLES";

	mov	eax, OFFSET ??_C@_0BJ@MCIJKLBE@D3DMULTISAMPLE_9_SAMPLES?$AA@
	jmp	SHORT $LN21@DXUTMultis
$LN8@DXUTMultis:

; 1300 :     case D3DMULTISAMPLE_10_SAMPLES: return "D3DMULTISAMPLE_10_SAMPLES";

	mov	eax, OFFSET ??_C@_0BK@HBFALJEB@D3DMULTISAMPLE_10_SAMPLES?$AA@
	jmp	SHORT $LN21@DXUTMultis
$LN7@DXUTMultis:

; 1301 :     case D3DMULTISAMPLE_11_SAMPLES: return "D3DMULTISAMPLE_11_SAMPLES";

	mov	eax, OFFSET ??_C@_0BK@JOJCNCHP@D3DMULTISAMPLE_11_SAMPLES?$AA@
	jmp	SHORT $LN21@DXUTMultis
$LN6@DXUTMultis:

; 1302 :     case D3DMULTISAMPLE_12_SAMPLES: return "D3DMULTISAMPLE_12_SAMPLES";

	mov	eax, OFFSET ??_C@_0BK@HFKFGJHM@D3DMULTISAMPLE_12_SAMPLES?$AA@
	jmp	SHORT $LN21@DXUTMultis
$LN5@DXUTMultis:

; 1303 :     case D3DMULTISAMPLE_13_SAMPLES: return "D3DMULTISAMPLE_13_SAMPLES";

	mov	eax, OFFSET ??_C@_0BK@JKGHACEC@D3DMULTISAMPLE_13_SAMPLES?$AA@
	jmp	SHORT $LN21@DXUTMultis
$LN4@DXUTMultis:

; 1304 :     case D3DMULTISAMPLE_14_SAMPLES: return "D3DMULTISAMPLE_14_SAMPLES";

	mov	eax, OFFSET ??_C@_0BK@HILLBJDL@D3DMULTISAMPLE_14_SAMPLES?$AA@
	jmp	SHORT $LN21@DXUTMultis
$LN3@DXUTMultis:

; 1305 :     case D3DMULTISAMPLE_15_SAMPLES: return "D3DMULTISAMPLE_15_SAMPLES";

	mov	eax, OFFSET ??_C@_0BK@JHHJHCAF@D3DMULTISAMPLE_15_SAMPLES?$AA@
	jmp	SHORT $LN21@DXUTMultis
$LN2@DXUTMultis:

; 1306 :     case D3DMULTISAMPLE_16_SAMPLES: return "D3DMULTISAMPLE_16_SAMPLES";

	mov	eax, OFFSET ??_C@_0BK@HMEOMJAG@D3DMULTISAMPLE_16_SAMPLES?$AA@
	jmp	SHORT $LN21@DXUTMultis
$LN1@DXUTMultis:

; 1307 :     default:                        return "Unknown Multisample Type";

	mov	eax, OFFSET ??_C@_0BJ@FDPCNPC@Unknown?5Multisample?5Type?$AA@
$LN21@DXUTMultis:

; 1308 :     }
; 1309 : }

	pop	edi
	pop	esi
	pop	ebx
	mov	esp, ebp
	pop	ebp
	ret	0
$LN23@DXUTMultis:
	DD	$LN18@DXUTMultis
	DD	$LN17@DXUTMultis
	DD	$LN16@DXUTMultis
	DD	$LN15@DXUTMultis
	DD	$LN14@DXUTMultis
	DD	$LN13@DXUTMultis
	DD	$LN12@DXUTMultis
	DD	$LN11@DXUTMultis
	DD	$LN10@DXUTMultis
	DD	$LN9@DXUTMultis
	DD	$LN8@DXUTMultis
	DD	$LN7@DXUTMultis
	DD	$LN6@DXUTMultis
	DD	$LN5@DXUTMultis
	DD	$LN4@DXUTMultis
	DD	$LN3@DXUTMultis
	DD	$LN2@DXUTMultis
?DXUTMultisampleTypeToString@@YAPADW4_D3DMULTISAMPLE_TYPE@@@Z ENDP ; DXUTMultisampleTypeToString
_TEXT	ENDS
; Function compile flags: /Odtp /RTCsu /ZI
; File z:\sampsrc\02xu1\saco\d3d9\common\dxutsettingsdlg.cpp
;	COMDAT ?DXUTPresentIntervalToString@@YAPADI@Z
_TEXT	SEGMENT
tv64 = -196						; size = 4
_pi$ = 8						; size = 4
?DXUTPresentIntervalToString@@YAPADI@Z PROC		; DXUTPresentIntervalToString, COMDAT

; 1332 : {

	push	ebp
	mov	ebp, esp
	sub	esp, 196				; 000000c4H
	push	ebx
	push	esi
	push	edi
	lea	edi, DWORD PTR [ebp-196]
	mov	ecx, 49					; 00000031H
	mov	eax, -858993460				; ccccccccH
	rep stosd

; 1333 :     switch( pi )

	mov	eax, DWORD PTR _pi$[ebp]
	mov	DWORD PTR tv64[ebp], eax
	cmp	DWORD PTR tv64[ebp], 4
	ja	SHORT $LN12@DXUTPresen
	cmp	DWORD PTR tv64[ebp], 4
	je	SHORT $LN3@DXUTPresen
	cmp	DWORD PTR tv64[ebp], 0
	je	SHORT $LN6@DXUTPresen
	cmp	DWORD PTR tv64[ebp], 1
	je	SHORT $LN5@DXUTPresen
	cmp	DWORD PTR tv64[ebp], 2
	je	SHORT $LN4@DXUTPresen
	jmp	SHORT $LN1@DXUTPresen
$LN12@DXUTPresen:
	cmp	DWORD PTR tv64[ebp], 8
	je	SHORT $LN2@DXUTPresen
	cmp	DWORD PTR tv64[ebp], -2147483648	; 80000000H
	je	SHORT $LN7@DXUTPresen
	jmp	SHORT $LN1@DXUTPresen
$LN7@DXUTPresen:

; 1334 :     {
; 1335 :     case D3DPRESENT_INTERVAL_IMMEDIATE: return "D3DPRESENT_INTERVAL_IMMEDIATE";

	mov	eax, OFFSET ??_C@_0BO@IHADFNAE@D3DPRESENT_INTERVAL_IMMEDIATE?$AA@
	jmp	SHORT $LN10@DXUTPresen
$LN6@DXUTPresen:

; 1336 :     case D3DPRESENT_INTERVAL_DEFAULT:   return "D3DPRESENT_INTERVAL_DEFAULT";

	mov	eax, OFFSET ??_C@_0BM@KHHJDMNH@D3DPRESENT_INTERVAL_DEFAULT?$AA@
	jmp	SHORT $LN10@DXUTPresen
$LN5@DXUTPresen:

; 1337 :     case D3DPRESENT_INTERVAL_ONE:       return "D3DPRESENT_INTERVAL_ONE";

	mov	eax, OFFSET ??_C@_0BI@HEDCGFN@D3DPRESENT_INTERVAL_ONE?$AA@
	jmp	SHORT $LN10@DXUTPresen
$LN4@DXUTPresen:

; 1338 :     case D3DPRESENT_INTERVAL_TWO:       return "D3DPRESENT_INTERVAL_TWO";

	mov	eax, OFFSET ??_C@_0BI@GJEDIGLG@D3DPRESENT_INTERVAL_TWO?$AA@
	jmp	SHORT $LN10@DXUTPresen
$LN3@DXUTPresen:

; 1339 :     case D3DPRESENT_INTERVAL_THREE:     return "D3DPRESENT_INTERVAL_THREE";

	mov	eax, OFFSET ??_C@_0BK@NNIDNBC@D3DPRESENT_INTERVAL_THREE?$AA@
	jmp	SHORT $LN10@DXUTPresen
$LN2@DXUTPresen:

; 1340 :     case D3DPRESENT_INTERVAL_FOUR:      return "D3DPRESENT_INTERVAL_FOUR";

	mov	eax, OFFSET ??_C@_0BJ@DENKPHNN@D3DPRESENT_INTERVAL_FOUR?$AA@
	jmp	SHORT $LN10@DXUTPresen
$LN1@DXUTPresen:

; 1341 :     default:                            return "Unknown PresentInterval";

	mov	eax, OFFSET ??_C@_0BI@FKLDAGKA@Unknown?5PresentInterval?$AA@
$LN10@DXUTPresen:

; 1342 :     }
; 1343 : }

	pop	edi
	pop	esi
	pop	ebx
	mov	esp, ebp
	pop	ebp
	ret	0
?DXUTPresentIntervalToString@@YAPADI@Z ENDP		; DXUTPresentIntervalToString
_TEXT	ENDS
; Function compile flags: /Odtp /RTCsu /ZI
; File z:\sampsrc\02xu1\saco\d3d9\common\dxutsettingsdlg.cpp
;	COMDAT ?OnDeviceClipChanged@CD3DSettingsDlg@@IAEJXZ
_TEXT	SEGMENT
_this$ = -8						; size = 4
?OnDeviceClipChanged@CD3DSettingsDlg@@IAEJXZ PROC	; CD3DSettingsDlg::OnDeviceClipChanged, COMDAT
; _this$ = ecx

; 996  : {

	push	ebp
	mov	ebp, esp
	sub	esp, 204				; 000000ccH
	push	ebx
	push	esi
	push	edi
	push	ecx
	lea	edi, DWORD PTR [ebp-204]
	mov	ecx, 51					; 00000033H
	mov	eax, -858993460				; ccccccccH
	rep stosd
	pop	ecx
	mov	DWORD PTR _this$[ebp], ecx

; 997  :     if( IsDeviceClip() )

	mov	ecx, DWORD PTR _this$[ebp]
	call	?IsDeviceClip@CD3DSettingsDlg@@IAE_NXZ	; CD3DSettingsDlg::IsDeviceClip
	movzx	eax, al
	test	eax, eax
	je	SHORT $LN2@OnDeviceCl

; 998  :         g_DeviceSettings.pp.Flags |= D3DPRESENTFLAG_DEVICECLIP;

	mov	eax, DWORD PTR ?g_DeviceSettings@@3UDXUTDeviceSettings@@A+60
	or	eax, 4
	mov	DWORD PTR ?g_DeviceSettings@@3UDXUTDeviceSettings@@A+60, eax

; 999  :     else

	jmp	SHORT $LN1@OnDeviceCl
$LN2@OnDeviceCl:

; 1000 :         g_DeviceSettings.pp.Flags &= ~D3DPRESENTFLAG_DEVICECLIP;

	mov	eax, DWORD PTR ?g_DeviceSettings@@3UDXUTDeviceSettings@@A+60
	and	eax, -5					; fffffffbH
	mov	DWORD PTR ?g_DeviceSettings@@3UDXUTDeviceSettings@@A+60, eax
$LN1@OnDeviceCl:

; 1001 : 
; 1002 :     return S_OK;

	xor	eax, eax

; 1003 : }

	pop	edi
	pop	esi
	pop	ebx
	add	esp, 204				; 000000ccH
	cmp	ebp, esp
	call	__RTC_CheckEsp
	mov	esp, ebp
	pop	ebp
	ret	0
?OnDeviceClipChanged@CD3DSettingsDlg@@IAEJXZ ENDP	; CD3DSettingsDlg::OnDeviceClipChanged
_TEXT	ENDS
; Function compile flags: /Odtp /RTCsu /ZI
; File z:\sampsrc\02xu1\saco\d3d9\common\dxutsettingsdlg.cpp
;	COMDAT ?OnPresentIntervalChanged@CD3DSettingsDlg@@IAEJXZ
_TEXT	SEGMENT
_this$ = -8						; size = 4
?OnPresentIntervalChanged@CD3DSettingsDlg@@IAEJXZ PROC	; CD3DSettingsDlg::OnPresentIntervalChanged, COMDAT
; _this$ = ecx

; 987  : {

	push	ebp
	mov	ebp, esp
	sub	esp, 204				; 000000ccH
	push	ebx
	push	esi
	push	edi
	push	ecx
	lea	edi, DWORD PTR [ebp-204]
	mov	ecx, 51					; 00000033H
	mov	eax, -858993460				; ccccccccH
	rep stosd
	pop	ecx
	mov	DWORD PTR _this$[ebp], ecx

; 988  :     g_DeviceSettings.pp.PresentationInterval = GetSelectedPresentInterval();

	mov	ecx, DWORD PTR _this$[ebp]
	call	?GetSelectedPresentInterval@CD3DSettingsDlg@@IAEKXZ ; CD3DSettingsDlg::GetSelectedPresentInterval
	mov	DWORD PTR ?g_DeviceSettings@@3UDXUTDeviceSettings@@A+68, eax

; 989  : 
; 990  :     return S_OK;

	xor	eax, eax

; 991  : }

	pop	edi
	pop	esi
	pop	ebx
	add	esp, 204				; 000000ccH
	cmp	ebp, esp
	call	__RTC_CheckEsp
	mov	esp, ebp
	pop	ebp
	ret	0
?OnPresentIntervalChanged@CD3DSettingsDlg@@IAEJXZ ENDP	; CD3DSettingsDlg::OnPresentIntervalChanged
_TEXT	ENDS
; Function compile flags: /Odtp /RTCsu /ZI
; File z:\sampsrc\02xu1\saco\d3d9\common\dxutsettingsdlg.cpp
;	COMDAT ?OnVertexProcessingChanged@CD3DSettingsDlg@@IAEJXZ
_TEXT	SEGMENT
_dwNewFlags$ = -32					; size = 4
_dwBehavior$ = -20					; size = 4
_this$ = -8						; size = 4
?OnVertexProcessingChanged@CD3DSettingsDlg@@IAEJXZ PROC	; CD3DSettingsDlg::OnVertexProcessingChanged, COMDAT
; _this$ = ecx

; 964  : {

	push	ebp
	mov	ebp, esp
	sub	esp, 228				; 000000e4H
	push	ebx
	push	esi
	push	edi
	push	ecx
	lea	edi, DWORD PTR [ebp-228]
	mov	ecx, 57					; 00000039H
	mov	eax, -858993460				; ccccccccH
	rep stosd
	pop	ecx
	mov	DWORD PTR _this$[ebp], ecx

; 965  :     DWORD dwBehavior = g_DeviceSettings.BehaviorFlags;

	mov	eax, DWORD PTR ?g_DeviceSettings@@3UDXUTDeviceSettings@@A+12
	mov	DWORD PTR _dwBehavior$[ebp], eax

; 966  : 
; 967  :     // Clear vertex processing flags
; 968  :     dwBehavior &= ~D3DCREATE_HARDWARE_VERTEXPROCESSING;

	mov	eax, DWORD PTR _dwBehavior$[ebp]
	and	eax, -65				; ffffffbfH
	mov	DWORD PTR _dwBehavior$[ebp], eax

; 969  :     dwBehavior &= ~D3DCREATE_SOFTWARE_VERTEXPROCESSING;

	mov	eax, DWORD PTR _dwBehavior$[ebp]
	and	eax, -33				; ffffffdfH
	mov	DWORD PTR _dwBehavior$[ebp], eax

; 970  :     dwBehavior &= ~D3DCREATE_MIXED_VERTEXPROCESSING;

	mov	eax, DWORD PTR _dwBehavior$[ebp]
	and	eax, -129				; ffffff7fH
	mov	DWORD PTR _dwBehavior$[ebp], eax

; 971  :     dwBehavior &= ~D3DCREATE_PUREDEVICE;

	mov	eax, DWORD PTR _dwBehavior$[ebp]
	and	eax, -17				; ffffffefH
	mov	DWORD PTR _dwBehavior$[ebp], eax

; 972  : 
; 973  :     // Determine new flags
; 974  :     DWORD dwNewFlags = GetSelectedVertexProcessingType();

	mov	ecx, DWORD PTR _this$[ebp]
	call	?GetSelectedVertexProcessingType@CD3DSettingsDlg@@IAEKXZ ; CD3DSettingsDlg::GetSelectedVertexProcessingType
	mov	DWORD PTR _dwNewFlags$[ebp], eax

; 975  :     if( dwNewFlags & D3DCREATE_PUREDEVICE )

	mov	eax, DWORD PTR _dwNewFlags$[ebp]
	and	eax, 16					; 00000010H
	je	SHORT $LN1@OnVertexPr

; 976  :         dwNewFlags |= D3DCREATE_HARDWARE_VERTEXPROCESSING;

	mov	eax, DWORD PTR _dwNewFlags$[ebp]
	or	eax, 64					; 00000040H
	mov	DWORD PTR _dwNewFlags$[ebp], eax
$LN1@OnVertexPr:

; 977  : 
; 978  :     // Make changes
; 979  :     g_DeviceSettings.BehaviorFlags = dwBehavior | dwNewFlags;

	mov	eax, DWORD PTR _dwBehavior$[ebp]
	or	eax, DWORD PTR _dwNewFlags$[ebp]
	mov	DWORD PTR ?g_DeviceSettings@@3UDXUTDeviceSettings@@A+12, eax

; 980  : 
; 981  :     return S_OK;

	xor	eax, eax

; 982  : }

	pop	edi
	pop	esi
	pop	ebx
	add	esp, 228				; 000000e4H
	cmp	ebp, esp
	call	__RTC_CheckEsp
	mov	esp, ebp
	pop	ebp
	ret	0
?OnVertexProcessingChanged@CD3DSettingsDlg@@IAEJXZ ENDP	; CD3DSettingsDlg::OnVertexProcessingChanged
_TEXT	ENDS
; Function compile flags: /Odtp /RTCsu /ZI
; File z:\sampsrc\02xu1\saco\d3d9\common\dxutsettingsdlg.cpp
;	COMDAT ?OnMultisampleQualityChanged@CD3DSettingsDlg@@IAEJXZ
_TEXT	SEGMENT
_this$ = -8						; size = 4
?OnMultisampleQualityChanged@CD3DSettingsDlg@@IAEJXZ PROC ; CD3DSettingsDlg::OnMultisampleQualityChanged, COMDAT
; _this$ = ecx

; 955  : {

	push	ebp
	mov	ebp, esp
	sub	esp, 204				; 000000ccH
	push	ebx
	push	esi
	push	edi
	push	ecx
	lea	edi, DWORD PTR [ebp-204]
	mov	ecx, 51					; 00000033H
	mov	eax, -858993460				; ccccccccH
	rep stosd
	pop	ecx
	mov	DWORD PTR _this$[ebp], ecx

; 956  :     g_DeviceSettings.pp.MultiSampleQuality = GetSelectedMultisampleQuality();

	mov	ecx, DWORD PTR _this$[ebp]
	call	?GetSelectedMultisampleQuality@CD3DSettingsDlg@@IAEKXZ ; CD3DSettingsDlg::GetSelectedMultisampleQuality
	mov	DWORD PTR ?g_DeviceSettings@@3UDXUTDeviceSettings@@A+36, eax

; 957  : 
; 958  :     return S_OK;

	xor	eax, eax

; 959  : }

	pop	edi
	pop	esi
	pop	ebx
	add	esp, 204				; 000000ccH
	cmp	ebp, esp
	call	__RTC_CheckEsp
	mov	esp, ebp
	pop	ebp
	ret	0
?OnMultisampleQualityChanged@CD3DSettingsDlg@@IAEJXZ ENDP ; CD3DSettingsDlg::OnMultisampleQualityChanged
_TEXT	ENDS
; Function compile flags: /Odtp /RTCsu /ZI
; File z:\sampsrc\02xu1\saco\d3d9\common\dxutsettingsdlg.cpp
;	COMDAT ?OnMultisampleTypeChanged@CD3DSettingsDlg@@IAEJXZ
_TEXT	SEGMENT
_iQuality$1 = -104					; size = 4
_pMultisampleQualityCombo$ = -92			; size = 4
_msType$2 = -80						; size = 4
_iType$3 = -68						; size = 4
_dwMaxQuality$ = -56					; size = 4
_pDeviceSettingsCombo$ = -44				; size = 4
_multisampleType$ = -32					; size = 4
_hr$ = -20						; size = 4
_this$ = -8						; size = 4
?OnMultisampleTypeChanged@CD3DSettingsDlg@@IAEJXZ PROC	; CD3DSettingsDlg::OnMultisampleTypeChanged, COMDAT
; _this$ = ecx

; 913  : {

	push	ebp
	mov	ebp, esp
	sub	esp, 300				; 0000012cH
	push	ebx
	push	esi
	push	edi
	push	ecx
	lea	edi, DWORD PTR [ebp-300]
	mov	ecx, 75					; 0000004bH
	mov	eax, -858993460				; ccccccccH
	rep stosd
	pop	ecx
	mov	DWORD PTR _this$[ebp], ecx

; 914  :     HRESULT hr = S_OK;

	mov	DWORD PTR _hr$[ebp], 0

; 915  : 
; 916  :     D3DMULTISAMPLE_TYPE multisampleType = GetSelectedMultisampleType();

	mov	ecx, DWORD PTR _this$[ebp]
	call	?GetSelectedMultisampleType@CD3DSettingsDlg@@IAE?AW4_D3DMULTISAMPLE_TYPE@@XZ ; CD3DSettingsDlg::GetSelectedMultisampleType
	mov	DWORD PTR _multisampleType$[ebp], eax

; 917  :     g_DeviceSettings.pp.MultiSampleType = multisampleType;

	mov	eax, DWORD PTR _multisampleType$[ebp]
	mov	DWORD PTR ?g_DeviceSettings@@3UDXUTDeviceSettings@@A+32, eax

; 918  : 
; 919  :     CD3DEnumDeviceSettingsCombo* pDeviceSettingsCombo = GetCurrentDeviceSettingsCombo();

	mov	ecx, DWORD PTR _this$[ebp]
	call	?GetCurrentDeviceSettingsCombo@CD3DSettingsDlg@@IAEPAUCD3DEnumDeviceSettingsCombo@@XZ ; CD3DSettingsDlg::GetCurrentDeviceSettingsCombo
	mov	DWORD PTR _pDeviceSettingsCombo$[ebp], eax

; 920  :     if( pDeviceSettingsCombo == NULL )

	cmp	DWORD PTR _pDeviceSettingsCombo$[ebp], 0
	jne	SHORT $LN9@OnMultisam

; 921  :         return E_FAIL;

	mov	eax, -2147467259			; 80004005H
	jmp	$LN10@OnMultisam
$LN9@OnMultisam:

; 922  : 
; 923  :     DWORD dwMaxQuality = 0;

	mov	DWORD PTR _dwMaxQuality$[ebp], 0

; 924  :     for( int iType = 0; iType < pDeviceSettingsCombo->multiSampleTypeList.GetSize(); iType++ )

	mov	DWORD PTR _iType$3[ebp], 0
	jmp	SHORT $LN8@OnMultisam
$LN7@OnMultisam:
	mov	eax, DWORD PTR _iType$3[ebp]
	add	eax, 1
	mov	DWORD PTR _iType$3[ebp], eax
$LN8@OnMultisam:
	mov	ecx, DWORD PTR _pDeviceSettingsCombo$[ebp]
	add	ecx, 32					; 00000020H
	call	?GetSize@?$CGrowableArray@W4_D3DMULTISAMPLE_TYPE@@@@QBEHXZ ; CGrowableArray<enum _D3DMULTISAMPLE_TYPE>::GetSize
	cmp	DWORD PTR _iType$3[ebp], eax
	jge	SHORT $LN6@OnMultisam

; 925  :     {
; 926  :         D3DMULTISAMPLE_TYPE msType = pDeviceSettingsCombo->multiSampleTypeList.GetAt( iType );

	mov	eax, DWORD PTR _iType$3[ebp]
	push	eax
	mov	ecx, DWORD PTR _pDeviceSettingsCombo$[ebp]
	add	ecx, 32					; 00000020H
	call	?GetAt@?$CGrowableArray@W4_D3DMULTISAMPLE_TYPE@@@@QAEAAW4_D3DMULTISAMPLE_TYPE@@H@Z ; CGrowableArray<enum _D3DMULTISAMPLE_TYPE>::GetAt
	mov	ecx, DWORD PTR [eax]
	mov	DWORD PTR _msType$2[ebp], ecx

; 927  :         if( msType == multisampleType )

	mov	eax, DWORD PTR _msType$2[ebp]
	cmp	eax, DWORD PTR _multisampleType$[ebp]
	jne	SHORT $LN5@OnMultisam

; 928  :         {
; 929  :             dwMaxQuality = pDeviceSettingsCombo->multiSampleQualityList.GetAt( iType );

	mov	eax, DWORD PTR _iType$3[ebp]
	push	eax
	mov	ecx, DWORD PTR _pDeviceSettingsCombo$[ebp]
	add	ecx, 44					; 0000002cH
	call	?GetAt@?$CGrowableArray@K@@QAEAAKH@Z	; CGrowableArray<unsigned long>::GetAt
	mov	ecx, DWORD PTR [eax]
	mov	DWORD PTR _dwMaxQuality$[ebp], ecx

; 930  :             break;

	jmp	SHORT $LN6@OnMultisam
$LN5@OnMultisam:

; 931  :         }
; 932  :     }

	jmp	SHORT $LN7@OnMultisam
$LN6@OnMultisam:

; 933  :    
; 934  :     // DXUTSETTINGSDLG_MULTISAMPLE_QUALITY
; 935  :     CDXUTComboBox* pMultisampleQualityCombo = m_Dialog.GetComboBox( DXUTSETTINGSDLG_MULTISAMPLE_QUALITY );

	push	16					; 00000010H
	mov	ecx, DWORD PTR _this$[ebp]
	add	ecx, 4
	call	?GetComboBox@CDXUTDialog@@QAEPAVCDXUTComboBox@@H@Z ; CDXUTDialog::GetComboBox
	mov	DWORD PTR _pMultisampleQualityCombo$[ebp], eax

; 936  :     pMultisampleQualityCombo->RemoveAllItems();

	mov	ecx, DWORD PTR _pMultisampleQualityCombo$[ebp]
	call	?RemoveAllItems@CDXUTComboBox@@QAEXXZ	; CDXUTComboBox::RemoveAllItems

; 937  : 
; 938  :     for( UINT iQuality = 0; iQuality < dwMaxQuality; iQuality++ )

	mov	DWORD PTR _iQuality$1[ebp], 0
	jmp	SHORT $LN4@OnMultisam
$LN3@OnMultisam:
	mov	eax, DWORD PTR _iQuality$1[ebp]
	add	eax, 1
	mov	DWORD PTR _iQuality$1[ebp], eax
$LN4@OnMultisam:
	mov	eax, DWORD PTR _iQuality$1[ebp]
	cmp	eax, DWORD PTR _dwMaxQuality$[ebp]
	jae	SHORT $LN2@OnMultisam

; 939  :     {
; 940  :         AddMultisampleQuality( iQuality );

	mov	eax, DWORD PTR _iQuality$1[ebp]
	push	eax
	mov	ecx, DWORD PTR _this$[ebp]
	call	?AddMultisampleQuality@CD3DSettingsDlg@@IAEXK@Z ; CD3DSettingsDlg::AddMultisampleQuality

; 941  :     }

	jmp	SHORT $LN3@OnMultisam
$LN2@OnMultisam:

; 942  : 
; 943  :     pMultisampleQualityCombo->SetSelectedByData( ULongToPtr(g_DeviceSettings.pp.MultiSampleQuality) );

	mov	eax, DWORD PTR ?g_DeviceSettings@@3UDXUTDeviceSettings@@A+36
	push	eax
	mov	ecx, DWORD PTR _pMultisampleQualityCombo$[ebp]
	call	?SetSelectedByData@CDXUTComboBox@@QAEJPAX@Z ; CDXUTComboBox::SetSelectedByData

; 944  : 
; 945  :     hr = OnMultisampleQualityChanged();

	mov	ecx, DWORD PTR _this$[ebp]
	call	?OnMultisampleQualityChanged@CD3DSettingsDlg@@IAEJXZ ; CD3DSettingsDlg::OnMultisampleQualityChanged
	mov	DWORD PTR _hr$[ebp], eax

; 946  :     if( FAILED(hr) )

	cmp	DWORD PTR _hr$[ebp], 0
	jge	SHORT $LN1@OnMultisam

; 947  :         return hr;

	mov	eax, DWORD PTR _hr$[ebp]
	jmp	SHORT $LN10@OnMultisam
$LN1@OnMultisam:

; 948  : 
; 949  :     return S_OK;

	xor	eax, eax
$LN10@OnMultisam:

; 950  : }

	pop	edi
	pop	esi
	pop	ebx
	add	esp, 300				; 0000012cH
	cmp	ebp, esp
	call	__RTC_CheckEsp
	mov	esp, ebp
	pop	ebp
	ret	0
?OnMultisampleTypeChanged@CD3DSettingsDlg@@IAEJXZ ENDP	; CD3DSettingsDlg::OnMultisampleTypeChanged
_TEXT	ENDS
; Function compile flags: /Odtp /RTCsu /ZI
; File z:\sampsrc\02xu1\saco\d3d9\common\dxutsettingsdlg.cpp
;	COMDAT ?OnDepthStencilBufferFormatChanged@CD3DSettingsDlg@@IAEJXZ
_TEXT	SEGMENT
_pMultisampleQualityCombo$ = -132			; size = 4
_DSMSConf$1 = -120					; size = 8
_iConf$2 = -104						; size = 4
_bConflictFound$3 = -89					; size = 1
_msType$4 = -80						; size = 4
_ims$5 = -68						; size = 4
_pMultisampleTypeCombo$ = -56				; size = 4
_pDeviceSettingsCombo$ = -44				; size = 4
_depthStencilBufferFormat$ = -32			; size = 4
_hr$ = -20						; size = 4
_this$ = -8						; size = 4
?OnDepthStencilBufferFormatChanged@CD3DSettingsDlg@@IAEJXZ PROC ; CD3DSettingsDlg::OnDepthStencilBufferFormatChanged, COMDAT
; _this$ = ecx

; 865  : {

	push	ebp
	mov	ebp, esp
	sub	esp, 328				; 00000148H
	push	ebx
	push	esi
	push	edi
	push	ecx
	lea	edi, DWORD PTR [ebp-328]
	mov	ecx, 82					; 00000052H
	mov	eax, -858993460				; ccccccccH
	rep stosd
	pop	ecx
	mov	DWORD PTR _this$[ebp], ecx

; 866  :     HRESULT hr = S_OK;

	mov	DWORD PTR _hr$[ebp], 0

; 867  : 
; 868  :     D3DFORMAT depthStencilBufferFormat = GetSelectedDepthStencilBufferFormat();

	mov	ecx, DWORD PTR _this$[ebp]
	call	?GetSelectedDepthStencilBufferFormat@CD3DSettingsDlg@@IAE?AW4_D3DFORMAT@@XZ ; CD3DSettingsDlg::GetSelectedDepthStencilBufferFormat
	mov	DWORD PTR _depthStencilBufferFormat$[ebp], eax

; 869  : 
; 870  :     if( g_DeviceSettings.pp.EnableAutoDepthStencil )

	cmp	DWORD PTR ?g_DeviceSettings@@3UDXUTDeviceSettings@@A+52, 0
	je	SHORT $LN11@OnDepthSte

; 871  :         g_DeviceSettings.pp.AutoDepthStencilFormat = depthStencilBufferFormat;

	mov	eax, DWORD PTR _depthStencilBufferFormat$[ebp]
	mov	DWORD PTR ?g_DeviceSettings@@3UDXUTDeviceSettings@@A+56, eax
$LN11@OnDepthSte:

; 872  : 
; 873  :     CD3DEnumDeviceSettingsCombo* pDeviceSettingsCombo = GetCurrentDeviceSettingsCombo();

	mov	ecx, DWORD PTR _this$[ebp]
	call	?GetCurrentDeviceSettingsCombo@CD3DSettingsDlg@@IAEPAUCD3DEnumDeviceSettingsCombo@@XZ ; CD3DSettingsDlg::GetCurrentDeviceSettingsCombo
	mov	DWORD PTR _pDeviceSettingsCombo$[ebp], eax

; 874  :     if( pDeviceSettingsCombo == NULL )

	cmp	DWORD PTR _pDeviceSettingsCombo$[ebp], 0
	jne	SHORT $LN10@OnDepthSte

; 875  :         return E_FAIL;

	mov	eax, -2147467259			; 80004005H
	jmp	$LN12@OnDepthSte
$LN10@OnDepthSte:

; 876  :     
; 877  :     CDXUTComboBox* pMultisampleTypeCombo = m_Dialog.GetComboBox( DXUTSETTINGSDLG_MULTISAMPLE_TYPE );

	push	15					; 0000000fH
	mov	ecx, DWORD PTR _this$[ebp]
	add	ecx, 4
	call	?GetComboBox@CDXUTDialog@@QAEPAVCDXUTComboBox@@H@Z ; CDXUTDialog::GetComboBox
	mov	DWORD PTR _pMultisampleTypeCombo$[ebp], eax

; 878  :     pMultisampleTypeCombo->RemoveAllItems();

	mov	ecx, DWORD PTR _pMultisampleTypeCombo$[ebp]
	call	?RemoveAllItems@CDXUTComboBox@@QAEXXZ	; CDXUTComboBox::RemoveAllItems

; 879  : 
; 880  :     for( int ims=0; ims < pDeviceSettingsCombo->multiSampleTypeList.GetSize(); ims++ )

	mov	DWORD PTR _ims$5[ebp], 0
	jmp	SHORT $LN9@OnDepthSte
$LN8@OnDepthSte:
	mov	eax, DWORD PTR _ims$5[ebp]
	add	eax, 1
	mov	DWORD PTR _ims$5[ebp], eax
$LN9@OnDepthSte:
	mov	ecx, DWORD PTR _pDeviceSettingsCombo$[ebp]
	add	ecx, 32					; 00000020H
	call	?GetSize@?$CGrowableArray@W4_D3DMULTISAMPLE_TYPE@@@@QBEHXZ ; CGrowableArray<enum _D3DMULTISAMPLE_TYPE>::GetSize
	cmp	DWORD PTR _ims$5[ebp], eax
	jge	$LN7@OnDepthSte

; 881  :     {
; 882  :         D3DMULTISAMPLE_TYPE msType = pDeviceSettingsCombo->multiSampleTypeList.GetAt( ims );

	mov	eax, DWORD PTR _ims$5[ebp]
	push	eax
	mov	ecx, DWORD PTR _pDeviceSettingsCombo$[ebp]
	add	ecx, 32					; 00000020H
	call	?GetAt@?$CGrowableArray@W4_D3DMULTISAMPLE_TYPE@@@@QAEAAW4_D3DMULTISAMPLE_TYPE@@H@Z ; CGrowableArray<enum _D3DMULTISAMPLE_TYPE>::GetAt
	mov	ecx, DWORD PTR [eax]
	mov	DWORD PTR _msType$4[ebp], ecx

; 883  : 
; 884  :         bool bConflictFound = false;

	mov	BYTE PTR _bConflictFound$3[ebp], 0

; 885  :         for( int iConf = 0; iConf < pDeviceSettingsCombo->DSMSConflictList.GetSize(); iConf++ )

	mov	DWORD PTR _iConf$2[ebp], 0
	jmp	SHORT $LN6@OnDepthSte
$LN5@OnDepthSte:
	mov	eax, DWORD PTR _iConf$2[ebp]
	add	eax, 1
	mov	DWORD PTR _iConf$2[ebp], eax
$LN6@OnDepthSte:
	mov	ecx, DWORD PTR _pDeviceSettingsCombo$[ebp]
	add	ecx, 68					; 00000044H
	call	?GetSize@?$CGrowableArray@UCD3DEnumDSMSConflict@@@@QBEHXZ ; CGrowableArray<CD3DEnumDSMSConflict>::GetSize
	cmp	DWORD PTR _iConf$2[ebp], eax
	jge	SHORT $LN4@OnDepthSte

; 886  :         {
; 887  :             CD3DEnumDSMSConflict DSMSConf = pDeviceSettingsCombo->DSMSConflictList.GetAt( iConf );

	mov	eax, DWORD PTR _iConf$2[ebp]
	push	eax
	mov	ecx, DWORD PTR _pDeviceSettingsCombo$[ebp]
	add	ecx, 68					; 00000044H
	call	?GetAt@?$CGrowableArray@UCD3DEnumDSMSConflict@@@@QAEAAUCD3DEnumDSMSConflict@@H@Z ; CGrowableArray<CD3DEnumDSMSConflict>::GetAt
	mov	ecx, DWORD PTR [eax]
	mov	edx, DWORD PTR [eax+4]
	mov	DWORD PTR _DSMSConf$1[ebp], ecx
	mov	DWORD PTR _DSMSConf$1[ebp+4], edx

; 888  :             if( DSMSConf.DSFormat == depthStencilBufferFormat &&
; 889  :                 DSMSConf.MSType == msType )

	mov	eax, DWORD PTR _DSMSConf$1[ebp]
	cmp	eax, DWORD PTR _depthStencilBufferFormat$[ebp]
	jne	SHORT $LN3@OnDepthSte
	mov	eax, DWORD PTR _DSMSConf$1[ebp+4]
	cmp	eax, DWORD PTR _msType$4[ebp]
	jne	SHORT $LN3@OnDepthSte

; 890  :             {
; 891  :                 bConflictFound = true;

	mov	BYTE PTR _bConflictFound$3[ebp], 1

; 892  :                 break;

	jmp	SHORT $LN4@OnDepthSte
$LN3@OnDepthSte:

; 893  :             }
; 894  :         }

	jmp	SHORT $LN5@OnDepthSte
$LN4@OnDepthSte:

; 895  : 
; 896  :         if( !bConflictFound )

	movzx	eax, BYTE PTR _bConflictFound$3[ebp]
	test	eax, eax
	jne	SHORT $LN2@OnDepthSte

; 897  :             AddMultisampleType( msType );

	mov	eax, DWORD PTR _msType$4[ebp]
	push	eax
	mov	ecx, DWORD PTR _this$[ebp]
	call	?AddMultisampleType@CD3DSettingsDlg@@IAEXW4_D3DMULTISAMPLE_TYPE@@@Z ; CD3DSettingsDlg::AddMultisampleType
$LN2@OnDepthSte:

; 898  :     }

	jmp	$LN8@OnDepthSte
$LN7@OnDepthSte:

; 899  : 
; 900  :     CDXUTComboBox* pMultisampleQualityCombo = m_Dialog.GetComboBox( DXUTSETTINGSDLG_MULTISAMPLE_TYPE );

	push	15					; 0000000fH
	mov	ecx, DWORD PTR _this$[ebp]
	add	ecx, 4
	call	?GetComboBox@CDXUTDialog@@QAEPAVCDXUTComboBox@@H@Z ; CDXUTDialog::GetComboBox
	mov	DWORD PTR _pMultisampleQualityCombo$[ebp], eax

; 901  :     pMultisampleQualityCombo->SetSelectedByData( ULongToPtr(g_DeviceSettings.pp.MultiSampleType) );

	mov	eax, DWORD PTR ?g_DeviceSettings@@3UDXUTDeviceSettings@@A+32
	push	eax
	mov	ecx, DWORD PTR _pMultisampleQualityCombo$[ebp]
	call	?SetSelectedByData@CDXUTComboBox@@QAEJPAX@Z ; CDXUTComboBox::SetSelectedByData

; 902  : 
; 903  :     hr = OnMultisampleTypeChanged();

	mov	ecx, DWORD PTR _this$[ebp]
	call	?OnMultisampleTypeChanged@CD3DSettingsDlg@@IAEJXZ ; CD3DSettingsDlg::OnMultisampleTypeChanged
	mov	DWORD PTR _hr$[ebp], eax

; 904  :     if( FAILED(hr) )

	cmp	DWORD PTR _hr$[ebp], 0
	jge	SHORT $LN1@OnDepthSte

; 905  :         return hr;

	mov	eax, DWORD PTR _hr$[ebp]
	jmp	SHORT $LN12@OnDepthSte
$LN1@OnDepthSte:

; 906  : 
; 907  :     return S_OK;

	xor	eax, eax
$LN12@OnDepthSte:

; 908  : }

	push	edx
	mov	ecx, ebp
	push	eax
	lea	edx, DWORD PTR $LN16@OnDepthSte
	call	@_RTC_CheckStackVars@8
	pop	eax
	pop	edx
	pop	edi
	pop	esi
	pop	ebx
	add	esp, 328				; 00000148H
	cmp	ebp, esp
	call	__RTC_CheckEsp
	mov	esp, ebp
	pop	ebp
	ret	0
	npad	3
$LN16@OnDepthSte:
	DD	1
	DD	$LN15@OnDepthSte
$LN15@OnDepthSte:
	DD	-120					; ffffff88H
	DD	8
	DD	$LN14@OnDepthSte
$LN14@OnDepthSte:
	DB	68					; 00000044H
	DB	83					; 00000053H
	DB	77					; 0000004dH
	DB	83					; 00000053H
	DB	67					; 00000043H
	DB	111					; 0000006fH
	DB	110					; 0000006eH
	DB	102					; 00000066H
	DB	0
?OnDepthStencilBufferFormatChanged@CD3DSettingsDlg@@IAEJXZ ENDP ; CD3DSettingsDlg::OnDepthStencilBufferFormatChanged
_TEXT	ENDS
; Function compile flags: /Odtp /RTCsu /ZI
; File z:\sampsrc\02xu1\saco\d3d9\common\dxutsettingsdlg.cpp
;	COMDAT ?OnBackBufferFormatChanged@CD3DSettingsDlg@@IAEJXZ
_TEXT	SEGMENT
tv86 = -412						; size = 4
tv137 = -409						; size = 1
_presentInterval$1 = -212				; size = 4
_ipi$2 = -200						; size = 4
_pPresentIntervalComboBox$3 = -188			; size = 4
_pVertexProcessingComboBox$4 = -176			; size = 4
_fmt$5 = -164						; size = 4
_ifmt$6 = -152						; size = 4
_pDepthStencilComboBox$7 = -140				; size = 4
_pDeviceCombo$8 = -128					; size = 4
_idc$9 = -116						; size = 4
_bAllowMixedVP$ = -101					; size = 1
_bAllowPureHardwareVP$ = -89				; size = 1
_bAllowHardwareVP$ = -77				; size = 1
_bAllowSoftwareVP$ = -65				; size = 1
_pDeviceInfo$ = -56					; size = 4
_backBufferFormat$ = -44				; size = 4
_adapterFormat$ = -32					; size = 4
_hr$ = -20						; size = 4
_this$ = -8						; size = 4
?OnBackBufferFormatChanged@CD3DSettingsDlg@@IAEJXZ PROC	; CD3DSettingsDlg::OnBackBufferFormatChanged, COMDAT
; _this$ = ecx

; 763  : {

	push	ebp
	mov	ebp, esp
	sub	esp, 412				; 0000019cH
	push	ebx
	push	esi
	push	edi
	push	ecx
	lea	edi, DWORD PTR [ebp-412]
	mov	ecx, 103				; 00000067H
	mov	eax, -858993460				; ccccccccH
	rep stosd
	pop	ecx
	mov	DWORD PTR _this$[ebp], ecx

; 764  :     HRESULT hr = S_OK;

	mov	DWORD PTR _hr$[ebp], 0

; 765  : 
; 766  :     g_DeviceSettings.pp.BackBufferFormat = GetSelectedBackBufferFormat();

	mov	ecx, DWORD PTR _this$[ebp]
	call	?GetSelectedBackBufferFormat@CD3DSettingsDlg@@IAE?AW4_D3DFORMAT@@XZ ; CD3DSettingsDlg::GetSelectedBackBufferFormat
	mov	DWORD PTR ?g_DeviceSettings@@3UDXUTDeviceSettings@@A+24, eax

; 767  :     
; 768  :     D3DFORMAT adapterFormat = g_DeviceSettings.AdapterFormat;

	mov	eax, DWORD PTR ?g_DeviceSettings@@3UDXUTDeviceSettings@@A+8
	mov	DWORD PTR _adapterFormat$[ebp], eax

; 769  :     D3DFORMAT backBufferFormat = g_DeviceSettings.pp.BackBufferFormat;

	mov	eax, DWORD PTR ?g_DeviceSettings@@3UDXUTDeviceSettings@@A+24
	mov	DWORD PTR _backBufferFormat$[ebp], eax

; 770  : 
; 771  :     CD3DEnumDeviceInfo* pDeviceInfo = GetCurrentDeviceInfo();

	mov	ecx, DWORD PTR _this$[ebp]
	call	?GetCurrentDeviceInfo@CD3DSettingsDlg@@IAEPAVCD3DEnumDeviceInfo@@XZ ; CD3DSettingsDlg::GetCurrentDeviceInfo
	mov	DWORD PTR _pDeviceInfo$[ebp], eax

; 772  :     if( pDeviceInfo == NULL )

	cmp	DWORD PTR _pDeviceInfo$[ebp], 0
	jne	SHORT $LN28@OnBackBuff

; 773  :         return E_FAIL;

	mov	eax, -2147467259			; 80004005H
	jmp	$LN29@OnBackBuff
$LN28@OnBackBuff:

; 774  : 
; 775  :     bool bAllowSoftwareVP, bAllowHardwareVP, bAllowPureHardwareVP, bAllowMixedVP;
; 776  :     DXUTGetEnumeration()->GetPossibleVertexProcessingList( &bAllowSoftwareVP, &bAllowHardwareVP, 
; 777  :                                                            &bAllowPureHardwareVP, &bAllowMixedVP );

	lea	eax, DWORD PTR _bAllowMixedVP$[ebp]
	push	eax
	lea	ecx, DWORD PTR _bAllowPureHardwareVP$[ebp]
	push	ecx
	lea	edx, DWORD PTR _bAllowHardwareVP$[ebp]
	push	edx
	lea	eax, DWORD PTR _bAllowSoftwareVP$[ebp]
	push	eax
	call	?DXUTGetEnumeration@@YAPAVCD3DEnumeration@@XZ ; DXUTGetEnumeration
	mov	ecx, eax
	call	?GetPossibleVertexProcessingList@CD3DEnumeration@@QAEXPA_N000@Z ; CD3DEnumeration::GetPossibleVertexProcessingList

; 778  :     
; 779  :     for( int idc=0; idc < pDeviceInfo->deviceSettingsComboList.GetSize(); idc++ )

	mov	DWORD PTR _idc$9[ebp], 0
	jmp	SHORT $LN27@OnBackBuff
$LN26@OnBackBuff:
	mov	eax, DWORD PTR _idc$9[ebp]
	add	eax, 1
	mov	DWORD PTR _idc$9[ebp], eax
$LN27@OnBackBuff:
	mov	ecx, DWORD PTR _pDeviceInfo$[ebp]
	add	ecx, 312				; 00000138H
	call	?GetSize@?$CGrowableArray@PAUCD3DEnumDeviceSettingsCombo@@@@QBEHXZ ; CGrowableArray<CD3DEnumDeviceSettingsCombo *>::GetSize
	cmp	DWORD PTR _idc$9[ebp], eax
	jge	$LN25@OnBackBuff

; 780  :     {
; 781  :         CD3DEnumDeviceSettingsCombo* pDeviceCombo = pDeviceInfo->deviceSettingsComboList.GetAt( idc );

	mov	eax, DWORD PTR _idc$9[ebp]
	push	eax
	mov	ecx, DWORD PTR _pDeviceInfo$[ebp]
	add	ecx, 312				; 00000138H
	call	?GetAt@?$CGrowableArray@PAUCD3DEnumDeviceSettingsCombo@@@@QAEAAPAUCD3DEnumDeviceSettingsCombo@@H@Z ; CGrowableArray<CD3DEnumDeviceSettingsCombo *>::GetAt
	mov	ecx, DWORD PTR [eax]
	mov	DWORD PTR _pDeviceCombo$8[ebp], ecx

; 782  : 
; 783  :         if( pDeviceCombo->Windowed == (g_DeviceSettings.pp.Windowed == TRUE) &&
; 784  :             pDeviceCombo->AdapterFormat == adapterFormat &&
; 785  :             pDeviceCombo->BackBufferFormat == backBufferFormat )

	cmp	DWORD PTR ?g_DeviceSettings@@3UDXUTDeviceSettings@@A+48, 1
	jne	SHORT $LN31@OnBackBuff
	mov	DWORD PTR tv86[ebp], 1
	jmp	SHORT $LN32@OnBackBuff
$LN31@OnBackBuff:
	mov	DWORD PTR tv86[ebp], 0
$LN32@OnBackBuff:
	mov	eax, DWORD PTR _pDeviceCombo$8[ebp]
	mov	ecx, DWORD PTR [eax+16]
	cmp	ecx, DWORD PTR tv86[ebp]
	jne	$LN24@OnBackBuff
	mov	eax, DWORD PTR _pDeviceCombo$8[ebp]
	mov	ecx, DWORD PTR [eax+8]
	cmp	ecx, DWORD PTR _adapterFormat$[ebp]
	jne	$LN24@OnBackBuff
	mov	eax, DWORD PTR _pDeviceCombo$8[ebp]
	mov	ecx, DWORD PTR [eax+12]
	cmp	ecx, DWORD PTR _backBufferFormat$[ebp]
	jne	$LN24@OnBackBuff

; 786  :         {
; 787  :             CDXUTComboBox* pDepthStencilComboBox = m_Dialog.GetComboBox( DXUTSETTINGSDLG_DEPTH_STENCIL );

	push	14					; 0000000eH
	mov	ecx, DWORD PTR _this$[ebp]
	add	ecx, 4
	call	?GetComboBox@CDXUTDialog@@QAEPAVCDXUTComboBox@@H@Z ; CDXUTDialog::GetComboBox
	mov	DWORD PTR _pDepthStencilComboBox$7[ebp], eax

; 788  :             pDepthStencilComboBox->RemoveAllItems();

	mov	ecx, DWORD PTR _pDepthStencilComboBox$7[ebp]
	call	?RemoveAllItems@CDXUTComboBox@@QAEXXZ	; CDXUTComboBox::RemoveAllItems

; 789  :             pDepthStencilComboBox->SetEnabled( (g_DeviceSettings.pp.EnableAutoDepthStencil == TRUE) ); 

	cmp	DWORD PTR ?g_DeviceSettings@@3UDXUTDeviceSettings@@A+52, 1
	jne	SHORT $LN33@OnBackBuff
	mov	BYTE PTR tv137[ebp], 1
	jmp	SHORT $LN34@OnBackBuff
$LN33@OnBackBuff:
	mov	BYTE PTR tv137[ebp], 0
$LN34@OnBackBuff:
	mov	esi, esp
	movzx	eax, BYTE PTR tv137[ebp]
	push	eax
	mov	ecx, DWORD PTR _pDepthStencilComboBox$7[ebp]
	mov	edx, DWORD PTR [ecx]
	mov	ecx, DWORD PTR _pDepthStencilComboBox$7[ebp]
	mov	eax, DWORD PTR [edx+56]
	call	eax
	cmp	esi, esp
	call	__RTC_CheckEsp

; 790  : 
; 791  :             if( g_DeviceSettings.pp.EnableAutoDepthStencil )

	cmp	DWORD PTR ?g_DeviceSettings@@3UDXUTDeviceSettings@@A+52, 0
	je	SHORT $LN23@OnBackBuff

; 792  :             {
; 793  :                 for( int ifmt=0; ifmt < pDeviceCombo->depthStencilFormatList.GetSize(); ifmt++ )

	mov	DWORD PTR _ifmt$6[ebp], 0
	jmp	SHORT $LN22@OnBackBuff
$LN21@OnBackBuff:
	mov	eax, DWORD PTR _ifmt$6[ebp]
	add	eax, 1
	mov	DWORD PTR _ifmt$6[ebp], eax
$LN22@OnBackBuff:
	mov	ecx, DWORD PTR _pDeviceCombo$8[ebp]
	add	ecx, 20					; 00000014H
	call	?GetSize@?$CGrowableArray@W4_D3DFORMAT@@@@QBEHXZ ; CGrowableArray<enum _D3DFORMAT>::GetSize
	cmp	DWORD PTR _ifmt$6[ebp], eax
	jge	SHORT $LN20@OnBackBuff

; 794  :                 {
; 795  :                     D3DFORMAT fmt = pDeviceCombo->depthStencilFormatList.GetAt( ifmt );

	mov	eax, DWORD PTR _ifmt$6[ebp]
	push	eax
	mov	ecx, DWORD PTR _pDeviceCombo$8[ebp]
	add	ecx, 20					; 00000014H
	call	?GetAt@?$CGrowableArray@W4_D3DFORMAT@@@@QAEAAW4_D3DFORMAT@@H@Z ; CGrowableArray<enum _D3DFORMAT>::GetAt
	mov	ecx, DWORD PTR [eax]
	mov	DWORD PTR _fmt$5[ebp], ecx

; 796  : 
; 797  :                     AddDepthStencilBufferFormat( fmt );

	mov	eax, DWORD PTR _fmt$5[ebp]
	push	eax
	mov	ecx, DWORD PTR _this$[ebp]
	call	?AddDepthStencilBufferFormat@CD3DSettingsDlg@@IAEXW4_D3DFORMAT@@@Z ; CD3DSettingsDlg::AddDepthStencilBufferFormat

; 798  :                 }

	jmp	SHORT $LN21@OnBackBuff
$LN20@OnBackBuff:

; 799  : 
; 800  :                 pDepthStencilComboBox->SetSelectedByData( ULongToPtr(g_DeviceSettings.pp.AutoDepthStencilFormat) );

	mov	eax, DWORD PTR ?g_DeviceSettings@@3UDXUTDeviceSettings@@A+56
	push	eax
	mov	ecx, DWORD PTR _pDepthStencilComboBox$7[ebp]
	call	?SetSelectedByData@CDXUTComboBox@@QAEJPAX@Z ; CDXUTComboBox::SetSelectedByData

; 801  :             }
; 802  :             else

	jmp	SHORT $LN19@OnBackBuff
$LN23@OnBackBuff:

; 803  :             {
; 804  :                 if( !pDepthStencilComboBox->ContainsItem( "(not used)" ) )

	push	0
	push	OFFSET ??_C@_0L@OBIJABIK@?$CInot?5used?$CJ?$AA@
	mov	ecx, DWORD PTR _pDepthStencilComboBox$7[ebp]
	call	?ContainsItem@CDXUTComboBox@@QAE_NPBDI@Z ; CDXUTComboBox::ContainsItem
	movzx	eax, al
	test	eax, eax
	jne	SHORT $LN19@OnBackBuff

; 805  :                     pDepthStencilComboBox->AddItem( "(not used)", NULL );

	push	0
	push	OFFSET ??_C@_0L@OBIJABIK@?$CInot?5used?$CJ?$AA@
	mov	ecx, DWORD PTR _pDepthStencilComboBox$7[ebp]
	call	?AddItem@CDXUTComboBox@@QAEJPBDPAX@Z	; CDXUTComboBox::AddItem
$LN19@OnBackBuff:

; 806  :             }
; 807  : 
; 808  :             hr = OnDepthStencilBufferFormatChanged();

	mov	ecx, DWORD PTR _this$[ebp]
	call	?OnDepthStencilBufferFormatChanged@CD3DSettingsDlg@@IAEJXZ ; CD3DSettingsDlg::OnDepthStencilBufferFormatChanged
	mov	DWORD PTR _hr$[ebp], eax

; 809  :             if( FAILED(hr) )

	cmp	DWORD PTR _hr$[ebp], 0
	jge	SHORT $LN17@OnBackBuff

; 810  :                 return hr;

	mov	eax, DWORD PTR _hr$[ebp]
	jmp	$LN29@OnBackBuff
$LN17@OnBackBuff:

; 811  : 
; 812  :             CDXUTComboBox* pVertexProcessingComboBox = m_Dialog.GetComboBox( DXUTSETTINGSDLG_VERTEX_PROCESSING );

	push	17					; 00000011H
	mov	ecx, DWORD PTR _this$[ebp]
	add	ecx, 4
	call	?GetComboBox@CDXUTDialog@@QAEPAVCDXUTComboBox@@H@Z ; CDXUTDialog::GetComboBox
	mov	DWORD PTR _pVertexProcessingComboBox$4[ebp], eax

; 813  :             pVertexProcessingComboBox->RemoveAllItems();

	mov	ecx, DWORD PTR _pVertexProcessingComboBox$4[ebp]
	call	?RemoveAllItems@CDXUTComboBox@@QAEXXZ	; CDXUTComboBox::RemoveAllItems

; 814  : 
; 815  :             // Add valid vertex processing types
; 816  :             if( bAllowSoftwareVP )

	movzx	eax, BYTE PTR _bAllowSoftwareVP$[ebp]
	test	eax, eax
	je	SHORT $LN16@OnBackBuff

; 817  :                 AddVertexProcessingType( D3DCREATE_SOFTWARE_VERTEXPROCESSING );

	push	32					; 00000020H
	mov	ecx, DWORD PTR _this$[ebp]
	call	?AddVertexProcessingType@CD3DSettingsDlg@@IAEXK@Z ; CD3DSettingsDlg::AddVertexProcessingType
$LN16@OnBackBuff:

; 818  : 
; 819  :             if( bAllowHardwareVP && pDeviceInfo->Caps.DevCaps & D3DDEVCAPS_HWTRANSFORMANDLIGHT )

	movzx	eax, BYTE PTR _bAllowHardwareVP$[ebp]
	test	eax, eax
	je	SHORT $LN15@OnBackBuff
	mov	eax, DWORD PTR _pDeviceInfo$[ebp]
	mov	ecx, DWORD PTR [eax+36]
	and	ecx, 65536				; 00010000H
	je	SHORT $LN15@OnBackBuff

; 820  :                 AddVertexProcessingType( D3DCREATE_HARDWARE_VERTEXPROCESSING );

	push	64					; 00000040H
	mov	ecx, DWORD PTR _this$[ebp]
	call	?AddVertexProcessingType@CD3DSettingsDlg@@IAEXK@Z ; CD3DSettingsDlg::AddVertexProcessingType
$LN15@OnBackBuff:

; 821  : 
; 822  :             if( bAllowPureHardwareVP && pDeviceInfo->Caps.DevCaps & D3DDEVCAPS_PUREDEVICE )

	movzx	eax, BYTE PTR _bAllowPureHardwareVP$[ebp]
	test	eax, eax
	je	SHORT $LN14@OnBackBuff
	mov	eax, DWORD PTR _pDeviceInfo$[ebp]
	mov	ecx, DWORD PTR [eax+36]
	and	ecx, 1048576				; 00100000H
	je	SHORT $LN14@OnBackBuff

; 823  :                 AddVertexProcessingType( D3DCREATE_PUREDEVICE );

	push	16					; 00000010H
	mov	ecx, DWORD PTR _this$[ebp]
	call	?AddVertexProcessingType@CD3DSettingsDlg@@IAEXK@Z ; CD3DSettingsDlg::AddVertexProcessingType
$LN14@OnBackBuff:

; 824  : 
; 825  :             if( bAllowMixedVP && pDeviceInfo->Caps.DevCaps & D3DDEVCAPS_HWTRANSFORMANDLIGHT )

	movzx	eax, BYTE PTR _bAllowMixedVP$[ebp]
	test	eax, eax
	je	SHORT $LN13@OnBackBuff
	mov	eax, DWORD PTR _pDeviceInfo$[ebp]
	mov	ecx, DWORD PTR [eax+36]
	and	ecx, 65536				; 00010000H
	je	SHORT $LN13@OnBackBuff

; 826  :                 AddVertexProcessingType( D3DCREATE_MIXED_VERTEXPROCESSING );

	push	128					; 00000080H
	mov	ecx, DWORD PTR _this$[ebp]
	call	?AddVertexProcessingType@CD3DSettingsDlg@@IAEXK@Z ; CD3DSettingsDlg::AddVertexProcessingType
$LN13@OnBackBuff:

; 827  : 
; 828  :             if( g_DeviceSettings.BehaviorFlags & D3DCREATE_PUREDEVICE )

	mov	eax, DWORD PTR ?g_DeviceSettings@@3UDXUTDeviceSettings@@A+12
	and	eax, 16					; 00000010H
	je	SHORT $LN12@OnBackBuff

; 829  :                 pVertexProcessingComboBox->SetSelectedByData( ULongToPtr(D3DCREATE_PUREDEVICE) );

	push	16					; 00000010H
	mov	ecx, DWORD PTR _pVertexProcessingComboBox$4[ebp]
	call	?SetSelectedByData@CDXUTComboBox@@QAEJPAX@Z ; CDXUTComboBox::SetSelectedByData
	jmp	SHORT $LN11@OnBackBuff
$LN12@OnBackBuff:

; 830  :             else if( g_DeviceSettings.BehaviorFlags & D3DCREATE_SOFTWARE_VERTEXPROCESSING )

	mov	eax, DWORD PTR ?g_DeviceSettings@@3UDXUTDeviceSettings@@A+12
	and	eax, 32					; 00000020H
	je	SHORT $LN10@OnBackBuff

; 831  :                 pVertexProcessingComboBox->SetSelectedByData( ULongToPtr(D3DCREATE_SOFTWARE_VERTEXPROCESSING) );

	push	32					; 00000020H
	mov	ecx, DWORD PTR _pVertexProcessingComboBox$4[ebp]
	call	?SetSelectedByData@CDXUTComboBox@@QAEJPAX@Z ; CDXUTComboBox::SetSelectedByData
	jmp	SHORT $LN11@OnBackBuff
$LN10@OnBackBuff:

; 832  :             else if( g_DeviceSettings.BehaviorFlags & D3DCREATE_HARDWARE_VERTEXPROCESSING )

	mov	eax, DWORD PTR ?g_DeviceSettings@@3UDXUTDeviceSettings@@A+12
	and	eax, 64					; 00000040H
	je	SHORT $LN8@OnBackBuff

; 833  :                 pVertexProcessingComboBox->SetSelectedByData( ULongToPtr(D3DCREATE_HARDWARE_VERTEXPROCESSING) );

	push	64					; 00000040H
	mov	ecx, DWORD PTR _pVertexProcessingComboBox$4[ebp]
	call	?SetSelectedByData@CDXUTComboBox@@QAEJPAX@Z ; CDXUTComboBox::SetSelectedByData
	jmp	SHORT $LN11@OnBackBuff
$LN8@OnBackBuff:

; 834  :             else if( g_DeviceSettings.BehaviorFlags & D3DCREATE_MIXED_VERTEXPROCESSING )

	mov	eax, DWORD PTR ?g_DeviceSettings@@3UDXUTDeviceSettings@@A+12
	and	eax, 128				; 00000080H
	je	SHORT $LN11@OnBackBuff

; 835  :                 pVertexProcessingComboBox->SetSelectedByData( ULongToPtr(D3DCREATE_MIXED_VERTEXPROCESSING) );

	push	128					; 00000080H
	mov	ecx, DWORD PTR _pVertexProcessingComboBox$4[ebp]
	call	?SetSelectedByData@CDXUTComboBox@@QAEJPAX@Z ; CDXUTComboBox::SetSelectedByData
$LN11@OnBackBuff:

; 836  : 
; 837  :             hr = OnVertexProcessingChanged();

	mov	ecx, DWORD PTR _this$[ebp]
	call	?OnVertexProcessingChanged@CD3DSettingsDlg@@IAEJXZ ; CD3DSettingsDlg::OnVertexProcessingChanged
	mov	DWORD PTR _hr$[ebp], eax

; 838  :             if( FAILED(hr) )

	cmp	DWORD PTR _hr$[ebp], 0
	jge	SHORT $LN5@OnBackBuff

; 839  :                 return hr;

	mov	eax, DWORD PTR _hr$[ebp]
	jmp	$LN29@OnBackBuff
$LN5@OnBackBuff:

; 840  : 
; 841  :             CDXUTComboBox* pPresentIntervalComboBox = m_Dialog.GetComboBox( DXUTSETTINGSDLG_PRESENT_INTERVAL );

	push	18					; 00000012H
	mov	ecx, DWORD PTR _this$[ebp]
	add	ecx, 4
	call	?GetComboBox@CDXUTDialog@@QAEPAVCDXUTComboBox@@H@Z ; CDXUTDialog::GetComboBox
	mov	DWORD PTR _pPresentIntervalComboBox$3[ebp], eax

; 842  :             pPresentIntervalComboBox->RemoveAllItems();

	mov	ecx, DWORD PTR _pPresentIntervalComboBox$3[ebp]
	call	?RemoveAllItems@CDXUTComboBox@@QAEXXZ	; CDXUTComboBox::RemoveAllItems

; 843  : 
; 844  :             for( int ipi=0; ipi < pDeviceCombo->presentIntervalList.GetSize(); ipi++ )

	mov	DWORD PTR _ipi$2[ebp], 0
	jmp	SHORT $LN4@OnBackBuff
$LN3@OnBackBuff:
	mov	eax, DWORD PTR _ipi$2[ebp]
	add	eax, 1
	mov	DWORD PTR _ipi$2[ebp], eax
$LN4@OnBackBuff:
	mov	ecx, DWORD PTR _pDeviceCombo$8[ebp]
	add	ecx, 56					; 00000038H
	call	?GetSize@?$CGrowableArray@I@@QBEHXZ	; CGrowableArray<unsigned int>::GetSize
	cmp	DWORD PTR _ipi$2[ebp], eax
	jge	SHORT $LN2@OnBackBuff

; 845  :             {
; 846  :                 UINT presentInterval = pDeviceCombo->presentIntervalList.GetAt( ipi );

	mov	eax, DWORD PTR _ipi$2[ebp]
	push	eax
	mov	ecx, DWORD PTR _pDeviceCombo$8[ebp]
	add	ecx, 56					; 00000038H
	call	?GetAt@?$CGrowableArray@I@@QAEAAIH@Z	; CGrowableArray<unsigned int>::GetAt
	mov	ecx, DWORD PTR [eax]
	mov	DWORD PTR _presentInterval$1[ebp], ecx

; 847  :                 
; 848  :                 AddPresentInterval( presentInterval );

	mov	eax, DWORD PTR _presentInterval$1[ebp]
	push	eax
	mov	ecx, DWORD PTR _this$[ebp]
	call	?AddPresentInterval@CD3DSettingsDlg@@IAEXK@Z ; CD3DSettingsDlg::AddPresentInterval

; 849  :             }

	jmp	SHORT $LN3@OnBackBuff
$LN2@OnBackBuff:

; 850  : 
; 851  :             pPresentIntervalComboBox->SetSelectedByData( ULongToPtr( g_DeviceSettings.pp.PresentationInterval ) );

	mov	eax, DWORD PTR ?g_DeviceSettings@@3UDXUTDeviceSettings@@A+68
	push	eax
	mov	ecx, DWORD PTR _pPresentIntervalComboBox$3[ebp]
	call	?SetSelectedByData@CDXUTComboBox@@QAEJPAX@Z ; CDXUTComboBox::SetSelectedByData

; 852  :         
; 853  :             hr = OnPresentIntervalChanged();

	mov	ecx, DWORD PTR _this$[ebp]
	call	?OnPresentIntervalChanged@CD3DSettingsDlg@@IAEJXZ ; CD3DSettingsDlg::OnPresentIntervalChanged
	mov	DWORD PTR _hr$[ebp], eax

; 854  :             if( FAILED(hr) )

	cmp	DWORD PTR _hr$[ebp], 0
	jge	SHORT $LN24@OnBackBuff

; 855  :                 return hr;

	mov	eax, DWORD PTR _hr$[ebp]
	jmp	SHORT $LN29@OnBackBuff
$LN24@OnBackBuff:

; 856  :         }
; 857  :     }

	jmp	$LN26@OnBackBuff
$LN25@OnBackBuff:

; 858  : 
; 859  :     return S_OK;

	xor	eax, eax
$LN29@OnBackBuff:

; 860  : }

	push	edx
	mov	ecx, ebp
	push	eax
	lea	edx, DWORD PTR $LN40@OnBackBuff
	call	@_RTC_CheckStackVars@8
	pop	eax
	pop	edx
	pop	edi
	pop	esi
	pop	ebx
	add	esp, 412				; 0000019cH
	cmp	ebp, esp
	call	__RTC_CheckEsp
	mov	esp, ebp
	pop	ebp
	ret	0
	npad	2
$LN40@OnBackBuff:
	DD	4
	DD	$LN39@OnBackBuff
$LN39@OnBackBuff:
	DD	-65					; ffffffbfH
	DD	1
	DD	$LN35@OnBackBuff
	DD	-77					; ffffffb3H
	DD	1
	DD	$LN36@OnBackBuff
	DD	-89					; ffffffa7H
	DD	1
	DD	$LN37@OnBackBuff
	DD	-101					; ffffff9bH
	DD	1
	DD	$LN38@OnBackBuff
$LN38@OnBackBuff:
	DB	98					; 00000062H
	DB	65					; 00000041H
	DB	108					; 0000006cH
	DB	108					; 0000006cH
	DB	111					; 0000006fH
	DB	119					; 00000077H
	DB	77					; 0000004dH
	DB	105					; 00000069H
	DB	120					; 00000078H
	DB	101					; 00000065H
	DB	100					; 00000064H
	DB	86					; 00000056H
	DB	80					; 00000050H
	DB	0
$LN37@OnBackBuff:
	DB	98					; 00000062H
	DB	65					; 00000041H
	DB	108					; 0000006cH
	DB	108					; 0000006cH
	DB	111					; 0000006fH
	DB	119					; 00000077H
	DB	80					; 00000050H
	DB	117					; 00000075H
	DB	114					; 00000072H
	DB	101					; 00000065H
	DB	72					; 00000048H
	DB	97					; 00000061H
	DB	114					; 00000072H
	DB	100					; 00000064H
	DB	119					; 00000077H
	DB	97					; 00000061H
	DB	114					; 00000072H
	DB	101					; 00000065H
	DB	86					; 00000056H
	DB	80					; 00000050H
	DB	0
$LN36@OnBackBuff:
	DB	98					; 00000062H
	DB	65					; 00000041H
	DB	108					; 0000006cH
	DB	108					; 0000006cH
	DB	111					; 0000006fH
	DB	119					; 00000077H
	DB	72					; 00000048H
	DB	97					; 00000061H
	DB	114					; 00000072H
	DB	100					; 00000064H
	DB	119					; 00000077H
	DB	97					; 00000061H
	DB	114					; 00000072H
	DB	101					; 00000065H
	DB	86					; 00000056H
	DB	80					; 00000050H
	DB	0
$LN35@OnBackBuff:
	DB	98					; 00000062H
	DB	65					; 00000041H
	DB	108					; 0000006cH
	DB	108					; 0000006cH
	DB	111					; 0000006fH
	DB	119					; 00000077H
	DB	83					; 00000053H
	DB	111					; 0000006fH
	DB	102					; 00000066H
	DB	116					; 00000074H
	DB	119					; 00000077H
	DB	97					; 00000061H
	DB	114					; 00000072H
	DB	101					; 00000065H
	DB	86					; 00000056H
	DB	80					; 00000050H
	DB	0
?OnBackBufferFormatChanged@CD3DSettingsDlg@@IAEJXZ ENDP	; CD3DSettingsDlg::OnBackBufferFormatChanged
_TEXT	ENDS
; Function compile flags: /Odtp /RTCsu /ZI
; File z:\sampsrc\02xu1\saco\d3d9\common\dxutsettingsdlg.cpp
;	COMDAT ?OnRefreshRateChanged@CD3DSettingsDlg@@IAEJXZ
_TEXT	SEGMENT
_this$ = -8						; size = 4
?OnRefreshRateChanged@CD3DSettingsDlg@@IAEJXZ PROC	; CD3DSettingsDlg::OnRefreshRateChanged, COMDAT
; _this$ = ecx

; 753  : {

	push	ebp
	mov	ebp, esp
	sub	esp, 204				; 000000ccH
	push	ebx
	push	esi
	push	edi
	push	ecx
	lea	edi, DWORD PTR [ebp-204]
	mov	ecx, 51					; 00000033H
	mov	eax, -858993460				; ccccccccH
	rep stosd
	pop	ecx
	mov	DWORD PTR _this$[ebp], ecx

; 754  :     // Set refresh rate
; 755  :     g_DeviceSettings.pp.FullScreen_RefreshRateInHz = GetSelectedRefreshRate();

	mov	ecx, DWORD PTR _this$[ebp]
	call	?GetSelectedRefreshRate@CD3DSettingsDlg@@IAEKXZ ; CD3DSettingsDlg::GetSelectedRefreshRate
	mov	DWORD PTR ?g_DeviceSettings@@3UDXUTDeviceSettings@@A+64, eax

; 756  : 
; 757  :     return S_OK;

	xor	eax, eax

; 758  : }

	pop	edi
	pop	esi
	pop	ebx
	add	esp, 204				; 000000ccH
	cmp	ebp, esp
	call	__RTC_CheckEsp
	mov	esp, ebp
	pop	ebp
	ret	0
?OnRefreshRateChanged@CD3DSettingsDlg@@IAEJXZ ENDP	; CD3DSettingsDlg::OnRefreshRateChanged
_TEXT	ENDS
; Function compile flags: /Odtp /RTCsu /ZI
; File z:\sampsrc\02xu1\saco\d3d9\common\dxutsettingsdlg.cpp
;	COMDAT ?OnResolutionChanged@CD3DSettingsDlg@@IAEJXZ
_TEXT	SEGMENT
_displayMode$1 = -132					; size = 16
_idm$2 = -108						; size = 4
_adapterFormat$ = -96					; size = 4
_pRefreshRateComboBox$ = -84				; size = 4
_dwRefreshRate$ = -72					; size = 4
_dwHeight$ = -60					; size = 4
_dwWidth$ = -48						; size = 4
_pAdapterInfo$ = -36					; size = 4
_hr$ = -24						; size = 4
_this$ = -12						; size = 4
__$ArrayPad$ = -4					; size = 4
?OnResolutionChanged@CD3DSettingsDlg@@IAEJXZ PROC	; CD3DSettingsDlg::OnResolutionChanged, COMDAT
; _this$ = ecx

; 709  : {

	push	ebp
	mov	ebp, esp
	sub	esp, 328				; 00000148H
	push	ebx
	push	esi
	push	edi
	push	ecx
	lea	edi, DWORD PTR [ebp-328]
	mov	ecx, 82					; 00000052H
	mov	eax, -858993460				; ccccccccH
	rep stosd
	pop	ecx
	mov	eax, DWORD PTR ___security_cookie
	xor	eax, ebp
	mov	DWORD PTR __$ArrayPad$[ebp], eax
	mov	DWORD PTR _this$[ebp], ecx

; 710  :     HRESULT hr = S_OK;

	mov	DWORD PTR _hr$[ebp], 0

; 711  : 
; 712  :     CD3DEnumAdapterInfo* pAdapterInfo = GetCurrentAdapterInfo();

	mov	ecx, DWORD PTR _this$[ebp]
	call	?GetCurrentAdapterInfo@CD3DSettingsDlg@@IAEPAVCD3DEnumAdapterInfo@@XZ ; CD3DSettingsDlg::GetCurrentAdapterInfo
	mov	DWORD PTR _pAdapterInfo$[ebp], eax

; 713  :     if( pAdapterInfo == NULL )

	cmp	DWORD PTR _pAdapterInfo$[ebp], 0
	jne	SHORT $LN6@OnResoluti

; 714  :         return E_FAIL;

	mov	eax, -2147467259			; 80004005H
	jmp	$LN7@OnResoluti
$LN6@OnResoluti:

; 715  : 
; 716  :     // Set resolution
; 717  :     DWORD dwWidth, dwHeight;
; 718  :     GetSelectedResolution( &dwWidth, &dwHeight );

	lea	eax, DWORD PTR _dwHeight$[ebp]
	push	eax
	lea	ecx, DWORD PTR _dwWidth$[ebp]
	push	ecx
	mov	ecx, DWORD PTR _this$[ebp]
	call	?GetSelectedResolution@CD3DSettingsDlg@@IAEXPAK0@Z ; CD3DSettingsDlg::GetSelectedResolution

; 719  :     g_DeviceSettings.pp.BackBufferWidth = dwWidth;

	mov	eax, DWORD PTR _dwWidth$[ebp]
	mov	DWORD PTR ?g_DeviceSettings@@3UDXUTDeviceSettings@@A+16, eax

; 720  :     g_DeviceSettings.pp.BackBufferHeight = dwHeight;

	mov	eax, DWORD PTR _dwHeight$[ebp]
	mov	DWORD PTR ?g_DeviceSettings@@3UDXUTDeviceSettings@@A+20, eax

; 721  : 
; 722  :     DWORD dwRefreshRate = g_DeviceSettings.pp.FullScreen_RefreshRateInHz;

	mov	eax, DWORD PTR ?g_DeviceSettings@@3UDXUTDeviceSettings@@A+64
	mov	DWORD PTR _dwRefreshRate$[ebp], eax

; 723  : 
; 724  :     // Update the refresh rate list
; 725  :     CDXUTComboBox* pRefreshRateComboBox = m_Dialog.GetComboBox( DXUTSETTINGSDLG_REFRESH_RATE );

	push	11					; 0000000bH
	mov	ecx, DWORD PTR _this$[ebp]
	add	ecx, 4
	call	?GetComboBox@CDXUTDialog@@QAEPAVCDXUTComboBox@@H@Z ; CDXUTDialog::GetComboBox
	mov	DWORD PTR _pRefreshRateComboBox$[ebp], eax

; 726  :     pRefreshRateComboBox->RemoveAllItems();

	mov	ecx, DWORD PTR _pRefreshRateComboBox$[ebp]
	call	?RemoveAllItems@CDXUTComboBox@@QAEXXZ	; CDXUTComboBox::RemoveAllItems

; 727  : 
; 728  :     D3DFORMAT adapterFormat = g_DeviceSettings.AdapterFormat;

	mov	eax, DWORD PTR ?g_DeviceSettings@@3UDXUTDeviceSettings@@A+8
	mov	DWORD PTR _adapterFormat$[ebp], eax

; 729  :     for( int idm = 0; idm < pAdapterInfo->displayModeList.GetSize(); idm++ )

	mov	DWORD PTR _idm$2[ebp], 0
	jmp	SHORT $LN5@OnResoluti
$LN4@OnResoluti:
	mov	eax, DWORD PTR _idm$2[ebp]
	add	eax, 1
	mov	DWORD PTR _idm$2[ebp], eax
$LN5@OnResoluti:
	mov	ecx, DWORD PTR _pAdapterInfo$[ebp]
	add	ecx, 1360				; 00000550H
	call	?GetSize@?$CGrowableArray@U_D3DDISPLAYMODE@@@@QBEHXZ ; CGrowableArray<_D3DDISPLAYMODE>::GetSize
	cmp	DWORD PTR _idm$2[ebp], eax
	jge	SHORT $LN3@OnResoluti

; 730  :     {
; 731  :         D3DDISPLAYMODE displayMode = pAdapterInfo->displayModeList.GetAt( idm );

	mov	eax, DWORD PTR _idm$2[ebp]
	push	eax
	mov	ecx, DWORD PTR _pAdapterInfo$[ebp]
	add	ecx, 1360				; 00000550H
	call	?GetAt@?$CGrowableArray@U_D3DDISPLAYMODE@@@@QAEAAU_D3DDISPLAYMODE@@H@Z ; CGrowableArray<_D3DDISPLAYMODE>::GetAt
	mov	ecx, DWORD PTR [eax]
	mov	DWORD PTR _displayMode$1[ebp], ecx
	mov	edx, DWORD PTR [eax+4]
	mov	DWORD PTR _displayMode$1[ebp+4], edx
	mov	ecx, DWORD PTR [eax+8]
	mov	DWORD PTR _displayMode$1[ebp+8], ecx
	mov	edx, DWORD PTR [eax+12]
	mov	DWORD PTR _displayMode$1[ebp+12], edx

; 732  : 
; 733  :         if( displayMode.Format == adapterFormat &&
; 734  :             displayMode.Width == dwWidth &&
; 735  :             displayMode.Height == dwHeight )

	mov	eax, DWORD PTR _displayMode$1[ebp+12]
	cmp	eax, DWORD PTR _adapterFormat$[ebp]
	jne	SHORT $LN2@OnResoluti
	mov	eax, DWORD PTR _displayMode$1[ebp]
	cmp	eax, DWORD PTR _dwWidth$[ebp]
	jne	SHORT $LN2@OnResoluti
	mov	eax, DWORD PTR _displayMode$1[ebp+4]
	cmp	eax, DWORD PTR _dwHeight$[ebp]
	jne	SHORT $LN2@OnResoluti

; 736  :         {
; 737  :             AddRefreshRate( displayMode.RefreshRate );

	mov	eax, DWORD PTR _displayMode$1[ebp+8]
	push	eax
	mov	ecx, DWORD PTR _this$[ebp]
	call	?AddRefreshRate@CD3DSettingsDlg@@IAEXK@Z ; CD3DSettingsDlg::AddRefreshRate
$LN2@OnResoluti:

; 738  :         }
; 739  :     }

	jmp	SHORT $LN4@OnResoluti
$LN3@OnResoluti:

; 740  : 
; 741  :     pRefreshRateComboBox->SetSelectedByData( ULongToPtr(dwRefreshRate) );

	mov	eax, DWORD PTR _dwRefreshRate$[ebp]
	push	eax
	mov	ecx, DWORD PTR _pRefreshRateComboBox$[ebp]
	call	?SetSelectedByData@CDXUTComboBox@@QAEJPAX@Z ; CDXUTComboBox::SetSelectedByData

; 742  : 
; 743  :     hr = OnRefreshRateChanged();

	mov	ecx, DWORD PTR _this$[ebp]
	call	?OnRefreshRateChanged@CD3DSettingsDlg@@IAEJXZ ; CD3DSettingsDlg::OnRefreshRateChanged
	mov	DWORD PTR _hr$[ebp], eax

; 744  :     if( FAILED(hr) )

	cmp	DWORD PTR _hr$[ebp], 0
	jge	SHORT $LN1@OnResoluti

; 745  :         return hr;

	mov	eax, DWORD PTR _hr$[ebp]
	jmp	SHORT $LN7@OnResoluti
$LN1@OnResoluti:

; 746  : 
; 747  :     return S_OK;

	xor	eax, eax
$LN7@OnResoluti:

; 748  : }

	push	edx
	mov	ecx, ebp
	push	eax
	lea	edx, DWORD PTR $LN13@OnResoluti
	call	@_RTC_CheckStackVars@8
	pop	eax
	pop	edx
	pop	edi
	pop	esi
	pop	ebx
	mov	ecx, DWORD PTR __$ArrayPad$[ebp]
	xor	ecx, ebp
	call	@__security_check_cookie@4
	add	esp, 328				; 00000148H
	cmp	ebp, esp
	call	__RTC_CheckEsp
	mov	esp, ebp
	pop	ebp
	ret	0
$LN13@OnResoluti:
	DD	3
	DD	$LN12@OnResoluti
$LN12@OnResoluti:
	DD	-48					; ffffffd0H
	DD	4
	DD	$LN9@OnResoluti
	DD	-60					; ffffffc4H
	DD	4
	DD	$LN10@OnResoluti
	DD	-132					; ffffff7cH
	DD	16					; 00000010H
	DD	$LN11@OnResoluti
$LN11@OnResoluti:
	DB	100					; 00000064H
	DB	105					; 00000069H
	DB	115					; 00000073H
	DB	112					; 00000070H
	DB	108					; 0000006cH
	DB	97					; 00000061H
	DB	121					; 00000079H
	DB	77					; 0000004dH
	DB	111					; 0000006fH
	DB	100					; 00000064H
	DB	101					; 00000065H
	DB	0
$LN10@OnResoluti:
	DB	100					; 00000064H
	DB	119					; 00000077H
	DB	72					; 00000048H
	DB	101					; 00000065H
	DB	105					; 00000069H
	DB	103					; 00000067H
	DB	104					; 00000068H
	DB	116					; 00000074H
	DB	0
$LN9@OnResoluti:
	DB	100					; 00000064H
	DB	119					; 00000077H
	DB	87					; 00000057H
	DB	105					; 00000069H
	DB	100					; 00000064H
	DB	116					; 00000074H
	DB	104					; 00000068H
	DB	0
?OnResolutionChanged@CD3DSettingsDlg@@IAEJXZ ENDP	; CD3DSettingsDlg::OnResolutionChanged
_TEXT	ENDS
; Function compile flags: /Odtp /RTCsu /ZI
; File z:\sampsrc\02xu1\saco\d3d9\common\dxutsettingsdlg.cpp
;	COMDAT ?OnAdapterFormatChanged@CD3DSettingsDlg@@IAEJXZ
_TEXT	SEGMENT
_pDeviceCombo$1 = -180					; size = 4
_idc$2 = -168						; size = 4
_bHasWindowedBackBuffer$ = -153				; size = 1
_bWindowed$ = -144					; size = 4
_pDeviceInfo$ = -132					; size = 4
_pBackBufferFormatComboBox$ = -120			; size = 4
_dwCurResolution$ = -108				; size = 4
_DisplayMode$3 = -96					; size = 16
_idm$4 = -72						; size = 4
_pAdapterInfo$ = -60					; size = 4
_pResolutionComboBox$ = -48				; size = 4
_adapterFormat$ = -36					; size = 4
_hr$ = -24						; size = 4
_this$ = -12						; size = 4
__$ArrayPad$ = -4					; size = 4
?OnAdapterFormatChanged@CD3DSettingsDlg@@IAEJXZ PROC	; CD3DSettingsDlg::OnAdapterFormatChanged, COMDAT
; _this$ = ecx

; 629  : { 

	push	ebp
	mov	ebp, esp
	sub	esp, 376				; 00000178H
	push	ebx
	push	esi
	push	edi
	push	ecx
	lea	edi, DWORD PTR [ebp-376]
	mov	ecx, 94					; 0000005eH
	mov	eax, -858993460				; ccccccccH
	rep stosd
	pop	ecx
	mov	eax, DWORD PTR ___security_cookie
	xor	eax, ebp
	mov	DWORD PTR __$ArrayPad$[ebp], eax
	mov	DWORD PTR _this$[ebp], ecx

; 630  :     HRESULT hr = S_OK;

	mov	DWORD PTR _hr$[ebp], 0

; 631  : 
; 632  :     // DXUTSETTINGSDLG_ADAPTER_FORMAT
; 633  :     D3DFORMAT adapterFormat = GetSelectedAdapterFormat();

	mov	ecx, DWORD PTR _this$[ebp]
	call	?GetSelectedAdapterFormat@CD3DSettingsDlg@@IAE?AW4_D3DFORMAT@@XZ ; CD3DSettingsDlg::GetSelectedAdapterFormat
	mov	DWORD PTR _adapterFormat$[ebp], eax

; 634  :     g_DeviceSettings.AdapterFormat = adapterFormat;

	mov	eax, DWORD PTR _adapterFormat$[ebp]
	mov	DWORD PTR ?g_DeviceSettings@@3UDXUTDeviceSettings@@A+8, eax

; 635  : 
; 636  :     // DXUTSETTINGSDLG_RESOLUTION
; 637  :     CDXUTComboBox* pResolutionComboBox = m_Dialog.GetComboBox( DXUTSETTINGSDLG_RESOLUTION );

	push	9
	mov	ecx, DWORD PTR _this$[ebp]
	add	ecx, 4
	call	?GetComboBox@CDXUTDialog@@QAEPAVCDXUTComboBox@@H@Z ; CDXUTDialog::GetComboBox
	mov	DWORD PTR _pResolutionComboBox$[ebp], eax

; 638  :     pResolutionComboBox->RemoveAllItems();

	mov	ecx, DWORD PTR _pResolutionComboBox$[ebp]
	call	?RemoveAllItems@CDXUTComboBox@@QAEXXZ	; CDXUTComboBox::RemoveAllItems

; 639  : 
; 640  :     CD3DEnumAdapterInfo* pAdapterInfo = GetCurrentAdapterInfo();

	mov	ecx, DWORD PTR _this$[ebp]
	call	?GetCurrentAdapterInfo@CD3DSettingsDlg@@IAEPAVCD3DEnumAdapterInfo@@XZ ; CD3DSettingsDlg::GetCurrentAdapterInfo
	mov	DWORD PTR _pAdapterInfo$[ebp], eax

; 641  :     if( pAdapterInfo == NULL )

	cmp	DWORD PTR _pAdapterInfo$[ebp], 0
	jne	SHORT $LN15@OnAdapterF

; 642  :         return E_FAIL;

	mov	eax, -2147467259			; 80004005H
	jmp	$LN16@OnAdapterF
$LN15@OnAdapterF:

; 643  : 
; 644  :     for( int idm = 0; idm < pAdapterInfo->displayModeList.GetSize(); idm++ )

	mov	DWORD PTR _idm$4[ebp], 0
	jmp	SHORT $LN14@OnAdapterF
$LN13@OnAdapterF:
	mov	eax, DWORD PTR _idm$4[ebp]
	add	eax, 1
	mov	DWORD PTR _idm$4[ebp], eax
$LN14@OnAdapterF:
	mov	ecx, DWORD PTR _pAdapterInfo$[ebp]
	add	ecx, 1360				; 00000550H
	call	?GetSize@?$CGrowableArray@U_D3DDISPLAYMODE@@@@QBEHXZ ; CGrowableArray<_D3DDISPLAYMODE>::GetSize
	cmp	DWORD PTR _idm$4[ebp], eax
	jge	SHORT $LN12@OnAdapterF

; 645  :     {
; 646  :         D3DDISPLAYMODE DisplayMode = pAdapterInfo->displayModeList.GetAt( idm );

	mov	eax, DWORD PTR _idm$4[ebp]
	push	eax
	mov	ecx, DWORD PTR _pAdapterInfo$[ebp]
	add	ecx, 1360				; 00000550H
	call	?GetAt@?$CGrowableArray@U_D3DDISPLAYMODE@@@@QAEAAU_D3DDISPLAYMODE@@H@Z ; CGrowableArray<_D3DDISPLAYMODE>::GetAt
	mov	ecx, DWORD PTR [eax]
	mov	DWORD PTR _DisplayMode$3[ebp], ecx
	mov	edx, DWORD PTR [eax+4]
	mov	DWORD PTR _DisplayMode$3[ebp+4], edx
	mov	ecx, DWORD PTR [eax+8]
	mov	DWORD PTR _DisplayMode$3[ebp+8], ecx
	mov	edx, DWORD PTR [eax+12]
	mov	DWORD PTR _DisplayMode$3[ebp+12], edx

; 647  : 
; 648  :         if( DisplayMode.Format == adapterFormat )

	mov	eax, DWORD PTR _DisplayMode$3[ebp+12]
	cmp	eax, DWORD PTR _adapterFormat$[ebp]
	jne	SHORT $LN11@OnAdapterF

; 649  :             AddResolution( DisplayMode.Width, DisplayMode.Height );    

	mov	eax, DWORD PTR _DisplayMode$3[ebp+4]
	push	eax
	mov	ecx, DWORD PTR _DisplayMode$3[ebp]
	push	ecx
	mov	ecx, DWORD PTR _this$[ebp]
	call	?AddResolution@CD3DSettingsDlg@@IAEXKK@Z ; CD3DSettingsDlg::AddResolution
$LN11@OnAdapterF:

; 650  :     }

	jmp	SHORT $LN13@OnAdapterF
$LN12@OnAdapterF:

; 651  : 
; 652  :     const DWORD dwCurResolution = MAKELONG( g_DeviceSettings.pp.BackBufferWidth, 
; 653  :                                             g_DeviceSettings.pp.BackBufferHeight );

	mov	eax, DWORD PTR ?g_DeviceSettings@@3UDXUTDeviceSettings@@A+16
	and	eax, 65535				; 0000ffffH
	movzx	ecx, ax
	mov	edx, DWORD PTR ?g_DeviceSettings@@3UDXUTDeviceSettings@@A+20
	and	edx, 65535				; 0000ffffH
	movzx	eax, dx
	shl	eax, 16					; 00000010H
	or	ecx, eax
	mov	DWORD PTR _dwCurResolution$[ebp], ecx

; 654  : 
; 655  :     pResolutionComboBox->SetSelectedByData( ULongToPtr(dwCurResolution) );

	mov	eax, DWORD PTR _dwCurResolution$[ebp]
	push	eax
	mov	ecx, DWORD PTR _pResolutionComboBox$[ebp]
	call	?SetSelectedByData@CDXUTComboBox@@QAEJPAX@Z ; CDXUTComboBox::SetSelectedByData

; 656  : 
; 657  :     hr = OnResolutionChanged();

	mov	ecx, DWORD PTR _this$[ebp]
	call	?OnResolutionChanged@CD3DSettingsDlg@@IAEJXZ ; CD3DSettingsDlg::OnResolutionChanged
	mov	DWORD PTR _hr$[ebp], eax

; 658  :     if( FAILED(hr) )

	cmp	DWORD PTR _hr$[ebp], 0
	jge	SHORT $LN10@OnAdapterF

; 659  :         return hr;

	mov	eax, DWORD PTR _hr$[ebp]
	jmp	$LN16@OnAdapterF
$LN10@OnAdapterF:

; 660  : 
; 661  :     // DXUTSETTINGSDLG_BACK_BUFFER_FORMAT
; 662  :     CDXUTComboBox* pBackBufferFormatComboBox = m_Dialog.GetComboBox( DXUTSETTINGSDLG_BACK_BUFFER_FORMAT );

	push	13					; 0000000dH
	mov	ecx, DWORD PTR _this$[ebp]
	add	ecx, 4
	call	?GetComboBox@CDXUTDialog@@QAEPAVCDXUTComboBox@@H@Z ; CDXUTDialog::GetComboBox
	mov	DWORD PTR _pBackBufferFormatComboBox$[ebp], eax

; 663  :     pBackBufferFormatComboBox->RemoveAllItems();

	mov	ecx, DWORD PTR _pBackBufferFormatComboBox$[ebp]
	call	?RemoveAllItems@CDXUTComboBox@@QAEXXZ	; CDXUTComboBox::RemoveAllItems

; 664  : 
; 665  :     CD3DEnumDeviceInfo* pDeviceInfo = GetCurrentDeviceInfo();

	mov	ecx, DWORD PTR _this$[ebp]
	call	?GetCurrentDeviceInfo@CD3DSettingsDlg@@IAEPAVCD3DEnumDeviceInfo@@XZ ; CD3DSettingsDlg::GetCurrentDeviceInfo
	mov	DWORD PTR _pDeviceInfo$[ebp], eax

; 666  :     if( pDeviceInfo == NULL )

	cmp	DWORD PTR _pDeviceInfo$[ebp], 0
	jne	SHORT $LN9@OnAdapterF

; 667  :         return E_FAIL;

	mov	eax, -2147467259			; 80004005H
	jmp	$LN16@OnAdapterF
$LN9@OnAdapterF:

; 668  : 
; 669  :     const BOOL bWindowed = IsWindowed();

	mov	ecx, DWORD PTR _this$[ebp]
	call	?IsWindowed@CD3DSettingsDlg@@IAE_NXZ	; CD3DSettingsDlg::IsWindowed
	movzx	eax, al
	mov	DWORD PTR _bWindowed$[ebp], eax

; 670  :     bool bHasWindowedBackBuffer = false;

	mov	BYTE PTR _bHasWindowedBackBuffer$[ebp], 0

; 671  : 
; 672  :     for( int idc = 0; idc < pDeviceInfo->deviceSettingsComboList.GetSize(); idc++ )

	mov	DWORD PTR _idc$2[ebp], 0
	jmp	SHORT $LN8@OnAdapterF
$LN7@OnAdapterF:
	mov	eax, DWORD PTR _idc$2[ebp]
	add	eax, 1
	mov	DWORD PTR _idc$2[ebp], eax
$LN8@OnAdapterF:
	mov	ecx, DWORD PTR _pDeviceInfo$[ebp]
	add	ecx, 312				; 00000138H
	call	?GetSize@?$CGrowableArray@PAUCD3DEnumDeviceSettingsCombo@@@@QBEHXZ ; CGrowableArray<CD3DEnumDeviceSettingsCombo *>::GetSize
	cmp	DWORD PTR _idc$2[ebp], eax
	jge	SHORT $LN6@OnAdapterF

; 673  :     {
; 674  :         CD3DEnumDeviceSettingsCombo* pDeviceCombo = pDeviceInfo->deviceSettingsComboList.GetAt( idc );

	mov	eax, DWORD PTR _idc$2[ebp]
	push	eax
	mov	ecx, DWORD PTR _pDeviceInfo$[ebp]
	add	ecx, 312				; 00000138H
	call	?GetAt@?$CGrowableArray@PAUCD3DEnumDeviceSettingsCombo@@@@QAEAAPAUCD3DEnumDeviceSettingsCombo@@H@Z ; CGrowableArray<CD3DEnumDeviceSettingsCombo *>::GetAt
	mov	ecx, DWORD PTR [eax]
	mov	DWORD PTR _pDeviceCombo$1[ebp], ecx

; 675  :         if( pDeviceCombo->Windowed == bWindowed &&
; 676  :             pDeviceCombo->AdapterFormat == g_DeviceSettings.AdapterFormat )

	mov	eax, DWORD PTR _pDeviceCombo$1[ebp]
	mov	ecx, DWORD PTR [eax+16]
	cmp	ecx, DWORD PTR _bWindowed$[ebp]
	jne	SHORT $LN5@OnAdapterF
	mov	eax, DWORD PTR _pDeviceCombo$1[ebp]
	mov	ecx, DWORD PTR [eax+8]
	cmp	ecx, DWORD PTR ?g_DeviceSettings@@3UDXUTDeviceSettings@@A+8
	jne	SHORT $LN5@OnAdapterF

; 677  :         {
; 678  :             AddBackBufferFormat( pDeviceCombo->BackBufferFormat );

	mov	eax, DWORD PTR _pDeviceCombo$1[ebp]
	mov	ecx, DWORD PTR [eax+12]
	push	ecx
	mov	ecx, DWORD PTR _this$[ebp]
	call	?AddBackBufferFormat@CD3DSettingsDlg@@IAEXW4_D3DFORMAT@@@Z ; CD3DSettingsDlg::AddBackBufferFormat

; 679  :             bHasWindowedBackBuffer = true;

	mov	BYTE PTR _bHasWindowedBackBuffer$[ebp], 1
$LN5@OnAdapterF:

; 680  :         }
; 681  :     }

	jmp	$LN7@OnAdapterF
$LN6@OnAdapterF:

; 682  : 
; 683  :     pBackBufferFormatComboBox->SetSelectedByData( ULongToPtr(g_DeviceSettings.pp.BackBufferFormat) );

	mov	eax, DWORD PTR ?g_DeviceSettings@@3UDXUTDeviceSettings@@A+24
	push	eax
	mov	ecx, DWORD PTR _pBackBufferFormatComboBox$[ebp]
	call	?SetSelectedByData@CDXUTComboBox@@QAEJPAX@Z ; CDXUTComboBox::SetSelectedByData

; 684  : 
; 685  :     hr = OnBackBufferFormatChanged();

	mov	ecx, DWORD PTR _this$[ebp]
	call	?OnBackBufferFormatChanged@CD3DSettingsDlg@@IAEJXZ ; CD3DSettingsDlg::OnBackBufferFormatChanged
	mov	DWORD PTR _hr$[ebp], eax

; 686  :     if( FAILED(hr) )

	cmp	DWORD PTR _hr$[ebp], 0
	jge	SHORT $LN4@OnAdapterF

; 687  :         return hr;

	mov	eax, DWORD PTR _hr$[ebp]
	jmp	SHORT $LN16@OnAdapterF
$LN4@OnAdapterF:

; 688  : 
; 689  :     if( !bHasWindowedBackBuffer )

	movzx	eax, BYTE PTR _bHasWindowedBackBuffer$[ebp]
	test	eax, eax
	jne	SHORT $LN3@OnAdapterF

; 690  :     {
; 691  :         m_Dialog.SetControlEnabled( DXUTSETTINGSDLG_WINDOWED, false );

	push	0
	push	5
	mov	ecx, DWORD PTR _this$[ebp]
	add	ecx, 4
	call	?SetControlEnabled@CDXUTDialog@@QAEXH_N@Z ; CDXUTDialog::SetControlEnabled

; 692  : 
; 693  :         if( g_DeviceSettings.pp.Windowed )

	cmp	DWORD PTR ?g_DeviceSettings@@3UDXUTDeviceSettings@@A+48, 0
	je	SHORT $LN3@OnAdapterF

; 694  :         {
; 695  :             SetWindowed( false );

	push	0
	mov	ecx, DWORD PTR _this$[ebp]
	call	?SetWindowed@CD3DSettingsDlg@@IAEX_N@Z	; CD3DSettingsDlg::SetWindowed

; 696  : 
; 697  :             hr = OnWindowedFullScreenChanged();

	mov	ecx, DWORD PTR _this$[ebp]
	call	?OnWindowedFullScreenChanged@CD3DSettingsDlg@@IAEJXZ ; CD3DSettingsDlg::OnWindowedFullScreenChanged
	mov	DWORD PTR _hr$[ebp], eax

; 698  :             if( FAILED(hr) )

	cmp	DWORD PTR _hr$[ebp], 0
	jge	SHORT $LN3@OnAdapterF

; 699  :                 return hr;

	mov	eax, DWORD PTR _hr$[ebp]
	jmp	SHORT $LN16@OnAdapterF
$LN3@OnAdapterF:

; 700  :         }
; 701  :     }
; 702  : 
; 703  :     return S_OK;

	xor	eax, eax
$LN16@OnAdapterF:

; 704  : }

	push	edx
	mov	ecx, ebp
	push	eax
	lea	edx, DWORD PTR $LN20@OnAdapterF
	call	@_RTC_CheckStackVars@8
	pop	eax
	pop	edx
	pop	edi
	pop	esi
	pop	ebx
	mov	ecx, DWORD PTR __$ArrayPad$[ebp]
	xor	ecx, ebp
	call	@__security_check_cookie@4
	add	esp, 376				; 00000178H
	cmp	ebp, esp
	call	__RTC_CheckEsp
	mov	esp, ebp
	pop	ebp
	ret	0
$LN20@OnAdapterF:
	DD	1
	DD	$LN19@OnAdapterF
$LN19@OnAdapterF:
	DD	-96					; ffffffa0H
	DD	16					; 00000010H
	DD	$LN18@OnAdapterF
$LN18@OnAdapterF:
	DB	68					; 00000044H
	DB	105					; 00000069H
	DB	115					; 00000073H
	DB	112					; 00000070H
	DB	108					; 0000006cH
	DB	97					; 00000061H
	DB	121					; 00000079H
	DB	77					; 0000004dH
	DB	111					; 0000006fH
	DB	100					; 00000064H
	DB	101					; 00000065H
	DB	0
?OnAdapterFormatChanged@CD3DSettingsDlg@@IAEJXZ ENDP	; CD3DSettingsDlg::OnAdapterFormatChanged
_TEXT	ENDS
; Function compile flags: /Odtp /RTCsu /ZI
; File z:\sampsrc\02xu1\saco\d3d9\common\dxutsettingsdlg.cpp
;	COMDAT ?OnWindowedFullScreenChanged@CD3DSettingsDlg@@IAEJXZ
_TEXT	SEGMENT
tv147 = -476						; size = 4
tv138 = -473						; size = 1
tv131 = -473						; size = 1
tv92 = -473						; size = 1
tv85 = -473						; size = 1
tv78 = -473						; size = 1
tv71 = -473						; size = 1
$T1 = -468						; size = 16
$T2 = -444						; size = 16
_pRefreshRateComboBox$ = -228				; size = 4
_pResolutionComboBox$ = -216				; size = 4
_pSettingsCombo$3 = -204				; size = 4
_iSettingsCombo$4 = -192				; size = 4
_pDeviceInfo$ = -180					; size = 4
_pAdapterFormatComboBox$ = -168				; size = 4
_dwRefreshRate$ = -156					; size = 4
_dwHeight$ = -144					; size = 4
_dwWidth$ = -132					; size = 4
_adapterFormat$ = -120					; size = 4
_rc$5 = -108						; size = 16
_mode$6 = -84						; size = 16
_pD3D$7 = -60						; size = 4
_bDeviceClip$ = -45					; size = 1
_bWindowed$ = -33					; size = 1
_hr$ = -24						; size = 4
_this$ = -12						; size = 4
__$ArrayPad$ = -4					; size = 4
?OnWindowedFullScreenChanged@CD3DSettingsDlg@@IAEJXZ PROC ; CD3DSettingsDlg::OnWindowedFullScreenChanged, COMDAT
; _this$ = ecx

; 509  : {

	push	ebp
	mov	ebp, esp
	sub	esp, 476				; 000001dcH
	push	ebx
	push	esi
	push	edi
	push	ecx
	lea	edi, DWORD PTR [ebp-476]
	mov	ecx, 119				; 00000077H
	mov	eax, -858993460				; ccccccccH
	rep stosd
	pop	ecx
	mov	eax, DWORD PTR ___security_cookie
	xor	eax, ebp
	mov	DWORD PTR __$ArrayPad$[ebp], eax
	mov	DWORD PTR _this$[ebp], ecx

; 510  :     HRESULT hr = S_OK;

	mov	DWORD PTR _hr$[ebp], 0

; 511  : 
; 512  :     bool bWindowed = IsWindowed();

	mov	ecx, DWORD PTR _this$[ebp]
	call	?IsWindowed@CD3DSettingsDlg@@IAE_NXZ	; CD3DSettingsDlg::IsWindowed
	mov	BYTE PTR _bWindowed$[ebp], al

; 513  :     g_DeviceSettings.pp.Windowed = bWindowed;

	movzx	eax, BYTE PTR _bWindowed$[ebp]
	mov	DWORD PTR ?g_DeviceSettings@@3UDXUTDeviceSettings@@A+48, eax

; 514  : 
; 515  :     m_Dialog.SetControlEnabled( DXUTSETTINGSDLG_ADAPTER_FORMAT_LABEL, !bWindowed );

	movzx	eax, BYTE PTR _bWindowed$[ebp]
	test	eax, eax
	jne	SHORT $LN21@OnWindowed
	mov	BYTE PTR tv71[ebp], 1
	jmp	SHORT $LN22@OnWindowed
$LN21@OnWindowed:
	mov	BYTE PTR tv71[ebp], 0
$LN22@OnWindowed:
	movzx	ecx, BYTE PTR tv71[ebp]
	push	ecx
	push	8
	mov	ecx, DWORD PTR _this$[ebp]
	add	ecx, 4
	call	?SetControlEnabled@CDXUTDialog@@QAEXH_N@Z ; CDXUTDialog::SetControlEnabled

; 516  :     m_Dialog.SetControlEnabled( DXUTSETTINGSDLG_RESOLUTION_LABEL, !bWindowed );

	movzx	eax, BYTE PTR _bWindowed$[ebp]
	test	eax, eax
	jne	SHORT $LN23@OnWindowed
	mov	BYTE PTR tv78[ebp], 1
	jmp	SHORT $LN24@OnWindowed
$LN23@OnWindowed:
	mov	BYTE PTR tv78[ebp], 0
$LN24@OnWindowed:
	movzx	ecx, BYTE PTR tv78[ebp]
	push	ecx
	push	10					; 0000000aH
	mov	ecx, DWORD PTR _this$[ebp]
	add	ecx, 4
	call	?SetControlEnabled@CDXUTDialog@@QAEXH_N@Z ; CDXUTDialog::SetControlEnabled

; 517  :     m_Dialog.SetControlEnabled( DXUTSETTINGSDLG_REFRESH_RATE_LABEL, !bWindowed );

	movzx	eax, BYTE PTR _bWindowed$[ebp]
	test	eax, eax
	jne	SHORT $LN25@OnWindowed
	mov	BYTE PTR tv85[ebp], 1
	jmp	SHORT $LN26@OnWindowed
$LN25@OnWindowed:
	mov	BYTE PTR tv85[ebp], 0
$LN26@OnWindowed:
	movzx	ecx, BYTE PTR tv85[ebp]
	push	ecx
	push	12					; 0000000cH
	mov	ecx, DWORD PTR _this$[ebp]
	add	ecx, 4
	call	?SetControlEnabled@CDXUTDialog@@QAEXH_N@Z ; CDXUTDialog::SetControlEnabled

; 518  : 
; 519  :     m_Dialog.SetControlEnabled( DXUTSETTINGSDLG_ADAPTER_FORMAT, !bWindowed );

	movzx	eax, BYTE PTR _bWindowed$[ebp]
	test	eax, eax
	jne	SHORT $LN27@OnWindowed
	mov	BYTE PTR tv92[ebp], 1
	jmp	SHORT $LN28@OnWindowed
$LN27@OnWindowed:
	mov	BYTE PTR tv92[ebp], 0
$LN28@OnWindowed:
	movzx	ecx, BYTE PTR tv92[ebp]
	push	ecx
	push	7
	mov	ecx, DWORD PTR _this$[ebp]
	add	ecx, 4
	call	?SetControlEnabled@CDXUTDialog@@QAEXH_N@Z ; CDXUTDialog::SetControlEnabled

; 520  :     m_Dialog.SetControlEnabled( DXUTSETTINGSDLG_RESOLUTION, !bWindowed );

	movzx	eax, BYTE PTR _bWindowed$[ebp]
	test	eax, eax
	jne	SHORT $LN29@OnWindowed
	mov	BYTE PTR tv131[ebp], 1
	jmp	SHORT $LN30@OnWindowed
$LN29@OnWindowed:
	mov	BYTE PTR tv131[ebp], 0
$LN30@OnWindowed:
	movzx	ecx, BYTE PTR tv131[ebp]
	push	ecx
	push	9
	mov	ecx, DWORD PTR _this$[ebp]
	add	ecx, 4
	call	?SetControlEnabled@CDXUTDialog@@QAEXH_N@Z ; CDXUTDialog::SetControlEnabled

; 521  :     m_Dialog.SetControlEnabled( DXUTSETTINGSDLG_REFRESH_RATE, !bWindowed );

	movzx	eax, BYTE PTR _bWindowed$[ebp]
	test	eax, eax
	jne	SHORT $LN31@OnWindowed
	mov	BYTE PTR tv138[ebp], 1
	jmp	SHORT $LN32@OnWindowed
$LN31@OnWindowed:
	mov	BYTE PTR tv138[ebp], 0
$LN32@OnWindowed:
	movzx	ecx, BYTE PTR tv138[ebp]
	push	ecx
	push	11					; 0000000bH
	mov	ecx, DWORD PTR _this$[ebp]
	add	ecx, 4
	call	?SetControlEnabled@CDXUTDialog@@QAEXH_N@Z ; CDXUTDialog::SetControlEnabled

; 522  :     m_Dialog.SetControlEnabled( DXUTSETTINGSDLG_DEVICECLIP, bWindowed );

	movzx	eax, BYTE PTR _bWindowed$[ebp]
	push	eax
	push	19					; 00000013H
	mov	ecx, DWORD PTR _this$[ebp]
	add	ecx, 4
	call	?SetControlEnabled@CDXUTDialog@@QAEXH_N@Z ; CDXUTDialog::SetControlEnabled

; 523  : 
; 524  :     bool bDeviceClip = ( 0x0 != (g_DeviceSettings.pp.Flags & D3DPRESENTFLAG_DEVICECLIP) );

	mov	eax, DWORD PTR ?g_DeviceSettings@@3UDXUTDeviceSettings@@A+60
	and	eax, 4
	je	SHORT $LN33@OnWindowed
	mov	DWORD PTR tv147[ebp], 1
	jmp	SHORT $LN34@OnWindowed
$LN33@OnWindowed:
	mov	DWORD PTR tv147[ebp], 0
$LN34@OnWindowed:
	mov	cl, BYTE PTR tv147[ebp]
	mov	BYTE PTR _bDeviceClip$[ebp], cl

; 525  : 
; 526  :     // If windowed, get the appropriate adapter format from Direct3D
; 527  :     if( g_DeviceSettings.pp.Windowed )

	cmp	DWORD PTR ?g_DeviceSettings@@3UDXUTDeviceSettings@@A+48, 0
	je	$LN18@OnWindowed

; 528  :     {
; 529  :         IDirect3D9* pD3D = DXUTGetD3DObject();

	call	?DXUTGetD3DObject@@YAPAUIDirect3D9@@XZ	; DXUTGetD3DObject
	mov	DWORD PTR _pD3D$7[ebp], eax

; 530  :         if( pD3D == NULL )

	cmp	DWORD PTR _pD3D$7[ebp], 0
	jne	SHORT $LN17@OnWindowed

; 531  :             return DXTRACE_ERR( "DXUTGetD3DObject", E_FAIL );

	push	0
	push	OFFSET ??_C@_0BB@BKKEDFLK@DXUTGetD3DObject?$AA@
	push	-2147467259				; 80004005H
	mov	eax, DWORD PTR ?__LINE__Var@?1??OnWindowedFullScreenChanged@CD3DSettingsDlg@@IAEJXZ@4JA
	add	eax, 22					; 00000016H
	push	eax
	push	OFFSET ??_C@_0DG@DJJIHDHJ@z?3?2sampsrc?202xu1?2saco?2d3d9?2commo@
	call	?DXTraceWrapper@@YGJPBDKJ0H@Z		; DXTraceWrapper
	jmp	$LN19@OnWindowed
$LN17@OnWindowed:

; 532  : 
; 533  :         D3DDISPLAYMODE mode;
; 534  :         hr = pD3D->GetAdapterDisplayMode( g_DeviceSettings.AdapterOrdinal, &mode );

	mov	esi, esp
	lea	eax, DWORD PTR _mode$6[ebp]
	push	eax
	mov	ecx, DWORD PTR ?g_DeviceSettings@@3UDXUTDeviceSettings@@A
	push	ecx
	mov	edx, DWORD PTR _pD3D$7[ebp]
	mov	eax, DWORD PTR [edx]
	mov	ecx, DWORD PTR _pD3D$7[ebp]
	push	ecx
	mov	edx, DWORD PTR [eax+32]
	call	edx
	cmp	esi, esp
	call	__RTC_CheckEsp
	mov	DWORD PTR _hr$[ebp], eax

; 535  :         if( FAILED(hr) )

	cmp	DWORD PTR _hr$[ebp], 0
	jge	SHORT $LN16@OnWindowed

; 536  :             return DXTRACE_ERR( "GetAdapterDisplayMode", hr );

	push	0
	push	OFFSET ??_C@_0BG@HDMFDHKA@GetAdapterDisplayMode?$AA@
	mov	eax, DWORD PTR _hr$[ebp]
	push	eax
	mov	ecx, DWORD PTR ?__LINE__Var@?1??OnWindowedFullScreenChanged@CD3DSettingsDlg@@IAEJXZ@4JA
	add	ecx, 27					; 0000001bH
	push	ecx
	push	OFFSET ??_C@_0DG@DJJIHDHJ@z?3?2sampsrc?202xu1?2saco?2d3d9?2commo@
	call	?DXTraceWrapper@@YGJPBDKJ0H@Z		; DXTraceWrapper
	jmp	$LN19@OnWindowed
$LN16@OnWindowed:

; 537  : 
; 538  :         // Default resolution to the fullscreen res that was last used
; 539  :         RECT rc = DXUTGetFullsceenClientRectAtModeChange();

	lea	eax, DWORD PTR $T1[ebp]
	push	eax
	call	?DXUTGetFullsceenClientRectAtModeChange@@YA?AUtagRECT@@XZ ; DXUTGetFullsceenClientRectAtModeChange
	add	esp, 4
	mov	ecx, DWORD PTR [eax]
	mov	DWORD PTR $T2[ebp], ecx
	mov	edx, DWORD PTR [eax+4]
	mov	DWORD PTR $T2[ebp+4], edx
	mov	ecx, DWORD PTR [eax+8]
	mov	DWORD PTR $T2[ebp+8], ecx
	mov	edx, DWORD PTR [eax+12]
	mov	DWORD PTR $T2[ebp+12], edx
	mov	eax, DWORD PTR $T2[ebp]
	mov	DWORD PTR _rc$5[ebp], eax
	mov	ecx, DWORD PTR $T2[ebp+4]
	mov	DWORD PTR _rc$5[ebp+4], ecx
	mov	edx, DWORD PTR $T2[ebp+8]
	mov	DWORD PTR _rc$5[ebp+8], edx
	mov	eax, DWORD PTR $T2[ebp+12]
	mov	DWORD PTR _rc$5[ebp+12], eax

; 540  :         if( rc.right == 0 || rc.bottom == 0 )

	cmp	DWORD PTR _rc$5[ebp+8], 0
	je	SHORT $LN14@OnWindowed
	cmp	DWORD PTR _rc$5[ebp+12], 0
	jne	SHORT $LN15@OnWindowed
$LN14@OnWindowed:

; 541  :         {
; 542  :             // If nothing last used, then default to the adapter desktop res
; 543  :             g_DeviceSettings.pp.BackBufferWidth = mode.Width;

	mov	eax, DWORD PTR _mode$6[ebp]
	mov	DWORD PTR ?g_DeviceSettings@@3UDXUTDeviceSettings@@A+16, eax

; 544  :             g_DeviceSettings.pp.BackBufferHeight = mode.Height;

	mov	eax, DWORD PTR _mode$6[ebp+4]
	mov	DWORD PTR ?g_DeviceSettings@@3UDXUTDeviceSettings@@A+20, eax

; 545  :         }
; 546  :         else

	jmp	SHORT $LN13@OnWindowed
$LN15@OnWindowed:

; 547  :         {
; 548  :             g_DeviceSettings.pp.BackBufferWidth = rc.right;

	mov	eax, DWORD PTR _rc$5[ebp+8]
	mov	DWORD PTR ?g_DeviceSettings@@3UDXUTDeviceSettings@@A+16, eax

; 549  :             g_DeviceSettings.pp.BackBufferHeight = rc.bottom;

	mov	eax, DWORD PTR _rc$5[ebp+12]
	mov	DWORD PTR ?g_DeviceSettings@@3UDXUTDeviceSettings@@A+20, eax
$LN13@OnWindowed:

; 550  :         }
; 551  : 
; 552  :         g_DeviceSettings.AdapterFormat = mode.Format;

	mov	eax, DWORD PTR _mode$6[ebp+12]
	mov	DWORD PTR ?g_DeviceSettings@@3UDXUTDeviceSettings@@A+8, eax

; 553  :         g_DeviceSettings.pp.FullScreen_RefreshRateInHz = mode.RefreshRate;

	mov	eax, DWORD PTR _mode$6[ebp+8]
	mov	DWORD PTR ?g_DeviceSettings@@3UDXUTDeviceSettings@@A+64, eax
$LN18@OnWindowed:

; 554  :     }
; 555  : 
; 556  :     const D3DFORMAT adapterFormat = g_DeviceSettings.AdapterFormat;

	mov	eax, DWORD PTR ?g_DeviceSettings@@3UDXUTDeviceSettings@@A+8
	mov	DWORD PTR _adapterFormat$[ebp], eax

; 557  :     const DWORD dwWidth = g_DeviceSettings.pp.BackBufferWidth;

	mov	eax, DWORD PTR ?g_DeviceSettings@@3UDXUTDeviceSettings@@A+16
	mov	DWORD PTR _dwWidth$[ebp], eax

; 558  :     const DWORD dwHeight = g_DeviceSettings.pp.BackBufferHeight;

	mov	eax, DWORD PTR ?g_DeviceSettings@@3UDXUTDeviceSettings@@A+20
	mov	DWORD PTR _dwHeight$[ebp], eax

; 559  :     const DWORD dwRefreshRate = g_DeviceSettings.pp.FullScreen_RefreshRateInHz;

	mov	eax, DWORD PTR ?g_DeviceSettings@@3UDXUTDeviceSettings@@A+64
	mov	DWORD PTR _dwRefreshRate$[ebp], eax

; 560  : 
; 561  :     // DXUTSETTINGSDLG_DEVICECLIP
; 562  :     SetDeviceClip( bDeviceClip );

	movzx	eax, BYTE PTR _bDeviceClip$[ebp]
	push	eax
	mov	ecx, DWORD PTR _this$[ebp]
	call	?SetDeviceClip@CD3DSettingsDlg@@IAEX_N@Z ; CD3DSettingsDlg::SetDeviceClip

; 563  :     
; 564  :     // DXUTSETTINGSDLG_ADAPTER_FORMAT
; 565  :     CDXUTComboBox* pAdapterFormatComboBox = m_Dialog.GetComboBox( DXUTSETTINGSDLG_ADAPTER_FORMAT );

	push	7
	mov	ecx, DWORD PTR _this$[ebp]
	add	ecx, 4
	call	?GetComboBox@CDXUTDialog@@QAEPAVCDXUTComboBox@@H@Z ; CDXUTDialog::GetComboBox
	mov	DWORD PTR _pAdapterFormatComboBox$[ebp], eax

; 566  :     if( pAdapterFormatComboBox == NULL )

	cmp	DWORD PTR _pAdapterFormatComboBox$[ebp], 0
	jne	SHORT $LN12@OnWindowed

; 567  :         return E_FAIL;

	mov	eax, -2147467259			; 80004005H
	jmp	$LN19@OnWindowed
$LN12@OnWindowed:

; 568  :     pAdapterFormatComboBox->RemoveAllItems();

	mov	ecx, DWORD PTR _pAdapterFormatComboBox$[ebp]
	call	?RemoveAllItems@CDXUTComboBox@@QAEXXZ	; CDXUTComboBox::RemoveAllItems

; 569  : 
; 570  :     CD3DEnumDeviceInfo* pDeviceInfo = GetCurrentDeviceInfo();

	mov	ecx, DWORD PTR _this$[ebp]
	call	?GetCurrentDeviceInfo@CD3DSettingsDlg@@IAEPAVCD3DEnumDeviceInfo@@XZ ; CD3DSettingsDlg::GetCurrentDeviceInfo
	mov	DWORD PTR _pDeviceInfo$[ebp], eax

; 571  :     if( pDeviceInfo == NULL )

	cmp	DWORD PTR _pDeviceInfo$[ebp], 0
	jne	SHORT $LN11@OnWindowed

; 572  :         return E_FAIL;

	mov	eax, -2147467259			; 80004005H
	jmp	$LN19@OnWindowed
$LN11@OnWindowed:

; 573  : 
; 574  :     if( bWindowed )

	movzx	eax, BYTE PTR _bWindowed$[ebp]
	test	eax, eax
	je	SHORT $LN10@OnWindowed

; 575  :     {
; 576  :         AddAdapterFormat( adapterFormat );

	mov	eax, DWORD PTR _adapterFormat$[ebp]
	push	eax
	mov	ecx, DWORD PTR _this$[ebp]
	call	?AddAdapterFormat@CD3DSettingsDlg@@IAEXW4_D3DFORMAT@@@Z ; CD3DSettingsDlg::AddAdapterFormat

; 577  :     }
; 578  :     else

	jmp	SHORT $LN9@OnWindowed
$LN10@OnWindowed:

; 579  :     {
; 580  :         for( int iSettingsCombo=0; iSettingsCombo < pDeviceInfo->deviceSettingsComboList.GetSize(); iSettingsCombo++ )

	mov	DWORD PTR _iSettingsCombo$4[ebp], 0
	jmp	SHORT $LN8@OnWindowed
$LN7@OnWindowed:
	mov	eax, DWORD PTR _iSettingsCombo$4[ebp]
	add	eax, 1
	mov	DWORD PTR _iSettingsCombo$4[ebp], eax
$LN8@OnWindowed:
	mov	ecx, DWORD PTR _pDeviceInfo$[ebp]
	add	ecx, 312				; 00000138H
	call	?GetSize@?$CGrowableArray@PAUCD3DEnumDeviceSettingsCombo@@@@QBEHXZ ; CGrowableArray<CD3DEnumDeviceSettingsCombo *>::GetSize
	cmp	DWORD PTR _iSettingsCombo$4[ebp], eax
	jge	SHORT $LN9@OnWindowed

; 581  :         {
; 582  :             CD3DEnumDeviceSettingsCombo* pSettingsCombo = pDeviceInfo->deviceSettingsComboList.GetAt(iSettingsCombo);

	mov	eax, DWORD PTR _iSettingsCombo$4[ebp]
	push	eax
	mov	ecx, DWORD PTR _pDeviceInfo$[ebp]
	add	ecx, 312				; 00000138H
	call	?GetAt@?$CGrowableArray@PAUCD3DEnumDeviceSettingsCombo@@@@QAEAAPAUCD3DEnumDeviceSettingsCombo@@H@Z ; CGrowableArray<CD3DEnumDeviceSettingsCombo *>::GetAt
	mov	ecx, DWORD PTR [eax]
	mov	DWORD PTR _pSettingsCombo$3[ebp], ecx

; 583  :             AddAdapterFormat( pSettingsCombo->AdapterFormat );

	mov	eax, DWORD PTR _pSettingsCombo$3[ebp]
	mov	ecx, DWORD PTR [eax+8]
	push	ecx
	mov	ecx, DWORD PTR _this$[ebp]
	call	?AddAdapterFormat@CD3DSettingsDlg@@IAEXW4_D3DFORMAT@@@Z ; CD3DSettingsDlg::AddAdapterFormat

; 584  :         }    

	jmp	SHORT $LN7@OnWindowed
$LN9@OnWindowed:

; 585  :     }
; 586  : 
; 587  :     pAdapterFormatComboBox->SetSelectedByData( ULongToPtr(adapterFormat) );

	mov	eax, DWORD PTR _adapterFormat$[ebp]
	push	eax
	mov	ecx, DWORD PTR _pAdapterFormatComboBox$[ebp]
	call	?SetSelectedByData@CDXUTComboBox@@QAEJPAX@Z ; CDXUTComboBox::SetSelectedByData

; 588  : 
; 589  :     hr = OnAdapterFormatChanged();

	mov	ecx, DWORD PTR _this$[ebp]
	call	?OnAdapterFormatChanged@CD3DSettingsDlg@@IAEJXZ ; CD3DSettingsDlg::OnAdapterFormatChanged
	mov	DWORD PTR _hr$[ebp], eax

; 590  :     if( FAILED(hr) )

	cmp	DWORD PTR _hr$[ebp], 0
	jge	SHORT $LN5@OnWindowed

; 591  :         return hr;

	mov	eax, DWORD PTR _hr$[ebp]
	jmp	$LN19@OnWindowed
$LN5@OnWindowed:

; 592  : 
; 593  :     // DXUTSETTINGSDLG_RESOLUTION
; 594  :     CDXUTComboBox* pResolutionComboBox = m_Dialog.GetComboBox( DXUTSETTINGSDLG_RESOLUTION );

	push	9
	mov	ecx, DWORD PTR _this$[ebp]
	add	ecx, 4
	call	?GetComboBox@CDXUTDialog@@QAEPAVCDXUTComboBox@@H@Z ; CDXUTDialog::GetComboBox
	mov	DWORD PTR _pResolutionComboBox$[ebp], eax

; 595  :     
; 596  :     if( bWindowed )

	movzx	eax, BYTE PTR _bWindowed$[ebp]
	test	eax, eax
	je	SHORT $LN4@OnWindowed

; 597  :     {
; 598  :         pResolutionComboBox->RemoveAllItems();

	mov	ecx, DWORD PTR _pResolutionComboBox$[ebp]
	call	?RemoveAllItems@CDXUTComboBox@@QAEXXZ	; CDXUTComboBox::RemoveAllItems

; 599  :         AddResolution( dwWidth, dwHeight );

	mov	eax, DWORD PTR _dwHeight$[ebp]
	push	eax
	mov	ecx, DWORD PTR _dwWidth$[ebp]
	push	ecx
	mov	ecx, DWORD PTR _this$[ebp]
	call	?AddResolution@CD3DSettingsDlg@@IAEXKK@Z ; CD3DSettingsDlg::AddResolution
$LN4@OnWindowed:

; 600  :     }
; 601  : 
; 602  :     pResolutionComboBox->SetSelectedByData( ULongToPtr( MAKELONG(dwWidth, dwHeight) ) );

	mov	eax, DWORD PTR _dwWidth$[ebp]
	and	eax, 65535				; 0000ffffH
	movzx	ecx, ax
	mov	edx, DWORD PTR _dwHeight$[ebp]
	and	edx, 65535				; 0000ffffH
	movzx	eax, dx
	shl	eax, 16					; 00000010H
	or	ecx, eax
	push	ecx
	mov	ecx, DWORD PTR _pResolutionComboBox$[ebp]
	call	?SetSelectedByData@CDXUTComboBox@@QAEJPAX@Z ; CDXUTComboBox::SetSelectedByData

; 603  :     
; 604  :     hr = OnResolutionChanged();

	mov	ecx, DWORD PTR _this$[ebp]
	call	?OnResolutionChanged@CD3DSettingsDlg@@IAEJXZ ; CD3DSettingsDlg::OnResolutionChanged
	mov	DWORD PTR _hr$[ebp], eax

; 605  :     if( FAILED(hr) )

	cmp	DWORD PTR _hr$[ebp], 0
	jge	SHORT $LN3@OnWindowed

; 606  :         return hr;

	mov	eax, DWORD PTR _hr$[ebp]
	jmp	SHORT $LN19@OnWindowed
$LN3@OnWindowed:

; 607  : 
; 608  :     // DXUTSETTINGSDLG_REFRESH_RATE
; 609  :     CDXUTComboBox* pRefreshRateComboBox = m_Dialog.GetComboBox( DXUTSETTINGSDLG_REFRESH_RATE );

	push	11					; 0000000bH
	mov	ecx, DWORD PTR _this$[ebp]
	add	ecx, 4
	call	?GetComboBox@CDXUTDialog@@QAEPAVCDXUTComboBox@@H@Z ; CDXUTDialog::GetComboBox
	mov	DWORD PTR _pRefreshRateComboBox$[ebp], eax

; 610  :     
; 611  :     if( bWindowed )

	movzx	eax, BYTE PTR _bWindowed$[ebp]
	test	eax, eax
	je	SHORT $LN2@OnWindowed

; 612  :     {
; 613  :         pRefreshRateComboBox->RemoveAllItems();

	mov	ecx, DWORD PTR _pRefreshRateComboBox$[ebp]
	call	?RemoveAllItems@CDXUTComboBox@@QAEXXZ	; CDXUTComboBox::RemoveAllItems

; 614  :         AddRefreshRate( dwRefreshRate );

	mov	eax, DWORD PTR _dwRefreshRate$[ebp]
	push	eax
	mov	ecx, DWORD PTR _this$[ebp]
	call	?AddRefreshRate@CD3DSettingsDlg@@IAEXK@Z ; CD3DSettingsDlg::AddRefreshRate
$LN2@OnWindowed:

; 615  :     }
; 616  :     
; 617  :     pRefreshRateComboBox->SetSelectedByData( ULongToPtr(dwRefreshRate) ); 

	mov	eax, DWORD PTR _dwRefreshRate$[ebp]
	push	eax
	mov	ecx, DWORD PTR _pRefreshRateComboBox$[ebp]
	call	?SetSelectedByData@CDXUTComboBox@@QAEJPAX@Z ; CDXUTComboBox::SetSelectedByData

; 618  : 
; 619  :     hr = OnRefreshRateChanged();

	mov	ecx, DWORD PTR _this$[ebp]
	call	?OnRefreshRateChanged@CD3DSettingsDlg@@IAEJXZ ; CD3DSettingsDlg::OnRefreshRateChanged
	mov	DWORD PTR _hr$[ebp], eax

; 620  :     if( FAILED(hr) )

	cmp	DWORD PTR _hr$[ebp], 0
	jge	SHORT $LN1@OnWindowed

; 621  :         return hr;

	mov	eax, DWORD PTR _hr$[ebp]
	jmp	SHORT $LN19@OnWindowed
$LN1@OnWindowed:

; 622  : 
; 623  :     return S_OK;

	xor	eax, eax
$LN19@OnWindowed:

; 624  : }

	push	edx
	mov	ecx, ebp
	push	eax
	lea	edx, DWORD PTR $LN38@OnWindowed
	call	@_RTC_CheckStackVars@8
	pop	eax
	pop	edx
	pop	edi
	pop	esi
	pop	ebx
	mov	ecx, DWORD PTR __$ArrayPad$[ebp]
	xor	ecx, ebp
	call	@__security_check_cookie@4
	add	esp, 476				; 000001dcH
	cmp	ebp, esp
	call	__RTC_CheckEsp
	mov	esp, ebp
	pop	ebp
	ret	0
	npad	1
$LN38@OnWindowed:
	DD	2
	DD	$LN37@OnWindowed
$LN37@OnWindowed:
	DD	-84					; ffffffacH
	DD	16					; 00000010H
	DD	$LN35@OnWindowed
	DD	-108					; ffffff94H
	DD	16					; 00000010H
	DD	$LN36@OnWindowed
$LN36@OnWindowed:
	DB	114					; 00000072H
	DB	99					; 00000063H
	DB	0
$LN35@OnWindowed:
	DB	109					; 0000006dH
	DB	111					; 0000006fH
	DB	100					; 00000064H
	DB	101					; 00000065H
	DB	0
?OnWindowedFullScreenChanged@CD3DSettingsDlg@@IAEJXZ ENDP ; CD3DSettingsDlg::OnWindowedFullScreenChanged
_TEXT	ENDS
; Function compile flags: /Odtp /RTCsu /ZI
; File z:\sampsrc\02xu1\saco\d3d9\common\dxutsettingsdlg.cpp
;	COMDAT ?OnDeviceTypeChanged@CD3DSettingsDlg@@IAEJXZ
_TEXT	SEGMENT
tv92 = -277						; size = 1
_pDeviceSettingsCombo$1 = -80				; size = 4
_idc$2 = -68						; size = 4
_pDeviceInfo$ = -56					; size = 4
_bHasFullScreenDeviceCombo$ = -41			; size = 1
_bHasWindowedDeviceCombo$ = -29				; size = 1
_hr$ = -20						; size = 4
_this$ = -8						; size = 4
?OnDeviceTypeChanged@CD3DSettingsDlg@@IAEJXZ PROC	; CD3DSettingsDlg::OnDeviceTypeChanged, COMDAT
; _this$ = ecx

; 469  : {

	push	ebp
	mov	ebp, esp
	sub	esp, 280				; 00000118H
	push	ebx
	push	esi
	push	edi
	push	ecx
	lea	edi, DWORD PTR [ebp-280]
	mov	ecx, 70					; 00000046H
	mov	eax, -858993460				; ccccccccH
	rep stosd
	pop	ecx
	mov	DWORD PTR _this$[ebp], ecx

; 470  :     HRESULT hr = S_OK;

	mov	DWORD PTR _hr$[ebp], 0

; 471  :     
; 472  :     g_DeviceSettings.DeviceType = GetSelectedDeviceType();

	mov	ecx, DWORD PTR _this$[ebp]
	call	?GetSelectedDeviceType@CD3DSettingsDlg@@IAE?AW4_D3DDEVTYPE@@XZ ; CD3DSettingsDlg::GetSelectedDeviceType
	mov	DWORD PTR ?g_DeviceSettings@@3UDXUTDeviceSettings@@A+4, eax

; 473  :    
; 474  :     // Update windowed/full screen radio buttons
; 475  :     bool bHasWindowedDeviceCombo = false;

	mov	BYTE PTR _bHasWindowedDeviceCombo$[ebp], 0

; 476  :     bool bHasFullScreenDeviceCombo = false;

	mov	BYTE PTR _bHasFullScreenDeviceCombo$[ebp], 0

; 477  : 
; 478  :     CD3DEnumDeviceInfo* pDeviceInfo = GetCurrentDeviceInfo();

	mov	ecx, DWORD PTR _this$[ebp]
	call	?GetCurrentDeviceInfo@CD3DSettingsDlg@@IAEPAVCD3DEnumDeviceInfo@@XZ ; CD3DSettingsDlg::GetCurrentDeviceInfo
	mov	DWORD PTR _pDeviceInfo$[ebp], eax

; 479  :     if( pDeviceInfo == NULL )

	cmp	DWORD PTR _pDeviceInfo$[ebp], 0
	jne	SHORT $LN7@OnDeviceTy

; 480  :         return E_FAIL;

	mov	eax, -2147467259			; 80004005H
	jmp	$LN8@OnDeviceTy
$LN7@OnDeviceTy:

; 481  :             
; 482  :     for( int idc = 0; idc < pDeviceInfo->deviceSettingsComboList.GetSize(); idc++ )

	mov	DWORD PTR _idc$2[ebp], 0
	jmp	SHORT $LN6@OnDeviceTy
$LN5@OnDeviceTy:
	mov	eax, DWORD PTR _idc$2[ebp]
	add	eax, 1
	mov	DWORD PTR _idc$2[ebp], eax
$LN6@OnDeviceTy:
	mov	ecx, DWORD PTR _pDeviceInfo$[ebp]
	add	ecx, 312				; 00000138H
	call	?GetSize@?$CGrowableArray@PAUCD3DEnumDeviceSettingsCombo@@@@QBEHXZ ; CGrowableArray<CD3DEnumDeviceSettingsCombo *>::GetSize
	cmp	DWORD PTR _idc$2[ebp], eax
	jge	SHORT $LN4@OnDeviceTy

; 483  :     {
; 484  :         CD3DEnumDeviceSettingsCombo* pDeviceSettingsCombo = pDeviceInfo->deviceSettingsComboList.GetAt( idc );

	mov	eax, DWORD PTR _idc$2[ebp]
	push	eax
	mov	ecx, DWORD PTR _pDeviceInfo$[ebp]
	add	ecx, 312				; 00000138H
	call	?GetAt@?$CGrowableArray@PAUCD3DEnumDeviceSettingsCombo@@@@QAEAAPAUCD3DEnumDeviceSettingsCombo@@H@Z ; CGrowableArray<CD3DEnumDeviceSettingsCombo *>::GetAt
	mov	ecx, DWORD PTR [eax]
	mov	DWORD PTR _pDeviceSettingsCombo$1[ebp], ecx

; 485  : 
; 486  :         if( pDeviceSettingsCombo->Windowed )

	mov	eax, DWORD PTR _pDeviceSettingsCombo$1[ebp]
	cmp	DWORD PTR [eax+16], 0
	je	SHORT $LN3@OnDeviceTy

; 487  :             bHasWindowedDeviceCombo = true;

	mov	BYTE PTR _bHasWindowedDeviceCombo$[ebp], 1

; 488  :         else

	jmp	SHORT $LN2@OnDeviceTy
$LN3@OnDeviceTy:

; 489  :             bHasFullScreenDeviceCombo = true;

	mov	BYTE PTR _bHasFullScreenDeviceCombo$[ebp], 1
$LN2@OnDeviceTy:

; 490  :     }

	jmp	SHORT $LN5@OnDeviceTy
$LN4@OnDeviceTy:

; 491  : 
; 492  :     // DXUTSETTINGSDLG_WINDOWED, DXUTSETTINGSDLG_FULLSCREEN
; 493  :     m_Dialog.SetControlEnabled( DXUTSETTINGSDLG_WINDOWED, bHasWindowedDeviceCombo );

	movzx	eax, BYTE PTR _bHasWindowedDeviceCombo$[ebp]
	push	eax
	push	5
	mov	ecx, DWORD PTR _this$[ebp]
	add	ecx, 4
	call	?SetControlEnabled@CDXUTDialog@@QAEXH_N@Z ; CDXUTDialog::SetControlEnabled

; 494  :     m_Dialog.SetControlEnabled( DXUTSETTINGSDLG_FULLSCREEN, bHasFullScreenDeviceCombo );

	movzx	eax, BYTE PTR _bHasFullScreenDeviceCombo$[ebp]
	push	eax
	push	6
	mov	ecx, DWORD PTR _this$[ebp]
	add	ecx, 4
	call	?SetControlEnabled@CDXUTDialog@@QAEXH_N@Z ; CDXUTDialog::SetControlEnabled

; 495  : 
; 496  :     SetWindowed( g_DeviceSettings.pp.Windowed && bHasWindowedDeviceCombo );

	cmp	DWORD PTR ?g_DeviceSettings@@3UDXUTDeviceSettings@@A+48, 0
	je	SHORT $LN10@OnDeviceTy
	movzx	eax, BYTE PTR _bHasWindowedDeviceCombo$[ebp]
	test	eax, eax
	je	SHORT $LN10@OnDeviceTy
	mov	BYTE PTR tv92[ebp], 1
	jmp	SHORT $LN11@OnDeviceTy
$LN10@OnDeviceTy:
	mov	BYTE PTR tv92[ebp], 0
$LN11@OnDeviceTy:
	movzx	ecx, BYTE PTR tv92[ebp]
	push	ecx
	mov	ecx, DWORD PTR _this$[ebp]
	call	?SetWindowed@CD3DSettingsDlg@@IAEX_N@Z	; CD3DSettingsDlg::SetWindowed

; 497  : 
; 498  :     hr = OnWindowedFullScreenChanged();

	mov	ecx, DWORD PTR _this$[ebp]
	call	?OnWindowedFullScreenChanged@CD3DSettingsDlg@@IAEJXZ ; CD3DSettingsDlg::OnWindowedFullScreenChanged
	mov	DWORD PTR _hr$[ebp], eax

; 499  :     if( FAILED(hr) )

	cmp	DWORD PTR _hr$[ebp], 0
	jge	SHORT $LN1@OnDeviceTy

; 500  :         return hr;

	mov	eax, DWORD PTR _hr$[ebp]
	jmp	SHORT $LN8@OnDeviceTy
$LN1@OnDeviceTy:

; 501  : 
; 502  :     return S_OK;

	xor	eax, eax
$LN8@OnDeviceTy:

; 503  : }

	pop	edi
	pop	esi
	pop	ebx
	add	esp, 280				; 00000118H
	cmp	ebp, esp
	call	__RTC_CheckEsp
	mov	esp, ebp
	pop	ebp
	ret	0
?OnDeviceTypeChanged@CD3DSettingsDlg@@IAEJXZ ENDP	; CD3DSettingsDlg::OnDeviceTypeChanged
_TEXT	ENDS
; Function compile flags: /Odtp /RTCsu /ZI
; File z:\sampsrc\02xu1\saco\d3d9\common\dxutsettingsdlg.cpp
;	COMDAT ?OnAdapterChanged@CD3DSettingsDlg@@IAEJXZ
_TEXT	SEGMENT
_pDeviceInfo$1 = -68					; size = 4
_iDeviceInfo$2 = -56					; size = 4
_pAdapterInfo$ = -44					; size = 4
_pDeviceTypeComboBox$ = -32				; size = 4
_hr$ = -20						; size = 4
_this$ = -8						; size = 4
?OnAdapterChanged@CD3DSettingsDlg@@IAEJXZ PROC		; CD3DSettingsDlg::OnAdapterChanged, COMDAT
; _this$ = ecx

; 436  : {

	push	ebp
	mov	ebp, esp
	sub	esp, 264				; 00000108H
	push	ebx
	push	esi
	push	edi
	push	ecx
	lea	edi, DWORD PTR [ebp-264]
	mov	ecx, 66					; 00000042H
	mov	eax, -858993460				; ccccccccH
	rep stosd
	pop	ecx
	mov	DWORD PTR _this$[ebp], ecx

; 437  :     HRESULT hr = S_OK;

	mov	DWORD PTR _hr$[ebp], 0

; 438  : 
; 439  :     // Store the adapter index
; 440  :     g_DeviceSettings.AdapterOrdinal = GetSelectedAdapter();

	mov	ecx, DWORD PTR _this$[ebp]
	call	?GetSelectedAdapter@CD3DSettingsDlg@@IAEIXZ ; CD3DSettingsDlg::GetSelectedAdapter
	mov	DWORD PTR ?g_DeviceSettings@@3UDXUTDeviceSettings@@A, eax

; 441  :     
; 442  :     // DXUTSETTINGSDLG_DEVICE_TYPE
; 443  :     CDXUTComboBox* pDeviceTypeComboBox = m_Dialog.GetComboBox( DXUTSETTINGSDLG_DEVICE_TYPE );

	push	4
	mov	ecx, DWORD PTR _this$[ebp]
	add	ecx, 4
	call	?GetComboBox@CDXUTDialog@@QAEPAVCDXUTComboBox@@H@Z ; CDXUTDialog::GetComboBox
	mov	DWORD PTR _pDeviceTypeComboBox$[ebp], eax

; 444  :     pDeviceTypeComboBox->RemoveAllItems();

	mov	ecx, DWORD PTR _pDeviceTypeComboBox$[ebp]
	call	?RemoveAllItems@CDXUTComboBox@@QAEXXZ	; CDXUTComboBox::RemoveAllItems

; 445  :  
; 446  :     CD3DEnumAdapterInfo* pAdapterInfo = GetCurrentAdapterInfo();

	mov	ecx, DWORD PTR _this$[ebp]
	call	?GetCurrentAdapterInfo@CD3DSettingsDlg@@IAEPAVCD3DEnumAdapterInfo@@XZ ; CD3DSettingsDlg::GetCurrentAdapterInfo
	mov	DWORD PTR _pAdapterInfo$[ebp], eax

; 447  :     if( pAdapterInfo == NULL )

	cmp	DWORD PTR _pAdapterInfo$[ebp], 0
	jne	SHORT $LN5@OnAdapterC

; 448  :         return E_FAIL;

	mov	eax, -2147467259			; 80004005H
	jmp	SHORT $LN6@OnAdapterC
$LN5@OnAdapterC:

; 449  : 
; 450  :     for( int iDeviceInfo=0; iDeviceInfo < pAdapterInfo->deviceInfoList.GetSize(); iDeviceInfo++ )

	mov	DWORD PTR _iDeviceInfo$2[ebp], 0
	jmp	SHORT $LN4@OnAdapterC
$LN3@OnAdapterC:
	mov	eax, DWORD PTR _iDeviceInfo$2[ebp]
	add	eax, 1
	mov	DWORD PTR _iDeviceInfo$2[ebp], eax
$LN4@OnAdapterC:
	mov	ecx, DWORD PTR _pAdapterInfo$[ebp]
	add	ecx, 1372				; 0000055cH
	call	?GetSize@?$CGrowableArray@PAVCD3DEnumDeviceInfo@@@@QBEHXZ ; CGrowableArray<CD3DEnumDeviceInfo *>::GetSize
	cmp	DWORD PTR _iDeviceInfo$2[ebp], eax
	jge	SHORT $LN2@OnAdapterC

; 451  :     {
; 452  :         CD3DEnumDeviceInfo* pDeviceInfo = pAdapterInfo->deviceInfoList.GetAt(iDeviceInfo);

	mov	eax, DWORD PTR _iDeviceInfo$2[ebp]
	push	eax
	mov	ecx, DWORD PTR _pAdapterInfo$[ebp]
	add	ecx, 1372				; 0000055cH
	call	?GetAt@?$CGrowableArray@PAVCD3DEnumDeviceInfo@@@@QAEAAPAVCD3DEnumDeviceInfo@@H@Z ; CGrowableArray<CD3DEnumDeviceInfo *>::GetAt
	mov	ecx, DWORD PTR [eax]
	mov	DWORD PTR _pDeviceInfo$1[ebp], ecx

; 453  :         AddDeviceType( pDeviceInfo->DeviceType );

	mov	eax, DWORD PTR _pDeviceInfo$1[ebp]
	mov	ecx, DWORD PTR [eax+4]
	push	ecx
	mov	ecx, DWORD PTR _this$[ebp]
	call	?AddDeviceType@CD3DSettingsDlg@@IAEXW4_D3DDEVTYPE@@@Z ; CD3DSettingsDlg::AddDeviceType

; 454  :     }

	jmp	SHORT $LN3@OnAdapterC
$LN2@OnAdapterC:

; 455  : 
; 456  :     pDeviceTypeComboBox->SetSelectedByData( ULongToPtr(g_DeviceSettings.DeviceType) );

	mov	eax, DWORD PTR ?g_DeviceSettings@@3UDXUTDeviceSettings@@A+4
	push	eax
	mov	ecx, DWORD PTR _pDeviceTypeComboBox$[ebp]
	call	?SetSelectedByData@CDXUTComboBox@@QAEJPAX@Z ; CDXUTComboBox::SetSelectedByData

; 457  : 
; 458  :     hr = OnDeviceTypeChanged();

	mov	ecx, DWORD PTR _this$[ebp]
	call	?OnDeviceTypeChanged@CD3DSettingsDlg@@IAEJXZ ; CD3DSettingsDlg::OnDeviceTypeChanged
	mov	DWORD PTR _hr$[ebp], eax

; 459  :     if( FAILED(hr) )

	cmp	DWORD PTR _hr$[ebp], 0
	jge	SHORT $LN1@OnAdapterC

; 460  :         return hr;

	mov	eax, DWORD PTR _hr$[ebp]
	jmp	SHORT $LN6@OnAdapterC
$LN1@OnAdapterC:

; 461  : 
; 462  :     return S_OK; 

	xor	eax, eax
$LN6@OnAdapterC:

; 463  : }

	pop	edi
	pop	esi
	pop	ebx
	add	esp, 264				; 00000108H
	cmp	ebp, esp
	call	__RTC_CheckEsp
	mov	esp, ebp
	pop	ebp
	ret	0
?OnAdapterChanged@CD3DSettingsDlg@@IAEJXZ ENDP		; CD3DSettingsDlg::OnAdapterChanged
_TEXT	ENDS
; Function compile flags: /Odtp /RTCsu /ZI
; File z:\sampsrc\02xu1\saco\d3d9\common\dxutsettingsdlg.cpp
;	COMDAT ?IsDeviceClip@CD3DSettingsDlg@@IAE_NXZ
_TEXT	SEGMENT
_pCheckBox$ = -20					; size = 4
_this$ = -8						; size = 4
?IsDeviceClip@CD3DSettingsDlg@@IAE_NXZ PROC		; CD3DSettingsDlg::IsDeviceClip, COMDAT
; _this$ = ecx

; 1262 : {

	push	ebp
	mov	ebp, esp
	sub	esp, 216				; 000000d8H
	push	ebx
	push	esi
	push	edi
	push	ecx
	lea	edi, DWORD PTR [ebp-216]
	mov	ecx, 54					; 00000036H
	mov	eax, -858993460				; ccccccccH
	rep stosd
	pop	ecx
	mov	DWORD PTR _this$[ebp], ecx

; 1263 :     CDXUTCheckBox* pCheckBox = m_Dialog.GetCheckBox( DXUTSETTINGSDLG_DEVICECLIP );

	push	19					; 00000013H
	mov	ecx, DWORD PTR _this$[ebp]
	add	ecx, 4
	call	?GetCheckBox@CDXUTDialog@@QAEPAVCDXUTCheckBox@@H@Z ; CDXUTDialog::GetCheckBox
	mov	DWORD PTR _pCheckBox$[ebp], eax

; 1264 :     return pCheckBox->GetChecked();

	mov	ecx, DWORD PTR _pCheckBox$[ebp]
	call	?GetChecked@CDXUTCheckBox@@QAE_NXZ	; CDXUTCheckBox::GetChecked

; 1265 : }

	pop	edi
	pop	esi
	pop	ebx
	add	esp, 216				; 000000d8H
	cmp	ebp, esp
	call	__RTC_CheckEsp
	mov	esp, ebp
	pop	ebp
	ret	0
?IsDeviceClip@CD3DSettingsDlg@@IAE_NXZ ENDP		; CD3DSettingsDlg::IsDeviceClip
_TEXT	ENDS
; Function compile flags: /Odtp /RTCsu /ZI
; File z:\sampsrc\02xu1\saco\d3d9\common\dxutsettingsdlg.cpp
;	COMDAT ?SetDeviceClip@CD3DSettingsDlg@@IAEX_N@Z
_TEXT	SEGMENT
_pCheckBox$ = -20					; size = 4
_this$ = -8						; size = 4
_bDeviceClip$ = 8					; size = 1
?SetDeviceClip@CD3DSettingsDlg@@IAEX_N@Z PROC		; CD3DSettingsDlg::SetDeviceClip, COMDAT
; _this$ = ecx

; 1254 : {

	push	ebp
	mov	ebp, esp
	sub	esp, 216				; 000000d8H
	push	ebx
	push	esi
	push	edi
	push	ecx
	lea	edi, DWORD PTR [ebp-216]
	mov	ecx, 54					; 00000036H
	mov	eax, -858993460				; ccccccccH
	rep stosd
	pop	ecx
	mov	DWORD PTR _this$[ebp], ecx

; 1255 :     CDXUTCheckBox* pCheckBox = m_Dialog.GetCheckBox( DXUTSETTINGSDLG_DEVICECLIP );

	push	19					; 00000013H
	mov	ecx, DWORD PTR _this$[ebp]
	add	ecx, 4
	call	?GetCheckBox@CDXUTDialog@@QAEPAVCDXUTCheckBox@@H@Z ; CDXUTDialog::GetCheckBox
	mov	DWORD PTR _pCheckBox$[ebp], eax

; 1256 :     pCheckBox->SetChecked( bDeviceClip );

	movzx	eax, BYTE PTR _bDeviceClip$[ebp]
	push	eax
	mov	ecx, DWORD PTR _pCheckBox$[ebp]
	call	?SetChecked@CDXUTCheckBox@@QAEX_N@Z	; CDXUTCheckBox::SetChecked

; 1257 : }

	pop	edi
	pop	esi
	pop	ebx
	add	esp, 216				; 000000d8H
	cmp	ebp, esp
	call	__RTC_CheckEsp
	mov	esp, ebp
	pop	ebp
	ret	4
?SetDeviceClip@CD3DSettingsDlg@@IAEX_N@Z ENDP		; CD3DSettingsDlg::SetDeviceClip
_TEXT	ENDS
; Function compile flags: /Odtp /RTCsu /ZI
; File z:\sampsrc\02xu1\saco\d3d9\common\dxutsettingsdlg.cpp
;	COMDAT ?GetSelectedPresentInterval@CD3DSettingsDlg@@IAEKXZ
_TEXT	SEGMENT
_pComboBox$ = -20					; size = 4
_this$ = -8						; size = 4
?GetSelectedPresentInterval@CD3DSettingsDlg@@IAEKXZ PROC ; CD3DSettingsDlg::GetSelectedPresentInterval, COMDAT
; _this$ = ecx

; 1245 : {

	push	ebp
	mov	ebp, esp
	sub	esp, 216				; 000000d8H
	push	ebx
	push	esi
	push	edi
	push	ecx
	lea	edi, DWORD PTR [ebp-216]
	mov	ecx, 54					; 00000036H
	mov	eax, -858993460				; ccccccccH
	rep stosd
	pop	ecx
	mov	DWORD PTR _this$[ebp], ecx

; 1246 :     CDXUTComboBox* pComboBox = m_Dialog.GetComboBox( DXUTSETTINGSDLG_PRESENT_INTERVAL );

	push	18					; 00000012H
	mov	ecx, DWORD PTR _this$[ebp]
	add	ecx, 4
	call	?GetComboBox@CDXUTDialog@@QAEPAVCDXUTComboBox@@H@Z ; CDXUTDialog::GetComboBox
	mov	DWORD PTR _pComboBox$[ebp], eax

; 1247 :     
; 1248 :     return PtrToUlong( pComboBox->GetSelectedData() ); 

	mov	ecx, DWORD PTR _pComboBox$[ebp]
	call	?GetSelectedData@CDXUTComboBox@@QAEPAXXZ ; CDXUTComboBox::GetSelectedData

; 1249 : }

	pop	edi
	pop	esi
	pop	ebx
	add	esp, 216				; 000000d8H
	cmp	ebp, esp
	call	__RTC_CheckEsp
	mov	esp, ebp
	pop	ebp
	ret	0
?GetSelectedPresentInterval@CD3DSettingsDlg@@IAEKXZ ENDP ; CD3DSettingsDlg::GetSelectedPresentInterval
_TEXT	ENDS
; Function compile flags: /Odtp /RTCsu /ZI
; File z:\sampsrc\02xu1\saco\d3d9\common\dxutsettingsdlg.cpp
;	COMDAT ?AddPresentInterval@CD3DSettingsDlg@@IAEXK@Z
_TEXT	SEGMENT
_pComboBox$ = -20					; size = 4
_this$ = -8						; size = 4
_dwInterval$ = 8					; size = 4
?AddPresentInterval@CD3DSettingsDlg@@IAEXK@Z PROC	; CD3DSettingsDlg::AddPresentInterval, COMDAT
; _this$ = ecx

; 1235 : {

	push	ebp
	mov	ebp, esp
	sub	esp, 216				; 000000d8H
	push	ebx
	push	esi
	push	edi
	push	ecx
	lea	edi, DWORD PTR [ebp-216]
	mov	ecx, 54					; 00000036H
	mov	eax, -858993460				; ccccccccH
	rep stosd
	pop	ecx
	mov	DWORD PTR _this$[ebp], ecx

; 1236 :     CDXUTComboBox* pComboBox = m_Dialog.GetComboBox( DXUTSETTINGSDLG_PRESENT_INTERVAL );

	push	18					; 00000012H
	mov	ecx, DWORD PTR _this$[ebp]
	add	ecx, 4
	call	?GetComboBox@CDXUTDialog@@QAEPAVCDXUTComboBox@@H@Z ; CDXUTDialog::GetComboBox
	mov	DWORD PTR _pComboBox$[ebp], eax

; 1237 :     
; 1238 :     if( !pComboBox->ContainsItem( DXUTPresentIntervalToString(dwInterval) ) )

	push	0
	mov	eax, DWORD PTR _dwInterval$[ebp]
	push	eax
	call	?DXUTPresentIntervalToString@@YAPADI@Z	; DXUTPresentIntervalToString
	add	esp, 4
	push	eax
	mov	ecx, DWORD PTR _pComboBox$[ebp]
	call	?ContainsItem@CDXUTComboBox@@QAE_NPBDI@Z ; CDXUTComboBox::ContainsItem
	movzx	ecx, al
	test	ecx, ecx
	jne	SHORT $LN2@AddPresent

; 1239 :         pComboBox->AddItem( DXUTPresentIntervalToString(dwInterval), ULongToPtr(dwInterval) );

	mov	eax, DWORD PTR _dwInterval$[ebp]
	push	eax
	mov	ecx, DWORD PTR _dwInterval$[ebp]
	push	ecx
	call	?DXUTPresentIntervalToString@@YAPADI@Z	; DXUTPresentIntervalToString
	add	esp, 4
	push	eax
	mov	ecx, DWORD PTR _pComboBox$[ebp]
	call	?AddItem@CDXUTComboBox@@QAEJPBDPAX@Z	; CDXUTComboBox::AddItem
$LN2@AddPresent:

; 1240 : }

	pop	edi
	pop	esi
	pop	ebx
	add	esp, 216				; 000000d8H
	cmp	ebp, esp
	call	__RTC_CheckEsp
	mov	esp, ebp
	pop	ebp
	ret	4
?AddPresentInterval@CD3DSettingsDlg@@IAEXK@Z ENDP	; CD3DSettingsDlg::AddPresentInterval
_TEXT	ENDS
; Function compile flags: /Odtp /RTCsu /ZI
; File z:\sampsrc\02xu1\saco\d3d9\common\dxutsettingsdlg.cpp
;	COMDAT ?GetSelectedVertexProcessingType@CD3DSettingsDlg@@IAEKXZ
_TEXT	SEGMENT
_pComboBox$ = -20					; size = 4
_this$ = -8						; size = 4
?GetSelectedVertexProcessingType@CD3DSettingsDlg@@IAEKXZ PROC ; CD3DSettingsDlg::GetSelectedVertexProcessingType, COMDAT
; _this$ = ecx

; 1226 : {

	push	ebp
	mov	ebp, esp
	sub	esp, 216				; 000000d8H
	push	ebx
	push	esi
	push	edi
	push	ecx
	lea	edi, DWORD PTR [ebp-216]
	mov	ecx, 54					; 00000036H
	mov	eax, -858993460				; ccccccccH
	rep stosd
	pop	ecx
	mov	DWORD PTR _this$[ebp], ecx

; 1227 :     CDXUTComboBox* pComboBox = m_Dialog.GetComboBox( DXUTSETTINGSDLG_VERTEX_PROCESSING );

	push	17					; 00000011H
	mov	ecx, DWORD PTR _this$[ebp]
	add	ecx, 4
	call	?GetComboBox@CDXUTDialog@@QAEPAVCDXUTComboBox@@H@Z ; CDXUTDialog::GetComboBox
	mov	DWORD PTR _pComboBox$[ebp], eax

; 1228 :     
; 1229 :     return PtrToUlong( pComboBox->GetSelectedData() ); 

	mov	ecx, DWORD PTR _pComboBox$[ebp]
	call	?GetSelectedData@CDXUTComboBox@@QAEPAXXZ ; CDXUTComboBox::GetSelectedData

; 1230 : }

	pop	edi
	pop	esi
	pop	ebx
	add	esp, 216				; 000000d8H
	cmp	ebp, esp
	call	__RTC_CheckEsp
	mov	esp, ebp
	pop	ebp
	ret	0
?GetSelectedVertexProcessingType@CD3DSettingsDlg@@IAEKXZ ENDP ; CD3DSettingsDlg::GetSelectedVertexProcessingType
_TEXT	ENDS
; Function compile flags: /Odtp /RTCsu /ZI
; File z:\sampsrc\02xu1\saco\d3d9\common\dxutsettingsdlg.cpp
;	COMDAT ?AddVertexProcessingType@CD3DSettingsDlg@@IAEXK@Z
_TEXT	SEGMENT
_pComboBox$ = -20					; size = 4
_this$ = -8						; size = 4
_dwType$ = 8						; size = 4
?AddVertexProcessingType@CD3DSettingsDlg@@IAEXK@Z PROC	; CD3DSettingsDlg::AddVertexProcessingType, COMDAT
; _this$ = ecx

; 1216 : {

	push	ebp
	mov	ebp, esp
	sub	esp, 216				; 000000d8H
	push	ebx
	push	esi
	push	edi
	push	ecx
	lea	edi, DWORD PTR [ebp-216]
	mov	ecx, 54					; 00000036H
	mov	eax, -858993460				; ccccccccH
	rep stosd
	pop	ecx
	mov	DWORD PTR _this$[ebp], ecx

; 1217 :     CDXUTComboBox* pComboBox = m_Dialog.GetComboBox( DXUTSETTINGSDLG_VERTEX_PROCESSING );

	push	17					; 00000011H
	mov	ecx, DWORD PTR _this$[ebp]
	add	ecx, 4
	call	?GetComboBox@CDXUTDialog@@QAEPAVCDXUTComboBox@@H@Z ; CDXUTDialog::GetComboBox
	mov	DWORD PTR _pComboBox$[ebp], eax

; 1218 :     
; 1219 :     if( !pComboBox->ContainsItem( DXUTVertexProcessingTypeToString(dwType) ) )

	push	0
	mov	eax, DWORD PTR _dwType$[ebp]
	push	eax
	call	?DXUTVertexProcessingTypeToString@@YAPADK@Z ; DXUTVertexProcessingTypeToString
	add	esp, 4
	push	eax
	mov	ecx, DWORD PTR _pComboBox$[ebp]
	call	?ContainsItem@CDXUTComboBox@@QAE_NPBDI@Z ; CDXUTComboBox::ContainsItem
	movzx	ecx, al
	test	ecx, ecx
	jne	SHORT $LN2@AddVertexP

; 1220 :         pComboBox->AddItem( DXUTVertexProcessingTypeToString(dwType), ULongToPtr(dwType) );

	mov	eax, DWORD PTR _dwType$[ebp]
	push	eax
	mov	ecx, DWORD PTR _dwType$[ebp]
	push	ecx
	call	?DXUTVertexProcessingTypeToString@@YAPADK@Z ; DXUTVertexProcessingTypeToString
	add	esp, 4
	push	eax
	mov	ecx, DWORD PTR _pComboBox$[ebp]
	call	?AddItem@CDXUTComboBox@@QAEJPBDPAX@Z	; CDXUTComboBox::AddItem
$LN2@AddVertexP:

; 1221 : }

	pop	edi
	pop	esi
	pop	ebx
	add	esp, 216				; 000000d8H
	cmp	ebp, esp
	call	__RTC_CheckEsp
	mov	esp, ebp
	pop	ebp
	ret	4
?AddVertexProcessingType@CD3DSettingsDlg@@IAEXK@Z ENDP	; CD3DSettingsDlg::AddVertexProcessingType
_TEXT	ENDS
; Function compile flags: /Odtp /RTCsu /ZI
; File z:\sampsrc\02xu1\saco\d3d9\common\dxutsettingsdlg.cpp
;	COMDAT ?GetSelectedMultisampleQuality@CD3DSettingsDlg@@IAEKXZ
_TEXT	SEGMENT
_pComboBox$ = -20					; size = 4
_this$ = -8						; size = 4
?GetSelectedMultisampleQuality@CD3DSettingsDlg@@IAEKXZ PROC ; CD3DSettingsDlg::GetSelectedMultisampleQuality, COMDAT
; _this$ = ecx

; 1207 : {

	push	ebp
	mov	ebp, esp
	sub	esp, 216				; 000000d8H
	push	ebx
	push	esi
	push	edi
	push	ecx
	lea	edi, DWORD PTR [ebp-216]
	mov	ecx, 54					; 00000036H
	mov	eax, -858993460				; ccccccccH
	rep stosd
	pop	ecx
	mov	DWORD PTR _this$[ebp], ecx

; 1208 :     CDXUTComboBox* pComboBox = m_Dialog.GetComboBox( DXUTSETTINGSDLG_MULTISAMPLE_QUALITY );

	push	16					; 00000010H
	mov	ecx, DWORD PTR _this$[ebp]
	add	ecx, 4
	call	?GetComboBox@CDXUTDialog@@QAEPAVCDXUTComboBox@@H@Z ; CDXUTDialog::GetComboBox
	mov	DWORD PTR _pComboBox$[ebp], eax

; 1209 :     
; 1210 :     return PtrToUlong( pComboBox->GetSelectedData() ); 

	mov	ecx, DWORD PTR _pComboBox$[ebp]
	call	?GetSelectedData@CDXUTComboBox@@QAEPAXXZ ; CDXUTComboBox::GetSelectedData

; 1211 : }

	pop	edi
	pop	esi
	pop	ebx
	add	esp, 216				; 000000d8H
	cmp	ebp, esp
	call	__RTC_CheckEsp
	mov	esp, ebp
	pop	ebp
	ret	0
?GetSelectedMultisampleQuality@CD3DSettingsDlg@@IAEKXZ ENDP ; CD3DSettingsDlg::GetSelectedMultisampleQuality
_TEXT	ENDS
; Function compile flags: /Odtp /RTCsu /ZI
; File z:\sampsrc\02xu1\saco\d3d9\common\dxutsettingsdlg.cpp
;	COMDAT ?AddMultisampleQuality@CD3DSettingsDlg@@IAEXK@Z
_TEXT	SEGMENT
_strQuality$ = -84					; size = 50
_pComboBox$ = -24					; size = 4
_this$ = -12						; size = 4
__$ArrayPad$ = -4					; size = 4
_dwQuality$ = 8						; size = 4
?AddMultisampleQuality@CD3DSettingsDlg@@IAEXK@Z PROC	; CD3DSettingsDlg::AddMultisampleQuality, COMDAT
; _this$ = ecx

; 1194 : {

	push	ebp
	mov	ebp, esp
	sub	esp, 280				; 00000118H
	push	ebx
	push	esi
	push	edi
	push	ecx
	lea	edi, DWORD PTR [ebp-280]
	mov	ecx, 70					; 00000046H
	mov	eax, -858993460				; ccccccccH
	rep stosd
	pop	ecx
	mov	eax, DWORD PTR ___security_cookie
	xor	eax, ebp
	mov	DWORD PTR __$ArrayPad$[ebp], eax
	mov	DWORD PTR _this$[ebp], ecx

; 1195 :     CDXUTComboBox* pComboBox = m_Dialog.GetComboBox( DXUTSETTINGSDLG_MULTISAMPLE_QUALITY );

	push	16					; 00000010H
	mov	ecx, DWORD PTR _this$[ebp]
	add	ecx, 4
	call	?GetComboBox@CDXUTDialog@@QAEPAVCDXUTComboBox@@H@Z ; CDXUTDialog::GetComboBox
	mov	DWORD PTR _pComboBox$[ebp], eax

; 1196 :         
; 1197 :     TCHAR strQuality[50];
; 1198 :     StringCchPrintf( strQuality, 50, "%d", dwQuality );

	mov	eax, DWORD PTR _dwQuality$[ebp]
	push	eax
	push	OFFSET ??_C@_02DPKJAMEF@?$CFd?$AA@
	push	50					; 00000032H
	lea	ecx, DWORD PTR _strQuality$[ebp]
	push	ecx
	call	?StringCchPrintfA@@YAJPADIPBDZZ		; StringCchPrintfA
	add	esp, 16					; 00000010H

; 1199 : 
; 1200 :     if( !pComboBox->ContainsItem( strQuality ) )

	push	0
	lea	eax, DWORD PTR _strQuality$[ebp]
	push	eax
	mov	ecx, DWORD PTR _pComboBox$[ebp]
	call	?ContainsItem@CDXUTComboBox@@QAE_NPBDI@Z ; CDXUTComboBox::ContainsItem
	movzx	ecx, al
	test	ecx, ecx
	jne	SHORT $LN2@AddMultisa

; 1201 :         pComboBox->AddItem( strQuality, ULongToPtr(dwQuality) );

	mov	eax, DWORD PTR _dwQuality$[ebp]
	push	eax
	lea	ecx, DWORD PTR _strQuality$[ebp]
	push	ecx
	mov	ecx, DWORD PTR _pComboBox$[ebp]
	call	?AddItem@CDXUTComboBox@@QAEJPBDPAX@Z	; CDXUTComboBox::AddItem
$LN2@AddMultisa:

; 1202 : }

	push	edx
	mov	ecx, ebp
	push	eax
	lea	edx, DWORD PTR $LN6@AddMultisa
	call	@_RTC_CheckStackVars@8
	pop	eax
	pop	edx
	pop	edi
	pop	esi
	pop	ebx
	mov	ecx, DWORD PTR __$ArrayPad$[ebp]
	xor	ecx, ebp
	call	@__security_check_cookie@4
	add	esp, 280				; 00000118H
	cmp	ebp, esp
	call	__RTC_CheckEsp
	mov	esp, ebp
	pop	ebp
	ret	4
	npad	2
$LN6@AddMultisa:
	DD	1
	DD	$LN5@AddMultisa
$LN5@AddMultisa:
	DD	-84					; ffffffacH
	DD	50					; 00000032H
	DD	$LN4@AddMultisa
$LN4@AddMultisa:
	DB	115					; 00000073H
	DB	116					; 00000074H
	DB	114					; 00000072H
	DB	81					; 00000051H
	DB	117					; 00000075H
	DB	97					; 00000061H
	DB	108					; 0000006cH
	DB	105					; 00000069H
	DB	116					; 00000074H
	DB	121					; 00000079H
	DB	0
?AddMultisampleQuality@CD3DSettingsDlg@@IAEXK@Z ENDP	; CD3DSettingsDlg::AddMultisampleQuality
_TEXT	ENDS
; Function compile flags: /Odtp /RTCsu /ZI
; File z:\sampsrc\02xu1\saco\d3d9\common\dxutsettingsdlg.cpp
;	COMDAT ?GetSelectedMultisampleType@CD3DSettingsDlg@@IAE?AW4_D3DMULTISAMPLE_TYPE@@XZ
_TEXT	SEGMENT
_pComboBox$ = -20					; size = 4
_this$ = -8						; size = 4
?GetSelectedMultisampleType@CD3DSettingsDlg@@IAE?AW4_D3DMULTISAMPLE_TYPE@@XZ PROC ; CD3DSettingsDlg::GetSelectedMultisampleType, COMDAT
; _this$ = ecx

; 1185 : {

	push	ebp
	mov	ebp, esp
	sub	esp, 216				; 000000d8H
	push	ebx
	push	esi
	push	edi
	push	ecx
	lea	edi, DWORD PTR [ebp-216]
	mov	ecx, 54					; 00000036H
	mov	eax, -858993460				; ccccccccH
	rep stosd
	pop	ecx
	mov	DWORD PTR _this$[ebp], ecx

; 1186 :     CDXUTComboBox* pComboBox = m_Dialog.GetComboBox( DXUTSETTINGSDLG_MULTISAMPLE_TYPE );

	push	15					; 0000000fH
	mov	ecx, DWORD PTR _this$[ebp]
	add	ecx, 4
	call	?GetComboBox@CDXUTDialog@@QAEPAVCDXUTComboBox@@H@Z ; CDXUTDialog::GetComboBox
	mov	DWORD PTR _pComboBox$[ebp], eax

; 1187 :     
; 1188 :     return (D3DMULTISAMPLE_TYPE) PtrToUlong( pComboBox->GetSelectedData() ); 

	mov	ecx, DWORD PTR _pComboBox$[ebp]
	call	?GetSelectedData@CDXUTComboBox@@QAEPAXXZ ; CDXUTComboBox::GetSelectedData

; 1189 : }

	pop	edi
	pop	esi
	pop	ebx
	add	esp, 216				; 000000d8H
	cmp	ebp, esp
	call	__RTC_CheckEsp
	mov	esp, ebp
	pop	ebp
	ret	0
?GetSelectedMultisampleType@CD3DSettingsDlg@@IAE?AW4_D3DMULTISAMPLE_TYPE@@XZ ENDP ; CD3DSettingsDlg::GetSelectedMultisampleType
_TEXT	ENDS
; Function compile flags: /Odtp /RTCsu /ZI
; File z:\sampsrc\02xu1\saco\d3d9\common\dxutsettingsdlg.cpp
;	COMDAT ?AddMultisampleType@CD3DSettingsDlg@@IAEXW4_D3DMULTISAMPLE_TYPE@@@Z
_TEXT	SEGMENT
_pComboBox$ = -20					; size = 4
_this$ = -8						; size = 4
_type$ = 8						; size = 4
?AddMultisampleType@CD3DSettingsDlg@@IAEXW4_D3DMULTISAMPLE_TYPE@@@Z PROC ; CD3DSettingsDlg::AddMultisampleType, COMDAT
; _this$ = ecx

; 1175 : {

	push	ebp
	mov	ebp, esp
	sub	esp, 216				; 000000d8H
	push	ebx
	push	esi
	push	edi
	push	ecx
	lea	edi, DWORD PTR [ebp-216]
	mov	ecx, 54					; 00000036H
	mov	eax, -858993460				; ccccccccH
	rep stosd
	pop	ecx
	mov	DWORD PTR _this$[ebp], ecx

; 1176 :     CDXUTComboBox* pComboBox = m_Dialog.GetComboBox( DXUTSETTINGSDLG_MULTISAMPLE_TYPE );

	push	15					; 0000000fH
	mov	ecx, DWORD PTR _this$[ebp]
	add	ecx, 4
	call	?GetComboBox@CDXUTDialog@@QAEPAVCDXUTComboBox@@H@Z ; CDXUTDialog::GetComboBox
	mov	DWORD PTR _pComboBox$[ebp], eax

; 1177 :     
; 1178 :     if( !pComboBox->ContainsItem( DXUTMultisampleTypeToString(type) ) )

	push	0
	mov	eax, DWORD PTR _type$[ebp]
	push	eax
	call	?DXUTMultisampleTypeToString@@YAPADW4_D3DMULTISAMPLE_TYPE@@@Z ; DXUTMultisampleTypeToString
	add	esp, 4
	push	eax
	mov	ecx, DWORD PTR _pComboBox$[ebp]
	call	?ContainsItem@CDXUTComboBox@@QAE_NPBDI@Z ; CDXUTComboBox::ContainsItem
	movzx	ecx, al
	test	ecx, ecx
	jne	SHORT $LN2@AddMultisa

; 1179 :         pComboBox->AddItem( DXUTMultisampleTypeToString(type), ULongToPtr(type) );

	mov	eax, DWORD PTR _type$[ebp]
	push	eax
	mov	ecx, DWORD PTR _type$[ebp]
	push	ecx
	call	?DXUTMultisampleTypeToString@@YAPADW4_D3DMULTISAMPLE_TYPE@@@Z ; DXUTMultisampleTypeToString
	add	esp, 4
	push	eax
	mov	ecx, DWORD PTR _pComboBox$[ebp]
	call	?AddItem@CDXUTComboBox@@QAEJPBDPAX@Z	; CDXUTComboBox::AddItem
$LN2@AddMultisa:

; 1180 : }

	pop	edi
	pop	esi
	pop	ebx
	add	esp, 216				; 000000d8H
	cmp	ebp, esp
	call	__RTC_CheckEsp
	mov	esp, ebp
	pop	ebp
	ret	4
?AddMultisampleType@CD3DSettingsDlg@@IAEXW4_D3DMULTISAMPLE_TYPE@@@Z ENDP ; CD3DSettingsDlg::AddMultisampleType
_TEXT	ENDS
; Function compile flags: /Odtp /RTCsu /ZI
; File z:\sampsrc\02xu1\saco\d3d9\common\dxutsettingsdlg.cpp
;	COMDAT ?GetSelectedDepthStencilBufferFormat@CD3DSettingsDlg@@IAE?AW4_D3DFORMAT@@XZ
_TEXT	SEGMENT
_pComboBox$ = -20					; size = 4
_this$ = -8						; size = 4
?GetSelectedDepthStencilBufferFormat@CD3DSettingsDlg@@IAE?AW4_D3DFORMAT@@XZ PROC ; CD3DSettingsDlg::GetSelectedDepthStencilBufferFormat, COMDAT
; _this$ = ecx

; 1166 : {

	push	ebp
	mov	ebp, esp
	sub	esp, 216				; 000000d8H
	push	ebx
	push	esi
	push	edi
	push	ecx
	lea	edi, DWORD PTR [ebp-216]
	mov	ecx, 54					; 00000036H
	mov	eax, -858993460				; ccccccccH
	rep stosd
	pop	ecx
	mov	DWORD PTR _this$[ebp], ecx

; 1167 :     CDXUTComboBox* pComboBox = m_Dialog.GetComboBox( DXUTSETTINGSDLG_DEPTH_STENCIL );

	push	14					; 0000000eH
	mov	ecx, DWORD PTR _this$[ebp]
	add	ecx, 4
	call	?GetComboBox@CDXUTDialog@@QAEPAVCDXUTComboBox@@H@Z ; CDXUTDialog::GetComboBox
	mov	DWORD PTR _pComboBox$[ebp], eax

; 1168 :     
; 1169 :     return (D3DFORMAT) PtrToUlong( pComboBox->GetSelectedData() ); 

	mov	ecx, DWORD PTR _pComboBox$[ebp]
	call	?GetSelectedData@CDXUTComboBox@@QAEPAXXZ ; CDXUTComboBox::GetSelectedData

; 1170 : }

	pop	edi
	pop	esi
	pop	ebx
	add	esp, 216				; 000000d8H
	cmp	ebp, esp
	call	__RTC_CheckEsp
	mov	esp, ebp
	pop	ebp
	ret	0
?GetSelectedDepthStencilBufferFormat@CD3DSettingsDlg@@IAE?AW4_D3DFORMAT@@XZ ENDP ; CD3DSettingsDlg::GetSelectedDepthStencilBufferFormat
_TEXT	ENDS
; Function compile flags: /Odtp /RTCsu /ZI
; File z:\sampsrc\02xu1\saco\d3d9\common\dxutsettingsdlg.cpp
;	COMDAT ?AddDepthStencilBufferFormat@CD3DSettingsDlg@@IAEXW4_D3DFORMAT@@@Z
_TEXT	SEGMENT
_pComboBox$ = -20					; size = 4
_this$ = -8						; size = 4
_format$ = 8						; size = 4
?AddDepthStencilBufferFormat@CD3DSettingsDlg@@IAEXW4_D3DFORMAT@@@Z PROC ; CD3DSettingsDlg::AddDepthStencilBufferFormat, COMDAT
; _this$ = ecx

; 1156 : {

	push	ebp
	mov	ebp, esp
	sub	esp, 216				; 000000d8H
	push	ebx
	push	esi
	push	edi
	push	ecx
	lea	edi, DWORD PTR [ebp-216]
	mov	ecx, 54					; 00000036H
	mov	eax, -858993460				; ccccccccH
	rep stosd
	pop	ecx
	mov	DWORD PTR _this$[ebp], ecx

; 1157 :     CDXUTComboBox* pComboBox = m_Dialog.GetComboBox( DXUTSETTINGSDLG_DEPTH_STENCIL );

	push	14					; 0000000eH
	mov	ecx, DWORD PTR _this$[ebp]
	add	ecx, 4
	call	?GetComboBox@CDXUTDialog@@QAEPAVCDXUTComboBox@@H@Z ; CDXUTDialog::GetComboBox
	mov	DWORD PTR _pComboBox$[ebp], eax

; 1158 :     
; 1159 :     if( !pComboBox->ContainsItem( DXUTD3DFormatToString(format, TRUE) ) )

	push	0
	push	1
	mov	eax, DWORD PTR _format$[ebp]
	push	eax
	call	?DXUTD3DFormatToString@@YAPBDW4_D3DFORMAT@@_N@Z ; DXUTD3DFormatToString
	add	esp, 8
	push	eax
	mov	ecx, DWORD PTR _pComboBox$[ebp]
	call	?ContainsItem@CDXUTComboBox@@QAE_NPBDI@Z ; CDXUTComboBox::ContainsItem
	movzx	ecx, al
	test	ecx, ecx
	jne	SHORT $LN2@AddDepthSt

; 1160 :         pComboBox->AddItem( DXUTD3DFormatToString(format, TRUE), ULongToPtr(format) );

	mov	eax, DWORD PTR _format$[ebp]
	push	eax
	push	1
	mov	ecx, DWORD PTR _format$[ebp]
	push	ecx
	call	?DXUTD3DFormatToString@@YAPBDW4_D3DFORMAT@@_N@Z ; DXUTD3DFormatToString
	add	esp, 8
	push	eax
	mov	ecx, DWORD PTR _pComboBox$[ebp]
	call	?AddItem@CDXUTComboBox@@QAEJPBDPAX@Z	; CDXUTComboBox::AddItem
$LN2@AddDepthSt:

; 1161 : }

	pop	edi
	pop	esi
	pop	ebx
	add	esp, 216				; 000000d8H
	cmp	ebp, esp
	call	__RTC_CheckEsp
	mov	esp, ebp
	pop	ebp
	ret	4
?AddDepthStencilBufferFormat@CD3DSettingsDlg@@IAEXW4_D3DFORMAT@@@Z ENDP ; CD3DSettingsDlg::AddDepthStencilBufferFormat
_TEXT	ENDS
; Function compile flags: /Odtp /RTCsu /ZI
; File z:\sampsrc\02xu1\saco\d3d9\common\dxutsettingsdlg.cpp
;	COMDAT ?GetSelectedBackBufferFormat@CD3DSettingsDlg@@IAE?AW4_D3DFORMAT@@XZ
_TEXT	SEGMENT
_pComboBox$ = -20					; size = 4
_this$ = -8						; size = 4
?GetSelectedBackBufferFormat@CD3DSettingsDlg@@IAE?AW4_D3DFORMAT@@XZ PROC ; CD3DSettingsDlg::GetSelectedBackBufferFormat, COMDAT
; _this$ = ecx

; 1147 : {

	push	ebp
	mov	ebp, esp
	sub	esp, 216				; 000000d8H
	push	ebx
	push	esi
	push	edi
	push	ecx
	lea	edi, DWORD PTR [ebp-216]
	mov	ecx, 54					; 00000036H
	mov	eax, -858993460				; ccccccccH
	rep stosd
	pop	ecx
	mov	DWORD PTR _this$[ebp], ecx

; 1148 :     CDXUTComboBox* pComboBox = m_Dialog.GetComboBox( DXUTSETTINGSDLG_BACK_BUFFER_FORMAT );

	push	13					; 0000000dH
	mov	ecx, DWORD PTR _this$[ebp]
	add	ecx, 4
	call	?GetComboBox@CDXUTDialog@@QAEPAVCDXUTComboBox@@H@Z ; CDXUTDialog::GetComboBox
	mov	DWORD PTR _pComboBox$[ebp], eax

; 1149 :     
; 1150 :     return (D3DFORMAT) PtrToUlong( pComboBox->GetSelectedData() ); 

	mov	ecx, DWORD PTR _pComboBox$[ebp]
	call	?GetSelectedData@CDXUTComboBox@@QAEPAXXZ ; CDXUTComboBox::GetSelectedData

; 1151 : }

	pop	edi
	pop	esi
	pop	ebx
	add	esp, 216				; 000000d8H
	cmp	ebp, esp
	call	__RTC_CheckEsp
	mov	esp, ebp
	pop	ebp
	ret	0
?GetSelectedBackBufferFormat@CD3DSettingsDlg@@IAE?AW4_D3DFORMAT@@XZ ENDP ; CD3DSettingsDlg::GetSelectedBackBufferFormat
_TEXT	ENDS
; Function compile flags: /Odtp /RTCsu /ZI
; File z:\sampsrc\02xu1\saco\d3d9\common\dxutsettingsdlg.cpp
;	COMDAT ?AddBackBufferFormat@CD3DSettingsDlg@@IAEXW4_D3DFORMAT@@@Z
_TEXT	SEGMENT
_pComboBox$ = -20					; size = 4
_this$ = -8						; size = 4
_format$ = 8						; size = 4
?AddBackBufferFormat@CD3DSettingsDlg@@IAEXW4_D3DFORMAT@@@Z PROC ; CD3DSettingsDlg::AddBackBufferFormat, COMDAT
; _this$ = ecx

; 1137 : {

	push	ebp
	mov	ebp, esp
	sub	esp, 216				; 000000d8H
	push	ebx
	push	esi
	push	edi
	push	ecx
	lea	edi, DWORD PTR [ebp-216]
	mov	ecx, 54					; 00000036H
	mov	eax, -858993460				; ccccccccH
	rep stosd
	pop	ecx
	mov	DWORD PTR _this$[ebp], ecx

; 1138 :     CDXUTComboBox* pComboBox = m_Dialog.GetComboBox( DXUTSETTINGSDLG_BACK_BUFFER_FORMAT );

	push	13					; 0000000dH
	mov	ecx, DWORD PTR _this$[ebp]
	add	ecx, 4
	call	?GetComboBox@CDXUTDialog@@QAEPAVCDXUTComboBox@@H@Z ; CDXUTDialog::GetComboBox
	mov	DWORD PTR _pComboBox$[ebp], eax

; 1139 :     
; 1140 :     if( !pComboBox->ContainsItem( DXUTD3DFormatToString(format, TRUE) ) )

	push	0
	push	1
	mov	eax, DWORD PTR _format$[ebp]
	push	eax
	call	?DXUTD3DFormatToString@@YAPBDW4_D3DFORMAT@@_N@Z ; DXUTD3DFormatToString
	add	esp, 8
	push	eax
	mov	ecx, DWORD PTR _pComboBox$[ebp]
	call	?ContainsItem@CDXUTComboBox@@QAE_NPBDI@Z ; CDXUTComboBox::ContainsItem
	movzx	ecx, al
	test	ecx, ecx
	jne	SHORT $LN2@AddBackBuf

; 1141 :         pComboBox->AddItem( DXUTD3DFormatToString(format, TRUE), ULongToPtr( format ) );

	mov	eax, DWORD PTR _format$[ebp]
	push	eax
	push	1
	mov	ecx, DWORD PTR _format$[ebp]
	push	ecx
	call	?DXUTD3DFormatToString@@YAPBDW4_D3DFORMAT@@_N@Z ; DXUTD3DFormatToString
	add	esp, 8
	push	eax
	mov	ecx, DWORD PTR _pComboBox$[ebp]
	call	?AddItem@CDXUTComboBox@@QAEJPBDPAX@Z	; CDXUTComboBox::AddItem
$LN2@AddBackBuf:

; 1142 : }

	pop	edi
	pop	esi
	pop	ebx
	add	esp, 216				; 000000d8H
	cmp	ebp, esp
	call	__RTC_CheckEsp
	mov	esp, ebp
	pop	ebp
	ret	4
?AddBackBufferFormat@CD3DSettingsDlg@@IAEXW4_D3DFORMAT@@@Z ENDP ; CD3DSettingsDlg::AddBackBufferFormat
_TEXT	ENDS
; Function compile flags: /Odtp /RTCsu /ZI
; File z:\sampsrc\02xu1\saco\d3d9\common\dxutsettingsdlg.cpp
;	COMDAT ?GetSelectedRefreshRate@CD3DSettingsDlg@@IAEKXZ
_TEXT	SEGMENT
_pComboBox$ = -20					; size = 4
_this$ = -8						; size = 4
?GetSelectedRefreshRate@CD3DSettingsDlg@@IAEKXZ PROC	; CD3DSettingsDlg::GetSelectedRefreshRate, COMDAT
; _this$ = ecx

; 1128 : {

	push	ebp
	mov	ebp, esp
	sub	esp, 216				; 000000d8H
	push	ebx
	push	esi
	push	edi
	push	ecx
	lea	edi, DWORD PTR [ebp-216]
	mov	ecx, 54					; 00000036H
	mov	eax, -858993460				; ccccccccH
	rep stosd
	pop	ecx
	mov	DWORD PTR _this$[ebp], ecx

; 1129 :     CDXUTComboBox* pComboBox = m_Dialog.GetComboBox( DXUTSETTINGSDLG_REFRESH_RATE );

	push	11					; 0000000bH
	mov	ecx, DWORD PTR _this$[ebp]
	add	ecx, 4
	call	?GetComboBox@CDXUTDialog@@QAEPAVCDXUTComboBox@@H@Z ; CDXUTDialog::GetComboBox
	mov	DWORD PTR _pComboBox$[ebp], eax

; 1130 :     
; 1131 :     return PtrToUlong( pComboBox->GetSelectedData() );

	mov	ecx, DWORD PTR _pComboBox$[ebp]
	call	?GetSelectedData@CDXUTComboBox@@QAEPAXXZ ; CDXUTComboBox::GetSelectedData

; 1132 : }

	pop	edi
	pop	esi
	pop	ebx
	add	esp, 216				; 000000d8H
	cmp	ebp, esp
	call	__RTC_CheckEsp
	mov	esp, ebp
	pop	ebp
	ret	0
?GetSelectedRefreshRate@CD3DSettingsDlg@@IAEKXZ ENDP	; CD3DSettingsDlg::GetSelectedRefreshRate
_TEXT	ENDS
; Function compile flags: /Odtp /RTCsu /ZI
; File z:\sampsrc\02xu1\saco\d3d9\common\dxutsettingsdlg.cpp
;	COMDAT ?AddRefreshRate@CD3DSettingsDlg@@IAEXK@Z
_TEXT	SEGMENT
_strRefreshRate$ = -84					; size = 50
_pComboBox$ = -24					; size = 4
_this$ = -12						; size = 4
__$ArrayPad$ = -4					; size = 4
_dwRate$ = 8						; size = 4
?AddRefreshRate@CD3DSettingsDlg@@IAEXK@Z PROC		; CD3DSettingsDlg::AddRefreshRate, COMDAT
; _this$ = ecx

; 1111 : {

	push	ebp
	mov	ebp, esp
	sub	esp, 280				; 00000118H
	push	ebx
	push	esi
	push	edi
	push	ecx
	lea	edi, DWORD PTR [ebp-280]
	mov	ecx, 70					; 00000046H
	mov	eax, -858993460				; ccccccccH
	rep stosd
	pop	ecx
	mov	eax, DWORD PTR ___security_cookie
	xor	eax, ebp
	mov	DWORD PTR __$ArrayPad$[ebp], eax
	mov	DWORD PTR _this$[ebp], ecx

; 1112 :     CDXUTComboBox* pComboBox = m_Dialog.GetComboBox( DXUTSETTINGSDLG_REFRESH_RATE );

	push	11					; 0000000bH
	mov	ecx, DWORD PTR _this$[ebp]
	add	ecx, 4
	call	?GetComboBox@CDXUTDialog@@QAEPAVCDXUTComboBox@@H@Z ; CDXUTDialog::GetComboBox
	mov	DWORD PTR _pComboBox$[ebp], eax

; 1113 :         
; 1114 :     TCHAR strRefreshRate[50];
; 1115 : 
; 1116 :     if( dwRate == 0 )

	cmp	DWORD PTR _dwRate$[ebp], 0
	jne	SHORT $LN3@AddRefresh

; 1117 :         StringCchCopy( strRefreshRate, 50, "Default Rate" );

	push	OFFSET ??_C@_0N@BDMKPLKO@Default?5Rate?$AA@
	push	50					; 00000032H
	lea	eax, DWORD PTR _strRefreshRate$[ebp]
	push	eax
	call	?StringCchCopyA@@YGJPADIPBD@Z		; StringCchCopyA

; 1118 :     else

	jmp	SHORT $LN2@AddRefresh
$LN3@AddRefresh:

; 1119 :         StringCchPrintf( strRefreshRate, 50, "%d Hz", dwRate );

	mov	eax, DWORD PTR _dwRate$[ebp]
	push	eax
	push	OFFSET ??_C@_05HOIFPJGO@?$CFd?5Hz?$AA@
	push	50					; 00000032H
	lea	ecx, DWORD PTR _strRefreshRate$[ebp]
	push	ecx
	call	?StringCchPrintfA@@YAJPADIPBDZZ		; StringCchPrintfA
	add	esp, 16					; 00000010H
$LN2@AddRefresh:

; 1120 : 
; 1121 :     if( !pComboBox->ContainsItem( strRefreshRate ) )

	push	0
	lea	eax, DWORD PTR _strRefreshRate$[ebp]
	push	eax
	mov	ecx, DWORD PTR _pComboBox$[ebp]
	call	?ContainsItem@CDXUTComboBox@@QAE_NPBDI@Z ; CDXUTComboBox::ContainsItem
	movzx	ecx, al
	test	ecx, ecx
	jne	SHORT $LN4@AddRefresh

; 1122 :         pComboBox->AddItem( strRefreshRate, ULongToPtr(dwRate) );

	mov	eax, DWORD PTR _dwRate$[ebp]
	push	eax
	lea	ecx, DWORD PTR _strRefreshRate$[ebp]
	push	ecx
	mov	ecx, DWORD PTR _pComboBox$[ebp]
	call	?AddItem@CDXUTComboBox@@QAEJPBDPAX@Z	; CDXUTComboBox::AddItem
$LN4@AddRefresh:

; 1123 : }

	push	edx
	mov	ecx, ebp
	push	eax
	lea	edx, DWORD PTR $LN8@AddRefresh
	call	@_RTC_CheckStackVars@8
	pop	eax
	pop	edx
	pop	edi
	pop	esi
	pop	ebx
	mov	ecx, DWORD PTR __$ArrayPad$[ebp]
	xor	ecx, ebp
	call	@__security_check_cookie@4
	add	esp, 280				; 00000118H
	cmp	ebp, esp
	call	__RTC_CheckEsp
	mov	esp, ebp
	pop	ebp
	ret	4
	npad	2
$LN8@AddRefresh:
	DD	1
	DD	$LN7@AddRefresh
$LN7@AddRefresh:
	DD	-84					; ffffffacH
	DD	50					; 00000032H
	DD	$LN6@AddRefresh
$LN6@AddRefresh:
	DB	115					; 00000073H
	DB	116					; 00000074H
	DB	114					; 00000072H
	DB	82					; 00000052H
	DB	101					; 00000065H
	DB	102					; 00000066H
	DB	114					; 00000072H
	DB	101					; 00000065H
	DB	115					; 00000073H
	DB	104					; 00000068H
	DB	82					; 00000052H
	DB	97					; 00000061H
	DB	116					; 00000074H
	DB	101					; 00000065H
	DB	0
?AddRefreshRate@CD3DSettingsDlg@@IAEXK@Z ENDP		; CD3DSettingsDlg::AddRefreshRate
_TEXT	ENDS
; Function compile flags: /Odtp /RTCsu /ZI
; File z:\sampsrc\02xu1\saco\d3d9\common\dxutsettingsdlg.cpp
;	COMDAT ?GetSelectedResolution@CD3DSettingsDlg@@IAEXPAK0@Z
_TEXT	SEGMENT
_dwResolution$ = -32					; size = 4
_pComboBox$ = -20					; size = 4
_this$ = -8						; size = 4
_pdwWidth$ = 8						; size = 4
_pdwHeight$ = 12					; size = 4
?GetSelectedResolution@CD3DSettingsDlg@@IAEXPAK0@Z PROC	; CD3DSettingsDlg::GetSelectedResolution, COMDAT
; _this$ = ecx

; 1099 : {

	push	ebp
	mov	ebp, esp
	sub	esp, 228				; 000000e4H
	push	ebx
	push	esi
	push	edi
	push	ecx
	lea	edi, DWORD PTR [ebp-228]
	mov	ecx, 57					; 00000039H
	mov	eax, -858993460				; ccccccccH
	rep stosd
	pop	ecx
	mov	DWORD PTR _this$[ebp], ecx

; 1100 :     CDXUTComboBox* pComboBox = m_Dialog.GetComboBox( DXUTSETTINGSDLG_RESOLUTION );

	push	9
	mov	ecx, DWORD PTR _this$[ebp]
	add	ecx, 4
	call	?GetComboBox@CDXUTDialog@@QAEPAVCDXUTComboBox@@H@Z ; CDXUTDialog::GetComboBox
	mov	DWORD PTR _pComboBox$[ebp], eax

; 1101 : 
; 1102 :     DWORD dwResolution = PtrToUlong( pComboBox->GetSelectedData() );

	mov	ecx, DWORD PTR _pComboBox$[ebp]
	call	?GetSelectedData@CDXUTComboBox@@QAEPAXXZ ; CDXUTComboBox::GetSelectedData
	mov	DWORD PTR _dwResolution$[ebp], eax

; 1103 : 
; 1104 :     *pdwWidth = LOWORD( dwResolution );

	mov	eax, DWORD PTR _dwResolution$[ebp]
	and	eax, 65535				; 0000ffffH
	movzx	ecx, ax
	mov	edx, DWORD PTR _pdwWidth$[ebp]
	mov	DWORD PTR [edx], ecx

; 1105 :     *pdwHeight = HIWORD( dwResolution );

	mov	eax, DWORD PTR _dwResolution$[ebp]
	shr	eax, 16					; 00000010H
	and	eax, 65535				; 0000ffffH
	movzx	ecx, ax
	mov	edx, DWORD PTR _pdwHeight$[ebp]
	mov	DWORD PTR [edx], ecx

; 1106 : }

	pop	edi
	pop	esi
	pop	ebx
	add	esp, 228				; 000000e4H
	cmp	ebp, esp
	call	__RTC_CheckEsp
	mov	esp, ebp
	pop	ebp
	ret	8
?GetSelectedResolution@CD3DSettingsDlg@@IAEXPAK0@Z ENDP	; CD3DSettingsDlg::GetSelectedResolution
_TEXT	ENDS
; Function compile flags: /Odtp /RTCsu /ZI
; File z:\sampsrc\02xu1\saco\d3d9\common\dxutsettingsdlg.cpp
;	COMDAT ?AddResolution@CD3DSettingsDlg@@IAEXKK@Z
_TEXT	SEGMENT
_strResolution$ = -96					; size = 50
_dwResolutionData$ = -36				; size = 4
_pComboBox$ = -24					; size = 4
_this$ = -12						; size = 4
__$ArrayPad$ = -4					; size = 4
_dwWidth$ = 8						; size = 4
_dwHeight$ = 12						; size = 4
?AddResolution@CD3DSettingsDlg@@IAEXKK@Z PROC		; CD3DSettingsDlg::AddResolution, COMDAT
; _this$ = ecx

; 1084 : {

	push	ebp
	mov	ebp, esp
	sub	esp, 292				; 00000124H
	push	ebx
	push	esi
	push	edi
	push	ecx
	lea	edi, DWORD PTR [ebp-292]
	mov	ecx, 73					; 00000049H
	mov	eax, -858993460				; ccccccccH
	rep stosd
	pop	ecx
	mov	eax, DWORD PTR ___security_cookie
	xor	eax, ebp
	mov	DWORD PTR __$ArrayPad$[ebp], eax
	mov	DWORD PTR _this$[ebp], ecx

; 1085 :     CDXUTComboBox* pComboBox = m_Dialog.GetComboBox( DXUTSETTINGSDLG_RESOLUTION );

	push	9
	mov	ecx, DWORD PTR _this$[ebp]
	add	ecx, 4
	call	?GetComboBox@CDXUTDialog@@QAEPAVCDXUTComboBox@@H@Z ; CDXUTDialog::GetComboBox
	mov	DWORD PTR _pComboBox$[ebp], eax

; 1086 :   
; 1087 :     DWORD dwResolutionData;
; 1088 :     TCHAR strResolution[50];
; 1089 :     dwResolutionData = MAKELONG( dwWidth, dwHeight );

	mov	eax, DWORD PTR _dwWidth$[ebp]
	and	eax, 65535				; 0000ffffH
	movzx	ecx, ax
	mov	edx, DWORD PTR _dwHeight$[ebp]
	and	edx, 65535				; 0000ffffH
	movzx	eax, dx
	shl	eax, 16					; 00000010H
	or	ecx, eax
	mov	DWORD PTR _dwResolutionData$[ebp], ecx

; 1090 :     StringCchPrintf( strResolution, 50, "%d by %d", dwWidth, dwHeight );

	mov	eax, DWORD PTR _dwHeight$[ebp]
	push	eax
	mov	ecx, DWORD PTR _dwWidth$[ebp]
	push	ecx
	push	OFFSET ??_C@_08GEFHBCBJ@?$CFd?5by?5?$CFd?$AA@
	push	50					; 00000032H
	lea	edx, DWORD PTR _strResolution$[ebp]
	push	edx
	call	?StringCchPrintfA@@YAJPADIPBDZZ		; StringCchPrintfA
	add	esp, 20					; 00000014H

; 1091 : 
; 1092 :     if( !pComboBox->ContainsItem( strResolution ) )

	push	0
	lea	eax, DWORD PTR _strResolution$[ebp]
	push	eax
	mov	ecx, DWORD PTR _pComboBox$[ebp]
	call	?ContainsItem@CDXUTComboBox@@QAE_NPBDI@Z ; CDXUTComboBox::ContainsItem
	movzx	ecx, al
	test	ecx, ecx
	jne	SHORT $LN2@AddResolut

; 1093 :         pComboBox->AddItem( strResolution, ULongToPtr( dwResolutionData ) );

	mov	eax, DWORD PTR _dwResolutionData$[ebp]
	push	eax
	lea	ecx, DWORD PTR _strResolution$[ebp]
	push	ecx
	mov	ecx, DWORD PTR _pComboBox$[ebp]
	call	?AddItem@CDXUTComboBox@@QAEJPBDPAX@Z	; CDXUTComboBox::AddItem
$LN2@AddResolut:

; 1094 : }

	push	edx
	mov	ecx, ebp
	push	eax
	lea	edx, DWORD PTR $LN6@AddResolut
	call	@_RTC_CheckStackVars@8
	pop	eax
	pop	edx
	pop	edi
	pop	esi
	pop	ebx
	mov	ecx, DWORD PTR __$ArrayPad$[ebp]
	xor	ecx, ebp
	call	@__security_check_cookie@4
	add	esp, 292				; 00000124H
	cmp	ebp, esp
	call	__RTC_CheckEsp
	mov	esp, ebp
	pop	ebp
	ret	8
	npad	3
$LN6@AddResolut:
	DD	1
	DD	$LN5@AddResolut
$LN5@AddResolut:
	DD	-96					; ffffffa0H
	DD	50					; 00000032H
	DD	$LN4@AddResolut
$LN4@AddResolut:
	DB	115					; 00000073H
	DB	116					; 00000074H
	DB	114					; 00000072H
	DB	82					; 00000052H
	DB	101					; 00000065H
	DB	115					; 00000073H
	DB	111					; 0000006fH
	DB	108					; 0000006cH
	DB	117					; 00000075H
	DB	116					; 00000074H
	DB	105					; 00000069H
	DB	111					; 0000006fH
	DB	110					; 0000006eH
	DB	0
?AddResolution@CD3DSettingsDlg@@IAEXKK@Z ENDP		; CD3DSettingsDlg::AddResolution
_TEXT	ENDS
; Function compile flags: /Odtp /RTCsu /ZI
; File z:\sampsrc\02xu1\saco\d3d9\common\dxutsettingsdlg.cpp
;	COMDAT ?GetSelectedAdapterFormat@CD3DSettingsDlg@@IAE?AW4_D3DFORMAT@@XZ
_TEXT	SEGMENT
_pComboBox$ = -20					; size = 4
_this$ = -8						; size = 4
?GetSelectedAdapterFormat@CD3DSettingsDlg@@IAE?AW4_D3DFORMAT@@XZ PROC ; CD3DSettingsDlg::GetSelectedAdapterFormat, COMDAT
; _this$ = ecx

; 1075 : {

	push	ebp
	mov	ebp, esp
	sub	esp, 216				; 000000d8H
	push	ebx
	push	esi
	push	edi
	push	ecx
	lea	edi, DWORD PTR [ebp-216]
	mov	ecx, 54					; 00000036H
	mov	eax, -858993460				; ccccccccH
	rep stosd
	pop	ecx
	mov	DWORD PTR _this$[ebp], ecx

; 1076 :     CDXUTComboBox* pComboBox = m_Dialog.GetComboBox( DXUTSETTINGSDLG_ADAPTER_FORMAT );

	push	7
	mov	ecx, DWORD PTR _this$[ebp]
	add	ecx, 4
	call	?GetComboBox@CDXUTDialog@@QAEPAVCDXUTComboBox@@H@Z ; CDXUTDialog::GetComboBox
	mov	DWORD PTR _pComboBox$[ebp], eax

; 1077 :   
; 1078 :     return (D3DFORMAT) PtrToUlong( pComboBox->GetSelectedData() ); 

	mov	ecx, DWORD PTR _pComboBox$[ebp]
	call	?GetSelectedData@CDXUTComboBox@@QAEPAXXZ ; CDXUTComboBox::GetSelectedData

; 1079 : }

	pop	edi
	pop	esi
	pop	ebx
	add	esp, 216				; 000000d8H
	cmp	ebp, esp
	call	__RTC_CheckEsp
	mov	esp, ebp
	pop	ebp
	ret	0
?GetSelectedAdapterFormat@CD3DSettingsDlg@@IAE?AW4_D3DFORMAT@@XZ ENDP ; CD3DSettingsDlg::GetSelectedAdapterFormat
_TEXT	ENDS
; Function compile flags: /Odtp /RTCsu /ZI
; File z:\sampsrc\02xu1\saco\d3d9\common\dxutsettingsdlg.cpp
;	COMDAT ?AddAdapterFormat@CD3DSettingsDlg@@IAEXW4_D3DFORMAT@@@Z
_TEXT	SEGMENT
_pComboBox$ = -20					; size = 4
_this$ = -8						; size = 4
_format$ = 8						; size = 4
?AddAdapterFormat@CD3DSettingsDlg@@IAEXW4_D3DFORMAT@@@Z PROC ; CD3DSettingsDlg::AddAdapterFormat, COMDAT
; _this$ = ecx

; 1065 : {

	push	ebp
	mov	ebp, esp
	sub	esp, 216				; 000000d8H
	push	ebx
	push	esi
	push	edi
	push	ecx
	lea	edi, DWORD PTR [ebp-216]
	mov	ecx, 54					; 00000036H
	mov	eax, -858993460				; ccccccccH
	rep stosd
	pop	ecx
	mov	DWORD PTR _this$[ebp], ecx

; 1066 :     CDXUTComboBox* pComboBox = m_Dialog.GetComboBox( DXUTSETTINGSDLG_ADAPTER_FORMAT );

	push	7
	mov	ecx, DWORD PTR _this$[ebp]
	add	ecx, 4
	call	?GetComboBox@CDXUTDialog@@QAEPAVCDXUTComboBox@@H@Z ; CDXUTDialog::GetComboBox
	mov	DWORD PTR _pComboBox$[ebp], eax

; 1067 :     
; 1068 :     if( !pComboBox->ContainsItem( DXUTD3DFormatToString(format, TRUE) ) )

	push	0
	push	1
	mov	eax, DWORD PTR _format$[ebp]
	push	eax
	call	?DXUTD3DFormatToString@@YAPBDW4_D3DFORMAT@@_N@Z ; DXUTD3DFormatToString
	add	esp, 8
	push	eax
	mov	ecx, DWORD PTR _pComboBox$[ebp]
	call	?ContainsItem@CDXUTComboBox@@QAE_NPBDI@Z ; CDXUTComboBox::ContainsItem
	movzx	ecx, al
	test	ecx, ecx
	jne	SHORT $LN2@AddAdapter

; 1069 :         pComboBox->AddItem( DXUTD3DFormatToString(format, TRUE), ULongToPtr( format ) );

	mov	eax, DWORD PTR _format$[ebp]
	push	eax
	push	1
	mov	ecx, DWORD PTR _format$[ebp]
	push	ecx
	call	?DXUTD3DFormatToString@@YAPBDW4_D3DFORMAT@@_N@Z ; DXUTD3DFormatToString
	add	esp, 8
	push	eax
	mov	ecx, DWORD PTR _pComboBox$[ebp]
	call	?AddItem@CDXUTComboBox@@QAEJPBDPAX@Z	; CDXUTComboBox::AddItem
$LN2@AddAdapter:

; 1070 : }

	pop	edi
	pop	esi
	pop	ebx
	add	esp, 216				; 000000d8H
	cmp	ebp, esp
	call	__RTC_CheckEsp
	mov	esp, ebp
	pop	ebp
	ret	4
?AddAdapterFormat@CD3DSettingsDlg@@IAEXW4_D3DFORMAT@@@Z ENDP ; CD3DSettingsDlg::AddAdapterFormat
_TEXT	ENDS
; Function compile flags: /Odtp /RTCsu /ZI
; File z:\sampsrc\02xu1\saco\d3d9\common\dxutsettingsdlg.cpp
;	COMDAT ?IsWindowed@CD3DSettingsDlg@@IAE_NXZ
_TEXT	SEGMENT
_pRadioButton$ = -20					; size = 4
_this$ = -8						; size = 4
?IsWindowed@CD3DSettingsDlg@@IAE_NXZ PROC		; CD3DSettingsDlg::IsWindowed, COMDAT
; _this$ = ecx

; 1057 : {

	push	ebp
	mov	ebp, esp
	sub	esp, 216				; 000000d8H
	push	ebx
	push	esi
	push	edi
	push	ecx
	lea	edi, DWORD PTR [ebp-216]
	mov	ecx, 54					; 00000036H
	mov	eax, -858993460				; ccccccccH
	rep stosd
	pop	ecx
	mov	DWORD PTR _this$[ebp], ecx

; 1058 :     CDXUTRadioButton* pRadioButton = m_Dialog.GetRadioButton( DXUTSETTINGSDLG_WINDOWED );

	push	5
	mov	ecx, DWORD PTR _this$[ebp]
	add	ecx, 4
	call	?GetRadioButton@CDXUTDialog@@QAEPAVCDXUTRadioButton@@H@Z ; CDXUTDialog::GetRadioButton
	mov	DWORD PTR _pRadioButton$[ebp], eax

; 1059 :     return pRadioButton->GetChecked();

	mov	ecx, DWORD PTR _pRadioButton$[ebp]
	call	?GetChecked@CDXUTCheckBox@@QAE_NXZ	; CDXUTCheckBox::GetChecked

; 1060 : }

	pop	edi
	pop	esi
	pop	ebx
	add	esp, 216				; 000000d8H
	cmp	ebp, esp
	call	__RTC_CheckEsp
	mov	esp, ebp
	pop	ebp
	ret	0
?IsWindowed@CD3DSettingsDlg@@IAE_NXZ ENDP		; CD3DSettingsDlg::IsWindowed
_TEXT	ENDS
; Function compile flags: /Odtp /RTCsu /ZI
; File z:\sampsrc\02xu1\saco\d3d9\common\dxutsettingsdlg.cpp
;	COMDAT ?SetWindowed@CD3DSettingsDlg@@IAEX_N@Z
_TEXT	SEGMENT
tv79 = -217						; size = 1
_pRadioButton$ = -20					; size = 4
_this$ = -8						; size = 4
_bWindowed$ = 8						; size = 1
?SetWindowed@CD3DSettingsDlg@@IAEX_N@Z PROC		; CD3DSettingsDlg::SetWindowed, COMDAT
; _this$ = ecx

; 1046 : {

	push	ebp
	mov	ebp, esp
	sub	esp, 220				; 000000dcH
	push	ebx
	push	esi
	push	edi
	push	ecx
	lea	edi, DWORD PTR [ebp-220]
	mov	ecx, 55					; 00000037H
	mov	eax, -858993460				; ccccccccH
	rep stosd
	pop	ecx
	mov	DWORD PTR _this$[ebp], ecx

; 1047 :     CDXUTRadioButton* pRadioButton = m_Dialog.GetRadioButton( DXUTSETTINGSDLG_WINDOWED );

	push	5
	mov	ecx, DWORD PTR _this$[ebp]
	add	ecx, 4
	call	?GetRadioButton@CDXUTDialog@@QAEPAVCDXUTRadioButton@@H@Z ; CDXUTDialog::GetRadioButton
	mov	DWORD PTR _pRadioButton$[ebp], eax

; 1048 :     pRadioButton->SetChecked( bWindowed );

	push	1
	movzx	eax, BYTE PTR _bWindowed$[ebp]
	push	eax
	mov	ecx, DWORD PTR _pRadioButton$[ebp]
	call	?SetChecked@CDXUTRadioButton@@QAEX_N0@Z	; CDXUTRadioButton::SetChecked

; 1049 : 
; 1050 :     pRadioButton = m_Dialog.GetRadioButton( DXUTSETTINGSDLG_FULLSCREEN );

	push	6
	mov	ecx, DWORD PTR _this$[ebp]
	add	ecx, 4
	call	?GetRadioButton@CDXUTDialog@@QAEPAVCDXUTRadioButton@@H@Z ; CDXUTDialog::GetRadioButton
	mov	DWORD PTR _pRadioButton$[ebp], eax

; 1051 :     pRadioButton->SetChecked( !bWindowed );

	movzx	eax, BYTE PTR _bWindowed$[ebp]
	test	eax, eax
	jne	SHORT $LN3@SetWindowe
	mov	BYTE PTR tv79[ebp], 1
	jmp	SHORT $LN4@SetWindowe
$LN3@SetWindowe:
	mov	BYTE PTR tv79[ebp], 0
$LN4@SetWindowe:
	push	1
	movzx	ecx, BYTE PTR tv79[ebp]
	push	ecx
	mov	ecx, DWORD PTR _pRadioButton$[ebp]
	call	?SetChecked@CDXUTRadioButton@@QAEX_N0@Z	; CDXUTRadioButton::SetChecked

; 1052 : }

	pop	edi
	pop	esi
	pop	ebx
	add	esp, 220				; 000000dcH
	cmp	ebp, esp
	call	__RTC_CheckEsp
	mov	esp, ebp
	pop	ebp
	ret	4
?SetWindowed@CD3DSettingsDlg@@IAEX_N@Z ENDP		; CD3DSettingsDlg::SetWindowed
_TEXT	ENDS
; Function compile flags: /Odtp /RTCsu /ZI
; File z:\sampsrc\02xu1\saco\d3d9\common\dxutsettingsdlg.cpp
;	COMDAT ?GetSelectedDeviceType@CD3DSettingsDlg@@IAE?AW4_D3DDEVTYPE@@XZ
_TEXT	SEGMENT
_pComboBox$ = -20					; size = 4
_this$ = -8						; size = 4
?GetSelectedDeviceType@CD3DSettingsDlg@@IAE?AW4_D3DDEVTYPE@@XZ PROC ; CD3DSettingsDlg::GetSelectedDeviceType, COMDAT
; _this$ = ecx

; 1037 : {

	push	ebp
	mov	ebp, esp
	sub	esp, 216				; 000000d8H
	push	ebx
	push	esi
	push	edi
	push	ecx
	lea	edi, DWORD PTR [ebp-216]
	mov	ecx, 54					; 00000036H
	mov	eax, -858993460				; ccccccccH
	rep stosd
	pop	ecx
	mov	DWORD PTR _this$[ebp], ecx

; 1038 :     CDXUTComboBox* pComboBox = m_Dialog.GetComboBox( DXUTSETTINGSDLG_DEVICE_TYPE );

	push	4
	mov	ecx, DWORD PTR _this$[ebp]
	add	ecx, 4
	call	?GetComboBox@CDXUTDialog@@QAEPAVCDXUTComboBox@@H@Z ; CDXUTDialog::GetComboBox
	mov	DWORD PTR _pComboBox$[ebp], eax

; 1039 : 
; 1040 :     return (D3DDEVTYPE) PtrToUlong( pComboBox->GetSelectedData() );

	mov	ecx, DWORD PTR _pComboBox$[ebp]
	call	?GetSelectedData@CDXUTComboBox@@QAEPAXXZ ; CDXUTComboBox::GetSelectedData

; 1041 : }

	pop	edi
	pop	esi
	pop	ebx
	add	esp, 216				; 000000d8H
	cmp	ebp, esp
	call	__RTC_CheckEsp
	mov	esp, ebp
	pop	ebp
	ret	0
?GetSelectedDeviceType@CD3DSettingsDlg@@IAE?AW4_D3DDEVTYPE@@XZ ENDP ; CD3DSettingsDlg::GetSelectedDeviceType
_TEXT	ENDS
; Function compile flags: /Odtp /RTCsu /ZI
; File z:\sampsrc\02xu1\saco\d3d9\common\dxutsettingsdlg.cpp
;	COMDAT ?AddDeviceType@CD3DSettingsDlg@@IAEXW4_D3DDEVTYPE@@@Z
_TEXT	SEGMENT
_pComboBox$ = -20					; size = 4
_this$ = -8						; size = 4
_devType$ = 8						; size = 4
?AddDeviceType@CD3DSettingsDlg@@IAEXW4_D3DDEVTYPE@@@Z PROC ; CD3DSettingsDlg::AddDeviceType, COMDAT
; _this$ = ecx

; 1027 : {

	push	ebp
	mov	ebp, esp
	sub	esp, 216				; 000000d8H
	push	ebx
	push	esi
	push	edi
	push	ecx
	lea	edi, DWORD PTR [ebp-216]
	mov	ecx, 54					; 00000036H
	mov	eax, -858993460				; ccccccccH
	rep stosd
	pop	ecx
	mov	DWORD PTR _this$[ebp], ecx

; 1028 :     CDXUTComboBox* pComboBox = m_Dialog.GetComboBox( DXUTSETTINGSDLG_DEVICE_TYPE );

	push	4
	mov	ecx, DWORD PTR _this$[ebp]
	add	ecx, 4
	call	?GetComboBox@CDXUTDialog@@QAEPAVCDXUTComboBox@@H@Z ; CDXUTDialog::GetComboBox
	mov	DWORD PTR _pComboBox$[ebp], eax

; 1029 : 
; 1030 :     if( !pComboBox->ContainsItem( DXUTD3DDeviceTypeToString(devType) ) )

	push	0
	mov	eax, DWORD PTR _devType$[ebp]
	push	eax
	call	?DXUTD3DDeviceTypeToString@@YAPADW4_D3DDEVTYPE@@@Z ; DXUTD3DDeviceTypeToString
	add	esp, 4
	push	eax
	mov	ecx, DWORD PTR _pComboBox$[ebp]
	call	?ContainsItem@CDXUTComboBox@@QAE_NPBDI@Z ; CDXUTComboBox::ContainsItem
	movzx	ecx, al
	test	ecx, ecx
	jne	SHORT $LN2@AddDeviceT

; 1031 :         pComboBox->AddItem( DXUTD3DDeviceTypeToString(devType), ULongToPtr(devType) );

	mov	eax, DWORD PTR _devType$[ebp]
	push	eax
	mov	ecx, DWORD PTR _devType$[ebp]
	push	ecx
	call	?DXUTD3DDeviceTypeToString@@YAPADW4_D3DDEVTYPE@@@Z ; DXUTD3DDeviceTypeToString
	add	esp, 4
	push	eax
	mov	ecx, DWORD PTR _pComboBox$[ebp]
	call	?AddItem@CDXUTComboBox@@QAEJPBDPAX@Z	; CDXUTComboBox::AddItem
$LN2@AddDeviceT:

; 1032 : }

	pop	edi
	pop	esi
	pop	ebx
	add	esp, 216				; 000000d8H
	cmp	ebp, esp
	call	__RTC_CheckEsp
	mov	esp, ebp
	pop	ebp
	ret	4
?AddDeviceType@CD3DSettingsDlg@@IAEXW4_D3DDEVTYPE@@@Z ENDP ; CD3DSettingsDlg::AddDeviceType
_TEXT	ENDS
; Function compile flags: /Odtp /RTCsu /ZI
; File z:\sampsrc\02xu1\saco\d3d9\common\dxutsettingsdlg.cpp
;	COMDAT ?GetSelectedAdapter@CD3DSettingsDlg@@IAEIXZ
_TEXT	SEGMENT
_pComboBox$ = -20					; size = 4
_this$ = -8						; size = 4
?GetSelectedAdapter@CD3DSettingsDlg@@IAEIXZ PROC	; CD3DSettingsDlg::GetSelectedAdapter, COMDAT
; _this$ = ecx

; 1018 : {

	push	ebp
	mov	ebp, esp
	sub	esp, 216				; 000000d8H
	push	ebx
	push	esi
	push	edi
	push	ecx
	lea	edi, DWORD PTR [ebp-216]
	mov	ecx, 54					; 00000036H
	mov	eax, -858993460				; ccccccccH
	rep stosd
	pop	ecx
	mov	DWORD PTR _this$[ebp], ecx

; 1019 :     CDXUTComboBox* pComboBox = m_Dialog.GetComboBox( DXUTSETTINGSDLG_ADAPTER );

	push	3
	mov	ecx, DWORD PTR _this$[ebp]
	add	ecx, 4
	call	?GetComboBox@CDXUTDialog@@QAEPAVCDXUTComboBox@@H@Z ; CDXUTDialog::GetComboBox
	mov	DWORD PTR _pComboBox$[ebp], eax

; 1020 : 
; 1021 :     return PtrToUlong( pComboBox->GetSelectedData() );  

	mov	ecx, DWORD PTR _pComboBox$[ebp]
	call	?GetSelectedData@CDXUTComboBox@@QAEPAXXZ ; CDXUTComboBox::GetSelectedData

; 1022 : }

	pop	edi
	pop	esi
	pop	ebx
	add	esp, 216				; 000000d8H
	cmp	ebp, esp
	call	__RTC_CheckEsp
	mov	esp, ebp
	pop	ebp
	ret	0
?GetSelectedAdapter@CD3DSettingsDlg@@IAEIXZ ENDP	; CD3DSettingsDlg::GetSelectedAdapter
_TEXT	ENDS
; Function compile flags: /Odtp /RTCsu /ZI
; File z:\sampsrc\02xu1\saco\d3d9\common\dxutsettingsdlg.cpp
;	COMDAT ?AddAdapter@CD3DSettingsDlg@@IAEXPBDI@Z
_TEXT	SEGMENT
_pComboBox$ = -20					; size = 4
_this$ = -8						; size = 4
_strDescription$ = 8					; size = 4
_iAdapter$ = 12						; size = 4
?AddAdapter@CD3DSettingsDlg@@IAEXPBDI@Z PROC		; CD3DSettingsDlg::AddAdapter, COMDAT
; _this$ = ecx

; 1008 : {

	push	ebp
	mov	ebp, esp
	sub	esp, 216				; 000000d8H
	push	ebx
	push	esi
	push	edi
	push	ecx
	lea	edi, DWORD PTR [ebp-216]
	mov	ecx, 54					; 00000036H
	mov	eax, -858993460				; ccccccccH
	rep stosd
	pop	ecx
	mov	DWORD PTR _this$[ebp], ecx

; 1009 :     CDXUTComboBox* pComboBox = m_Dialog.GetComboBox( DXUTSETTINGSDLG_ADAPTER );

	push	3
	mov	ecx, DWORD PTR _this$[ebp]
	add	ecx, 4
	call	?GetComboBox@CDXUTDialog@@QAEPAVCDXUTComboBox@@H@Z ; CDXUTDialog::GetComboBox
	mov	DWORD PTR _pComboBox$[ebp], eax

; 1010 :  
; 1011 :     if( !pComboBox->ContainsItem( strDescription ) )

	push	0
	mov	eax, DWORD PTR _strDescription$[ebp]
	push	eax
	mov	ecx, DWORD PTR _pComboBox$[ebp]
	call	?ContainsItem@CDXUTComboBox@@QAE_NPBDI@Z ; CDXUTComboBox::ContainsItem
	movzx	ecx, al
	test	ecx, ecx
	jne	SHORT $LN2@AddAdapter

; 1012 :         pComboBox->AddItem( strDescription, ULongToPtr(iAdapter) );

	mov	eax, DWORD PTR _iAdapter$[ebp]
	push	eax
	mov	ecx, DWORD PTR _strDescription$[ebp]
	push	ecx
	mov	ecx, DWORD PTR _pComboBox$[ebp]
	call	?AddItem@CDXUTComboBox@@QAEJPBDPAX@Z	; CDXUTComboBox::AddItem
$LN2@AddAdapter:

; 1013 : }

	pop	edi
	pop	esi
	pop	ebx
	add	esp, 216				; 000000d8H
	cmp	ebp, esp
	call	__RTC_CheckEsp
	mov	esp, ebp
	pop	ebp
	ret	8
?AddAdapter@CD3DSettingsDlg@@IAEXPBDI@Z ENDP		; CD3DSettingsDlg::AddAdapter
_TEXT	ENDS
; Function compile flags: /Odtp /RTCsu /ZI
; File z:\sampsrc\02xu1\saco\d3d9\common\dxutsettingsdlg.cpp
;	COMDAT ?GetCurrentDeviceSettingsCombo@CD3DSettingsDlg@@IAEPAUCD3DEnumDeviceSettingsCombo@@XZ
_TEXT	SEGMENT
tv68 = -220						; size = 4
_pD3DEnum$ = -20					; size = 4
_this$ = -8						; size = 4
?GetCurrentDeviceSettingsCombo@CD3DSettingsDlg@@IAEPAUCD3DEnumDeviceSettingsCombo@@XZ PROC ; CD3DSettingsDlg::GetCurrentDeviceSettingsCombo, COMDAT
; _this$ = ecx

; 424  : {

	push	ebp
	mov	ebp, esp
	sub	esp, 220				; 000000dcH
	push	ebx
	push	esi
	push	edi
	push	ecx
	lea	edi, DWORD PTR [ebp-220]
	mov	ecx, 55					; 00000037H
	mov	eax, -858993460				; ccccccccH
	rep stosd
	pop	ecx
	mov	DWORD PTR _this$[ebp], ecx

; 425  :     CD3DEnumeration* pD3DEnum = DXUTGetEnumeration();

	call	?DXUTGetEnumeration@@YAPAVCD3DEnumeration@@XZ ; DXUTGetEnumeration
	mov	DWORD PTR _pD3DEnum$[ebp], eax

; 426  :     return pD3DEnum->GetDeviceSettingsCombo( g_DeviceSettings.AdapterOrdinal,
; 427  :                                              g_DeviceSettings.DeviceType,
; 428  :                                              g_DeviceSettings.AdapterFormat,
; 429  :                                              g_DeviceSettings.pp.BackBufferFormat,
; 430  :                                              (g_DeviceSettings.pp.Windowed == TRUE) );

	cmp	DWORD PTR ?g_DeviceSettings@@3UDXUTDeviceSettings@@A+48, 1
	jne	SHORT $LN3@GetCurrent
	mov	DWORD PTR tv68[ebp], 1
	jmp	SHORT $LN4@GetCurrent
$LN3@GetCurrent:
	mov	DWORD PTR tv68[ebp], 0
$LN4@GetCurrent:
	mov	eax, DWORD PTR tv68[ebp]
	push	eax
	mov	ecx, DWORD PTR ?g_DeviceSettings@@3UDXUTDeviceSettings@@A+24
	push	ecx
	mov	edx, DWORD PTR ?g_DeviceSettings@@3UDXUTDeviceSettings@@A+8
	push	edx
	mov	eax, DWORD PTR ?g_DeviceSettings@@3UDXUTDeviceSettings@@A+4
	push	eax
	mov	ecx, DWORD PTR ?g_DeviceSettings@@3UDXUTDeviceSettings@@A
	push	ecx
	mov	ecx, DWORD PTR _pD3DEnum$[ebp]
	call	?GetDeviceSettingsCombo@CD3DEnumeration@@QAEPAUCD3DEnumDeviceSettingsCombo@@IW4_D3DDEVTYPE@@W4_D3DFORMAT@@1H@Z ; CD3DEnumeration::GetDeviceSettingsCombo

; 431  : }

	pop	edi
	pop	esi
	pop	ebx
	add	esp, 220				; 000000dcH
	cmp	ebp, esp
	call	__RTC_CheckEsp
	mov	esp, ebp
	pop	ebp
	ret	0
?GetCurrentDeviceSettingsCombo@CD3DSettingsDlg@@IAEPAUCD3DEnumDeviceSettingsCombo@@XZ ENDP ; CD3DSettingsDlg::GetCurrentDeviceSettingsCombo
_TEXT	ENDS
; Function compile flags: /Odtp /RTCsu /ZI
; File z:\sampsrc\02xu1\saco\d3d9\common\dxutsettingsdlg.cpp
;	COMDAT ?GetCurrentDeviceInfo@CD3DSettingsDlg@@IAEPAVCD3DEnumDeviceInfo@@XZ
_TEXT	SEGMENT
_pD3DEnum$ = -20					; size = 4
_this$ = -8						; size = 4
?GetCurrentDeviceInfo@CD3DSettingsDlg@@IAEPAVCD3DEnumDeviceInfo@@XZ PROC ; CD3DSettingsDlg::GetCurrentDeviceInfo, COMDAT
; _this$ = ecx

; 415  : {

	push	ebp
	mov	ebp, esp
	sub	esp, 216				; 000000d8H
	push	ebx
	push	esi
	push	edi
	push	ecx
	lea	edi, DWORD PTR [ebp-216]
	mov	ecx, 54					; 00000036H
	mov	eax, -858993460				; ccccccccH
	rep stosd
	pop	ecx
	mov	DWORD PTR _this$[ebp], ecx

; 416  :     CD3DEnumeration* pD3DEnum = DXUTGetEnumeration();

	call	?DXUTGetEnumeration@@YAPAVCD3DEnumeration@@XZ ; DXUTGetEnumeration
	mov	DWORD PTR _pD3DEnum$[ebp], eax

; 417  :     return pD3DEnum->GetDeviceInfo( g_DeviceSettings.AdapterOrdinal,
; 418  :                                       g_DeviceSettings.DeviceType );

	mov	eax, DWORD PTR ?g_DeviceSettings@@3UDXUTDeviceSettings@@A+4
	push	eax
	mov	ecx, DWORD PTR ?g_DeviceSettings@@3UDXUTDeviceSettings@@A
	push	ecx
	mov	ecx, DWORD PTR _pD3DEnum$[ebp]
	call	?GetDeviceInfo@CD3DEnumeration@@QAEPAVCD3DEnumDeviceInfo@@IW4_D3DDEVTYPE@@@Z ; CD3DEnumeration::GetDeviceInfo

; 419  : }

	pop	edi
	pop	esi
	pop	ebx
	add	esp, 216				; 000000d8H
	cmp	ebp, esp
	call	__RTC_CheckEsp
	mov	esp, ebp
	pop	ebp
	ret	0
?GetCurrentDeviceInfo@CD3DSettingsDlg@@IAEPAVCD3DEnumDeviceInfo@@XZ ENDP ; CD3DSettingsDlg::GetCurrentDeviceInfo
_TEXT	ENDS
; Function compile flags: /Odtp /RTCsu /ZI
; File z:\sampsrc\02xu1\saco\d3d9\common\dxutsettingsdlg.cpp
;	COMDAT ?GetCurrentAdapterInfo@CD3DSettingsDlg@@IAEPAVCD3DEnumAdapterInfo@@XZ
_TEXT	SEGMENT
_pD3DEnum$ = -20					; size = 4
_this$ = -8						; size = 4
?GetCurrentAdapterInfo@CD3DSettingsDlg@@IAEPAVCD3DEnumAdapterInfo@@XZ PROC ; CD3DSettingsDlg::GetCurrentAdapterInfo, COMDAT
; _this$ = ecx

; 407  : {

	push	ebp
	mov	ebp, esp
	sub	esp, 216				; 000000d8H
	push	ebx
	push	esi
	push	edi
	push	ecx
	lea	edi, DWORD PTR [ebp-216]
	mov	ecx, 54					; 00000036H
	mov	eax, -858993460				; ccccccccH
	rep stosd
	pop	ecx
	mov	DWORD PTR _this$[ebp], ecx

; 408  :     CD3DEnumeration* pD3DEnum = DXUTGetEnumeration();

	call	?DXUTGetEnumeration@@YAPAVCD3DEnumeration@@XZ ; DXUTGetEnumeration
	mov	DWORD PTR _pD3DEnum$[ebp], eax

; 409  :     return pD3DEnum->GetAdapterInfo( g_DeviceSettings.AdapterOrdinal );

	mov	eax, DWORD PTR ?g_DeviceSettings@@3UDXUTDeviceSettings@@A
	push	eax
	mov	ecx, DWORD PTR _pD3DEnum$[ebp]
	call	?GetAdapterInfo@CD3DEnumeration@@QAEPAVCD3DEnumAdapterInfo@@I@Z ; CD3DEnumeration::GetAdapterInfo

; 410  : }

	pop	edi
	pop	esi
	pop	ebx
	add	esp, 216				; 000000d8H
	cmp	ebp, esp
	call	__RTC_CheckEsp
	mov	esp, ebp
	pop	ebp
	ret	0
?GetCurrentAdapterInfo@CD3DSettingsDlg@@IAEPAVCD3DEnumAdapterInfo@@XZ ENDP ; CD3DSettingsDlg::GetCurrentAdapterInfo
_TEXT	ENDS
; Function compile flags: /Odtp /RTCsu /ZI
; File z:\sampsrc\02xu1\saco\d3d9\common\dxutsettingsdlg.cpp
;	COMDAT ?StaticOnEvent@CD3DSettingsDlg@@KGXIHPAVCDXUTControl@@PAX@Z
_TEXT	SEGMENT
_pD3DSettings$ = -8					; size = 4
_nEvent$ = 8						; size = 4
_nControlID$ = 12					; size = 4
_pControl$ = 16						; size = 4
_pUserData$ = 20					; size = 4
?StaticOnEvent@CD3DSettingsDlg@@KGXIHPAVCDXUTControl@@PAX@Z PROC ; CD3DSettingsDlg::StaticOnEvent, COMDAT

; 289  : {

	push	ebp
	mov	ebp, esp
	sub	esp, 204				; 000000ccH
	push	ebx
	push	esi
	push	edi
	lea	edi, DWORD PTR [ebp-204]
	mov	ecx, 51					; 00000033H
	mov	eax, -858993460				; ccccccccH
	rep stosd

; 290  :     CD3DSettingsDlg* pD3DSettings = (CD3DSettingsDlg*) pUserData;

	mov	eax, DWORD PTR _pUserData$[ebp]
	mov	DWORD PTR _pD3DSettings$[ebp], eax

; 291  :     if( pD3DSettings )

	cmp	DWORD PTR _pD3DSettings$[ebp], 0
	je	SHORT $LN2@StaticOnEv

; 292  :         pD3DSettings->OnEvent( nEvent, nControlID, pControl );

	mov	eax, DWORD PTR _pControl$[ebp]
	push	eax
	mov	ecx, DWORD PTR _nControlID$[ebp]
	push	ecx
	mov	edx, DWORD PTR _nEvent$[ebp]
	push	edx
	mov	ecx, DWORD PTR _pD3DSettings$[ebp]
	call	?OnEvent@CD3DSettingsDlg@@IAEXIHPAVCDXUTControl@@@Z ; CD3DSettingsDlg::OnEvent
$LN2@StaticOnEv:

; 293  : }

	pop	edi
	pop	esi
	pop	ebx
	add	esp, 204				; 000000ccH
	cmp	ebp, esp
	call	__RTC_CheckEsp
	mov	esp, ebp
	pop	ebp
	ret	16					; 00000010H
?StaticOnEvent@CD3DSettingsDlg@@KGXIHPAVCDXUTControl@@PAX@Z ENDP ; CD3DSettingsDlg::StaticOnEvent
_TEXT	ENDS
; Function compile flags: /Odtp /RTCsu /ZI
; File z:\sampsrc\02xu1\saco\d3d9\common\dxutsettingsdlg.cpp
;	COMDAT ?OnEvent@CD3DSettingsDlg@@IAEXIHPAVCDXUTControl@@@Z
_TEXT	SEGMENT
tv64 = -308						; size = 4
$T1 = -300						; size = 16
$T2 = -276						; size = 16
_dwWindowHeight$3 = -60					; size = 4
_dwWindowWidth$4 = -48					; size = 4
_rcClient$5 = -36					; size = 16
_this$ = -12						; size = 4
__$ArrayPad$ = -4					; size = 4
_nEvent$ = 8						; size = 4
_nControlID$ = 12					; size = 4
_pControl$ = 16						; size = 4
?OnEvent@CD3DSettingsDlg@@IAEXIHPAVCDXUTControl@@@Z PROC ; CD3DSettingsDlg::OnEvent, COMDAT
; _this$ = ecx

; 299  : {

	push	ebp
	mov	ebp, esp
	sub	esp, 308				; 00000134H
	push	ebx
	push	esi
	push	edi
	push	ecx
	lea	edi, DWORD PTR [ebp-308]
	mov	ecx, 77					; 0000004dH
	mov	eax, -858993460				; ccccccccH
	rep stosd
	pop	ecx
	mov	eax, DWORD PTR ___security_cookie
	xor	eax, ebp
	mov	DWORD PTR __$ArrayPad$[ebp], eax
	mov	DWORD PTR _this$[ebp], ecx

; 300  :     switch( nControlID )

	mov	eax, DWORD PTR _nControlID$[ebp]
	mov	DWORD PTR tv64[ebp], eax
	mov	ecx, DWORD PTR tv64[ebp]
	sub	ecx, 1
	mov	DWORD PTR tv64[ebp], ecx
	cmp	DWORD PTR tv64[ebp], 18			; 00000012H
	ja	$LN23@OnEvent
	mov	edx, DWORD PTR tv64[ebp]
	jmp	DWORD PTR $LN28@OnEvent[edx*4]
$LN20@OnEvent:

; 301  :     {
; 302  :         case DXUTSETTINGSDLG_ADAPTER:               OnAdapterChanged(); break;

	mov	ecx, DWORD PTR _this$[ebp]
	call	?OnAdapterChanged@CD3DSettingsDlg@@IAEJXZ ; CD3DSettingsDlg::OnAdapterChanged
	jmp	$LN23@OnEvent
$LN19@OnEvent:

; 303  :         case DXUTSETTINGSDLG_DEVICE_TYPE:           OnDeviceTypeChanged(); break;

	mov	ecx, DWORD PTR _this$[ebp]
	call	?OnDeviceTypeChanged@CD3DSettingsDlg@@IAEJXZ ; CD3DSettingsDlg::OnDeviceTypeChanged
	jmp	$LN23@OnEvent
$LN18@OnEvent:

; 304  :         case DXUTSETTINGSDLG_WINDOWED:              OnWindowedFullScreenChanged(); break;

	mov	ecx, DWORD PTR _this$[ebp]
	call	?OnWindowedFullScreenChanged@CD3DSettingsDlg@@IAEJXZ ; CD3DSettingsDlg::OnWindowedFullScreenChanged
	jmp	$LN23@OnEvent
$LN17@OnEvent:

; 305  :         case DXUTSETTINGSDLG_FULLSCREEN:            OnWindowedFullScreenChanged(); break;

	mov	ecx, DWORD PTR _this$[ebp]
	call	?OnWindowedFullScreenChanged@CD3DSettingsDlg@@IAEJXZ ; CD3DSettingsDlg::OnWindowedFullScreenChanged
	jmp	$LN23@OnEvent
$LN16@OnEvent:

; 306  :         case DXUTSETTINGSDLG_ADAPTER_FORMAT:        OnAdapterFormatChanged(); break;

	mov	ecx, DWORD PTR _this$[ebp]
	call	?OnAdapterFormatChanged@CD3DSettingsDlg@@IAEJXZ ; CD3DSettingsDlg::OnAdapterFormatChanged
	jmp	$LN23@OnEvent
$LN15@OnEvent:

; 307  :         case DXUTSETTINGSDLG_RESOLUTION:            OnResolutionChanged(); break;

	mov	ecx, DWORD PTR _this$[ebp]
	call	?OnResolutionChanged@CD3DSettingsDlg@@IAEJXZ ; CD3DSettingsDlg::OnResolutionChanged
	jmp	$LN23@OnEvent
$LN14@OnEvent:

; 308  :         case DXUTSETTINGSDLG_REFRESH_RATE:          OnRefreshRateChanged(); break;

	mov	ecx, DWORD PTR _this$[ebp]
	call	?OnRefreshRateChanged@CD3DSettingsDlg@@IAEJXZ ; CD3DSettingsDlg::OnRefreshRateChanged
	jmp	$LN23@OnEvent
$LN13@OnEvent:

; 309  :         case DXUTSETTINGSDLG_BACK_BUFFER_FORMAT:    OnBackBufferFormatChanged(); break;

	mov	ecx, DWORD PTR _this$[ebp]
	call	?OnBackBufferFormatChanged@CD3DSettingsDlg@@IAEJXZ ; CD3DSettingsDlg::OnBackBufferFormatChanged
	jmp	$LN23@OnEvent
$LN12@OnEvent:

; 310  :         case DXUTSETTINGSDLG_DEPTH_STENCIL:         OnDepthStencilBufferFormatChanged(); break;

	mov	ecx, DWORD PTR _this$[ebp]
	call	?OnDepthStencilBufferFormatChanged@CD3DSettingsDlg@@IAEJXZ ; CD3DSettingsDlg::OnDepthStencilBufferFormatChanged
	jmp	$LN23@OnEvent
$LN11@OnEvent:

; 311  :         case DXUTSETTINGSDLG_MULTISAMPLE_TYPE:      OnMultisampleTypeChanged(); break;

	mov	ecx, DWORD PTR _this$[ebp]
	call	?OnMultisampleTypeChanged@CD3DSettingsDlg@@IAEJXZ ; CD3DSettingsDlg::OnMultisampleTypeChanged
	jmp	$LN23@OnEvent
$LN10@OnEvent:

; 312  :         case DXUTSETTINGSDLG_MULTISAMPLE_QUALITY:   OnMultisampleQualityChanged(); break;

	mov	ecx, DWORD PTR _this$[ebp]
	call	?OnMultisampleQualityChanged@CD3DSettingsDlg@@IAEJXZ ; CD3DSettingsDlg::OnMultisampleQualityChanged
	jmp	$LN23@OnEvent
$LN9@OnEvent:

; 313  :         case DXUTSETTINGSDLG_VERTEX_PROCESSING:     OnVertexProcessingChanged(); break;

	mov	ecx, DWORD PTR _this$[ebp]
	call	?OnVertexProcessingChanged@CD3DSettingsDlg@@IAEJXZ ; CD3DSettingsDlg::OnVertexProcessingChanged
	jmp	$LN23@OnEvent
$LN8@OnEvent:

; 314  :         case DXUTSETTINGSDLG_PRESENT_INTERVAL:      OnPresentIntervalChanged(); break;

	mov	ecx, DWORD PTR _this$[ebp]
	call	?OnPresentIntervalChanged@CD3DSettingsDlg@@IAEJXZ ; CD3DSettingsDlg::OnPresentIntervalChanged
	jmp	$LN23@OnEvent
$LN7@OnEvent:

; 315  :         case DXUTSETTINGSDLG_DEVICECLIP:            OnDeviceClipChanged(); break;

	mov	ecx, DWORD PTR _this$[ebp]
	call	?OnDeviceClipChanged@CD3DSettingsDlg@@IAEJXZ ; CD3DSettingsDlg::OnDeviceClipChanged
	jmp	$LN23@OnEvent
$LN6@OnEvent:

; 316  : 
; 317  :         case DXUTSETTINGSDLG_OK:
; 318  :         {
; 319  :             if( g_DeviceSettings.pp.Windowed )

	cmp	DWORD PTR ?g_DeviceSettings@@3UDXUTDeviceSettings@@A+48, 0
	je	$LN5@OnEvent

; 320  :             {
; 321  :                 g_DeviceSettings.pp.FullScreen_RefreshRateInHz = 0;

	mov	DWORD PTR ?g_DeviceSettings@@3UDXUTDeviceSettings@@A+64, 0

; 322  : 
; 323  :                 RECT rcClient;
; 324  :                 if( DXUTIsWindowed() )

	call	?DXUTIsWindowed@@YA_NXZ			; DXUTIsWindowed
	movzx	eax, al
	test	eax, eax
	je	SHORT $LN4@OnEvent

; 325  :                     GetClientRect( DXUTGetHWND(), &rcClient );

	mov	esi, esp
	lea	eax, DWORD PTR _rcClient$5[ebp]
	push	eax
	call	?DXUTGetHWND@@YAPAUHWND__@@XZ		; DXUTGetHWND
	push	eax
	call	DWORD PTR __imp__GetClientRect@8
	cmp	esi, esp
	call	__RTC_CheckEsp

; 326  :                 else

	jmp	SHORT $LN3@OnEvent
$LN4@OnEvent:

; 327  :                     rcClient = DXUTGetWindowClientRectAtModeChange();

	lea	eax, DWORD PTR $T2[ebp]
	push	eax
	call	?DXUTGetWindowClientRectAtModeChange@@YA?AUtagRECT@@XZ ; DXUTGetWindowClientRectAtModeChange
	add	esp, 4
	mov	ecx, DWORD PTR [eax]
	mov	DWORD PTR $T1[ebp], ecx
	mov	edx, DWORD PTR [eax+4]
	mov	DWORD PTR $T1[ebp+4], edx
	mov	ecx, DWORD PTR [eax+8]
	mov	DWORD PTR $T1[ebp+8], ecx
	mov	edx, DWORD PTR [eax+12]
	mov	DWORD PTR $T1[ebp+12], edx
	mov	eax, DWORD PTR $T1[ebp]
	mov	DWORD PTR _rcClient$5[ebp], eax
	mov	ecx, DWORD PTR $T1[ebp+4]
	mov	DWORD PTR _rcClient$5[ebp+4], ecx
	mov	edx, DWORD PTR $T1[ebp+8]
	mov	DWORD PTR _rcClient$5[ebp+8], edx
	mov	eax, DWORD PTR $T1[ebp+12]
	mov	DWORD PTR _rcClient$5[ebp+12], eax
$LN3@OnEvent:

; 328  :                 DWORD dwWindowWidth  = rcClient.right - rcClient.left;

	mov	eax, DWORD PTR _rcClient$5[ebp+8]
	sub	eax, DWORD PTR _rcClient$5[ebp]
	mov	DWORD PTR _dwWindowWidth$4[ebp], eax

; 329  :                 DWORD dwWindowHeight = rcClient.bottom - rcClient.top;

	mov	eax, DWORD PTR _rcClient$5[ebp+12]
	sub	eax, DWORD PTR _rcClient$5[ebp+4]
	mov	DWORD PTR _dwWindowHeight$3[ebp], eax

; 330  : 
; 331  :                 g_DeviceSettings.pp.BackBufferWidth = dwWindowWidth;

	mov	eax, DWORD PTR _dwWindowWidth$4[ebp]
	mov	DWORD PTR ?g_DeviceSettings@@3UDXUTDeviceSettings@@A+16, eax

; 332  :                 g_DeviceSettings.pp.BackBufferHeight = dwWindowHeight;

	mov	eax, DWORD PTR _dwWindowHeight$3[ebp]
	mov	DWORD PTR ?g_DeviceSettings@@3UDXUTDeviceSettings@@A+20, eax
$LN5@OnEvent:

; 333  :             }
; 334  : 
; 335  :             if( g_DeviceSettings.pp.MultiSampleType != D3DMULTISAMPLE_NONE )

	cmp	DWORD PTR ?g_DeviceSettings@@3UDXUTDeviceSettings@@A+32, 0
	je	SHORT $LN2@OnEvent

; 336  :             {
; 337  :                 g_DeviceSettings.pp.Flags &= ~D3DPRESENTFLAG_LOCKABLE_BACKBUFFER;

	mov	eax, DWORD PTR ?g_DeviceSettings@@3UDXUTDeviceSettings@@A+60
	and	eax, -2					; fffffffeH
	mov	DWORD PTR ?g_DeviceSettings@@3UDXUTDeviceSettings@@A+60, eax
$LN2@OnEvent:

; 338  :             }
; 339  : 
; 340  :             DXUTCreateDeviceFromSettings( &g_DeviceSettings );

	push	1
	push	0
	push	OFFSET ?g_DeviceSettings@@3UDXUTDeviceSettings@@A ; g_DeviceSettings
	call	?DXUTCreateDeviceFromSettings@@YAJPAUDXUTDeviceSettings@@_N1@Z ; DXUTCreateDeviceFromSettings
	add	esp, 12					; 0000000cH

; 341  : 
; 342  :             SetActive( false );

	push	0
	mov	ecx, DWORD PTR _this$[ebp]
	call	?SetActive@CD3DSettingsDlg@@QAEX_N@Z	; CD3DSettingsDlg::SetActive

; 343  :             break;

	jmp	SHORT $LN23@OnEvent
$LN1@OnEvent:

; 344  :         }
; 345  : 
; 346  :         case DXUTSETTINGSDLG_CANCEL:                
; 347  :         {
; 348  :             SetActive( false );

	push	0
	mov	ecx, DWORD PTR _this$[ebp]
	call	?SetActive@CD3DSettingsDlg@@QAEX_N@Z	; CD3DSettingsDlg::SetActive
$LN23@OnEvent:

; 349  :             break;
; 350  :         }
; 351  : 
; 352  :     }
; 353  : }

	push	edx
	mov	ecx, ebp
	push	eax
	lea	edx, DWORD PTR $LN27@OnEvent
	call	@_RTC_CheckStackVars@8
	pop	eax
	pop	edx
	pop	edi
	pop	esi
	pop	ebx
	mov	ecx, DWORD PTR __$ArrayPad$[ebp]
	xor	ecx, ebp
	call	@__security_check_cookie@4
	add	esp, 308				; 00000134H
	cmp	ebp, esp
	call	__RTC_CheckEsp
	mov	esp, ebp
	pop	ebp
	ret	12					; 0000000cH
	npad	3
$LN27@OnEvent:
	DD	1
	DD	$LN26@OnEvent
$LN26@OnEvent:
	DD	-36					; ffffffdcH
	DD	16					; 00000010H
	DD	$LN25@OnEvent
$LN25@OnEvent:
	DB	114					; 00000072H
	DB	99					; 00000063H
	DB	67					; 00000043H
	DB	108					; 0000006cH
	DB	105					; 00000069H
	DB	101					; 00000065H
	DB	110					; 0000006eH
	DB	116					; 00000074H
	DB	0
	npad	3
$LN28@OnEvent:
	DD	$LN6@OnEvent
	DD	$LN1@OnEvent
	DD	$LN20@OnEvent
	DD	$LN19@OnEvent
	DD	$LN18@OnEvent
	DD	$LN17@OnEvent
	DD	$LN16@OnEvent
	DD	$LN23@OnEvent
	DD	$LN15@OnEvent
	DD	$LN23@OnEvent
	DD	$LN14@OnEvent
	DD	$LN23@OnEvent
	DD	$LN13@OnEvent
	DD	$LN12@OnEvent
	DD	$LN11@OnEvent
	DD	$LN10@OnEvent
	DD	$LN9@OnEvent
	DD	$LN8@OnEvent
	DD	$LN7@OnEvent
?OnEvent@CD3DSettingsDlg@@IAEXIHPAVCDXUTControl@@@Z ENDP ; CD3DSettingsDlg::OnEvent
_TEXT	ENDS
; Function compile flags: /Odtp /RTCsu /ZI
; File z:\sampsrc\02xu1\saco\d3d9\common\dxutsettingsdlg.cpp
;	COMDAT ?SetDeviceSettingsFromUI@CD3DSettingsDlg@@IAEJXZ
_TEXT	SEGMENT
_dwResolution$1 = -44					; size = 4
_pRadioButton$ = -32					; size = 4
_pComboBox$ = -20					; size = 4
_this$ = -8						; size = 4
?SetDeviceSettingsFromUI@CD3DSettingsDlg@@IAEJXZ PROC	; CD3DSettingsDlg::SetDeviceSettingsFromUI, COMDAT
; _this$ = ecx

; 358  : {

	push	ebp
	mov	ebp, esp
	sub	esp, 240				; 000000f0H
	push	ebx
	push	esi
	push	edi
	push	ecx
	lea	edi, DWORD PTR [ebp-240]
	mov	ecx, 60					; 0000003cH
	mov	eax, -858993460				; ccccccccH
	rep stosd
	pop	ecx
	mov	DWORD PTR _this$[ebp], ecx

; 359  :     CDXUTComboBox* pComboBox;
; 360  :     CDXUTRadioButton* pRadioButton;
; 361  : 
; 362  :     // DXUTSETTINGSDLG_DEVICE_TYPE
; 363  :     pComboBox = m_Dialog.GetComboBox( DXUTSETTINGSDLG_DEVICE_TYPE );

	push	4
	mov	ecx, DWORD PTR _this$[ebp]
	add	ecx, 4
	call	?GetComboBox@CDXUTDialog@@QAEPAVCDXUTComboBox@@H@Z ; CDXUTDialog::GetComboBox
	mov	DWORD PTR _pComboBox$[ebp], eax

; 364  :     g_DeviceSettings.DeviceType = (D3DDEVTYPE) PtrToUlong( pComboBox->GetSelectedData() );

	mov	ecx, DWORD PTR _pComboBox$[ebp]
	call	?GetSelectedData@CDXUTComboBox@@QAEPAXXZ ; CDXUTComboBox::GetSelectedData
	mov	DWORD PTR ?g_DeviceSettings@@3UDXUTDeviceSettings@@A+4, eax

; 365  :     
; 366  :     // DXUTSETTINGSDLG_WINDOWED
; 367  :     pRadioButton = m_Dialog.GetRadioButton( DXUTSETTINGSDLG_WINDOWED );

	push	5
	mov	ecx, DWORD PTR _this$[ebp]
	add	ecx, 4
	call	?GetRadioButton@CDXUTDialog@@QAEPAVCDXUTRadioButton@@H@Z ; CDXUTDialog::GetRadioButton
	mov	DWORD PTR _pRadioButton$[ebp], eax

; 368  :     g_DeviceSettings.pp.Windowed = pRadioButton->GetChecked();

	mov	ecx, DWORD PTR _pRadioButton$[ebp]
	call	?GetChecked@CDXUTCheckBox@@QAE_NXZ	; CDXUTCheckBox::GetChecked
	movzx	eax, al
	mov	DWORD PTR ?g_DeviceSettings@@3UDXUTDeviceSettings@@A+48, eax

; 369  : 
; 370  :     // DXUTSETTINGSDLG_ADAPTER_FORMAT
; 371  :     pComboBox = m_Dialog.GetComboBox( DXUTSETTINGSDLG_ADAPTER_FORMAT );

	push	7
	mov	ecx, DWORD PTR _this$[ebp]
	add	ecx, 4
	call	?GetComboBox@CDXUTDialog@@QAEPAVCDXUTComboBox@@H@Z ; CDXUTDialog::GetComboBox
	mov	DWORD PTR _pComboBox$[ebp], eax

; 372  :     g_DeviceSettings.AdapterFormat = (D3DFORMAT) PtrToUlong( pComboBox->GetSelectedData() );

	mov	ecx, DWORD PTR _pComboBox$[ebp]
	call	?GetSelectedData@CDXUTComboBox@@QAEPAXXZ ; CDXUTComboBox::GetSelectedData
	mov	DWORD PTR ?g_DeviceSettings@@3UDXUTDeviceSettings@@A+8, eax

; 373  :     
; 374  : 
; 375  :     if( g_DeviceSettings.pp.Windowed )

	cmp	DWORD PTR ?g_DeviceSettings@@3UDXUTDeviceSettings@@A+48, 0
	je	SHORT $LN2@SetDeviceS

; 376  :     {
; 377  :         g_DeviceSettings.pp.BackBufferFormat = D3DFMT_UNKNOWN;

	mov	DWORD PTR ?g_DeviceSettings@@3UDXUTDeviceSettings@@A+24, 0

; 378  :         g_DeviceSettings.pp.FullScreen_RefreshRateInHz = 0;

	mov	DWORD PTR ?g_DeviceSettings@@3UDXUTDeviceSettings@@A+64, 0

; 379  :     }
; 380  :     else

	jmp	SHORT $LN1@SetDeviceS
$LN2@SetDeviceS:

; 381  :     {
; 382  :         // DXUTSETTINGSDLG_BACK_BUFFER_FORMAT
; 383  :         pComboBox = m_Dialog.GetComboBox( DXUTSETTINGSDLG_BACK_BUFFER_FORMAT );

	push	13					; 0000000dH
	mov	ecx, DWORD PTR _this$[ebp]
	add	ecx, 4
	call	?GetComboBox@CDXUTDialog@@QAEPAVCDXUTComboBox@@H@Z ; CDXUTDialog::GetComboBox
	mov	DWORD PTR _pComboBox$[ebp], eax

; 384  :         g_DeviceSettings.pp.BackBufferFormat = (D3DFORMAT) PtrToUlong( pComboBox->GetSelectedData() );

	mov	ecx, DWORD PTR _pComboBox$[ebp]
	call	?GetSelectedData@CDXUTComboBox@@QAEPAXXZ ; CDXUTComboBox::GetSelectedData
	mov	DWORD PTR ?g_DeviceSettings@@3UDXUTDeviceSettings@@A+24, eax

; 385  :     
; 386  :         // DXUTSETTINGSDLG_RESOLUTION
; 387  :         pComboBox = m_Dialog.GetComboBox( DXUTSETTINGSDLG_RESOLUTION );

	push	9
	mov	ecx, DWORD PTR _this$[ebp]
	add	ecx, 4
	call	?GetComboBox@CDXUTDialog@@QAEPAVCDXUTComboBox@@H@Z ; CDXUTDialog::GetComboBox
	mov	DWORD PTR _pComboBox$[ebp], eax

; 388  :         DWORD dwResolution = PtrToUlong( pComboBox->GetSelectedData() );

	mov	ecx, DWORD PTR _pComboBox$[ebp]
	call	?GetSelectedData@CDXUTComboBox@@QAEPAXXZ ; CDXUTComboBox::GetSelectedData
	mov	DWORD PTR _dwResolution$1[ebp], eax

; 389  :         g_DeviceSettings.pp.BackBufferWidth = HIWORD( dwResolution );

	mov	eax, DWORD PTR _dwResolution$1[ebp]
	shr	eax, 16					; 00000010H
	and	eax, 65535				; 0000ffffH
	movzx	ecx, ax
	mov	DWORD PTR ?g_DeviceSettings@@3UDXUTDeviceSettings@@A+16, ecx

; 390  :         g_DeviceSettings.pp.BackBufferHeight = LOWORD( dwResolution );

	mov	eax, DWORD PTR _dwResolution$1[ebp]
	and	eax, 65535				; 0000ffffH
	movzx	ecx, ax
	mov	DWORD PTR ?g_DeviceSettings@@3UDXUTDeviceSettings@@A+20, ecx

; 391  :         
; 392  :         // DXUTSETTINGSDLG_REFRESH_RATE
; 393  :         pComboBox = m_Dialog.GetComboBox( DXUTSETTINGSDLG_REFRESH_RATE );

	push	11					; 0000000bH
	mov	ecx, DWORD PTR _this$[ebp]
	add	ecx, 4
	call	?GetComboBox@CDXUTDialog@@QAEPAVCDXUTComboBox@@H@Z ; CDXUTDialog::GetComboBox
	mov	DWORD PTR _pComboBox$[ebp], eax

; 394  :         g_DeviceSettings.pp.FullScreen_RefreshRateInHz = PtrToUlong( pComboBox->GetSelectedData() );

	mov	ecx, DWORD PTR _pComboBox$[ebp]
	call	?GetSelectedData@CDXUTComboBox@@QAEPAXXZ ; CDXUTComboBox::GetSelectedData
	mov	DWORD PTR ?g_DeviceSettings@@3UDXUTDeviceSettings@@A+64, eax
$LN1@SetDeviceS:

; 395  :     }
; 396  : 
; 397  :     // DXUTSETTINGSDLG_DEPTH_STENCIL
; 398  :     pComboBox = m_Dialog.GetComboBox( DXUTSETTINGSDLG_DEPTH_STENCIL );

	push	14					; 0000000eH
	mov	ecx, DWORD PTR _this$[ebp]
	add	ecx, 4
	call	?GetComboBox@CDXUTDialog@@QAEPAVCDXUTComboBox@@H@Z ; CDXUTDialog::GetComboBox
	mov	DWORD PTR _pComboBox$[ebp], eax

; 399  :     g_DeviceSettings.pp.AutoDepthStencilFormat = (D3DFORMAT) PtrToUlong( pComboBox->GetSelectedData() );

	mov	ecx, DWORD PTR _pComboBox$[ebp]
	call	?GetSelectedData@CDXUTComboBox@@QAEPAXXZ ; CDXUTComboBox::GetSelectedData
	mov	DWORD PTR ?g_DeviceSettings@@3UDXUTDeviceSettings@@A+56, eax

; 400  :     
; 401  :     return S_OK;

	xor	eax, eax

; 402  : }

	pop	edi
	pop	esi
	pop	ebx
	add	esp, 240				; 000000f0H
	cmp	ebp, esp
	call	__RTC_CheckEsp
	mov	esp, ebp
	pop	ebp
	ret	0
?SetDeviceSettingsFromUI@CD3DSettingsDlg@@IAEJXZ ENDP	; CD3DSettingsDlg::SetDeviceSettingsFromUI
_TEXT	ENDS
; Function compile flags: /Odtp /RTCsu /ZI
; File z:\sampsrc\02xu1\saco\d3d9\common\dxutsettingsdlg.cpp
;	COMDAT ?CreateControls@CD3DSettingsDlg@@IAEXXZ
_TEXT	SEGMENT
_pStatic$1 = -32					; size = 4
_pElement$ = -20					; size = 4
_this$ = -8						; size = 4
?CreateControls@CD3DSettingsDlg@@IAEXXZ PROC		; CD3DSettingsDlg::CreateControls, COMDAT
; _this$ = ecx

; 62   : {

	push	ebp
	mov	ebp, esp
	sub	esp, 228				; 000000e4H
	push	ebx
	push	esi
	push	edi
	push	ecx
	lea	edi, DWORD PTR [ebp-228]
	mov	ecx, 57					; 00000039H
	mov	eax, -858993460				; ccccccccH
	rep stosd
	pop	ecx
	mov	DWORD PTR _this$[ebp], ecx

; 63   :     m_Dialog.EnableKeyboardInput( true );

	push	1
	mov	ecx, DWORD PTR _this$[ebp]
	add	ecx, 4
	call	?EnableKeyboardInput@CDXUTDialog@@QAEX_N@Z ; CDXUTDialog::EnableKeyboardInput

; 64   :     m_Dialog.SetFont( 0, "Arial", 15, FW_NORMAL );

	push	400					; 00000190H
	push	15					; 0000000fH
	push	OFFSET ??_C@_05MPFIAJAP@Arial?$AA@
	push	0
	mov	ecx, DWORD PTR _this$[ebp]
	add	ecx, 4
	call	?SetFont@CDXUTDialog@@QAEJIPBDJJ@Z	; CDXUTDialog::SetFont

; 65   :     m_Dialog.SetFont( 1, "Arial", 28, FW_BOLD );

	push	700					; 000002bcH
	push	28					; 0000001cH
	push	OFFSET ??_C@_05MPFIAJAP@Arial?$AA@
	push	1
	mov	ecx, DWORD PTR _this$[ebp]
	add	ecx, 4
	call	?SetFont@CDXUTDialog@@QAEJIPBDJJ@Z	; CDXUTDialog::SetFont

; 66   : 
; 67   :     // Right-justify static controls
; 68   :     CDXUTElement* pElement = m_Dialog.GetDefaultElement( DXUT_CONTROL_STATIC, 0 );

	push	0
	push	1
	mov	ecx, DWORD PTR _this$[ebp]
	add	ecx, 4
	call	?GetDefaultElement@CDXUTDialog@@QAEPAVCDXUTElement@@II@Z ; CDXUTDialog::GetDefaultElement
	mov	DWORD PTR _pElement$[ebp], eax

; 69   :     if( pElement )

	cmp	DWORD PTR _pElement$[ebp], 0
	je	SHORT $LN1@CreateCont

; 70   :     {
; 71   :         pElement->dwTextFormat = DT_VCENTER | DT_RIGHT;

	mov	eax, DWORD PTR _pElement$[ebp]
	mov	DWORD PTR [eax+8], 6

; 72   :         
; 73   :         // Title
; 74   :         CDXUTStatic* pStatic = NULL;

	mov	DWORD PTR _pStatic$1[ebp], 0

; 75   :         m_Dialog.AddStatic( DXUTSETTINGSDLG_STATIC, "Direct3D Settings", 10, 5, 400, 50, false, &pStatic );

	lea	eax, DWORD PTR _pStatic$1[ebp]
	push	eax
	push	0
	push	50					; 00000032H
	push	400					; 00000190H
	push	5
	push	10					; 0000000aH
	push	OFFSET ??_C@_0BC@IPHGBCKD@Direct3D?5Settings?$AA@
	push	-1
	mov	ecx, DWORD PTR _this$[ebp]
	add	ecx, 4
	call	?AddStatic@CDXUTDialog@@QAEJHPBDHHHH_NPAPAVCDXUTStatic@@@Z ; CDXUTDialog::AddStatic

; 76   :         pElement = pStatic->GetElement( 0 );

	push	0
	mov	ecx, DWORD PTR _pStatic$1[ebp]
	call	?GetElement@CDXUTControl@@QAEPAVCDXUTElement@@I@Z ; CDXUTControl::GetElement
	mov	DWORD PTR _pElement$[ebp], eax

; 77   :         pElement->iFont = 1;

	mov	eax, DWORD PTR _pElement$[ebp]
	mov	DWORD PTR [eax+4], 1

; 78   :         pElement->dwTextFormat = DT_TOP | DT_LEFT;

	mov	eax, DWORD PTR _pElement$[ebp]
	mov	DWORD PTR [eax+8], 0
$LN1@CreateCont:

; 79   :     }
; 80   : 
; 81   :     // DXUTSETTINGSDLG_ADAPTER
; 82   :     m_Dialog.AddStatic( DXUTSETTINGSDLG_STATIC, "Display Adapter", 10, 50, 180, 23 );

	push	0
	push	0
	push	23					; 00000017H
	push	180					; 000000b4H
	push	50					; 00000032H
	push	10					; 0000000aH
	push	OFFSET ??_C@_0BA@NCOOEBAA@Display?5Adapter?$AA@
	push	-1
	mov	ecx, DWORD PTR _this$[ebp]
	add	ecx, 4
	call	?AddStatic@CDXUTDialog@@QAEJHPBDHHHH_NPAPAVCDXUTStatic@@@Z ; CDXUTDialog::AddStatic

; 83   :     m_Dialog.AddComboBox( DXUTSETTINGSDLG_ADAPTER, 200, 50, 300, 23 );

	push	0
	push	0
	push	0
	push	23					; 00000017H
	push	300					; 0000012cH
	push	50					; 00000032H
	push	200					; 000000c8H
	push	3
	mov	ecx, DWORD PTR _this$[ebp]
	add	ecx, 4
	call	?AddComboBox@CDXUTDialog@@QAEJHHHHHI_NPAPAVCDXUTComboBox@@@Z ; CDXUTDialog::AddComboBox

; 84   : 
; 85   :     // DXUTSETTINGSDLG_DEVICE_TYPE
; 86   :     m_Dialog.AddStatic( DXUTSETTINGSDLG_STATIC, "Render Device", 10, 75, 180, 23 );

	push	0
	push	0
	push	23					; 00000017H
	push	180					; 000000b4H
	push	75					; 0000004bH
	push	10					; 0000000aH
	push	OFFSET ??_C@_0O@EAKEHECG@Render?5Device?$AA@
	push	-1
	mov	ecx, DWORD PTR _this$[ebp]
	add	ecx, 4
	call	?AddStatic@CDXUTDialog@@QAEJHPBDHHHH_NPAPAVCDXUTStatic@@@Z ; CDXUTDialog::AddStatic

; 87   :     m_Dialog.AddComboBox( DXUTSETTINGSDLG_DEVICE_TYPE, 200, 75, 300, 23 );

	push	0
	push	0
	push	0
	push	23					; 00000017H
	push	300					; 0000012cH
	push	75					; 0000004bH
	push	200					; 000000c8H
	push	4
	mov	ecx, DWORD PTR _this$[ebp]
	add	ecx, 4
	call	?AddComboBox@CDXUTDialog@@QAEJHHHHHI_NPAPAVCDXUTComboBox@@@Z ; CDXUTDialog::AddComboBox

; 88   : 
; 89   :     // DXUTSETTINGSDLG_WINDOWED, DXUTSETTINGSDLG_FULLSCREEN
; 90   :     m_Dialog.AddRadioButton( DXUTSETTINGSDLG_WINDOWED, DXUTSETTINGSDLG_WINDOWED_GROUP, "Windowed", 240, 105, 300, 16 );

	push	0
	push	0
	push	0
	push	0
	push	16					; 00000010H
	push	300					; 0000012cH
	push	105					; 00000069H
	push	240					; 000000f0H
	push	OFFSET ??_C@_08CKIKNJFL@Windowed?$AA@
	push	256					; 00000100H
	push	5
	mov	ecx, DWORD PTR _this$[ebp]
	add	ecx, 4
	call	?AddRadioButton@CDXUTDialog@@QAEJHIPBDHHHH_NI1PAPAVCDXUTRadioButton@@@Z ; CDXUTDialog::AddRadioButton

; 91   :     m_Dialog.AddCheckBox( DXUTSETTINGSDLG_DEVICECLIP, "Clip to device when window spans across multiple monitors", 250, 126, 400, 16 );

	push	0
	push	0
	push	0
	push	0
	push	16					; 00000010H
	push	400					; 00000190H
	push	126					; 0000007eH
	push	250					; 000000faH
	push	OFFSET ??_C@_0DK@IBFBNHLK@Clip?5to?5device?5when?5window?5spans@
	push	19					; 00000013H
	mov	ecx, DWORD PTR _this$[ebp]
	add	ecx, 4
	call	?AddCheckBox@CDXUTDialog@@QAEJHPBDHHHH_NI1PAPAVCDXUTCheckBox@@@Z ; CDXUTDialog::AddCheckBox

; 92   :     m_Dialog.AddRadioButton( DXUTSETTINGSDLG_FULLSCREEN, DXUTSETTINGSDLG_WINDOWED_GROUP, "Full Screen", 240, 147, 300, 16 );

	push	0
	push	0
	push	0
	push	0
	push	16					; 00000010H
	push	300					; 0000012cH
	push	147					; 00000093H
	push	240					; 000000f0H
	push	OFFSET ??_C@_0M@PKCOFEIL@Full?5Screen?$AA@
	push	256					; 00000100H
	push	6
	mov	ecx, DWORD PTR _this$[ebp]
	add	ecx, 4
	call	?AddRadioButton@CDXUTDialog@@QAEJHIPBDHHHH_NI1PAPAVCDXUTRadioButton@@@Z ; CDXUTDialog::AddRadioButton

; 93   : 
; 94   :     // DXUTSETTINGSDLG_ADAPTER_FORMAT
; 95   :     m_Dialog.AddStatic( DXUTSETTINGSDLG_ADAPTER_FORMAT_LABEL, "Adapter Format", 10, 180, 180, 23 );

	push	0
	push	0
	push	23					; 00000017H
	push	180					; 000000b4H
	push	180					; 000000b4H
	push	10					; 0000000aH
	push	OFFSET ??_C@_0P@PBAFMFII@Adapter?5Format?$AA@
	push	8
	mov	ecx, DWORD PTR _this$[ebp]
	add	ecx, 4
	call	?AddStatic@CDXUTDialog@@QAEJHPBDHHHH_NPAPAVCDXUTStatic@@@Z ; CDXUTDialog::AddStatic

; 96   :     m_Dialog.AddComboBox( DXUTSETTINGSDLG_ADAPTER_FORMAT, 200, 180, 300, 23 );

	push	0
	push	0
	push	0
	push	23					; 00000017H
	push	300					; 0000012cH
	push	180					; 000000b4H
	push	200					; 000000c8H
	push	7
	mov	ecx, DWORD PTR _this$[ebp]
	add	ecx, 4
	call	?AddComboBox@CDXUTDialog@@QAEJHHHHHI_NPAPAVCDXUTComboBox@@@Z ; CDXUTDialog::AddComboBox

; 97   : 
; 98   :     // DXUTSETTINGSDLG_RESOLUTION
; 99   :     m_Dialog.AddStatic( DXUTSETTINGSDLG_RESOLUTION_LABEL, "Resolution", 10, 205, 180, 23 );

	push	0
	push	0
	push	23					; 00000017H
	push	180					; 000000b4H
	push	205					; 000000cdH
	push	10					; 0000000aH
	push	OFFSET ??_C@_0L@KGPBCGJE@Resolution?$AA@
	push	10					; 0000000aH
	mov	ecx, DWORD PTR _this$[ebp]
	add	ecx, 4
	call	?AddStatic@CDXUTDialog@@QAEJHPBDHHHH_NPAPAVCDXUTStatic@@@Z ; CDXUTDialog::AddStatic

; 100  :     m_Dialog.AddComboBox( DXUTSETTINGSDLG_RESOLUTION, 200, 205, 300, 23 );

	push	0
	push	0
	push	0
	push	23					; 00000017H
	push	300					; 0000012cH
	push	205					; 000000cdH
	push	200					; 000000c8H
	push	9
	mov	ecx, DWORD PTR _this$[ebp]
	add	ecx, 4
	call	?AddComboBox@CDXUTDialog@@QAEJHHHHHI_NPAPAVCDXUTComboBox@@@Z ; CDXUTDialog::AddComboBox

; 101  :     m_Dialog.GetComboBox( DXUTSETTINGSDLG_RESOLUTION )->SetDropHeight( 106 );

	push	106					; 0000006aH
	push	9
	mov	ecx, DWORD PTR _this$[ebp]
	add	ecx, 4
	call	?GetComboBox@CDXUTDialog@@QAEPAVCDXUTComboBox@@H@Z ; CDXUTDialog::GetComboBox
	mov	ecx, eax
	call	?SetDropHeight@CDXUTComboBox@@QAEXI@Z	; CDXUTComboBox::SetDropHeight

; 102  : 
; 103  :     // DXUTSETTINGSDLG_REFRESH_RATE
; 104  :     m_Dialog.AddStatic( DXUTSETTINGSDLG_REFRESH_RATE_LABEL, "Refresh Rate", 10, 230, 180, 23 );

	push	0
	push	0
	push	23					; 00000017H
	push	180					; 000000b4H
	push	230					; 000000e6H
	push	10					; 0000000aH
	push	OFFSET ??_C@_0N@GCJECPAO@Refresh?5Rate?$AA@
	push	12					; 0000000cH
	mov	ecx, DWORD PTR _this$[ebp]
	add	ecx, 4
	call	?AddStatic@CDXUTDialog@@QAEJHPBDHHHH_NPAPAVCDXUTStatic@@@Z ; CDXUTDialog::AddStatic

; 105  :     m_Dialog.AddComboBox( DXUTSETTINGSDLG_REFRESH_RATE, 200, 230, 300, 23 );

	push	0
	push	0
	push	0
	push	23					; 00000017H
	push	300					; 0000012cH
	push	230					; 000000e6H
	push	200					; 000000c8H
	push	11					; 0000000bH
	mov	ecx, DWORD PTR _this$[ebp]
	add	ecx, 4
	call	?AddComboBox@CDXUTDialog@@QAEJHHHHHI_NPAPAVCDXUTComboBox@@@Z ; CDXUTDialog::AddComboBox

; 106  : 
; 107  :     // DXUTSETTINGSDLG_BACK_BUFFER_FORMAT
; 108  :     m_Dialog.AddStatic( DXUTSETTINGSDLG_STATIC, "Back Buffer Format", 10, 265, 180, 23 );

	push	0
	push	0
	push	23					; 00000017H
	push	180					; 000000b4H
	push	265					; 00000109H
	push	10					; 0000000aH
	push	OFFSET ??_C@_0BD@CBHMGFOH@Back?5Buffer?5Format?$AA@
	push	-1
	mov	ecx, DWORD PTR _this$[ebp]
	add	ecx, 4
	call	?AddStatic@CDXUTDialog@@QAEJHPBDHHHH_NPAPAVCDXUTStatic@@@Z ; CDXUTDialog::AddStatic

; 109  :     m_Dialog.AddComboBox( DXUTSETTINGSDLG_BACK_BUFFER_FORMAT, 200, 265, 300, 23 );

	push	0
	push	0
	push	0
	push	23					; 00000017H
	push	300					; 0000012cH
	push	265					; 00000109H
	push	200					; 000000c8H
	push	13					; 0000000dH
	mov	ecx, DWORD PTR _this$[ebp]
	add	ecx, 4
	call	?AddComboBox@CDXUTDialog@@QAEJHHHHHI_NPAPAVCDXUTComboBox@@@Z ; CDXUTDialog::AddComboBox

; 110  : 
; 111  :     // DXUTSETTINGSDLG_DEPTH_STENCIL
; 112  :     m_Dialog.AddStatic( DXUTSETTINGSDLG_STATIC, "Depth/Stencil Format", 10, 290, 180, 23 );

	push	0
	push	0
	push	23					; 00000017H
	push	180					; 000000b4H
	push	290					; 00000122H
	push	10					; 0000000aH
	push	OFFSET ??_C@_0BF@GFFPGCOA@Depth?1Stencil?5Format?$AA@
	push	-1
	mov	ecx, DWORD PTR _this$[ebp]
	add	ecx, 4
	call	?AddStatic@CDXUTDialog@@QAEJHPBDHHHH_NPAPAVCDXUTStatic@@@Z ; CDXUTDialog::AddStatic

; 113  :     m_Dialog.AddComboBox( DXUTSETTINGSDLG_DEPTH_STENCIL, 200, 290, 300, 23 );

	push	0
	push	0
	push	0
	push	23					; 00000017H
	push	300					; 0000012cH
	push	290					; 00000122H
	push	200					; 000000c8H
	push	14					; 0000000eH
	mov	ecx, DWORD PTR _this$[ebp]
	add	ecx, 4
	call	?AddComboBox@CDXUTDialog@@QAEJHHHHHI_NPAPAVCDXUTComboBox@@@Z ; CDXUTDialog::AddComboBox

; 114  : 
; 115  :     // DXUTSETTINGSDLG_MULTISAMPLE_TYPE
; 116  :     m_Dialog.AddStatic( DXUTSETTINGSDLG_STATIC, "Multisample Type", 10, 315, 180, 23 );

	push	0
	push	0
	push	23					; 00000017H
	push	180					; 000000b4H
	push	315					; 0000013bH
	push	10					; 0000000aH
	push	OFFSET ??_C@_0BB@HJDEFCIC@Multisample?5Type?$AA@
	push	-1
	mov	ecx, DWORD PTR _this$[ebp]
	add	ecx, 4
	call	?AddStatic@CDXUTDialog@@QAEJHPBDHHHH_NPAPAVCDXUTStatic@@@Z ; CDXUTDialog::AddStatic

; 117  :     m_Dialog.AddComboBox( DXUTSETTINGSDLG_MULTISAMPLE_TYPE, 200, 315, 300, 23 );

	push	0
	push	0
	push	0
	push	23					; 00000017H
	push	300					; 0000012cH
	push	315					; 0000013bH
	push	200					; 000000c8H
	push	15					; 0000000fH
	mov	ecx, DWORD PTR _this$[ebp]
	add	ecx, 4
	call	?AddComboBox@CDXUTDialog@@QAEJHHHHHI_NPAPAVCDXUTComboBox@@@Z ; CDXUTDialog::AddComboBox

; 118  : 
; 119  :     // DXUTSETTINGSDLG_MULTISAMPLE_QUALITY
; 120  :     m_Dialog.AddStatic( DXUTSETTINGSDLG_STATIC, "Multisample Quality", 10, 340, 180, 23 );

	push	0
	push	0
	push	23					; 00000017H
	push	180					; 000000b4H
	push	340					; 00000154H
	push	10					; 0000000aH
	push	OFFSET ??_C@_0BE@OKHJGJBB@Multisample?5Quality?$AA@
	push	-1
	mov	ecx, DWORD PTR _this$[ebp]
	add	ecx, 4
	call	?AddStatic@CDXUTDialog@@QAEJHPBDHHHH_NPAPAVCDXUTStatic@@@Z ; CDXUTDialog::AddStatic

; 121  :     m_Dialog.AddComboBox( DXUTSETTINGSDLG_MULTISAMPLE_QUALITY, 200, 340, 300, 23 );

	push	0
	push	0
	push	0
	push	23					; 00000017H
	push	300					; 0000012cH
	push	340					; 00000154H
	push	200					; 000000c8H
	push	16					; 00000010H
	mov	ecx, DWORD PTR _this$[ebp]
	add	ecx, 4
	call	?AddComboBox@CDXUTDialog@@QAEJHHHHHI_NPAPAVCDXUTComboBox@@@Z ; CDXUTDialog::AddComboBox

; 122  : 
; 123  :      // DXUTSETTINGSDLG_VERTEX_PROCESSING
; 124  :     m_Dialog.AddStatic( DXUTSETTINGSDLG_STATIC, "Vertex Processing", 10, 365, 180, 23 );

	push	0
	push	0
	push	23					; 00000017H
	push	180					; 000000b4H
	push	365					; 0000016dH
	push	10					; 0000000aH
	push	OFFSET ??_C@_0BC@DCIOODHA@Vertex?5Processing?$AA@
	push	-1
	mov	ecx, DWORD PTR _this$[ebp]
	add	ecx, 4
	call	?AddStatic@CDXUTDialog@@QAEJHPBDHHHH_NPAPAVCDXUTStatic@@@Z ; CDXUTDialog::AddStatic

; 125  :     m_Dialog.AddComboBox( DXUTSETTINGSDLG_VERTEX_PROCESSING, 200, 365, 300, 23 );

	push	0
	push	0
	push	0
	push	23					; 00000017H
	push	300					; 0000012cH
	push	365					; 0000016dH
	push	200					; 000000c8H
	push	17					; 00000011H
	mov	ecx, DWORD PTR _this$[ebp]
	add	ecx, 4
	call	?AddComboBox@CDXUTDialog@@QAEJHHHHHI_NPAPAVCDXUTComboBox@@@Z ; CDXUTDialog::AddComboBox

; 126  : 
; 127  :      // DXUTSETTINGSDLG_PRESENT_INTERVAL
; 128  :     m_Dialog.AddStatic( DXUTSETTINGSDLG_STATIC, "Present Interval", 10, 390, 180, 23 );

	push	0
	push	0
	push	23					; 00000017H
	push	180					; 000000b4H
	push	390					; 00000186H
	push	10					; 0000000aH
	push	OFFSET ??_C@_0BB@KKDKFJOK@Present?5Interval?$AA@
	push	-1
	mov	ecx, DWORD PTR _this$[ebp]
	add	ecx, 4
	call	?AddStatic@CDXUTDialog@@QAEJHPBDHHHH_NPAPAVCDXUTStatic@@@Z ; CDXUTDialog::AddStatic

; 129  :     m_Dialog.AddComboBox( DXUTSETTINGSDLG_PRESENT_INTERVAL, 200, 390, 300, 23 );

	push	0
	push	0
	push	0
	push	23					; 00000017H
	push	300					; 0000012cH
	push	390					; 00000186H
	push	200					; 000000c8H
	push	18					; 00000012H
	mov	ecx, DWORD PTR _this$[ebp]
	add	ecx, 4
	call	?AddComboBox@CDXUTDialog@@QAEJHHHHHI_NPAPAVCDXUTComboBox@@@Z ; CDXUTDialog::AddComboBox

; 130  :     
; 131  :     // DXUTSETTINGSDLG_OK, DXUTSETTINGSDLG_CANCEL
; 132  :     m_Dialog.AddButton( DXUTSETTINGSDLG_OK, "OK", 230, 435, 73, 31 );

	push	0
	push	0
	push	0
	push	31					; 0000001fH
	push	73					; 00000049H
	push	435					; 000001b3H
	push	230					; 000000e6H
	push	OFFSET ??_C@_02GIPFHKNO@OK?$AA@
	push	1
	mov	ecx, DWORD PTR _this$[ebp]
	add	ecx, 4
	call	?AddButton@CDXUTDialog@@QAEJHPBDHHHHI_NPAPAVCDXUTButton@@@Z ; CDXUTDialog::AddButton

; 133  :     m_Dialog.AddButton( DXUTSETTINGSDLG_CANCEL, "Cancel", 315, 435, 73, 31, 0, true );

	push	0
	push	1
	push	0
	push	31					; 0000001fH
	push	73					; 00000049H
	push	435					; 000001b3H
	push	315					; 0000013bH
	push	OFFSET ??_C@_06FMBNCPDL@Cancel?$AA@
	push	2
	mov	ecx, DWORD PTR _this$[ebp]
	add	ecx, 4
	call	?AddButton@CDXUTDialog@@QAEJHPBDHHHHI_NPAPAVCDXUTButton@@@Z ; CDXUTDialog::AddButton

; 134  : }

	push	edx
	mov	ecx, ebp
	push	eax
	lea	edx, DWORD PTR $LN6@CreateCont
	call	@_RTC_CheckStackVars@8
	pop	eax
	pop	edx
	pop	edi
	pop	esi
	pop	ebx
	add	esp, 228				; 000000e4H
	cmp	ebp, esp
	call	__RTC_CheckEsp
	mov	esp, ebp
	pop	ebp
	ret	0
	npad	1
$LN6@CreateCont:
	DD	1
	DD	$LN5@CreateCont
$LN5@CreateCont:
	DD	-32					; ffffffe0H
	DD	4
	DD	$LN4@CreateCont
$LN4@CreateCont:
	DB	112					; 00000070H
	DB	83					; 00000053H
	DB	116					; 00000074H
	DB	97					; 00000061H
	DB	116					; 00000074H
	DB	105					; 00000069H
	DB	99					; 00000063H
	DB	0
?CreateControls@CD3DSettingsDlg@@IAEXXZ ENDP		; CD3DSettingsDlg::CreateControls
_TEXT	ENDS
; Function compile flags: /Odtp /RTCsu /ZI
; File z:\sampsrc\02xu1\saco\d3d9\common\dxutsettingsdlg.cpp
;	COMDAT ?DXUTGetSettingsDialog@@YAPAVCD3DSettingsDlg@@XZ
_TEXT	SEGMENT
__$EHRec$ = -12						; size = 12
?DXUTGetSettingsDialog@@YAPAVCD3DSettingsDlg@@XZ PROC	; DXUTGetSettingsDialog, COMDAT

; 30   : {

	push	ebp
	mov	ebp, esp
	push	-1
	push	__ehhandler$?DXUTGetSettingsDialog@@YAPAVCD3DSettingsDlg@@XZ
	mov	eax, DWORD PTR fs:0
	push	eax
	sub	esp, 192				; 000000c0H
	push	ebx
	push	esi
	push	edi
	lea	edi, DWORD PTR [ebp-204]
	mov	ecx, 48					; 00000030H
	mov	eax, -858993460				; ccccccccH
	rep stosd
	mov	eax, DWORD PTR ___security_cookie
	xor	eax, ebp
	push	eax
	lea	eax, DWORD PTR __$EHRec$[ebp]
	mov	DWORD PTR fs:0, eax

; 31   :     // Using an accessor function gives control of the construction order
; 32   :     static CD3DSettingsDlg dlg;

	mov	eax, DWORD PTR ?$S1@?1??DXUTGetSettingsDialog@@YAPAVCD3DSettingsDlg@@XZ@4IA
	and	eax, 1
	jne	SHORT $LN1@DXUTGetSet
	mov	eax, DWORD PTR ?$S1@?1??DXUTGetSettingsDialog@@YAPAVCD3DSettingsDlg@@XZ@4IA
	or	eax, 1
	mov	DWORD PTR ?$S1@?1??DXUTGetSettingsDialog@@YAPAVCD3DSettingsDlg@@XZ@4IA, eax
	mov	DWORD PTR __$EHRec$[ebp+8], 0
	mov	ecx, OFFSET ?dlg@?1??DXUTGetSettingsDialog@@YAPAVCD3DSettingsDlg@@XZ@4V2@A
	call	??0CD3DSettingsDlg@@QAE@XZ		; CD3DSettingsDlg::CD3DSettingsDlg
	push	OFFSET ??__Fdlg@?1??DXUTGetSettingsDialog@@YAPAVCD3DSettingsDlg@@XZ@YAXXZ ; `DXUTGetSettingsDialog'::`2'::`dynamic atexit destructor for 'dlg''
	call	_atexit
	add	esp, 4
	mov	DWORD PTR __$EHRec$[ebp+8], -1
$LN1@DXUTGetSet:

; 33   :     return &dlg;

	mov	eax, OFFSET ?dlg@?1??DXUTGetSettingsDialog@@YAPAVCD3DSettingsDlg@@XZ@4V2@A

; 34   : }

	mov	ecx, DWORD PTR __$EHRec$[ebp]
	mov	DWORD PTR fs:0, ecx
	pop	ecx
	pop	edi
	pop	esi
	pop	ebx
	add	esp, 204				; 000000ccH
	cmp	ebp, esp
	call	__RTC_CheckEsp
	mov	esp, ebp
	pop	ebp
	ret	0
_TEXT	ENDS
;	COMDAT text$x
text$x	SEGMENT
__unwindfunclet$?DXUTGetSettingsDialog@@YAPAVCD3DSettingsDlg@@XZ$0:
	mov	eax, DWORD PTR ?$S1@?1??DXUTGetSettingsDialog@@YAPAVCD3DSettingsDlg@@XZ@4IA
	and	eax, -2					; fffffffeH
	mov	DWORD PTR ?$S1@?1??DXUTGetSettingsDialog@@YAPAVCD3DSettingsDlg@@XZ@4IA, eax
	ret	0
__ehhandler$?DXUTGetSettingsDialog@@YAPAVCD3DSettingsDlg@@XZ:
	mov	edx, DWORD PTR [esp+8]
	lea	eax, DWORD PTR [edx+12]
	mov	ecx, DWORD PTR [edx-208]
	xor	ecx, eax
	call	@__security_check_cookie@4
	mov	eax, OFFSET __ehfuncinfo$?DXUTGetSettingsDialog@@YAPAVCD3DSettingsDlg@@XZ
	jmp	___CxxFrameHandler3
text$x	ENDS
?DXUTGetSettingsDialog@@YAPAVCD3DSettingsDlg@@XZ ENDP	; DXUTGetSettingsDialog
; Function compile flags: /Odtp /RTCsu /ZI
; File z:\sampsrc\02xu1\saco\d3d9\common\dxutsettingsdlg.cpp
;	COMDAT ?MsgProc@CD3DSettingsDlg@@QAEJPAUHWND__@@IIJ@Z
_TEXT	SEGMENT
_this$ = -8						; size = 4
_hWnd$ = 8						; size = 4
_uMsg$ = 12						; size = 4
_wParam$ = 16						; size = 4
_lParam$ = 20						; size = 4
?MsgProc@CD3DSettingsDlg@@QAEJPAUHWND__@@IIJ@Z PROC	; CD3DSettingsDlg::MsgProc, COMDAT
; _this$ = ecx

; 262  : {

	push	ebp
	mov	ebp, esp
	sub	esp, 204				; 000000ccH
	push	ebx
	push	esi
	push	edi
	push	ecx
	lea	edi, DWORD PTR [ebp-204]
	mov	ecx, 51					; 00000033H
	mov	eax, -858993460				; ccccccccH
	rep stosd
	pop	ecx
	mov	DWORD PTR _this$[ebp], ecx

; 263  :     m_Dialog.MsgProc( hWnd, uMsg, wParam, lParam );

	mov	eax, DWORD PTR _lParam$[ebp]
	push	eax
	mov	ecx, DWORD PTR _wParam$[ebp]
	push	ecx
	mov	edx, DWORD PTR _uMsg$[ebp]
	push	edx
	mov	eax, DWORD PTR _hWnd$[ebp]
	push	eax
	mov	ecx, DWORD PTR _this$[ebp]
	add	ecx, 4
	call	?MsgProc@CDXUTDialog@@QAE_NPAUHWND__@@IIJ@Z ; CDXUTDialog::MsgProc

; 264  :     if( uMsg == WM_KEYDOWN && wParam == VK_F2 )

	cmp	DWORD PTR _uMsg$[ebp], 256		; 00000100H
	jne	SHORT $LN1@MsgProc
	cmp	DWORD PTR _wParam$[ebp], 113		; 00000071H
	jne	SHORT $LN1@MsgProc

; 265  :         SetActive( false );

	push	0
	mov	ecx, DWORD PTR _this$[ebp]
	call	?SetActive@CD3DSettingsDlg@@QAEX_N@Z	; CD3DSettingsDlg::SetActive
$LN1@MsgProc:

; 266  :     return 0;

	xor	eax, eax

; 267  : }

	pop	edi
	pop	esi
	pop	ebx
	add	esp, 204				; 000000ccH
	cmp	ebp, esp
	call	__RTC_CheckEsp
	mov	esp, ebp
	pop	ebp
	ret	16					; 00000010H
?MsgProc@CD3DSettingsDlg@@QAEJPAUHWND__@@IIJ@Z ENDP	; CD3DSettingsDlg::MsgProc
_TEXT	ENDS
; Function compile flags: /Odtp /RTCsu /ZI
; File z:\sampsrc\02xu1\saco\d3d9\common\dxutsettingsdlg.h
;	COMDAT ?SetActive@CD3DSettingsDlg@@QAEX_N@Z
_TEXT	SEGMENT
_this$ = -8						; size = 4
_bActive$ = 8						; size = 1
?SetActive@CD3DSettingsDlg@@QAEX_N@Z PROC		; CD3DSettingsDlg::SetActive, COMDAT
; _this$ = ecx

; 59   :     void SetActive( bool bActive ) { m_bActive = bActive; if( bActive ) Refresh(); }

	push	ebp
	mov	ebp, esp
	sub	esp, 204				; 000000ccH
	push	ebx
	push	esi
	push	edi
	push	ecx
	lea	edi, DWORD PTR [ebp-204]
	mov	ecx, 51					; 00000033H
	mov	eax, -858993460				; ccccccccH
	rep stosd
	pop	ecx
	mov	DWORD PTR _this$[ebp], ecx
	mov	eax, DWORD PTR _this$[ebp]
	mov	cl, BYTE PTR _bActive$[ebp]
	mov	BYTE PTR [eax+494], cl
	movzx	eax, BYTE PTR _bActive$[ebp]
	test	eax, eax
	je	SHORT $LN2@SetActive
	mov	ecx, DWORD PTR _this$[ebp]
	call	?Refresh@CD3DSettingsDlg@@QAEJXZ	; CD3DSettingsDlg::Refresh
$LN2@SetActive:
	pop	edi
	pop	esi
	pop	ebx
	add	esp, 204				; 000000ccH
	cmp	ebp, esp
	call	__RTC_CheckEsp
	mov	esp, ebp
	pop	ebp
	ret	4
?SetActive@CD3DSettingsDlg@@QAEX_N@Z ENDP		; CD3DSettingsDlg::SetActive
_TEXT	ENDS
; Function compile flags: /Odtp /RTCsu /ZI
; File z:\sampsrc\02xu1\saco\d3d9\common\dxutsettingsdlg.cpp
;	COMDAT ?OnDestroyDevice@CD3DSettingsDlg@@QAEJXZ
_TEXT	SEGMENT
_this$ = -8						; size = 4
?OnDestroyDevice@CD3DSettingsDlg@@QAEJXZ PROC		; CD3DSettingsDlg::OnDestroyDevice, COMDAT
; _this$ = ecx

; 280  : {

	push	ebp
	mov	ebp, esp
	sub	esp, 204				; 000000ccH
	push	ebx
	push	esi
	push	edi
	push	ecx
	lea	edi, DWORD PTR [ebp-204]
	mov	ecx, 51					; 00000033H
	mov	eax, -858993460				; ccccccccH
	rep stosd
	pop	ecx
	mov	DWORD PTR _this$[ebp], ecx

; 281  :     m_Dialog.ClearFocus();

	call	?ClearFocus@CDXUTDialog@@SAXXZ		; CDXUTDialog::ClearFocus

; 282  :     return S_OK;

	xor	eax, eax

; 283  : }

	pop	edi
	pop	esi
	pop	ebx
	add	esp, 204				; 000000ccH
	cmp	ebp, esp
	call	__RTC_CheckEsp
	mov	esp, ebp
	pop	ebp
	ret	0
?OnDestroyDevice@CD3DSettingsDlg@@QAEJXZ ENDP		; CD3DSettingsDlg::OnDestroyDevice
_TEXT	ENDS
; Function compile flags: /Odtp /RTCsu /ZI
; File z:\sampsrc\02xu1\saco\d3d9\common\dxutsettingsdlg.cpp
;	COMDAT ?OnRender@CD3DSettingsDlg@@QAEJM@Z
_TEXT	SEGMENT
_pd3dDevice$ = -20					; size = 4
_this$ = -8						; size = 4
_fElapsedTime$ = 8					; size = 4
?OnRender@CD3DSettingsDlg@@QAEJM@Z PROC			; CD3DSettingsDlg::OnRender, COMDAT
; _this$ = ecx

; 240  : {

	push	ebp
	mov	ebp, esp
	sub	esp, 216				; 000000d8H
	push	ebx
	push	esi
	push	edi
	push	ecx
	lea	edi, DWORD PTR [ebp-216]
	mov	ecx, 54					; 00000036H
	mov	eax, -858993460				; ccccccccH
	rep stosd
	pop	ecx
	mov	DWORD PTR _this$[ebp], ecx

; 241  :     IDirect3DDevice9* pd3dDevice = DXUTGetD3DDevice();

	call	?DXUTGetD3DDevice@@YAPAUIDirect3DDevice9@@XZ ; DXUTGetD3DDevice
	mov	DWORD PTR _pd3dDevice$[ebp], eax

; 242  : 
; 243  :     // Clear the render target and the zbuffer 
; 244  :     pd3dDevice->Clear(0, NULL, D3DCLEAR_TARGET, 0x00003F3F, 1.0f, 0);

	mov	esi, esp
	push	0
	push	ecx
	movss	xmm0, DWORD PTR __real@3f800000
	movss	DWORD PTR [esp], xmm0
	push	16191					; 00003f3fH
	push	1
	push	0
	push	0
	mov	eax, DWORD PTR _pd3dDevice$[ebp]
	mov	ecx, DWORD PTR [eax]
	mov	edx, DWORD PTR _pd3dDevice$[ebp]
	push	edx
	mov	eax, DWORD PTR [ecx+172]
	call	eax
	cmp	esi, esp
	call	__RTC_CheckEsp

; 245  : 
; 246  :     // Render the scene
; 247  :     if( SUCCEEDED( pd3dDevice->BeginScene() ) )

	mov	eax, DWORD PTR _pd3dDevice$[ebp]
	mov	ecx, DWORD PTR [eax]
	mov	esi, esp
	mov	edx, DWORD PTR _pd3dDevice$[ebp]
	push	edx
	mov	eax, DWORD PTR [ecx+164]
	call	eax
	cmp	esi, esp
	call	__RTC_CheckEsp
	test	eax, eax
	jl	$LN1@OnRender

; 248  :     {
; 249  :         m_pStateBlock->Capture();

	mov	eax, DWORD PTR _this$[ebp]
	mov	ecx, DWORD PTR [eax]
	mov	edx, DWORD PTR _this$[ebp]
	mov	eax, DWORD PTR [edx]
	mov	ecx, DWORD PTR [ecx]
	mov	esi, esp
	push	eax
	mov	edx, DWORD PTR [ecx+16]
	call	edx
	cmp	esi, esp
	call	__RTC_CheckEsp

; 250  :         pd3dDevice->SetRenderState( D3DRS_FILLMODE, D3DFILL_SOLID ); 

	mov	esi, esp
	push	3
	push	8
	mov	eax, DWORD PTR _pd3dDevice$[ebp]
	mov	ecx, DWORD PTR [eax]
	mov	edx, DWORD PTR _pd3dDevice$[ebp]
	push	edx
	mov	eax, DWORD PTR [ecx+228]
	call	eax
	cmp	esi, esp
	call	__RTC_CheckEsp

; 251  :         m_Dialog.OnRender( fElapsedTime );    

	push	ecx
	movss	xmm0, DWORD PTR _fElapsedTime$[ebp]
	movss	DWORD PTR [esp], xmm0
	mov	ecx, DWORD PTR _this$[ebp]
	add	ecx, 4
	call	?OnRender@CDXUTDialog@@QAEJM@Z		; CDXUTDialog::OnRender

; 252  :         m_pStateBlock->Apply();

	mov	eax, DWORD PTR _this$[ebp]
	mov	ecx, DWORD PTR [eax]
	mov	edx, DWORD PTR _this$[ebp]
	mov	eax, DWORD PTR [edx]
	mov	ecx, DWORD PTR [ecx]
	mov	esi, esp
	push	eax
	mov	edx, DWORD PTR [ecx+20]
	call	edx
	cmp	esi, esp
	call	__RTC_CheckEsp

; 253  :         pd3dDevice->EndScene();

	mov	eax, DWORD PTR _pd3dDevice$[ebp]
	mov	ecx, DWORD PTR [eax]
	mov	esi, esp
	mov	edx, DWORD PTR _pd3dDevice$[ebp]
	push	edx
	mov	eax, DWORD PTR [ecx+168]
	call	eax
	cmp	esi, esp
	call	__RTC_CheckEsp
$LN1@OnRender:

; 254  :     }
; 255  :     
; 256  :     return S_OK;

	xor	eax, eax

; 257  : }

	pop	edi
	pop	esi
	pop	ebx
	add	esp, 216				; 000000d8H
	cmp	ebp, esp
	call	__RTC_CheckEsp
	mov	esp, ebp
	pop	ebp
	ret	4
?OnRender@CD3DSettingsDlg@@QAEJM@Z ENDP			; CD3DSettingsDlg::OnRender
_TEXT	ENDS
; Function compile flags: /Odtp /RTCsu /ZI
; File z:\sampsrc\02xu1\saco\d3d9\common\dxutsettingsdlg.cpp
;	COMDAT ?OnLostDevice@CD3DSettingsDlg@@QAEJXZ
_TEXT	SEGMENT
_this$ = -8						; size = 4
?OnLostDevice@CD3DSettingsDlg@@QAEJXZ PROC		; CD3DSettingsDlg::OnLostDevice, COMDAT
; _this$ = ecx

; 272  : {

	push	ebp
	mov	ebp, esp
	sub	esp, 204				; 000000ccH
	push	ebx
	push	esi
	push	edi
	push	ecx
	lea	edi, DWORD PTR [ebp-204]
	mov	ecx, 51					; 00000033H
	mov	eax, -858993460				; ccccccccH
	rep stosd
	pop	ecx
	mov	DWORD PTR _this$[ebp], ecx

; 273  :     SAFE_RELEASE( m_pStateBlock );

	mov	eax, DWORD PTR _this$[ebp]
	cmp	DWORD PTR [eax], 0
	je	SHORT $LN1@OnLostDevi
	mov	eax, DWORD PTR _this$[ebp]
	mov	ecx, DWORD PTR [eax]
	mov	edx, DWORD PTR _this$[ebp]
	mov	eax, DWORD PTR [edx]
	mov	ecx, DWORD PTR [ecx]
	mov	esi, esp
	push	eax
	mov	edx, DWORD PTR [ecx+8]
	call	edx
	cmp	esi, esp
	call	__RTC_CheckEsp
	mov	eax, DWORD PTR _this$[ebp]
	mov	DWORD PTR [eax], 0
$LN1@OnLostDevi:

; 274  :     return S_OK;

	xor	eax, eax

; 275  : }

	pop	edi
	pop	esi
	pop	ebx
	add	esp, 204				; 000000ccH
	cmp	ebp, esp
	call	__RTC_CheckEsp
	mov	esp, ebp
	pop	ebp
	ret	0
?OnLostDevice@CD3DSettingsDlg@@QAEJXZ ENDP		; CD3DSettingsDlg::OnLostDevice
_TEXT	ENDS
; Function compile flags: /Odtp /RTCsu /ZI
; File z:\sampsrc\02xu1\saco\d3d9\common\dxutsettingsdlg.cpp
;	COMDAT ?OnResetDevice@CD3DSettingsDlg@@QAEJXZ
_TEXT	SEGMENT
_pd3dDevice$ = -32					; size = 4
_pDesc$ = -20						; size = 4
_this$ = -8						; size = 4
?OnResetDevice@CD3DSettingsDlg@@QAEJXZ PROC		; CD3DSettingsDlg::OnResetDevice, COMDAT
; _this$ = ecx

; 219  : {

	push	ebp
	mov	ebp, esp
	sub	esp, 228				; 000000e4H
	push	ebx
	push	esi
	push	edi
	push	ecx
	lea	edi, DWORD PTR [ebp-228]
	mov	ecx, 57					; 00000039H
	mov	eax, -858993460				; ccccccccH
	rep stosd
	pop	ecx
	mov	DWORD PTR _this$[ebp], ecx

; 220  :     const D3DSURFACE_DESC* pDesc = DXUTGetBackBufferSurfaceDesc();

	call	?DXUTGetBackBufferSurfaceDesc@@YAPBU_D3DSURFACE_DESC@@XZ ; DXUTGetBackBufferSurfaceDesc
	mov	DWORD PTR _pDesc$[ebp], eax

; 221  :     m_Dialog.SetLocation( 0, 0 );

	push	0
	push	0
	mov	ecx, DWORD PTR _this$[ebp]
	add	ecx, 4
	call	?SetLocation@CDXUTDialog@@QAEXHH@Z	; CDXUTDialog::SetLocation

; 222  :     m_Dialog.SetSize( pDesc->Width, pDesc->Height );

	mov	eax, DWORD PTR _pDesc$[ebp]
	mov	ecx, DWORD PTR [eax+28]
	push	ecx
	mov	edx, DWORD PTR _pDesc$[ebp]
	mov	eax, DWORD PTR [edx+24]
	push	eax
	mov	ecx, DWORD PTR _this$[ebp]
	add	ecx, 4
	call	?SetSize@CDXUTDialog@@QAEXHH@Z		; CDXUTDialog::SetSize

; 223  :     m_Dialog.SetBackgroundColors( D3DCOLOR_ARGB(255, 98, 138, 206), 
; 224  :                                          D3DCOLOR_ARGB(255, 54, 105, 192),
; 225  :                                          D3DCOLOR_ARGB(255, 54, 105, 192),
; 226  :                                          D3DCOLOR_ARGB(255, 10,  73, 179) );

	push	-16102989				; ff0a49b3H
	push	-13211200				; ff3669c0H
	push	-13211200				; ff3669c0H
	push	-10319154				; ff628aceH
	mov	ecx, DWORD PTR _this$[ebp]
	add	ecx, 4
	call	?SetBackgroundColors@CDXUTDialog@@QAEXKKKK@Z ; CDXUTDialog::SetBackgroundColors

; 227  :     
; 228  :     
; 229  :     IDirect3DDevice9* pd3dDevice = DXUTGetD3DDevice();

	call	?DXUTGetD3DDevice@@YAPAUIDirect3DDevice9@@XZ ; DXUTGetD3DDevice
	mov	DWORD PTR _pd3dDevice$[ebp], eax

; 230  :     pd3dDevice->BeginStateBlock();

	mov	eax, DWORD PTR _pd3dDevice$[ebp]
	mov	ecx, DWORD PTR [eax]
	mov	esi, esp
	mov	edx, DWORD PTR _pd3dDevice$[ebp]
	push	edx
	mov	eax, DWORD PTR [ecx+240]
	call	eax
	cmp	esi, esp
	call	__RTC_CheckEsp

; 231  :     pd3dDevice->SetRenderState( D3DRS_FILLMODE, D3DFILL_SOLID ); 

	mov	esi, esp
	push	3
	push	8
	mov	eax, DWORD PTR _pd3dDevice$[ebp]
	mov	ecx, DWORD PTR [eax]
	mov	edx, DWORD PTR _pd3dDevice$[ebp]
	push	edx
	mov	eax, DWORD PTR [ecx+228]
	call	eax
	cmp	esi, esp
	call	__RTC_CheckEsp

; 232  :     pd3dDevice->EndStateBlock( &m_pStateBlock );

	mov	eax, DWORD PTR _this$[ebp]
	mov	esi, esp
	push	eax
	mov	ecx, DWORD PTR _pd3dDevice$[ebp]
	mov	edx, DWORD PTR [ecx]
	mov	eax, DWORD PTR _pd3dDevice$[ebp]
	push	eax
	mov	ecx, DWORD PTR [edx+244]
	call	ecx
	cmp	esi, esp
	call	__RTC_CheckEsp

; 233  : 
; 234  :     return S_OK;

	xor	eax, eax

; 235  : }

	pop	edi
	pop	esi
	pop	ebx
	add	esp, 228				; 000000e4H
	cmp	ebp, esp
	call	__RTC_CheckEsp
	mov	esp, ebp
	pop	ebp
	ret	0
?OnResetDevice@CD3DSettingsDlg@@QAEJXZ ENDP		; CD3DSettingsDlg::OnResetDevice
_TEXT	ENDS
; Function compile flags: /Odtp /RTCsu /ZI
; File z:\sampsrc\02xu1\saco\d3d9\common\dxutsettingsdlg.cpp
;	COMDAT ?Refresh@CD3DSettingsDlg@@QAEJXZ
_TEXT	SEGMENT
tv255 = -452						; size = 4
tv147 = -452						; size = 4
tv77 = -449						; size = 1
tv72 = -449						; size = 1
$T1 = -444						; size = 72
$T2 = -364						; size = 72
_pAdapterInfo$3 = -92					; size = 4
_iAdapter$4 = -80					; size = 4
_pAdapterCombo$ = -68					; size = 4
_pAdapterInfoList$ = -56				; size = 4
_pBestDeviceSettingsCombo$ = -44			; size = 4
_pD3DEnum$ = -32					; size = 4
_hr$ = -20						; size = 4
_this$ = -8						; size = 4
?Refresh@CD3DSettingsDlg@@QAEJXZ PROC			; CD3DSettingsDlg::Refresh, COMDAT
; _this$ = ecx

; 154  : {

	push	ebp
	mov	ebp, esp
	sub	esp, 452				; 000001c4H
	push	ebx
	push	esi
	push	edi
	push	ecx
	lea	edi, DWORD PTR [ebp-452]
	mov	ecx, 113				; 00000071H
	mov	eax, -858993460				; ccccccccH
	rep stosd
	pop	ecx
	mov	DWORD PTR _this$[ebp], ecx

; 155  :     HRESULT hr = S_OK;

	mov	DWORD PTR _hr$[ebp], 0

; 156  : 
; 157  :     CD3DEnumeration* pD3DEnum = DXUTGetEnumeration();

	call	?DXUTGetEnumeration@@YAPAVCD3DEnumeration@@XZ ; DXUTGetEnumeration
	mov	DWORD PTR _pD3DEnum$[ebp], eax

; 158  :     g_DeviceSettings = DXUTGetDeviceSettings();

	lea	eax, DWORD PTR $T2[ebp]
	push	eax
	call	?DXUTGetDeviceSettings@@YA?AUDXUTDeviceSettings@@XZ ; DXUTGetDeviceSettings
	add	esp, 4
	mov	ecx, 18					; 00000012H
	mov	esi, eax
	lea	edi, DWORD PTR $T1[ebp]
	rep movsd
	mov	ecx, 18					; 00000012H
	lea	esi, DWORD PTR $T1[ebp]
	mov	edi, OFFSET ?g_DeviceSettings@@3UDXUTDeviceSettings@@A ; g_DeviceSettings
	rep movsd

; 159  : 
; 160  :     // Fill the UI with the current settings
; 161  :     AddDeviceType( g_DeviceSettings.DeviceType );

	mov	eax, DWORD PTR ?g_DeviceSettings@@3UDXUTDeviceSettings@@A+4
	push	eax
	mov	ecx, DWORD PTR _this$[ebp]
	call	?AddDeviceType@CD3DSettingsDlg@@IAEXW4_D3DDEVTYPE@@@Z ; CD3DSettingsDlg::AddDeviceType

; 162  :     SetWindowed( FALSE != g_DeviceSettings.pp.Windowed );

	cmp	DWORD PTR ?g_DeviceSettings@@3UDXUTDeviceSettings@@A+48, 0
	je	SHORT $LN16@Refresh
	mov	BYTE PTR tv72[ebp], 1
	jmp	SHORT $LN17@Refresh
$LN16@Refresh:
	mov	BYTE PTR tv72[ebp], 0
$LN17@Refresh:
	movzx	eax, BYTE PTR tv72[ebp]
	push	eax
	mov	ecx, DWORD PTR _this$[ebp]
	call	?SetWindowed@CD3DSettingsDlg@@IAEX_N@Z	; CD3DSettingsDlg::SetWindowed

; 163  :     SetDeviceClip( 0 != (g_DeviceSettings.pp.Flags & D3DPRESENTFLAG_DEVICECLIP) );

	mov	eax, DWORD PTR ?g_DeviceSettings@@3UDXUTDeviceSettings@@A+60
	and	eax, 4
	je	SHORT $LN18@Refresh
	mov	BYTE PTR tv77[ebp], 1
	jmp	SHORT $LN19@Refresh
$LN18@Refresh:
	mov	BYTE PTR tv77[ebp], 0
$LN19@Refresh:
	movzx	ecx, BYTE PTR tv77[ebp]
	push	ecx
	mov	ecx, DWORD PTR _this$[ebp]
	call	?SetDeviceClip@CD3DSettingsDlg@@IAEX_N@Z ; CD3DSettingsDlg::SetDeviceClip

; 164  :     AddAdapterFormat( g_DeviceSettings.AdapterFormat );

	mov	eax, DWORD PTR ?g_DeviceSettings@@3UDXUTDeviceSettings@@A+8
	push	eax
	mov	ecx, DWORD PTR _this$[ebp]
	call	?AddAdapterFormat@CD3DSettingsDlg@@IAEXW4_D3DFORMAT@@@Z ; CD3DSettingsDlg::AddAdapterFormat

; 165  :     AddResolution( g_DeviceSettings.pp.BackBufferWidth, g_DeviceSettings.pp.BackBufferHeight );

	mov	eax, DWORD PTR ?g_DeviceSettings@@3UDXUTDeviceSettings@@A+20
	push	eax
	mov	ecx, DWORD PTR ?g_DeviceSettings@@3UDXUTDeviceSettings@@A+16
	push	ecx
	mov	ecx, DWORD PTR _this$[ebp]
	call	?AddResolution@CD3DSettingsDlg@@IAEXKK@Z ; CD3DSettingsDlg::AddResolution

; 166  :     AddRefreshRate( g_DeviceSettings.pp.FullScreen_RefreshRateInHz );

	mov	eax, DWORD PTR ?g_DeviceSettings@@3UDXUTDeviceSettings@@A+64
	push	eax
	mov	ecx, DWORD PTR _this$[ebp]
	call	?AddRefreshRate@CD3DSettingsDlg@@IAEXK@Z ; CD3DSettingsDlg::AddRefreshRate

; 167  :     AddBackBufferFormat( g_DeviceSettings.pp.BackBufferFormat );

	mov	eax, DWORD PTR ?g_DeviceSettings@@3UDXUTDeviceSettings@@A+24
	push	eax
	mov	ecx, DWORD PTR _this$[ebp]
	call	?AddBackBufferFormat@CD3DSettingsDlg@@IAEXW4_D3DFORMAT@@@Z ; CD3DSettingsDlg::AddBackBufferFormat

; 168  :     AddDepthStencilBufferFormat( g_DeviceSettings.pp.AutoDepthStencilFormat );

	mov	eax, DWORD PTR ?g_DeviceSettings@@3UDXUTDeviceSettings@@A+56
	push	eax
	mov	ecx, DWORD PTR _this$[ebp]
	call	?AddDepthStencilBufferFormat@CD3DSettingsDlg@@IAEXW4_D3DFORMAT@@@Z ; CD3DSettingsDlg::AddDepthStencilBufferFormat

; 169  :     AddMultisampleType( g_DeviceSettings.pp.MultiSampleType );

	mov	eax, DWORD PTR ?g_DeviceSettings@@3UDXUTDeviceSettings@@A+32
	push	eax
	mov	ecx, DWORD PTR _this$[ebp]
	call	?AddMultisampleType@CD3DSettingsDlg@@IAEXW4_D3DMULTISAMPLE_TYPE@@@Z ; CD3DSettingsDlg::AddMultisampleType

; 170  :     AddMultisampleQuality( g_DeviceSettings.pp.MultiSampleQuality );

	mov	eax, DWORD PTR ?g_DeviceSettings@@3UDXUTDeviceSettings@@A+36
	push	eax
	mov	ecx, DWORD PTR _this$[ebp]
	call	?AddMultisampleQuality@CD3DSettingsDlg@@IAEXK@Z ; CD3DSettingsDlg::AddMultisampleQuality

; 171  :     
; 172  :     if( g_DeviceSettings.BehaviorFlags & D3DCREATE_PUREDEVICE )

	mov	eax, DWORD PTR ?g_DeviceSettings@@3UDXUTDeviceSettings@@A+12
	and	eax, 16					; 00000010H
	je	SHORT $LN13@Refresh

; 173  :         AddVertexProcessingType( D3DCREATE_PUREDEVICE );

	push	16					; 00000010H
	mov	ecx, DWORD PTR _this$[ebp]
	call	?AddVertexProcessingType@CD3DSettingsDlg@@IAEXK@Z ; CD3DSettingsDlg::AddVertexProcessingType
	jmp	SHORT $LN7@Refresh
$LN13@Refresh:

; 174  :     else if( g_DeviceSettings.BehaviorFlags & D3DCREATE_HARDWARE_VERTEXPROCESSING )

	mov	eax, DWORD PTR ?g_DeviceSettings@@3UDXUTDeviceSettings@@A+12
	and	eax, 64					; 00000040H
	je	SHORT $LN11@Refresh

; 175  :         AddVertexProcessingType( D3DCREATE_HARDWARE_VERTEXPROCESSING );

	push	64					; 00000040H
	mov	ecx, DWORD PTR _this$[ebp]
	call	?AddVertexProcessingType@CD3DSettingsDlg@@IAEXK@Z ; CD3DSettingsDlg::AddVertexProcessingType
	jmp	SHORT $LN7@Refresh
$LN11@Refresh:

; 176  :     else if( g_DeviceSettings.BehaviorFlags & D3DCREATE_SOFTWARE_VERTEXPROCESSING )

	mov	eax, DWORD PTR ?g_DeviceSettings@@3UDXUTDeviceSettings@@A+12
	and	eax, 32					; 00000020H
	je	SHORT $LN9@Refresh

; 177  :         AddVertexProcessingType( D3DCREATE_SOFTWARE_VERTEXPROCESSING );

	push	32					; 00000020H
	mov	ecx, DWORD PTR _this$[ebp]
	call	?AddVertexProcessingType@CD3DSettingsDlg@@IAEXK@Z ; CD3DSettingsDlg::AddVertexProcessingType
	jmp	SHORT $LN7@Refresh
$LN9@Refresh:

; 178  :     else if( g_DeviceSettings.BehaviorFlags & D3DCREATE_MIXED_VERTEXPROCESSING )

	mov	eax, DWORD PTR ?g_DeviceSettings@@3UDXUTDeviceSettings@@A+12
	and	eax, 128				; 00000080H
	je	SHORT $LN7@Refresh

; 179  :         AddVertexProcessingType( D3DCREATE_MIXED_VERTEXPROCESSING );

	push	128					; 00000080H
	mov	ecx, DWORD PTR _this$[ebp]
	call	?AddVertexProcessingType@CD3DSettingsDlg@@IAEXK@Z ; CD3DSettingsDlg::AddVertexProcessingType
$LN7@Refresh:

; 180  : 
; 181  :     AddPresentInterval( g_DeviceSettings.pp.PresentationInterval );

	mov	eax, DWORD PTR ?g_DeviceSettings@@3UDXUTDeviceSettings@@A+68
	push	eax
	mov	ecx, DWORD PTR _this$[ebp]
	call	?AddPresentInterval@CD3DSettingsDlg@@IAEXK@Z ; CD3DSettingsDlg::AddPresentInterval

; 182  : 
; 183  : 
; 184  :     CD3DEnumDeviceSettingsCombo* pBestDeviceSettingsCombo = pD3DEnum->GetDeviceSettingsCombo( g_DeviceSettings.AdapterOrdinal, g_DeviceSettings.DeviceType, g_DeviceSettings.AdapterFormat, g_DeviceSettings.pp.BackBufferFormat, (g_DeviceSettings.pp.Windowed != 0) );

	cmp	DWORD PTR ?g_DeviceSettings@@3UDXUTDeviceSettings@@A+48, 0
	je	SHORT $LN20@Refresh
	mov	DWORD PTR tv147[ebp], 1
	jmp	SHORT $LN21@Refresh
$LN20@Refresh:
	mov	DWORD PTR tv147[ebp], 0
$LN21@Refresh:
	mov	eax, DWORD PTR tv147[ebp]
	push	eax
	mov	ecx, DWORD PTR ?g_DeviceSettings@@3UDXUTDeviceSettings@@A+24
	push	ecx
	mov	edx, DWORD PTR ?g_DeviceSettings@@3UDXUTDeviceSettings@@A+8
	push	edx
	mov	eax, DWORD PTR ?g_DeviceSettings@@3UDXUTDeviceSettings@@A+4
	push	eax
	mov	ecx, DWORD PTR ?g_DeviceSettings@@3UDXUTDeviceSettings@@A
	push	ecx
	mov	ecx, DWORD PTR _pD3DEnum$[ebp]
	call	?GetDeviceSettingsCombo@CD3DEnumeration@@QAEPAUCD3DEnumDeviceSettingsCombo@@IW4_D3DDEVTYPE@@W4_D3DFORMAT@@1H@Z ; CD3DEnumeration::GetDeviceSettingsCombo
	mov	DWORD PTR _pBestDeviceSettingsCombo$[ebp], eax

; 185  :     if( NULL == pBestDeviceSettingsCombo )

	cmp	DWORD PTR _pBestDeviceSettingsCombo$[ebp], 0
	jne	SHORT $LN6@Refresh

; 186  :         return DXUT_ERR_MSGBOX( "GetDeviceSettingsCombo", E_INVALIDARG );    

	push	1
	push	OFFSET ??_C@_0BH@DKAMNCJK@GetDeviceSettingsCombo?$AA@
	push	-2147024809				; 80070057H
	mov	eax, DWORD PTR ?__LINE__Var@?1??Refresh@CD3DSettingsDlg@@QAEJXZ@4JA
	add	eax, 32					; 00000020H
	push	eax
	push	OFFSET ??_C@_0DG@DJJIHDHJ@z?3?2sampsrc?202xu1?2saco?2d3d9?2commo@
	call	?DXUTTrace@@YGJPBDKJ0_N@Z		; DXUTTrace
	jmp	$LN14@Refresh
$LN6@Refresh:

; 187  : 
; 188  :     // Get the adapters list from CD3DEnumeration object
; 189  :     CGrowableArray<CD3DEnumAdapterInfo*>* pAdapterInfoList = pD3DEnum->GetAdapterInfoList();

	mov	ecx, DWORD PTR _pD3DEnum$[ebp]
	call	?GetAdapterInfoList@CD3DEnumeration@@QAEPAV?$CGrowableArray@PAVCD3DEnumAdapterInfo@@@@XZ ; CD3DEnumeration::GetAdapterInfoList
	mov	DWORD PTR _pAdapterInfoList$[ebp], eax

; 190  : 
; 191  :     if( pAdapterInfoList->GetSize() == 0 )

	mov	ecx, DWORD PTR _pAdapterInfoList$[ebp]
	call	?GetSize@?$CGrowableArray@PAVCD3DEnumAdapterInfo@@@@QBEHXZ ; CGrowableArray<CD3DEnumAdapterInfo *>::GetSize
	test	eax, eax
	jne	SHORT $LN5@Refresh

; 192  :         return DXUT_ERR_MSGBOX( "CD3DSettingsDlg::OnCreatedDevice", DXUTERR_NOCOMPATIBLEDEVICES );

	push	1
	push	OFFSET ??_C@_0CB@MPDAPCIN@CD3DSettingsDlg?3?3OnCreatedDevice@
	push	-2147219198				; 80040902H
	mov	eax, DWORD PTR ?__LINE__Var@?1??Refresh@CD3DSettingsDlg@@QAEJXZ@4JA
	add	eax, 38					; 00000026H
	push	eax
	push	OFFSET ??_C@_0DG@DJJIHDHJ@z?3?2sampsrc?202xu1?2saco?2d3d9?2commo@
	call	?DXUTTrace@@YGJPBDKJ0_N@Z		; DXUTTrace
	jmp	$LN14@Refresh
$LN5@Refresh:

; 193  :     
; 194  :     CDXUTComboBox* pAdapterCombo = m_Dialog.GetComboBox( DXUTSETTINGSDLG_ADAPTER );

	push	3
	mov	ecx, DWORD PTR _this$[ebp]
	add	ecx, 4
	call	?GetComboBox@CDXUTDialog@@QAEPAVCDXUTComboBox@@H@Z ; CDXUTDialog::GetComboBox
	mov	DWORD PTR _pAdapterCombo$[ebp], eax

; 195  :     pAdapterCombo->RemoveAllItems();

	mov	ecx, DWORD PTR _pAdapterCombo$[ebp]
	call	?RemoveAllItems@CDXUTComboBox@@QAEXXZ	; CDXUTComboBox::RemoveAllItems

; 196  : 
; 197  :     // Add adapters
; 198  :     for( int iAdapter=0; iAdapter<pAdapterInfoList->GetSize(); iAdapter++ )

	mov	DWORD PTR _iAdapter$4[ebp], 0
	jmp	SHORT $LN4@Refresh
$LN3@Refresh:
	mov	eax, DWORD PTR _iAdapter$4[ebp]
	add	eax, 1
	mov	DWORD PTR _iAdapter$4[ebp], eax
$LN4@Refresh:
	mov	ecx, DWORD PTR _pAdapterInfoList$[ebp]
	call	?GetSize@?$CGrowableArray@PAVCD3DEnumAdapterInfo@@@@QBEHXZ ; CGrowableArray<CD3DEnumAdapterInfo *>::GetSize
	cmp	DWORD PTR _iAdapter$4[ebp], eax
	jge	SHORT $LN2@Refresh

; 199  :     {          
; 200  :         CD3DEnumAdapterInfo* pAdapterInfo = pAdapterInfoList->GetAt(iAdapter);

	mov	eax, DWORD PTR _iAdapter$4[ebp]
	push	eax
	mov	ecx, DWORD PTR _pAdapterInfoList$[ebp]
	call	?GetAt@?$CGrowableArray@PAVCD3DEnumAdapterInfo@@@@QAEAAPAVCD3DEnumAdapterInfo@@H@Z ; CGrowableArray<CD3DEnumAdapterInfo *>::GetAt
	mov	ecx, DWORD PTR [eax]
	mov	DWORD PTR _pAdapterInfo$3[ebp], ecx

; 201  :         AddAdapter( pAdapterInfo->szUniqueDescription, pAdapterInfo->AdapterOrdinal );

	mov	eax, DWORD PTR _pAdapterInfo$3[ebp]
	mov	ecx, DWORD PTR [eax]
	push	ecx
	mov	edx, DWORD PTR _pAdapterInfo$3[ebp]
	add	edx, 1104				; 00000450H
	push	edx
	mov	ecx, DWORD PTR _this$[ebp]
	call	?AddAdapter@CD3DSettingsDlg@@IAEXPBDI@Z	; CD3DSettingsDlg::AddAdapter

; 202  :     }

	jmp	SHORT $LN3@Refresh
$LN2@Refresh:

; 203  :     
; 204  :     pAdapterCombo->SetSelectedByData( ULongToPtr( g_DeviceSettings.AdapterOrdinal ) );

	mov	eax, DWORD PTR ?g_DeviceSettings@@3UDXUTDeviceSettings@@A
	push	eax
	mov	ecx, DWORD PTR _pAdapterCombo$[ebp]
	call	?SetSelectedByData@CDXUTComboBox@@QAEJPAX@Z ; CDXUTComboBox::SetSelectedByData

; 205  : 
; 206  :     hr = OnAdapterChanged();

	mov	ecx, DWORD PTR _this$[ebp]
	call	?OnAdapterChanged@CD3DSettingsDlg@@IAEJXZ ; CD3DSettingsDlg::OnAdapterChanged
	mov	DWORD PTR _hr$[ebp], eax

; 207  :     if( FAILED(hr) )

	cmp	DWORD PTR _hr$[ebp], 0
	jge	SHORT $LN1@Refresh

; 208  :         return hr;

	mov	eax, DWORD PTR _hr$[ebp]
	jmp	SHORT $LN14@Refresh
$LN1@Refresh:

; 209  : 
; 210  :     //m_Dialog.Refresh();
; 211  :     CDXUTDialog::SetRefreshTime( (float) DXUTGetTime() );

	call	?DXUTGetTime@@YANXZ			; DXUTGetTime
	fstp	DWORD PTR tv255[ebp]
	fld	DWORD PTR tv255[ebp]
	push	ecx
	fstp	DWORD PTR [esp]
	call	?SetRefreshTime@CDXUTDialog@@SAXM@Z	; CDXUTDialog::SetRefreshTime
	add	esp, 4

; 212  : 
; 213  :     return S_OK;

