; Listing generated by Microsoft (R) Optimizing Compiler Version 18.00.31101.0 

	TITLE	Z:\sampsrc\02Xu1\saco\d3d9\common\DXUT.cpp
	.686P
	.XMM
	include listing.inc
	.model	flat

INCLUDELIB LIBCMTD
INCLUDELIB OLDNAMES

PUBLIC	_g_pfnGetSystemMetrics
PUBLIC	_g_pfnMonitorFromWindow
PUBLIC	_g_pfnMonitorFromRect
PUBLIC	_g_pfnMonitorFromPoint
PUBLIC	_g_pfnGetMonitorInfo
PUBLIC	_g_pfnEnumDisplayMonitors
PUBLIC	_g_pfnEnumDisplayDevices
PUBLIC	_g_fMultiMonInitDone
PUBLIC	_g_fMultimonPlatformNT
PUBLIC	?g_cs@@3U_RTL_CRITICAL_SECTION@@A		; g_cs
PUBLIC	?g_bThreadSafe@@3_NA				; g_bThreadSafe
_BSS	SEGMENT
_g_pfnGetSystemMetrics DD 01H DUP (?)
_g_pfnMonitorFromWindow DD 01H DUP (?)
_g_pfnMonitorFromRect DD 01H DUP (?)
_g_pfnMonitorFromPoint DD 01H DUP (?)
_g_pfnGetMonitorInfo DD 01H DUP (?)
_g_pfnEnumDisplayMonitors DD 01H DUP (?)
_g_pfnEnumDisplayDevices DD 01H DUP (?)
_g_fMultiMonInitDone DD 01H DUP (?)
_g_fMultimonPlatformNT DD 01H DUP (?)
?g_cs@@3U_RTL_CRITICAL_SECTION@@A DB 018H DUP (?)	; g_cs
_BSS	ENDS
_DATA	SEGMENT
?g_bThreadSafe@@3_NA DB 01H				; g_bThreadSafe
_DATA	ENDS
PUBLIC	_HRESULT_FROM_WIN32
PUBLIC	?abs@@YAJJ@Z					; abs
PUBLIC	??2@YAPAXIPAX@Z					; operator new
PUBLIC	_xGetSystemMetrics@4
PUBLIC	_xMonitorFromWindow@8
PUBLIC	_xMonitorFromRect@8
PUBLIC	_xMonitorFromPoint@12
PUBLIC	_xGetMonitorInfo@8
PUBLIC	_xEnumDisplayMonitors@16
PUBLIC	_xEnumDisplayDevices@16
PUBLIC	?StringCopyWorkerA@@YGJPADIPBD@Z		; StringCopyWorkerA
PUBLIC	?StringCatWorkerA@@YGJPADIPBD@Z			; StringCatWorkerA
PUBLIC	?StringVPrintfWorkerA@@YGJPADIPBD0@Z		; StringVPrintfWorkerA
PUBLIC	?StringLengthWorkerA@@YGJPBDIPAI@Z		; StringLengthWorkerA
PUBLIC	?StringCchCopyA@@YGJPADIPBD@Z			; StringCchCopyA
PUBLIC	?StringCchCatA@@YGJPADIPBD@Z			; StringCchCatA
PUBLIC	?StringCchPrintfA@@YAJPADIPBDZZ			; StringCchPrintfA
PUBLIC	?DXUTSetCallbackDeviceCreated@@YAXP6GJPAUIDirect3DDevice9@@PBU_D3DSURFACE_DESC@@PAX@Z2@Z ; DXUTSetCallbackDeviceCreated
PUBLIC	?DXUTSetCallbackDeviceReset@@YAXP6GJPAUIDirect3DDevice9@@PBU_D3DSURFACE_DESC@@PAX@Z2@Z ; DXUTSetCallbackDeviceReset
PUBLIC	?DXUTSetCallbackDeviceLost@@YAXP6GXPAX@Z0@Z	; DXUTSetCallbackDeviceLost
PUBLIC	?DXUTSetCallbackDeviceDestroyed@@YAXP6GXPAX@Z0@Z ; DXUTSetCallbackDeviceDestroyed
PUBLIC	?DXUTSetCallbackDeviceChanging@@YAXP6G_NPAUDXUTDeviceSettings@@PBU_D3DCAPS9@@PAX@Z2@Z ; DXUTSetCallbackDeviceChanging
PUBLIC	?DXUTSetCallbackFrameMove@@YAXP6GXPAUIDirect3DDevice9@@NMPAX@Z1@Z ; DXUTSetCallbackFrameMove
PUBLIC	?DXUTSetCallbackFrameRender@@YAXP6GXPAUIDirect3DDevice9@@NMPAX@Z1@Z ; DXUTSetCallbackFrameRender
PUBLIC	?DXUTSetCallbackKeyboard@@YAXP6GXI_N0PAX@Z1@Z	; DXUTSetCallbackKeyboard
PUBLIC	?DXUTSetCallbackMouse@@YAXP6GX_N0000HHHPAX@Z01@Z ; DXUTSetCallbackMouse
PUBLIC	?DXUTSetCallbackMsgProc@@YAXP6GJPAUHWND__@@IIJPA_NPAX@Z2@Z ; DXUTSetCallbackMsgProc
PUBLIC	?DXUTInit@@YAJ_N00@Z				; DXUTInit
PUBLIC	?DXUTCreateWindow@@YAJPBDPAUHINSTANCE__@@PAUHICON__@@PAUHMENU__@@HH@Z ; DXUTCreateWindow
PUBLIC	?DXUTSetWindow@@YAJPAUHWND__@@00_N@Z		; DXUTSetWindow
PUBLIC	?DXUTStaticWndProc@@YGJPAUHWND__@@IIJ@Z		; DXUTStaticWndProc
PUBLIC	?DXUTCreateDevice@@YAJI_NHHP6G_NPAU_D3DCAPS9@@W4_D3DFORMAT@@20PAX@ZP6G_NPAUDXUTDeviceSettings@@PBU1@3@Z3@Z ; DXUTCreateDevice
PUBLIC	?DXUTCreateDeviceFromSettings@@YAJPAUDXUTDeviceSettings@@_N1@Z ; DXUTCreateDeviceFromSettings
PUBLIC	?DXUTSetDevice@@YAJPAUIDirect3DDevice9@@@Z	; DXUTSetDevice
PUBLIC	?DXUTMainLoop@@YAJPAUHACCEL__@@@Z		; DXUTMainLoop
PUBLIC	?DXUTRender3DEnvironment@@YAXXZ			; DXUTRender3DEnvironment
PUBLIC	?DXUTFindValidDeviceSettings@@YAJPAUDXUTDeviceSettings@@0PAUDXUTMatchOptions@@@Z ; DXUTFindValidDeviceSettings
PUBLIC	?DXUTSetCursorSettings@@YAX_N0@Z		; DXUTSetCursorSettings
PUBLIC	?DXUTSetMultimonSettings@@YAX_N@Z		; DXUTSetMultimonSettings
PUBLIC	?DXUTSetShortcutKeySettings@@YAX_N0@Z		; DXUTSetShortcutKeySettings
PUBLIC	?DXUTSetConstantFrameTime@@YAX_NM@Z		; DXUTSetConstantFrameTime
PUBLIC	?DXUTSetTimer@@YAJP6GXIPAX@ZMPAI0@Z		; DXUTSetTimer
PUBLIC	?DXUTKillTimer@@YAJI@Z				; DXUTKillTimer
PUBLIC	?DXUTToggleFullScreen@@YAJXZ			; DXUTToggleFullScreen
PUBLIC	?DXUTToggleREF@@YAJXZ				; DXUTToggleREF
PUBLIC	?DXUTPause@@YAX_N0@Z				; DXUTPause
PUBLIC	?DXUTResetFrameworkState@@YAXXZ			; DXUTResetFrameworkState
PUBLIC	?DXUTShutdown@@YAXH@Z				; DXUTShutdown
PUBLIC	?DXUTGetD3DObject@@YAPAUIDirect3D9@@XZ		; DXUTGetD3DObject
PUBLIC	?DXUTGetD3DDevice@@YAPAUIDirect3DDevice9@@XZ	; DXUTGetD3DDevice
PUBLIC	?DXUTGetDeviceSettings@@YA?AUDXUTDeviceSettings@@XZ ; DXUTGetDeviceSettings
PUBLIC	?DXUTGetPresentParameters@@YA?AU_D3DPRESENT_PARAMETERS_@@XZ ; DXUTGetPresentParameters
PUBLIC	?DXUTGetBackBufferSurfaceDesc@@YAPBU_D3DSURFACE_DESC@@XZ ; DXUTGetBackBufferSurfaceDesc
PUBLIC	?DXUTGetDeviceCaps@@YAPBU_D3DCAPS9@@XZ		; DXUTGetDeviceCaps
PUBLIC	?DXUTGetHINSTANCE@@YAPAUHINSTANCE__@@XZ		; DXUTGetHINSTANCE
PUBLIC	?DXUTGetHWND@@YAPAUHWND__@@XZ			; DXUTGetHWND
PUBLIC	?DXUTGetHWNDFocus@@YAPAUHWND__@@XZ		; DXUTGetHWNDFocus
PUBLIC	?DXUTGetHWNDDeviceFullScreen@@YAPAUHWND__@@XZ	; DXUTGetHWNDDeviceFullScreen
PUBLIC	?DXUTGetHWNDDeviceWindowed@@YAPAUHWND__@@XZ	; DXUTGetHWNDDeviceWindowed
PUBLIC	?DXUTGetWindowClientRect@@YA?AUtagRECT@@XZ	; DXUTGetWindowClientRect
PUBLIC	?DXUTGetWindowClientRectAtModeChange@@YA?AUtagRECT@@XZ ; DXUTGetWindowClientRectAtModeChange
PUBLIC	?DXUTGetFullsceenClientRectAtModeChange@@YA?AUtagRECT@@XZ ; DXUTGetFullsceenClientRectAtModeChange
PUBLIC	?DXUTGetTime@@YANXZ				; DXUTGetTime
PUBLIC	?DXUTGetElapsedTime@@YAMXZ			; DXUTGetElapsedTime
PUBLIC	?DXUTIsWindowed@@YA_NXZ				; DXUTIsWindowed
PUBLIC	?DXUTGetFPS@@YAMXZ				; DXUTGetFPS
PUBLIC	?DXUTGetWindowTitle@@YAPBDXZ			; DXUTGetWindowTitle
PUBLIC	?DXUTGetFrameStats@@YAPBDXZ			; DXUTGetFrameStats
PUBLIC	?DXUTGetDeviceStats@@YAPBDXZ			; DXUTGetDeviceStats
PUBLIC	?DXUTIsRenderingPaused@@YA_NXZ			; DXUTIsRenderingPaused
PUBLIC	?DXUTIsTimePaused@@YA_NXZ			; DXUTIsTimePaused
PUBLIC	?DXUTGetExitCode@@YAHXZ				; DXUTGetExitCode
PUBLIC	?DXUTGetShowMsgBoxOnError@@YA_NXZ		; DXUTGetShowMsgBoxOnError
PUBLIC	?DXUTIsKeyDown@@YA_NE@Z				; DXUTIsKeyDown
PUBLIC	?DXUTIsMouseButtonDown@@YA_NE@Z			; DXUTIsMouseButtonDown
PUBLIC	?DXUTGetAutomation@@YA_NXZ			; DXUTGetAutomation
PUBLIC	?DXUTReset3DEnvironment@@YAJXZ			; DXUTReset3DEnvironment
PUBLIC	?DXUTCleanup3DEnvironment@@YAX_N@Z		; DXUTCleanup3DEnvironment
PUBLIC	?DXUTTrace@@YGJPBDKJ0_N@Z			; DXUTTrace
PUBLIC	?GetAt@?$CGrowableArray@W4_D3DFORMAT@@@@QAEAAW4_D3DFORMAT@@H@Z ; CGrowableArray<enum _D3DFORMAT>::GetAt
PUBLIC	?GetSize@?$CGrowableArray@W4_D3DFORMAT@@@@QBEHXZ ; CGrowableArray<enum _D3DFORMAT>::GetSize
PUBLIC	?Contains@?$CGrowableArray@W4_D3DFORMAT@@@@QAE_NABW4_D3DFORMAT@@@Z ; CGrowableArray<enum _D3DFORMAT>::Contains
PUBLIC	?IndexOf@?$CGrowableArray@W4_D3DFORMAT@@@@QAEHABW4_D3DFORMAT@@@Z ; CGrowableArray<enum _D3DFORMAT>::IndexOf
PUBLIC	?IndexOf@?$CGrowableArray@W4_D3DFORMAT@@@@QAEHABW4_D3DFORMAT@@HH@Z ; CGrowableArray<enum _D3DFORMAT>::IndexOf
PUBLIC	?GetAt@?$CGrowableArray@W4_D3DMULTISAMPLE_TYPE@@@@QAEAAW4_D3DMULTISAMPLE_TYPE@@H@Z ; CGrowableArray<enum _D3DMULTISAMPLE_TYPE>::GetAt
PUBLIC	?GetSize@?$CGrowableArray@W4_D3DMULTISAMPLE_TYPE@@@@QBEHXZ ; CGrowableArray<enum _D3DMULTISAMPLE_TYPE>::GetSize
PUBLIC	?Contains@?$CGrowableArray@I@@QAE_NABI@Z	; CGrowableArray<unsigned int>::Contains
PUBLIC	?IndexOf@?$CGrowableArray@I@@QAEHABI@Z		; CGrowableArray<unsigned int>::IndexOf
PUBLIC	?IndexOf@?$CGrowableArray@I@@QAEHABIHH@Z	; CGrowableArray<unsigned int>::IndexOf
PUBLIC	?GetAt@?$CGrowableArray@PAVCD3DEnumAdapterInfo@@@@QAEAAPAVCD3DEnumAdapterInfo@@H@Z ; CGrowableArray<CD3DEnumAdapterInfo *>::GetAt
PUBLIC	?GetSize@?$CGrowableArray@PAVCD3DEnumAdapterInfo@@@@QBEHXZ ; CGrowableArray<CD3DEnumAdapterInfo *>::GetSize
PUBLIC	?GetAt@?$CGrowableArray@U_D3DDISPLAYMODE@@@@QAEAAU_D3DDISPLAYMODE@@H@Z ; CGrowableArray<_D3DDISPLAYMODE>::GetAt
PUBLIC	?GetSize@?$CGrowableArray@U_D3DDISPLAYMODE@@@@QBEHXZ ; CGrowableArray<_D3DDISPLAYMODE>::GetSize
PUBLIC	?GetAt@?$CGrowableArray@PAVCD3DEnumDeviceInfo@@@@QAEAAPAVCD3DEnumDeviceInfo@@H@Z ; CGrowableArray<CD3DEnumDeviceInfo *>::GetAt
PUBLIC	?GetSize@?$CGrowableArray@PAVCD3DEnumDeviceInfo@@@@QBEHXZ ; CGrowableArray<CD3DEnumDeviceInfo *>::GetSize
PUBLIC	?GetAt@?$CGrowableArray@PAUCD3DEnumDeviceSettingsCombo@@@@QAEAAPAUCD3DEnumDeviceSettingsCombo@@H@Z ; CGrowableArray<CD3DEnumDeviceSettingsCombo *>::GetAt
PUBLIC	?GetSize@?$CGrowableArray@PAUCD3DEnumDeviceSettingsCombo@@@@QBEHXZ ; CGrowableArray<CD3DEnumDeviceSettingsCombo *>::GetSize
PUBLIC	?GetAt@?$CGrowableArray@K@@QAEAAKH@Z		; CGrowableArray<unsigned long>::GetAt
PUBLIC	??0?$CGrowableArray@H@@QAE@XZ			; CGrowableArray<int>::CGrowableArray<int>
PUBLIC	??1?$CGrowableArray@H@@QAE@XZ			; CGrowableArray<int>::~CGrowableArray<int>
PUBLIC	?SetSize@?$CGrowableArray@H@@QAEJH@Z		; CGrowableArray<int>::SetSize
PUBLIC	?Add@?$CGrowableArray@H@@QAEJABH@Z		; CGrowableArray<int>::Add
PUBLIC	?SetAt@?$CGrowableArray@H@@QAEJHABH@Z		; CGrowableArray<int>::SetAt
PUBLIC	?GetAt@?$CGrowableArray@H@@QAEAAHH@Z		; CGrowableArray<int>::GetAt
PUBLIC	?RemoveAll@?$CGrowableArray@H@@QAEXXZ		; CGrowableArray<int>::RemoveAll
PUBLIC	?SetSizeInternal@?$CGrowableArray@H@@IAEJH@Z	; CGrowableArray<int>::SetSizeInternal
PUBLIC	_IsPlatformNT
PUBLIC	_InitMultipleMonitorStubs
PUBLIC	??0DXUTLock@@QAE@XZ				; DXUTLock::DXUTLock
PUBLIC	??1DXUTLock@@QAE@XZ				; DXUTLock::~DXUTLock
PUBLIC	??0DXUTState@@QAE@XZ				; DXUTState::DXUTState
PUBLIC	??1DXUTState@@QAE@XZ				; DXUTState::~DXUTState
PUBLIC	?Create@DXUTState@@QAEXXZ			; DXUTState::Create
PUBLIC	?Destroy@DXUTState@@QAEXXZ			; DXUTState::Destroy
PUBLIC	?SetD3D@DXUTState@@QAEXPAUIDirect3D9@@@Z	; DXUTState::SetD3D
PUBLIC	?GetD3D@DXUTState@@QAEPAUIDirect3D9@@XZ		; DXUTState::GetD3D
PUBLIC	?SetD3DDevice@DXUTState@@QAEXPAUIDirect3DDevice9@@@Z ; DXUTState::SetD3DDevice
PUBLIC	?GetD3DDevice@DXUTState@@QAEPAUIDirect3DDevice9@@XZ ; DXUTState::GetD3DDevice
PUBLIC	?SetD3DEnumeration@DXUTState@@QAEXPAVCD3DEnumeration@@@Z ; DXUTState::SetD3DEnumeration
PUBLIC	?GetD3DEnumeration@DXUTState@@QAEPAVCD3DEnumeration@@XZ ; DXUTState::GetD3DEnumeration
PUBLIC	?SetCurrentDeviceSettings@DXUTState@@QAEXPAUDXUTDeviceSettings@@@Z ; DXUTState::SetCurrentDeviceSettings
PUBLIC	?GetCurrentDeviceSettings@DXUTState@@QAEPAUDXUTDeviceSettings@@XZ ; DXUTState::GetCurrentDeviceSettings
PUBLIC	?GetBackBufferSurfaceDesc@DXUTState@@QAEPAU_D3DSURFACE_DESC@@XZ ; DXUTState::GetBackBufferSurfaceDesc
PUBLIC	?GetCaps@DXUTState@@QAEPAU_D3DCAPS9@@XZ		; DXUTState::GetCaps
PUBLIC	?SetHWNDFocus@DXUTState@@QAEXPAUHWND__@@@Z	; DXUTState::SetHWNDFocus
PUBLIC	?GetHWNDFocus@DXUTState@@QAEPAUHWND__@@XZ	; DXUTState::GetHWNDFocus
PUBLIC	?SetHWNDDeviceFullScreen@DXUTState@@QAEXPAUHWND__@@@Z ; DXUTState::SetHWNDDeviceFullScreen
PUBLIC	?GetHWNDDeviceFullScreen@DXUTState@@QAEPAUHWND__@@XZ ; DXUTState::GetHWNDDeviceFullScreen
PUBLIC	?SetHWNDDeviceWindowed@DXUTState@@QAEXPAUHWND__@@@Z ; DXUTState::SetHWNDDeviceWindowed
PUBLIC	?GetHWNDDeviceWindowed@DXUTState@@QAEPAUHWND__@@XZ ; DXUTState::GetHWNDDeviceWindowed
PUBLIC	?SetAdapterMonitor@DXUTState@@QAEXPAUHMONITOR__@@@Z ; DXUTState::SetAdapterMonitor
PUBLIC	?GetAdapterMonitor@DXUTState@@QAEPAUHMONITOR__@@XZ ; DXUTState::GetAdapterMonitor
PUBLIC	?SetMenu@DXUTState@@QAEXPAUHMENU__@@@Z		; DXUTState::SetMenu
PUBLIC	?GetMenu@DXUTState@@QAEPAUHMENU__@@XZ		; DXUTState::GetMenu
PUBLIC	?SetFullScreenBackBufferWidthAtModeChange@DXUTState@@QAEXI@Z ; DXUTState::SetFullScreenBackBufferWidthAtModeChange
PUBLIC	?GetFullScreenBackBufferWidthAtModeChange@DXUTState@@QAEIXZ ; DXUTState::GetFullScreenBackBufferWidthAtModeChange
PUBLIC	?SetFullScreenBackBufferHeightAtModeChange@DXUTState@@QAEXI@Z ; DXUTState::SetFullScreenBackBufferHeightAtModeChange
PUBLIC	?GetFullScreenBackBufferHeightAtModeChange@DXUTState@@QAEIXZ ; DXUTState::GetFullScreenBackBufferHeightAtModeChange
PUBLIC	?SetWindowBackBufferWidthAtModeChange@DXUTState@@QAEXI@Z ; DXUTState::SetWindowBackBufferWidthAtModeChange
PUBLIC	?GetWindowBackBufferWidthAtModeChange@DXUTState@@QAEIXZ ; DXUTState::GetWindowBackBufferWidthAtModeChange
PUBLIC	?SetWindowBackBufferHeightAtModeChange@DXUTState@@QAEXI@Z ; DXUTState::SetWindowBackBufferHeightAtModeChange
PUBLIC	?GetWindowBackBufferHeightAtModeChange@DXUTState@@QAEIXZ ; DXUTState::GetWindowBackBufferHeightAtModeChange
PUBLIC	?GetWindowedPlacement@DXUTState@@QAEPAUtagWINDOWPLACEMENT@@XZ ; DXUTState::GetWindowedPlacement
PUBLIC	?SetWindowedStyleAtModeChange@DXUTState@@QAEXK@Z ; DXUTState::SetWindowedStyleAtModeChange
PUBLIC	?GetWindowedStyleAtModeChange@DXUTState@@QAEKXZ	; DXUTState::GetWindowedStyleAtModeChange
PUBLIC	?SetMinimized@DXUTState@@QAEX_N@Z		; DXUTState::SetMinimized
PUBLIC	?GetMinimized@DXUTState@@QAE_NXZ		; DXUTState::GetMinimized
PUBLIC	?SetMaximized@DXUTState@@QAEX_N@Z		; DXUTState::SetMaximized
PUBLIC	?GetMaximized@DXUTState@@QAE_NXZ		; DXUTState::GetMaximized
PUBLIC	?SetMinimizedWhileFullscreen@DXUTState@@QAEX_N@Z ; DXUTState::SetMinimizedWhileFullscreen
PUBLIC	?GetMinimizedWhileFullscreen@DXUTState@@QAE_NXZ	; DXUTState::GetMinimizedWhileFullscreen
PUBLIC	?SetIgnoreSizeChange@DXUTState@@QAEX_N@Z	; DXUTState::SetIgnoreSizeChange
PUBLIC	?GetIgnoreSizeChange@DXUTState@@QAE_NXZ		; DXUTState::GetIgnoreSizeChange
PUBLIC	?SetTime@DXUTState@@QAEXN@Z			; DXUTState::SetTime
PUBLIC	?GetTime@DXUTState@@QAENXZ			; DXUTState::GetTime
PUBLIC	?SetElapsedTime@DXUTState@@QAEXM@Z		; DXUTState::SetElapsedTime
PUBLIC	?GetElapsedTime@DXUTState@@QAEMXZ		; DXUTState::GetElapsedTime
PUBLIC	?SetHInstance@DXUTState@@QAEXPAUHINSTANCE__@@@Z	; DXUTState::SetHInstance
PUBLIC	?GetHInstance@DXUTState@@QAEPAUHINSTANCE__@@XZ	; DXUTState::GetHInstance
PUBLIC	?SetLastStatsUpdateTime@DXUTState@@QAEXN@Z	; DXUTState::SetLastStatsUpdateTime
PUBLIC	?GetLastStatsUpdateTime@DXUTState@@QAENXZ	; DXUTState::GetLastStatsUpdateTime
PUBLIC	?SetLastStatsUpdateFrames@DXUTState@@QAEXK@Z	; DXUTState::SetLastStatsUpdateFrames
PUBLIC	?GetLastStatsUpdateFrames@DXUTState@@QAEKXZ	; DXUTState::GetLastStatsUpdateFrames
PUBLIC	?SetFPS@DXUTState@@QAEXM@Z			; DXUTState::SetFPS
PUBLIC	?GetFPS@DXUTState@@QAEMXZ			; DXUTState::GetFPS
PUBLIC	?SetCurrentFrameNumber@DXUTState@@QAEXH@Z	; DXUTState::SetCurrentFrameNumber
PUBLIC	?GetCurrentFrameNumber@DXUTState@@QAEHXZ	; DXUTState::GetCurrentFrameNumber
PUBLIC	?GetKeyboardHook@DXUTState@@QAEPAUHHOOK__@@XZ	; DXUTState::GetKeyboardHook
PUBLIC	?SetAllowShortcutKeysWhenFullscreen@DXUTState@@QAEX_N@Z ; DXUTState::SetAllowShortcutKeysWhenFullscreen
PUBLIC	?GetAllowShortcutKeysWhenFullscreen@DXUTState@@QAE_NXZ ; DXUTState::GetAllowShortcutKeysWhenFullscreen
PUBLIC	?SetAllowShortcutKeysWhenWindowed@DXUTState@@QAEX_N@Z ; DXUTState::SetAllowShortcutKeysWhenWindowed
PUBLIC	?GetAllowShortcutKeysWhenWindowed@DXUTState@@QAE_NXZ ; DXUTState::GetAllowShortcutKeysWhenWindowed
PUBLIC	?SetAllowShortcutKeys@DXUTState@@QAEX_N@Z	; DXUTState::SetAllowShortcutKeys
PUBLIC	?SetStartupStickyKeys@DXUTState@@QAEXUtagSTICKYKEYS@@@Z ; DXUTState::SetStartupStickyKeys
PUBLIC	?SetStartupToggleKeys@DXUTState@@QAEXUtagTOGGLEKEYS@@@Z ; DXUTState::SetStartupToggleKeys
PUBLIC	?SetStartupFilterKeys@DXUTState@@QAEXUtagFILTERKEYS@@@Z ; DXUTState::SetStartupFilterKeys
PUBLIC	?SetHandleDefaultHotkeys@DXUTState@@QAEX_N@Z	; DXUTState::SetHandleDefaultHotkeys
PUBLIC	?GetHandleDefaultHotkeys@DXUTState@@QAE_NXZ	; DXUTState::GetHandleDefaultHotkeys
PUBLIC	?SetShowMsgBoxOnError@DXUTState@@QAEX_N@Z	; DXUTState::SetShowMsgBoxOnError
PUBLIC	?GetShowMsgBoxOnError@DXUTState@@QAE_NXZ	; DXUTState::GetShowMsgBoxOnError
PUBLIC	?SetClipCursorWhenFullScreen@DXUTState@@QAEX_N@Z ; DXUTState::SetClipCursorWhenFullScreen
PUBLIC	?GetClipCursorWhenFullScreen@DXUTState@@QAE_NXZ	; DXUTState::GetClipCursorWhenFullScreen
PUBLIC	?SetShowCursorWhenFullScreen@DXUTState@@QAEX_N@Z ; DXUTState::SetShowCursorWhenFullScreen
PUBLIC	?GetShowCursorWhenFullScreen@DXUTState@@QAE_NXZ	; DXUTState::GetShowCursorWhenFullScreen
PUBLIC	?SetConstantFrameTime@DXUTState@@QAEX_N@Z	; DXUTState::SetConstantFrameTime
PUBLIC	?GetConstantFrameTime@DXUTState@@QAE_NXZ	; DXUTState::GetConstantFrameTime
PUBLIC	?SetTimePerFrame@DXUTState@@QAEXM@Z		; DXUTState::SetTimePerFrame
PUBLIC	?GetTimePerFrame@DXUTState@@QAEMXZ		; DXUTState::GetTimePerFrame
PUBLIC	?SetWireframeMode@DXUTState@@QAEX_N@Z		; DXUTState::SetWireframeMode
PUBLIC	?GetWireframeMode@DXUTState@@QAE_NXZ		; DXUTState::GetWireframeMode
PUBLIC	?SetAutoChangeAdapter@DXUTState@@QAEX_N@Z	; DXUTState::SetAutoChangeAdapter
PUBLIC	?GetAutoChangeAdapter@DXUTState@@QAE_NXZ	; DXUTState::GetAutoChangeAdapter
PUBLIC	?SetWindowCreatedWithDefaultPositions@DXUTState@@QAEX_N@Z ; DXUTState::SetWindowCreatedWithDefaultPositions
PUBLIC	?SetExitCode@DXUTState@@QAEXH@Z			; DXUTState::SetExitCode
PUBLIC	?GetExitCode@DXUTState@@QAEHXZ			; DXUTState::GetExitCode
PUBLIC	?SetDXUTInited@DXUTState@@QAEX_N@Z		; DXUTState::SetDXUTInited
PUBLIC	?GetDXUTInited@DXUTState@@QAE_NXZ		; DXUTState::GetDXUTInited
PUBLIC	?SetWindowCreated@DXUTState@@QAEX_N@Z		; DXUTState::SetWindowCreated
PUBLIC	?GetWindowCreated@DXUTState@@QAE_NXZ		; DXUTState::GetWindowCreated
PUBLIC	?SetDeviceCreated@DXUTState@@QAEX_N@Z		; DXUTState::SetDeviceCreated
PUBLIC	?GetDeviceCreated@DXUTState@@QAE_NXZ		; DXUTState::GetDeviceCreated
PUBLIC	?SetDXUTInitCalled@DXUTState@@QAEX_N@Z		; DXUTState::SetDXUTInitCalled
PUBLIC	?GetDXUTInitCalled@DXUTState@@QAE_NXZ		; DXUTState::GetDXUTInitCalled
PUBLIC	?SetWindowCreateCalled@DXUTState@@QAEX_N@Z	; DXUTState::SetWindowCreateCalled
PUBLIC	?GetWindowCreateCalled@DXUTState@@QAE_NXZ	; DXUTState::GetWindowCreateCalled
PUBLIC	?SetDeviceCreateCalled@DXUTState@@QAEX_N@Z	; DXUTState::SetDeviceCreateCalled
PUBLIC	?GetDeviceCreateCalled@DXUTState@@QAE_NXZ	; DXUTState::GetDeviceCreateCalled
PUBLIC	?SetInsideDeviceCallback@DXUTState@@QAEX_N@Z	; DXUTState::SetInsideDeviceCallback
PUBLIC	?GetInsideDeviceCallback@DXUTState@@QAE_NXZ	; DXUTState::GetInsideDeviceCallback
PUBLIC	?SetInsideMainloop@DXUTState@@QAEX_N@Z		; DXUTState::SetInsideMainloop
PUBLIC	?GetInsideMainloop@DXUTState@@QAE_NXZ		; DXUTState::GetInsideMainloop
PUBLIC	?SetDeviceObjectsCreated@DXUTState@@QAEX_N@Z	; DXUTState::SetDeviceObjectsCreated
PUBLIC	?GetDeviceObjectsCreated@DXUTState@@QAE_NXZ	; DXUTState::GetDeviceObjectsCreated
PUBLIC	?SetDeviceObjectsReset@DXUTState@@QAEX_N@Z	; DXUTState::SetDeviceObjectsReset
PUBLIC	?GetDeviceObjectsReset@DXUTState@@QAE_NXZ	; DXUTState::GetDeviceObjectsReset
PUBLIC	?SetActive@DXUTState@@QAEX_N@Z			; DXUTState::SetActive
PUBLIC	?GetActive@DXUTState@@QAE_NXZ			; DXUTState::GetActive
PUBLIC	?SetRenderingPaused@DXUTState@@QAEX_N@Z		; DXUTState::SetRenderingPaused
PUBLIC	?GetRenderingPaused@DXUTState@@QAE_NXZ		; DXUTState::GetRenderingPaused
PUBLIC	?SetTimePaused@DXUTState@@QAEX_N@Z		; DXUTState::SetTimePaused
PUBLIC	?SetPauseRenderingCount@DXUTState@@QAEXH@Z	; DXUTState::SetPauseRenderingCount
PUBLIC	?GetPauseRenderingCount@DXUTState@@QAEHXZ	; DXUTState::GetPauseRenderingCount
PUBLIC	?SetPauseTimeCount@DXUTState@@QAEXH@Z		; DXUTState::SetPauseTimeCount
PUBLIC	?GetPauseTimeCount@DXUTState@@QAEHXZ		; DXUTState::GetPauseTimeCount
PUBLIC	?SetDeviceLost@DXUTState@@QAEX_N@Z		; DXUTState::SetDeviceLost
PUBLIC	?GetDeviceLost@DXUTState@@QAE_NXZ		; DXUTState::GetDeviceLost
PUBLIC	?SetNotifyOnMouseMove@DXUTState@@QAEX_N@Z	; DXUTState::SetNotifyOnMouseMove
PUBLIC	?GetNotifyOnMouseMove@DXUTState@@QAE_NXZ	; DXUTState::GetNotifyOnMouseMove
PUBLIC	?SetAutomation@DXUTState@@QAEX_N@Z		; DXUTState::SetAutomation
PUBLIC	?GetAutomation@DXUTState@@QAE_NXZ		; DXUTState::GetAutomation
PUBLIC	?SetInSizeMove@DXUTState@@QAEX_N@Z		; DXUTState::SetInSizeMove
PUBLIC	?GetInSizeMove@DXUTState@@QAE_NXZ		; DXUTState::GetInSizeMove
PUBLIC	?SetOverrideAdapterOrdinal@DXUTState@@QAEXH@Z	; DXUTState::SetOverrideAdapterOrdinal
PUBLIC	?GetOverrideAdapterOrdinal@DXUTState@@QAEHXZ	; DXUTState::GetOverrideAdapterOrdinal
PUBLIC	?SetOverrideWindowed@DXUTState@@QAEX_N@Z	; DXUTState::SetOverrideWindowed
PUBLIC	?GetOverrideWindowed@DXUTState@@QAE_NXZ		; DXUTState::GetOverrideWindowed
PUBLIC	?SetOverrideFullScreen@DXUTState@@QAEX_N@Z	; DXUTState::SetOverrideFullScreen
PUBLIC	?GetOverrideFullScreen@DXUTState@@QAE_NXZ	; DXUTState::GetOverrideFullScreen
PUBLIC	?SetOverrideStartX@DXUTState@@QAEXH@Z		; DXUTState::SetOverrideStartX
PUBLIC	?GetOverrideStartX@DXUTState@@QAEHXZ		; DXUTState::GetOverrideStartX
PUBLIC	?SetOverrideStartY@DXUTState@@QAEXH@Z		; DXUTState::SetOverrideStartY
PUBLIC	?GetOverrideStartY@DXUTState@@QAEHXZ		; DXUTState::GetOverrideStartY
PUBLIC	?SetOverrideWidth@DXUTState@@QAEXH@Z		; DXUTState::SetOverrideWidth
PUBLIC	?GetOverrideWidth@DXUTState@@QAEHXZ		; DXUTState::GetOverrideWidth
PUBLIC	?SetOverrideHeight@DXUTState@@QAEXH@Z		; DXUTState::SetOverrideHeight
PUBLIC	?GetOverrideHeight@DXUTState@@QAEHXZ		; DXUTState::GetOverrideHeight
PUBLIC	?SetOverrideForceHAL@DXUTState@@QAEX_N@Z	; DXUTState::SetOverrideForceHAL
PUBLIC	?GetOverrideForceHAL@DXUTState@@QAE_NXZ		; DXUTState::GetOverrideForceHAL
PUBLIC	?SetOverrideForceREF@DXUTState@@QAEX_N@Z	; DXUTState::SetOverrideForceREF
PUBLIC	?GetOverrideForceREF@DXUTState@@QAE_NXZ		; DXUTState::GetOverrideForceREF
PUBLIC	?SetOverrideForcePureHWVP@DXUTState@@QAEX_N@Z	; DXUTState::SetOverrideForcePureHWVP
PUBLIC	?GetOverrideForcePureHWVP@DXUTState@@QAE_NXZ	; DXUTState::GetOverrideForcePureHWVP
PUBLIC	?SetOverrideForceHWVP@DXUTState@@QAEX_N@Z	; DXUTState::SetOverrideForceHWVP
PUBLIC	?GetOverrideForceHWVP@DXUTState@@QAE_NXZ	; DXUTState::GetOverrideForceHWVP
PUBLIC	?SetOverrideForceSWVP@DXUTState@@QAEX_N@Z	; DXUTState::SetOverrideForceSWVP
PUBLIC	?GetOverrideForceSWVP@DXUTState@@QAE_NXZ	; DXUTState::GetOverrideForceSWVP
PUBLIC	?SetOverrideConstantFrameTime@DXUTState@@QAEX_N@Z ; DXUTState::SetOverrideConstantFrameTime
PUBLIC	?GetOverrideConstantFrameTime@DXUTState@@QAE_NXZ ; DXUTState::GetOverrideConstantFrameTime
PUBLIC	?SetOverrideConstantTimePerFrame@DXUTState@@QAEXM@Z ; DXUTState::SetOverrideConstantTimePerFrame
PUBLIC	?GetOverrideConstantTimePerFrame@DXUTState@@QAEMXZ ; DXUTState::GetOverrideConstantTimePerFrame
PUBLIC	?SetOverrideQuitAfterFrame@DXUTState@@QAEXH@Z	; DXUTState::SetOverrideQuitAfterFrame
PUBLIC	?GetOverrideQuitAfterFrame@DXUTState@@QAEHXZ	; DXUTState::GetOverrideQuitAfterFrame
PUBLIC	?SetIsDeviceAcceptableFunc@DXUTState@@QAEXP6G_NPAU_D3DCAPS9@@W4_D3DFORMAT@@1_NPAX@Z@Z ; DXUTState::SetIsDeviceAcceptableFunc
PUBLIC	?GetIsDeviceAcceptableFunc@DXUTState@@QAEP6G_NPAU_D3DCAPS9@@W4_D3DFORMAT@@1_NPAX@ZXZ ; DXUTState::GetIsDeviceAcceptableFunc
PUBLIC	?SetModifyDeviceSettingsFunc@DXUTState@@QAEXP6G_NPAUDXUTDeviceSettings@@PBU_D3DCAPS9@@PAX@Z@Z ; DXUTState::SetModifyDeviceSettingsFunc
PUBLIC	?GetModifyDeviceSettingsFunc@DXUTState@@QAEP6G_NPAUDXUTDeviceSettings@@PBU_D3DCAPS9@@PAX@ZXZ ; DXUTState::GetModifyDeviceSettingsFunc
PUBLIC	?SetDeviceCreatedFunc@DXUTState@@QAEXP6GJPAUIDirect3DDevice9@@PBU_D3DSURFACE_DESC@@PAX@Z@Z ; DXUTState::SetDeviceCreatedFunc
PUBLIC	?GetDeviceCreatedFunc@DXUTState@@QAEP6GJPAUIDirect3DDevice9@@PBU_D3DSURFACE_DESC@@PAX@ZXZ ; DXUTState::GetDeviceCreatedFunc
PUBLIC	?SetDeviceResetFunc@DXUTState@@QAEXP6GJPAUIDirect3DDevice9@@PBU_D3DSURFACE_DESC@@PAX@Z@Z ; DXUTState::SetDeviceResetFunc
PUBLIC	?GetDeviceResetFunc@DXUTState@@QAEP6GJPAUIDirect3DDevice9@@PBU_D3DSURFACE_DESC@@PAX@ZXZ ; DXUTState::GetDeviceResetFunc
PUBLIC	?SetDeviceLostFunc@DXUTState@@QAEXP6GXPAX@Z@Z	; DXUTState::SetDeviceLostFunc
PUBLIC	?GetDeviceLostFunc@DXUTState@@QAEP6GXPAX@ZXZ	; DXUTState::GetDeviceLostFunc
PUBLIC	?SetDeviceDestroyedFunc@DXUTState@@QAEXP6GXPAX@Z@Z ; DXUTState::SetDeviceDestroyedFunc
PUBLIC	?GetDeviceDestroyedFunc@DXUTState@@QAEP6GXPAX@ZXZ ; DXUTState::GetDeviceDestroyedFunc
PUBLIC	?SetFrameMoveFunc@DXUTState@@QAEXP6GXPAUIDirect3DDevice9@@NMPAX@Z@Z ; DXUTState::SetFrameMoveFunc
PUBLIC	?GetFrameMoveFunc@DXUTState@@QAEP6GXPAUIDirect3DDevice9@@NMPAX@ZXZ ; DXUTState::GetFrameMoveFunc
PUBLIC	?SetFrameRenderFunc@DXUTState@@QAEXP6GXPAUIDirect3DDevice9@@NMPAX@Z@Z ; DXUTState::SetFrameRenderFunc
PUBLIC	?GetFrameRenderFunc@DXUTState@@QAEP6GXPAUIDirect3DDevice9@@NMPAX@ZXZ ; DXUTState::GetFrameRenderFunc
PUBLIC	?SetKeyboardFunc@DXUTState@@QAEXP6GXI_N0PAX@Z@Z	; DXUTState::SetKeyboardFunc
PUBLIC	?GetKeyboardFunc@DXUTState@@QAEP6GXI_N0PAX@ZXZ	; DXUTState::GetKeyboardFunc
PUBLIC	?SetMouseFunc@DXUTState@@QAEXP6GX_N0000HHHPAX@Z@Z ; DXUTState::SetMouseFunc
PUBLIC	?GetMouseFunc@DXUTState@@QAEP6GX_N0000HHHPAX@ZXZ ; DXUTState::GetMouseFunc
PUBLIC	?SetWindowMsgFunc@DXUTState@@QAEXP6GJPAUHWND__@@IIJPA_NPAX@Z@Z ; DXUTState::SetWindowMsgFunc
PUBLIC	?SetIsDeviceAcceptableFuncUserContext@DXUTState@@QAEXPAX@Z ; DXUTState::SetIsDeviceAcceptableFuncUserContext
PUBLIC	?GetIsDeviceAcceptableFuncUserContext@DXUTState@@QAEPAXXZ ; DXUTState::GetIsDeviceAcceptableFuncUserContext
PUBLIC	?SetModifyDeviceSettingsFuncUserContext@DXUTState@@QAEXPAX@Z ; DXUTState::SetModifyDeviceSettingsFuncUserContext
PUBLIC	?GetModifyDeviceSettingsFuncUserContext@DXUTState@@QAEPAXXZ ; DXUTState::GetModifyDeviceSettingsFuncUserContext
PUBLIC	?SetDeviceCreatedFuncUserContext@DXUTState@@QAEXPAX@Z ; DXUTState::SetDeviceCreatedFuncUserContext
PUBLIC	?GetDeviceCreatedFuncUserContext@DXUTState@@QAEPAXXZ ; DXUTState::GetDeviceCreatedFuncUserContext
PUBLIC	?SetDeviceResetFuncUserContext@DXUTState@@QAEXPAX@Z ; DXUTState::SetDeviceResetFuncUserContext
PUBLIC	?GetDeviceResetFuncUserContext@DXUTState@@QAEPAXXZ ; DXUTState::GetDeviceResetFuncUserContext
PUBLIC	?SetDeviceLostFuncUserContext@DXUTState@@QAEXPAX@Z ; DXUTState::SetDeviceLostFuncUserContext
PUBLIC	?GetDeviceLostFuncUserContext@DXUTState@@QAEPAXXZ ; DXUTState::GetDeviceLostFuncUserContext
PUBLIC	?SetDeviceDestroyedFuncUserContext@DXUTState@@QAEXPAX@Z ; DXUTState::SetDeviceDestroyedFuncUserContext
PUBLIC	?GetDeviceDestroyedFuncUserContext@DXUTState@@QAEPAXXZ ; DXUTState::GetDeviceDestroyedFuncUserContext
PUBLIC	?SetFrameMoveFuncUserContext@DXUTState@@QAEXPAX@Z ; DXUTState::SetFrameMoveFuncUserContext
PUBLIC	?GetFrameMoveFuncUserContext@DXUTState@@QAEPAXXZ ; DXUTState::GetFrameMoveFuncUserContext
PUBLIC	?SetFrameRenderFuncUserContext@DXUTState@@QAEXPAX@Z ; DXUTState::SetFrameRenderFuncUserContext
PUBLIC	?GetFrameRenderFuncUserContext@DXUTState@@QAEPAXXZ ; DXUTState::GetFrameRenderFuncUserContext
PUBLIC	?SetKeyboardFuncUserContext@DXUTState@@QAEXPAX@Z ; DXUTState::SetKeyboardFuncUserContext
PUBLIC	?GetKeyboardFuncUserContext@DXUTState@@QAEPAXXZ	; DXUTState::GetKeyboardFuncUserContext
PUBLIC	?SetMouseFuncUserContext@DXUTState@@QAEXPAX@Z	; DXUTState::SetMouseFuncUserContext
PUBLIC	?GetMouseFuncUserContext@DXUTState@@QAEPAXXZ	; DXUTState::GetMouseFuncUserContext
PUBLIC	?SetWindowMsgFuncUserContext@DXUTState@@QAEXPAX@Z ; DXUTState::SetWindowMsgFuncUserContext
PUBLIC	?SetTimerList@DXUTState@@QAEXPAV?$CGrowableArray@UDXUT_TIMER@@@@@Z ; DXUTState::SetTimerList
PUBLIC	?GetTimerList@DXUTState@@QAEPAV?$CGrowableArray@UDXUT_TIMER@@@@XZ ; DXUTState::GetTimerList
PUBLIC	?GetKeys@DXUTState@@QAEPA_NXZ			; DXUTState::GetKeys
PUBLIC	?GetMouseButtons@DXUTState@@QAEPA_NXZ		; DXUTState::GetMouseButtons
PUBLIC	?GetStaticFrameStats@DXUTState@@QAEPADXZ	; DXUTState::GetStaticFrameStats
PUBLIC	?GetFrameStats@DXUTState@@QAEPADXZ		; DXUTState::GetFrameStats
PUBLIC	?GetDeviceStats@DXUTState@@QAEPADXZ		; DXUTState::GetDeviceStats
PUBLIC	?GetWindowTitle@DXUTState@@QAEPADXZ		; DXUTState::GetWindowTitle
PUBLIC	?GetDXUTState@@YAAAVDXUTState@@XZ		; GetDXUTState
PUBLIC	?DXUTMapButtonToArrayIndex@@YAHE@Z		; DXUTMapButtonToArrayIndex
PUBLIC	?DXUTParseCommandLine@@YAXXZ			; DXUTParseCommandLine
PUBLIC	?DXUTPrepareEnumerationObject@@YAPAVCD3DEnumeration@@_N@Z ; DXUTPrepareEnumerationObject
PUBLIC	?DXUTBuildOptimalDeviceSettings@@YAXPAUDXUTDeviceSettings@@0PAUDXUTMatchOptions@@@Z ; DXUTBuildOptimalDeviceSettings
PUBLIC	?DXUTDoesDeviceComboMatchPreserveOptions@@YA_NPAUCD3DEnumDeviceSettingsCombo@@PAUDXUTDeviceSettings@@PAUDXUTMatchOptions@@@Z ; DXUTDoesDeviceComboMatchPreserveOptions
PUBLIC	?DXUTRankDeviceCombo@@YAMPAUCD3DEnumDeviceSettingsCombo@@PAUDXUTDeviceSettings@@PAU_D3DDISPLAYMODE@@@Z ; DXUTRankDeviceCombo
PUBLIC	?DXUTBuildValidDeviceSettings@@YAXPAUDXUTDeviceSettings@@PAUCD3DEnumDeviceSettingsCombo@@0PAUDXUTMatchOptions@@@Z ; DXUTBuildValidDeviceSettings
PUBLIC	?DXUTFindValidResolution@@YAJPAUCD3DEnumDeviceSettingsCombo@@U_D3DDISPLAYMODE@@PAU2@@Z ; DXUTFindValidResolution
PUBLIC	?DXUTFindAdapterFormat@@YAJIW4_D3DDEVTYPE@@W4_D3DFORMAT@@HPAW42@@Z ; DXUTFindAdapterFormat
PUBLIC	?DXUTChangeDevice@@YAJPAUDXUTDeviceSettings@@PAUIDirect3DDevice9@@_N2@Z ; DXUTChangeDevice
PUBLIC	?DXUTUpdateDeviceSettingsWithOverrides@@YAXPAUDXUTDeviceSettings@@@Z ; DXUTUpdateDeviceSettingsWithOverrides
PUBLIC	?DXUTCreate3DEnvironment@@YAJPAUIDirect3DDevice9@@@Z ; DXUTCreate3DEnvironment
PUBLIC	?DXUTUpdateFrameStats@@YAXXZ			; DXUTUpdateFrameStats
PUBLIC	?DXUTUpdateDeviceStats@@YAXW4_D3DDEVTYPE@@KPAU_D3DADAPTER_IDENTIFIER9@@@Z ; DXUTUpdateDeviceStats
PUBLIC	?DXUTUpdateStaticFrameStats@@YAXXZ		; DXUTUpdateStaticFrameStats
PUBLIC	?DXUTHandleTimers@@YAXXZ			; DXUTHandleTimers
PUBLIC	?DXUTGetCmdParam@@YA_NAAPADPADH@Z		; DXUTGetCmdParam
PUBLIC	?DXUTDisplayErrorMessage@@YAXJ@Z		; DXUTDisplayErrorMessage
PUBLIC	?DXUTCheckForWindowSizeChange@@YAXXZ		; DXUTCheckForWindowSizeChange
PUBLIC	?DXUTCheckForWindowChangingMonitors@@YAXXZ	; DXUTCheckForWindowChangingMonitors
PUBLIC	?DXUTGetAdapterOrdinalFromMonitor@@YAJPAUHMONITOR__@@PAI@Z ; DXUTGetAdapterOrdinalFromMonitor
PUBLIC	?DXUTAllowShortcutKeys@@YAX_N@Z			; DXUTAllowShortcutKeys
PUBLIC	?DXUTUpdateBackBufferDesc@@YAXXZ		; DXUTUpdateBackBufferDesc
PUBLIC	?DXUTInitHWCursor@@YAXXZ			; DXUTInitHWCursor
PUBLIC	?DXUTSetDeviceCursor@@YAJPAUIDirect3DDevice9@@PAUHICON__@@_N@Z ; DXUTSetDeviceCursor
PUBLIC	?DXUTGetDesktopResolution@@YAXIPAK0@Z		; DXUTGetDesktopResolution
PUBLIC	?LowLevelKeyboardProc@@YGJHIJ@Z			; LowLevelKeyboardProc
PUBLIC	??0?$CGrowableArray@UDXUT_TIMER@@@@QAE@XZ	; CGrowableArray<DXUT_TIMER>::CGrowableArray<DXUT_TIMER>
PUBLIC	?Add@?$CGrowableArray@UDXUT_TIMER@@@@QAEJABUDXUT_TIMER@@@Z ; CGrowableArray<DXUT_TIMER>::Add
PUBLIC	?SetAt@?$CGrowableArray@UDXUT_TIMER@@@@QAEJHABUDXUT_TIMER@@@Z ; CGrowableArray<DXUT_TIMER>::SetAt
PUBLIC	?GetAt@?$CGrowableArray@UDXUT_TIMER@@@@QAEAAUDXUT_TIMER@@H@Z ; CGrowableArray<DXUT_TIMER>::GetAt
PUBLIC	?GetSize@?$CGrowableArray@UDXUT_TIMER@@@@QBEHXZ	; CGrowableArray<DXUT_TIMER>::GetSize
PUBLIC	?SetSizeInternal@?$CGrowableArray@UDXUT_TIMER@@@@IAEJH@Z ; CGrowableArray<DXUT_TIMER>::SetSizeInternal
PUBLIC	??_C@_00CNPNBAHC@?$AA@				; `string'
PUBLIC	??_C@_06KDCOIDGA@USER32?$AA@			; `string'
PUBLIC	??_C@_0BB@BFCABEPI@GetSystemMetrics?$AA@	; `string'
PUBLIC	??_C@_0BC@CHFENAPF@MonitorFromWindow?$AA@	; `string'
PUBLIC	??_C@_0BA@DPLKJPEB@MonitorFromRect?$AA@		; `string'
PUBLIC	??_C@_0BB@DDMDAIAD@MonitorFromPoint?$AA@	; `string'
PUBLIC	??_C@_0BE@OHNDFFJG@EnumDisplayMonitors?$AA@	; `string'
PUBLIC	??_C@_0BA@KIAMMEPJ@GetMonitorInfoA?$AA@		; `string'
PUBLIC	??_C@_0BE@NPEOLIBM@EnumDisplayDevicesA?$AA@	; `string'
PUBLIC	??_C@_07JPHDIPNG@DISPLAY?$AA@			; `string'
PUBLIC	??_C@_0L@NLNDMMBI@?2winmm?4dll?$AA@		; `string'
PUBLIC	??_C@_0BA@DCPFICL@timeBeginPeriod?$AA@		; `string'
PUBLIC	?__LINE__Var@?1??DXUTInit@@YAJ_N00@Z@4JA	; `DXUTInit'::`2'::__LINE__Var
PUBLIC	??_C@_0BB@DDKDNGFF@D3DXCheckVersion?$AA@	; `string'
PUBLIC	??_C@_0CL@KBAHBIDF@z?3?2sampsrc?202xu1?2saco?2d3d9?2commo@ ; `string'
PUBLIC	??_C@_0BA@FAFMMBOF@Direct3DCreate9?$AA@		; `string'
PUBLIC	??_C@_07HEFHPBAB@adapter?$AA@			; `string'
PUBLIC	??_C@_08KIHLFLPI@windowed?$AA@			; `string'
PUBLIC	??_C@_0L@GIACNHMO@fullscreen?$AA@		; `string'
PUBLIC	??_C@_08OFMOLPPD@forcehal?$AA@			; `string'
PUBLIC	??_C@_08CHIMEIFO@forceref?$AA@			; `string'
PUBLIC	??_C@_0O@FCGFKHNN@forcepurehwvp?$AA@		; `string'
PUBLIC	??_C@_09GPKNDKAK@forcehwvp?$AA@			; `string'
PUBLIC	??_C@_09HIJNJMJJ@forceswvp?$AA@			; `string'
PUBLIC	??_C@_05IGKADHGO@width?$AA@			; `string'
PUBLIC	??_C@_06LNLHEAAG@height?$AA@			; `string'
PUBLIC	??_C@_06PONKKAHI@startx?$AA@			; `string'
PUBLIC	??_C@_06OHMBJBDJ@starty?$AA@			; `string'
PUBLIC	??_C@_0BC@DPFOJONK@constantframetime?$AA@	; `string'
PUBLIC	??_C@_0P@NCNNICJN@quitafterframe?$AA@		; `string'
PUBLIC	??_C@_0BA@EMDPCOOI@noerrormsgboxes?$AA@		; `string'
PUBLIC	??_C@_0L@GKIGKMJB@automation?$AA@		; `string'
PUBLIC	??_C@_0BG@BAGONEII@Unrecognized?5flag?3?5?$CFs?$AA@ ; `string'
PUBLIC	?__LINE__Var@?1??DXUTCreateWindow@@YAJPBDPAUHINSTANCE__@@PAUHICON__@@PAUHMENU__@@HH@Z@4JA ; `DXUTCreateWindow'::`2'::__LINE__Var
PUBLIC	??_C@_0BB@LKEDMNKO@DXUTCreateWindow?$AA@	; `string'
PUBLIC	??_C@_0BE@MKMDFNEO@Direct3DWindowClass?$AA@	; `string'
PUBLIC	??_C@_0O@NLFCIADE@RegisterClass?$AA@		; `string'
PUBLIC	??_C@_0N@GKGFHBLO@CreateWindow?$AA@		; `string'
PUBLIC	?__LINE__Var@?1??DXUTSetWindow@@YAJPAUHWND__@@00_N@Z@4JA ; `DXUTSetWindow'::`2'::__LINE__Var
PUBLIC	??_C@_0O@FNJALMEB@DXUTSetWindow?$AA@		; `string'
PUBLIC	??_C@_0BB@CBJJKGDE@SetWindowLongPtr?$AA@	; `string'
PUBLIC	?__LINE__Var@?1??DXUTCreateDevice@@YAJI_NHHP6G_NPAU_D3DCAPS9@@W4_D3DFORMAT@@20PAX@ZP6G_NPAUDXUTDeviceSettings@@PBU2@3@Z3@Z@4JA ; `DXUTCreateDevice'::`2'::__LINE__Var
PUBLIC	??_C@_0BA@FFFLJHOO@Direct3D?5Window?$AA@	; `string'
PUBLIC	??_C@_0BM@MONLLCLM@DXUTFindValidDeviceSettings?$AA@ ; `string'
PUBLIC	?__LINE__Var@?1??DXUTSetDevice@@YAJPAUIDirect3DDevice9@@@Z@4JA ; `DXUTSetDevice'::`2'::__LINE__Var
PUBLIC	??_C@_0O@KPHAHHEA@DXUTSetDevice?$AA@		; `string'
PUBLIC	?__LINE__Var@?1??DXUTCreateDeviceFromSettings@@YAJPAUDXUTDeviceSettings@@_N1@Z@4JA ; `DXUTCreateDeviceFromSettings'::`2'::__LINE__Var
PUBLIC	?__LINE__Var@?1??DXUTFindValidDeviceSettings@@YAJPAUDXUTDeviceSettings@@0PAUDXUTMatchOptions@@@Z@4JA ; `DXUTFindValidDeviceSettings'::`2'::__LINE__Var
PUBLIC	?__LINE__Var@?1??DXUTCreate3DEnvironment@@YAJPAUIDirect3DDevice9@@@Z@4JA ; `DXUTCreate3DEnvironment'::`2'::__LINE__Var
PUBLIC	??_C@_0N@JIIFLKLP@CreateDevice?$AA@		; `string'
PUBLIC	??_C@_0P@JJBHJNJD@OnCreateDevice?$AA@		; `string'
PUBLIC	??_C@_0BH@PGNAKDOD@DeviceCreated?5callback?$AA@	; `string'
PUBLIC	??_C@_0O@JFPFAANM@OnResetDevice?$AA@		; `string'
PUBLIC	??_C@_0BF@LLKHGPAB@DeviceReset?5callback?$AA@	; `string'
PUBLIC	?__LINE__Var@?1??DXUTReset3DEnvironment@@YAJXZ@4JA ; `DXUTReset3DEnvironment'::`2'::__LINE__Var
PUBLIC	??_C@_1FG@OJNOEDOF@?$AAz?$AA?3?$AA?2?$AAs?$AAa?$AAm?$AAp?$AAs?$AAr?$AAc?$AA?2?$AA0?$AA2?$AAx?$AAu?$AA1?$AA?2?$AAs?$AAa?$AAc?$AAo?$AA?2?$AAd?$AA3?$AAd?$AA9?$AA?2?$AAc?$AAo?$AAm?$AAm?$AAo@ ; `string'
PUBLIC	??_C@_1CG@LNDKPHPB@?$AAp?$AAd?$AA3?$AAd?$AAD?$AAe?$AAv?$AAi?$AAc?$AAe?$AA?5?$AA?$CB?$AA?$DN?$AA?5?$AAN?$AAU?$AAL?$AAL?$AA?$AA@ ; `string'
PUBLIC	??_C@_05CCGMLFNG@Reset?$AA@			; `string'
PUBLIC	??_C@_0BE@FGIMCOFA@DeviceResetCallback?$AA@	; `string'
PUBLIC	?__LINE__Var@?1??DXUTMainLoop@@YAJPAUHACCEL__@@@Z@4JA ; `DXUTMainLoop'::`2'::__LINE__Var
PUBLIC	??_C@_0N@IDGALNHJ@DXUTMainLoop?$AA@		; `string'
PUBLIC	?__LINE__Var@?1??DXUTRender3DEnvironment@@YAXXZ@4JA ; `DXUTRender3DEnvironment'::`2'::__LINE__Var
PUBLIC	??_C@_1HM@DAKFLFBC@?$AAD?$AAX?$AAU?$AAT?$AAG?$AAe?$AAt?$AAB?$AAa?$AAc?$AAk?$AAB?$AAu?$AAf?$AAf?$AAe?$AAr?$AAS?$AAu?$AAr?$AAf?$AAa?$AAc?$AAe?$AAD?$AAe?$AAs?$AAc?$AA?$CI?$AA?$CJ?$AA?9?$AA?$DO@ ; `string'
PUBLIC	??_C@_1IA@LBHFHEOB@?$AAD?$AAX?$AAU?$AAT?$AAG?$AAe?$AAt?$AAB?$AAa?$AAc?$AAk?$AAB?$AAu?$AAf?$AAf?$AAe?$AAr?$AAS?$AAu?$AAr?$AAf?$AAa?$AAc?$AAe?$AAD?$AAe?$AAs?$AAc?$AA?$CI?$AA?$CJ?$AA?9?$AA?$DO@ ; `string'
PUBLIC	??_C@_03GPMNEAGC@REF?$AA@			; `string'
PUBLIC	??_C@_02JHFFIENB@HA?$AA@			; `string'
PUBLIC	??_C@_02JLLOHNJH@SW?$AA@			; `string'
PUBLIC	??_C@_0O@INAAPCCB@?5?$CIpure?5hw?5vp?$CJ?$AA@	; `string'
PUBLIC	??_C@_0BI@KADHBMJM@?5?$CIsimulated?5pure?5hw?5vp?$CJ?$AA@ ; `string'
PUBLIC	??_C@_08IAMIAIBF@?5?$CIhw?5vp?$CJ?$AA@		; `string'
PUBLIC	??_C@_0BD@NNKCKNKM@?5?$CIsimulated?5hw?5vp?$CJ?$AA@ ; `string'
PUBLIC	??_C@_0M@NOOBLHBB@?5?$CImixed?5vp?$CJ?$AA@	; `string'
PUBLIC	??_C@_0BG@GKHJLCDJ@?5?$CIsimulated?5mixed?5vp?$CJ?$AA@ ; `string'
PUBLIC	??_C@_08OFBBMACB@?5?$CIsw?5vp?$CJ?$AA@		; `string'
PUBLIC	??_C@_02LMMGGCAJ@?3?5?$AA@			; `string'
PUBLIC	??_C@_0BH@CNBHLFAO@backbuf?5?$CFs?0?5adapter?5?$CFs?$AA@ ; `string'
PUBLIC	??_C@_05DNDNCJEB@?5?$CI?$CFs?$CJ?$AA@		; `string'
PUBLIC	??_C@_0BL@OEMADDMG@?5?$CINonmaskable?5Multisample?$CJ?$AA@ ; `string'
PUBLIC	??_C@_0BD@FAEAMFBM@?5?$CI?$CFdx?5Multisample?$CJ?$AA@ ; `string'
PUBLIC	??_C@_0BL@ELHDMKOG@?$CF?$CF?402f?5fps?5?$CI?$CFdx?$CFd?$CJ?0?5?$CFs?$CFs?$CFs?$AA@ ; `string'
PUBLIC	?__LINE__Var@?1??DXUTCleanup3DEnvironment@@YAX_N@Z@4JA ; `DXUTCleanup3DEnvironment'::`2'::__LINE__Var
PUBLIC	??_C@_0BJ@MCGMIGD@DXUTCleanup3DEnvironment?$AA@	; `string'
PUBLIC	?__LINE__Var@?1??DXUTSetTimer@@YAJP6GXIPAX@ZMPAI0@Z@4JA ; `DXUTSetTimer'::`2'::__LINE__Var
PUBLIC	??_C@_0N@FMEJHMAO@DXUTSetTimer?$AA@		; `string'
PUBLIC	?__LINE__Var@?1??DXUTKillTimer@@YAJI@Z@4JA	; `DXUTKillTimer'::`2'::__LINE__Var
PUBLIC	??_C@_0O@INMLKDAF@DXUTKillTimer?$AA@		; `string'
PUBLIC	??_C@_0OH@FLJPMJOG@Could?5not?5initialize?5Direct3D?4?5Y@ ; `string'
PUBLIC	??_C@_0CL@IGPDECHP@Incorrect?5version?5of?5Direct3D?5an@ ; `string'
PUBLIC	??_C@_0FD@EJIIMMAA@Could?5not?5find?5required?5media?4?5E@ ; `string'
PUBLIC	??_C@_0FH@GHOOFLN@The?5D3D?5device?5has?5a?5non?9zero?5re@ ; `string'
PUBLIC	??_C@_0CF@CPEKMMJN@Failed?5creating?5the?5Direct3D?5dev@ ; `string'
PUBLIC	??_C@_0CG@NKKNAJJN@Failed?5resetting?5the?5Direct3D?5de@ ; `string'
PUBLIC	??_C@_0CJ@NGDMEEIH@Failed?5creating?5Direct3D?5device?5@ ; `string'
PUBLIC	??_C@_0CK@JNLAHDJE@Failed?5resetting?5Direct3D?5device@ ; `string'
PUBLIC	??_C@_0CO@JDBEDMFP@Direct3D?5does?5not?5work?5over?5a?5re@ ; `string'
PUBLIC	??_C@_0DA@IAMFMDGP@Could?5not?5find?5any?5compatible?5Di@ ; `string'
PUBLIC	??_C@_0BE@BDKDCPJA@DirectX?5Application?$AA@	; `string'
PUBLIC	??_C@_1FK@FIMIDMPE@?$AAz?$AA?3?$AA?2?$AAs?$AAa?$AAm?$AAp?$AAs?$AAr?$AAc?$AA?2?$AA0?$AA2?$AAx?$AAu?$AA1?$AA?2?$AAs?$AAa?$AAc?$AAo?$AA?2?$AAd?$AA3?$AAd?$AA9?$AA?2?$AAc?$AAo?$AAm?$AAm?$AAo@ ; `string'
PUBLIC	??_C@_1EA@JHMKKLFC@?$AAn?$AAI?$AAn?$AAd?$AAe?$AAx?$AA?5?$AA?$DO?$AA?$DN?$AA?5?$AA0?$AA?5?$AA?$CG?$AA?$CG?$AA?5?$AAn?$AAI?$AAn?$AAd?$AAe?$AAx?$AA?5?$AA?$DM?$AA?5?$AAm?$AA_?$AAn?$AAS?$AAi?$AAz?$AAe?$AA?$AA@ ; `string'
PUBLIC	??_C@_1M@HLGKFCJM@?$AAf?$AAa?$AAl?$AAs?$AAe?$AA?$AA@ ; `string'
PUBLIC	__real@00000000
PUBLIC	__real@0000000000000000
PUBLIC	__real@3d086595
PUBLIC	__real@3dcccccd
PUBLIC	__real@3e4ccccd
PUBLIC	__real@3f666666
PUBLIC	__real@3f800000
PUBLIC	__real@3ff0000000000000
PUBLIC	__real@41200000
PUBLIC	__real@42c80000
PUBLIC	__real@447a0000
PUBLIC	__real@bf800000
PUBLIC	__xmm@41f00000000000000000000000000000
EXTRN	??2@YAPAXI@Z:PROC				; operator new
EXTRN	??3@YAXPAX@Z:PROC				; operator delete
EXTRN	_atexit:PROC
EXTRN	___report_rangecheckfailure:PROC
EXTRN	_memcpy:PROC
EXTRN	_memset:PROC
EXTRN	_strcpy:PROC
EXTRN	_strlen:PROC
EXTRN	__strnicmp:PROC
EXTRN	__imp__GetCommandLineA@0:PROC
EXTRN	__imp__GetLastError@0:PROC
EXTRN	__imp__InitializeCriticalSection@4:PROC
EXTRN	__imp__EnterCriticalSection@4:PROC
EXTRN	__imp__LeaveCriticalSection@4:PROC
EXTRN	__imp__DeleteCriticalSection@4:PROC
EXTRN	__imp__Sleep@4:PROC
EXTRN	__imp__GetSystemDirectoryA@8:PROC
EXTRN	__imp__GetVersionExA@4:PROC
EXTRN	__imp__FreeLibrary@4:PROC
EXTRN	__imp__GetModuleFileNameA@12:PROC
EXTRN	__imp__GetModuleHandleA@4:PROC
EXTRN	__imp__GetProcAddress@8:PROC
EXTRN	__imp__lstrcpyA@8:PROC
EXTRN	__imp__LoadLibraryA@4:PROC
EXTRN	__imp__CreateCompatibleDC@4:PROC
EXTRN	__imp__DeleteDC@4:PROC
EXTRN	__imp__DeleteObject@4:PROC
EXTRN	__imp__GetClipBox@8:PROC
EXTRN	__imp__GetDIBits@28:PROC
EXTRN	__imp__GetStockObject@4:PROC
EXTRN	__imp__SelectObject@8:PROC
EXTRN	__imp__GetObjectA@12:PROC
EXTRN	__imp__GetDCOrgEx@8:PROC
EXTRN	__imp__TranslateMessage@4:PROC
EXTRN	__imp__DispatchMessageA@4:PROC
EXTRN	__imp__PeekMessageA@20:PROC
EXTRN	__imp__SendMessageA@16:PROC
EXTRN	__imp__DefWindowProcA@16:PROC
EXTRN	__imp__PostQuitMessage@4:PROC
EXTRN	__imp__RegisterClassA@4:PROC
EXTRN	__imp__UnregisterClassA@8:PROC
EXTRN	__imp__CreateWindowExA@48:PROC
EXTRN	__imp__DestroyWindow@4:PROC
EXTRN	__imp__ShowWindow@8:PROC
EXTRN	__imp__SetWindowPos@28:PROC
EXTRN	__imp__GetWindowPlacement@8:PROC
EXTRN	__imp__SetWindowPlacement@8:PROC
EXTRN	__imp__IsWindowVisible@4:PROC
EXTRN	__imp__IsIconic@4:PROC
EXTRN	__imp__IsZoomed@4:PROC
EXTRN	__imp__GetAsyncKeyState@4:PROC
EXTRN	__imp__DestroyAcceleratorTable@4:PROC
EXTRN	__imp__TranslateAcceleratorA@12:PROC
EXTRN	__imp__GetSystemMetrics@4:PROC
EXTRN	__imp__GetMenu@4:PROC
EXTRN	__imp__SetMenu@8:PROC
EXTRN	__imp__DestroyMenu@4:PROC
EXTRN	__imp__GetDC@4:PROC
EXTRN	__imp__ReleaseDC@8:PROC
EXTRN	__imp__GetWindowTextA@12:PROC
EXTRN	__imp__GetClientRect@8:PROC
EXTRN	__imp__GetWindowRect@8:PROC
EXTRN	__imp__AdjustWindowRect@12:PROC
EXTRN	__imp__MessageBoxA@16:PROC
EXTRN	__imp__GetCursorPos@4:PROC
EXTRN	__imp__ClipCursor@4:PROC
EXTRN	__imp__ScreenToClient@8:PROC
EXTRN	__imp__SetRect@20:PROC
EXTRN	__imp__IntersectRect@12:PROC
EXTRN	__imp__OffsetRect@12:PROC
EXTRN	__imp__GetWindowLongA@8:PROC
EXTRN	__imp__SetWindowLongA@12:PROC
EXTRN	__imp__GetClassLongA@8:PROC
EXTRN	__imp__CallNextHookEx@16:PROC
EXTRN	__imp__LoadCursorA@8:PROC
EXTRN	__imp__GetIconInfo@8:PROC
EXTRN	__imp__EnumDisplaySettingsA@12:PROC
EXTRN	__imp__SystemParametersInfoA@16:PROC
EXTRN	__imp__ExtractIconA@12:PROC
EXTRN	_abs:PROC
EXTRN	_labs:PROC
EXTRN	_atoi:PROC
EXTRN	_strtod:PROC
EXTRN	_free:PROC
EXTRN	_realloc:PROC
EXTRN	__wassert:PROC
EXTRN	__imp__InitCommonControls@0:PROC
EXTRN	__vsnprintf:PROC
EXTRN	??_U@YAPAXI@Z:PROC				; operator new[]
EXTRN	??_V@YAXPAX@Z:PROC				; operator delete[]
EXTRN	_D3DXCheckVersion@8:PROC
EXTRN	?DXTraceWrapper@@YGJPBDKJ0H@Z:PROC		; DXTraceWrapper
EXTRN	?Reset@CDXUTTimer@@QAEXXZ:PROC			; CDXUTTimer::Reset
EXTRN	?Start@CDXUTTimer@@QAEXXZ:PROC			; CDXUTTimer::Start
EXTRN	?Stop@CDXUTTimer@@QAEXXZ:PROC			; CDXUTTimer::Stop
EXTRN	?GetAbsoluteTime@CDXUTTimer@@QAENXZ:PROC	; CDXUTTimer::GetAbsoluteTime
EXTRN	?GetTime@CDXUTTimer@@QAENXZ:PROC		; CDXUTTimer::GetTime
EXTRN	?GetElapsedTime@CDXUTTimer@@QAENXZ:PROC		; CDXUTTimer::GetElapsedTime
EXTRN	?DXUTGetGlobalTimer@@YAPAVCDXUTTimer@@XZ:PROC	; DXUTGetGlobalTimer
EXTRN	?OnCreateDevice@CDXUTResourceCache@@QAEJPAUIDirect3DDevice9@@@Z:PROC ; CDXUTResourceCache::OnCreateDevice
EXTRN	?OnResetDevice@CDXUTResourceCache@@QAEJPAUIDirect3DDevice9@@@Z:PROC ; CDXUTResourceCache::OnResetDevice
EXTRN	?OnLostDevice@CDXUTResourceCache@@QAEJXZ:PROC	; CDXUTResourceCache::OnLostDevice
EXTRN	?OnDestroyDevice@CDXUTResourceCache@@QAEJXZ:PROC ; CDXUTResourceCache::OnDestroyDevice
EXTRN	?DXUTGetGlobalResourceCache@@YAAAVCDXUTResourceCache@@XZ:PROC ; DXUTGetGlobalResourceCache
EXTRN	?DXUTD3DFormatToString@@YAPBDW4_D3DFORMAT@@_N@Z:PROC ; DXUTD3DFormatToString
EXTRN	?DXUTOutputDebugStringA@@YAXPBDZZ:PROC		; DXUTOutputDebugStringA
EXTRN	?DXUT_Dynamic_Direct3DCreate9@@YGPAUIDirect3D9@@I@Z:PROC ; DXUT_Dynamic_Direct3DCreate9
EXTRN	?Enumerate@CD3DEnumeration@@QAEJPAUIDirect3D9@@P6G_NPAU_D3DCAPS9@@W4_D3DFORMAT@@2_NPAX@Z4@Z:PROC ; CD3DEnumeration::Enumerate
EXTRN	?GetAdapterInfoList@CD3DEnumeration@@QAEPAV?$CGrowableArray@PAVCD3DEnumAdapterInfo@@@@XZ:PROC ; CD3DEnumeration::GetAdapterInfoList
EXTRN	?GetAdapterInfo@CD3DEnumeration@@QAEPAVCD3DEnumAdapterInfo@@I@Z:PROC ; CD3DEnumeration::GetAdapterInfo
EXTRN	?GetDeviceInfo@CD3DEnumeration@@QAEPAVCD3DEnumDeviceInfo@@IW4_D3DDEVTYPE@@@Z:PROC ; CD3DEnumeration::GetDeviceInfo
EXTRN	?GetDeviceSettingsCombo@CD3DEnumeration@@QAEPAUCD3DEnumDeviceSettingsCombo@@IW4_D3DDEVTYPE@@W4_D3DFORMAT@@1H@Z:PROC ; CD3DEnumeration::GetDeviceSettingsCombo
EXTRN	?DXUTGetEnumeration@@YAPAVCD3DEnumeration@@XZ:PROC ; DXUTGetEnumeration
EXTRN	?DXUTColorChannelBits@@YAIW4_D3DFORMAT@@@Z:PROC	; DXUTColorChannelBits
EXTRN	?DXUTStencilBits@@YAIW4_D3DFORMAT@@@Z:PROC	; DXUTStencilBits
EXTRN	?DXUTDepthBits@@YAIW4_D3DFORMAT@@@Z:PROC	; DXUTDepthBits
EXTRN	@_RTC_CheckStackVars@8:PROC
EXTRN	@__security_check_cookie@4:PROC
EXTRN	__RTC_CheckEsp:PROC
EXTRN	__RTC_InitBase:PROC
EXTRN	__RTC_Shutdown:PROC
EXTRN	___CxxFrameHandler3:PROC
EXTRN	_memset:PROC
EXTRN	_IID_IDirect3DSwapChain9:BYTE
EXTRN	___security_cookie:DWORD
EXTRN	__fltused:DWORD
_BSS	SEGMENT
?state@?1??GetDXUTState@@YAAAVDXUTState@@XZ@4V2@A DB 07bdH DUP (?) ; `GetDXUTState'::`2'::state
	ALIGN	4

?$S1@?1??GetDXUTState@@YAAAVDXUTState@@XZ@4IA DD 01H DUP (?) ; `GetDXUTState'::`2'::$S1
_BSS	ENDS
;	COMDAT __xmm@41f00000000000000000000000000000
CONST	SEGMENT
__xmm@41f00000000000000000000000000000 DB 00H, 00H, 00H, 00H, 00H, 00H, 00H
	DB	00H, 00H, 00H, 00H, 00H, 00H, 00H, 0f0H, 'A'
CONST	ENDS
;	COMDAT __real@bf800000
CONST	SEGMENT
__real@bf800000 DD 0bf800000r			; -1
CONST	ENDS
;	COMDAT __real@447a0000
CONST	SEGMENT
__real@447a0000 DD 0447a0000r			; 1000
CONST	ENDS
;	COMDAT __real@42c80000
CONST	SEGMENT
__real@42c80000 DD 042c80000r			; 100
CONST	ENDS
;	COMDAT __real@41200000
CONST	SEGMENT
__real@41200000 DD 041200000r			; 10
CONST	ENDS
;	COMDAT __real@3ff0000000000000
CONST	SEGMENT
__real@3ff0000000000000 DQ 03ff0000000000000r	; 1
CONST	ENDS
;	COMDAT __real@3f800000
CONST	SEGMENT
__real@3f800000 DD 03f800000r			; 1
CONST	ENDS
;	COMDAT __real@3f666666
CONST	SEGMENT
__real@3f666666 DD 03f666666r			; 0.9
CONST	ENDS
;	COMDAT __real@3e4ccccd
CONST	SEGMENT
__real@3e4ccccd DD 03e4ccccdr			; 0.2
CONST	ENDS
;	COMDAT __real@3dcccccd
CONST	SEGMENT
__real@3dcccccd DD 03dcccccdr			; 0.1
CONST	ENDS
;	COMDAT __real@3d086595
CONST	SEGMENT
__real@3d086595 DD 03d086595r			; 0.0333
CONST	ENDS
;	COMDAT __real@0000000000000000
CONST	SEGMENT
__real@0000000000000000 DQ 00000000000000000r	; 0
CONST	ENDS
;	COMDAT __real@00000000
CONST	SEGMENT
__real@00000000 DD 000000000r			; 0
CONST	ENDS
;	COMDAT rtc$TMZ
rtc$TMZ	SEGMENT
__RTC_Shutdown.rtc$TMZ DD FLAT:__RTC_Shutdown
rtc$TMZ	ENDS
;	COMDAT rtc$IMZ
rtc$IMZ	SEGMENT
__RTC_InitBase.rtc$IMZ DD FLAT:__RTC_InitBase
rtc$IMZ	ENDS
;	COMDAT ??_C@_1M@HLGKFCJM@?$AAf?$AAa?$AAl?$AAs?$AAe?$AA?$AA@
CONST	SEGMENT
??_C@_1M@HLGKFCJM@?$AAf?$AAa?$AAl?$AAs?$AAe?$AA?$AA@ DB 'f', 00H, 'a', 00H
	DB	'l', 00H, 's', 00H, 'e', 00H, 00H, 00H	; `string'
CONST	ENDS
;	COMDAT ??_C@_1EA@JHMKKLFC@?$AAn?$AAI?$AAn?$AAd?$AAe?$AAx?$AA?5?$AA?$DO?$AA?$DN?$AA?5?$AA0?$AA?5?$AA?$CG?$AA?$CG?$AA?5?$AAn?$AAI?$AAn?$AAd?$AAe?$AAx?$AA?5?$AA?$DM?$AA?5?$AAm?$AA_?$AAn?$AAS?$AAi?$AAz?$AAe?$AA?$AA@
CONST	SEGMENT
??_C@_1EA@JHMKKLFC@?$AAn?$AAI?$AAn?$AAd?$AAe?$AAx?$AA?5?$AA?$DO?$AA?$DN?$AA?5?$AA0?$AA?5?$AA?$CG?$AA?$CG?$AA?5?$AAn?$AAI?$AAn?$AAd?$AAe?$AAx?$AA?5?$AA?$DM?$AA?5?$AAm?$AA_?$AAn?$AAS?$AAi?$AAz?$AAe?$AA?$AA@ DB 'n'
	DB	00H, 'I', 00H, 'n', 00H, 'd', 00H, 'e', 00H, 'x', 00H, ' ', 00H
	DB	'>', 00H, '=', 00H, ' ', 00H, '0', 00H, ' ', 00H, '&', 00H, '&'
	DB	00H, ' ', 00H, 'n', 00H, 'I', 00H, 'n', 00H, 'd', 00H, 'e', 00H
	DB	'x', 00H, ' ', 00H, '<', 00H, ' ', 00H, 'm', 00H, '_', 00H, 'n'
	DB	00H, 'S', 00H, 'i', 00H, 'z', 00H, 'e', 00H, 00H, 00H ; `string'
CONST	ENDS
;	COMDAT ??_C@_1FK@FIMIDMPE@?$AAz?$AA?3?$AA?2?$AAs?$AAa?$AAm?$AAp?$AAs?$AAr?$AAc?$AA?2?$AA0?$AA2?$AAx?$AAu?$AA1?$AA?2?$AAs?$AAa?$AAc?$AAo?$AA?2?$AAd?$AA3?$AAd?$AA9?$AA?2?$AAc?$AAo?$AAm?$AAm?$AAo@
CONST	SEGMENT
??_C@_1FK@FIMIDMPE@?$AAz?$AA?3?$AA?2?$AAs?$AAa?$AAm?$AAp?$AAs?$AAr?$AAc?$AA?2?$AA0?$AA2?$AAx?$AAu?$AA1?$AA?2?$AAs?$AAa?$AAc?$AAo?$AA?2?$AAd?$AA3?$AAd?$AA9?$AA?2?$AAc?$AAo?$AAm?$AAm?$AAo@ DB 'z'
	DB	00H, ':', 00H, '\', 00H, 's', 00H, 'a', 00H, 'm', 00H, 'p', 00H
	DB	's', 00H, 'r', 00H, 'c', 00H, '\', 00H, '0', 00H, '2', 00H, 'x'
	DB	00H, 'u', 00H, '1', 00H, '\', 00H, 's', 00H, 'a', 00H, 'c', 00H
	DB	'o', 00H, '\', 00H, 'd', 00H, '3', 00H, 'd', 00H, '9', 00H, '\'
	DB	00H, 'c', 00H, 'o', 00H, 'm', 00H, 'm', 00H, 'o', 00H, 'n', 00H
	DB	'\', 00H, 'd', 00H, 'x', 00H, 'u', 00H, 't', 00H, 'm', 00H, 'i'
	DB	00H, 's', 00H, 'c', 00H, '.', 00H, 'h', 00H, 00H, 00H ; `string'
CONST	ENDS
;	COMDAT ??_C@_0BE@BDKDCPJA@DirectX?5Application?$AA@
CONST	SEGMENT
??_C@_0BE@BDKDCPJA@DirectX?5Application?$AA@ DB 'DirectX Application', 00H ; `string'
CONST	ENDS
;	COMDAT ??_C@_0DA@IAMFMDGP@Could?5not?5find?5any?5compatible?5Di@
CONST	SEGMENT
??_C@_0DA@IAMFMDGP@Could?5not?5find?5any?5compatible?5Di@ DB 'Could not f'
	DB	'ind any compatible Direct3D devices.', 00H	; `string'
CONST	ENDS
;	COMDAT ??_C@_0CO@JDBEDMFP@Direct3D?5does?5not?5work?5over?5a?5re@
CONST	SEGMENT
??_C@_0CO@JDBEDMFP@Direct3D?5does?5not?5work?5over?5a?5re@ DB 'Direct3D d'
	DB	'oes not work over a remote session.', 00H	; `string'
CONST	ENDS
;	COMDAT ??_C@_0CK@JNLAHDJE@Failed?5resetting?5Direct3D?5device@
CONST	SEGMENT
??_C@_0CK@JNLAHDJE@Failed?5resetting?5Direct3D?5device@ DB 'Failed resett'
	DB	'ing Direct3D device objects.', 00H		; `string'
CONST	ENDS
;	COMDAT ??_C@_0CJ@NGDMEEIH@Failed?5creating?5Direct3D?5device?5@
CONST	SEGMENT
??_C@_0CJ@NGDMEEIH@Failed?5creating?5Direct3D?5device?5@ DB 'Failed creat'
	DB	'ing Direct3D device objects.', 00H		; `string'
CONST	ENDS
;	COMDAT ??_C@_0CG@NKKNAJJN@Failed?5resetting?5the?5Direct3D?5de@
CONST	SEGMENT
??_C@_0CG@NKKNAJJN@Failed?5resetting?5the?5Direct3D?5de@ DB 'Failed reset'
	DB	'ting the Direct3D device.', 00H		; `string'
CONST	ENDS
;	COMDAT ??_C@_0CF@CPEKMMJN@Failed?5creating?5the?5Direct3D?5dev@
CONST	SEGMENT
??_C@_0CF@CPEKMMJN@Failed?5creating?5the?5Direct3D?5dev@ DB 'Failed creat'
	DB	'ing the Direct3D device.', 00H		; `string'
CONST	ENDS
;	COMDAT ??_C@_0FH@GHOOFLN@The?5D3D?5device?5has?5a?5non?9zero?5re@
CONST	SEGMENT
??_C@_0FH@GHOOFLN@The?5D3D?5device?5has?5a?5non?9zero?5re@ DB 'The D3D de'
	DB	'vice has a non-zero reference count, meaning some objects wer'
	DB	'e not released.', 00H			; `string'
CONST	ENDS
;	COMDAT ??_C@_0FD@EJIIMMAA@Could?5not?5find?5required?5media?4?5E@
CONST	SEGMENT
??_C@_0FD@EJIIMMAA@Could?5not?5find?5required?5media?4?5E@ DB 'Could not '
	DB	'find required media. Ensure that the DirectX SDK is correctly'
	DB	' installed.', 00H				; `string'
CONST	ENDS
;	COMDAT ??_C@_0CL@IGPDECHP@Incorrect?5version?5of?5Direct3D?5an@
CONST	SEGMENT
??_C@_0CL@IGPDECHP@Incorrect?5version?5of?5Direct3D?5an@ DB 'Incorrect ve'
	DB	'rsion of Direct3D and/or D3DX.', 00H	; `string'
CONST	ENDS
;	COMDAT ??_C@_0OH@FLJPMJOG@Could?5not?5initialize?5Direct3D?4?5Y@
CONST	SEGMENT
??_C@_0OH@FLJPMJOG@Could?5not?5initialize?5Direct3D?4?5Y@ DB 'Could not i'
	DB	'nitialize Direct3D. You may want to check that the latest ver'
	DB	'sion of DirectX is correctly installed on your system.  Also '
	DB	'make sure that this program was compiled with header files th'
	DB	'at match the installed DirectX DLLs.', 00H	; `string'
CONST	ENDS
;	COMDAT ??_C@_0O@INMLKDAF@DXUTKillTimer?$AA@
CONST	SEGMENT
??_C@_0O@INMLKDAF@DXUTKillTimer?$AA@ DB 'DXUTKillTimer', 00H ; `string'
CONST	ENDS
;	COMDAT ?__LINE__Var@?1??DXUTKillTimer@@YAJI@Z@4JA
_DATA	SEGMENT
?__LINE__Var@?1??DXUTKillTimer@@YAJI@Z@4JA DD 01171H	; `DXUTKillTimer'::`2'::__LINE__Var
_DATA	ENDS
;	COMDAT ??_C@_0N@FMEJHMAO@DXUTSetTimer?$AA@
CONST	SEGMENT
??_C@_0N@FMEJHMAO@DXUTSetTimer?$AA@ DB 'DXUTSetTimer', 00H ; `string'
CONST	ENDS
;	COMDAT ?__LINE__Var@?1??DXUTSetTimer@@YAJP6GXIPAX@ZMPAI0@Z@4JA
_DATA	SEGMENT
?__LINE__Var@?1??DXUTSetTimer@@YAJP6GXIPAX@ZMPAI0@Z@4JA DD 0114eH ; `DXUTSetTimer'::`2'::__LINE__Var
_DATA	ENDS
;	COMDAT ??_C@_0BJ@MCGMIGD@DXUTCleanup3DEnvironment?$AA@
CONST	SEGMENT
??_C@_0BJ@MCGMIGD@DXUTCleanup3DEnvironment?$AA@ DB 'DXUTCleanup3DEnvironm'
	DB	'ent', 00H					; `string'
CONST	ENDS
;	COMDAT ?__LINE__Var@?1??DXUTCleanup3DEnvironment@@YAX_N@Z@4JA
_DATA	SEGMENT
?__LINE__Var@?1??DXUTCleanup3DEnvironment@@YAX_N@Z@4JA DD 010faH ; `DXUTCleanup3DEnvironment'::`2'::__LINE__Var
_DATA	ENDS
;	COMDAT ??_C@_0BL@ELHDMKOG@?$CF?$CF?402f?5fps?5?$CI?$CFdx?$CFd?$CJ?0?5?$CFs?$CFs?$CFs?$AA@
CONST	SEGMENT
??_C@_0BL@ELHDMKOG@?$CF?$CF?402f?5fps?5?$CI?$CFdx?$CFd?$CJ?0?5?$CFs?$CFs?$CFs?$AA@ DB '%'
	DB	'%.02f fps (%dx%d), %s%s%s', 00H		; `string'
CONST	ENDS
;	COMDAT ??_C@_0BD@FAEAMFBM@?5?$CI?$CFdx?5Multisample?$CJ?$AA@
CONST	SEGMENT
??_C@_0BD@FAEAMFBM@?5?$CI?$CFdx?5Multisample?$CJ?$AA@ DB ' (%dx Multisamp'
	DB	'le)', 00H					; `string'
CONST	ENDS
;	COMDAT ??_C@_0BL@OEMADDMG@?5?$CINonmaskable?5Multisample?$CJ?$AA@
CONST	SEGMENT
??_C@_0BL@OEMADDMG@?5?$CINonmaskable?5Multisample?$CJ?$AA@ DB ' (Nonmaska'
	DB	'ble Multisample)', 00H			; `string'
CONST	ENDS
;	COMDAT ??_C@_05DNDNCJEB@?5?$CI?$CFs?$CJ?$AA@
CONST	SEGMENT
??_C@_05DNDNCJEB@?5?$CI?$CFs?$CJ?$AA@ DB ' (%s)', 00H	; `string'
CONST	ENDS
;	COMDAT ??_C@_0BH@CNBHLFAO@backbuf?5?$CFs?0?5adapter?5?$CFs?$AA@
CONST	SEGMENT
??_C@_0BH@CNBHLFAO@backbuf?5?$CFs?0?5adapter?5?$CFs?$AA@ DB 'backbuf %s, '
	DB	'adapter %s', 00H				; `string'
CONST	ENDS
;	COMDAT ??_C@_02LMMGGCAJ@?3?5?$AA@
CONST	SEGMENT
??_C@_02LMMGGCAJ@?3?5?$AA@ DB ': ', 00H			; `string'
CONST	ENDS
;	COMDAT ??_C@_08OFBBMACB@?5?$CIsw?5vp?$CJ?$AA@
CONST	SEGMENT
??_C@_08OFBBMACB@?5?$CIsw?5vp?$CJ?$AA@ DB ' (sw vp)', 00H ; `string'
CONST	ENDS
;	COMDAT ??_C@_0BG@GKHJLCDJ@?5?$CIsimulated?5mixed?5vp?$CJ?$AA@
CONST	SEGMENT
??_C@_0BG@GKHJLCDJ@?5?$CIsimulated?5mixed?5vp?$CJ?$AA@ DB ' (simulated mi'
	DB	'xed vp)', 00H				; `string'
CONST	ENDS
;	COMDAT ??_C@_0M@NOOBLHBB@?5?$CImixed?5vp?$CJ?$AA@
CONST	SEGMENT
??_C@_0M@NOOBLHBB@?5?$CImixed?5vp?$CJ?$AA@ DB ' (mixed vp)', 00H ; `string'
CONST	ENDS
;	COMDAT ??_C@_0BD@NNKCKNKM@?5?$CIsimulated?5hw?5vp?$CJ?$AA@
CONST	SEGMENT
??_C@_0BD@NNKCKNKM@?5?$CIsimulated?5hw?5vp?$CJ?$AA@ DB ' (simulated hw vp'
	DB	')', 00H					; `string'
CONST	ENDS
;	COMDAT ??_C@_08IAMIAIBF@?5?$CIhw?5vp?$CJ?$AA@
CONST	SEGMENT
??_C@_08IAMIAIBF@?5?$CIhw?5vp?$CJ?$AA@ DB ' (hw vp)', 00H ; `string'
CONST	ENDS
;	COMDAT ??_C@_0BI@KADHBMJM@?5?$CIsimulated?5pure?5hw?5vp?$CJ?$AA@
CONST	SEGMENT
??_C@_0BI@KADHBMJM@?5?$CIsimulated?5pure?5hw?5vp?$CJ?$AA@ DB ' (simulated'
	DB	' pure hw vp)', 00H				; `string'
CONST	ENDS
;	COMDAT ??_C@_0O@INAAPCCB@?5?$CIpure?5hw?5vp?$CJ?$AA@
CONST	SEGMENT
??_C@_0O@INAAPCCB@?5?$CIpure?5hw?5vp?$CJ?$AA@ DB ' (pure hw vp)', 00H ; `string'
CONST	ENDS
;	COMDAT ??_C@_02JLLOHNJH@SW?$AA@
CONST	SEGMENT
??_C@_02JLLOHNJH@SW?$AA@ DB 'SW', 00H			; `string'
CONST	ENDS
;	COMDAT ??_C@_02JHFFIENB@HA?$AA@
CONST	SEGMENT
??_C@_02JHFFIENB@HA?$AA@ DB 'HA', 00H			; `string'
CONST	ENDS
;	COMDAT ??_C@_03GPMNEAGC@REF?$AA@
CONST	SEGMENT
??_C@_03GPMNEAGC@REF?$AA@ DB 'REF', 00H			; `string'
CONST	ENDS
;	COMDAT ??_C@_1IA@LBHFHEOB@?$AAD?$AAX?$AAU?$AAT?$AAG?$AAe?$AAt?$AAB?$AAa?$AAc?$AAk?$AAB?$AAu?$AAf?$AAf?$AAe?$AAr?$AAS?$AAu?$AAr?$AAf?$AAa?$AAc?$AAe?$AAD?$AAe?$AAs?$AAc?$AA?$CI?$AA?$CJ?$AA?9?$AA?$DO@
CONST	SEGMENT
??_C@_1IA@LBHFHEOB@?$AAD?$AAX?$AAU?$AAT?$AAG?$AAe?$AAt?$AAB?$AAa?$AAc?$AAk?$AAB?$AAu?$AAf?$AAf?$AAe?$AAr?$AAS?$AAu?$AAr?$AAf?$AAa?$AAc?$AAe?$AAD?$AAe?$AAs?$AAc?$AA?$CI?$AA?$CJ?$AA?9?$AA?$DO@ DB 'D'
	DB	00H, 'X', 00H, 'U', 00H, 'T', 00H, 'G', 00H, 'e', 00H, 't', 00H
	DB	'B', 00H, 'a', 00H, 'c', 00H, 'k', 00H, 'B', 00H, 'u', 00H, 'f'
	DB	00H, 'f', 00H, 'e', 00H, 'r', 00H, 'S', 00H, 'u', 00H, 'r', 00H
	DB	'f', 00H, 'a', 00H, 'c', 00H, 'e', 00H, 'D', 00H, 'e', 00H, 's'
	DB	00H, 'c', 00H, '(', 00H, ')', 00H, '-', 00H, '>', 00H, 'H', 00H
	DB	'e', 00H, 'i', 00H, 'g', 00H, 'h', 00H, 't', 00H, ' ', 00H, '='
	DB	00H, '=', 00H, ' ', 00H, '(', 00H, 'U', 00H, 'I', 00H, 'N', 00H
	DB	'T', 00H, ')', 00H, 'r', 00H, 'c', 00H, 'C', 00H, 'l', 00H, 'i'
	DB	00H, 'e', 00H, 'n', 00H, 't', 00H, '.', 00H, 'b', 00H, 'o', 00H
	DB	't', 00H, 't', 00H, 'o', 00H, 'm', 00H, 00H, 00H ; `string'
CONST	ENDS
;	COMDAT ??_C@_1HM@DAKFLFBC@?$AAD?$AAX?$AAU?$AAT?$AAG?$AAe?$AAt?$AAB?$AAa?$AAc?$AAk?$AAB?$AAu?$AAf?$AAf?$AAe?$AAr?$AAS?$AAu?$AAr?$AAf?$AAa?$AAc?$AAe?$AAD?$AAe?$AAs?$AAc?$AA?$CI?$AA?$CJ?$AA?9?$AA?$DO@
CONST	SEGMENT
??_C@_1HM@DAKFLFBC@?$AAD?$AAX?$AAU?$AAT?$AAG?$AAe?$AAt?$AAB?$AAa?$AAc?$AAk?$AAB?$AAu?$AAf?$AAf?$AAe?$AAr?$AAS?$AAu?$AAr?$AAf?$AAa?$AAc?$AAe?$AAD?$AAe?$AAs?$AAc?$AA?$CI?$AA?$CJ?$AA?9?$AA?$DO@ DB 'D'
	DB	00H, 'X', 00H, 'U', 00H, 'T', 00H, 'G', 00H, 'e', 00H, 't', 00H
	DB	'B', 00H, 'a', 00H, 'c', 00H, 'k', 00H, 'B', 00H, 'u', 00H, 'f'
	DB	00H, 'f', 00H, 'e', 00H, 'r', 00H, 'S', 00H, 'u', 00H, 'r', 00H
	DB	'f', 00H, 'a', 00H, 'c', 00H, 'e', 00H, 'D', 00H, 'e', 00H, 's'
	DB	00H, 'c', 00H, '(', 00H, ')', 00H, '-', 00H, '>', 00H, 'W', 00H
	DB	'i', 00H, 'd', 00H, 't', 00H, 'h', 00H, ' ', 00H, '=', 00H, '='
	DB	00H, ' ', 00H, '(', 00H, 'U', 00H, 'I', 00H, 'N', 00H, 'T', 00H
	DB	')', 00H, 'r', 00H, 'c', 00H, 'C', 00H, 'l', 00H, 'i', 00H, 'e'
	DB	00H, 'n', 00H, 't', 00H, '.', 00H, 'r', 00H, 'i', 00H, 'g', 00H
	DB	'h', 00H, 't', 00H, 00H, 00H			; `string'
CONST	ENDS
;	COMDAT ?__LINE__Var@?1??DXUTRender3DEnvironment@@YAXXZ@4JA
_DATA	SEGMENT
?__LINE__Var@?1??DXUTRender3DEnvironment@@YAXXZ@4JA DD 0db0H ; `DXUTRender3DEnvironment'::`2'::__LINE__Var
_DATA	ENDS
;	COMDAT ??_C@_0N@IDGALNHJ@DXUTMainLoop?$AA@
CONST	SEGMENT
??_C@_0N@IDGALNHJ@DXUTMainLoop?$AA@ DB 'DXUTMainLoop', 00H ; `string'
CONST	ENDS
;	COMDAT ?__LINE__Var@?1??DXUTMainLoop@@YAJPAUHACCEL__@@@Z@4JA
_DATA	SEGMENT
?__LINE__Var@?1??DXUTMainLoop@@YAJPAUHACCEL__@@@Z@4JA DD 0d55H ; `DXUTMainLoop'::`2'::__LINE__Var
_DATA	ENDS
;	COMDAT ??_C@_0BE@FGIMCOFA@DeviceResetCallback?$AA@
CONST	SEGMENT
??_C@_0BE@FGIMCOFA@DeviceResetCallback?$AA@ DB 'DeviceResetCallback', 00H ; `string'
CONST	ENDS
;	COMDAT ??_C@_05CCGMLFNG@Reset?$AA@
CONST	SEGMENT
??_C@_05CCGMLFNG@Reset?$AA@ DB 'Reset', 00H		; `string'
CONST	ENDS
;	COMDAT ??_C@_1CG@LNDKPHPB@?$AAp?$AAd?$AA3?$AAd?$AAD?$AAe?$AAv?$AAi?$AAc?$AAe?$AA?5?$AA?$CB?$AA?$DN?$AA?5?$AAN?$AAU?$AAL?$AAL?$AA?$AA@
CONST	SEGMENT
??_C@_1CG@LNDKPHPB@?$AAp?$AAd?$AA3?$AAd?$AAD?$AAe?$AAv?$AAi?$AAc?$AAe?$AA?5?$AA?$CB?$AA?$DN?$AA?5?$AAN?$AAU?$AAL?$AAL?$AA?$AA@ DB 'p'
	DB	00H, 'd', 00H, '3', 00H, 'd', 00H, 'D', 00H, 'e', 00H, 'v', 00H
	DB	'i', 00H, 'c', 00H, 'e', 00H, ' ', 00H, '!', 00H, '=', 00H, ' '
	DB	00H, 'N', 00H, 'U', 00H, 'L', 00H, 'L', 00H, 00H, 00H ; `string'
CONST	ENDS
;	COMDAT ??_C@_1FG@OJNOEDOF@?$AAz?$AA?3?$AA?2?$AAs?$AAa?$AAm?$AAp?$AAs?$AAr?$AAc?$AA?2?$AA0?$AA2?$AAx?$AAu?$AA1?$AA?2?$AAs?$AAa?$AAc?$AAo?$AA?2?$AAd?$AA3?$AAd?$AA9?$AA?2?$AAc?$AAo?$AAm?$AAm?$AAo@
CONST	SEGMENT
??_C@_1FG@OJNOEDOF@?$AAz?$AA?3?$AA?2?$AAs?$AAa?$AAm?$AAp?$AAs?$AAr?$AAc?$AA?2?$AA0?$AA2?$AAx?$AAu?$AA1?$AA?2?$AAs?$AAa?$AAc?$AAo?$AA?2?$AAd?$AA3?$AAd?$AA9?$AA?2?$AAc?$AAo?$AAm?$AAm?$AAo@ DB 'z'
	DB	00H, ':', 00H, '\', 00H, 's', 00H, 'a', 00H, 'm', 00H, 'p', 00H
	DB	's', 00H, 'r', 00H, 'c', 00H, '\', 00H, '0', 00H, '2', 00H, 'x'
	DB	00H, 'u', 00H, '1', 00H, '\', 00H, 's', 00H, 'a', 00H, 'c', 00H
	DB	'o', 00H, '\', 00H, 'd', 00H, '3', 00H, 'd', 00H, '9', 00H, '\'
	DB	00H, 'c', 00H, 'o', 00H, 'm', 00H, 'm', 00H, 'o', 00H, 'n', 00H
	DB	'\', 00H, 'd', 00H, 'x', 00H, 'u', 00H, 't', 00H, '.', 00H, 'c'
	DB	00H, 'p', 00H, 'p', 00H, 00H, 00H		; `string'
CONST	ENDS
;	COMDAT ?__LINE__Var@?1??DXUTReset3DEnvironment@@YAJXZ@4JA
_DATA	SEGMENT
?__LINE__Var@?1??DXUTReset3DEnvironment@@YAJXZ@4JA DD 0cccH ; `DXUTReset3DEnvironment'::`2'::__LINE__Var
_DATA	ENDS
;	COMDAT ??_C@_0BF@LLKHGPAB@DeviceReset?5callback?$AA@
CONST	SEGMENT
??_C@_0BF@LLKHGPAB@DeviceReset?5callback?$AA@ DB 'DeviceReset callback', 00H ; `string'
CONST	ENDS
;	COMDAT ??_C@_0O@JFPFAANM@OnResetDevice?$AA@
CONST	SEGMENT
??_C@_0O@JFPFAANM@OnResetDevice?$AA@ DB 'OnResetDevice', 00H ; `string'
CONST	ENDS
;	COMDAT ??_C@_0BH@PGNAKDOD@DeviceCreated?5callback?$AA@
CONST	SEGMENT
??_C@_0BH@PGNAKDOD@DeviceCreated?5callback?$AA@ DB 'DeviceCreated callbac'
	DB	'k', 00H					; `string'
CONST	ENDS
;	COMDAT ??_C@_0P@JJBHJNJD@OnCreateDevice?$AA@
CONST	SEGMENT
??_C@_0P@JJBHJNJD@OnCreateDevice?$AA@ DB 'OnCreateDevice', 00H ; `string'
CONST	ENDS
;	COMDAT ??_C@_0N@JIIFLKLP@CreateDevice?$AA@
CONST	SEGMENT
??_C@_0N@JIIFLKLP@CreateDevice?$AA@ DB 'CreateDevice', 00H ; `string'
CONST	ENDS
;	COMDAT ?__LINE__Var@?1??DXUTCreate3DEnvironment@@YAJPAUIDirect3DDevice9@@@Z@4JA
_DATA	SEGMENT
?__LINE__Var@?1??DXUTCreate3DEnvironment@@YAJPAUIDirect3DDevice9@@@Z@4JA DD 0c68H ; `DXUTCreate3DEnvironment'::`2'::__LINE__Var
_DATA	ENDS
;	COMDAT ?__LINE__Var@?1??DXUTFindValidDeviceSettings@@YAJPAUDXUTDeviceSettings@@0PAUDXUTMatchOptions@@@Z@4JA
_DATA	SEGMENT
?__LINE__Var@?1??DXUTFindValidDeviceSettings@@YAJPAUDXUTDeviceSettings@@0PAUDXUTMatchOptions@@@Z@4JA DD 0589H ; `DXUTFindValidDeviceSettings'::`2'::__LINE__Var
_DATA	ENDS
;	COMDAT ?__LINE__Var@?1??DXUTCreateDeviceFromSettings@@YAJPAUDXUTDeviceSettings@@_N1@Z@4JA
_DATA	SEGMENT
?__LINE__Var@?1??DXUTCreateDeviceFromSettings@@YAJPAUDXUTDeviceSettings@@_N1@Z@4JA DD 0484H ; `DXUTCreateDeviceFromSettings'::`2'::__LINE__Var
_DATA	ENDS
;	COMDAT ??_C@_0O@KPHAHHEA@DXUTSetDevice?$AA@
CONST	SEGMENT
??_C@_0O@KPHAHHEA@DXUTSetDevice?$AA@ DB 'DXUTSetDevice', 00H ; `string'
CONST	ENDS
;	COMDAT ?__LINE__Var@?1??DXUTSetDevice@@YAJPAUIDirect3DDevice9@@@Z@4JA
_DATA	SEGMENT
?__LINE__Var@?1??DXUTSetDevice@@YAJPAUIDirect3DDevice9@@@Z@4JA DD 0438H ; `DXUTSetDevice'::`2'::__LINE__Var
_DATA	ENDS
;	COMDAT ??_C@_0BM@MONLLCLM@DXUTFindValidDeviceSettings?$AA@
CONST	SEGMENT
??_C@_0BM@MONLLCLM@DXUTFindValidDeviceSettings?$AA@ DB 'DXUTFindValidDevi'
	DB	'ceSettings', 00H				; `string'
CONST	ENDS
;	COMDAT ??_C@_0BA@FFFLJHOO@Direct3D?5Window?$AA@
CONST	SEGMENT
??_C@_0BA@FFFLJHOO@Direct3D?5Window?$AA@ DB 'Direct3D Window', 00H ; `string'
CONST	ENDS
;	COMDAT ?__LINE__Var@?1??DXUTCreateDevice@@YAJI_NHHP6G_NPAU_D3DCAPS9@@W4_D3DFORMAT@@20PAX@ZP6G_NPAUDXUTDeviceSettings@@PBU2@3@Z3@Z@4JA
_DATA	SEGMENT
?__LINE__Var@?1??DXUTCreateDevice@@YAJI_NHHP6G_NPAU_D3DCAPS9@@W4_D3DFORMAT@@20PAX@ZP6G_NPAUDXUTDeviceSettings@@PBU2@3@Z3@Z@4JA DD 03b9H ; `DXUTCreateDevice'::`2'::__LINE__Var
_DATA	ENDS
;	COMDAT ??_C@_0BB@CBJJKGDE@SetWindowLongPtr?$AA@
CONST	SEGMENT
??_C@_0BB@CBJJKGDE@SetWindowLongPtr?$AA@ DB 'SetWindowLongPtr', 00H ; `string'
CONST	ENDS
;	COMDAT ??_C@_0O@FNJALMEB@DXUTSetWindow?$AA@
CONST	SEGMENT
??_C@_0O@FNJALMEB@DXUTSetWindow?$AA@ DB 'DXUTSetWindow', 00H ; `string'
CONST	ENDS
;	COMDAT ?__LINE__Var@?1??DXUTSetWindow@@YAJPAUHWND__@@00_N@Z@4JA
_DATA	SEGMENT
?__LINE__Var@?1??DXUTSetWindow@@YAJPAUHWND__@@00_N@Z@4JA DD 0373H ; `DXUTSetWindow'::`2'::__LINE__Var
_DATA	ENDS
;	COMDAT ??_C@_0N@GKGFHBLO@CreateWindow?$AA@
CONST	SEGMENT
??_C@_0N@GKGFHBLO@CreateWindow?$AA@ DB 'CreateWindow', 00H ; `string'
CONST	ENDS
;	COMDAT ??_C@_0O@NLFCIADE@RegisterClass?$AA@
CONST	SEGMENT
??_C@_0O@NLFCIADE@RegisterClass?$AA@ DB 'RegisterClass', 00H ; `string'
CONST	ENDS
;	COMDAT ??_C@_0BE@MKMDFNEO@Direct3DWindowClass?$AA@
CONST	SEGMENT
??_C@_0BE@MKMDFNEO@Direct3DWindowClass?$AA@ DB 'Direct3DWindowClass', 00H ; `string'
CONST	ENDS
;	COMDAT ??_C@_0BB@LKEDMNKO@DXUTCreateWindow?$AA@
CONST	SEGMENT
??_C@_0BB@LKEDMNKO@DXUTCreateWindow?$AA@ DB 'DXUTCreateWindow', 00H ; `string'
CONST	ENDS
;	COMDAT ?__LINE__Var@?1??DXUTCreateWindow@@YAJPBDPAUHINSTANCE__@@PAUHICON__@@PAUHMENU__@@HH@Z@4JA
_DATA	SEGMENT
?__LINE__Var@?1??DXUTCreateWindow@@YAJPBDPAUHINSTANCE__@@PAUHICON__@@PAUHMENU__@@HH@Z@4JA DD 0305H ; `DXUTCreateWindow'::`2'::__LINE__Var
_DATA	ENDS
;	COMDAT ??_C@_0BG@BAGONEII@Unrecognized?5flag?3?5?$CFs?$AA@
CONST	SEGMENT
??_C@_0BG@BAGONEII@Unrecognized?5flag?3?5?$CFs?$AA@ DB 'Unrecognized flag'
	DB	': %s', 00H					; `string'
CONST	ENDS
;	COMDAT ??_C@_0L@GKIGKMJB@automation?$AA@
CONST	SEGMENT
??_C@_0L@GKIGKMJB@automation?$AA@ DB 'automation', 00H	; `string'
CONST	ENDS
;	COMDAT ??_C@_0BA@EMDPCOOI@noerrormsgboxes?$AA@
CONST	SEGMENT
??_C@_0BA@EMDPCOOI@noerrormsgboxes?$AA@ DB 'noerrormsgboxes', 00H ; `string'
CONST	ENDS
;	COMDAT ??_C@_0P@NCNNICJN@quitafterframe?$AA@
CONST	SEGMENT
??_C@_0P@NCNNICJN@quitafterframe?$AA@ DB 'quitafterframe', 00H ; `string'
CONST	ENDS
;	COMDAT ??_C@_0BC@DPFOJONK@constantframetime?$AA@
CONST	SEGMENT
??_C@_0BC@DPFOJONK@constantframetime?$AA@ DB 'constantframetime', 00H ; `string'
CONST	ENDS
;	COMDAT ??_C@_06OHMBJBDJ@starty?$AA@
CONST	SEGMENT
??_C@_06OHMBJBDJ@starty?$AA@ DB 'starty', 00H		; `string'
CONST	ENDS
;	COMDAT ??_C@_06PONKKAHI@startx?$AA@
CONST	SEGMENT
??_C@_06PONKKAHI@startx?$AA@ DB 'startx', 00H		; `string'
CONST	ENDS
;	COMDAT ??_C@_06LNLHEAAG@height?$AA@
CONST	SEGMENT
??_C@_06LNLHEAAG@height?$AA@ DB 'height', 00H		; `string'
CONST	ENDS
;	COMDAT ??_C@_05IGKADHGO@width?$AA@
CONST	SEGMENT
??_C@_05IGKADHGO@width?$AA@ DB 'width', 00H		; `string'
CONST	ENDS
;	COMDAT ??_C@_09HIJNJMJJ@forceswvp?$AA@
CONST	SEGMENT
??_C@_09HIJNJMJJ@forceswvp?$AA@ DB 'forceswvp', 00H	; `string'
CONST	ENDS
;	COMDAT ??_C@_09GPKNDKAK@forcehwvp?$AA@
CONST	SEGMENT
??_C@_09GPKNDKAK@forcehwvp?$AA@ DB 'forcehwvp', 00H	; `string'
CONST	ENDS
;	COMDAT ??_C@_0O@FCGFKHNN@forcepurehwvp?$AA@
CONST	SEGMENT
??_C@_0O@FCGFKHNN@forcepurehwvp?$AA@ DB 'forcepurehwvp', 00H ; `string'
CONST	ENDS
;	COMDAT ??_C@_08CHIMEIFO@forceref?$AA@
CONST	SEGMENT
??_C@_08CHIMEIFO@forceref?$AA@ DB 'forceref', 00H	; `string'
CONST	ENDS
;	COMDAT ??_C@_08OFMOLPPD@forcehal?$AA@
CONST	SEGMENT
??_C@_08OFMOLPPD@forcehal?$AA@ DB 'forcehal', 00H	; `string'
CONST	ENDS
;	COMDAT ??_C@_0L@GIACNHMO@fullscreen?$AA@
CONST	SEGMENT
??_C@_0L@GIACNHMO@fullscreen?$AA@ DB 'fullscreen', 00H	; `string'
CONST	ENDS
;	COMDAT ??_C@_08KIHLFLPI@windowed?$AA@
CONST	SEGMENT
??_C@_08KIHLFLPI@windowed?$AA@ DB 'windowed', 00H	; `string'
CONST	ENDS
;	COMDAT ??_C@_07HEFHPBAB@adapter?$AA@
CONST	SEGMENT
??_C@_07HEFHPBAB@adapter?$AA@ DB 'adapter', 00H		; `string'
CONST	ENDS
;	COMDAT ??_C@_0BA@FAFMMBOF@Direct3DCreate9?$AA@
CONST	SEGMENT
??_C@_0BA@FAFMMBOF@Direct3DCreate9?$AA@ DB 'Direct3DCreate9', 00H ; `string'
CONST	ENDS
;	COMDAT ??_C@_0CL@KBAHBIDF@z?3?2sampsrc?202xu1?2saco?2d3d9?2commo@
CONST	SEGMENT
??_C@_0CL@KBAHBIDF@z?3?2sampsrc?202xu1?2saco?2d3d9?2commo@ DB 'z:\sampsrc'
	DB	'\02xu1\saco\d3d9\common\dxut.cpp', 00H	; `string'
CONST	ENDS
;	COMDAT ??_C@_0BB@DDKDNGFF@D3DXCheckVersion?$AA@
CONST	SEGMENT
??_C@_0BB@DDKDNGFF@D3DXCheckVersion?$AA@ DB 'D3DXCheckVersion', 00H ; `string'
CONST	ENDS
;	COMDAT ?__LINE__Var@?1??DXUTInit@@YAJ_N00@Z@4JA
_DATA	SEGMENT
?__LINE__Var@?1??DXUTInit@@YAJ_N00@Z@4JA DD 01c1H	; `DXUTInit'::`2'::__LINE__Var
_DATA	ENDS
;	COMDAT ??_C@_0BA@DCPFICL@timeBeginPeriod?$AA@
CONST	SEGMENT
??_C@_0BA@DCPFICL@timeBeginPeriod?$AA@ DB 'timeBeginPeriod', 00H ; `string'
CONST	ENDS
;	COMDAT ??_C@_0L@NLNDMMBI@?2winmm?4dll?$AA@
CONST	SEGMENT
??_C@_0L@NLNDMMBI@?2winmm?4dll?$AA@ DB '\winmm.dll', 00H ; `string'
CONST	ENDS
;	COMDAT ??_C@_07JPHDIPNG@DISPLAY?$AA@
CONST	SEGMENT
??_C@_07JPHDIPNG@DISPLAY?$AA@ DB 'DISPLAY', 00H		; `string'
CONST	ENDS
;	COMDAT ??_C@_0BE@NPEOLIBM@EnumDisplayDevicesA?$AA@
CONST	SEGMENT
??_C@_0BE@NPEOLIBM@EnumDisplayDevicesA?$AA@ DB 'EnumDisplayDevicesA', 00H ; `string'
CONST	ENDS
;	COMDAT ??_C@_0BA@KIAMMEPJ@GetMonitorInfoA?$AA@
CONST	SEGMENT
??_C@_0BA@KIAMMEPJ@GetMonitorInfoA?$AA@ DB 'GetMonitorInfoA', 00H ; `string'
CONST	ENDS
;	COMDAT ??_C@_0BE@OHNDFFJG@EnumDisplayMonitors?$AA@
CONST	SEGMENT
??_C@_0BE@OHNDFFJG@EnumDisplayMonitors?$AA@ DB 'EnumDisplayMonitors', 00H ; `string'
CONST	ENDS
;	COMDAT ??_C@_0BB@DDMDAIAD@MonitorFromPoint?$AA@
CONST	SEGMENT
??_C@_0BB@DDMDAIAD@MonitorFromPoint?$AA@ DB 'MonitorFromPoint', 00H ; `string'
CONST	ENDS
;	COMDAT ??_C@_0BA@DPLKJPEB@MonitorFromRect?$AA@
CONST	SEGMENT
??_C@_0BA@DPLKJPEB@MonitorFromRect?$AA@ DB 'MonitorFromRect', 00H ; `string'
CONST	ENDS
;	COMDAT ??_C@_0BC@CHFENAPF@MonitorFromWindow?$AA@
CONST	SEGMENT
??_C@_0BC@CHFENAPF@MonitorFromWindow?$AA@ DB 'MonitorFromWindow', 00H ; `string'
CONST	ENDS
;	COMDAT ??_C@_0BB@BFCABEPI@GetSystemMetrics?$AA@
CONST	SEGMENT
??_C@_0BB@BFCABEPI@GetSystemMetrics?$AA@ DB 'GetSystemMetrics', 00H ; `string'
CONST	ENDS
;	COMDAT ??_C@_06KDCOIDGA@USER32?$AA@
CONST	SEGMENT
??_C@_06KDCOIDGA@USER32?$AA@ DB 'USER32', 00H		; `string'
CONST	ENDS
;	COMDAT ??_C@_00CNPNBAHC@?$AA@
CONST	SEGMENT
??_C@_00CNPNBAHC@?$AA@ DB 00H				; `string'
CONST	ENDS
;	COMDAT xdata$x
xdata$x	SEGMENT
__unwindtable$?DXUTBuildValidDeviceSettings@@YAXPAUDXUTDeviceSettings@@PAUCD3DEnumDeviceSettingsCombo@@0PAUDXUTMatchOptions@@@Z DD 0ffffffffH
	DD	FLAT:__unwindfunclet$?DXUTBuildValidDeviceSettings@@YAXPAUDXUTDeviceSettings@@PAUCD3DEnumDeviceSettingsCombo@@0PAUDXUTMatchOptions@@@Z$0
__ehfuncinfo$?DXUTBuildValidDeviceSettings@@YAXPAUDXUTDeviceSettings@@PAUCD3DEnumDeviceSettingsCombo@@0PAUDXUTMatchOptions@@@Z DD 019930522H
	DD	01H
	DD	FLAT:__unwindtable$?DXUTBuildValidDeviceSettings@@YAXPAUDXUTDeviceSettings@@PAUCD3DEnumDeviceSettingsCombo@@0PAUDXUTMatchOptions@@@Z
	DD	2 DUP(00H)
	DD	2 DUP(00H)
	DD	00H
	DD	01H
xdata$x	ENDS
;	COMDAT xdata$x
xdata$x	SEGMENT
__unwindtable$?GetDXUTState@@YAAAVDXUTState@@XZ DD 0ffffffffH
	DD	FLAT:__unwindfunclet$?GetDXUTState@@YAAAVDXUTState@@XZ$0
__ehfuncinfo$?GetDXUTState@@YAAAVDXUTState@@XZ DD 019930522H
	DD	01H
	DD	FLAT:__unwindtable$?GetDXUTState@@YAAAVDXUTState@@XZ
	DD	2 DUP(00H)
	DD	2 DUP(00H)
	DD	00H
	DD	01H
xdata$x	ENDS
;	COMDAT xdata$x
xdata$x	SEGMENT
__unwindtable$?DXUTSetTimer@@YAJP6GXIPAX@ZMPAI0@Z DD 0ffffffffH
	DD	FLAT:__unwindfunclet$?DXUTSetTimer@@YAJP6GXIPAX@ZMPAI0@Z$0
__ehfuncinfo$?DXUTSetTimer@@YAJP6GXIPAX@ZMPAI0@Z DD 019930522H
	DD	01H
	DD	FLAT:__unwindtable$?DXUTSetTimer@@YAJP6GXIPAX@ZMPAI0@Z
	DD	2 DUP(00H)
	DD	2 DUP(00H)
	DD	00H
	DD	01H
xdata$x	ENDS
; Function compile flags: /Odtp /RTCsu /ZI
; File z:\sampsrc\02xu1\saco\d3d9\common\dxutmisc.h
;	COMDAT ?SetSizeInternal@?$CGrowableArray@UDXUT_TIMER@@@@IAEJH@Z
_TEXT	SEGMENT
tv91 = -232						; size = 4
tv85 = -232						; size = 4
_pDataNew$1 = -32					; size = 4
_nGrowBy$2 = -20					; size = 4
_this$ = -8						; size = 4
_nNewMaxSize$ = 8					; size = 4
?SetSizeInternal@?$CGrowableArray@UDXUT_TIMER@@@@IAEJH@Z PROC ; CGrowableArray<DXUT_TIMER>::SetSizeInternal, COMDAT
; _this$ = ecx

; 670  : {

	push	ebp
	mov	ebp, esp
	sub	esp, 232				; 000000e8H
	push	ebx
	push	esi
	push	edi
	push	ecx
	lea	edi, DWORD PTR [ebp-232]
	mov	ecx, 58					; 0000003aH
	mov	eax, -858993460				; ccccccccH
	rep stosd
	pop	ecx
	mov	DWORD PTR _this$[ebp], ecx

; 671  :     if( nNewMaxSize < 0 )

	cmp	DWORD PTR _nNewMaxSize$[ebp], 0
	jge	SHORT $LN7@SetSizeInt

; 672  :     {
; 673  :         assert( false );

	xor	eax, eax
	jne	SHORT $LN10@SetSizeInt
	push	673					; 000002a1H
	push	OFFSET ??_C@_1FK@FIMIDMPE@?$AAz?$AA?3?$AA?2?$AAs?$AAa?$AAm?$AAp?$AAs?$AAr?$AAc?$AA?2?$AA0?$AA2?$AAx?$AAu?$AA1?$AA?2?$AAs?$AAa?$AAc?$AAo?$AA?2?$AAd?$AA3?$AAd?$AA9?$AA?2?$AAc?$AAo?$AAm?$AAm?$AAo@
	push	OFFSET ??_C@_1M@HLGKFCJM@?$AAf?$AAa?$AAl?$AAs?$AAe?$AA?$AA@
	call	__wassert
	add	esp, 12					; 0000000cH
$LN10@SetSizeInt:

; 674  :         return E_INVALIDARG;

	mov	eax, -2147024809			; 80070057H
	jmp	$LN8@SetSizeInt
$LN7@SetSizeInt:

; 675  :     }
; 676  : 
; 677  :     if( nNewMaxSize == 0 )

	cmp	DWORD PTR _nNewMaxSize$[ebp], 0
	jne	SHORT $LN6@SetSizeInt

; 678  :     {
; 679  :         // Shrink to 0 size & cleanup
; 680  :         if( m_pData )

	mov	eax, DWORD PTR _this$[ebp]
	cmp	DWORD PTR [eax], 0
	je	SHORT $LN5@SetSizeInt

; 681  :         {
; 682  :             free( m_pData );

	mov	eax, DWORD PTR _this$[ebp]
	mov	ecx, DWORD PTR [eax]
	push	ecx
	call	_free
	add	esp, 4

; 683  :             m_pData = NULL;

	mov	eax, DWORD PTR _this$[ebp]
	mov	DWORD PTR [eax], 0
$LN5@SetSizeInt:

; 684  :         }
; 685  : 
; 686  :         m_nMaxSize = 0;

	mov	eax, DWORD PTR _this$[ebp]
	mov	DWORD PTR [eax+8], 0

; 687  :         m_nSize = 0;

	mov	eax, DWORD PTR _this$[ebp]
	mov	DWORD PTR [eax+4], 0
	jmp	$LN4@SetSizeInt
$LN6@SetSizeInt:

; 688  :     }
; 689  :     else if( m_pData == NULL || nNewMaxSize > m_nMaxSize )

	mov	eax, DWORD PTR _this$[ebp]
	cmp	DWORD PTR [eax], 0
	je	SHORT $LN2@SetSizeInt
	mov	eax, DWORD PTR _this$[ebp]
	mov	ecx, DWORD PTR _nNewMaxSize$[ebp]
	cmp	ecx, DWORD PTR [eax+8]
	jle	$LN4@SetSizeInt
$LN2@SetSizeInt:

; 690  :     {
; 691  :         // Grow array
; 692  :         int nGrowBy = ( m_nMaxSize == 0 ) ? 16 : m_nMaxSize;

	mov	eax, DWORD PTR _this$[ebp]
	cmp	DWORD PTR [eax+8], 0
	jne	SHORT $LN11@SetSizeInt
	mov	DWORD PTR tv85[ebp], 16			; 00000010H
	jmp	SHORT $LN12@SetSizeInt
$LN11@SetSizeInt:
	mov	ecx, DWORD PTR _this$[ebp]
	mov	edx, DWORD PTR [ecx+8]
	mov	DWORD PTR tv85[ebp], edx
$LN12@SetSizeInt:
	mov	eax, DWORD PTR tv85[ebp]
	mov	DWORD PTR _nGrowBy$2[ebp], eax

; 693  :         nNewMaxSize = __max( nNewMaxSize, m_nMaxSize + nGrowBy );

	mov	eax, DWORD PTR _this$[ebp]
	mov	ecx, DWORD PTR [eax+8]
	add	ecx, DWORD PTR _nGrowBy$2[ebp]
	cmp	DWORD PTR _nNewMaxSize$[ebp], ecx
	jle	SHORT $LN13@SetSizeInt
	mov	edx, DWORD PTR _nNewMaxSize$[ebp]
	mov	DWORD PTR tv91[ebp], edx
	jmp	SHORT $LN14@SetSizeInt
$LN13@SetSizeInt:
	mov	eax, DWORD PTR _this$[ebp]
	mov	ecx, DWORD PTR [eax+8]
	add	ecx, DWORD PTR _nGrowBy$2[ebp]
	mov	DWORD PTR tv91[ebp], ecx
$LN14@SetSizeInt:
	mov	edx, DWORD PTR tv91[ebp]
	mov	DWORD PTR _nNewMaxSize$[ebp], edx

; 694  : 
; 695  :         TYPE* pDataNew = (TYPE*) realloc( m_pData, nNewMaxSize * sizeof(TYPE) );

	imul	eax, DWORD PTR _nNewMaxSize$[ebp], 17
	push	eax
	mov	ecx, DWORD PTR _this$[ebp]
	mov	edx, DWORD PTR [ecx]
	push	edx
	call	_realloc
	add	esp, 8
	mov	DWORD PTR _pDataNew$1[ebp], eax

; 696  :         if( pDataNew == NULL )

	cmp	DWORD PTR _pDataNew$1[ebp], 0
	jne	SHORT $LN1@SetSizeInt

; 697  :             return E_OUTOFMEMORY;

	mov	eax, -2147024882			; 8007000eH
	jmp	SHORT $LN8@SetSizeInt
$LN1@SetSizeInt:

; 698  : 
; 699  :         m_pData = pDataNew;

	mov	eax, DWORD PTR _this$[ebp]
	mov	ecx, DWORD PTR _pDataNew$1[ebp]
	mov	DWORD PTR [eax], ecx

; 700  :         m_nMaxSize = nNewMaxSize;

	mov	eax, DWORD PTR _this$[ebp]
	mov	ecx, DWORD PTR _nNewMaxSize$[ebp]
	mov	DWORD PTR [eax+8], ecx
$LN4@SetSizeInt:

; 701  :     }
; 702  : 
; 703  :     return S_OK;

	xor	eax, eax
$LN8@SetSizeInt:

; 704  : }

	pop	edi
	pop	esi
	pop	ebx
	add	esp, 232				; 000000e8H
	cmp	ebp, esp
	call	__RTC_CheckEsp
	mov	esp, ebp
	pop	ebp
	ret	4
?SetSizeInternal@?$CGrowableArray@UDXUT_TIMER@@@@IAEJH@Z ENDP ; CGrowableArray<DXUT_TIMER>::SetSizeInternal
_TEXT	ENDS
; Function compile flags: /Odtp /RTCsu /ZI
; File z:\sampsrc\02xu1\saco\d3d9\common\dxutmisc.h
;	COMDAT ?GetSize@?$CGrowableArray@UDXUT_TIMER@@@@QBEHXZ
_TEXT	SEGMENT
_this$ = -8						; size = 4
?GetSize@?$CGrowableArray@UDXUT_TIMER@@@@QBEHXZ PROC	; CGrowableArray<DXUT_TIMER>::GetSize, COMDAT
; _this$ = ecx

; 34   :     int     GetSize() const { return m_nSize; }

	push	ebp
	mov	ebp, esp
	sub	esp, 204				; 000000ccH
	push	ebx
	push	esi
	push	edi
	push	ecx
	lea	edi, DWORD PTR [ebp-204]
	mov	ecx, 51					; 00000033H
	mov	eax, -858993460				; ccccccccH
	rep stosd
	pop	ecx
	mov	DWORD PTR _this$[ebp], ecx
	mov	eax, DWORD PTR _this$[ebp]
	mov	eax, DWORD PTR [eax+4]
	pop	edi
	pop	esi
	pop	ebx
	mov	esp, ebp
	pop	ebp
	ret	0
?GetSize@?$CGrowableArray@UDXUT_TIMER@@@@QBEHXZ ENDP	; CGrowableArray<DXUT_TIMER>::GetSize
_TEXT	ENDS
; Function compile flags: /Odtp /RTCsu /ZI
; File z:\sampsrc\02xu1\saco\d3d9\common\dxutmisc.h
;	COMDAT ?GetAt@?$CGrowableArray@UDXUT_TIMER@@@@QAEAAUDXUT_TIMER@@H@Z
_TEXT	SEGMENT
_this$ = -8						; size = 4
_nIndex$ = 8						; size = 4
?GetAt@?$CGrowableArray@UDXUT_TIMER@@@@QAEAAUDXUT_TIMER@@H@Z PROC ; CGrowableArray<DXUT_TIMER>::GetAt, COMDAT
; _this$ = ecx

; 33   :     TYPE&   GetAt( int nIndex ) { assert( nIndex >= 0 && nIndex < m_nSize ); return m_pData[nIndex]; }

	push	ebp
	mov	ebp, esp
	sub	esp, 204				; 000000ccH
	push	ebx
	push	esi
	push	edi
	push	ecx
	lea	edi, DWORD PTR [ebp-204]
	mov	ecx, 51					; 00000033H
	mov	eax, -858993460				; ccccccccH
	rep stosd
	pop	ecx
	mov	DWORD PTR _this$[ebp], ecx
	cmp	DWORD PTR _nIndex$[ebp], 0
	jl	SHORT $LN3@GetAt
	mov	eax, DWORD PTR _this$[ebp]
	mov	ecx, DWORD PTR _nIndex$[ebp]
	cmp	ecx, DWORD PTR [eax+4]
	jl	SHORT $LN4@GetAt
$LN3@GetAt:
	push	33					; 00000021H
	push	OFFSET ??_C@_1FK@FIMIDMPE@?$AAz?$AA?3?$AA?2?$AAs?$AAa?$AAm?$AAp?$AAs?$AAr?$AAc?$AA?2?$AA0?$AA2?$AAx?$AAu?$AA1?$AA?2?$AAs?$AAa?$AAc?$AAo?$AA?2?$AAd?$AA3?$AAd?$AA9?$AA?2?$AAc?$AAo?$AAm?$AAm?$AAo@
	push	OFFSET ??_C@_1EA@JHMKKLFC@?$AAn?$AAI?$AAn?$AAd?$AAe?$AAx?$AA?5?$AA?$DO?$AA?$DN?$AA?5?$AA0?$AA?5?$AA?$CG?$AA?$CG?$AA?5?$AAn?$AAI?$AAn?$AAd?$AAe?$AAx?$AA?5?$AA?$DM?$AA?5?$AAm?$AA_?$AAn?$AAS?$AAi?$AAz?$AAe?$AA?$AA@
	call	__wassert
	add	esp, 12					; 0000000cH
$LN4@GetAt:
	imul	eax, DWORD PTR _nIndex$[ebp], 17
	mov	ecx, DWORD PTR _this$[ebp]
	add	eax, DWORD PTR [ecx]
	pop	edi
	pop	esi
	pop	ebx
	add	esp, 204				; 000000ccH
	cmp	ebp, esp
	call	__RTC_CheckEsp
	mov	esp, ebp
	pop	ebp
	ret	4
?GetAt@?$CGrowableArray@UDXUT_TIMER@@@@QAEAAUDXUT_TIMER@@H@Z ENDP ; CGrowableArray<DXUT_TIMER>::GetAt
_TEXT	ENDS
; Function compile flags: /Odtp /RTCsu /ZI
; File z:\sampsrc\02xu1\saco\d3d9\common\dxutmisc.h
;	COMDAT ?SetAt@?$CGrowableArray@UDXUT_TIMER@@@@QAEJHABUDXUT_TIMER@@@Z
_TEXT	SEGMENT
_this$ = -8						; size = 4
_nIndex$ = 8						; size = 4
_value$ = 12						; size = 4
?SetAt@?$CGrowableArray@UDXUT_TIMER@@@@QAEJHABUDXUT_TIMER@@@Z PROC ; CGrowableArray<DXUT_TIMER>::SetAt, COMDAT
; _this$ = ecx

; 791  : {

	push	ebp
	mov	ebp, esp
	sub	esp, 204				; 000000ccH
	push	ebx
	push	esi
	push	edi
	push	ecx
	lea	edi, DWORD PTR [ebp-204]
	mov	ecx, 51					; 00000033H
	mov	eax, -858993460				; ccccccccH
	rep stosd
	pop	ecx
	mov	DWORD PTR _this$[ebp], ecx

; 792  :     // Validate arguments
; 793  :     if( nIndex < 0 ||
; 794  :         nIndex >= m_nSize )

	cmp	DWORD PTR _nIndex$[ebp], 0
	jl	SHORT $LN1@SetAt
	mov	eax, DWORD PTR _this$[ebp]
	mov	ecx, DWORD PTR _nIndex$[ebp]
	cmp	ecx, DWORD PTR [eax+4]
	jl	SHORT $LN2@SetAt
$LN1@SetAt:

; 795  :     {
; 796  :         assert( false );

	xor	eax, eax
	jne	SHORT $LN5@SetAt
	push	796					; 0000031cH
	push	OFFSET ??_C@_1FK@FIMIDMPE@?$AAz?$AA?3?$AA?2?$AAs?$AAa?$AAm?$AAp?$AAs?$AAr?$AAc?$AA?2?$AA0?$AA2?$AAx?$AAu?$AA1?$AA?2?$AAs?$AAa?$AAc?$AAo?$AA?2?$AAd?$AA3?$AAd?$AA9?$AA?2?$AAc?$AAo?$AAm?$AAm?$AAo@
	push	OFFSET ??_C@_1M@HLGKFCJM@?$AAf?$AAa?$AAl?$AAs?$AAe?$AA?$AA@
	call	__wassert
	add	esp, 12					; 0000000cH
$LN5@SetAt:

; 797  :         return E_INVALIDARG;

	mov	eax, -2147024809			; 80070057H
	jmp	SHORT $LN3@SetAt
$LN2@SetAt:

; 798  :     }
; 799  : 
; 800  :     m_pData[nIndex] = value;

	imul	eax, DWORD PTR _nIndex$[ebp], 17
	mov	ecx, DWORD PTR _this$[ebp]
	mov	edx, DWORD PTR [ecx]
	add	edx, eax
	mov	eax, DWORD PTR _value$[ebp]
	mov	ecx, DWORD PTR [eax]
	mov	DWORD PTR [edx], ecx
	mov	ecx, DWORD PTR [eax+4]
	mov	DWORD PTR [edx+4], ecx
	mov	ecx, DWORD PTR [eax+8]
	mov	DWORD PTR [edx+8], ecx
	mov	ecx, DWORD PTR [eax+12]
	mov	DWORD PTR [edx+12], ecx
	mov	al, BYTE PTR [eax+16]
	mov	BYTE PTR [edx+16], al

; 801  :     return S_OK;

	xor	eax, eax
$LN3@SetAt:

; 802  : }

	pop	edi
	pop	esi
	pop	ebx
	add	esp, 204				; 000000ccH
	cmp	ebp, esp
	call	__RTC_CheckEsp
	mov	esp, ebp
	pop	ebp
	ret	8
?SetAt@?$CGrowableArray@UDXUT_TIMER@@@@QAEJHABUDXUT_TIMER@@@Z ENDP ; CGrowableArray<DXUT_TIMER>::SetAt
_TEXT	ENDS
; Function compile flags: /Odtp /RTCsu /ZI
; File z:\sampsrc\02xu1\saco\d3d9\common\dxutmisc.h
;	COMDAT ?Add@?$CGrowableArray@UDXUT_TIMER@@@@QAEJABUDXUT_TIMER@@@Z
_TEXT	SEGMENT
$T1 = -224						; size = 4
_hr$ = -20						; size = 4
_this$ = -8						; size = 4
_value$ = 8						; size = 4
?Add@?$CGrowableArray@UDXUT_TIMER@@@@QAEJABUDXUT_TIMER@@@Z PROC ; CGrowableArray<DXUT_TIMER>::Add, COMDAT
; _this$ = ecx

; 740  : {

	push	ebp
	mov	ebp, esp
	sub	esp, 228				; 000000e4H
	push	ebx
	push	esi
	push	edi
	push	ecx
	lea	edi, DWORD PTR [ebp-228]
	mov	ecx, 57					; 00000039H
	mov	eax, -858993460				; ccccccccH
	rep stosd
	pop	ecx
	mov	DWORD PTR _this$[ebp], ecx

; 741  :     HRESULT hr;
; 742  :     if( FAILED( hr = SetSizeInternal( m_nSize + 1 ) ) )

	mov	eax, DWORD PTR _this$[ebp]
	mov	ecx, DWORD PTR [eax+4]
	add	ecx, 1
	push	ecx
	mov	ecx, DWORD PTR _this$[ebp]
	call	?SetSizeInternal@?$CGrowableArray@UDXUT_TIMER@@@@IAEJH@Z ; CGrowableArray<DXUT_TIMER>::SetSizeInternal
	mov	DWORD PTR _hr$[ebp], eax
	cmp	DWORD PTR _hr$[ebp], 0
	jge	SHORT $LN1@Add

; 743  :         return hr;

	mov	eax, DWORD PTR _hr$[ebp]
	jmp	SHORT $LN2@Add
$LN1@Add:

; 744  : 
; 745  :     // Construct the new element
; 746  :     ::new (&m_pData[m_nSize]) TYPE;

	mov	eax, DWORD PTR _this$[ebp]
	imul	ecx, DWORD PTR [eax+4], 17
	mov	edx, DWORD PTR _this$[ebp]
	add	ecx, DWORD PTR [edx]
	push	ecx
	push	17					; 00000011H
	call	??2@YAPAXIPAX@Z				; operator new
	add	esp, 8
	mov	DWORD PTR $T1[ebp], eax

; 747  : 
; 748  :     // Assign
; 749  :     m_pData[m_nSize] = value;

	mov	eax, DWORD PTR _this$[ebp]
	imul	ecx, DWORD PTR [eax+4], 17
	mov	edx, DWORD PTR _this$[ebp]
	mov	eax, DWORD PTR [edx]
	add	eax, ecx
	mov	ecx, DWORD PTR _value$[ebp]
	mov	edx, DWORD PTR [ecx]
	mov	DWORD PTR [eax], edx
	mov	edx, DWORD PTR [ecx+4]
	mov	DWORD PTR [eax+4], edx
	mov	edx, DWORD PTR [ecx+8]
	mov	DWORD PTR [eax+8], edx
	mov	edx, DWORD PTR [ecx+12]
	mov	DWORD PTR [eax+12], edx
	mov	cl, BYTE PTR [ecx+16]
	mov	BYTE PTR [eax+16], cl

; 750  :     ++m_nSize;

	mov	eax, DWORD PTR _this$[ebp]
	mov	ecx, DWORD PTR [eax+4]
	add	ecx, 1
	mov	edx, DWORD PTR _this$[ebp]
	mov	DWORD PTR [edx+4], ecx

; 751  : 
; 752  :     return S_OK;

	xor	eax, eax
$LN2@Add:

; 753  : }

	pop	edi
	pop	esi
	pop	ebx
	add	esp, 228				; 000000e4H
	cmp	ebp, esp
	call	__RTC_CheckEsp
	mov	esp, ebp
	pop	ebp
	ret	4
?Add@?$CGrowableArray@UDXUT_TIMER@@@@QAEJABUDXUT_TIMER@@@Z ENDP ; CGrowableArray<DXUT_TIMER>::Add
_TEXT	ENDS
; Function compile flags: /Odtp /RTCsu /ZI
; File z:\sampsrc\02xu1\saco\d3d9\common\dxutmisc.h
;	COMDAT ??0?$CGrowableArray@UDXUT_TIMER@@@@QAE@XZ
_TEXT	SEGMENT
_this$ = -8						; size = 4
??0?$CGrowableArray@UDXUT_TIMER@@@@QAE@XZ PROC		; CGrowableArray<DXUT_TIMER>::CGrowableArray<DXUT_TIMER>, COMDAT
; _this$ = ecx

; 20   :     CGrowableArray()  { m_pData = NULL; m_nSize = 0; m_nMaxSize = 0; }

	push	ebp
	mov	ebp, esp
	sub	esp, 204				; 000000ccH
	push	ebx
	push	esi
	push	edi
	push	ecx
	lea	edi, DWORD PTR [ebp-204]
	mov	ecx, 51					; 00000033H
	mov	eax, -858993460				; ccccccccH
	rep stosd
	pop	ecx
	mov	DWORD PTR _this$[ebp], ecx
	mov	eax, DWORD PTR _this$[ebp]
	mov	DWORD PTR [eax], 0
	mov	eax, DWORD PTR _this$[ebp]
	mov	DWORD PTR [eax+4], 0
	mov	eax, DWORD PTR _this$[ebp]
	mov	DWORD PTR [eax+8], 0
	mov	eax, DWORD PTR _this$[ebp]
	pop	edi
	pop	esi
	pop	ebx
	mov	esp, ebp
	pop	ebp
	ret	0
??0?$CGrowableArray@UDXUT_TIMER@@@@QAE@XZ ENDP		; CGrowableArray<DXUT_TIMER>::CGrowableArray<DXUT_TIMER>
_TEXT	ENDS
; Function compile flags: /Odtp /RTCsu /ZI
; File z:\sampsrc\02xu1\saco\d3d9\common\dxut.cpp
;	COMDAT ?LowLevelKeyboardProc@@YGJHIJ@Z
_TEXT	SEGMENT
_nCode$ = 8						; size = 4
_wParam$ = 12						; size = 4
_lParam$ = 16						; size = 4
?LowLevelKeyboardProc@@YGJHIJ@Z PROC			; LowLevelKeyboardProc, COMDAT

; 3090 : {

	push	ebp
	mov	ebp, esp
	sub	esp, 192				; 000000c0H
	push	ebx
	push	esi
	push	edi
	lea	edi, DWORD PTR [ebp-192]
	mov	ecx, 48					; 00000030H
	mov	eax, -858993460				; ccccccccH
	rep stosd

; 3091 :     if (nCode < 0 || nCode != HC_ACTION)  // do not process message 

	cmp	DWORD PTR _nCode$[ebp], 0
	jl	SHORT $LN1@LowLevelKe
	cmp	DWORD PTR _nCode$[ebp], 0
	je	SHORT $LN2@LowLevelKe
$LN1@LowLevelKe:

; 3092 :         return CallNextHookEx( GetDXUTState().GetKeyboardHook(), nCode, wParam, lParam); 

	mov	esi, esp
	mov	eax, DWORD PTR _lParam$[ebp]
	push	eax
	mov	ecx, DWORD PTR _wParam$[ebp]
	push	ecx
	mov	edx, DWORD PTR _nCode$[ebp]
	push	edx
	call	?GetDXUTState@@YAAAVDXUTState@@XZ	; GetDXUTState
	mov	ecx, eax
	call	?GetKeyboardHook@DXUTState@@QAEPAUHHOOK__@@XZ ; DXUTState::GetKeyboardHook
	push	eax
	call	DWORD PTR __imp__CallNextHookEx@16
	cmp	esi, esp
	call	__RTC_CheckEsp
	jmp	SHORT $LN3@LowLevelKe
$LN2@LowLevelKe:

; 3093 : 
; 3094 : 	return CallNextHookEx( GetDXUTState().GetKeyboardHook(), nCode, wParam, lParam );

	mov	esi, esp
	mov	eax, DWORD PTR _lParam$[ebp]
	push	eax
	mov	ecx, DWORD PTR _wParam$[ebp]
	push	ecx
	mov	edx, DWORD PTR _nCode$[ebp]
	push	edx
	call	?GetDXUTState@@YAAAVDXUTState@@XZ	; GetDXUTState
	mov	ecx, eax
	call	?GetKeyboardHook@DXUTState@@QAEPAUHHOOK__@@XZ ; DXUTState::GetKeyboardHook
	push	eax
	call	DWORD PTR __imp__CallNextHookEx@16
	cmp	esi, esp
	call	__RTC_CheckEsp
$LN3@LowLevelKe:

; 3095 : }

	pop	edi
	pop	esi
	pop	ebx
	add	esp, 192				; 000000c0H
	cmp	ebp, esp
	call	__RTC_CheckEsp
	mov	esp, ebp
	pop	ebp
	ret	12					; 0000000cH
?LowLevelKeyboardProc@@YGJHIJ@Z ENDP			; LowLevelKeyboardProc
_TEXT	ENDS
; Function compile flags: /Odtp /RTCsu /ZI
; File z:\sampsrc\02xu1\saco\d3d9\common\dxut.cpp
;	COMDAT ?DXUTGetDesktopResolution@@YAXIPAK0@Z
_TEXT	SEGMENT
$T1 = -656						; size = 4
_strDeviceName$ = -452					; size = 256
_devMode$ = -188					; size = 156
_pAdapterInfo$ = -24					; size = 4
_pd3dEnum$ = -12					; size = 4
__$ArrayPad$ = -4					; size = 4
_AdapterOrdinal$ = 8					; size = 4
_pdwWidth$ = 12						; size = 4
_pdwHeight$ = 16					; size = 4
?DXUTGetDesktopResolution@@YAXIPAK0@Z PROC		; DXUTGetDesktopResolution, COMDAT

; 4993 : {

	push	ebp
	mov	ebp, esp
	sub	esp, 660				; 00000294H
	push	ebx
	push	esi
	push	edi
	lea	edi, DWORD PTR [ebp-660]
	mov	ecx, 165				; 000000a5H
	mov	eax, -858993460				; ccccccccH
	rep stosd
	mov	eax, DWORD PTR ___security_cookie
	xor	eax, ebp
	mov	DWORD PTR __$ArrayPad$[ebp], eax

; 4994 :     CD3DEnumeration* pd3dEnum = DXUTPrepareEnumerationObject();

	push	0
	call	?DXUTPrepareEnumerationObject@@YAPAVCD3DEnumeration@@_N@Z ; DXUTPrepareEnumerationObject
	add	esp, 4
	mov	DWORD PTR _pd3dEnum$[ebp], eax

; 4995 :     CD3DEnumAdapterInfo* pAdapterInfo = pd3dEnum->GetAdapterInfo( AdapterOrdinal );                       

	mov	eax, DWORD PTR _AdapterOrdinal$[ebp]
	push	eax
	mov	ecx, DWORD PTR _pd3dEnum$[ebp]
	call	?GetAdapterInfo@CD3DEnumeration@@QAEPAVCD3DEnumAdapterInfo@@I@Z ; CD3DEnumeration::GetAdapterInfo
	mov	DWORD PTR _pAdapterInfo$[ebp], eax

; 4996 :     DEVMODE devMode;
; 4997 :     ZeroMemory( &devMode, sizeof(DEVMODE) );

	push	156					; 0000009cH
	push	0
	lea	eax, DWORD PTR _devMode$[ebp]
	push	eax
	call	_memset
	add	esp, 12					; 0000000cH

; 4998 :     devMode.dmSize = sizeof(DEVMODE);

	mov	eax, 156				; 0000009cH
	mov	WORD PTR _devMode$[ebp+36], ax

; 4999 :     TCHAR strDeviceName[256];
; 5000 :     strcpy(strDeviceName,pAdapterInfo->AdapterIdentifier.DeviceName);

	mov	eax, DWORD PTR _pAdapterInfo$[ebp]
	add	eax, 1028				; 00000404H
	push	eax
	lea	ecx, DWORD PTR _strDeviceName$[ebp]
	push	ecx
	call	_strcpy
	add	esp, 8

; 5001 :     strDeviceName[255] = 0;

	mov	eax, 1
	imul	ecx, eax, 255
	mov	DWORD PTR $T1[ebp], ecx
	cmp	DWORD PTR $T1[ebp], 256			; 00000100H
	jae	SHORT $LN3@DXUTGetDes
	jmp	SHORT $LN4@DXUTGetDes
$LN3@DXUTGetDes:
	call	___report_rangecheckfailure
$LN4@DXUTGetDes:
	mov	edx, DWORD PTR $T1[ebp]
	mov	BYTE PTR _strDeviceName$[ebp+edx], 0

; 5002 :     EnumDisplaySettings( strDeviceName, ENUM_REGISTRY_SETTINGS, &devMode );

	mov	esi, esp
	lea	eax, DWORD PTR _devMode$[ebp]
	push	eax
	push	-2					; fffffffeH
	lea	ecx, DWORD PTR _strDeviceName$[ebp]
	push	ecx
	call	DWORD PTR __imp__EnumDisplaySettingsA@12
	cmp	esi, esp
	call	__RTC_CheckEsp

; 5003 :     *pdwWidth = devMode.dmPelsWidth;

	mov	eax, DWORD PTR _pdwWidth$[ebp]
	mov	ecx, DWORD PTR _devMode$[ebp+108]
	mov	DWORD PTR [eax], ecx

; 5004 :     *pdwHeight = devMode.dmPelsHeight;

	mov	eax, DWORD PTR _pdwHeight$[ebp]
	mov	ecx, DWORD PTR _devMode$[ebp+112]
	mov	DWORD PTR [eax], ecx
$LN2@DXUTGetDes:

; 5005 : }

	push	edx
	mov	ecx, ebp
	push	eax
	lea	edx, DWORD PTR $LN8@DXUTGetDes
	call	@_RTC_CheckStackVars@8
	pop	eax
	pop	edx
	pop	edi
	pop	esi
	pop	ebx
	mov	ecx, DWORD PTR __$ArrayPad$[ebp]
	xor	ecx, ebp
	call	@__security_check_cookie@4
	add	esp, 660				; 00000294H
	cmp	ebp, esp
	call	__RTC_CheckEsp
	mov	esp, ebp
	pop	ebp
	ret	0
	npad	2
$LN8@DXUTGetDes:
	DD	2
	DD	$LN7@DXUTGetDes
$LN7@DXUTGetDes:
	DD	-188					; ffffff44H
	DD	156					; 0000009cH
	DD	$LN5@DXUTGetDes
	DD	-452					; fffffe3cH
	DD	256					; 00000100H
	DD	$LN6@DXUTGetDes
$LN6@DXUTGetDes:
	DB	115					; 00000073H
	DB	116					; 00000074H
	DB	114					; 00000072H
	DB	68					; 00000044H
	DB	101					; 00000065H
	DB	118					; 00000076H
	DB	105					; 00000069H
	DB	99					; 00000063H
	DB	101					; 00000065H
	DB	78					; 0000004eH
	DB	97					; 00000061H
	DB	109					; 0000006dH
	DB	101					; 00000065H
	DB	0
$LN5@DXUTGetDes:
	DB	100					; 00000064H
	DB	101					; 00000065H
	DB	118					; 00000076H
	DB	77					; 0000004dH
	DB	111					; 0000006fH
	DB	100					; 00000064H
	DB	101					; 00000065H
	DB	0
?DXUTGetDesktopResolution@@YAXIPAK0@Z ENDP		; DXUTGetDesktopResolution
_TEXT	ENDS
; Function compile flags: /Odtp /RTCsu /ZI
; File z:\sampsrc\02xu1\saco\d3d9\common\dxut.cpp
;	COMDAT ?DXUTSetDeviceCursor@@YAJPAUIDirect3DDevice9@@PAUHICON__@@_N@Z
_TEXT	SEGMENT
$T1 = -592						; size = 4
$T2 = -580						; size = 4
$T3 = -568						; size = 4
$T4 = -556						; size = 4
_wMask$5 = -352						; size = 10
_lr$ = -332						; size = 8
_hgdiobjOld$ = -316					; size = 4
_pBitmap$ = -304					; size = 4
_pcrArrayMask$ = -292					; size = 4
_pcrArrayColor$ = -280					; size = 4
_bmi$ = -268						; size = 44
_y$ = -216						; size = 4
_x$ = -204						; size = 4
_crMask$ = -192						; size = 4
_crColor$ = -180					; size = 4
_dwHeightDest$ = -168					; size = 4
_dwHeightSrc$ = -156					; size = 4
_dwWidth$ = -144					; size = 4
_bm$ = -132						; size = 24
_hdcScreen$ = -100					; size = 4
_hdcMask$ = -88						; size = 4
_hdcColor$ = -76					; size = 4
_pCursorSurface$ = -64					; size = 4
_bBWCursor$ = -49					; size = 1
_iconinfo$ = -40					; size = 20
_hr$ = -12						; size = 4
__$ArrayPad$ = -4					; size = 4
_pd3dDevice$ = 8					; size = 4
_hCursor$ = 12						; size = 4
_bAddWatermark$ = 16					; size = 1
?DXUTSetDeviceCursor@@YAJPAUIDirect3DDevice9@@PAUHICON__@@_N@Z PROC ; DXUTSetDeviceCursor, COMDAT

; 4830 : {

	push	ebp
	mov	ebp, esp
	sub	esp, 596				; 00000254H
	push	ebx
	push	esi
	push	edi
	lea	edi, DWORD PTR [ebp-596]
	mov	ecx, 149				; 00000095H
	mov	eax, -858993460				; ccccccccH
	rep stosd
	mov	eax, DWORD PTR ___security_cookie
	xor	eax, ebp
	mov	DWORD PTR __$ArrayPad$[ebp], eax

; 4831 :     HRESULT hr = E_FAIL;

	mov	DWORD PTR _hr$[ebp], -2147467259	; 80004005H

; 4832 :     ICONINFO iconinfo;
; 4833 :     bool bBWCursor;
; 4834 :     LPDIRECT3DSURFACE9 pCursorSurface = NULL;

	mov	DWORD PTR _pCursorSurface$[ebp], 0

; 4835 :     HDC hdcColor = NULL;

	mov	DWORD PTR _hdcColor$[ebp], 0

; 4836 :     HDC hdcMask = NULL;

	mov	DWORD PTR _hdcMask$[ebp], 0

; 4837 :     HDC hdcScreen = NULL;

	mov	DWORD PTR _hdcScreen$[ebp], 0

; 4838 :     BITMAP bm;
; 4839 :     DWORD dwWidth;
; 4840 :     DWORD dwHeightSrc;
; 4841 :     DWORD dwHeightDest;
; 4842 :     COLORREF crColor;
; 4843 :     COLORREF crMask;
; 4844 :     UINT x;
; 4845 :     UINT y;
; 4846 :     BITMAPINFO bmi;
; 4847 :     COLORREF* pcrArrayColor = NULL;

	mov	DWORD PTR _pcrArrayColor$[ebp], 0

; 4848 :     COLORREF* pcrArrayMask = NULL;

	mov	DWORD PTR _pcrArrayMask$[ebp], 0

; 4849 :     DWORD* pBitmap;
; 4850 :     HGDIOBJ hgdiobjOld;
; 4851 : 
; 4852 :     ZeroMemory( &iconinfo, sizeof(iconinfo) );

	push	20					; 00000014H
	push	0
	lea	eax, DWORD PTR _iconinfo$[ebp]
	push	eax
	call	_memset
	add	esp, 12					; 0000000cH

; 4853 :     if( !GetIconInfo( hCursor, &iconinfo ) )

	mov	esi, esp
	lea	eax, DWORD PTR _iconinfo$[ebp]
	push	eax
	mov	ecx, DWORD PTR _hCursor$[ebp]
	push	ecx
	call	DWORD PTR __imp__GetIconInfo@8
	cmp	esi, esp
	call	__RTC_CheckEsp
	test	eax, eax
	jne	SHORT $LN35@DXUTSetDev

; 4854 :         goto End;

	jmp	$End$46
	jmp	$End$46
$LN35@DXUTSetDev:

; 4855 : 
; 4856 :     if (0 == GetObject((HGDIOBJ)iconinfo.hbmMask, sizeof(BITMAP), (LPVOID)&bm))

	mov	esi, esp
	lea	eax, DWORD PTR _bm$[ebp]
	push	eax
	push	24					; 00000018H
	mov	ecx, DWORD PTR _iconinfo$[ebp+12]
	push	ecx
	call	DWORD PTR __imp__GetObjectA@12
	cmp	esi, esp
	call	__RTC_CheckEsp
	test	eax, eax
	jne	SHORT $LN33@DXUTSetDev

; 4857 :         goto End;

	jmp	$End$46
	jmp	$End$46
$LN33@DXUTSetDev:

; 4858 :     dwWidth = bm.bmWidth;

	mov	eax, DWORD PTR _bm$[ebp+4]
	mov	DWORD PTR _dwWidth$[ebp], eax

; 4859 :     dwHeightSrc = bm.bmHeight;

	mov	eax, DWORD PTR _bm$[ebp+8]
	mov	DWORD PTR _dwHeightSrc$[ebp], eax

; 4860 : 
; 4861 :     if( iconinfo.hbmColor == NULL )

	cmp	DWORD PTR _iconinfo$[ebp+16], 0
	jne	SHORT $LN31@DXUTSetDev

; 4862 :     {
; 4863 :         bBWCursor = TRUE;

	mov	BYTE PTR _bBWCursor$[ebp], 1

; 4864 :         dwHeightDest = dwHeightSrc / 2;

	mov	eax, DWORD PTR _dwHeightSrc$[ebp]
	shr	eax, 1
	mov	DWORD PTR _dwHeightDest$[ebp], eax

; 4865 :     }
; 4866 :     else 

	jmp	SHORT $LN30@DXUTSetDev
$LN31@DXUTSetDev:

; 4867 :     {
; 4868 :         bBWCursor = FALSE;

	mov	BYTE PTR _bBWCursor$[ebp], 0

; 4869 :         dwHeightDest = dwHeightSrc;

	mov	eax, DWORD PTR _dwHeightSrc$[ebp]
	mov	DWORD PTR _dwHeightDest$[ebp], eax
$LN30@DXUTSetDev:

; 4870 :     }
; 4871 : 
; 4872 :     // Create a surface for the fullscreen cursor
; 4873 :     if( FAILED( hr = pd3dDevice->CreateOffscreenPlainSurface( dwWidth, dwHeightDest, 
; 4874 :         D3DFMT_A8R8G8B8, D3DPOOL_SCRATCH, &pCursorSurface, NULL ) ) )

	mov	esi, esp
	push	0
	lea	eax, DWORD PTR _pCursorSurface$[ebp]
	push	eax
	push	3
	push	21					; 00000015H
	mov	ecx, DWORD PTR _dwHeightDest$[ebp]
	push	ecx
	mov	edx, DWORD PTR _dwWidth$[ebp]
	push	edx
	mov	eax, DWORD PTR _pd3dDevice$[ebp]
	mov	ecx, DWORD PTR [eax]
	mov	edx, DWORD PTR _pd3dDevice$[ebp]
	push	edx
	mov	eax, DWORD PTR [ecx+144]
	call	eax
	cmp	esi, esp
	call	__RTC_CheckEsp
	mov	DWORD PTR _hr$[ebp], eax
	cmp	DWORD PTR _hr$[ebp], 0
	jge	SHORT $LN29@DXUTSetDev

; 4875 :     {
; 4876 :         goto End;

	jmp	$End$46
	jmp	$End$46
$LN29@DXUTSetDev:

; 4877 :     }
; 4878 : 
; 4879 :     pcrArrayMask = new DWORD[dwWidth * dwHeightSrc];

	mov	eax, DWORD PTR _dwWidth$[ebp]
	imul	eax, DWORD PTR _dwHeightSrc$[ebp]
	xor	ecx, ecx
	mov	edx, 4
	mul	edx
	seto	cl
	neg	ecx
	or	ecx, eax
	push	ecx
	call	??_U@YAPAXI@Z				; operator new[]
	add	esp, 4
	mov	DWORD PTR $T1[ebp], eax
	mov	eax, DWORD PTR $T1[ebp]
	mov	DWORD PTR _pcrArrayMask$[ebp], eax

; 4880 : 
; 4881 :     ZeroMemory(&bmi, sizeof(bmi));

	push	44					; 0000002cH
	push	0
	lea	eax, DWORD PTR _bmi$[ebp]
	push	eax
	call	_memset
	add	esp, 12					; 0000000cH

; 4882 :     bmi.bmiHeader.biSize = sizeof(bmi.bmiHeader);

	mov	DWORD PTR _bmi$[ebp], 40		; 00000028H

; 4883 :     bmi.bmiHeader.biWidth = dwWidth;

	mov	eax, DWORD PTR _dwWidth$[ebp]
	mov	DWORD PTR _bmi$[ebp+4], eax

; 4884 :     bmi.bmiHeader.biHeight = dwHeightSrc;

	mov	eax, DWORD PTR _dwHeightSrc$[ebp]
	mov	DWORD PTR _bmi$[ebp+8], eax

; 4885 :     bmi.bmiHeader.biPlanes = 1;

	mov	eax, 1
	mov	WORD PTR _bmi$[ebp+12], ax

; 4886 :     bmi.bmiHeader.biBitCount = 32;

	mov	eax, 32					; 00000020H
	mov	WORD PTR _bmi$[ebp+14], ax

; 4887 :     bmi.bmiHeader.biCompression = BI_RGB;

	mov	DWORD PTR _bmi$[ebp+16], 0

; 4888 : 
; 4889 :     hdcScreen = GetDC( NULL );

	mov	esi, esp
	push	0
	call	DWORD PTR __imp__GetDC@4
	cmp	esi, esp
	call	__RTC_CheckEsp
	mov	DWORD PTR _hdcScreen$[ebp], eax

; 4890 :     hdcMask = CreateCompatibleDC( hdcScreen );

	mov	esi, esp
	mov	eax, DWORD PTR _hdcScreen$[ebp]
	push	eax
	call	DWORD PTR __imp__CreateCompatibleDC@4
	cmp	esi, esp
	call	__RTC_CheckEsp
	mov	DWORD PTR _hdcMask$[ebp], eax

; 4891 :     if( hdcMask == NULL )

	cmp	DWORD PTR _hdcMask$[ebp], 0
	jne	SHORT $LN27@DXUTSetDev

; 4892 :     {
; 4893 :         hr = E_FAIL;

	mov	DWORD PTR _hr$[ebp], -2147467259	; 80004005H

; 4894 :         goto End;

	jmp	$End$46
	jmp	$End$46
$LN27@DXUTSetDev:

; 4895 :     }
; 4896 :     hgdiobjOld = SelectObject(hdcMask, iconinfo.hbmMask);

	mov	esi, esp
	mov	eax, DWORD PTR _iconinfo$[ebp+12]
	push	eax
	mov	ecx, DWORD PTR _hdcMask$[ebp]
	push	ecx
	call	DWORD PTR __imp__SelectObject@8
	cmp	esi, esp
	call	__RTC_CheckEsp
	mov	DWORD PTR _hgdiobjOld$[ebp], eax

; 4897 :     GetDIBits(hdcMask, iconinfo.hbmMask, 0, dwHeightSrc, 
; 4898 :         pcrArrayMask, &bmi, DIB_RGB_COLORS);

	mov	esi, esp
	push	0
	lea	eax, DWORD PTR _bmi$[ebp]
	push	eax
	mov	ecx, DWORD PTR _pcrArrayMask$[ebp]
	push	ecx
	mov	edx, DWORD PTR _dwHeightSrc$[ebp]
	push	edx
	push	0
	mov	eax, DWORD PTR _iconinfo$[ebp+12]
	push	eax
	mov	ecx, DWORD PTR _hdcMask$[ebp]
	push	ecx
	call	DWORD PTR __imp__GetDIBits@28
	cmp	esi, esp
	call	__RTC_CheckEsp

; 4899 :     SelectObject(hdcMask, hgdiobjOld);

	mov	esi, esp
	mov	eax, DWORD PTR _hgdiobjOld$[ebp]
	push	eax
	mov	ecx, DWORD PTR _hdcMask$[ebp]
	push	ecx
	call	DWORD PTR __imp__SelectObject@8
	cmp	esi, esp
	call	__RTC_CheckEsp

; 4900 : 
; 4901 :     if (!bBWCursor)

	movzx	eax, BYTE PTR _bBWCursor$[ebp]
	test	eax, eax
	jne	$LN25@DXUTSetDev

; 4902 :     {
; 4903 :         pcrArrayColor = new DWORD[dwWidth * dwHeightDest];

	mov	eax, DWORD PTR _dwWidth$[ebp]
	imul	eax, DWORD PTR _dwHeightDest$[ebp]
	xor	ecx, ecx
	mov	edx, 4
	mul	edx
	seto	cl
	neg	ecx
	or	ecx, eax
	push	ecx
	call	??_U@YAPAXI@Z				; operator new[]
	add	esp, 4
	mov	DWORD PTR $T2[ebp], eax
	mov	eax, DWORD PTR $T2[ebp]
	mov	DWORD PTR _pcrArrayColor$[ebp], eax

; 4904 :         hdcColor = CreateCompatibleDC( hdcScreen );

	mov	esi, esp
	mov	eax, DWORD PTR _hdcScreen$[ebp]
	push	eax
	call	DWORD PTR __imp__CreateCompatibleDC@4
	cmp	esi, esp
	call	__RTC_CheckEsp
	mov	DWORD PTR _hdcColor$[ebp], eax

; 4905 :         if( hdcColor == NULL )

	cmp	DWORD PTR _hdcColor$[ebp], 0
	jne	SHORT $LN24@DXUTSetDev

; 4906 :         {
; 4907 :             hr = E_FAIL;

	mov	DWORD PTR _hr$[ebp], -2147467259	; 80004005H

; 4908 :             goto End;

	jmp	$End$46
	jmp	$End$46
$LN24@DXUTSetDev:

; 4909 :         }
; 4910 :         SelectObject(hdcColor, iconinfo.hbmColor);

	mov	esi, esp
	mov	eax, DWORD PTR _iconinfo$[ebp+16]
	push	eax
	mov	ecx, DWORD PTR _hdcColor$[ebp]
	push	ecx
	call	DWORD PTR __imp__SelectObject@8
	cmp	esi, esp
	call	__RTC_CheckEsp

; 4911 :         GetDIBits(hdcColor, iconinfo.hbmColor, 0, dwHeightDest, 
; 4912 :             pcrArrayColor, &bmi, DIB_RGB_COLORS);

	mov	esi, esp
	push	0
	lea	eax, DWORD PTR _bmi$[ebp]
	push	eax
	mov	ecx, DWORD PTR _pcrArrayColor$[ebp]
	push	ecx
	mov	edx, DWORD PTR _dwHeightDest$[ebp]
	push	edx
	push	0
	mov	eax, DWORD PTR _iconinfo$[ebp+16]
	push	eax
	mov	ecx, DWORD PTR _hdcColor$[ebp]
	push	ecx
	call	DWORD PTR __imp__GetDIBits@28
	cmp	esi, esp
	call	__RTC_CheckEsp
$LN25@DXUTSetDev:

; 4913 :     }
; 4914 : 
; 4915 :     // Transfer cursor image into the surface
; 4916 :     D3DLOCKED_RECT lr;
; 4917 :     pCursorSurface->LockRect( &lr, NULL, 0 );

	mov	esi, esp
	push	0
	push	0
	lea	eax, DWORD PTR _lr$[ebp]
	push	eax
	mov	ecx, DWORD PTR _pCursorSurface$[ebp]
	mov	edx, DWORD PTR [ecx]
	mov	eax, DWORD PTR _pCursorSurface$[ebp]
	push	eax
	mov	ecx, DWORD PTR [edx+52]
	call	ecx
	cmp	esi, esp
	call	__RTC_CheckEsp

; 4918 :     pBitmap = (DWORD*)lr.pBits;

	mov	eax, DWORD PTR _lr$[ebp+4]
	mov	DWORD PTR _pBitmap$[ebp], eax

; 4919 :     for( y = 0; y < dwHeightDest; y++ )

	mov	DWORD PTR _y$[ebp], 0
	jmp	SHORT $LN22@DXUTSetDev
$LN21@DXUTSetDev:
	mov	eax, DWORD PTR _y$[ebp]
	add	eax, 1
	mov	DWORD PTR _y$[ebp], eax
$LN22@DXUTSetDev:
	mov	eax, DWORD PTR _y$[ebp]
	cmp	eax, DWORD PTR _dwHeightDest$[ebp]
	jae	$LN20@DXUTSetDev

; 4920 :     {
; 4921 :         for( x = 0; x < dwWidth; x++ )

	mov	DWORD PTR _x$[ebp], 0
	jmp	SHORT $LN19@DXUTSetDev
$LN18@DXUTSetDev:
	mov	eax, DWORD PTR _x$[ebp]
	add	eax, 1
	mov	DWORD PTR _x$[ebp], eax
$LN19@DXUTSetDev:
	mov	eax, DWORD PTR _x$[ebp]
	cmp	eax, DWORD PTR _dwWidth$[ebp]
	jae	$LN17@DXUTSetDev

; 4922 :         {
; 4923 :             if (bBWCursor)

	movzx	eax, BYTE PTR _bBWCursor$[ebp]
	test	eax, eax
	je	SHORT $LN16@DXUTSetDev

; 4924 :             {
; 4925 :                 crColor = pcrArrayMask[dwWidth*(dwHeightDest-1-y) + x];

	mov	eax, DWORD PTR _dwHeightDest$[ebp]
	sub	eax, 1
	sub	eax, DWORD PTR _y$[ebp]
	imul	eax, DWORD PTR _dwWidth$[ebp]
	add	eax, DWORD PTR _x$[ebp]
	mov	ecx, DWORD PTR _pcrArrayMask$[ebp]
	mov	edx, DWORD PTR [ecx+eax*4]
	mov	DWORD PTR _crColor$[ebp], edx

; 4926 :                 crMask = pcrArrayMask[dwWidth*(dwHeightSrc-1-y) + x];

	mov	eax, DWORD PTR _dwHeightSrc$[ebp]
	sub	eax, 1
	sub	eax, DWORD PTR _y$[ebp]
	imul	eax, DWORD PTR _dwWidth$[ebp]
	add	eax, DWORD PTR _x$[ebp]
	mov	ecx, DWORD PTR _pcrArrayMask$[ebp]
	mov	edx, DWORD PTR [ecx+eax*4]
	mov	DWORD PTR _crMask$[ebp], edx

; 4927 :             }
; 4928 :             else

	jmp	SHORT $LN15@DXUTSetDev
$LN16@DXUTSetDev:

; 4929 :             {
; 4930 :                 crColor = pcrArrayColor[dwWidth*(dwHeightDest-1-y) + x];

	mov	eax, DWORD PTR _dwHeightDest$[ebp]
	sub	eax, 1
	sub	eax, DWORD PTR _y$[ebp]
	imul	eax, DWORD PTR _dwWidth$[ebp]
	add	eax, DWORD PTR _x$[ebp]
	mov	ecx, DWORD PTR _pcrArrayColor$[ebp]
	mov	edx, DWORD PTR [ecx+eax*4]
	mov	DWORD PTR _crColor$[ebp], edx

; 4931 :                 crMask = pcrArrayMask[dwWidth*(dwHeightDest-1-y) + x];

	mov	eax, DWORD PTR _dwHeightDest$[ebp]
	sub	eax, 1
	sub	eax, DWORD PTR _y$[ebp]
	imul	eax, DWORD PTR _dwWidth$[ebp]
	add	eax, DWORD PTR _x$[ebp]
	mov	ecx, DWORD PTR _pcrArrayMask$[ebp]
	mov	edx, DWORD PTR [ecx+eax*4]
	mov	DWORD PTR _crMask$[ebp], edx
$LN15@DXUTSetDev:

; 4932 :             }
; 4933 :             if (crMask == 0)

	cmp	DWORD PTR _crMask$[ebp], 0
	jne	SHORT $LN14@DXUTSetDev

; 4934 :                 pBitmap[dwWidth*y + x] = 0xff000000 | crColor;

	mov	eax, DWORD PTR _crColor$[ebp]
	or	eax, -16777216				; ff000000H
	mov	ecx, DWORD PTR _dwWidth$[ebp]
	imul	ecx, DWORD PTR _y$[ebp]
	add	ecx, DWORD PTR _x$[ebp]
	mov	edx, DWORD PTR _pBitmap$[ebp]
	mov	DWORD PTR [edx+ecx*4], eax

; 4935 :             else

	jmp	SHORT $LN13@DXUTSetDev
$LN14@DXUTSetDev:

; 4936 :                 pBitmap[dwWidth*y + x] = 0x00000000;

	mov	eax, DWORD PTR _dwWidth$[ebp]
	imul	eax, DWORD PTR _y$[ebp]
	add	eax, DWORD PTR _x$[ebp]
	mov	ecx, DWORD PTR _pBitmap$[ebp]
	mov	DWORD PTR [ecx+eax*4], 0
$LN13@DXUTSetDev:

; 4937 : 
; 4938 :             // It may be helpful to make the D3D cursor look slightly 
; 4939 :             // different from the Windows cursor so you can distinguish 
; 4940 :             // between the two when developing/testing code.  When
; 4941 :             // bAddWatermark is TRUE, the following code adds some
; 4942 :             // small grey "D3D" characters to the upper-left corner of
; 4943 :             // the D3D cursor image.
; 4944 :             if( bAddWatermark && x < 12 && y < 5 )

	movzx	eax, BYTE PTR _bAddWatermark$[ebp]
	test	eax, eax
	je	$LN12@DXUTSetDev
	cmp	DWORD PTR _x$[ebp], 12			; 0000000cH
	jae	$LN12@DXUTSetDev
	cmp	DWORD PTR _y$[ebp], 5
	jae	$LN12@DXUTSetDev

; 4945 :             {
; 4946 :                 // 11.. 11.. 11.. .... CCC0
; 4947 :                 // 1.1. ..1. 1.1. .... A2A0
; 4948 :                 // 1.1. .1.. 1.1. .... A4A0
; 4949 :                 // 1.1. ..1. 1.1. .... A2A0
; 4950 :                 // 11.. 11.. 11.. .... CCC0
; 4951 : 
; 4952 :                 const WORD wMask[5] = { 0xccc0, 0xa2a0, 0xa4a0, 0xa2a0, 0xccc0 };

	mov	eax, 52416				; 0000ccc0H
	mov	WORD PTR _wMask$5[ebp], ax
	mov	eax, 41632				; 0000a2a0H
	mov	WORD PTR _wMask$5[ebp+2], ax
	mov	eax, 42144				; 0000a4a0H
	mov	WORD PTR _wMask$5[ebp+4], ax
	mov	eax, 41632				; 0000a2a0H
	mov	WORD PTR _wMask$5[ebp+6], ax
	mov	eax, 52416				; 0000ccc0H
	mov	WORD PTR _wMask$5[ebp+8], ax

; 4953 :                 if( wMask[y] & (1 << (15 - x)) )

	mov	eax, DWORD PTR _y$[ebp]
	movzx	edx, WORD PTR _wMask$5[ebp+eax*2]
	mov	ecx, 15					; 0000000fH
	sub	ecx, DWORD PTR _x$[ebp]
	mov	eax, 1
	shl	eax, cl
	and	edx, eax
	je	SHORT $LN12@DXUTSetDev

; 4954 :                 {
; 4955 :                     pBitmap[dwWidth*y + x] |= 0xff808080;

	mov	eax, DWORD PTR _dwWidth$[ebp]
	imul	eax, DWORD PTR _y$[ebp]
	add	eax, DWORD PTR _x$[ebp]
	mov	ecx, DWORD PTR _pBitmap$[ebp]
	mov	edx, DWORD PTR [ecx+eax*4]
	or	edx, -8355712				; ff808080H
	mov	eax, DWORD PTR _dwWidth$[ebp]
	imul	eax, DWORD PTR _y$[ebp]
	add	eax, DWORD PTR _x$[ebp]
	mov	ecx, DWORD PTR _pBitmap$[ebp]
	mov	DWORD PTR [ecx+eax*4], edx
$LN12@DXUTSetDev:

; 4956 :                 }
; 4957 :             }
; 4958 :         }

	jmp	$LN18@DXUTSetDev
$LN17@DXUTSetDev:

; 4959 :     }

	jmp	$LN21@DXUTSetDev
$LN20@DXUTSetDev:

; 4960 :     pCursorSurface->UnlockRect();

	mov	eax, DWORD PTR _pCursorSurface$[ebp]
	mov	ecx, DWORD PTR [eax]
	mov	esi, esp
	mov	edx, DWORD PTR _pCursorSurface$[ebp]
	push	edx
	mov	eax, DWORD PTR [ecx+56]
	call	eax
	cmp	esi, esp
	call	__RTC_CheckEsp

; 4961 : 
; 4962 :     // Set the device cursor
; 4963 :     if( FAILED( hr = pd3dDevice->SetCursorProperties( iconinfo.xHotspot, 
; 4964 :         iconinfo.yHotspot, pCursorSurface ) ) )

	mov	esi, esp
	mov	eax, DWORD PTR _pCursorSurface$[ebp]
	push	eax
	mov	ecx, DWORD PTR _iconinfo$[ebp+8]
	push	ecx
	mov	edx, DWORD PTR _iconinfo$[ebp+4]
	push	edx
	mov	eax, DWORD PTR _pd3dDevice$[ebp]
	mov	ecx, DWORD PTR [eax]
	mov	edx, DWORD PTR _pd3dDevice$[ebp]
	push	edx
	mov	eax, DWORD PTR [ecx+40]
	call	eax
	cmp	esi, esp
	call	__RTC_CheckEsp
	mov	DWORD PTR _hr$[ebp], eax
	cmp	DWORD PTR _hr$[ebp], 0
	jge	SHORT $LN10@DXUTSetDev

; 4965 :     {
; 4966 :         goto End;

	jmp	SHORT $End$46
	jmp	SHORT $End$46
$LN10@DXUTSetDev:

; 4967 :     }
; 4968 : 
; 4969 :     hr = S_OK;

	mov	DWORD PTR _hr$[ebp], 0
$End$46:

; 4970 : 
; 4971 : End:
; 4972 :     if( iconinfo.hbmMask != NULL )

	cmp	DWORD PTR _iconinfo$[ebp+12], 0
	je	SHORT $LN8@DXUTSetDev

; 4973 :         DeleteObject( iconinfo.hbmMask );

	mov	esi, esp
	mov	eax, DWORD PTR _iconinfo$[ebp+12]
	push	eax
	call	DWORD PTR __imp__DeleteObject@4
	cmp	esi, esp
	call	__RTC_CheckEsp
$LN8@DXUTSetDev:

; 4974 :     if( iconinfo.hbmColor != NULL )

	cmp	DWORD PTR _iconinfo$[ebp+16], 0
	je	SHORT $LN7@DXUTSetDev

; 4975 :         DeleteObject( iconinfo.hbmColor );

	mov	esi, esp
	mov	eax, DWORD PTR _iconinfo$[ebp+16]
	push	eax
	call	DWORD PTR __imp__DeleteObject@4
	cmp	esi, esp
	call	__RTC_CheckEsp
$LN7@DXUTSetDev:

; 4976 :     if( hdcScreen != NULL )

	cmp	DWORD PTR _hdcScreen$[ebp], 0
	je	SHORT $LN6@DXUTSetDev

; 4977 :         ReleaseDC( NULL, hdcScreen );

	mov	esi, esp
	mov	eax, DWORD PTR _hdcScreen$[ebp]
	push	eax
	push	0
	call	DWORD PTR __imp__ReleaseDC@8
	cmp	esi, esp
	call	__RTC_CheckEsp
$LN6@DXUTSetDev:

; 4978 :     if( hdcColor != NULL )

	cmp	DWORD PTR _hdcColor$[ebp], 0
	je	SHORT $LN5@DXUTSetDev

; 4979 :         DeleteDC( hdcColor );

	mov	esi, esp
	mov	eax, DWORD PTR _hdcColor$[ebp]
	push	eax
	call	DWORD PTR __imp__DeleteDC@4
	cmp	esi, esp
	call	__RTC_CheckEsp
$LN5@DXUTSetDev:

; 4980 :     if( hdcMask != NULL )

	cmp	DWORD PTR _hdcMask$[ebp], 0
	je	SHORT $LN4@DXUTSetDev

; 4981 :         DeleteDC( hdcMask );

	mov	esi, esp
	mov	eax, DWORD PTR _hdcMask$[ebp]
	push	eax
	call	DWORD PTR __imp__DeleteDC@4
	cmp	esi, esp
	call	__RTC_CheckEsp
$LN4@DXUTSetDev:

; 4982 :     SAFE_DELETE_ARRAY( pcrArrayColor );

	cmp	DWORD PTR _pcrArrayColor$[ebp], 0
	je	SHORT $LN3@DXUTSetDev
	mov	eax, DWORD PTR _pcrArrayColor$[ebp]
	mov	DWORD PTR $T3[ebp], eax
	mov	ecx, DWORD PTR $T3[ebp]
	push	ecx
	call	??_V@YAXPAX@Z				; operator delete[]
	add	esp, 4
	mov	DWORD PTR _pcrArrayColor$[ebp], 0
$LN3@DXUTSetDev:

; 4983 :     SAFE_DELETE_ARRAY( pcrArrayMask );

	cmp	DWORD PTR _pcrArrayMask$[ebp], 0
	je	SHORT $LN2@DXUTSetDev
	mov	eax, DWORD PTR _pcrArrayMask$[ebp]
	mov	DWORD PTR $T4[ebp], eax
	mov	ecx, DWORD PTR $T4[ebp]
	push	ecx
	call	??_V@YAXPAX@Z				; operator delete[]
	add	esp, 4
	mov	DWORD PTR _pcrArrayMask$[ebp], 0
$LN2@DXUTSetDev:

; 4984 :     SAFE_RELEASE( pCursorSurface );

	cmp	DWORD PTR _pCursorSurface$[ebp], 0
	je	SHORT $LN1@DXUTSetDev
	mov	eax, DWORD PTR _pCursorSurface$[ebp]
	mov	ecx, DWORD PTR [eax]
	mov	esi, esp
	mov	edx, DWORD PTR _pCursorSurface$[ebp]
	push	edx
	mov	eax, DWORD PTR [ecx+8]
	call	eax
	cmp	esi, esp
	call	__RTC_CheckEsp
	mov	DWORD PTR _pCursorSurface$[ebp], 0
$LN1@DXUTSetDev:

; 4985 :     return hr;

	mov	eax, DWORD PTR _hr$[ebp]

; 4986 : }

	push	edx
	mov	ecx, ebp
	push	eax
	lea	edx, DWORD PTR $LN45@DXUTSetDev
	call	@_RTC_CheckStackVars@8
	pop	eax
	pop	edx
	pop	edi
	pop	esi
	pop	ebx
	mov	ecx, DWORD PTR __$ArrayPad$[ebp]
	xor	ecx, ebp
	call	@__security_check_cookie@4
	add	esp, 596				; 00000254H
	cmp	ebp, esp
	call	__RTC_CheckEsp
	mov	esp, ebp
	pop	ebp
	ret	0
	npad	1
$LN45@DXUTSetDev:
	DD	6
	DD	$LN44@DXUTSetDev
$LN44@DXUTSetDev:
	DD	-40					; ffffffd8H
	DD	20					; 00000014H
	DD	$LN38@DXUTSetDev
	DD	-64					; ffffffc0H
	DD	4
	DD	$LN39@DXUTSetDev
	DD	-132					; ffffff7cH
	DD	24					; 00000018H
	DD	$LN40@DXUTSetDev
	DD	-268					; fffffef4H
	DD	44					; 0000002cH
	DD	$LN41@DXUTSetDev
	DD	-332					; fffffeb4H
	DD	8
	DD	$LN42@DXUTSetDev
	DD	-352					; fffffea0H
	DD	10					; 0000000aH
	DD	$LN43@DXUTSetDev
$LN43@DXUTSetDev:
	DB	119					; 00000077H
	DB	77					; 0000004dH
	DB	97					; 00000061H
	DB	115					; 00000073H
	DB	107					; 0000006bH
	DB	0
$LN42@DXUTSetDev:
	DB	108					; 0000006cH
	DB	114					; 00000072H
	DB	0
$LN41@DXUTSetDev:
	DB	98					; 00000062H
	DB	109					; 0000006dH
	DB	105					; 00000069H
	DB	0
$LN40@DXUTSetDev:
	DB	98					; 00000062H
	DB	109					; 0000006dH
	DB	0
$LN39@DXUTSetDev:
	DB	112					; 00000070H
	DB	67					; 00000043H
	DB	117					; 00000075H
	DB	114					; 00000072H
	DB	115					; 00000073H
	DB	111					; 0000006fH
	DB	114					; 00000072H
	DB	83					; 00000053H
	DB	117					; 00000075H
	DB	114					; 00000072H
	DB	102					; 00000066H
	DB	97					; 00000061H
	DB	99					; 00000063H
	DB	101					; 00000065H
	DB	0
$LN38@DXUTSetDev:
	DB	105					; 00000069H
	DB	99					; 00000063H
	DB	111					; 0000006fH
	DB	110					; 0000006eH
	DB	105					; 00000069H
	DB	110					; 0000006eH
	DB	102					; 00000066H
	DB	111					; 0000006fH
	DB	0
?DXUTSetDeviceCursor@@YAJPAUIDirect3DDevice9@@PAUHICON__@@_N@Z ENDP ; DXUTSetDeviceCursor
_TEXT	ENDS
; Function compile flags: /Odtp /RTCsu /ZI
; File z:\sampsrc\02xu1\saco\d3d9\common\dxut.cpp
;	COMDAT ?DXUTInitHWCursor@@YAXXZ
_TEXT	SEGMENT
tv79 = -236						; size = 4
_rcWindow$1 = -36					; size = 16
_hCursor$2 = -12					; size = 4
__$ArrayPad$ = -4					; size = 4
?DXUTInitHWCursor@@YAXXZ PROC				; DXUTInitHWCursor, COMDAT

; 4807 : {

	push	ebp
	mov	ebp, esp
	sub	esp, 236				; 000000ecH
	push	ebx
	push	esi
	push	edi
	lea	edi, DWORD PTR [ebp-236]
	mov	ecx, 59					; 0000003bH
	mov	eax, -858993460				; ccccccccH
	rep stosd
	mov	eax, DWORD PTR ___security_cookie
	xor	eax, ebp
	mov	DWORD PTR __$ArrayPad$[ebp], eax

; 4808 :     // Set up the full screen cursor 
; 4809 :     if( !DXUTIsWindowed() )

	call	?DXUTIsWindowed@@YA_NXZ			; DXUTIsWindowed
	movzx	eax, al
	test	eax, eax
	jne	$LN2@DXUTInitHW

; 4810 :     {
; 4811 :         HCURSOR hCursor = (HCURSOR)(ULONG_PTR)GetClassLongPtr( DXUTGetHWNDDeviceFullScreen(), GCLP_HCURSOR );

	mov	esi, esp
	push	-12					; fffffff4H
	call	?DXUTGetHWNDDeviceFullScreen@@YAPAUHWND__@@XZ ; DXUTGetHWNDDeviceFullScreen
	push	eax
	call	DWORD PTR __imp__GetClassLongA@8
	cmp	esi, esp
	call	__RTC_CheckEsp
	mov	DWORD PTR _hCursor$2[ebp], eax

; 4812 :         DXUTSetDeviceCursor( GetDXUTState().GetD3DDevice(), hCursor, false );

	push	0
	mov	eax, DWORD PTR _hCursor$2[ebp]
	push	eax
	call	?GetDXUTState@@YAAAVDXUTState@@XZ	; GetDXUTState
	mov	ecx, eax
	call	?GetD3DDevice@DXUTState@@QAEPAUIDirect3DDevice9@@XZ ; DXUTState::GetD3DDevice
	push	eax
	call	?DXUTSetDeviceCursor@@YAJPAUIDirect3DDevice9@@PAUHICON__@@_N@Z ; DXUTSetDeviceCursor
	add	esp, 12					; 0000000cH

; 4813 :         DXUTGetD3DDevice()->ShowCursor( true );

	call	?DXUTGetD3DDevice@@YAPAUIDirect3DDevice9@@XZ ; DXUTGetD3DDevice
	mov	DWORD PTR tv79[ebp], eax
	mov	esi, esp
	push	1
	mov	eax, DWORD PTR tv79[ebp]
	push	eax
	mov	ecx, DWORD PTR tv79[ebp]
	mov	edx, DWORD PTR [ecx]
	mov	eax, DWORD PTR [edx+48]
	call	eax
	cmp	esi, esp
	call	__RTC_CheckEsp

; 4814 : 
; 4815 :         // Confine cursor to full screen window
; 4816 :         RECT rcWindow;
; 4817 :         GetWindowRect( DXUTGetHWNDDeviceFullScreen(), &rcWindow );

	mov	esi, esp
	lea	eax, DWORD PTR _rcWindow$1[ebp]
	push	eax
	call	?DXUTGetHWNDDeviceFullScreen@@YAPAUHWND__@@XZ ; DXUTGetHWNDDeviceFullScreen
	push	eax
	call	DWORD PTR __imp__GetWindowRect@8
	cmp	esi, esp
	call	__RTC_CheckEsp

; 4818 :         ClipCursor( &rcWindow );

	mov	esi, esp
	lea	eax, DWORD PTR _rcWindow$1[ebp]
	push	eax
	call	DWORD PTR __imp__ClipCursor@4
	cmp	esi, esp
	call	__RTC_CheckEsp

; 4819 :     }
; 4820 :     else

	jmp	SHORT $LN3@DXUTInitHW
$LN2@DXUTInitHW:

; 4821 :     {
; 4822 :         ClipCursor( NULL );

	mov	esi, esp
	push	0
	call	DWORD PTR __imp__ClipCursor@4
	cmp	esi, esp
	call	__RTC_CheckEsp
$LN3@DXUTInitHW:

; 4823 :     }
; 4824 : }

	push	edx
	mov	ecx, ebp
	push	eax
	lea	edx, DWORD PTR $LN7@DXUTInitHW
	call	@_RTC_CheckStackVars@8
	pop	eax
	pop	edx
	pop	edi
	pop	esi
	pop	ebx
	mov	ecx, DWORD PTR __$ArrayPad$[ebp]
	xor	ecx, ebp
	call	@__security_check_cookie@4
	add	esp, 236				; 000000ecH
	cmp	ebp, esp
	call	__RTC_CheckEsp
	mov	esp, ebp
	pop	ebp
	ret	0
	npad	3
$LN7@DXUTInitHW:
	DD	1
	DD	$LN6@DXUTInitHW
$LN6@DXUTInitHW:
	DD	-36					; ffffffdcH
	DD	16					; 00000010H
	DD	$LN5@DXUTInitHW
$LN5@DXUTInitHW:
	DB	114					; 00000072H
	DB	99					; 00000063H
	DB	87					; 00000057H
	DB	105					; 00000069H
	DB	110					; 0000006eH
	DB	100					; 00000064H
	DB	111					; 0000006fH
	DB	119					; 00000077H
	DB	0
?DXUTInitHWCursor@@YAXXZ ENDP				; DXUTInitHWCursor
_TEXT	ENDS
; Function compile flags: /Odtp /RTCsu /ZI
; File z:\sampsrc\02xu1\saco\d3d9\common\dxut.cpp
;	COMDAT ?DXUTUpdateBackBufferDesc@@YAXXZ
_TEXT	SEGMENT
tv68 = -232						; size = 4
_pBBufferSurfaceDesc$ = -32				; size = 4
_pBackBuffer$ = -20					; size = 4
_hr$ = -8						; size = 4
?DXUTUpdateBackBufferDesc@@YAXXZ PROC			; DXUTUpdateBackBufferDesc, COMDAT

; 4412 : {

	push	ebp
	mov	ebp, esp
	sub	esp, 232				; 000000e8H
	push	ebx
	push	esi
	push	edi
	lea	edi, DWORD PTR [ebp-232]
	mov	ecx, 58					; 0000003aH
	mov	eax, -858993460				; ccccccccH
	rep stosd

; 4413 :     HRESULT hr;
; 4414 :     IDirect3DSurface9* pBackBuffer;
; 4415 :     hr = GetDXUTState().GetD3DDevice()->GetBackBuffer( 0, 0, D3DBACKBUFFER_TYPE_MONO, &pBackBuffer );

	call	?GetDXUTState@@YAAAVDXUTState@@XZ	; GetDXUTState
	mov	ecx, eax
	call	?GetD3DDevice@DXUTState@@QAEPAUIDirect3DDevice9@@XZ ; DXUTState::GetD3DDevice
	mov	DWORD PTR tv68[ebp], eax
	mov	esi, esp
	lea	eax, DWORD PTR _pBackBuffer$[ebp]
	push	eax
	push	0
	push	0
	push	0
	mov	ecx, DWORD PTR tv68[ebp]
	push	ecx
	mov	edx, DWORD PTR tv68[ebp]
	mov	eax, DWORD PTR [edx]
	mov	ecx, DWORD PTR [eax+72]
	call	ecx
	cmp	esi, esp
	call	__RTC_CheckEsp
	mov	DWORD PTR _hr$[ebp], eax

; 4416 :     D3DSURFACE_DESC* pBBufferSurfaceDesc = GetDXUTState().GetBackBufferSurfaceDesc();

	call	?GetDXUTState@@YAAAVDXUTState@@XZ	; GetDXUTState
	mov	ecx, eax
	call	?GetBackBufferSurfaceDesc@DXUTState@@QAEPAU_D3DSURFACE_DESC@@XZ ; DXUTState::GetBackBufferSurfaceDesc
	mov	DWORD PTR _pBBufferSurfaceDesc$[ebp], eax

; 4417 :     ZeroMemory( pBBufferSurfaceDesc, sizeof(D3DSURFACE_DESC) );

	push	32					; 00000020H
	push	0
	mov	eax, DWORD PTR _pBBufferSurfaceDesc$[ebp]
	push	eax
	call	_memset
	add	esp, 12					; 0000000cH

; 4418 :     if( SUCCEEDED(hr) )

	cmp	DWORD PTR _hr$[ebp], 0
	jl	SHORT $LN3@DXUTUpdate

; 4419 :     {
; 4420 :         pBackBuffer->GetDesc( pBBufferSurfaceDesc );

	mov	esi, esp
	mov	eax, DWORD PTR _pBBufferSurfaceDesc$[ebp]
	push	eax
	mov	ecx, DWORD PTR _pBackBuffer$[ebp]
	mov	edx, DWORD PTR [ecx]
	mov	eax, DWORD PTR _pBackBuffer$[ebp]
	push	eax
	mov	ecx, DWORD PTR [edx+48]
	call	ecx
	cmp	esi, esp
	call	__RTC_CheckEsp

; 4421 :         SAFE_RELEASE( pBackBuffer );

	cmp	DWORD PTR _pBackBuffer$[ebp], 0
	je	SHORT $LN3@DXUTUpdate
	mov	eax, DWORD PTR _pBackBuffer$[ebp]
	mov	ecx, DWORD PTR [eax]
	mov	esi, esp
	mov	edx, DWORD PTR _pBackBuffer$[ebp]
	push	edx
	mov	eax, DWORD PTR [ecx+8]
	call	eax
	cmp	esi, esp
	call	__RTC_CheckEsp
	mov	DWORD PTR _pBackBuffer$[ebp], 0
$LN3@DXUTUpdate:

; 4422 :     }
; 4423 : }

	push	edx
	mov	ecx, ebp
	push	eax
	lea	edx, DWORD PTR $LN7@DXUTUpdate
	call	@_RTC_CheckStackVars@8
	pop	eax
	pop	edx
	pop	edi
	pop	esi
	pop	ebx
	add	esp, 232				; 000000e8H
	cmp	ebp, esp
	call	__RTC_CheckEsp
	mov	esp, ebp
	pop	ebp
	ret	0
	npad	1
$LN7@DXUTUpdate:
	DD	1
	DD	$LN6@DXUTUpdate
$LN6@DXUTUpdate:
	DD	-20					; ffffffecH
	DD	4
	DD	$LN5@DXUTUpdate
$LN5@DXUTUpdate:
	DB	112					; 00000070H
	DB	66					; 00000042H
	DB	97					; 00000061H
	DB	99					; 00000063H
	DB	107					; 0000006bH
	DB	66					; 00000042H
	DB	117					; 00000075H
	DB	102					; 00000066H
	DB	102					; 00000066H
	DB	101					; 00000065H
	DB	114					; 00000072H
	DB	0
?DXUTUpdateBackBufferDesc@@YAXXZ ENDP			; DXUTUpdateBackBufferDesc
_TEXT	ENDS
; Function compile flags: /Odtp /RTCsu /ZI
; File z:\sampsrc\02xu1\saco\d3d9\common\dxut.cpp
;	COMDAT ?DXUTAllowShortcutKeys@@YAX_N@Z
_TEXT	SEGMENT
_bAllowKeys$ = 8					; size = 1
?DXUTAllowShortcutKeys@@YAX_N@Z PROC			; DXUTAllowShortcutKeys, COMDAT

; 3124 : {

	push	ebp
	mov	ebp, esp
	sub	esp, 192				; 000000c0H
	push	ebx
	push	esi
	push	edi
	lea	edi, DWORD PTR [ebp-192]
	mov	ecx, 48					; 00000030H
	mov	eax, -858993460				; ccccccccH
	rep stosd

; 3125 :     GetDXUTState().SetAllowShortcutKeys( bAllowKeys );

	movzx	eax, BYTE PTR _bAllowKeys$[ebp]
	push	eax
	call	?GetDXUTState@@YAAAVDXUTState@@XZ	; GetDXUTState
	mov	ecx, eax
	call	?SetAllowShortcutKeys@DXUTState@@QAEX_N@Z ; DXUTState::SetAllowShortcutKeys

; 3126 : }

	pop	edi
	pop	esi
	pop	ebx
	add	esp, 192				; 000000c0H
	cmp	ebp, esp
	call	__RTC_CheckEsp
	mov	esp, ebp
	pop	ebp
	ret	0
?DXUTAllowShortcutKeys@@YAX_N@Z ENDP			; DXUTAllowShortcutKeys
_TEXT	ENDS
; Function compile flags: /Odtp /RTCsu /ZI
; File z:\sampsrc\02xu1\saco\d3d9\common\dxut.cpp
;	COMDAT ?DXUTGetAdapterOrdinalFromMonitor@@YAJPAUHMONITOR__@@PAI@Z
_TEXT	SEGMENT
_hAdapterMonitor$1 = -68				; size = 4
_pAdapterInfo$2 = -56					; size = 4
_iAdapter$3 = -44					; size = 4
_pAdapterList$ = -32					; size = 4
_pD3D$ = -20						; size = 4
_pd3dEnum$ = -8						; size = 4
_hMonitor$ = 8						; size = 4
_pAdapterOrdinal$ = 12					; size = 4
?DXUTGetAdapterOrdinalFromMonitor@@YAJPAUHMONITOR__@@PAI@Z PROC ; DXUTGetAdapterOrdinalFromMonitor, COMDAT

; 4765 : {

	push	ebp
	mov	ebp, esp
	sub	esp, 264				; 00000108H
	push	ebx
	push	esi
	push	edi
	lea	edi, DWORD PTR [ebp-264]
	mov	ecx, 66					; 00000042H
	mov	eax, -858993460				; ccccccccH
	rep stosd

; 4766 :     *pAdapterOrdinal = 0;

	mov	eax, DWORD PTR _pAdapterOrdinal$[ebp]
	mov	DWORD PTR [eax], 0

; 4767 : 
; 4768 :     CD3DEnumeration* pd3dEnum = DXUTPrepareEnumerationObject();

	push	0
	call	?DXUTPrepareEnumerationObject@@YAPAVCD3DEnumeration@@_N@Z ; DXUTPrepareEnumerationObject
	add	esp, 4
	mov	DWORD PTR _pd3dEnum$[ebp], eax

; 4769 :     IDirect3D9*      pD3D     = DXUTGetD3DObject();

	call	?DXUTGetD3DObject@@YAPAUIDirect3D9@@XZ	; DXUTGetD3DObject
	mov	DWORD PTR _pD3D$[ebp], eax

; 4770 : 
; 4771 :     CGrowableArray<CD3DEnumAdapterInfo*>* pAdapterList = pd3dEnum->GetAdapterInfoList();

	mov	ecx, DWORD PTR _pd3dEnum$[ebp]
	call	?GetAdapterInfoList@CD3DEnumeration@@QAEPAV?$CGrowableArray@PAVCD3DEnumAdapterInfo@@@@XZ ; CD3DEnumeration::GetAdapterInfoList
	mov	DWORD PTR _pAdapterList$[ebp], eax

; 4772 :     for( int iAdapter=0; iAdapter<pAdapterList->GetSize(); iAdapter++ )

	mov	DWORD PTR _iAdapter$3[ebp], 0
	jmp	SHORT $LN4@DXUTGetAda
$LN3@DXUTGetAda:
	mov	eax, DWORD PTR _iAdapter$3[ebp]
	add	eax, 1
	mov	DWORD PTR _iAdapter$3[ebp], eax
$LN4@DXUTGetAda:
	mov	ecx, DWORD PTR _pAdapterList$[ebp]
	call	?GetSize@?$CGrowableArray@PAVCD3DEnumAdapterInfo@@@@QBEHXZ ; CGrowableArray<CD3DEnumAdapterInfo *>::GetSize
	cmp	DWORD PTR _iAdapter$3[ebp], eax
	jge	SHORT $LN2@DXUTGetAda

; 4773 :     {
; 4774 :         CD3DEnumAdapterInfo* pAdapterInfo = pAdapterList->GetAt(iAdapter);

	mov	eax, DWORD PTR _iAdapter$3[ebp]
	push	eax
	mov	ecx, DWORD PTR _pAdapterList$[ebp]
	call	?GetAt@?$CGrowableArray@PAVCD3DEnumAdapterInfo@@@@QAEAAPAVCD3DEnumAdapterInfo@@H@Z ; CGrowableArray<CD3DEnumAdapterInfo *>::GetAt
	mov	ecx, DWORD PTR [eax]
	mov	DWORD PTR _pAdapterInfo$2[ebp], ecx

; 4775 :         HMONITOR hAdapterMonitor = pD3D->GetAdapterMonitor( pAdapterInfo->AdapterOrdinal );

	mov	esi, esp
	mov	eax, DWORD PTR _pAdapterInfo$2[ebp]
	mov	ecx, DWORD PTR [eax]
	push	ecx
	mov	edx, DWORD PTR _pD3D$[ebp]
	mov	eax, DWORD PTR [edx]
	mov	ecx, DWORD PTR _pD3D$[ebp]
	push	ecx
	mov	edx, DWORD PTR [eax+60]
	call	edx
	cmp	esi, esp
	call	__RTC_CheckEsp
	mov	DWORD PTR _hAdapterMonitor$1[ebp], eax

; 4776 :         if( hAdapterMonitor == hMonitor )

	mov	eax, DWORD PTR _hAdapterMonitor$1[ebp]
	cmp	eax, DWORD PTR _hMonitor$[ebp]
	jne	SHORT $LN1@DXUTGetAda

; 4777 :         {
; 4778 :             *pAdapterOrdinal = pAdapterInfo->AdapterOrdinal;

	mov	eax, DWORD PTR _pAdapterOrdinal$[ebp]
	mov	ecx, DWORD PTR _pAdapterInfo$2[ebp]
	mov	edx, DWORD PTR [ecx]
	mov	DWORD PTR [eax], edx

; 4779 :             return S_OK;

	xor	eax, eax
	jmp	SHORT $LN5@DXUTGetAda
$LN1@DXUTGetAda:

; 4780 :         }
; 4781 :     }

	jmp	SHORT $LN3@DXUTGetAda
$LN2@DXUTGetAda:

; 4782 : 
; 4783 :     return E_FAIL;

	mov	eax, -2147467259			; 80004005H
$LN5@DXUTGetAda:

; 4784 : }

	pop	edi
	pop	esi
	pop	ebx
	add	esp, 264				; 00000108H
	cmp	ebp, esp
	call	__RTC_CheckEsp
	mov	esp, ebp
	pop	ebp
	ret	0
?DXUTGetAdapterOrdinalFromMonitor@@YAJPAUHMONITOR__@@PAI@Z ENDP ; DXUTGetAdapterOrdinalFromMonitor
_TEXT	ENDS
; Function compile flags: /Odtp /RTCsu /ZI
; File z:\sampsrc\02xu1\saco\d3d9\common\dxut.cpp
;	COMDAT ?DXUTCheckForWindowChangingMonitors@@YAXXZ
_TEXT	SEGMENT
$T1 = -548						; size = 72
$T2 = -468						; size = 72
_matchOptions$3 = -196					; size = 60
_deviceSettings$4 = -128				; size = 72
_newOrdinal$5 = -48					; size = 4
_hAdapterMonitor$ = -36					; size = 4
_hWindowMonitor$ = -24					; size = 4
_hr$ = -12						; size = 4
__$ArrayPad$ = -4					; size = 4
?DXUTCheckForWindowChangingMonitors@@YAXXZ PROC		; DXUTCheckForWindowChangingMonitors, COMDAT

; 4697 : {

	push	ebp
	mov	ebp, esp
	sub	esp, 552				; 00000228H
	push	ebx
	push	esi
	push	edi
	lea	edi, DWORD PTR [ebp-552]
	mov	ecx, 138				; 0000008aH
	mov	eax, -858993460				; ccccccccH
	rep stosd
	mov	eax, DWORD PTR ___security_cookie
	xor	eax, ebp
	mov	DWORD PTR __$ArrayPad$[ebp], eax

; 4698 :     // Skip this check for various reasons
; 4699 :     if( !GetDXUTState().GetAutoChangeAdapter() || 
; 4700 :          GetDXUTState().GetIgnoreSizeChange() ||
; 4701 :         !GetDXUTState().GetDeviceCreated() ||
; 4702 :         !GetDXUTState().GetCurrentDeviceSettings()->pp.Windowed )

	call	?GetDXUTState@@YAAAVDXUTState@@XZ	; GetDXUTState
	mov	ecx, eax
	call	?GetAutoChangeAdapter@DXUTState@@QAE_NXZ ; DXUTState::GetAutoChangeAdapter
	movzx	eax, al
	test	eax, eax
	je	SHORT $LN7@DXUTCheckF
	call	?GetDXUTState@@YAAAVDXUTState@@XZ	; GetDXUTState
	mov	ecx, eax
	call	?GetIgnoreSizeChange@DXUTState@@QAE_NXZ	; DXUTState::GetIgnoreSizeChange
	movzx	eax, al
	test	eax, eax
	jne	SHORT $LN7@DXUTCheckF
	call	?GetDXUTState@@YAAAVDXUTState@@XZ	; GetDXUTState
	mov	ecx, eax
	call	?GetDeviceCreated@DXUTState@@QAE_NXZ	; DXUTState::GetDeviceCreated
	movzx	eax, al
	test	eax, eax
	je	SHORT $LN7@DXUTCheckF
	call	?GetDXUTState@@YAAAVDXUTState@@XZ	; GetDXUTState
	mov	ecx, eax
	call	?GetCurrentDeviceSettings@DXUTState@@QAEPAUDXUTDeviceSettings@@XZ ; DXUTState::GetCurrentDeviceSettings
	cmp	DWORD PTR [eax+48], 0
	jne	SHORT $LN8@DXUTCheckF
$LN7@DXUTCheckF:

; 4703 :     {
; 4704 :         return;

	jmp	$LN9@DXUTCheckF
$LN8@DXUTCheckF:

; 4705 :     }
; 4706 : 
; 4707 :     HRESULT hr;
; 4708 :     HMONITOR hWindowMonitor = MonitorFromWindow( DXUTGetHWND(), MONITOR_DEFAULTTOPRIMARY );

	push	1
	call	?DXUTGetHWND@@YAPAUHWND__@@XZ		; DXUTGetHWND
	push	eax
	call	_xMonitorFromWindow@8
	mov	DWORD PTR _hWindowMonitor$[ebp], eax

; 4709 :     HMONITOR hAdapterMonitor = GetDXUTState().GetAdapterMonitor();

	call	?GetDXUTState@@YAAAVDXUTState@@XZ	; GetDXUTState
	mov	ecx, eax
	call	?GetAdapterMonitor@DXUTState@@QAEPAUHMONITOR__@@XZ ; DXUTState::GetAdapterMonitor
	mov	DWORD PTR _hAdapterMonitor$[ebp], eax

; 4710 :     if( hWindowMonitor != hAdapterMonitor )

	mov	eax, DWORD PTR _hWindowMonitor$[ebp]
	cmp	eax, DWORD PTR _hAdapterMonitor$[ebp]
	je	$LN9@DXUTCheckF

; 4711 :     {
; 4712 :         UINT newOrdinal;
; 4713 :         if( SUCCEEDED( DXUTGetAdapterOrdinalFromMonitor( hWindowMonitor, &newOrdinal ) ) )

	lea	eax, DWORD PTR _newOrdinal$5[ebp]
	push	eax
	mov	ecx, DWORD PTR _hWindowMonitor$[ebp]
	push	ecx
	call	?DXUTGetAdapterOrdinalFromMonitor@@YAJPAUHMONITOR__@@PAI@Z ; DXUTGetAdapterOrdinalFromMonitor
	add	esp, 8
	test	eax, eax
	jl	$LN9@DXUTCheckF

; 4714 :         {
; 4715 :             // Find the closest valid device settings with the new ordinal
; 4716 :             DXUTDeviceSettings deviceSettings = DXUTGetDeviceSettings();

	lea	eax, DWORD PTR $T2[ebp]
	push	eax
	call	?DXUTGetDeviceSettings@@YA?AUDXUTDeviceSettings@@XZ ; DXUTGetDeviceSettings
	add	esp, 4
	mov	ecx, 18					; 00000012H
	mov	esi, eax
	lea	edi, DWORD PTR $T1[ebp]
	rep movsd
	mov	ecx, 18					; 00000012H
	lea	esi, DWORD PTR $T1[ebp]
	lea	edi, DWORD PTR _deviceSettings$4[ebp]
	rep movsd

; 4717 :             deviceSettings.AdapterOrdinal = newOrdinal;

	mov	eax, DWORD PTR _newOrdinal$5[ebp]
	mov	DWORD PTR _deviceSettings$4[ebp], eax

; 4718 :             
; 4719 :             DXUTMatchOptions matchOptions;
; 4720 :             matchOptions.eAdapterOrdinal     = DXUTMT_PRESERVE_INPUT;

	mov	DWORD PTR _matchOptions$3[ebp], 1

; 4721 :             matchOptions.eDeviceType         = DXUTMT_CLOSEST_TO_INPUT;

	mov	DWORD PTR _matchOptions$3[ebp+4], 2

; 4722 :             matchOptions.eWindowed           = DXUTMT_CLOSEST_TO_INPUT;

	mov	DWORD PTR _matchOptions$3[ebp+8], 2

; 4723 :             matchOptions.eAdapterFormat      = DXUTMT_CLOSEST_TO_INPUT;

	mov	DWORD PTR _matchOptions$3[ebp+12], 2

; 4724 :             matchOptions.eVertexProcessing   = DXUTMT_CLOSEST_TO_INPUT;

	mov	DWORD PTR _matchOptions$3[ebp+16], 2

; 4725 :             matchOptions.eResolution         = DXUTMT_CLOSEST_TO_INPUT;

	mov	DWORD PTR _matchOptions$3[ebp+20], 2

; 4726 :             matchOptions.eBackBufferFormat   = DXUTMT_CLOSEST_TO_INPUT;

	mov	DWORD PTR _matchOptions$3[ebp+24], 2

; 4727 :             matchOptions.eBackBufferCount    = DXUTMT_CLOSEST_TO_INPUT;

	mov	DWORD PTR _matchOptions$3[ebp+28], 2

; 4728 :             matchOptions.eMultiSample        = DXUTMT_CLOSEST_TO_INPUT;

	mov	DWORD PTR _matchOptions$3[ebp+32], 2

; 4729 :             matchOptions.eSwapEffect         = DXUTMT_CLOSEST_TO_INPUT;

	mov	DWORD PTR _matchOptions$3[ebp+36], 2

; 4730 :             matchOptions.eDepthFormat        = DXUTMT_CLOSEST_TO_INPUT;

	mov	DWORD PTR _matchOptions$3[ebp+40], 2

; 4731 :             matchOptions.eStencilFormat      = DXUTMT_CLOSEST_TO_INPUT;

	mov	DWORD PTR _matchOptions$3[ebp+44], 2

; 4732 :             matchOptions.ePresentFlags       = DXUTMT_CLOSEST_TO_INPUT;

	mov	DWORD PTR _matchOptions$3[ebp+48], 2

; 4733 :             matchOptions.eRefreshRate        = DXUTMT_CLOSEST_TO_INPUT;

	mov	DWORD PTR _matchOptions$3[ebp+52], 2

; 4734 :             matchOptions.ePresentInterval    = DXUTMT_CLOSEST_TO_INPUT;

	mov	DWORD PTR _matchOptions$3[ebp+56], 2

; 4735 : 
; 4736 :             hr = DXUTFindValidDeviceSettings( &deviceSettings, &deviceSettings, &matchOptions );

	lea	eax, DWORD PTR _matchOptions$3[ebp]
	push	eax
	lea	ecx, DWORD PTR _deviceSettings$4[ebp]
	push	ecx
	lea	edx, DWORD PTR _deviceSettings$4[ebp]
	push	edx
	call	?DXUTFindValidDeviceSettings@@YAJPAUDXUTDeviceSettings@@0PAUDXUTMatchOptions@@@Z ; DXUTFindValidDeviceSettings
	add	esp, 12					; 0000000cH
	mov	DWORD PTR _hr$[ebp], eax

; 4737 :             if( SUCCEEDED(hr) ) 

	cmp	DWORD PTR _hr$[ebp], 0
	jl	SHORT $LN9@DXUTCheckF

; 4738 :             {
; 4739 :                 // Create a Direct3D device using the new device settings.  
; 4740 :                 // If there is an existing device, then it will either reset or recreate the scene.
; 4741 :                 hr = DXUTChangeDevice( &deviceSettings, NULL, false, false );

	push	0
	push	0
	push	0
	lea	eax, DWORD PTR _deviceSettings$4[ebp]
	push	eax
	call	?DXUTChangeDevice@@YAJPAUDXUTDeviceSettings@@PAUIDirect3DDevice9@@_N2@Z ; DXUTChangeDevice
	add	esp, 16					; 00000010H
	mov	DWORD PTR _hr$[ebp], eax

; 4742 : 
; 4743 :                 // If hr == E_ABORT, this means the app rejected the device settings in the ModifySettingsCallback
; 4744 :                 if( hr == E_ABORT )

	cmp	DWORD PTR _hr$[ebp], -2147467260	; 80004004H
	jne	SHORT $LN3@DXUTCheckF

; 4745 :                 {
; 4746 :                     // so nothing changed and keep from attempting to switch adapters next time
; 4747 :                     GetDXUTState().SetAutoChangeAdapter( false );

	push	0
	call	?GetDXUTState@@YAAAVDXUTState@@XZ	; GetDXUTState
	mov	ecx, eax
	call	?SetAutoChangeAdapter@DXUTState@@QAEX_N@Z ; DXUTState::SetAutoChangeAdapter
	jmp	SHORT $LN9@DXUTCheckF
$LN3@DXUTCheckF:

; 4748 :                 }
; 4749 :                 else if( FAILED(hr) )

	cmp	DWORD PTR _hr$[ebp], 0
	jge	SHORT $LN9@DXUTCheckF

; 4750 :                 {
; 4751 :                     DXUTShutdown();

	push	0
	call	?DXUTShutdown@@YAXH@Z			; DXUTShutdown
	add	esp, 4

; 4752 :                     DXUTPause( false, false );

	push	0
	push	0
	call	?DXUTPause@@YAX_N0@Z			; DXUTPause
	add	esp, 8
$LN9@DXUTCheckF:

; 4753 :                     return;
; 4754 :                 }
; 4755 :             }
; 4756 :         }
; 4757 :     }    
; 4758 : }

	push	edx
	mov	ecx, ebp
	push	eax
	lea	edx, DWORD PTR $LN15@DXUTCheckF
	call	@_RTC_CheckStackVars@8
	pop	eax
	pop	edx
	pop	edi
	pop	esi
	pop	ebx
	mov	ecx, DWORD PTR __$ArrayPad$[ebp]
	xor	ecx, ebp
	call	@__security_check_cookie@4
	add	esp, 552				; 00000228H
	cmp	ebp, esp
	call	__RTC_CheckEsp
	mov	esp, ebp
	pop	ebp
	ret	0
	npad	2
$LN15@DXUTCheckF:
	DD	3
	DD	$LN14@DXUTCheckF
$LN14@DXUTCheckF:
	DD	-48					; ffffffd0H
	DD	4
	DD	$LN11@DXUTCheckF
	DD	-128					; ffffff80H
	DD	72					; 00000048H
	DD	$LN12@DXUTCheckF
	DD	-196					; ffffff3cH
	DD	60					; 0000003cH
	DD	$LN13@DXUTCheckF
$LN13@DXUTCheckF:
	DB	109					; 0000006dH
	DB	97					; 00000061H
	DB	116					; 00000074H
	DB	99					; 00000063H
	DB	104					; 00000068H
	DB	79					; 0000004fH
	DB	112					; 00000070H
	DB	116					; 00000074H
	DB	105					; 00000069H
	DB	111					; 0000006fH
	DB	110					; 0000006eH
	DB	115					; 00000073H
	DB	0
$LN12@DXUTCheckF:
	DB	100					; 00000064H
	DB	101					; 00000065H
	DB	118					; 00000076H
	DB	105					; 00000069H
	DB	99					; 00000063H
	DB	101					; 00000065H
	DB	83					; 00000053H
	DB	101					; 00000065H
	DB	116					; 00000074H
	DB	116					; 00000074H
	DB	105					; 00000069H
	DB	110					; 0000006eH
	DB	103					; 00000067H
	DB	115					; 00000073H
	DB	0
$LN11@DXUTCheckF:
	DB	110					; 0000006eH
	DB	101					; 00000065H
	DB	119					; 00000077H
	DB	79					; 0000004fH
	DB	114					; 00000072H
	DB	100					; 00000064H
	DB	105					; 00000069H
	DB	110					; 0000006eH
	DB	97					; 00000061H
	DB	108					; 0000006cH
	DB	0
?DXUTCheckForWindowChangingMonitors@@YAXXZ ENDP		; DXUTCheckForWindowChangingMonitors
_TEXT	ENDS
; Function compile flags: /Odtp /RTCsu /ZI
; File z:\sampsrc\02xu1\saco\d3d9\common\dxut.cpp
;	COMDAT ?DXUTCheckForWindowSizeChange@@YAXXZ
_TEXT	SEGMENT
$T1 = -456						; size = 72
$T2 = -376						; size = 72
_deviceSettings$3 = -104				; size = 72
_rcCurrentClient$ = -24					; size = 16
__$ArrayPad$ = -4					; size = 4
?DXUTCheckForWindowSizeChange@@YAXXZ PROC		; DXUTCheckForWindowSizeChange, COMDAT

; 3383 : {

	push	ebp
	mov	ebp, esp
	sub	esp, 460				; 000001ccH
	push	ebx
	push	esi
	push	edi
	lea	edi, DWORD PTR [ebp-460]
	mov	ecx, 115				; 00000073H
	mov	eax, -858993460				; ccccccccH
	rep stosd
	mov	eax, DWORD PTR ___security_cookie
	xor	eax, ebp
	mov	DWORD PTR __$ArrayPad$[ebp], eax

; 3384 :     // Skip the check for various reasons
; 3385 :     if( GetDXUTState().GetIgnoreSizeChange() || 
; 3386 :         !GetDXUTState().GetDeviceCreated() || 
; 3387 :         !GetDXUTState().GetCurrentDeviceSettings()->pp.Windowed )

	call	?GetDXUTState@@YAAAVDXUTState@@XZ	; GetDXUTState
	mov	ecx, eax
	call	?GetIgnoreSizeChange@DXUTState@@QAE_NXZ	; DXUTState::GetIgnoreSizeChange
	movzx	eax, al
	test	eax, eax
	jne	SHORT $LN3@DXUTCheckF
	call	?GetDXUTState@@YAAAVDXUTState@@XZ	; GetDXUTState
	mov	ecx, eax
	call	?GetDeviceCreated@DXUTState@@QAE_NXZ	; DXUTState::GetDeviceCreated
	movzx	eax, al
	test	eax, eax
	je	SHORT $LN3@DXUTCheckF
	call	?GetDXUTState@@YAAAVDXUTState@@XZ	; GetDXUTState
	mov	ecx, eax
	call	?GetCurrentDeviceSettings@DXUTState@@QAEPAUDXUTDeviceSettings@@XZ ; DXUTState::GetCurrentDeviceSettings
	cmp	DWORD PTR [eax+48], 0
	jne	SHORT $LN4@DXUTCheckF
$LN3@DXUTCheckF:

; 3388 :         return;

	jmp	$LN5@DXUTCheckF
$LN4@DXUTCheckF:

; 3389 : 
; 3390 :     RECT rcCurrentClient;
; 3391 :     GetClientRect( DXUTGetHWND(), &rcCurrentClient );

	mov	esi, esp
	lea	eax, DWORD PTR _rcCurrentClient$[ebp]
	push	eax
	call	?DXUTGetHWND@@YAPAUHWND__@@XZ		; DXUTGetHWND
	push	eax
	call	DWORD PTR __imp__GetClientRect@8
	cmp	esi, esp
	call	__RTC_CheckEsp

; 3392 :     
; 3393 :     if( (UINT)rcCurrentClient.right != GetDXUTState().GetCurrentDeviceSettings()->pp.BackBufferWidth ||
; 3394 :         (UINT)rcCurrentClient.bottom != GetDXUTState().GetCurrentDeviceSettings()->pp.BackBufferHeight )

	call	?GetDXUTState@@YAAAVDXUTState@@XZ	; GetDXUTState
	mov	ecx, eax
	call	?GetCurrentDeviceSettings@DXUTState@@QAEPAUDXUTDeviceSettings@@XZ ; DXUTState::GetCurrentDeviceSettings
	mov	ecx, DWORD PTR _rcCurrentClient$[ebp+8]
	cmp	ecx, DWORD PTR [eax+16]
	jne	SHORT $LN1@DXUTCheckF
	call	?GetDXUTState@@YAAAVDXUTState@@XZ	; GetDXUTState
	mov	ecx, eax
	call	?GetCurrentDeviceSettings@DXUTState@@QAEPAUDXUTDeviceSettings@@XZ ; DXUTState::GetCurrentDeviceSettings
	mov	ecx, DWORD PTR _rcCurrentClient$[ebp+12]
	cmp	ecx, DWORD PTR [eax+20]
	je	SHORT $LN5@DXUTCheckF
$LN1@DXUTCheckF:

; 3395 :     {
; 3396 :         // A new window size will require a new backbuffer size
; 3397 :         // size, so the device must be reset and the D3D structures updated accordingly.
; 3398 : 
; 3399 :         // Tell DXUTChangeDevice and D3D to size according to the HWND's client rect
; 3400 :         DXUTDeviceSettings deviceSettings = DXUTGetDeviceSettings();

	lea	eax, DWORD PTR $T2[ebp]
	push	eax
	call	?DXUTGetDeviceSettings@@YA?AUDXUTDeviceSettings@@XZ ; DXUTGetDeviceSettings
	add	esp, 4
	mov	ecx, 18					; 00000012H
	mov	esi, eax
	lea	edi, DWORD PTR $T1[ebp]
	rep movsd
	mov	ecx, 18					; 00000012H
	lea	esi, DWORD PTR $T1[ebp]
	lea	edi, DWORD PTR _deviceSettings$3[ebp]
	rep movsd

; 3401 :         deviceSettings.pp.BackBufferWidth  = 0; 

	mov	DWORD PTR _deviceSettings$3[ebp+16], 0

; 3402 :         deviceSettings.pp.BackBufferHeight = 0;

	mov	DWORD PTR _deviceSettings$3[ebp+20], 0

; 3403 :         DXUTChangeDevice( &deviceSettings, NULL, false, false );

	push	0
	push	0
	push	0
	lea	eax, DWORD PTR _deviceSettings$3[ebp]
	push	eax
	call	?DXUTChangeDevice@@YAJPAUDXUTDeviceSettings@@PAUIDirect3DDevice9@@_N2@Z ; DXUTChangeDevice
	add	esp, 16					; 00000010H
$LN5@DXUTCheckF:

; 3404 :     }
; 3405 : }

	push	edx
	mov	ecx, ebp
	push	eax
	lea	edx, DWORD PTR $LN10@DXUTCheckF
	call	@_RTC_CheckStackVars@8
	pop	eax
	pop	edx
	pop	edi
	pop	esi
	pop	ebx
	mov	ecx, DWORD PTR __$ArrayPad$[ebp]
	xor	ecx, ebp
	call	@__security_check_cookie@4
	add	esp, 460				; 000001ccH
	cmp	ebp, esp
	call	__RTC_CheckEsp
	mov	esp, ebp
	pop	ebp
	ret	0
	npad	1
$LN10@DXUTCheckF:
	DD	2
	DD	$LN9@DXUTCheckF
$LN9@DXUTCheckF:
	DD	-24					; ffffffe8H
	DD	16					; 00000010H
	DD	$LN7@DXUTCheckF
	DD	-104					; ffffff98H
	DD	72					; 00000048H
	DD	$LN8@DXUTCheckF
$LN8@DXUTCheckF:
	DB	100					; 00000064H
	DB	101					; 00000065H
	DB	118					; 00000076H
	DB	105					; 00000069H
	DB	99					; 00000063H
	DB	101					; 00000065H
	DB	83					; 00000053H
	DB	101					; 00000065H
	DB	116					; 00000074H
	DB	116					; 00000074H
	DB	105					; 00000069H
	DB	110					; 0000006eH
	DB	103					; 00000067H
	DB	115					; 00000073H
	DB	0
$LN7@DXUTCheckF:
	DB	114					; 00000072H
	DB	99					; 00000063H
	DB	67					; 00000043H
	DB	117					; 00000075H
	DB	114					; 00000072H
	DB	114					; 00000072H
	DB	101					; 00000065H
	DB	110					; 0000006eH
	DB	116					; 00000074H
	DB	67					; 00000043H
	DB	108					; 0000006cH
	DB	105					; 00000069H
	DB	101					; 00000065H
	DB	110					; 0000006eH
	DB	116					; 00000074H
	DB	0
?DXUTCheckForWindowSizeChange@@YAXXZ ENDP		; DXUTCheckForWindowSizeChange
_TEXT	ENDS
; Function compile flags: /Odtp /RTCsu /ZI
; File z:\sampsrc\02xu1\saco\d3d9\common\dxut.cpp
;	COMDAT ?DXUTDisplayErrorMessage@@YAXJ@Z
_TEXT	SEGMENT
tv64 = -756						; size = 4
_bShowMsgBoxOnError$ = -553				; size = 1
_bFound$ = -541						; size = 1
_nExitCode$ = -532					; size = 4
_strBuffer$ = -520					; size = 512
__$ArrayPad$ = -4					; size = 4
_hr$ = 8						; size = 4
?DXUTDisplayErrorMessage@@YAXJ@Z PROC			; DXUTDisplayErrorMessage, COMDAT

; 4640 : {

	push	ebp
	mov	ebp, esp
	sub	esp, 756				; 000002f4H
	push	ebx
	push	esi
	push	edi
	lea	edi, DWORD PTR [ebp-756]
	mov	ecx, 189				; 000000bdH
	mov	eax, -858993460				; ccccccccH
	rep stosd
	mov	eax, DWORD PTR ___security_cookie
	xor	eax, ebp
	mov	DWORD PTR __$ArrayPad$[ebp], eax

; 4641 :     TCHAR strBuffer[512];
; 4642 : 
; 4643 :     int nExitCode;
; 4644 :     bool bFound = true; 

	mov	BYTE PTR _bFound$[ebp], 1

; 4645 :     switch( hr )

	mov	eax, DWORD PTR _hr$[ebp]
	mov	DWORD PTR tv64[ebp], eax
	mov	ecx, DWORD PTR tv64[ebp]
	add	ecx, 2147219199				; 7ffbf6ffH
	mov	DWORD PTR tv64[ebp], ecx
	cmp	DWORD PTR tv64[ebp], 8
	ja	$LN4@DXUTDispla
	mov	edx, DWORD PTR tv64[ebp]
	jmp	DWORD PTR $LN23@DXUTDispla[edx*4]
$LN15@DXUTDispla:

; 4646 :     {
; 4647 :         case DXUTERR_NODIRECT3D:             nExitCode = 2; StringCchCopy( strBuffer, 512, "Could not initialize Direct3D. You may want to check that the latest version of DirectX is correctly installed on your system.  Also make sure that this program was compiled with header files that match the installed DirectX DLLs." ); break;

	mov	DWORD PTR _nExitCode$[ebp], 2
	push	OFFSET ??_C@_0OH@FLJPMJOG@Could?5not?5initialize?5Direct3D?4?5Y@
	push	512					; 00000200H
	lea	eax, DWORD PTR _strBuffer$[ebp]
	push	eax
	call	?StringCchCopyA@@YGJPADIPBD@Z		; StringCchCopyA
	jmp	$LN16@DXUTDispla
$LN14@DXUTDispla:

; 4648 :         case DXUTERR_INCORRECTVERSION:       nExitCode = 10; StringCchCopy( strBuffer, 512, "Incorrect version of Direct3D and/or D3DX." ); break;

	mov	DWORD PTR _nExitCode$[ebp], 10		; 0000000aH
	push	OFFSET ??_C@_0CL@IGPDECHP@Incorrect?5version?5of?5Direct3D?5an@
	push	512					; 00000200H
	lea	eax, DWORD PTR _strBuffer$[ebp]
	push	eax
	call	?StringCchCopyA@@YGJPADIPBD@Z		; StringCchCopyA
	jmp	$LN16@DXUTDispla
$LN13@DXUTDispla:

; 4649 :         case DXUTERR_MEDIANOTFOUND:          nExitCode = 4; StringCchCopy( strBuffer, 512, "Could not find required media. Ensure that the DirectX SDK is correctly installed." ); break;

	mov	DWORD PTR _nExitCode$[ebp], 4
	push	OFFSET ??_C@_0FD@EJIIMMAA@Could?5not?5find?5required?5media?4?5E@
	push	512					; 00000200H
	lea	eax, DWORD PTR _strBuffer$[ebp]
	push	eax
	call	?StringCchCopyA@@YGJPADIPBD@Z		; StringCchCopyA
	jmp	$LN16@DXUTDispla
$LN12@DXUTDispla:

; 4650 :         case DXUTERR_NONZEROREFCOUNT:        nExitCode = 5; StringCchCopy( strBuffer, 512, "The D3D device has a non-zero reference count, meaning some objects were not released." ); break;

	mov	DWORD PTR _nExitCode$[ebp], 5
	push	OFFSET ??_C@_0FH@GHOOFLN@The?5D3D?5device?5has?5a?5non?9zero?5re@
	push	512					; 00000200H
	lea	eax, DWORD PTR _strBuffer$[ebp]
	push	eax
	call	?StringCchCopyA@@YGJPADIPBD@Z		; StringCchCopyA
	jmp	$LN16@DXUTDispla
$LN11@DXUTDispla:

; 4651 :         case DXUTERR_CREATINGDEVICE:         nExitCode = 6; StringCchCopy( strBuffer, 512, "Failed creating the Direct3D device." ); break;

	mov	DWORD PTR _nExitCode$[ebp], 6
	push	OFFSET ??_C@_0CF@CPEKMMJN@Failed?5creating?5the?5Direct3D?5dev@
	push	512					; 00000200H
	lea	eax, DWORD PTR _strBuffer$[ebp]
	push	eax
	call	?StringCchCopyA@@YGJPADIPBD@Z		; StringCchCopyA
	jmp	$LN16@DXUTDispla
$LN10@DXUTDispla:

; 4652 :         case DXUTERR_RESETTINGDEVICE:        nExitCode = 7; StringCchCopy( strBuffer, 512, "Failed resetting the Direct3D device." ); break;

	mov	DWORD PTR _nExitCode$[ebp], 7
	push	OFFSET ??_C@_0CG@NKKNAJJN@Failed?5resetting?5the?5Direct3D?5de@
	push	512					; 00000200H
	lea	eax, DWORD PTR _strBuffer$[ebp]
	push	eax
	call	?StringCchCopyA@@YGJPADIPBD@Z		; StringCchCopyA
	jmp	$LN16@DXUTDispla
$LN9@DXUTDispla:

; 4653 :         case DXUTERR_CREATINGDEVICEOBJECTS:  nExitCode = 8; StringCchCopy( strBuffer, 512, "Failed creating Direct3D device objects." ); break;

	mov	DWORD PTR _nExitCode$[ebp], 8
	push	OFFSET ??_C@_0CJ@NGDMEEIH@Failed?5creating?5Direct3D?5device?5@
	push	512					; 00000200H
	lea	eax, DWORD PTR _strBuffer$[ebp]
	push	eax
	call	?StringCchCopyA@@YGJPADIPBD@Z		; StringCchCopyA
	jmp	$LN16@DXUTDispla
$LN8@DXUTDispla:

; 4654 :         case DXUTERR_RESETTINGDEVICEOBJECTS: nExitCode = 9; StringCchCopy( strBuffer, 512, "Failed resetting Direct3D device objects." ); break;

	mov	DWORD PTR _nExitCode$[ebp], 9
	push	OFFSET ??_C@_0CK@JNLAHDJE@Failed?5resetting?5Direct3D?5device@
	push	512					; 00000200H
	lea	eax, DWORD PTR _strBuffer$[ebp]
	push	eax
	call	?StringCchCopyA@@YGJPADIPBD@Z		; StringCchCopyA
	jmp	SHORT $LN16@DXUTDispla
$LN7@DXUTDispla:

; 4655 :         case DXUTERR_NOCOMPATIBLEDEVICES:    
; 4656 :             nExitCode = 3; 

	mov	DWORD PTR _nExitCode$[ebp], 3

; 4657 :             if( GetSystemMetrics(SM_REMOTESESSION) != 0 )

	mov	esi, esp
	push	4096					; 00001000H
	call	DWORD PTR __imp__GetSystemMetrics@4
	cmp	esi, esp
	call	__RTC_CheckEsp
	test	eax, eax
	je	SHORT $LN6@DXUTDispla

; 4658 :                 StringCchCopy( strBuffer, 512, "Direct3D does not work over a remote session." ); 

	push	OFFSET ??_C@_0CO@JDBEDMFP@Direct3D?5does?5not?5work?5over?5a?5re@
	push	512					; 00000200H
	lea	eax, DWORD PTR _strBuffer$[ebp]
	push	eax
	call	?StringCchCopyA@@YGJPADIPBD@Z		; StringCchCopyA

; 4659 :             else

	jmp	SHORT $LN5@DXUTDispla
$LN6@DXUTDispla:

; 4660 :                 StringCchCopy( strBuffer, 512, "Could not find any compatible Direct3D devices." ); 

	push	OFFSET ??_C@_0DA@IAMFMDGP@Could?5not?5find?5any?5compatible?5Di@
	push	512					; 00000200H
	lea	eax, DWORD PTR _strBuffer$[ebp]
	push	eax
	call	?StringCchCopyA@@YGJPADIPBD@Z		; StringCchCopyA
$LN5@DXUTDispla:

; 4661 :             break;

	jmp	SHORT $LN16@DXUTDispla
$LN4@DXUTDispla:

; 4662 :         default: bFound = false; nExitCode = 1;break;

	mov	BYTE PTR _bFound$[ebp], 0
	mov	DWORD PTR _nExitCode$[ebp], 1
$LN16@DXUTDispla:

; 4663 :     }   
; 4664 : 
; 4665 :     GetDXUTState().SetExitCode(nExitCode);

	mov	eax, DWORD PTR _nExitCode$[ebp]
	push	eax
	call	?GetDXUTState@@YAAAVDXUTState@@XZ	; GetDXUTState
	mov	ecx, eax
	call	?SetExitCode@DXUTState@@QAEXH@Z		; DXUTState::SetExitCode

; 4666 : 
; 4667 :     bool bShowMsgBoxOnError = GetDXUTState().GetShowMsgBoxOnError();

	call	?GetDXUTState@@YAAAVDXUTState@@XZ	; GetDXUTState
	mov	ecx, eax
	call	?GetShowMsgBoxOnError@DXUTState@@QAE_NXZ ; DXUTState::GetShowMsgBoxOnError
	mov	BYTE PTR _bShowMsgBoxOnError$[ebp], al

; 4668 :     if( bFound && bShowMsgBoxOnError )

	movzx	eax, BYTE PTR _bFound$[ebp]
	test	eax, eax
	je	SHORT $LN18@DXUTDispla
	movzx	eax, BYTE PTR _bShowMsgBoxOnError$[ebp]
	test	eax, eax
	je	SHORT $LN18@DXUTDispla

; 4669 :     {
; 4670 :         if( DXUTGetWindowTitle()[0] == 0 )

	call	?DXUTGetWindowTitle@@YAPBDXZ		; DXUTGetWindowTitle
	mov	ecx, 1
	imul	edx, ecx, 0
	movsx	eax, BYTE PTR [eax+edx]
	test	eax, eax
	jne	SHORT $LN2@DXUTDispla

; 4671 :             MessageBox( DXUTGetHWND(), strBuffer, "DirectX Application", MB_ICONERROR|MB_OK );

	mov	esi, esp
	push	16					; 00000010H
	push	OFFSET ??_C@_0BE@BDKDCPJA@DirectX?5Application?$AA@
	lea	eax, DWORD PTR _strBuffer$[ebp]
	push	eax
	call	?DXUTGetHWND@@YAPAUHWND__@@XZ		; DXUTGetHWND
	push	eax
	call	DWORD PTR __imp__MessageBoxA@16
	cmp	esi, esp
	call	__RTC_CheckEsp

; 4672 :         else

	jmp	SHORT $LN18@DXUTDispla
$LN2@DXUTDispla:

; 4673 :             MessageBox( DXUTGetHWND(), strBuffer, DXUTGetWindowTitle(), MB_ICONERROR|MB_OK );

	mov	esi, esp
	push	16					; 00000010H
	call	?DXUTGetWindowTitle@@YAPBDXZ		; DXUTGetWindowTitle
	push	eax
	lea	eax, DWORD PTR _strBuffer$[ebp]
	push	eax
	call	?DXUTGetHWND@@YAPAUHWND__@@XZ		; DXUTGetHWND
	push	eax
	call	DWORD PTR __imp__MessageBoxA@16
	cmp	esi, esp
	call	__RTC_CheckEsp
$LN18@DXUTDispla:

; 4674 :     }
; 4675 : }

	push	edx
	mov	ecx, ebp
	push	eax
	lea	edx, DWORD PTR $LN22@DXUTDispla
	call	@_RTC_CheckStackVars@8
	pop	eax
	pop	edx
	pop	edi
	pop	esi
	pop	ebx
	mov	ecx, DWORD PTR __$ArrayPad$[ebp]
	xor	ecx, ebp
	call	@__security_check_cookie@4
	add	esp, 756				; 000002f4H
	cmp	ebp, esp
	call	__RTC_CheckEsp
	mov	esp, ebp
	pop	ebp
	ret	0
$LN22@DXUTDispla:
	DD	1
	DD	$LN21@DXUTDispla
$LN21@DXUTDispla:
	DD	-520					; fffffdf8H
	DD	512					; 00000200H
	DD	$LN20@DXUTDispla
$LN20@DXUTDispla:
	DB	115					; 00000073H
	DB	116					; 00000074H
	DB	114					; 00000072H
	DB	66					; 00000042H
	DB	117					; 00000075H
	DB	102					; 00000066H
	DB	102					; 00000066H
	DB	101					; 00000065H
	DB	114					; 00000072H
	DB	0
	npad	2
$LN23@DXUTDispla:
	DD	$LN15@DXUTDispla
	DD	$LN7@DXUTDispla
	DD	$LN13@DXUTDispla
	DD	$LN12@DXUTDispla
	DD	$LN11@DXUTDispla
	DD	$LN10@DXUTDispla
	DD	$LN9@DXUTDispla
	DD	$LN8@DXUTDispla
	DD	$LN14@DXUTDispla
?DXUTDisplayErrorMessage@@YAXJ@Z ENDP			; DXUTDisplayErrorMessage
_TEXT	ENDS
; Function compile flags: /Odtp /RTCsu /ZI
; File z:\sampsrc\02xu1\saco\d3d9\common\dxut.cpp
;	COMDAT ?DXUTGetCmdParam@@YA_NAAPADPADH@Z
_TEXT	SEGMENT
_strSpace$1 = -8					; size = 4
_strCmdLine$ = 8					; size = 4
_strFlag$ = 12						; size = 4
_nFlagLen$ = 16						; size = 4
?DXUTGetCmdParam@@YA_NAAPADPADH@Z PROC			; DXUTGetCmdParam, COMDAT

; 740  : {

	push	ebp
	mov	ebp, esp
	sub	esp, 204				; 000000ccH
	push	ebx
	push	esi
	push	edi
	lea	edi, DWORD PTR [ebp-204]
	mov	ecx, 51					; 00000033H
	mov	eax, -858993460				; ccccccccH
	rep stosd

; 741  :     strCmdLine += nFlagLen;

	mov	eax, DWORD PTR _strCmdLine$[ebp]
	mov	ecx, DWORD PTR [eax]
	add	ecx, DWORD PTR _nFlagLen$[ebp]
	mov	edx, DWORD PTR _strCmdLine$[ebp]
	mov	DWORD PTR [edx], ecx

; 742  :     if( *strCmdLine == L':' )

	mov	eax, DWORD PTR _strCmdLine$[ebp]
	mov	ecx, DWORD PTR [eax]
	movsx	edx, BYTE PTR [ecx]
	cmp	edx, 58					; 0000003aH
	jne	SHORT $LN4@DXUTGetCmd

; 743  :     {       
; 744  :         strCmdLine++; // Skip ':'

	mov	eax, DWORD PTR _strCmdLine$[ebp]
	mov	ecx, DWORD PTR [eax]
	add	ecx, 1
	mov	edx, DWORD PTR _strCmdLine$[ebp]
	mov	DWORD PTR [edx], ecx

; 745  : 
; 746  :         // Place NULL terminator in strFlag after current token
; 747  :         StringCchCopy( strFlag, 256, strCmdLine );

	mov	eax, DWORD PTR _strCmdLine$[ebp]
	mov	ecx, DWORD PTR [eax]
	push	ecx
	push	256					; 00000100H
	mov	edx, DWORD PTR _strFlag$[ebp]
	push	edx
	call	?StringCchCopyA@@YGJPADIPBD@Z		; StringCchCopyA

; 748  :         TCHAR* strSpace = strFlag;

	mov	eax, DWORD PTR _strFlag$[ebp]
	mov	DWORD PTR _strSpace$1[ebp], eax
$LN3@DXUTGetCmd:

; 749  :         while (*strSpace && (*strSpace > L' '))

	mov	eax, DWORD PTR _strSpace$1[ebp]
	movsx	ecx, BYTE PTR [eax]
	test	ecx, ecx
	je	SHORT $LN2@DXUTGetCmd
	mov	eax, DWORD PTR _strSpace$1[ebp]
	movsx	ecx, BYTE PTR [eax]
	cmp	ecx, 32					; 00000020H
	jle	SHORT $LN2@DXUTGetCmd

; 750  :             strSpace++;

	mov	eax, DWORD PTR _strSpace$1[ebp]
	add	eax, 1
	mov	DWORD PTR _strSpace$1[ebp], eax
	jmp	SHORT $LN3@DXUTGetCmd
$LN2@DXUTGetCmd:

; 751  :         *strSpace = 0;

	mov	eax, DWORD PTR _strSpace$1[ebp]
	mov	BYTE PTR [eax], 0

; 752  :     
; 753  :         // Update strCmdLine
; 754  :         strCmdLine += strlen(strFlag);

	mov	eax, DWORD PTR _strFlag$[ebp]
	push	eax
	call	_strlen
	add	esp, 4
	mov	ecx, DWORD PTR _strCmdLine$[ebp]
	add	eax, DWORD PTR [ecx]
	mov	edx, DWORD PTR _strCmdLine$[ebp]
	mov	DWORD PTR [edx], eax

; 755  :         return true;

	mov	al, 1
	jmp	SHORT $LN5@DXUTGetCmd

; 756  :     }
; 757  :     else

	jmp	SHORT $LN5@DXUTGetCmd
$LN4@DXUTGetCmd:

; 758  :     {
; 759  :         strFlag[0] = 0;

	mov	eax, 1
	imul	ecx, eax, 0
	mov	edx, DWORD PTR _strFlag$[ebp]
	mov	BYTE PTR [edx+ecx], 0

; 760  :         return false;

	xor	al, al
$LN5@DXUTGetCmd:

; 761  :     }
; 762  : }

	pop	edi
	pop	esi
	pop	ebx
	add	esp, 204				; 000000ccH
	cmp	ebp, esp
	call	__RTC_CheckEsp
	mov	esp, ebp
	pop	ebp
	ret	0
?DXUTGetCmdParam@@YA_NAAPADPADH@Z ENDP			; DXUTGetCmdParam
_TEXT	ENDS
; Function compile flags: /Odtp /RTCsu /ZI
; File z:\sampsrc\02xu1\saco\d3d9\common\dxut.cpp
;	COMDAT ?DXUTHandleTimers@@YAXXZ
_TEXT	SEGMENT
_DXUTTimer$1 = -60					; size = 17
_i$2 = -32						; size = 4
_pTimerList$ = -20					; size = 4
_fElapsedTime$ = -8					; size = 4
?DXUTHandleTimers@@YAXXZ PROC				; DXUTHandleTimers, COMDAT

; 4489 : {

	push	ebp
	mov	ebp, esp
	sub	esp, 256				; 00000100H
	push	ebx
	push	esi
	push	edi
	lea	edi, DWORD PTR [ebp-256]
	mov	ecx, 64					; 00000040H
	mov	eax, -858993460				; ccccccccH
	rep stosd

; 4490 :     float fElapsedTime = DXUTGetElapsedTime();

	call	?DXUTGetElapsedTime@@YAMXZ		; DXUTGetElapsedTime
	fstp	DWORD PTR _fElapsedTime$[ebp]

; 4491 : 
; 4492 :     CGrowableArray<DXUT_TIMER>* pTimerList = GetDXUTState().GetTimerList();

	call	?GetDXUTState@@YAAAVDXUTState@@XZ	; GetDXUTState
	mov	ecx, eax
	call	?GetTimerList@DXUTState@@QAEPAV?$CGrowableArray@UDXUT_TIMER@@@@XZ ; DXUTState::GetTimerList
	mov	DWORD PTR _pTimerList$[ebp], eax

; 4493 :     if( pTimerList == NULL )

	cmp	DWORD PTR _pTimerList$[ebp], 0
	jne	SHORT $LN6@DXUTHandle

; 4494 :         return;

	jmp	$LN7@DXUTHandle
$LN6@DXUTHandle:

; 4495 : 
; 4496 :     // Walk through the list of timer callbacks
; 4497 :     for( int i=0; i<pTimerList->GetSize(); i++ )

	mov	DWORD PTR _i$2[ebp], 0
	jmp	SHORT $LN5@DXUTHandle
$LN4@DXUTHandle:
	mov	eax, DWORD PTR _i$2[ebp]
	add	eax, 1
	mov	DWORD PTR _i$2[ebp], eax
$LN5@DXUTHandle:
	mov	ecx, DWORD PTR _pTimerList$[ebp]
	call	?GetSize@?$CGrowableArray@UDXUT_TIMER@@@@QBEHXZ ; CGrowableArray<DXUT_TIMER>::GetSize
	cmp	DWORD PTR _i$2[ebp], eax
	jge	$LN3@DXUTHandle

; 4498 :     {
; 4499 :         DXUT_TIMER DXUTTimer = pTimerList->GetAt(i);

	mov	eax, DWORD PTR _i$2[ebp]
	push	eax
	mov	ecx, DWORD PTR _pTimerList$[ebp]
	call	?GetAt@?$CGrowableArray@UDXUT_TIMER@@@@QAEAAUDXUT_TIMER@@H@Z ; CGrowableArray<DXUT_TIMER>::GetAt
	mov	ecx, DWORD PTR [eax]
	mov	DWORD PTR _DXUTTimer$1[ebp], ecx
	mov	edx, DWORD PTR [eax+4]
	mov	DWORD PTR _DXUTTimer$1[ebp+4], edx
	mov	ecx, DWORD PTR [eax+8]
	mov	DWORD PTR _DXUTTimer$1[ebp+8], ecx
	mov	edx, DWORD PTR [eax+12]
	mov	DWORD PTR _DXUTTimer$1[ebp+12], edx
	mov	al, BYTE PTR [eax+16]
	mov	BYTE PTR _DXUTTimer$1[ebp+16], al

; 4500 :         if( DXUTTimer.bEnabled )

	movzx	eax, BYTE PTR _DXUTTimer$1[ebp+16]
	test	eax, eax
	je	SHORT $LN2@DXUTHandle

; 4501 :         {
; 4502 :             DXUTTimer.fCountdown -= fElapsedTime;

	movss	xmm0, DWORD PTR _DXUTTimer$1[ebp+12]
	subss	xmm0, DWORD PTR _fElapsedTime$[ebp]
	movss	DWORD PTR _DXUTTimer$1[ebp+12], xmm0

; 4503 : 
; 4504 :             // Call the callback if count down expired
; 4505 :             if( DXUTTimer.fCountdown < 0 )

	movss	xmm0, DWORD PTR __real@00000000
	comiss	xmm0, DWORD PTR _DXUTTimer$1[ebp+12]
	jbe	SHORT $LN1@DXUTHandle

; 4506 :             {
; 4507 :                 DXUTTimer.pCallbackTimer( i, DXUTTimer.pCallbackUserContext );

	mov	esi, esp
	mov	eax, DWORD PTR _DXUTTimer$1[ebp+4]
	push	eax
	mov	ecx, DWORD PTR _i$2[ebp]
	push	ecx
	call	DWORD PTR _DXUTTimer$1[ebp]
	cmp	esi, esp
	call	__RTC_CheckEsp

; 4508 :                 DXUTTimer.fCountdown = DXUTTimer.fTimeoutInSecs;

	movss	xmm0, DWORD PTR _DXUTTimer$1[ebp+8]
	movss	DWORD PTR _DXUTTimer$1[ebp+12], xmm0
$LN1@DXUTHandle:

; 4509 :             }
; 4510 :             pTimerList->SetAt(i, DXUTTimer);

	lea	eax, DWORD PTR _DXUTTimer$1[ebp]
	push	eax
	mov	ecx, DWORD PTR _i$2[ebp]
	push	ecx
	mov	ecx, DWORD PTR _pTimerList$[ebp]
	call	?SetAt@?$CGrowableArray@UDXUT_TIMER@@@@QAEJHABUDXUT_TIMER@@@Z ; CGrowableArray<DXUT_TIMER>::SetAt
$LN2@DXUTHandle:

; 4511 :         }
; 4512 :     }

	jmp	$LN4@DXUTHandle
$LN3@DXUTHandle:
$LN7@DXUTHandle:

; 4513 : }

	push	edx
	mov	ecx, ebp
	push	eax
	lea	edx, DWORD PTR $LN11@DXUTHandle
	call	@_RTC_CheckStackVars@8
	pop	eax
	pop	edx
	pop	edi
	pop	esi
	pop	ebx
	add	esp, 256				; 00000100H
	cmp	ebp, esp
	call	__RTC_CheckEsp
	mov	esp, ebp
	pop	ebp
	ret	0
	npad	3
$LN11@DXUTHandle:
	DD	1
	DD	$LN10@DXUTHandle
$LN10@DXUTHandle:
	DD	-60					; ffffffc4H
	DD	17					; 00000011H
	DD	$LN9@DXUTHandle
$LN9@DXUTHandle:
	DB	68					; 00000044H
	DB	88					; 00000058H
	DB	85					; 00000055H
	DB	84					; 00000054H
	DB	84					; 00000054H
	DB	105					; 00000069H
	DB	109					; 0000006dH
	DB	101					; 00000065H
	DB	114					; 00000072H
	DB	0
?DXUTHandleTimers@@YAXXZ ENDP				; DXUTHandleTimers
_TEXT	ENDS
; Function compile flags: /Odtp /RTCsu /ZI
; File z:\sampsrc\02xu1\saco\d3d9\common\dxut.cpp
;	COMDAT ?DXUTUpdateStaticFrameStats@@YAXXZ
_TEXT	SEGMENT
tv156 = -596						; size = 4
$T1 = -588						; size = 4
_pstrStaticFrameStats$ = -384				; size = 4
_strMultiSample$ = -372					; size = 100
_strDepthFmt$ = -264					; size = 100
_pPP$ = -156						; size = 4
_strFmt$ = -144						; size = 100
_pDeviceSettingsCombo$ = -36				; size = 4
_pd3dEnum$ = -24					; size = 4
_pDeviceSettings$ = -12					; size = 4
__$ArrayPad$ = -4					; size = 4
?DXUTUpdateStaticFrameStats@@YAXXZ PROC			; DXUTUpdateStaticFrameStats, COMDAT

; 3816 : {

	push	ebp
	mov	ebp, esp
	sub	esp, 596				; 00000254H
	push	ebx
	push	esi
	push	edi
	lea	edi, DWORD PTR [ebp-596]
	mov	ecx, 149				; 00000095H
	mov	eax, -858993460				; ccccccccH
	rep stosd
	mov	eax, DWORD PTR ___security_cookie
	xor	eax, ebp
	mov	DWORD PTR __$ArrayPad$[ebp], eax

; 3817 :     DXUTDeviceSettings* pDeviceSettings = GetDXUTState().GetCurrentDeviceSettings();

	call	?GetDXUTState@@YAAAVDXUTState@@XZ	; GetDXUTState
	mov	ecx, eax
	call	?GetCurrentDeviceSettings@DXUTState@@QAEPAUDXUTDeviceSettings@@XZ ; DXUTState::GetCurrentDeviceSettings
	mov	DWORD PTR _pDeviceSettings$[ebp], eax

; 3818 :     if( NULL == pDeviceSettings )

	cmp	DWORD PTR _pDeviceSettings$[ebp], 0
	jne	SHORT $LN12@DXUTUpdate

; 3819 :         return;

	jmp	$LN14@DXUTUpdate
$LN12@DXUTUpdate:

; 3820 :     CD3DEnumeration* pd3dEnum = DXUTPrepareEnumerationObject();

	push	0
	call	?DXUTPrepareEnumerationObject@@YAPAVCD3DEnumeration@@_N@Z ; DXUTPrepareEnumerationObject
	add	esp, 4
	mov	DWORD PTR _pd3dEnum$[ebp], eax

; 3821 :     if( NULL == pd3dEnum )

	cmp	DWORD PTR _pd3dEnum$[ebp], 0
	jne	SHORT $LN11@DXUTUpdate

; 3822 :         return;

	jmp	$LN14@DXUTUpdate
$LN11@DXUTUpdate:

; 3823 : 
; 3824 :     CD3DEnumDeviceSettingsCombo* pDeviceSettingsCombo = pd3dEnum->GetDeviceSettingsCombo( pDeviceSettings->AdapterOrdinal, pDeviceSettings->DeviceType, pDeviceSettings->AdapterFormat, pDeviceSettings->pp.BackBufferFormat, pDeviceSettings->pp.Windowed );

	mov	eax, DWORD PTR _pDeviceSettings$[ebp]
	mov	ecx, DWORD PTR [eax+48]
	push	ecx
	mov	edx, DWORD PTR _pDeviceSettings$[ebp]
	mov	eax, DWORD PTR [edx+24]
	push	eax
	mov	ecx, DWORD PTR _pDeviceSettings$[ebp]
	mov	edx, DWORD PTR [ecx+8]
	push	edx
	mov	eax, DWORD PTR _pDeviceSettings$[ebp]
	mov	ecx, DWORD PTR [eax+4]
	push	ecx
	mov	edx, DWORD PTR _pDeviceSettings$[ebp]
	mov	eax, DWORD PTR [edx]
	push	eax
	mov	ecx, DWORD PTR _pd3dEnum$[ebp]
	call	?GetDeviceSettingsCombo@CD3DEnumeration@@QAEPAUCD3DEnumDeviceSettingsCombo@@IW4_D3DDEVTYPE@@W4_D3DFORMAT@@1H@Z ; CD3DEnumeration::GetDeviceSettingsCombo
	mov	DWORD PTR _pDeviceSettingsCombo$[ebp], eax

; 3825 :     if( NULL == pDeviceSettingsCombo )

	cmp	DWORD PTR _pDeviceSettingsCombo$[ebp], 0
	jne	SHORT $LN10@DXUTUpdate

; 3826 :         return;

	jmp	$LN14@DXUTUpdate
$LN10@DXUTUpdate:

; 3827 : 
; 3828 :     TCHAR strFmt[100];
; 3829 :     D3DPRESENT_PARAMETERS* pPP = &pDeviceSettings->pp;

	mov	eax, DWORD PTR _pDeviceSettings$[ebp]
	add	eax, 16					; 00000010H
	mov	DWORD PTR _pPP$[ebp], eax

; 3830 : 
; 3831 :     if( pDeviceSettingsCombo->AdapterFormat == pDeviceSettingsCombo->BackBufferFormat )

	mov	eax, DWORD PTR _pDeviceSettingsCombo$[ebp]
	mov	ecx, DWORD PTR _pDeviceSettingsCombo$[ebp]
	mov	edx, DWORD PTR [eax+8]
	cmp	edx, DWORD PTR [ecx+12]
	jne	SHORT $LN9@DXUTUpdate

; 3832 :     {
; 3833 :         StringCchCopy( strFmt, 100, DXUTD3DFormatToString( pDeviceSettingsCombo->AdapterFormat, false ) );

	push	0
	mov	eax, DWORD PTR _pDeviceSettingsCombo$[ebp]
	mov	ecx, DWORD PTR [eax+8]
	push	ecx
	call	?DXUTD3DFormatToString@@YAPBDW4_D3DFORMAT@@_N@Z ; DXUTD3DFormatToString
	add	esp, 8
	push	eax
	push	100					; 00000064H
	lea	edx, DWORD PTR _strFmt$[ebp]
	push	edx
	call	?StringCchCopyA@@YGJPADIPBD@Z		; StringCchCopyA

; 3834 :     }
; 3835 :     else

	jmp	SHORT $LN8@DXUTUpdate
$LN9@DXUTUpdate:

; 3836 :     {
; 3837 :         StringCchPrintf( strFmt, 100, "backbuf %s, adapter %s", 
; 3838 :             DXUTD3DFormatToString( pDeviceSettingsCombo->BackBufferFormat, false ), 
; 3839 :             DXUTD3DFormatToString( pDeviceSettingsCombo->AdapterFormat, false ) );

	push	0
	mov	eax, DWORD PTR _pDeviceSettingsCombo$[ebp]
	mov	ecx, DWORD PTR [eax+8]
	push	ecx
	call	?DXUTD3DFormatToString@@YAPBDW4_D3DFORMAT@@_N@Z ; DXUTD3DFormatToString
	add	esp, 8
	push	eax
	push	0
	mov	edx, DWORD PTR _pDeviceSettingsCombo$[ebp]
	mov	eax, DWORD PTR [edx+12]
	push	eax
	call	?DXUTD3DFormatToString@@YAPBDW4_D3DFORMAT@@_N@Z ; DXUTD3DFormatToString
	add	esp, 8
	push	eax
	push	OFFSET ??_C@_0BH@CNBHLFAO@backbuf?5?$CFs?0?5adapter?5?$CFs?$AA@
	push	100					; 00000064H
	lea	ecx, DWORD PTR _strFmt$[ebp]
	push	ecx
	call	?StringCchPrintfA@@YAJPADIPBDZZ		; StringCchPrintfA
	add	esp, 20					; 00000014H
$LN8@DXUTUpdate:

; 3840 :     }
; 3841 : 
; 3842 :     TCHAR strDepthFmt[100];
; 3843 :     if( pPP->EnableAutoDepthStencil )

	mov	eax, DWORD PTR _pPP$[ebp]
	cmp	DWORD PTR [eax+36], 0
	je	SHORT $LN7@DXUTUpdate

; 3844 :     {
; 3845 :         StringCchPrintf( strDepthFmt, 100, " (%s)", DXUTD3DFormatToString( pPP->AutoDepthStencilFormat, false ) );

	push	0
	mov	eax, DWORD PTR _pPP$[ebp]
	mov	ecx, DWORD PTR [eax+40]
	push	ecx
	call	?DXUTD3DFormatToString@@YAPBDW4_D3DFORMAT@@_N@Z ; DXUTD3DFormatToString
	add	esp, 8
	push	eax
	push	OFFSET ??_C@_05DNDNCJEB@?5?$CI?$CFs?$CJ?$AA@
	push	100					; 00000064H
	lea	edx, DWORD PTR _strDepthFmt$[ebp]
	push	edx
	call	?StringCchPrintfA@@YAJPADIPBDZZ		; StringCchPrintfA
	add	esp, 16					; 00000010H

; 3846 :     }
; 3847 :     else

	jmp	SHORT $LN6@DXUTUpdate
$LN7@DXUTUpdate:

; 3848 :     {
; 3849 :         // No depth buffer
; 3850 :         strDepthFmt[0] = 0;

	mov	eax, 1
	imul	ecx, eax, 0
	mov	DWORD PTR $T1[ebp], ecx
	cmp	DWORD PTR $T1[ebp], 100			; 00000064H
	jae	SHORT $LN15@DXUTUpdate
	jmp	SHORT $LN16@DXUTUpdate
$LN15@DXUTUpdate:
	call	___report_rangecheckfailure
$LN16@DXUTUpdate:
	mov	edx, DWORD PTR $T1[ebp]
	mov	BYTE PTR _strDepthFmt$[ebp+edx], 0
$LN6@DXUTUpdate:

; 3851 :     }
; 3852 : 
; 3853 :     TCHAR strMultiSample[100];
; 3854 :     switch( pPP->MultiSampleType )

	mov	eax, DWORD PTR _pPP$[ebp]
	mov	ecx, DWORD PTR [eax+16]
	mov	DWORD PTR tv156[ebp], ecx
	cmp	DWORD PTR tv156[ebp], 0
	je	SHORT $LN2@DXUTUpdate
	cmp	DWORD PTR tv156[ebp], 1
	je	SHORT $LN3@DXUTUpdate
	jmp	SHORT $LN1@DXUTUpdate
$LN3@DXUTUpdate:

; 3855 :     {
; 3856 :         case D3DMULTISAMPLE_NONMASKABLE: StringCchCopy( strMultiSample, 100, " (Nonmaskable Multisample)" ); break;

	push	OFFSET ??_C@_0BL@OEMADDMG@?5?$CINonmaskable?5Multisample?$CJ?$AA@
	push	100					; 00000064H
	lea	eax, DWORD PTR _strMultiSample$[ebp]
	push	eax
	call	?StringCchCopyA@@YGJPADIPBD@Z		; StringCchCopyA
	jmp	SHORT $LN4@DXUTUpdate
$LN2@DXUTUpdate:

; 3857 :         case D3DMULTISAMPLE_NONE:        StringCchCopy( strMultiSample, 100, "" ); break;

	push	OFFSET ??_C@_00CNPNBAHC@?$AA@
	push	100					; 00000064H
	lea	eax, DWORD PTR _strMultiSample$[ebp]
	push	eax
	call	?StringCchCopyA@@YGJPADIPBD@Z		; StringCchCopyA
	jmp	SHORT $LN4@DXUTUpdate
$LN1@DXUTUpdate:

; 3858 :         default:                         StringCchPrintf( strMultiSample, 100, " (%dx Multisample)", pPP->MultiSampleType ); break;

	mov	eax, DWORD PTR _pPP$[ebp]
	mov	ecx, DWORD PTR [eax+16]
	push	ecx
	push	OFFSET ??_C@_0BD@FAEAMFBM@?5?$CI?$CFdx?5Multisample?$CJ?$AA@
	push	100					; 00000064H
	lea	edx, DWORD PTR _strMultiSample$[ebp]
	push	edx
	call	?StringCchPrintfA@@YAJPADIPBDZZ		; StringCchPrintfA
	add	esp, 16					; 00000010H
$LN4@DXUTUpdate:

; 3859 :     }
; 3860 : 
; 3861 :     TCHAR* pstrStaticFrameStats = GetDXUTState().GetStaticFrameStats();

	call	?GetDXUTState@@YAAAVDXUTState@@XZ	; GetDXUTState
	mov	ecx, eax
	call	?GetStaticFrameStats@DXUTState@@QAEPADXZ ; DXUTState::GetStaticFrameStats
	mov	DWORD PTR _pstrStaticFrameStats$[ebp], eax

; 3862 :     StringCchPrintf( pstrStaticFrameStats, 256, "%%.02f fps (%dx%d), %s%s%s", 
; 3863 :                 pPP->BackBufferWidth, pPP->BackBufferHeight,
; 3864 :                 strFmt, strDepthFmt, strMultiSample );

	lea	eax, DWORD PTR _strMultiSample$[ebp]
	push	eax
	lea	ecx, DWORD PTR _strDepthFmt$[ebp]
	push	ecx
	lea	edx, DWORD PTR _strFmt$[ebp]
	push	edx
	mov	eax, DWORD PTR _pPP$[ebp]
	mov	ecx, DWORD PTR [eax+4]
	push	ecx
	mov	edx, DWORD PTR _pPP$[ebp]
	mov	eax, DWORD PTR [edx]
	push	eax
	push	OFFSET ??_C@_0BL@ELHDMKOG@?$CF?$CF?402f?5fps?5?$CI?$CFdx?$CFd?$CJ?0?5?$CFs?$CFs?$CFs?$AA@
	push	256					; 00000100H
	mov	ecx, DWORD PTR _pstrStaticFrameStats$[ebp]
	push	ecx
	call	?StringCchPrintfA@@YAJPADIPBDZZ		; StringCchPrintfA
	add	esp, 32					; 00000020H
$LN14@DXUTUpdate:

; 3865 : }

	push	edx
	mov	ecx, ebp
	push	eax
	lea	edx, DWORD PTR $LN21@DXUTUpdate
	call	@_RTC_CheckStackVars@8
	pop	eax
	pop	edx
	pop	edi
	pop	esi
	pop	ebx
	mov	ecx, DWORD PTR __$ArrayPad$[ebp]
	xor	ecx, ebp
	call	@__security_check_cookie@4
	add	esp, 596				; 00000254H
	cmp	ebp, esp
	call	__RTC_CheckEsp
	mov	esp, ebp
	pop	ebp
	ret	0
$LN21@DXUTUpdate:
	DD	3
	DD	$LN20@DXUTUpdate
$LN20@DXUTUpdate:
	DD	-144					; ffffff70H
	DD	100					; 00000064H
	DD	$LN17@DXUTUpdate
	DD	-264					; fffffef8H
	DD	100					; 00000064H
	DD	$LN18@DXUTUpdate
	DD	-372					; fffffe8cH
	DD	100					; 00000064H
	DD	$LN19@DXUTUpdate
$LN19@DXUTUpdate:
	DB	115					; 00000073H
	DB	116					; 00000074H
	DB	114					; 00000072H
	DB	77					; 0000004dH
	DB	117					; 00000075H
	DB	108					; 0000006cH
	DB	116					; 00000074H
	DB	105					; 00000069H
	DB	83					; 00000053H
	DB	97					; 00000061H
	DB	109					; 0000006dH
	DB	112					; 00000070H
	DB	108					; 0000006cH
	DB	101					; 00000065H
	DB	0
$LN18@DXUTUpdate:
	DB	115					; 00000073H
	DB	116					; 00000074H
	DB	114					; 00000072H
	DB	68					; 00000044H
	DB	101					; 00000065H
	DB	112					; 00000070H
	DB	116					; 00000074H
	DB	104					; 00000068H
	DB	70					; 00000046H
	DB	109					; 0000006dH
	DB	116					; 00000074H
	DB	0
$LN17@DXUTUpdate:
	DB	115					; 00000073H
	DB	116					; 00000074H
	DB	114					; 00000072H
	DB	70					; 00000046H
	DB	109					; 0000006dH
	DB	116					; 00000074H
	DB	0
?DXUTUpdateStaticFrameStats@@YAXXZ ENDP			; DXUTUpdateStaticFrameStats
_TEXT	ENDS
; Function compile flags: /Odtp /RTCsu /ZI
; File z:\sampsrc\02xu1\saco\d3d9\common\dxut.cpp
;	COMDAT ?DXUTUpdateDeviceStats@@YAXW4_D3DDEVTYPE@@KPAU_D3DADAPTER_IDENTIFIER9@@@Z
_TEXT	SEGMENT
$T1 = -784						; size = 4
_szDescription$2 = -580					; size = 512
_cchDesc$3 = -60					; size = 4
_pDeviceSettingsCombo$4 = -48				; size = 4
_pd3dEnum$5 = -36					; size = 4
_pDeviceSettings$6 = -24				; size = 4
_pstrDeviceStats$ = -12					; size = 4
__$ArrayPad$ = -4					; size = 4
_DeviceType$ = 8					; size = 4
_BehaviorFlags$ = 12					; size = 4
_pAdapterIdentifier$ = 16				; size = 4
?DXUTUpdateDeviceStats@@YAXW4_D3DDEVTYPE@@KPAU_D3DADAPTER_IDENTIFIER9@@@Z PROC ; DXUTUpdateDeviceStats, COMDAT

; 3721 : {

	push	ebp
	mov	ebp, esp
	sub	esp, 788				; 00000314H
	push	ebx
	push	esi
	push	edi
	lea	edi, DWORD PTR [ebp-788]
	mov	ecx, 197				; 000000c5H
	mov	eax, -858993460				; ccccccccH
	rep stosd
	mov	eax, DWORD PTR ___security_cookie
	xor	eax, ebp
	mov	DWORD PTR __$ArrayPad$[ebp], eax

; 3722 :     // Store device description
; 3723 :     TCHAR* pstrDeviceStats = GetDXUTState().GetDeviceStats();

	call	?GetDXUTState@@YAAAVDXUTState@@XZ	; GetDXUTState
	mov	ecx, eax
	call	?GetDeviceStats@DXUTState@@QAEPADXZ	; DXUTState::GetDeviceStats
	mov	DWORD PTR _pstrDeviceStats$[ebp], eax

; 3724 :     if( DeviceType == D3DDEVTYPE_REF )

	cmp	DWORD PTR _DeviceType$[ebp], 2
	jne	SHORT $LN21@DXUTUpdate

; 3725 :         StringCchCopy( pstrDeviceStats, 256, "REF" );

	push	OFFSET ??_C@_03GPMNEAGC@REF?$AA@
	push	256					; 00000100H
	mov	eax, DWORD PTR _pstrDeviceStats$[ebp]
	push	eax
	call	?StringCchCopyA@@YGJPADIPBD@Z		; StringCchCopyA
	jmp	SHORT $LN20@DXUTUpdate
$LN21@DXUTUpdate:

; 3726 :     else if( DeviceType == D3DDEVTYPE_HAL )

	cmp	DWORD PTR _DeviceType$[ebp], 1
	jne	SHORT $LN19@DXUTUpdate

; 3727 :         StringCchCopy( pstrDeviceStats, 256, "HA" );

	push	OFFSET ??_C@_02JHFFIENB@HA?$AA@
	push	256					; 00000100H
	mov	eax, DWORD PTR _pstrDeviceStats$[ebp]
	push	eax
	call	?StringCchCopyA@@YGJPADIPBD@Z		; StringCchCopyA
	jmp	SHORT $LN20@DXUTUpdate
$LN19@DXUTUpdate:

; 3728 :     else if( DeviceType == D3DDEVTYPE_SW )

	cmp	DWORD PTR _DeviceType$[ebp], 3
	jne	SHORT $LN20@DXUTUpdate

; 3729 :         StringCchCopy( pstrDeviceStats, 256, "SW" );

	push	OFFSET ??_C@_02JLLOHNJH@SW?$AA@
	push	256					; 00000100H
	mov	eax, DWORD PTR _pstrDeviceStats$[ebp]
	push	eax
	call	?StringCchCopyA@@YGJPADIPBD@Z		; StringCchCopyA
$LN20@DXUTUpdate:

; 3730 : 
; 3731 :     if( BehaviorFlags & D3DCREATE_HARDWARE_VERTEXPROCESSING &&
; 3732 :         BehaviorFlags & D3DCREATE_PUREDEVICE )

	mov	eax, DWORD PTR _BehaviorFlags$[ebp]
	and	eax, 64					; 00000040H
	je	SHORT $LN16@DXUTUpdate
	mov	eax, DWORD PTR _BehaviorFlags$[ebp]
	and	eax, 16					; 00000010H
	je	SHORT $LN16@DXUTUpdate

; 3733 :     {
; 3734 :         if( DeviceType == D3DDEVTYPE_HAL )

	cmp	DWORD PTR _DeviceType$[ebp], 1
	jne	SHORT $LN15@DXUTUpdate

; 3735 :             StringCchCat( pstrDeviceStats, 256, " (pure hw vp)" );

	push	OFFSET ??_C@_0O@INAAPCCB@?5?$CIpure?5hw?5vp?$CJ?$AA@
	push	256					; 00000100H
	mov	eax, DWORD PTR _pstrDeviceStats$[ebp]
	push	eax
	call	?StringCchCatA@@YGJPADIPBD@Z		; StringCchCatA

; 3736 :         else

	jmp	SHORT $LN14@DXUTUpdate
$LN15@DXUTUpdate:

; 3737 :             StringCchCat( pstrDeviceStats, 256, " (simulated pure hw vp)" );

	push	OFFSET ??_C@_0BI@KADHBMJM@?5?$CIsimulated?5pure?5hw?5vp?$CJ?$AA@
	push	256					; 00000100H
	mov	eax, DWORD PTR _pstrDeviceStats$[ebp]
	push	eax
	call	?StringCchCatA@@YGJPADIPBD@Z		; StringCchCatA
$LN14@DXUTUpdate:
	jmp	$LN13@DXUTUpdate
$LN16@DXUTUpdate:

; 3738 :     }
; 3739 :     else if( BehaviorFlags & D3DCREATE_HARDWARE_VERTEXPROCESSING )

	mov	eax, DWORD PTR _BehaviorFlags$[ebp]
	and	eax, 64					; 00000040H
	je	SHORT $LN12@DXUTUpdate

; 3740 :     {
; 3741 :         if( DeviceType == D3DDEVTYPE_HAL )

	cmp	DWORD PTR _DeviceType$[ebp], 1
	jne	SHORT $LN11@DXUTUpdate

; 3742 :             StringCchCat( pstrDeviceStats, 256, " (hw vp)" );

	push	OFFSET ??_C@_08IAMIAIBF@?5?$CIhw?5vp?$CJ?$AA@
	push	256					; 00000100H
	mov	eax, DWORD PTR _pstrDeviceStats$[ebp]
	push	eax
	call	?StringCchCatA@@YGJPADIPBD@Z		; StringCchCatA

; 3743 :         else

	jmp	SHORT $LN10@DXUTUpdate
$LN11@DXUTUpdate:

; 3744 :             StringCchCat( pstrDeviceStats, 256, " (simulated hw vp)" );

	push	OFFSET ??_C@_0BD@NNKCKNKM@?5?$CIsimulated?5hw?5vp?$CJ?$AA@
	push	256					; 00000100H
	mov	eax, DWORD PTR _pstrDeviceStats$[ebp]
	push	eax
	call	?StringCchCatA@@YGJPADIPBD@Z		; StringCchCatA
$LN10@DXUTUpdate:
	jmp	SHORT $LN13@DXUTUpdate
$LN12@DXUTUpdate:

; 3745 :     }
; 3746 :     else if( BehaviorFlags & D3DCREATE_MIXED_VERTEXPROCESSING )

	mov	eax, DWORD PTR _BehaviorFlags$[ebp]
	and	eax, 128				; 00000080H
	je	SHORT $LN8@DXUTUpdate

; 3747 :     {
; 3748 :         if( DeviceType == D3DDEVTYPE_HAL )

	cmp	DWORD PTR _DeviceType$[ebp], 1
	jne	SHORT $LN7@DXUTUpdate

; 3749 :             StringCchCat( pstrDeviceStats, 256, " (mixed vp)" );

	push	OFFSET ??_C@_0M@NOOBLHBB@?5?$CImixed?5vp?$CJ?$AA@
	push	256					; 00000100H
	mov	eax, DWORD PTR _pstrDeviceStats$[ebp]
	push	eax
	call	?StringCchCatA@@YGJPADIPBD@Z		; StringCchCatA

; 3750 :         else

	jmp	SHORT $LN6@DXUTUpdate
$LN7@DXUTUpdate:

; 3751 :             StringCchCat( pstrDeviceStats, 256, " (simulated mixed vp)" );

	push	OFFSET ??_C@_0BG@GKHJLCDJ@?5?$CIsimulated?5mixed?5vp?$CJ?$AA@
	push	256					; 00000100H
	mov	eax, DWORD PTR _pstrDeviceStats$[ebp]
	push	eax
	call	?StringCchCatA@@YGJPADIPBD@Z		; StringCchCatA
$LN6@DXUTUpdate:
	jmp	SHORT $LN13@DXUTUpdate
$LN8@DXUTUpdate:

; 3752 :     }
; 3753 :     else if( BehaviorFlags & D3DCREATE_SOFTWARE_VERTEXPROCESSING )

	mov	eax, DWORD PTR _BehaviorFlags$[ebp]
	and	eax, 32					; 00000020H
	je	SHORT $LN13@DXUTUpdate

; 3754 :     {
; 3755 :         StringCchCat( pstrDeviceStats, 256, " (sw vp)" );

	push	OFFSET ??_C@_08OFBBMACB@?5?$CIsw?5vp?$CJ?$AA@
	push	256					; 00000100H
	mov	eax, DWORD PTR _pstrDeviceStats$[ebp]
	push	eax
	call	?StringCchCatA@@YGJPADIPBD@Z		; StringCchCatA
$LN13@DXUTUpdate:

; 3756 :     }
; 3757 : 
; 3758 :     if( DeviceType == D3DDEVTYPE_HAL )

	cmp	DWORD PTR _DeviceType$[ebp], 1
	jne	$LN23@DXUTUpdate

; 3759 :     {
; 3760 :         // Be sure not to overflow m_strDeviceStats when appending the adapter 
; 3761 :         // description, since it can be long.  
; 3762 :         StringCchCat( pstrDeviceStats, 256, ": " );

	push	OFFSET ??_C@_02LMMGGCAJ@?3?5?$AA@
	push	256					; 00000100H
	mov	eax, DWORD PTR _pstrDeviceStats$[ebp]
	push	eax
	call	?StringCchCatA@@YGJPADIPBD@Z		; StringCchCatA

; 3763 : 
; 3764 :         // Try to get a unique description from the CD3DEnumDeviceSettingsCombo
; 3765 :         DXUTDeviceSettings* pDeviceSettings = GetDXUTState().GetCurrentDeviceSettings();

	call	?GetDXUTState@@YAAAVDXUTState@@XZ	; GetDXUTState
	mov	ecx, eax
	call	?GetCurrentDeviceSettings@DXUTState@@QAEPAUDXUTDeviceSettings@@XZ ; DXUTState::GetCurrentDeviceSettings
	mov	DWORD PTR _pDeviceSettings$6[ebp], eax

; 3766 :         CD3DEnumeration* pd3dEnum = DXUTPrepareEnumerationObject();

	push	0
	call	?DXUTPrepareEnumerationObject@@YAPAVCD3DEnumeration@@_N@Z ; DXUTPrepareEnumerationObject
	add	esp, 4
	mov	DWORD PTR _pd3dEnum$5[ebp], eax

; 3767 :         CD3DEnumDeviceSettingsCombo* pDeviceSettingsCombo = pd3dEnum->GetDeviceSettingsCombo( pDeviceSettings->AdapterOrdinal, pDeviceSettings->DeviceType, pDeviceSettings->AdapterFormat, pDeviceSettings->pp.BackBufferFormat, pDeviceSettings->pp.Windowed );

	mov	eax, DWORD PTR _pDeviceSettings$6[ebp]
	mov	ecx, DWORD PTR [eax+48]
	push	ecx
	mov	edx, DWORD PTR _pDeviceSettings$6[ebp]
	mov	eax, DWORD PTR [edx+24]
	push	eax
	mov	ecx, DWORD PTR _pDeviceSettings$6[ebp]
	mov	edx, DWORD PTR [ecx+8]
	push	edx
	mov	eax, DWORD PTR _pDeviceSettings$6[ebp]
	mov	ecx, DWORD PTR [eax+4]
	push	ecx
	mov	edx, DWORD PTR _pDeviceSettings$6[ebp]
	mov	eax, DWORD PTR [edx]
	push	eax
	mov	ecx, DWORD PTR _pd3dEnum$5[ebp]
	call	?GetDeviceSettingsCombo@CD3DEnumeration@@QAEPAUCD3DEnumDeviceSettingsCombo@@IW4_D3DDEVTYPE@@W4_D3DFORMAT@@1H@Z ; CD3DEnumeration::GetDeviceSettingsCombo
	mov	DWORD PTR _pDeviceSettingsCombo$4[ebp], eax

; 3768 :         if( pDeviceSettingsCombo )

	cmp	DWORD PTR _pDeviceSettingsCombo$4[ebp], 0
	je	SHORT $LN2@DXUTUpdate

; 3769 :         {
; 3770 :             StringCchCat( pstrDeviceStats, 256, pDeviceSettingsCombo->pAdapterInfo->szUniqueDescription );

	mov	eax, DWORD PTR _pDeviceSettingsCombo$4[ebp]
	mov	ecx, DWORD PTR [eax+80]
	add	ecx, 1104				; 00000450H
	push	ecx
	push	256					; 00000100H
	mov	edx, DWORD PTR _pstrDeviceStats$[ebp]
	push	edx
	call	?StringCchCatA@@YGJPADIPBD@Z		; StringCchCatA

; 3771 :         }
; 3772 :         else

	jmp	SHORT $LN23@DXUTUpdate
$LN2@DXUTUpdate:

; 3773 :         {
; 3774 :             const int cchDesc = sizeof(pAdapterIdentifier->Description);

	mov	DWORD PTR _cchDesc$3[ebp], 512		; 00000200H

; 3775 :             TCHAR szDescription[cchDesc];
; 3776 :             strcpy(szDescription, pAdapterIdentifier->Description);

	mov	eax, DWORD PTR _pAdapterIdentifier$[ebp]
	add	eax, 512				; 00000200H
	push	eax
	lea	ecx, DWORD PTR _szDescription$2[ebp]
	push	ecx
	call	_strcpy
	add	esp, 8

; 3777 :             szDescription[cchDesc-1] = 0;

	mov	eax, 1
	imul	ecx, eax, 511
	mov	DWORD PTR $T1[ebp], ecx
	cmp	DWORD PTR $T1[ebp], 512			; 00000200H
	jae	SHORT $LN24@DXUTUpdate
	jmp	SHORT $LN25@DXUTUpdate
$LN24@DXUTUpdate:
	call	___report_rangecheckfailure
$LN25@DXUTUpdate:
	mov	edx, DWORD PTR $T1[ebp]
	mov	BYTE PTR _szDescription$2[ebp+edx], 0

; 3778 :             StringCchCat( pstrDeviceStats, 256, szDescription );

	lea	eax, DWORD PTR _szDescription$2[ebp]
	push	eax
	push	256					; 00000100H
	mov	ecx, DWORD PTR _pstrDeviceStats$[ebp]
	push	ecx
	call	?StringCchCatA@@YGJPADIPBD@Z		; StringCchCatA
$LN23@DXUTUpdate:

; 3779 :         }
; 3780 :     }
; 3781 : }

	push	edx
	mov	ecx, ebp
	push	eax
	lea	edx, DWORD PTR $LN28@DXUTUpdate
	call	@_RTC_CheckStackVars@8
	pop	eax
	pop	edx
	pop	edi
	pop	esi
	pop	ebx
	mov	ecx, DWORD PTR __$ArrayPad$[ebp]
	xor	ecx, ebp
	call	@__security_check_cookie@4
	add	esp, 788				; 00000314H
	cmp	ebp, esp
	call	__RTC_CheckEsp
	mov	esp, ebp
	pop	ebp
	ret	0
$LN28@DXUTUpdate:
	DD	1
	DD	$LN27@DXUTUpdate
$LN27@DXUTUpdate:
	DD	-580					; fffffdbcH
	DD	512					; 00000200H
	DD	$LN26@DXUTUpdate
$LN26@DXUTUpdate:
	DB	115					; 00000073H
	DB	122					; 0000007aH
	DB	68					; 00000044H
	DB	101					; 00000065H
	DB	115					; 00000073H
	DB	99					; 00000063H
	DB	114					; 00000072H
	DB	105					; 00000069H
	DB	112					; 00000070H
	DB	116					; 00000074H
	DB	105					; 00000069H
	DB	111					; 0000006fH
	DB	110					; 0000006eH
	DB	0
?DXUTUpdateDeviceStats@@YAXW4_D3DDEVTYPE@@KPAU_D3DADAPTER_IDENTIFIER9@@@Z ENDP ; DXUTUpdateDeviceStats
_TEXT	ENDS
; Function compile flags: /Odtp /RTCsu /ZI
; File z:\sampsrc\02xu1\saco\d3d9\common\dxut.cpp
;	COMDAT ?DXUTUpdateFrameStats@@YAXXZ
_TEXT	SEGMENT
tv151 = -276						; size = 4
_pstrStaticFrameStats$1 = -76				; size = 4
_pstrFrameStats$2 = -64					; size = 4
_fFPS$3 = -52						; size = 4
_fTime$ = -40						; size = 8
_dwFrames$ = -24					; size = 4
_fLastTime$ = -12					; size = 8
?DXUTUpdateFrameStats@@YAXXZ PROC			; DXUTUpdateFrameStats, COMDAT

; 3788 : {

	push	ebp
	mov	ebp, esp
	sub	esp, 276				; 00000114H
	push	ebx
	push	esi
	push	edi
	lea	edi, DWORD PTR [ebp-276]
	mov	ecx, 69					; 00000045H
	mov	eax, -858993460				; ccccccccH
	rep stosd

; 3789 :     // Keep track of the frame count
; 3790 :     double fLastTime = GetDXUTState().GetLastStatsUpdateTime();

	call	?GetDXUTState@@YAAAVDXUTState@@XZ	; GetDXUTState
	mov	ecx, eax
	call	?GetLastStatsUpdateTime@DXUTState@@QAENXZ ; DXUTState::GetLastStatsUpdateTime
	fstp	QWORD PTR _fLastTime$[ebp]

; 3791 :     DWORD dwFrames  = GetDXUTState().GetLastStatsUpdateFrames();

	call	?GetDXUTState@@YAAAVDXUTState@@XZ	; GetDXUTState
	mov	ecx, eax
	call	?GetLastStatsUpdateFrames@DXUTState@@QAEKXZ ; DXUTState::GetLastStatsUpdateFrames
	mov	DWORD PTR _dwFrames$[ebp], eax

; 3792 :     double fTime = DXUTGetGlobalTimer()->GetAbsoluteTime();

	call	?DXUTGetGlobalTimer@@YAPAVCDXUTTimer@@XZ ; DXUTGetGlobalTimer
	mov	ecx, eax
	call	?GetAbsoluteTime@CDXUTTimer@@QAENXZ	; CDXUTTimer::GetAbsoluteTime
	fstp	QWORD PTR _fTime$[ebp]

; 3793 :     dwFrames++;

	mov	eax, DWORD PTR _dwFrames$[ebp]
	add	eax, 1
	mov	DWORD PTR _dwFrames$[ebp], eax

; 3794 :     GetDXUTState().SetLastStatsUpdateFrames( dwFrames );

	mov	eax, DWORD PTR _dwFrames$[ebp]
	push	eax
	call	?GetDXUTState@@YAAAVDXUTState@@XZ	; GetDXUTState
	mov	ecx, eax
	call	?SetLastStatsUpdateFrames@DXUTState@@QAEXK@Z ; DXUTState::SetLastStatsUpdateFrames

; 3795 : 
; 3796 :     // Update the scene stats once per second
; 3797 :     if( fTime - fLastTime > 1.0f )

	movsd	xmm0, QWORD PTR _fTime$[ebp]
	subsd	xmm0, QWORD PTR _fLastTime$[ebp]
	comisd	xmm0, QWORD PTR __real@3ff0000000000000
	jbe	$LN1@DXUTUpdate

; 3798 :     {
; 3799 :         float fFPS = (float) (dwFrames / (fTime - fLastTime));

	mov	eax, DWORD PTR _dwFrames$[ebp]
	mov	DWORD PTR tv151[ebp], eax
	cvtsi2sd xmm0, DWORD PTR tv151[ebp]
	mov	ecx, DWORD PTR tv151[ebp]
	shr	ecx, 31					; 0000001fH
	addsd	xmm0, QWORD PTR __xmm@41f00000000000000000000000000000[ecx*8]
	movsd	xmm1, QWORD PTR _fTime$[ebp]
	subsd	xmm1, QWORD PTR _fLastTime$[ebp]
	divsd	xmm0, xmm1
	cvtsd2ss xmm0, xmm0
	movss	DWORD PTR _fFPS$3[ebp], xmm0

; 3800 :         GetDXUTState().SetFPS( fFPS );

	push	ecx
	movss	xmm0, DWORD PTR _fFPS$3[ebp]
	movss	DWORD PTR [esp], xmm0
	call	?GetDXUTState@@YAAAVDXUTState@@XZ	; GetDXUTState
	mov	ecx, eax
	call	?SetFPS@DXUTState@@QAEXM@Z		; DXUTState::SetFPS

; 3801 :         GetDXUTState().SetLastStatsUpdateTime( fTime );

	sub	esp, 8
	movsd	xmm0, QWORD PTR _fTime$[ebp]
	movsd	QWORD PTR [esp], xmm0
	call	?GetDXUTState@@YAAAVDXUTState@@XZ	; GetDXUTState
	mov	ecx, eax
	call	?SetLastStatsUpdateTime@DXUTState@@QAEXN@Z ; DXUTState::SetLastStatsUpdateTime

; 3802 :         GetDXUTState().SetLastStatsUpdateFrames( 0 );

	push	0
	call	?GetDXUTState@@YAAAVDXUTState@@XZ	; GetDXUTState
	mov	ecx, eax
	call	?SetLastStatsUpdateFrames@DXUTState@@QAEXK@Z ; DXUTState::SetLastStatsUpdateFrames

; 3803 : 
; 3804 :         TCHAR* pstrFrameStats = GetDXUTState().GetFrameStats();

	call	?GetDXUTState@@YAAAVDXUTState@@XZ	; GetDXUTState
	mov	ecx, eax
	call	?GetFrameStats@DXUTState@@QAEPADXZ	; DXUTState::GetFrameStats
	mov	DWORD PTR _pstrFrameStats$2[ebp], eax

; 3805 :         TCHAR* pstrStaticFrameStats = GetDXUTState().GetStaticFrameStats();

	call	?GetDXUTState@@YAAAVDXUTState@@XZ	; GetDXUTState
	mov	ecx, eax
	call	?GetStaticFrameStats@DXUTState@@QAEPADXZ ; DXUTState::GetStaticFrameStats
	mov	DWORD PTR _pstrStaticFrameStats$1[ebp], eax

; 3806 :         StringCchPrintf( pstrFrameStats, 256, pstrStaticFrameStats, fFPS );

	cvtss2sd xmm0, DWORD PTR _fFPS$3[ebp]
	sub	esp, 8
	movsd	QWORD PTR [esp], xmm0
	mov	eax, DWORD PTR _pstrStaticFrameStats$1[ebp]
	push	eax
	push	256					; 00000100H
	mov	ecx, DWORD PTR _pstrFrameStats$2[ebp]
	push	ecx
	call	?StringCchPrintfA@@YAJPADIPBDZZ		; StringCchPrintfA
	add	esp, 20					; 00000014H

; 3807 :         pstrFrameStats[255] = 0;

	mov	eax, 1
	imul	ecx, eax, 255
	mov	edx, DWORD PTR _pstrFrameStats$2[ebp]
	mov	BYTE PTR [edx+ecx], 0
$LN1@DXUTUpdate:

; 3808 :     }
; 3809 : }

	pop	edi
	pop	esi
	pop	ebx
	add	esp, 276				; 00000114H
	cmp	ebp, esp
	call	__RTC_CheckEsp
	mov	esp, ebp
	pop	ebp
	ret	0
?DXUTUpdateFrameStats@@YAXXZ ENDP			; DXUTUpdateFrameStats
_TEXT	ENDS
; Function compile flags: /Odtp /RTCsu /ZI
; File z:\sampsrc\02xu1\saco\d3d9\common\dxut.cpp
;	COMDAT ?DXUTCreate3DEnvironment@@YAJPAUIDirect3DDevice9@@@Z
_TEXT	SEGMENT
tv250 = -304						; size = 4
tv206 = -304						; size = 4
tv172 = -304						; size = 4
_pCallbackDeviceReset$ = -104				; size = 4
_pCallbackDeviceCreated$ = -92				; size = 4
_pbackBufferSurfaceDesc$ = -80				; size = 4
_pAdapterInfo$ = -68					; size = 4
_pd3dEnum$ = -56					; size = 4
_pD3D$1 = -44						; size = 4
_pNewDeviceSettings$ = -32				; size = 4
_pd3dDevice$ = -20					; size = 4
_hr$ = -8						; size = 4
_pd3dDeviceFromApp$ = 8					; size = 4
?DXUTCreate3DEnvironment@@YAJPAUIDirect3DDevice9@@@Z PROC ; DXUTCreate3DEnvironment, COMDAT

; 3176 : {

	push	ebp
	mov	ebp, esp
	sub	esp, 304				; 00000130H
	push	ebx
	push	esi
	push	edi
	lea	edi, DWORD PTR [ebp-304]
	mov	ecx, 76					; 0000004cH
	mov	eax, -858993460				; ccccccccH
	rep stosd

; 3177 :     HRESULT hr = S_OK;

	mov	DWORD PTR _hr$[ebp], 0

; 3178 : 
; 3179 :     IDirect3DDevice9* pd3dDevice = NULL;

	mov	DWORD PTR _pd3dDevice$[ebp], 0

; 3180 :     DXUTDeviceSettings* pNewDeviceSettings = GetDXUTState().GetCurrentDeviceSettings();

	call	?GetDXUTState@@YAAAVDXUTState@@XZ	; GetDXUTState
	mov	ecx, eax
	call	?GetCurrentDeviceSettings@DXUTState@@QAEPAUDXUTDeviceSettings@@XZ ; DXUTState::GetCurrentDeviceSettings
	mov	DWORD PTR _pNewDeviceSettings$[ebp], eax

; 3181 : 
; 3182 :     // Only create a Direct3D device if one hasn't been supplied by the app
; 3183 :     if( pd3dDeviceFromApp == NULL )

	cmp	DWORD PTR _pd3dDeviceFromApp$[ebp], 0
	jne	SHORT $LN14@DXUTCreate

; 3184 :     {
; 3185 :         // Try to create the device with the chosen settings
; 3186 :         IDirect3D9* pD3D = DXUTGetD3DObject();

	call	?DXUTGetD3DObject@@YAPAUIDirect3D9@@XZ	; DXUTGetD3DObject
	mov	DWORD PTR _pD3D$1[ebp], eax

; 3187 :         hr = pD3D->CreateDevice( pNewDeviceSettings->AdapterOrdinal, pNewDeviceSettings->DeviceType, 
; 3188 :                                 DXUTGetHWNDFocus(), pNewDeviceSettings->BehaviorFlags,
; 3189 :                                 &pNewDeviceSettings->pp, &pd3dDevice );

	mov	esi, esp
	lea	eax, DWORD PTR _pd3dDevice$[ebp]
	push	eax
	mov	ecx, DWORD PTR _pNewDeviceSettings$[ebp]
	add	ecx, 16					; 00000010H
	push	ecx
	mov	edx, DWORD PTR _pNewDeviceSettings$[ebp]
	mov	eax, DWORD PTR [edx+12]
	push	eax
	call	?DXUTGetHWNDFocus@@YAPAUHWND__@@XZ	; DXUTGetHWNDFocus
	push	eax
	mov	ecx, DWORD PTR _pNewDeviceSettings$[ebp]
	mov	edx, DWORD PTR [ecx+4]
	push	edx
	mov	eax, DWORD PTR _pNewDeviceSettings$[ebp]
	mov	ecx, DWORD PTR [eax]
	push	ecx
	mov	edx, DWORD PTR _pD3D$1[ebp]
	mov	eax, DWORD PTR [edx]
	mov	ecx, DWORD PTR _pD3D$1[ebp]
	push	ecx
	mov	edx, DWORD PTR [eax+64]
	call	edx
	cmp	esi, esp
	call	__RTC_CheckEsp
	mov	DWORD PTR _hr$[ebp], eax

; 3190 :         if( FAILED(hr) )

	cmp	DWORD PTR _hr$[ebp], 0
	jge	SHORT $LN13@DXUTCreate

; 3191 :         {
; 3192 :             DXUT_ERR( "CreateDevice", hr );

	push	0
	push	OFFSET ??_C@_0N@JIIFLKLP@CreateDevice?$AA@
	mov	eax, DWORD PTR _hr$[ebp]
	push	eax
	mov	ecx, DWORD PTR ?__LINE__Var@?1??DXUTCreate3DEnvironment@@YAJPAUIDirect3DDevice9@@@Z@4JA
	add	ecx, 16					; 00000010H
	push	ecx
	push	OFFSET ??_C@_0CL@KBAHBIDF@z?3?2sampsrc?202xu1?2saco?2d3d9?2commo@
	call	?DXUTTrace@@YGJPBDKJ0_N@Z		; DXUTTrace

; 3193 :             return DXUTERR_CREATINGDEVICE;

	mov	eax, -2147219195			; 80040905H
	jmp	$LN15@DXUTCreate
$LN13@DXUTCreate:

; 3194 :         }
; 3195 :     }
; 3196 :     else

	jmp	SHORT $LN12@DXUTCreate
$LN14@DXUTCreate:

; 3197 :     {
; 3198 :         pd3dDeviceFromApp->AddRef();

	mov	eax, DWORD PTR _pd3dDeviceFromApp$[ebp]
	mov	ecx, DWORD PTR [eax]
	mov	esi, esp
	mov	edx, DWORD PTR _pd3dDeviceFromApp$[ebp]
	push	edx
	mov	eax, DWORD PTR [ecx+4]
	call	eax
	cmp	esi, esp
	call	__RTC_CheckEsp

; 3199 :         pd3dDevice = pd3dDeviceFromApp;

	mov	eax, DWORD PTR _pd3dDeviceFromApp$[ebp]
	mov	DWORD PTR _pd3dDevice$[ebp], eax
$LN12@DXUTCreate:

; 3200 :     }
; 3201 : 
; 3202 :     GetDXUTState().SetD3DDevice( pd3dDevice );

	mov	eax, DWORD PTR _pd3dDevice$[ebp]
	push	eax
	call	?GetDXUTState@@YAAAVDXUTState@@XZ	; GetDXUTState
	mov	ecx, eax
	call	?SetD3DDevice@DXUTState@@QAEXPAUIDirect3DDevice9@@@Z ; DXUTState::SetD3DDevice

; 3203 : 
; 3204 :     // If switching to REF, set the exit code to 11.  If switching to HAL and exit code was 11, then set it back to 0.
; 3205 :     if( pNewDeviceSettings->DeviceType == D3DDEVTYPE_REF && GetDXUTState().GetExitCode() == 0 )

	mov	eax, DWORD PTR _pNewDeviceSettings$[ebp]
	cmp	DWORD PTR [eax+4], 2
	jne	SHORT $LN11@DXUTCreate
	call	?GetDXUTState@@YAAAVDXUTState@@XZ	; GetDXUTState
	mov	ecx, eax
	call	?GetExitCode@DXUTState@@QAEHXZ		; DXUTState::GetExitCode
	test	eax, eax
	jne	SHORT $LN11@DXUTCreate

; 3206 :         GetDXUTState().SetExitCode(11);

	push	11					; 0000000bH
	call	?GetDXUTState@@YAAAVDXUTState@@XZ	; GetDXUTState
	mov	ecx, eax
	call	?SetExitCode@DXUTState@@QAEXH@Z		; DXUTState::SetExitCode
	jmp	SHORT $LN10@DXUTCreate
$LN11@DXUTCreate:

; 3207 :     else if( pNewDeviceSettings->DeviceType == D3DDEVTYPE_HAL && GetDXUTState().GetExitCode() == 11 )

	mov	eax, DWORD PTR _pNewDeviceSettings$[ebp]
	cmp	DWORD PTR [eax+4], 1
	jne	SHORT $LN10@DXUTCreate
	call	?GetDXUTState@@YAAAVDXUTState@@XZ	; GetDXUTState
	mov	ecx, eax
	call	?GetExitCode@DXUTState@@QAEHXZ		; DXUTState::GetExitCode
	cmp	eax, 11					; 0000000bH
	jne	SHORT $LN10@DXUTCreate

; 3208 :         GetDXUTState().SetExitCode(0);

	push	0
	call	?GetDXUTState@@YAAAVDXUTState@@XZ	; GetDXUTState
	mov	ecx, eax
	call	?SetExitCode@DXUTState@@QAEXH@Z		; DXUTState::SetExitCode
$LN10@DXUTCreate:

; 3209 : 
; 3210 :     // Update back buffer desc before calling app's device callbacks
; 3211 :     DXUTUpdateBackBufferDesc();

	call	?DXUTUpdateBackBufferDesc@@YAXXZ	; DXUTUpdateBackBufferDesc

; 3212 : 
; 3213 :     // Update the device stats text
; 3214 :     CD3DEnumeration* pd3dEnum = DXUTPrepareEnumerationObject();

	push	0
	call	?DXUTPrepareEnumerationObject@@YAPAVCD3DEnumeration@@_N@Z ; DXUTPrepareEnumerationObject
	add	esp, 4
	mov	DWORD PTR _pd3dEnum$[ebp], eax

; 3215 :     CD3DEnumAdapterInfo* pAdapterInfo = pd3dEnum->GetAdapterInfo( pNewDeviceSettings->AdapterOrdinal );

	mov	eax, DWORD PTR _pNewDeviceSettings$[ebp]
	mov	ecx, DWORD PTR [eax]
	push	ecx
	mov	ecx, DWORD PTR _pd3dEnum$[ebp]
	call	?GetAdapterInfo@CD3DEnumeration@@QAEPAVCD3DEnumAdapterInfo@@I@Z ; CD3DEnumeration::GetAdapterInfo
	mov	DWORD PTR _pAdapterInfo$[ebp], eax

; 3216 :     DXUTUpdateDeviceStats( pNewDeviceSettings->DeviceType, 
; 3217 :                         pNewDeviceSettings->BehaviorFlags, 
; 3218 :                         &pAdapterInfo->AdapterIdentifier );

	mov	eax, DWORD PTR _pAdapterInfo$[ebp]
	add	eax, 4
	push	eax
	mov	ecx, DWORD PTR _pNewDeviceSettings$[ebp]
	mov	edx, DWORD PTR [ecx+12]
	push	edx
	mov	eax, DWORD PTR _pNewDeviceSettings$[ebp]
	mov	ecx, DWORD PTR [eax+4]
	push	ecx
	call	?DXUTUpdateDeviceStats@@YAXW4_D3DDEVTYPE@@KPAU_D3DADAPTER_IDENTIFIER9@@@Z ; DXUTUpdateDeviceStats
	add	esp, 12					; 0000000cH

; 3219 : 
; 3220 :     // Call the resource cache created function
; 3221 :     hr = DXUTGetGlobalResourceCache().OnCreateDevice( pd3dDevice );

	mov	eax, DWORD PTR _pd3dDevice$[ebp]
	push	eax
	call	?DXUTGetGlobalResourceCache@@YAAAVCDXUTResourceCache@@XZ ; DXUTGetGlobalResourceCache
	mov	ecx, eax
	call	?OnCreateDevice@CDXUTResourceCache@@QAEJPAUIDirect3DDevice9@@@Z ; CDXUTResourceCache::OnCreateDevice
	mov	DWORD PTR _hr$[ebp], eax

; 3222 :     if( FAILED(hr) )

	cmp	DWORD PTR _hr$[ebp], 0
	jge	SHORT $LN8@DXUTCreate

; 3223 :         return DXUT_ERR( "OnCreateDevice", ( hr == DXUTERR_MEDIANOTFOUND ) ? DXUTERR_MEDIANOTFOUND : DXUTERR_CREATINGDEVICEOBJECTS );

	cmp	DWORD PTR _hr$[ebp], -2147219197	; 80040903H
	jne	SHORT $LN17@DXUTCreate
	mov	DWORD PTR tv172[ebp], -2147219197	; 80040903H
	jmp	SHORT $LN18@DXUTCreate
$LN17@DXUTCreate:
	mov	DWORD PTR tv172[ebp], -2147219193	; 80040907H
$LN18@DXUTCreate:
	push	0
	push	OFFSET ??_C@_0P@JJBHJNJD@OnCreateDevice?$AA@
	mov	eax, DWORD PTR tv172[ebp]
	push	eax
	mov	ecx, DWORD PTR ?__LINE__Var@?1??DXUTCreate3DEnvironment@@YAJPAUIDirect3DDevice9@@@Z@4JA
	add	ecx, 47					; 0000002fH
	push	ecx
	push	OFFSET ??_C@_0CL@KBAHBIDF@z?3?2sampsrc?202xu1?2saco?2d3d9?2commo@
	call	?DXUTTrace@@YGJPBDKJ0_N@Z		; DXUTTrace
	jmp	$LN15@DXUTCreate
$LN8@DXUTCreate:

; 3224 : 
; 3225 :     // Call the app's device created callback if non-NULL
; 3226 :     const D3DSURFACE_DESC* pbackBufferSurfaceDesc = DXUTGetBackBufferSurfaceDesc();

	call	?DXUTGetBackBufferSurfaceDesc@@YAPBU_D3DSURFACE_DESC@@XZ ; DXUTGetBackBufferSurfaceDesc
	mov	DWORD PTR _pbackBufferSurfaceDesc$[ebp], eax

; 3227 :     GetDXUTState().SetInsideDeviceCallback( true );

	push	1
	call	?GetDXUTState@@YAAAVDXUTState@@XZ	; GetDXUTState
	mov	ecx, eax
	call	?SetInsideDeviceCallback@DXUTState@@QAEX_N@Z ; DXUTState::SetInsideDeviceCallback

; 3228 :     LPDXUTCALLBACKDEVICECREATED pCallbackDeviceCreated = GetDXUTState().GetDeviceCreatedFunc();

	call	?GetDXUTState@@YAAAVDXUTState@@XZ	; GetDXUTState
	mov	ecx, eax
	call	?GetDeviceCreatedFunc@DXUTState@@QAEP6GJPAUIDirect3DDevice9@@PBU_D3DSURFACE_DESC@@PAX@ZXZ ; DXUTState::GetDeviceCreatedFunc
	mov	DWORD PTR _pCallbackDeviceCreated$[ebp], eax

; 3229 :     hr = S_OK;

	mov	DWORD PTR _hr$[ebp], 0

; 3230 :     if( pCallbackDeviceCreated != NULL )

	cmp	DWORD PTR _pCallbackDeviceCreated$[ebp], 0
	je	SHORT $LN7@DXUTCreate

; 3231 :         hr = pCallbackDeviceCreated( DXUTGetD3DDevice(), pbackBufferSurfaceDesc, GetDXUTState().GetDeviceCreatedFuncUserContext() );

	call	?GetDXUTState@@YAAAVDXUTState@@XZ	; GetDXUTState
	mov	ecx, eax
	call	?GetDeviceCreatedFuncUserContext@DXUTState@@QAEPAXXZ ; DXUTState::GetDeviceCreatedFuncUserContext
	mov	esi, esp
	push	eax
	mov	eax, DWORD PTR _pbackBufferSurfaceDesc$[ebp]
	push	eax
	call	?DXUTGetD3DDevice@@YAPAUIDirect3DDevice9@@XZ ; DXUTGetD3DDevice
	push	eax
	call	DWORD PTR _pCallbackDeviceCreated$[ebp]
	cmp	esi, esp
	call	__RTC_CheckEsp
	mov	DWORD PTR _hr$[ebp], eax
$LN7@DXUTCreate:

; 3232 :     GetDXUTState().SetInsideDeviceCallback( false );

	push	0
	call	?GetDXUTState@@YAAAVDXUTState@@XZ	; GetDXUTState
	mov	ecx, eax
	call	?SetInsideDeviceCallback@DXUTState@@QAEX_N@Z ; DXUTState::SetInsideDeviceCallback

; 3233 :     if( DXUTGetD3DDevice() == NULL ) // Handle DXUTShutdown from inside callback

	call	?DXUTGetD3DDevice@@YAPAUIDirect3DDevice9@@XZ ; DXUTGetD3DDevice
	test	eax, eax
	jne	SHORT $LN6@DXUTCreate

; 3234 :         return E_FAIL;

	mov	eax, -2147467259			; 80004005H
	jmp	$LN15@DXUTCreate
$LN6@DXUTCreate:

; 3235 :     if( FAILED(hr) )  

	cmp	DWORD PTR _hr$[ebp], 0
	jge	SHORT $LN5@DXUTCreate

; 3236 :     {
; 3237 :         DXUT_ERR( "DeviceCreated callback", hr );        

	push	0
	push	OFFSET ??_C@_0BH@PGNAKDOD@DeviceCreated?5callback?$AA@
	mov	eax, DWORD PTR _hr$[ebp]
	push	eax
	mov	ecx, DWORD PTR ?__LINE__Var@?1??DXUTCreate3DEnvironment@@YAJPAUIDirect3DDevice9@@@Z@4JA
	add	ecx, 61					; 0000003dH
	push	ecx
	push	OFFSET ??_C@_0CL@KBAHBIDF@z?3?2sampsrc?202xu1?2saco?2d3d9?2commo@
	call	?DXUTTrace@@YGJPBDKJ0_N@Z		; DXUTTrace

; 3238 :         return ( hr == DXUTERR_MEDIANOTFOUND ) ? DXUTERR_MEDIANOTFOUND : DXUTERR_CREATINGDEVICEOBJECTS;

	cmp	DWORD PTR _hr$[ebp], -2147219197	; 80040903H
	jne	SHORT $LN19@DXUTCreate
	mov	DWORD PTR tv206[ebp], -2147219197	; 80040903H
	jmp	SHORT $LN20@DXUTCreate
$LN19@DXUTCreate:
	mov	DWORD PTR tv206[ebp], -2147219193	; 80040907H
$LN20@DXUTCreate:
	mov	eax, DWORD PTR tv206[ebp]
	jmp	$LN15@DXUTCreate
$LN5@DXUTCreate:

; 3239 :     }
; 3240 :     GetDXUTState().SetDeviceObjectsCreated( true );

	push	1
	call	?GetDXUTState@@YAAAVDXUTState@@XZ	; GetDXUTState
	mov	ecx, eax
	call	?SetDeviceObjectsCreated@DXUTState@@QAEX_N@Z ; DXUTState::SetDeviceObjectsCreated

; 3241 : 
; 3242 :     // Call the resource cache device reset function
; 3243 :     hr = DXUTGetGlobalResourceCache().OnResetDevice( pd3dDevice );

	mov	eax, DWORD PTR _pd3dDevice$[ebp]
	push	eax
	call	?DXUTGetGlobalResourceCache@@YAAAVCDXUTResourceCache@@XZ ; DXUTGetGlobalResourceCache
	mov	ecx, eax
	call	?OnResetDevice@CDXUTResourceCache@@QAEJPAUIDirect3DDevice9@@@Z ; CDXUTResourceCache::OnResetDevice
	mov	DWORD PTR _hr$[ebp], eax

; 3244 :     if( FAILED(hr) )

	cmp	DWORD PTR _hr$[ebp], 0
	jge	SHORT $LN4@DXUTCreate

; 3245 :         return DXUT_ERR( "OnResetDevice", DXUTERR_RESETTINGDEVICEOBJECTS );

	push	0
	push	OFFSET ??_C@_0O@JFPFAANM@OnResetDevice?$AA@
	push	-2147219192				; 80040908H
	mov	eax, DWORD PTR ?__LINE__Var@?1??DXUTCreate3DEnvironment@@YAJPAUIDirect3DDevice9@@@Z@4JA
	add	eax, 69					; 00000045H
	push	eax
	push	OFFSET ??_C@_0CL@KBAHBIDF@z?3?2sampsrc?202xu1?2saco?2d3d9?2commo@
	call	?DXUTTrace@@YGJPBDKJ0_N@Z		; DXUTTrace
	jmp	$LN15@DXUTCreate
$LN4@DXUTCreate:

; 3246 : 
; 3247 :     // Call the app's device reset callback if non-NULL
; 3248 :     GetDXUTState().SetInsideDeviceCallback( true );

	push	1
	call	?GetDXUTState@@YAAAVDXUTState@@XZ	; GetDXUTState
	mov	ecx, eax
	call	?SetInsideDeviceCallback@DXUTState@@QAEX_N@Z ; DXUTState::SetInsideDeviceCallback

; 3249 :     LPDXUTCALLBACKDEVICERESET pCallbackDeviceReset = GetDXUTState().GetDeviceResetFunc();

	call	?GetDXUTState@@YAAAVDXUTState@@XZ	; GetDXUTState
	mov	ecx, eax
	call	?GetDeviceResetFunc@DXUTState@@QAEP6GJPAUIDirect3DDevice9@@PBU_D3DSURFACE_DESC@@PAX@ZXZ ; DXUTState::GetDeviceResetFunc
	mov	DWORD PTR _pCallbackDeviceReset$[ebp], eax

; 3250 :     hr = S_OK;

	mov	DWORD PTR _hr$[ebp], 0

; 3251 :     if( pCallbackDeviceReset != NULL )

	cmp	DWORD PTR _pCallbackDeviceReset$[ebp], 0
	je	SHORT $LN3@DXUTCreate

; 3252 :         hr = pCallbackDeviceReset( DXUTGetD3DDevice(), pbackBufferSurfaceDesc, GetDXUTState().GetDeviceResetFuncUserContext() );

	call	?GetDXUTState@@YAAAVDXUTState@@XZ	; GetDXUTState
	mov	ecx, eax
	call	?GetDeviceResetFuncUserContext@DXUTState@@QAEPAXXZ ; DXUTState::GetDeviceResetFuncUserContext
	mov	esi, esp
	push	eax
	mov	eax, DWORD PTR _pbackBufferSurfaceDesc$[ebp]
	push	eax
	call	?DXUTGetD3DDevice@@YAPAUIDirect3DDevice9@@XZ ; DXUTGetD3DDevice
	push	eax
	call	DWORD PTR _pCallbackDeviceReset$[ebp]
	cmp	esi, esp
	call	__RTC_CheckEsp
	mov	DWORD PTR _hr$[ebp], eax
$LN3@DXUTCreate:

; 3253 :     GetDXUTState().SetInsideDeviceCallback( false );

	push	0
	call	?GetDXUTState@@YAAAVDXUTState@@XZ	; GetDXUTState
	mov	ecx, eax
	call	?SetInsideDeviceCallback@DXUTState@@QAEX_N@Z ; DXUTState::SetInsideDeviceCallback

; 3254 :     if( DXUTGetD3DDevice() == NULL ) // Handle DXUTShutdown from inside callback

	call	?DXUTGetD3DDevice@@YAPAUIDirect3DDevice9@@XZ ; DXUTGetD3DDevice
	test	eax, eax
	jne	SHORT $LN2@DXUTCreate

; 3255 :         return E_FAIL;

	mov	eax, -2147467259			; 80004005H
	jmp	SHORT $LN15@DXUTCreate
$LN2@DXUTCreate:

; 3256 :     if( FAILED(hr) )

	cmp	DWORD PTR _hr$[ebp], 0
	jge	SHORT $LN1@DXUTCreate

; 3257 :     {
; 3258 :         DXUT_ERR( "DeviceReset callback", hr );

	push	0
	push	OFFSET ??_C@_0BF@LLKHGPAB@DeviceReset?5callback?$AA@
	mov	eax, DWORD PTR _hr$[ebp]
	push	eax
	mov	ecx, DWORD PTR ?__LINE__Var@?1??DXUTCreate3DEnvironment@@YAJPAUIDirect3DDevice9@@@Z@4JA
	add	ecx, 82					; 00000052H
	push	ecx
	push	OFFSET ??_C@_0CL@KBAHBIDF@z?3?2sampsrc?202xu1?2saco?2d3d9?2commo@
	call	?DXUTTrace@@YGJPBDKJ0_N@Z		; DXUTTrace

; 3259 :         return ( hr == DXUTERR_MEDIANOTFOUND ) ? DXUTERR_MEDIANOTFOUND : DXUTERR_RESETTINGDEVICEOBJECTS;

	cmp	DWORD PTR _hr$[ebp], -2147219197	; 80040903H
	jne	SHORT $LN21@DXUTCreate
	mov	DWORD PTR tv250[ebp], -2147219197	; 80040903H
	jmp	SHORT $LN22@DXUTCreate
$LN21@DXUTCreate:
	mov	DWORD PTR tv250[ebp], -2147219192	; 80040908H
$LN22@DXUTCreate:
	mov	eax, DWORD PTR tv250[ebp]
	jmp	SHORT $LN15@DXUTCreate
$LN1@DXUTCreate:

; 3260 :     }
; 3261 :     GetDXUTState().SetDeviceObjectsReset( true );

	push	1
	call	?GetDXUTState@@YAAAVDXUTState@@XZ	; GetDXUTState
	mov	ecx, eax
	call	?SetDeviceObjectsReset@DXUTState@@QAEX_N@Z ; DXUTState::SetDeviceObjectsReset

; 3262 : 
; 3263 :     return S_OK;

	xor	eax, eax
$LN15@DXUTCreate:

; 3264 : }

	push	edx
	mov	ecx, ebp
	push	eax
	lea	edx, DWORD PTR $LN25@DXUTCreate
	call	@_RTC_CheckStackVars@8
	pop	eax
	pop	edx
	pop	edi
	pop	esi
	pop	ebx
	add	esp, 304				; 00000130H
	cmp	ebp, esp
	call	__RTC_CheckEsp
	mov	esp, ebp
	pop	ebp
	ret	0
$LN25@DXUTCreate:
	DD	1
	DD	$LN24@DXUTCreate
$LN24@DXUTCreate:
	DD	-20					; ffffffecH
	DD	4
	DD	$LN23@DXUTCreate
$LN23@DXUTCreate:
	DB	112					; 00000070H
	DB	100					; 00000064H
	DB	51					; 00000033H
	DB	100					; 00000064H
	DB	68					; 00000044H
	DB	101					; 00000065H
	DB	118					; 00000076H
	DB	105					; 00000069H
	DB	99					; 00000063H
	DB	101					; 00000065H
	DB	0
?DXUTCreate3DEnvironment@@YAJPAUIDirect3DDevice9@@@Z ENDP ; DXUTCreate3DEnvironment
_TEXT	ENDS
; Function compile flags: /Odtp /RTCsu /ZI
; File z:\sampsrc\02xu1\saco\d3d9\common\dxut.cpp
;	COMDAT ?DXUTUpdateDeviceSettingsWithOverrides@@YAXPAUDXUTDeviceSettings@@@Z
_TEXT	SEGMENT
_pDeviceSettings$ = 8					; size = 4
?DXUTUpdateDeviceSettingsWithOverrides@@YAXPAUDXUTDeviceSettings@@@Z PROC ; DXUTUpdateDeviceSettingsWithOverrides, COMDAT

; 3132 : {

	push	ebp
	mov	ebp, esp
	sub	esp, 192				; 000000c0H
	push	ebx
	push	esi
	push	edi
	lea	edi, DWORD PTR [ebp-192]
	mov	ecx, 48					; 00000030H
	mov	eax, -858993460				; ccccccccH
	rep stosd

; 3133 :     if( GetDXUTState().GetOverrideAdapterOrdinal() != -1 )

	call	?GetDXUTState@@YAAAVDXUTState@@XZ	; GetDXUTState
	mov	ecx, eax
	call	?GetOverrideAdapterOrdinal@DXUTState@@QAEHXZ ; DXUTState::GetOverrideAdapterOrdinal
	cmp	eax, -1
	je	SHORT $LN13@DXUTUpdate

; 3134 :         pDeviceSettings->AdapterOrdinal = GetDXUTState().GetOverrideAdapterOrdinal();

	call	?GetDXUTState@@YAAAVDXUTState@@XZ	; GetDXUTState
	mov	ecx, eax
	call	?GetOverrideAdapterOrdinal@DXUTState@@QAEHXZ ; DXUTState::GetOverrideAdapterOrdinal
	mov	ecx, DWORD PTR _pDeviceSettings$[ebp]
	mov	DWORD PTR [ecx], eax
$LN13@DXUTUpdate:

; 3135 : 
; 3136 :     if( GetDXUTState().GetOverrideFullScreen() )

	call	?GetDXUTState@@YAAAVDXUTState@@XZ	; GetDXUTState
	mov	ecx, eax
	call	?GetOverrideFullScreen@DXUTState@@QAE_NXZ ; DXUTState::GetOverrideFullScreen
	movzx	eax, al
	test	eax, eax
	je	SHORT $LN12@DXUTUpdate

; 3137 :         pDeviceSettings->pp.Windowed = false;

	mov	eax, DWORD PTR _pDeviceSettings$[ebp]
	mov	DWORD PTR [eax+48], 0
$LN12@DXUTUpdate:

; 3138 :     if( GetDXUTState().GetOverrideWindowed() )

	call	?GetDXUTState@@YAAAVDXUTState@@XZ	; GetDXUTState
	mov	ecx, eax
	call	?GetOverrideWindowed@DXUTState@@QAE_NXZ	; DXUTState::GetOverrideWindowed
	movzx	eax, al
	test	eax, eax
	je	SHORT $LN11@DXUTUpdate

; 3139 :         pDeviceSettings->pp.Windowed = true;

	mov	eax, DWORD PTR _pDeviceSettings$[ebp]
	mov	DWORD PTR [eax+48], 1
$LN11@DXUTUpdate:

; 3140 : 
; 3141 :     if( GetDXUTState().GetOverrideForceREF() )

	call	?GetDXUTState@@YAAAVDXUTState@@XZ	; GetDXUTState
	mov	ecx, eax
	call	?GetOverrideForceREF@DXUTState@@QAE_NXZ	; DXUTState::GetOverrideForceREF
	movzx	eax, al
	test	eax, eax
	je	SHORT $LN10@DXUTUpdate

; 3142 :         pDeviceSettings->DeviceType = D3DDEVTYPE_REF;

	mov	eax, DWORD PTR _pDeviceSettings$[ebp]
	mov	DWORD PTR [eax+4], 2
	jmp	SHORT $LN9@DXUTUpdate
$LN10@DXUTUpdate:

; 3143 :     else if( GetDXUTState().GetOverrideForceHAL() )

	call	?GetDXUTState@@YAAAVDXUTState@@XZ	; GetDXUTState
	mov	ecx, eax
	call	?GetOverrideForceHAL@DXUTState@@QAE_NXZ	; DXUTState::GetOverrideForceHAL
	movzx	eax, al
	test	eax, eax
	je	SHORT $LN9@DXUTUpdate

; 3144 :         pDeviceSettings->DeviceType = D3DDEVTYPE_HAL;

	mov	eax, DWORD PTR _pDeviceSettings$[ebp]
	mov	DWORD PTR [eax+4], 1
$LN9@DXUTUpdate:

; 3145 : 
; 3146 :     if( GetDXUTState().GetOverrideWidth() != 0 )

	call	?GetDXUTState@@YAAAVDXUTState@@XZ	; GetDXUTState
	mov	ecx, eax
	call	?GetOverrideWidth@DXUTState@@QAEHXZ	; DXUTState::GetOverrideWidth
	test	eax, eax
	je	SHORT $LN7@DXUTUpdate

; 3147 :         pDeviceSettings->pp.BackBufferWidth = GetDXUTState().GetOverrideWidth();

	call	?GetDXUTState@@YAAAVDXUTState@@XZ	; GetDXUTState
	mov	ecx, eax
	call	?GetOverrideWidth@DXUTState@@QAEHXZ	; DXUTState::GetOverrideWidth
	mov	ecx, DWORD PTR _pDeviceSettings$[ebp]
	mov	DWORD PTR [ecx+16], eax
$LN7@DXUTUpdate:

; 3148 :     if( GetDXUTState().GetOverrideHeight() != 0 )

	call	?GetDXUTState@@YAAAVDXUTState@@XZ	; GetDXUTState
	mov	ecx, eax
	call	?GetOverrideHeight@DXUTState@@QAEHXZ	; DXUTState::GetOverrideHeight
	test	eax, eax
	je	SHORT $LN6@DXUTUpdate

; 3149 :         pDeviceSettings->pp.BackBufferHeight = GetDXUTState().GetOverrideHeight();

	call	?GetDXUTState@@YAAAVDXUTState@@XZ	; GetDXUTState
	mov	ecx, eax
	call	?GetOverrideHeight@DXUTState@@QAEHXZ	; DXUTState::GetOverrideHeight
	mov	ecx, DWORD PTR _pDeviceSettings$[ebp]
	mov	DWORD PTR [ecx+20], eax
$LN6@DXUTUpdate:

; 3150 : 
; 3151 :     if( GetDXUTState().GetOverrideForcePureHWVP() )

	call	?GetDXUTState@@YAAAVDXUTState@@XZ	; GetDXUTState
	mov	ecx, eax
	call	?GetOverrideForcePureHWVP@DXUTState@@QAE_NXZ ; DXUTState::GetOverrideForcePureHWVP
	movzx	eax, al
	test	eax, eax
	je	SHORT $LN5@DXUTUpdate

; 3152 :     {
; 3153 :         pDeviceSettings->BehaviorFlags &= ~D3DCREATE_SOFTWARE_VERTEXPROCESSING;

	mov	eax, DWORD PTR _pDeviceSettings$[ebp]
	mov	ecx, DWORD PTR [eax+12]
	and	ecx, -33				; ffffffdfH
	mov	edx, DWORD PTR _pDeviceSettings$[ebp]
	mov	DWORD PTR [edx+12], ecx

; 3154 :         pDeviceSettings->BehaviorFlags |= D3DCREATE_HARDWARE_VERTEXPROCESSING;

	mov	eax, DWORD PTR _pDeviceSettings$[ebp]
	mov	ecx, DWORD PTR [eax+12]
	or	ecx, 64					; 00000040H
	mov	edx, DWORD PTR _pDeviceSettings$[ebp]
	mov	DWORD PTR [edx+12], ecx

; 3155 :         pDeviceSettings->BehaviorFlags |= D3DCREATE_PUREDEVICE;

	mov	eax, DWORD PTR _pDeviceSettings$[ebp]
	mov	ecx, DWORD PTR [eax+12]
	or	ecx, 16					; 00000010H
	mov	edx, DWORD PTR _pDeviceSettings$[ebp]
	mov	DWORD PTR [edx+12], ecx
	jmp	$LN14@DXUTUpdate
$LN5@DXUTUpdate:

; 3156 :     }
; 3157 :     else if( GetDXUTState().GetOverrideForceHWVP() )

	call	?GetDXUTState@@YAAAVDXUTState@@XZ	; GetDXUTState
	mov	ecx, eax
	call	?GetOverrideForceHWVP@DXUTState@@QAE_NXZ ; DXUTState::GetOverrideForceHWVP
	movzx	eax, al
	test	eax, eax
	je	SHORT $LN3@DXUTUpdate

; 3158 :     {
; 3159 :         pDeviceSettings->BehaviorFlags &= ~D3DCREATE_SOFTWARE_VERTEXPROCESSING;

	mov	eax, DWORD PTR _pDeviceSettings$[ebp]
	mov	ecx, DWORD PTR [eax+12]
	and	ecx, -33				; ffffffdfH
	mov	edx, DWORD PTR _pDeviceSettings$[ebp]
	mov	DWORD PTR [edx+12], ecx

; 3160 :         pDeviceSettings->BehaviorFlags &= ~D3DCREATE_PUREDEVICE;

	mov	eax, DWORD PTR _pDeviceSettings$[ebp]
	mov	ecx, DWORD PTR [eax+12]
	and	ecx, -17				; ffffffefH
	mov	edx, DWORD PTR _pDeviceSettings$[ebp]
	mov	DWORD PTR [edx+12], ecx

; 3161 :         pDeviceSettings->BehaviorFlags |= D3DCREATE_HARDWARE_VERTEXPROCESSING;

	mov	eax, DWORD PTR _pDeviceSettings$[ebp]
	mov	ecx, DWORD PTR [eax+12]
	or	ecx, 64					; 00000040H
	mov	edx, DWORD PTR _pDeviceSettings$[ebp]
	mov	DWORD PTR [edx+12], ecx
	jmp	SHORT $LN14@DXUTUpdate
$LN3@DXUTUpdate:

; 3162 :     }
; 3163 :     else if( GetDXUTState().GetOverrideForceSWVP() )

	call	?GetDXUTState@@YAAAVDXUTState@@XZ	; GetDXUTState
	mov	ecx, eax
	call	?GetOverrideForceSWVP@DXUTState@@QAE_NXZ ; DXUTState::GetOverrideForceSWVP
	movzx	eax, al
	test	eax, eax
	je	SHORT $LN14@DXUTUpdate

; 3164 :     {
; 3165 :         pDeviceSettings->BehaviorFlags &= ~D3DCREATE_HARDWARE_VERTEXPROCESSING;

	mov	eax, DWORD PTR _pDeviceSettings$[ebp]
	mov	ecx, DWORD PTR [eax+12]
	and	ecx, -65				; ffffffbfH
	mov	edx, DWORD PTR _pDeviceSettings$[ebp]
	mov	DWORD PTR [edx+12], ecx

; 3166 :         pDeviceSettings->BehaviorFlags &= ~D3DCREATE_PUREDEVICE;

	mov	eax, DWORD PTR _pDeviceSettings$[ebp]
	mov	ecx, DWORD PTR [eax+12]
	and	ecx, -17				; ffffffefH
	mov	edx, DWORD PTR _pDeviceSettings$[ebp]
	mov	DWORD PTR [edx+12], ecx

; 3167 :         pDeviceSettings->BehaviorFlags |= D3DCREATE_SOFTWARE_VERTEXPROCESSING;

	mov	eax, DWORD PTR _pDeviceSettings$[ebp]
	mov	ecx, DWORD PTR [eax+12]
	or	ecx, 32					; 00000020H
	mov	edx, DWORD PTR _pDeviceSettings$[ebp]
	mov	DWORD PTR [edx+12], ecx
$LN14@DXUTUpdate:

; 3168 :     }
; 3169 : }

	pop	edi
	pop	esi
	pop	ebx
	add	esp, 192				; 000000c0H
	cmp	ebp, esp
	call	__RTC_CheckEsp
	mov	esp, ebp
	pop	ebp
	ret	0
?DXUTUpdateDeviceSettingsWithOverrides@@YAXPAUDXUTDeviceSettings@@@Z ENDP ; DXUTUpdateDeviceSettingsWithOverrides
_TEXT	ENDS
; Function compile flags: /Odtp /RTCsu /ZI
; File z:\sampsrc\02xu1\saco\d3d9\common\dxut.cpp
;	COMDAT ?DXUTChangeDevice@@YAJPAUDXUTDeviceSettings@@PAUIDirect3DDevice9@@_N2@Z
_TEXT	SEGMENT
tv678 = -1696						; size = 4
tv601 = -1696						; size = 4
tv543 = -1696						; size = 4
tv497 = -1696						; size = 4
tv434 = -1696						; size = 4
tv348 = -1696						; size = 4
tv150 = -1696						; size = 4
tv331 = -1693						; size = 1
$T1 = -1688						; size = 4
$T2 = -1676						; size = 4
$T3 = -1664						; size = 4
$T4 = -1652						; size = 4
$T5 = -1640						; size = 4
$T6 = -1628						; size = 4
$T7 = -1616						; size = 4
$T8 = -1604						; size = 72
$T9 = -1524						; size = 72
$T10 = -1444						; size = 4
$T11 = -1432						; size = 4
_deviceSettings$12 = -1228				; size = 72
_nClientHeight$13 = -1148				; size = 4
_nClientWidth$14 = -1136				; size = 4
_rcClient$15 = -1124					; size = 16
_cy$16 = -1100						; size = 4
_cx$17 = -1088						; size = 4
_rcWindow$18 = -1076					; size = 16
_nWindowOffsetY$19 = -1052				; size = 4
_nWindowOffsetX$20 = -1040				; size = 4
_nWindowHeight$21 = -1028				; size = 4
_nWindowWidth$22 = -1016				; size = 4
_rcResizedWindow$23 = -1004				; size = 16
_rcWindow$24 = -980					; size = 16
_nClientHeight$25 = -956				; size = 4
_nClientWidth$26 = -944					; size = 4
_nAdapterMonitorHeight$27 = -932			; size = 4
_nAdapterMonitorWidth$28 = -920				; size = 4
_miWindow$29 = -908					; size = 40
_miAdapter$30 = -860					; size = 40
_rcWindow$31 = -812					; size = 16
_hWindowMonitor$32 = -788				; size = 4
_hAdapterMonitor$33 = -776				; size = 4
_miAdapter$34 = -764					; size = 40
_rcClient$35 = -716					; size = 16
_nFrameHeight$36 = -692					; size = 4
_nFrameWidth$37 = -680					; size = 4
_rcFrame$38 = -668					; size = 16
_rcClient$39 = -644					; size = 16
_wp$40 = -620						; size = 44
_nClientHeight$41 = -568				; size = 4
_nClientWidth$42 = -556					; size = 4
_bNeedToResize$ = -541					; size = 1
_pwp$43 = -532						; size = 4
_pd3dCaps$ = -520					; size = 4
_hAdapterMonitor$ = -508				; size = 4
_pD3D$ = -496						; size = 4
_wpFullscreen$44 = -484					; size = 44
_hMenu$45 = -432					; size = 4
_dwStyle$46 = -420					; size = 4
_pwp$47 = -408						; size = 4
_bKeepCurrentWindowSize$ = -393				; size = 1
_bContinue$48 = -381					; size = 1
_pD3D$49 = -372						; size = 4
_caps$50 = -360						; size = 304
_pCallbackModifyDeviceSettings$ = -48			; size = 4
_pNewDeviceSettingsOnHeap$ = -36			; size = 4
_pOldDeviceSettings$ = -24				; size = 4
_hr$ = -12						; size = 4
__$ArrayPad$ = -4					; size = 4
_pNewDeviceSettings$ = 8				; size = 4
_pd3dDeviceFromApp$ = 12				; size = 4
_bForceRecreate$ = 16					; size = 1
_bClipWindowToSingleAdapter$ = 20			; size = 1
?DXUTChangeDevice@@YAJPAUDXUTDeviceSettings@@PAUIDirect3DDevice9@@_N2@Z PROC ; DXUTChangeDevice, COMDAT

; 2628 : {

	push	ebp
	mov	ebp, esp
	sub	esp, 1696				; 000006a0H
	push	ebx
	push	esi
	push	edi
	lea	edi, DWORD PTR [ebp-1696]
	mov	ecx, 424				; 000001a8H
	mov	eax, -858993460				; ccccccccH
	rep stosd
	mov	eax, DWORD PTR ___security_cookie
	xor	eax, ebp
	mov	DWORD PTR __$ArrayPad$[ebp], eax

; 2629 :     HRESULT hr;
; 2630 :     DXUTDeviceSettings* pOldDeviceSettings = GetDXUTState().GetCurrentDeviceSettings();

	call	?GetDXUTState@@YAAAVDXUTState@@XZ	; GetDXUTState
	mov	ecx, eax
	call	?GetCurrentDeviceSettings@DXUTState@@QAEPAUDXUTDeviceSettings@@XZ ; DXUTState::GetCurrentDeviceSettings
	mov	DWORD PTR _pOldDeviceSettings$[ebp], eax

; 2631 : 
; 2632 :     if( DXUTGetD3DObject() == NULL )

	call	?DXUTGetD3DObject@@YAPAUIDirect3D9@@XZ	; DXUTGetD3DObject
	test	eax, eax
	jne	SHORT $LN66@DXUTChange

; 2633 :         return S_FALSE;

	mov	eax, 1
	jmp	$LN67@DXUTChange
$LN66@DXUTChange:

; 2634 : 
; 2635 :     // Make a copy of the pNewDeviceSettings on the heap
; 2636 :     DXUTDeviceSettings* pNewDeviceSettingsOnHeap = new DXUTDeviceSettings;

	push	72					; 00000048H
	call	??2@YAPAXI@Z				; operator new
	add	esp, 4
	mov	DWORD PTR $T1[ebp], eax
	mov	eax, DWORD PTR $T1[ebp]
	mov	DWORD PTR _pNewDeviceSettingsOnHeap$[ebp], eax

; 2637 :     if( pNewDeviceSettingsOnHeap == NULL )

	cmp	DWORD PTR _pNewDeviceSettingsOnHeap$[ebp], 0
	jne	SHORT $LN65@DXUTChange

; 2638 :         return E_OUTOFMEMORY;

	mov	eax, -2147024882			; 8007000eH
	jmp	$LN67@DXUTChange
$LN65@DXUTChange:

; 2639 :     memcpy( pNewDeviceSettingsOnHeap, pNewDeviceSettings, sizeof(DXUTDeviceSettings) );

	push	72					; 00000048H
	mov	eax, DWORD PTR _pNewDeviceSettings$[ebp]
	push	eax
	mov	ecx, DWORD PTR _pNewDeviceSettingsOnHeap$[ebp]
	push	ecx
	call	_memcpy
	add	esp, 12					; 0000000cH

; 2640 :     pNewDeviceSettings = pNewDeviceSettingsOnHeap;

	mov	eax, DWORD PTR _pNewDeviceSettingsOnHeap$[ebp]
	mov	DWORD PTR _pNewDeviceSettings$[ebp], eax

; 2641 : 
; 2642 :     // If the ModifyDeviceSettings callback is non-NULL, then call it to let the app 
; 2643 :     // change the settings or reject the device change by returning false.
; 2644 :     LPDXUTCALLBACKMODIFYDEVICESETTINGS pCallbackModifyDeviceSettings = GetDXUTState().GetModifyDeviceSettingsFunc();

	call	?GetDXUTState@@YAAAVDXUTState@@XZ	; GetDXUTState
	mov	ecx, eax
	call	?GetModifyDeviceSettingsFunc@DXUTState@@QAEP6G_NPAUDXUTDeviceSettings@@PBU_D3DCAPS9@@PAX@ZXZ ; DXUTState::GetModifyDeviceSettingsFunc
	mov	DWORD PTR _pCallbackModifyDeviceSettings$[ebp], eax

; 2645 :     if( pCallbackModifyDeviceSettings )

	cmp	DWORD PTR _pCallbackModifyDeviceSettings$[ebp], 0
	je	$LN64@DXUTChange

; 2646 :     {
; 2647 :         D3DCAPS9 caps;
; 2648 :         IDirect3D9* pD3D = DXUTGetD3DObject();

	call	?DXUTGetD3DObject@@YAPAUIDirect3D9@@XZ	; DXUTGetD3DObject
	mov	DWORD PTR _pD3D$49[ebp], eax

; 2649 :         pD3D->GetDeviceCaps( pNewDeviceSettings->AdapterOrdinal, pNewDeviceSettings->DeviceType, &caps );

	mov	esi, esp
	lea	eax, DWORD PTR _caps$50[ebp]
	push	eax
	mov	ecx, DWORD PTR _pNewDeviceSettings$[ebp]
	mov	edx, DWORD PTR [ecx+4]
	push	edx
	mov	eax, DWORD PTR _pNewDeviceSettings$[ebp]
	mov	ecx, DWORD PTR [eax]
	push	ecx
	mov	edx, DWORD PTR _pD3D$49[ebp]
	mov	eax, DWORD PTR [edx]
	mov	ecx, DWORD PTR _pD3D$49[ebp]
	push	ecx
	mov	edx, DWORD PTR [eax+56]
	call	edx
	cmp	esi, esp
	call	__RTC_CheckEsp

; 2650 : 
; 2651 :         bool bContinue = pCallbackModifyDeviceSettings( pNewDeviceSettings, &caps, GetDXUTState().GetModifyDeviceSettingsFuncUserContext() );

	call	?GetDXUTState@@YAAAVDXUTState@@XZ	; GetDXUTState
	mov	ecx, eax
	call	?GetModifyDeviceSettingsFuncUserContext@DXUTState@@QAEPAXXZ ; DXUTState::GetModifyDeviceSettingsFuncUserContext
	mov	esi, esp
	push	eax
	lea	eax, DWORD PTR _caps$50[ebp]
	push	eax
	mov	ecx, DWORD PTR _pNewDeviceSettings$[ebp]
	push	ecx
	call	DWORD PTR _pCallbackModifyDeviceSettings$[ebp]
	cmp	esi, esp
	call	__RTC_CheckEsp
	mov	BYTE PTR _bContinue$48[ebp], al

; 2652 :         if( !bContinue )

	movzx	eax, BYTE PTR _bContinue$48[ebp]
	test	eax, eax
	jne	SHORT $LN63@DXUTChange

; 2653 :         {
; 2654 :             // The app rejected the device change by returning false, so just use the current device if there is one.
; 2655 :             if( pOldDeviceSettings == NULL )

	cmp	DWORD PTR _pOldDeviceSettings$[ebp], 0
	jne	SHORT $LN62@DXUTChange

; 2656 :                 DXUTDisplayErrorMessage( DXUTERR_NOCOMPATIBLEDEVICES );

	push	-2147219198				; 80040902H
	call	?DXUTDisplayErrorMessage@@YAXJ@Z	; DXUTDisplayErrorMessage
	add	esp, 4
$LN62@DXUTChange:

; 2657 :             SAFE_DELETE( pNewDeviceSettings );

	cmp	DWORD PTR _pNewDeviceSettings$[ebp], 0
	je	SHORT $LN61@DXUTChange
	mov	eax, DWORD PTR _pNewDeviceSettings$[ebp]
	mov	DWORD PTR $T2[ebp], eax
	mov	ecx, DWORD PTR $T2[ebp]
	push	ecx
	call	??3@YAXPAX@Z				; operator delete
	add	esp, 4
	mov	DWORD PTR _pNewDeviceSettings$[ebp], 0
$LN61@DXUTChange:

; 2658 :             return E_ABORT;

	mov	eax, -2147467260			; 80004004H
	jmp	$LN67@DXUTChange
$LN63@DXUTChange:

; 2659 :         }
; 2660 :         if( GetDXUTState().GetD3D() == NULL )

	call	?GetDXUTState@@YAAAVDXUTState@@XZ	; GetDXUTState
	mov	ecx, eax
	call	?GetD3D@DXUTState@@QAEPAUIDirect3D9@@XZ	; DXUTState::GetD3D
	test	eax, eax
	jne	SHORT $LN64@DXUTChange

; 2661 :         {
; 2662 :             SAFE_DELETE( pNewDeviceSettings );

	cmp	DWORD PTR _pNewDeviceSettings$[ebp], 0
	je	SHORT $LN59@DXUTChange
	mov	eax, DWORD PTR _pNewDeviceSettings$[ebp]
	mov	DWORD PTR $T3[ebp], eax
	mov	ecx, DWORD PTR $T3[ebp]
	push	ecx
	call	??3@YAXPAX@Z				; operator delete
	add	esp, 4
	mov	DWORD PTR _pNewDeviceSettings$[ebp], 0
$LN59@DXUTChange:

; 2663 :             return S_FALSE;

	mov	eax, 1
	jmp	$LN67@DXUTChange
$LN64@DXUTChange:

; 2664 :         }
; 2665 :     }
; 2666 : 
; 2667 :     GetDXUTState().SetCurrentDeviceSettings( pNewDeviceSettings );

	mov	eax, DWORD PTR _pNewDeviceSettings$[ebp]
	push	eax
	call	?GetDXUTState@@YAAAVDXUTState@@XZ	; GetDXUTState
	mov	ecx, eax
	call	?SetCurrentDeviceSettings@DXUTState@@QAEXPAUDXUTDeviceSettings@@@Z ; DXUTState::SetCurrentDeviceSettings

; 2668 : 
; 2669 :     DXUTPause( true, true );

	push	1
	push	1
	call	?DXUTPause@@YAX_N0@Z			; DXUTPause
	add	esp, 8

; 2670 : 
; 2671 :     // When a WM_SIZE message is received, it calls DXUTCheckForWindowSizeChange().
; 2672 :     // A WM_SIZE message might be sent when adjusting the window, so tell 
; 2673 :     // DXUTCheckForWindowSizeChange() to ignore size changes temporarily
; 2674 :     GetDXUTState().SetIgnoreSizeChange( true );

	push	1
	call	?GetDXUTState@@YAAAVDXUTState@@XZ	; GetDXUTState
	mov	ecx, eax
	call	?SetIgnoreSizeChange@DXUTState@@QAEX_N@Z ; DXUTState::SetIgnoreSizeChange

; 2675 : 
; 2676 :     // Update thread safety on/off depending on Direct3D device's thread safety
; 2677 :     g_bThreadSafe = ((pNewDeviceSettings->BehaviorFlags & D3DCREATE_MULTITHREADED) != 0 );

	mov	eax, DWORD PTR _pNewDeviceSettings$[ebp]
	mov	ecx, DWORD PTR [eax+12]
	and	ecx, 4
	je	SHORT $LN69@DXUTChange
	mov	DWORD PTR tv150[ebp], 1
	jmp	SHORT $LN70@DXUTChange
$LN69@DXUTChange:
	mov	DWORD PTR tv150[ebp], 0
$LN70@DXUTChange:
	mov	dl, BYTE PTR tv150[ebp]
	mov	BYTE PTR ?g_bThreadSafe@@3_NA, dl	; g_bThreadSafe

; 2678 : 
; 2679 :     // Only apply the cmd line overrides if this is the first device created
; 2680 :     // and DXUTSetDevice() isn't used
; 2681 :     if( NULL == pd3dDeviceFromApp && NULL == pOldDeviceSettings )

	cmp	DWORD PTR _pd3dDeviceFromApp$[ebp], 0
	jne	SHORT $LN58@DXUTChange
	cmp	DWORD PTR _pOldDeviceSettings$[ebp], 0
	jne	SHORT $LN58@DXUTChange

; 2682 :     {
; 2683 :         // Updates the device settings struct based on the cmd line args.  
; 2684 :         // Warning: if the device doesn't support these new settings then CreateDevice() will fail.
; 2685 :         DXUTUpdateDeviceSettingsWithOverrides( pNewDeviceSettings );

	mov	eax, DWORD PTR _pNewDeviceSettings$[ebp]
	push	eax
	call	?DXUTUpdateDeviceSettingsWithOverrides@@YAXPAUDXUTDeviceSettings@@@Z ; DXUTUpdateDeviceSettingsWithOverrides
	add	esp, 4
$LN58@DXUTChange:

; 2686 :     }
; 2687 : 
; 2688 :     // Take note if the backbuffer width & height are 0 now as they will change after pd3dDevice->Reset()
; 2689 :     bool bKeepCurrentWindowSize = false;

	mov	BYTE PTR _bKeepCurrentWindowSize$[ebp], 0

; 2690 :     if( pNewDeviceSettings->pp.BackBufferWidth == 0 && pNewDeviceSettings->pp.BackBufferHeight == 0 )

	mov	eax, DWORD PTR _pNewDeviceSettings$[ebp]
	cmp	DWORD PTR [eax+16], 0
	jne	SHORT $LN57@DXUTChange
	mov	eax, DWORD PTR _pNewDeviceSettings$[ebp]
	cmp	DWORD PTR [eax+20], 0
	jne	SHORT $LN57@DXUTChange

; 2691 :         bKeepCurrentWindowSize = true;

	mov	BYTE PTR _bKeepCurrentWindowSize$[ebp], 1
$LN57@DXUTChange:

; 2692 : 
; 2693 :     //////////////////////////
; 2694 :     // Before reset
; 2695 :     /////////////////////////
; 2696 :     if( pNewDeviceSettings->pp.Windowed )

	mov	eax, DWORD PTR _pNewDeviceSettings$[ebp]
	cmp	DWORD PTR [eax+48], 0
	je	$LN56@DXUTChange

; 2697 :     {
; 2698 :         // Going to windowed mode
; 2699 : 
; 2700 :         if( pOldDeviceSettings && !pOldDeviceSettings->pp.Windowed )

	cmp	DWORD PTR _pOldDeviceSettings$[ebp], 0
	je	SHORT $LN55@DXUTChange
	mov	eax, DWORD PTR _pOldDeviceSettings$[ebp]
	cmp	DWORD PTR [eax+48], 0
	jne	SHORT $LN55@DXUTChange

; 2701 :         {
; 2702 :             // Going from fullscreen -> windowed
; 2703 :             GetDXUTState().SetFullScreenBackBufferWidthAtModeChange( pOldDeviceSettings->pp.BackBufferWidth );

	mov	eax, DWORD PTR _pOldDeviceSettings$[ebp]
	mov	ecx, DWORD PTR [eax+16]
	push	ecx
	call	?GetDXUTState@@YAAAVDXUTState@@XZ	; GetDXUTState
	mov	ecx, eax
	call	?SetFullScreenBackBufferWidthAtModeChange@DXUTState@@QAEXI@Z ; DXUTState::SetFullScreenBackBufferWidthAtModeChange

; 2704 :             GetDXUTState().SetFullScreenBackBufferHeightAtModeChange( pOldDeviceSettings->pp.BackBufferHeight );

	mov	eax, DWORD PTR _pOldDeviceSettings$[ebp]
	mov	ecx, DWORD PTR [eax+20]
	push	ecx
	call	?GetDXUTState@@YAAAVDXUTState@@XZ	; GetDXUTState
	mov	ecx, eax
	call	?SetFullScreenBackBufferHeightAtModeChange@DXUTState@@QAEXI@Z ; DXUTState::SetFullScreenBackBufferHeightAtModeChange

; 2705 : 
; 2706 :             // Restore windowed mode style
; 2707 :             SetWindowLong( DXUTGetHWNDDeviceWindowed(), GWL_STYLE, GetDXUTState().GetWindowedStyleAtModeChange() );

	call	?GetDXUTState@@YAAAVDXUTState@@XZ	; GetDXUTState
	mov	ecx, eax
	call	?GetWindowedStyleAtModeChange@DXUTState@@QAEKXZ ; DXUTState::GetWindowedStyleAtModeChange
	mov	esi, esp
	push	eax
	push	-16					; fffffff0H
	call	?DXUTGetHWNDDeviceWindowed@@YAPAUHWND__@@XZ ; DXUTGetHWNDDeviceWindowed
	push	eax
	call	DWORD PTR __imp__SetWindowLongA@12
	cmp	esi, esp
	call	__RTC_CheckEsp
$LN55@DXUTChange:

; 2708 :         }
; 2709 : 
; 2710 :         // If different device windows are used for windowed mode and fullscreen mode,
; 2711 :         // hide the fullscreen window so that it doesn't obscure the screen.
; 2712 :         if( DXUTGetHWNDDeviceFullScreen() != DXUTGetHWNDDeviceWindowed() )

	call	?DXUTGetHWNDDeviceFullScreen@@YAPAUHWND__@@XZ ; DXUTGetHWNDDeviceFullScreen
	mov	esi, eax
	call	?DXUTGetHWNDDeviceWindowed@@YAPAUHWND__@@XZ ; DXUTGetHWNDDeviceWindowed
	cmp	esi, eax
	je	SHORT $LN54@DXUTChange

; 2713 :             ShowWindow( DXUTGetHWNDDeviceFullScreen(), SW_HIDE );

	mov	esi, esp
	push	0
	call	?DXUTGetHWNDDeviceFullScreen@@YAPAUHWND__@@XZ ; DXUTGetHWNDDeviceFullScreen
	push	eax
	call	DWORD PTR __imp__ShowWindow@8
	cmp	esi, esp
	call	__RTC_CheckEsp
$LN54@DXUTChange:

; 2714 : 
; 2715 :         // If using the same window for windowed and fullscreen mode, reattach menu if one exists
; 2716 :         if( DXUTGetHWNDDeviceFullScreen() == DXUTGetHWNDDeviceWindowed() )

	call	?DXUTGetHWNDDeviceFullScreen@@YAPAUHWND__@@XZ ; DXUTGetHWNDDeviceFullScreen
	mov	esi, eax
	call	?DXUTGetHWNDDeviceWindowed@@YAPAUHWND__@@XZ ; DXUTGetHWNDDeviceWindowed
	cmp	esi, eax
	jne	SHORT $LN53@DXUTChange

; 2717 :         {
; 2718 :             if( GetDXUTState().GetMenu() != NULL )

	call	?GetDXUTState@@YAAAVDXUTState@@XZ	; GetDXUTState
	mov	ecx, eax
	call	?GetMenu@DXUTState@@QAEPAUHMENU__@@XZ	; DXUTState::GetMenu
	test	eax, eax
	je	SHORT $LN53@DXUTChange

; 2719 :                 SetMenu( DXUTGetHWNDDeviceWindowed(), GetDXUTState().GetMenu() );

	call	?GetDXUTState@@YAAAVDXUTState@@XZ	; GetDXUTState
	mov	ecx, eax
	call	?GetMenu@DXUTState@@QAEPAUHMENU__@@XZ	; DXUTState::GetMenu
	mov	esi, esp
	push	eax
	call	?DXUTGetHWNDDeviceWindowed@@YAPAUHWND__@@XZ ; DXUTGetHWNDDeviceWindowed
	push	eax
	call	DWORD PTR __imp__SetMenu@8
	cmp	esi, esp
	call	__RTC_CheckEsp
$LN53@DXUTChange:

; 2720 :         }
; 2721 :     }
; 2722 :     else 

	jmp	$LN51@DXUTChange
$LN56@DXUTChange:

; 2723 :     {
; 2724 :         // Going to fullscreen mode
; 2725 : 
; 2726 :         if( pOldDeviceSettings == NULL || (pOldDeviceSettings && pOldDeviceSettings->pp.Windowed) )

	cmp	DWORD PTR _pOldDeviceSettings$[ebp], 0
	je	SHORT $LN49@DXUTChange
	cmp	DWORD PTR _pOldDeviceSettings$[ebp], 0
	je	$LN50@DXUTChange
	mov	eax, DWORD PTR _pOldDeviceSettings$[ebp]
	cmp	DWORD PTR [eax+48], 0
	je	$LN50@DXUTChange
$LN49@DXUTChange:

; 2727 :         {
; 2728 :             // Transistioning to full screen mode from a standard window so 
; 2729 :             // save current window position/size/style now in case the user toggles to windowed mode later 
; 2730 :             WINDOWPLACEMENT* pwp = GetDXUTState().GetWindowedPlacement();

	call	?GetDXUTState@@YAAAVDXUTState@@XZ	; GetDXUTState
	mov	ecx, eax
	call	?GetWindowedPlacement@DXUTState@@QAEPAUtagWINDOWPLACEMENT@@XZ ; DXUTState::GetWindowedPlacement
	mov	DWORD PTR _pwp$47[ebp], eax

; 2731 :             ZeroMemory( pwp, sizeof(WINDOWPLACEMENT) );

	push	44					; 0000002cH
	push	0
	mov	eax, DWORD PTR _pwp$47[ebp]
	push	eax
	call	_memset
	add	esp, 12					; 0000000cH

; 2732 :             pwp->length = sizeof(WINDOWPLACEMENT);

	mov	eax, DWORD PTR _pwp$47[ebp]
	mov	DWORD PTR [eax], 44			; 0000002cH

; 2733 :             GetWindowPlacement( DXUTGetHWNDDeviceWindowed(), pwp );

	mov	esi, esp
	mov	eax, DWORD PTR _pwp$47[ebp]
	push	eax
	call	?DXUTGetHWNDDeviceWindowed@@YAPAUHWND__@@XZ ; DXUTGetHWNDDeviceWindowed
	push	eax
	call	DWORD PTR __imp__GetWindowPlacement@8
	cmp	esi, esp
	call	__RTC_CheckEsp

; 2734 :             DWORD dwStyle = GetWindowLong( DXUTGetHWNDDeviceWindowed(), GWL_STYLE );

	mov	esi, esp
	push	-16					; fffffff0H
	call	?DXUTGetHWNDDeviceWindowed@@YAPAUHWND__@@XZ ; DXUTGetHWNDDeviceWindowed
	push	eax
	call	DWORD PTR __imp__GetWindowLongA@8
	cmp	esi, esp
	call	__RTC_CheckEsp
	mov	DWORD PTR _dwStyle$46[ebp], eax

; 2735 :             dwStyle &= ~WS_MAXIMIZE & ~WS_MINIMIZE; // remove minimize/maximize style

	mov	eax, DWORD PTR _dwStyle$46[ebp]
	and	eax, -553648129				; deffffffH
	mov	DWORD PTR _dwStyle$46[ebp], eax

; 2736 :             GetDXUTState().SetWindowedStyleAtModeChange( dwStyle );

	mov	eax, DWORD PTR _dwStyle$46[ebp]
	push	eax
	call	?GetDXUTState@@YAAAVDXUTState@@XZ	; GetDXUTState
	mov	ecx, eax
	call	?SetWindowedStyleAtModeChange@DXUTState@@QAEXK@Z ; DXUTState::SetWindowedStyleAtModeChange

; 2737 :             if( pOldDeviceSettings )

	cmp	DWORD PTR _pOldDeviceSettings$[ebp], 0
	je	SHORT $LN50@DXUTChange

; 2738 :             {
; 2739 :                 GetDXUTState().SetWindowBackBufferWidthAtModeChange( pOldDeviceSettings->pp.BackBufferWidth );

	mov	eax, DWORD PTR _pOldDeviceSettings$[ebp]
	mov	ecx, DWORD PTR [eax+16]
	push	ecx
	call	?GetDXUTState@@YAAAVDXUTState@@XZ	; GetDXUTState
	mov	ecx, eax
	call	?SetWindowBackBufferWidthAtModeChange@DXUTState@@QAEXI@Z ; DXUTState::SetWindowBackBufferWidthAtModeChange

; 2740 :                 GetDXUTState().SetWindowBackBufferHeightAtModeChange( pOldDeviceSettings->pp.BackBufferHeight );

	mov	eax, DWORD PTR _pOldDeviceSettings$[ebp]
	mov	ecx, DWORD PTR [eax+20]
	push	ecx
	call	?GetDXUTState@@YAAAVDXUTState@@XZ	; GetDXUTState
	mov	ecx, eax
	call	?SetWindowBackBufferHeightAtModeChange@DXUTState@@QAEXI@Z ; DXUTState::SetWindowBackBufferHeightAtModeChange
$LN50@DXUTChange:

; 2741 :             }
; 2742 :         }
; 2743 : 
; 2744 :         // Hide the window to avoid animation of blank windows
; 2745 :         ShowWindow( DXUTGetHWNDDeviceFullScreen(), SW_HIDE );

	mov	esi, esp
	push	0
	call	?DXUTGetHWNDDeviceFullScreen@@YAPAUHWND__@@XZ ; DXUTGetHWNDDeviceFullScreen
	push	eax
	call	DWORD PTR __imp__ShowWindow@8
	cmp	esi, esp
	call	__RTC_CheckEsp

; 2746 : 
; 2747 :         // Set FS window style
; 2748 :         SetWindowLong( DXUTGetHWNDDeviceFullScreen(), GWL_STYLE, WS_POPUP|WS_SYSMENU );

	mov	esi, esp
	push	-2146959360				; 80080000H
	push	-16					; fffffff0H
	call	?DXUTGetHWNDDeviceFullScreen@@YAPAUHWND__@@XZ ; DXUTGetHWNDDeviceFullScreen
	push	eax
	call	DWORD PTR __imp__SetWindowLongA@12
	cmp	esi, esp
	call	__RTC_CheckEsp

; 2749 : 
; 2750 :         // If using the same window for windowed and fullscreen mode, save and remove menu 
; 2751 :         if( DXUTGetHWNDDeviceFullScreen() == DXUTGetHWNDDeviceWindowed() )

	call	?DXUTGetHWNDDeviceFullScreen@@YAPAUHWND__@@XZ ; DXUTGetHWNDDeviceFullScreen
	mov	esi, eax
	call	?DXUTGetHWNDDeviceWindowed@@YAPAUHWND__@@XZ ; DXUTGetHWNDDeviceWindowed
	cmp	esi, eax
	jne	SHORT $LN47@DXUTChange

; 2752 :         {
; 2753 :             HMENU hMenu = GetMenu( DXUTGetHWNDDeviceFullScreen() );

	call	?DXUTGetHWNDDeviceFullScreen@@YAPAUHWND__@@XZ ; DXUTGetHWNDDeviceFullScreen
	mov	esi, esp
	push	eax
	call	DWORD PTR __imp__GetMenu@4
	cmp	esi, esp
	call	__RTC_CheckEsp
	mov	DWORD PTR _hMenu$45[ebp], eax

; 2754 :             GetDXUTState().SetMenu( hMenu );

	mov	eax, DWORD PTR _hMenu$45[ebp]
	push	eax
	call	?GetDXUTState@@YAAAVDXUTState@@XZ	; GetDXUTState
	mov	ecx, eax
	call	?SetMenu@DXUTState@@QAEXPAUHMENU__@@@Z	; DXUTState::SetMenu

; 2755 :             SetMenu( DXUTGetHWNDDeviceFullScreen(), NULL );

	mov	esi, esp
	push	0
	call	?DXUTGetHWNDDeviceFullScreen@@YAPAUHWND__@@XZ ; DXUTGetHWNDDeviceFullScreen
	push	eax
	call	DWORD PTR __imp__SetMenu@8
	cmp	esi, esp
	call	__RTC_CheckEsp
$LN47@DXUTChange:

; 2756 :         }
; 2757 : 
; 2758 :         // Restore the window to normal.  Note that if the window was maximized then minimized, the
; 2759 :         // WPF_RESTORETOMAXIMIZED flag will be set which will cause SW_RESTORE to restore the 
; 2760 :         // window from minimized to maxmized which isn't what we want right now.
; 2761 :         WINDOWPLACEMENT wpFullscreen;
; 2762 :         ZeroMemory( &wpFullscreen, sizeof(WINDOWPLACEMENT) );

	push	44					; 0000002cH
	push	0
	lea	eax, DWORD PTR _wpFullscreen$44[ebp]
	push	eax
	call	_memset
	add	esp, 12					; 0000000cH

; 2763 :         wpFullscreen.length = sizeof(WINDOWPLACEMENT);

	mov	DWORD PTR _wpFullscreen$44[ebp], 44	; 0000002cH

; 2764 :         GetWindowPlacement( DXUTGetHWNDDeviceFullScreen(), &wpFullscreen );

	mov	esi, esp
	lea	eax, DWORD PTR _wpFullscreen$44[ebp]
	push	eax
	call	?DXUTGetHWNDDeviceFullScreen@@YAPAUHWND__@@XZ ; DXUTGetHWNDDeviceFullScreen
	push	eax
	call	DWORD PTR __imp__GetWindowPlacement@8
	cmp	esi, esp
	call	__RTC_CheckEsp

; 2765 :         wpFullscreen.flags &= ~WPF_RESTORETOMAXIMIZED;

	mov	eax, DWORD PTR _wpFullscreen$44[ebp+4]
	and	eax, -3					; fffffffdH
	mov	DWORD PTR _wpFullscreen$44[ebp+4], eax

; 2766 :         wpFullscreen.showCmd = SW_RESTORE;

	mov	DWORD PTR _wpFullscreen$44[ebp+8], 9

; 2767 :         SetWindowPlacement( DXUTGetHWNDDeviceFullScreen(), &wpFullscreen );

	mov	esi, esp
	lea	eax, DWORD PTR _wpFullscreen$44[ebp]
	push	eax
	call	?DXUTGetHWNDDeviceFullScreen@@YAPAUHWND__@@XZ ; DXUTGetHWNDDeviceFullScreen
	push	eax
	call	DWORD PTR __imp__SetWindowPlacement@8
	cmp	esi, esp
	call	__RTC_CheckEsp
$LN51@DXUTChange:

; 2768 :     }
; 2769 : 
; 2770 :     // If AdapterOrdinal and DeviceType are the same, we can just do a Reset().
; 2771 :     // If they've changed, we need to do a complete device tear down/rebuild.
; 2772 :     // Also only allow a reset if pd3dDevice is the same as the current device 
; 2773 :     if( !bForceRecreate && 
; 2774 :         (pd3dDeviceFromApp == NULL || pd3dDeviceFromApp == DXUTGetD3DDevice()) && 
; 2775 :         pOldDeviceSettings &&
; 2776 :         pOldDeviceSettings->AdapterOrdinal == pNewDeviceSettings->AdapterOrdinal &&
; 2777 :         pOldDeviceSettings->DeviceType == pNewDeviceSettings->DeviceType &&
; 2778 :         pOldDeviceSettings->BehaviorFlags == pNewDeviceSettings->BehaviorFlags )

	movzx	eax, BYTE PTR _bForceRecreate$[ebp]
	test	eax, eax
	jne	$LN46@DXUTChange
	cmp	DWORD PTR _pd3dDeviceFromApp$[ebp], 0
	je	SHORT $LN45@DXUTChange
	call	?DXUTGetD3DDevice@@YAPAUIDirect3DDevice9@@XZ ; DXUTGetD3DDevice
	cmp	DWORD PTR _pd3dDeviceFromApp$[ebp], eax
	jne	$LN46@DXUTChange
$LN45@DXUTChange:
	cmp	DWORD PTR _pOldDeviceSettings$[ebp], 0
	je	$LN46@DXUTChange
	mov	eax, DWORD PTR _pOldDeviceSettings$[ebp]
	mov	ecx, DWORD PTR _pNewDeviceSettings$[ebp]
	mov	edx, DWORD PTR [eax]
	cmp	edx, DWORD PTR [ecx]
	jne	$LN46@DXUTChange
	mov	eax, DWORD PTR _pOldDeviceSettings$[ebp]
	mov	ecx, DWORD PTR _pNewDeviceSettings$[ebp]
	mov	edx, DWORD PTR [eax+4]
	cmp	edx, DWORD PTR [ecx+4]
	jne	$LN46@DXUTChange
	mov	eax, DWORD PTR _pOldDeviceSettings$[ebp]
	mov	ecx, DWORD PTR _pNewDeviceSettings$[ebp]
	mov	edx, DWORD PTR [eax+12]
	cmp	edx, DWORD PTR [ecx+12]
	jne	$LN46@DXUTChange

; 2779 :     {
; 2780 :         // Reset the Direct3D device and call the app's device callbacks
; 2781 :         hr = DXUTReset3DEnvironment();

	call	?DXUTReset3DEnvironment@@YAJXZ		; DXUTReset3DEnvironment
	mov	DWORD PTR _hr$[ebp], eax

; 2782 :         if( FAILED(hr) )

	cmp	DWORD PTR _hr$[ebp], 0
	jge	$LN44@DXUTChange

; 2783 :         {
; 2784 :             if( D3DERR_DEVICELOST == hr )

	cmp	DWORD PTR _hr$[ebp], -2005530520	; 88760868H
	jne	SHORT $LN43@DXUTChange

; 2785 :             {
; 2786 :                 // The device is lost, just mark it as so and continue on with 
; 2787 :                 // capturing the state and resizing the window/etc.
; 2788 :                 GetDXUTState().SetDeviceLost( true );

	push	1
	call	?GetDXUTState@@YAAAVDXUTState@@XZ	; GetDXUTState
	mov	ecx, eax
	call	?SetDeviceLost@DXUTState@@QAEX_N@Z	; DXUTState::SetDeviceLost

; 2789 :             }
; 2790 :             else if( DXUTERR_RESETTINGDEVICEOBJECTS == hr || 

	jmp	$LN44@DXUTChange
$LN43@DXUTChange:

; 2791 :                      DXUTERR_MEDIANOTFOUND == hr )

	cmp	DWORD PTR _hr$[ebp], -2147219192	; 80040908H
	je	SHORT $LN40@DXUTChange
	cmp	DWORD PTR _hr$[ebp], -2147219197	; 80040903H
	jne	SHORT $LN41@DXUTChange
$LN40@DXUTChange:

; 2792 :             {
; 2793 :                 // Something bad happened in the app callbacks
; 2794 :                 SAFE_DELETE( pOldDeviceSettings );

	cmp	DWORD PTR _pOldDeviceSettings$[ebp], 0
	je	SHORT $LN39@DXUTChange
	mov	eax, DWORD PTR _pOldDeviceSettings$[ebp]
	mov	DWORD PTR $T4[ebp], eax
	mov	ecx, DWORD PTR $T4[ebp]
	push	ecx
	call	??3@YAXPAX@Z				; operator delete
	add	esp, 4
	mov	DWORD PTR _pOldDeviceSettings$[ebp], 0
$LN39@DXUTChange:

; 2795 :                 DXUTDisplayErrorMessage( hr );

	mov	eax, DWORD PTR _hr$[ebp]
	push	eax
	call	?DXUTDisplayErrorMessage@@YAXJ@Z	; DXUTDisplayErrorMessage
	add	esp, 4

; 2796 :                 DXUTShutdown();

	push	0
	call	?DXUTShutdown@@YAXH@Z			; DXUTShutdown
	add	esp, 4

; 2797 :                 return hr;

	mov	eax, DWORD PTR _hr$[ebp]
	jmp	$LN67@DXUTChange

; 2798 :             }
; 2799 :             else // DXUTERR_RESETTINGDEVICE

	jmp	$LN44@DXUTChange
$LN41@DXUTChange:

; 2800 :             {
; 2801 :                 // Reset failed and the device wasn't lost and it wasn't the apps fault, 
; 2802 :                 // so recreate the device to try to recover
; 2803 :                 GetDXUTState().SetCurrentDeviceSettings( pOldDeviceSettings );

	mov	eax, DWORD PTR _pOldDeviceSettings$[ebp]
	push	eax
	call	?GetDXUTState@@YAAAVDXUTState@@XZ	; GetDXUTState
	mov	ecx, eax
	call	?SetCurrentDeviceSettings@DXUTState@@QAEXPAUDXUTDeviceSettings@@@Z ; DXUTState::SetCurrentDeviceSettings

; 2804 :                 if( FAILED( DXUTChangeDevice( pNewDeviceSettings, pd3dDeviceFromApp, true, bClipWindowToSingleAdapter ) ) )

	movzx	eax, BYTE PTR _bClipWindowToSingleAdapter$[ebp]
	push	eax
	push	1
	mov	ecx, DWORD PTR _pd3dDeviceFromApp$[ebp]
	push	ecx
	mov	edx, DWORD PTR _pNewDeviceSettings$[ebp]
	push	edx
	call	?DXUTChangeDevice@@YAJPAUDXUTDeviceSettings@@PAUIDirect3DDevice9@@_N2@Z ; DXUTChangeDevice
	add	esp, 16					; 00000010H
	test	eax, eax
	jge	SHORT $LN37@DXUTChange

; 2805 :                 {
; 2806 :                     // If that fails, then shutdown
; 2807 :                     SAFE_DELETE( pOldDeviceSettings );

	cmp	DWORD PTR _pOldDeviceSettings$[ebp], 0
	je	SHORT $LN36@DXUTChange
	mov	eax, DWORD PTR _pOldDeviceSettings$[ebp]
	mov	DWORD PTR $T5[ebp], eax
	mov	ecx, DWORD PTR $T5[ebp]
	push	ecx
	call	??3@YAXPAX@Z				; operator delete
	add	esp, 4
	mov	DWORD PTR _pOldDeviceSettings$[ebp], 0
$LN36@DXUTChange:

; 2808 :                     DXUTShutdown();

	push	0
	call	?DXUTShutdown@@YAXH@Z			; DXUTShutdown
	add	esp, 4

; 2809 :                     return DXUTERR_CREATINGDEVICE;

	mov	eax, -2147219195			; 80040905H
	jmp	$LN67@DXUTChange

; 2810 :                 }
; 2811 :                 else

	jmp	SHORT $LN44@DXUTChange
$LN37@DXUTChange:

; 2812 :                 {
; 2813 :                     SAFE_DELETE( pOldDeviceSettings );

	cmp	DWORD PTR _pOldDeviceSettings$[ebp], 0
	je	SHORT $LN34@DXUTChange
	mov	eax, DWORD PTR _pOldDeviceSettings$[ebp]
	mov	DWORD PTR $T6[ebp], eax
	mov	ecx, DWORD PTR $T6[ebp]
	push	ecx
	call	??3@YAXPAX@Z				; operator delete
	add	esp, 4
	mov	DWORD PTR _pOldDeviceSettings$[ebp], 0
$LN34@DXUTChange:

; 2814 :                     return S_OK;

	xor	eax, eax
	jmp	$LN67@DXUTChange
$LN44@DXUTChange:

; 2815 :                 }
; 2816 :             }
; 2817 :         }
; 2818 :     }
; 2819 :     else

	jmp	$LN33@DXUTChange
$LN46@DXUTChange:

; 2820 :     {
; 2821 :         // Cleanup if not first device created
; 2822 :         if( pOldDeviceSettings )

	cmp	DWORD PTR _pOldDeviceSettings$[ebp], 0
	je	SHORT $LN32@DXUTChange

; 2823 :             DXUTCleanup3DEnvironment( false );

	push	0
	call	?DXUTCleanup3DEnvironment@@YAX_N@Z	; DXUTCleanup3DEnvironment
	add	esp, 4
$LN32@DXUTChange:

; 2824 : 
; 2825 :         // Create the D3D device and call the app's device callbacks
; 2826 :         hr = DXUTCreate3DEnvironment( pd3dDeviceFromApp );

	mov	eax, DWORD PTR _pd3dDeviceFromApp$[ebp]
	push	eax
	call	?DXUTCreate3DEnvironment@@YAJPAUIDirect3DDevice9@@@Z ; DXUTCreate3DEnvironment
	add	esp, 4
	mov	DWORD PTR _hr$[ebp], eax

; 2827 :         if( FAILED(hr) )

	cmp	DWORD PTR _hr$[ebp], 0
	jge	SHORT $LN33@DXUTChange

; 2828 :         {
; 2829 :             SAFE_DELETE( pOldDeviceSettings );

	cmp	DWORD PTR _pOldDeviceSettings$[ebp], 0
	je	SHORT $LN30@DXUTChange
	mov	eax, DWORD PTR _pOldDeviceSettings$[ebp]
	mov	DWORD PTR $T7[ebp], eax
	mov	ecx, DWORD PTR $T7[ebp]
	push	ecx
	call	??3@YAXPAX@Z				; operator delete
	add	esp, 4
	mov	DWORD PTR _pOldDeviceSettings$[ebp], 0
$LN30@DXUTChange:

; 2830 :             DXUTCleanup3DEnvironment();

	push	1
	call	?DXUTCleanup3DEnvironment@@YAX_N@Z	; DXUTCleanup3DEnvironment
	add	esp, 4

; 2831 :             DXUTDisplayErrorMessage( hr );

	mov	eax, DWORD PTR _hr$[ebp]
	push	eax
	call	?DXUTDisplayErrorMessage@@YAXJ@Z	; DXUTDisplayErrorMessage
	add	esp, 4

; 2832 :             DXUTPause( false, false );

	push	0
	push	0
	call	?DXUTPause@@YAX_N0@Z			; DXUTPause
	add	esp, 8

; 2833 :             GetDXUTState().SetIgnoreSizeChange( false );

	push	0
	call	?GetDXUTState@@YAAAVDXUTState@@XZ	; GetDXUTState
	mov	ecx, eax
	call	?SetIgnoreSizeChange@DXUTState@@QAEX_N@Z ; DXUTState::SetIgnoreSizeChange

; 2834 :             return hr;

	mov	eax, DWORD PTR _hr$[ebp]
	jmp	$LN67@DXUTChange
$LN33@DXUTChange:

; 2835 :         }
; 2836 :     }
; 2837 : 
; 2838 :     // Enable/disable StickKeys shortcut, ToggleKeys shortcut, FilterKeys shortcut, and Windows key 
; 2839 :     // to prevent accidental task switching
; 2840 :     DXUTAllowShortcutKeys( ( pNewDeviceSettings->pp.Windowed  ) ? GetDXUTState().GetAllowShortcutKeysWhenWindowed() : GetDXUTState().GetAllowShortcutKeysWhenFullscreen() );

	mov	eax, DWORD PTR _pNewDeviceSettings$[ebp]
	cmp	DWORD PTR [eax+48], 0
	je	SHORT $LN71@DXUTChange
	call	?GetDXUTState@@YAAAVDXUTState@@XZ	; GetDXUTState
	mov	ecx, eax
	call	?GetAllowShortcutKeysWhenWindowed@DXUTState@@QAE_NXZ ; DXUTState::GetAllowShortcutKeysWhenWindowed
	mov	BYTE PTR tv331[ebp], al
	jmp	SHORT $LN72@DXUTChange
$LN71@DXUTChange:
	call	?GetDXUTState@@YAAAVDXUTState@@XZ	; GetDXUTState
	mov	ecx, eax
	call	?GetAllowShortcutKeysWhenFullscreen@DXUTState@@QAE_NXZ ; DXUTState::GetAllowShortcutKeysWhenFullscreen
	mov	BYTE PTR tv331[ebp], al
$LN72@DXUTChange:
	movzx	ecx, BYTE PTR tv331[ebp]
	push	ecx
	call	?DXUTAllowShortcutKeys@@YAX_N@Z		; DXUTAllowShortcutKeys
	add	esp, 4

; 2841 : 
; 2842 :     IDirect3D9* pD3D = DXUTGetD3DObject();

	call	?DXUTGetD3DObject@@YAPAUIDirect3D9@@XZ	; DXUTGetD3DObject
	mov	DWORD PTR _pD3D$[ebp], eax

; 2843 :     HMONITOR hAdapterMonitor = pD3D->GetAdapterMonitor( pNewDeviceSettings->AdapterOrdinal );

	mov	esi, esp
	mov	eax, DWORD PTR _pNewDeviceSettings$[ebp]
	mov	ecx, DWORD PTR [eax]
	push	ecx
	mov	edx, DWORD PTR _pD3D$[ebp]
	mov	eax, DWORD PTR [edx]
	mov	ecx, DWORD PTR _pD3D$[ebp]
	push	ecx
	mov	edx, DWORD PTR [eax+60]
	call	edx
	cmp	esi, esp
	call	__RTC_CheckEsp
	mov	DWORD PTR _hAdapterMonitor$[ebp], eax

; 2844 :     GetDXUTState().SetAdapterMonitor( hAdapterMonitor );

	mov	eax, DWORD PTR _hAdapterMonitor$[ebp]
	push	eax
	call	?GetDXUTState@@YAAAVDXUTState@@XZ	; GetDXUTState
	mov	ecx, eax
	call	?SetAdapterMonitor@DXUTState@@QAEXPAUHMONITOR__@@@Z ; DXUTState::SetAdapterMonitor

; 2845 : 
; 2846 :     // Update the device stats text
; 2847 :     DXUTUpdateStaticFrameStats();

	call	?DXUTUpdateStaticFrameStats@@YAXXZ	; DXUTUpdateStaticFrameStats

; 2848 : 
; 2849 :     // Update GetDXUTState()'s copy of D3D caps 
; 2850 :     D3DCAPS9* pd3dCaps = GetDXUTState().GetCaps();

	call	?GetDXUTState@@YAAAVDXUTState@@XZ	; GetDXUTState
	mov	ecx, eax
	call	?GetCaps@DXUTState@@QAEPAU_D3DCAPS9@@XZ	; DXUTState::GetCaps
	mov	DWORD PTR _pd3dCaps$[ebp], eax

; 2851 :     DXUTGetD3DDevice()->GetDeviceCaps( pd3dCaps );

	call	?DXUTGetD3DDevice@@YAPAUIDirect3DDevice9@@XZ ; DXUTGetD3DDevice
	mov	DWORD PTR tv348[ebp], eax
	mov	esi, esp
	mov	eax, DWORD PTR _pd3dCaps$[ebp]
	push	eax
	mov	ecx, DWORD PTR tv348[ebp]
	push	ecx
	mov	edx, DWORD PTR tv348[ebp]
	mov	eax, DWORD PTR [edx]
	mov	ecx, DWORD PTR [eax+28]
	call	ecx
	cmp	esi, esp
	call	__RTC_CheckEsp

; 2852 : 
; 2853 :     if( pOldDeviceSettings && !pOldDeviceSettings->pp.Windowed && pNewDeviceSettings->pp.Windowed )

	cmp	DWORD PTR _pOldDeviceSettings$[ebp], 0
	je	SHORT $LN29@DXUTChange
	mov	eax, DWORD PTR _pOldDeviceSettings$[ebp]
	cmp	DWORD PTR [eax+48], 0
	jne	SHORT $LN29@DXUTChange
	mov	eax, DWORD PTR _pNewDeviceSettings$[ebp]
	cmp	DWORD PTR [eax+48], 0
	je	SHORT $LN29@DXUTChange

; 2854 :     {
; 2855 :         // Going from fullscreen -> windowed
; 2856 : 
; 2857 :         // Restore the show state, and positions/size of the window to what it was
; 2858 :         // It is important to adjust the window size 
; 2859 :         // after resetting the device rather than beforehand to ensure 
; 2860 :         // that the monitor resolution is correct and does not limit the size of the new window.
; 2861 :         WINDOWPLACEMENT* pwp = GetDXUTState().GetWindowedPlacement();

	call	?GetDXUTState@@YAAAVDXUTState@@XZ	; GetDXUTState
	mov	ecx, eax
	call	?GetWindowedPlacement@DXUTState@@QAEPAUtagWINDOWPLACEMENT@@XZ ; DXUTState::GetWindowedPlacement
	mov	DWORD PTR _pwp$43[ebp], eax

; 2862 :         SetWindowPlacement( DXUTGetHWNDDeviceWindowed(), pwp );

	mov	esi, esp
	mov	eax, DWORD PTR _pwp$43[ebp]
	push	eax
	call	?DXUTGetHWNDDeviceWindowed@@YAPAUHWND__@@XZ ; DXUTGetHWNDDeviceWindowed
	push	eax
	call	DWORD PTR __imp__SetWindowPlacement@8
	cmp	esi, esp
	call	__RTC_CheckEsp
$LN29@DXUTChange:

; 2863 :     }
; 2864 : 
; 2865 :     // Check to see if the window needs to be resized.  
; 2866 :     // Handle cases where the window is minimized and maxmimized as well.
; 2867 :     bool bNeedToResize = false;

	mov	BYTE PTR _bNeedToResize$[ebp], 0

; 2868 :     if( pNewDeviceSettings->pp.Windowed && // only resize if in windowed mode
; 2869 :         !bKeepCurrentWindowSize )          // only resize if pp.BackbufferWidth/Height were not 0

	mov	eax, DWORD PTR _pNewDeviceSettings$[ebp]
	cmp	DWORD PTR [eax+48], 0
	je	$LN28@DXUTChange
	movzx	eax, BYTE PTR _bKeepCurrentWindowSize$[ebp]
	test	eax, eax
	jne	$LN28@DXUTChange

; 2870 :     {
; 2871 :         UINT nClientWidth;
; 2872 :         UINT nClientHeight;    
; 2873 :         if( IsIconic(DXUTGetHWNDDeviceWindowed()) )

	call	?DXUTGetHWNDDeviceWindowed@@YAPAUHWND__@@XZ ; DXUTGetHWNDDeviceWindowed
	mov	esi, esp
	push	eax
	call	DWORD PTR __imp__IsIconic@4
	cmp	esi, esp
	call	__RTC_CheckEsp
	test	eax, eax
	je	$LN27@DXUTChange

; 2874 :         {
; 2875 :             // Window is currently minimized. To tell if it needs to resize, 
; 2876 :             // get the client rect of window when its restored the 
; 2877 :             // hard way using GetWindowPlacement()
; 2878 :             WINDOWPLACEMENT wp;
; 2879 :             ZeroMemory( &wp, sizeof(WINDOWPLACEMENT) );

	push	44					; 0000002cH
	push	0
	lea	eax, DWORD PTR _wp$40[ebp]
	push	eax
	call	_memset
	add	esp, 12					; 0000000cH

; 2880 :             wp.length = sizeof(WINDOWPLACEMENT);

	mov	DWORD PTR _wp$40[ebp], 44		; 0000002cH

; 2881 :             GetWindowPlacement( DXUTGetHWNDDeviceWindowed(), &wp );

	mov	esi, esp
	lea	eax, DWORD PTR _wp$40[ebp]
	push	eax
	call	?DXUTGetHWNDDeviceWindowed@@YAPAUHWND__@@XZ ; DXUTGetHWNDDeviceWindowed
	push	eax
	call	DWORD PTR __imp__GetWindowPlacement@8
	cmp	esi, esp
	call	__RTC_CheckEsp

; 2882 : 
; 2883 :             if( (wp.flags & WPF_RESTORETOMAXIMIZED) != 0 && wp.showCmd == SW_SHOWMINIMIZED )

	mov	eax, DWORD PTR _wp$40[ebp+4]
	and	eax, 2
	je	SHORT $LN26@DXUTChange
	cmp	DWORD PTR _wp$40[ebp+8], 2
	jne	SHORT $LN26@DXUTChange

; 2884 :             {
; 2885 :                 // WPF_RESTORETOMAXIMIZED means that when the window is restored it will
; 2886 :                 // be maximized.  So maximize the window temporarily to get the client rect 
; 2887 :                 // when the window is maximized.  GetSystemMetrics( SM_CXMAXIMIZED ) will give this 
; 2888 :                 // information if the window is on the primary but this will work on multimon.
; 2889 :                 ShowWindow( DXUTGetHWNDDeviceWindowed(), SW_RESTORE );

	mov	esi, esp
	push	9
	call	?DXUTGetHWNDDeviceWindowed@@YAPAUHWND__@@XZ ; DXUTGetHWNDDeviceWindowed
	push	eax
	call	DWORD PTR __imp__ShowWindow@8
	cmp	esi, esp
	call	__RTC_CheckEsp

; 2890 :                 RECT rcClient;
; 2891 :                 GetClientRect( DXUTGetHWNDDeviceWindowed(), &rcClient );

	mov	esi, esp
	lea	eax, DWORD PTR _rcClient$39[ebp]
	push	eax
	call	?DXUTGetHWNDDeviceWindowed@@YAPAUHWND__@@XZ ; DXUTGetHWNDDeviceWindowed
	push	eax
	call	DWORD PTR __imp__GetClientRect@8
	cmp	esi, esp
	call	__RTC_CheckEsp

; 2892 :                 nClientWidth  = (UINT)(rcClient.right - rcClient.left);

	mov	eax, DWORD PTR _rcClient$39[ebp+8]
	sub	eax, DWORD PTR _rcClient$39[ebp]
	mov	DWORD PTR _nClientWidth$42[ebp], eax

; 2893 :                 nClientHeight = (UINT)(rcClient.bottom - rcClient.top);

	mov	eax, DWORD PTR _rcClient$39[ebp+12]
	sub	eax, DWORD PTR _rcClient$39[ebp+4]
	mov	DWORD PTR _nClientHeight$41[ebp], eax

; 2894 :                 ShowWindow( DXUTGetHWNDDeviceWindowed(), SW_MINIMIZE );

	mov	esi, esp
	push	6
	call	?DXUTGetHWNDDeviceWindowed@@YAPAUHWND__@@XZ ; DXUTGetHWNDDeviceWindowed
	push	eax
	call	DWORD PTR __imp__ShowWindow@8
	cmp	esi, esp
	call	__RTC_CheckEsp

; 2895 :             }
; 2896 :             else

	jmp	$LN25@DXUTChange
$LN26@DXUTChange:

; 2897 :             {
; 2898 :                 // Use wp.rcNormalPosition to get the client rect, but wp.rcNormalPosition 
; 2899 :                 // includes the window frame so subtract it
; 2900 :                 RECT rcFrame = {0};

	mov	DWORD PTR _rcFrame$38[ebp], 0
	xor	eax, eax
	mov	DWORD PTR _rcFrame$38[ebp+4], eax
	mov	DWORD PTR _rcFrame$38[ebp+8], eax
	mov	DWORD PTR _rcFrame$38[ebp+12], eax

; 2901 :                 AdjustWindowRect( &rcFrame, GetDXUTState().GetWindowedStyleAtModeChange(), GetDXUTState().GetMenu() != NULL );

	call	?GetDXUTState@@YAAAVDXUTState@@XZ	; GetDXUTState
	mov	ecx, eax
	call	?GetMenu@DXUTState@@QAEPAUHMENU__@@XZ	; DXUTState::GetMenu
	test	eax, eax
	je	SHORT $LN73@DXUTChange
	mov	DWORD PTR tv434[ebp], 1
	jmp	SHORT $LN74@DXUTChange
$LN73@DXUTChange:
	mov	DWORD PTR tv434[ebp], 0
$LN74@DXUTChange:
	mov	esi, esp
	mov	eax, DWORD PTR tv434[ebp]
	push	eax
	call	?GetDXUTState@@YAAAVDXUTState@@XZ	; GetDXUTState
	mov	ecx, eax
	call	?GetWindowedStyleAtModeChange@DXUTState@@QAEKXZ ; DXUTState::GetWindowedStyleAtModeChange
	push	eax
	lea	ecx, DWORD PTR _rcFrame$38[ebp]
	push	ecx
	call	DWORD PTR __imp__AdjustWindowRect@12
	cmp	esi, esp
	call	__RTC_CheckEsp

; 2902 :                 LONG nFrameWidth = rcFrame.right - rcFrame.left;

	mov	eax, DWORD PTR _rcFrame$38[ebp+8]
	sub	eax, DWORD PTR _rcFrame$38[ebp]
	mov	DWORD PTR _nFrameWidth$37[ebp], eax

; 2903 :                 LONG nFrameHeight = rcFrame.bottom - rcFrame.top;

	mov	eax, DWORD PTR _rcFrame$38[ebp+12]
	sub	eax, DWORD PTR _rcFrame$38[ebp+4]
	mov	DWORD PTR _nFrameHeight$36[ebp], eax

; 2904 :                 nClientWidth  = (UINT)(wp.rcNormalPosition.right - wp.rcNormalPosition.left - nFrameWidth);

	mov	eax, DWORD PTR _wp$40[ebp+36]
	sub	eax, DWORD PTR _wp$40[ebp+28]
	sub	eax, DWORD PTR _nFrameWidth$37[ebp]
	mov	DWORD PTR _nClientWidth$42[ebp], eax

; 2905 :                 nClientHeight = (UINT)(wp.rcNormalPosition.bottom - wp.rcNormalPosition.top - nFrameHeight);

	mov	eax, DWORD PTR _wp$40[ebp+40]
	sub	eax, DWORD PTR _wp$40[ebp+32]
	sub	eax, DWORD PTR _nFrameHeight$36[ebp]
	mov	DWORD PTR _nClientHeight$41[ebp], eax
$LN25@DXUTChange:

; 2906 :             }
; 2907 :         }
; 2908 :         else

	jmp	SHORT $LN24@DXUTChange
$LN27@DXUTChange:

; 2909 :         {
; 2910 :             // Window is restored or maximized so just get its client rect
; 2911 :             RECT rcClient;
; 2912 :             GetClientRect( DXUTGetHWNDDeviceWindowed(), &rcClient );

	mov	esi, esp
	lea	eax, DWORD PTR _rcClient$35[ebp]
	push	eax
	call	?DXUTGetHWNDDeviceWindowed@@YAPAUHWND__@@XZ ; DXUTGetHWNDDeviceWindowed
	push	eax
	call	DWORD PTR __imp__GetClientRect@8
	cmp	esi, esp
	call	__RTC_CheckEsp

; 2913 :             nClientWidth  = (UINT)(rcClient.right - rcClient.left);

	mov	eax, DWORD PTR _rcClient$35[ebp+8]
	sub	eax, DWORD PTR _rcClient$35[ebp]
	mov	DWORD PTR _nClientWidth$42[ebp], eax

; 2914 :             nClientHeight = (UINT)(rcClient.bottom - rcClient.top);

	mov	eax, DWORD PTR _rcClient$35[ebp+12]
	sub	eax, DWORD PTR _rcClient$35[ebp+4]
	mov	DWORD PTR _nClientHeight$41[ebp], eax
$LN24@DXUTChange:

; 2915 :         }
; 2916 : 
; 2917 :         // Now that we know the client rect, compare it against the back buffer size
; 2918 :         // to see if the client rect is already the right size
; 2919 :         if( nClientWidth  != pNewDeviceSettings->pp.BackBufferWidth ||
; 2920 :             nClientHeight != pNewDeviceSettings->pp.BackBufferHeight )

	mov	eax, DWORD PTR _pNewDeviceSettings$[ebp]
	mov	ecx, DWORD PTR _nClientWidth$42[ebp]
	cmp	ecx, DWORD PTR [eax+16]
	jne	SHORT $LN22@DXUTChange
	mov	eax, DWORD PTR _pNewDeviceSettings$[ebp]
	mov	ecx, DWORD PTR _nClientHeight$41[ebp]
	cmp	ecx, DWORD PTR [eax+20]
	je	SHORT $LN23@DXUTChange
$LN22@DXUTChange:

; 2921 :         {
; 2922 :             bNeedToResize = true;

	mov	BYTE PTR _bNeedToResize$[ebp], 1
$LN23@DXUTChange:

; 2923 :         }       
; 2924 : 
; 2925 :         if( bClipWindowToSingleAdapter && !IsIconic(DXUTGetHWNDDeviceWindowed()) )

	movzx	eax, BYTE PTR _bClipWindowToSingleAdapter$[ebp]
	test	eax, eax
	je	$LN28@DXUTChange
	call	?DXUTGetHWNDDeviceWindowed@@YAPAUHWND__@@XZ ; DXUTGetHWNDDeviceWindowed
	mov	esi, esp
	push	eax
	call	DWORD PTR __imp__IsIconic@4
	cmp	esi, esp
	call	__RTC_CheckEsp
	test	eax, eax
	jne	$LN28@DXUTChange

; 2926 :         {
; 2927 :             // Get the rect of the monitor attached to the adapter
; 2928 :             MONITORINFO miAdapter;
; 2929 :             miAdapter.cbSize = sizeof(MONITORINFO);

	mov	DWORD PTR _miAdapter$34[ebp], 40	; 00000028H

; 2930 :             HMONITOR hAdapterMonitor = DXUTGetD3DObject()->GetAdapterMonitor( pNewDeviceSettings->AdapterOrdinal );

	call	?DXUTGetD3DObject@@YAPAUIDirect3D9@@XZ	; DXUTGetD3DObject
	mov	DWORD PTR tv497[ebp], eax
	mov	esi, esp
	mov	eax, DWORD PTR _pNewDeviceSettings$[ebp]
	mov	ecx, DWORD PTR [eax]
	push	ecx
	mov	edx, DWORD PTR tv497[ebp]
	push	edx
	mov	eax, DWORD PTR tv497[ebp]
	mov	ecx, DWORD PTR [eax]
	mov	edx, DWORD PTR [ecx+60]
	call	edx
	cmp	esi, esp
	call	__RTC_CheckEsp
	mov	DWORD PTR _hAdapterMonitor$33[ebp], eax

; 2931 :             GetMonitorInfo( hAdapterMonitor, &miAdapter );

	lea	eax, DWORD PTR _miAdapter$34[ebp]
	push	eax
	mov	ecx, DWORD PTR _hAdapterMonitor$33[ebp]
	push	ecx
	call	_xGetMonitorInfo@8

; 2932 :             HMONITOR hWindowMonitor = MonitorFromWindow( DXUTGetHWND(), MONITOR_DEFAULTTOPRIMARY );

	push	1
	call	?DXUTGetHWND@@YAPAUHWND__@@XZ		; DXUTGetHWND
	push	eax
	call	_xMonitorFromWindow@8
	mov	DWORD PTR _hWindowMonitor$32[ebp], eax

; 2933 : 
; 2934 :             // Get the rect of the window
; 2935 :             RECT rcWindow;
; 2936 :             GetWindowRect( DXUTGetHWNDDeviceWindowed(), &rcWindow );

	mov	esi, esp
	lea	eax, DWORD PTR _rcWindow$31[ebp]
	push	eax
	call	?DXUTGetHWNDDeviceWindowed@@YAPAUHWND__@@XZ ; DXUTGetHWNDDeviceWindowed
	push	eax
	call	DWORD PTR __imp__GetWindowRect@8
	cmp	esi, esp
	call	__RTC_CheckEsp

; 2937 : 
; 2938 :             // Check if the window rect is fully inside the adapter's vitural screen rect
; 2939 :             if( (rcWindow.left   < miAdapter.rcWork.left  ||
; 2940 :                  rcWindow.right  > miAdapter.rcWork.right ||
; 2941 :                  rcWindow.top    < miAdapter.rcWork.top   ||
; 2942 :                  rcWindow.bottom > miAdapter.rcWork.bottom) )

	mov	eax, DWORD PTR _rcWindow$31[ebp]
	cmp	eax, DWORD PTR _miAdapter$34[ebp+20]
	jl	SHORT $LN19@DXUTChange
	mov	eax, DWORD PTR _rcWindow$31[ebp+8]
	cmp	eax, DWORD PTR _miAdapter$34[ebp+28]
	jg	SHORT $LN19@DXUTChange
	mov	eax, DWORD PTR _rcWindow$31[ebp+4]
	cmp	eax, DWORD PTR _miAdapter$34[ebp+24]
	jl	SHORT $LN19@DXUTChange
	mov	eax, DWORD PTR _rcWindow$31[ebp+12]
	cmp	eax, DWORD PTR _miAdapter$34[ebp+32]
	jle	SHORT $LN28@DXUTChange
$LN19@DXUTChange:

; 2943 :             {
; 2944 :                 if( hWindowMonitor == hAdapterMonitor && IsZoomed(DXUTGetHWNDDeviceWindowed()) )

	mov	eax, DWORD PTR _hWindowMonitor$32[ebp]
	cmp	eax, DWORD PTR _hAdapterMonitor$33[ebp]
	jne	SHORT $LN18@DXUTChange
	call	?DXUTGetHWNDDeviceWindowed@@YAPAUHWND__@@XZ ; DXUTGetHWNDDeviceWindowed
	mov	esi, esp
	push	eax
	call	DWORD PTR __imp__IsZoomed@4
	cmp	esi, esp
	call	__RTC_CheckEsp
	test	eax, eax
	je	SHORT $LN18@DXUTChange

; 2945 :                 {
; 2946 :                     // If the window is maximized and on the same monitor as the adapter, then 
; 2947 :                     // no need to clip to single adapter as the window is already clipped 
; 2948 :                     // even though the rcWindow rect is outside of the miAdapter.rcWork
; 2949 :                 }
; 2950 :                 else

	jmp	SHORT $LN28@DXUTChange
$LN18@DXUTChange:

; 2951 :                 {
; 2952 :                     bNeedToResize = true;

	mov	BYTE PTR _bNeedToResize$[ebp], 1
$LN28@DXUTChange:

; 2953 :                 }
; 2954 :             }
; 2955 :         }
; 2956 :     }
; 2957 : 
; 2958 :     // Only resize window if needed 
; 2959 :     if( bNeedToResize ) 

	movzx	eax, BYTE PTR _bNeedToResize$[ebp]
	test	eax, eax
	je	$LN16@DXUTChange

; 2960 :     {
; 2961 :         // Need to resize, so if window is maximized or minimized then restore the window
; 2962 :         if( IsIconic(DXUTGetHWNDDeviceWindowed()) ) 

	call	?DXUTGetHWNDDeviceWindowed@@YAPAUHWND__@@XZ ; DXUTGetHWNDDeviceWindowed
	mov	esi, esp
	push	eax
	call	DWORD PTR __imp__IsIconic@4
	cmp	esi, esp
	call	__RTC_CheckEsp
	test	eax, eax
	je	SHORT $LN15@DXUTChange

; 2963 :             ShowWindow( DXUTGetHWNDDeviceWindowed(), SW_RESTORE );

	mov	esi, esp
	push	9
	call	?DXUTGetHWNDDeviceWindowed@@YAPAUHWND__@@XZ ; DXUTGetHWNDDeviceWindowed
	push	eax
	call	DWORD PTR __imp__ShowWindow@8
	cmp	esi, esp
	call	__RTC_CheckEsp
$LN15@DXUTChange:

; 2964 :         if( IsZoomed(DXUTGetHWNDDeviceWindowed()) ) // doing the IsIconic() check first also handles the WPF_RESTORETOMAXIMIZED case

	call	?DXUTGetHWNDDeviceWindowed@@YAPAUHWND__@@XZ ; DXUTGetHWNDDeviceWindowed
	mov	esi, esp
	push	eax
	call	DWORD PTR __imp__IsZoomed@4
	cmp	esi, esp
	call	__RTC_CheckEsp
	test	eax, eax
	je	SHORT $LN14@DXUTChange

; 2965 :             ShowWindow( DXUTGetHWNDDeviceWindowed(), SW_RESTORE );

	mov	esi, esp
	push	9
	call	?DXUTGetHWNDDeviceWindowed@@YAPAUHWND__@@XZ ; DXUTGetHWNDDeviceWindowed
	push	eax
	call	DWORD PTR __imp__ShowWindow@8
	cmp	esi, esp
	call	__RTC_CheckEsp
