; Listing generated by Microsoft (R) Optimizing Compiler Version 18.00.31101.0 

	TITLE	Z:\sampsrc\02Xu1\saco\d3d9\common\DXUTgui.cpp
	.686P
	.XMM
	include listing.inc
	.model	flat

INCLUDELIB LIBCMTD
INCLUDELIB OLDNAMES

PUBLIC	?s_adwCompStringClause@CDXUTIMEEditBox@@1PAKA	; CDXUTIMEEditBox::s_adwCompStringClause
PUBLIC	?s_wszReadingString@CDXUTIMEEditBox@@1PADA	; CDXUTIMEEditBox::s_wszReadingString
PUBLIC	?s_bShowReadingWindow@CDXUTIMEEditBox@@1_NA	; CDXUTIMEEditBox::s_bShowReadingWindow
PUBLIC	?s_bHorizontalReading@CDXUTIMEEditBox@@1_NA	; CDXUTIMEEditBox::s_bHorizontalReading
PUBLIC	?s_bChineseIME@CDXUTIMEEditBox@@1_NA		; CDXUTIMEEditBox::s_bChineseIME
PUBLIC	?m_bIMEStaticMsgProcCalled@CDXUTIMEEditBox@@1_NA ; CDXUTIMEEditBox::m_bIMEStaticMsgProcCalled
PUBLIC	?s_fTimeRefresh@CDXUTDialog@@0NA		; CDXUTDialog::s_fTimeRefresh
PUBLIC	?s_pControlFocus@CDXUTDialog@@0PAVCDXUTControl@@A ; CDXUTDialog::s_pControlFocus
PUBLIC	?s_pControlPressed@CDXUTDialog@@0PAVCDXUTControl@@A ; CDXUTDialog::s_pControlPressed
PUBLIC	?FVF@DXUT_SCREEN_VERTEX@@2KA			; DXUT_SCREEN_VERTEX::FVF
PUBLIC	?Dummy_ScriptApplyDigitSubstitution@CUniBuffer@@CGJPBUtag_SCRIPT_DIGITSUBSTITUTE@@PAUtag_SCRIPT_CONTROL@@PAUtag_SCRIPT_STATE@@@Z ; CUniBuffer::Dummy_ScriptApplyDigitSubstitution
PUBLIC	?Dummy_ScriptStringAnalyse@CUniBuffer@@CGJPAUHDC__@@PBXHHHKHPAUtag_SCRIPT_CONTROL@@PAUtag_SCRIPT_STATE@@PBHPAUtag_SCRIPT_TABDEF@@PBEPAPAX@Z ; CUniBuffer::Dummy_ScriptStringAnalyse
PUBLIC	?Dummy_ScriptStringCPtoX@CUniBuffer@@CGJPAXHHPAH@Z ; CUniBuffer::Dummy_ScriptStringCPtoX
PUBLIC	?Dummy_ScriptStringXtoCP@CUniBuffer@@CGJPAXHPAH1@Z ; CUniBuffer::Dummy_ScriptStringXtoCP
PUBLIC	?Dummy_ScriptStringFree@CUniBuffer@@CGJPAPAX@Z	; CUniBuffer::Dummy_ScriptStringFree
PUBLIC	?Dummy_ScriptString_pLogAttr@CUniBuffer@@CGPBUtag_SCRIPT_LOGATTR@@PAX@Z ; CUniBuffer::Dummy_ScriptString_pLogAttr
PUBLIC	?Dummy_ScriptString_pcOutChars@CUniBuffer@@CGPBHPAX@Z ; CUniBuffer::Dummy_ScriptString_pcOutChars
PUBLIC	?_ScriptApplyDigitSubstitution@CUniBuffer@@0P6GJPBUtag_SCRIPT_DIGITSUBSTITUTE@@PAUtag_SCRIPT_CONTROL@@PAUtag_SCRIPT_STATE@@@ZA ; CUniBuffer::_ScriptApplyDigitSubstitution
PUBLIC	?_ScriptStringAnalyse@CUniBuffer@@0P6GJPAUHDC__@@PBXHHHKHPAUtag_SCRIPT_CONTROL@@PAUtag_SCRIPT_STATE@@PBHPAUtag_SCRIPT_TABDEF@@PBEPAPAX@ZA ; CUniBuffer::_ScriptStringAnalyse
PUBLIC	?_ScriptStringCPtoX@CUniBuffer@@0P6GJPAXHHPAH@ZA ; CUniBuffer::_ScriptStringCPtoX
PUBLIC	?_ScriptStringXtoCP@CUniBuffer@@0P6GJPAXHPAH1@ZA ; CUniBuffer::_ScriptStringXtoCP
PUBLIC	?_ScriptStringFree@CUniBuffer@@0P6GJPAPAX@ZA	; CUniBuffer::_ScriptStringFree
PUBLIC	?_ScriptString_pLogAttr@CUniBuffer@@0P6GPBUtag_SCRIPT_LOGATTR@@PAX@ZA ; CUniBuffer::_ScriptString_pLogAttr
PUBLIC	?_ScriptString_pcOutChars@CUniBuffer@@0P6GPBHPAX@ZA ; CUniBuffer::_ScriptString_pcOutChars
PUBLIC	?s_hDll@CUniBuffer@@0PAUHINSTANCE__@@A		; CUniBuffer::s_hDll
PUBLIC	?s_bHideCaret@CDXUTEditBox@@1_NA		; CDXUTEditBox::s_bHideCaret
PUBLIC	?Dummy_ImmLockIMC@CDXUTIMEEditBox@@KGPAU__MIDL___MIDL_itf_dimm_0000_0000_0012@@PAUHIMC__@@@Z ; CDXUTIMEEditBox::Dummy_ImmLockIMC
PUBLIC	?Dummy_ImmUnlockIMC@CDXUTIMEEditBox@@KGHPAUHIMC__@@@Z ; CDXUTIMEEditBox::Dummy_ImmUnlockIMC
PUBLIC	?Dummy_ImmLockIMCC@CDXUTIMEEditBox@@KGPAXPAUHIMCC__@@@Z ; CDXUTIMEEditBox::Dummy_ImmLockIMCC
PUBLIC	?Dummy_ImmUnlockIMCC@CDXUTIMEEditBox@@KGHPAUHIMCC__@@@Z ; CDXUTIMEEditBox::Dummy_ImmUnlockIMCC
PUBLIC	?Dummy_ImmDisableTextFrameService@CDXUTIMEEditBox@@KGHK@Z ; CDXUTIMEEditBox::Dummy_ImmDisableTextFrameService
PUBLIC	?Dummy_ImmGetCompositionStringW@CDXUTIMEEditBox@@KGJPAUHIMC__@@KPAXK@Z ; CDXUTIMEEditBox::Dummy_ImmGetCompositionStringW
PUBLIC	?Dummy_ImmGetCandidateListW@CDXUTIMEEditBox@@KGKPAUHIMC__@@KPAUtagCANDIDATELIST@@K@Z ; CDXUTIMEEditBox::Dummy_ImmGetCandidateListW
PUBLIC	?Dummy_ImmGetContext@CDXUTIMEEditBox@@KGPAUHIMC__@@PAUHWND__@@@Z ; CDXUTIMEEditBox::Dummy_ImmGetContext
PUBLIC	?Dummy_ImmReleaseContext@CDXUTIMEEditBox@@KGHPAUHWND__@@PAUHIMC__@@@Z ; CDXUTIMEEditBox::Dummy_ImmReleaseContext
PUBLIC	?Dummy_ImmAssociateContext@CDXUTIMEEditBox@@KGPAUHIMC__@@PAUHWND__@@PAU2@@Z ; CDXUTIMEEditBox::Dummy_ImmAssociateContext
PUBLIC	?Dummy_ImmGetOpenStatus@CDXUTIMEEditBox@@KGHPAUHIMC__@@@Z ; CDXUTIMEEditBox::Dummy_ImmGetOpenStatus
PUBLIC	?Dummy_ImmSetOpenStatus@CDXUTIMEEditBox@@KGHPAUHIMC__@@H@Z ; CDXUTIMEEditBox::Dummy_ImmSetOpenStatus
PUBLIC	?Dummy_ImmGetConversionStatus@CDXUTIMEEditBox@@KGHPAUHIMC__@@PAK1@Z ; CDXUTIMEEditBox::Dummy_ImmGetConversionStatus
PUBLIC	?Dummy_ImmGetDefaultIMEWnd@CDXUTIMEEditBox@@KGPAUHWND__@@PAU2@@Z ; CDXUTIMEEditBox::Dummy_ImmGetDefaultIMEWnd
PUBLIC	?Dummy_ImmGetIMEFileNameA@CDXUTIMEEditBox@@KGIPAUHKL__@@PADI@Z ; CDXUTIMEEditBox::Dummy_ImmGetIMEFileNameA
PUBLIC	?Dummy_ImmGetVirtualKey@CDXUTIMEEditBox@@KGIPAUHWND__@@@Z ; CDXUTIMEEditBox::Dummy_ImmGetVirtualKey
PUBLIC	?Dummy_ImmNotifyIME@CDXUTIMEEditBox@@KGHPAUHIMC__@@KKK@Z ; CDXUTIMEEditBox::Dummy_ImmNotifyIME
PUBLIC	?Dummy_ImmSetConversionStatus@CDXUTIMEEditBox@@KGHPAUHIMC__@@KK@Z ; CDXUTIMEEditBox::Dummy_ImmSetConversionStatus
PUBLIC	?Dummy_ImmSimulateHotKey@CDXUTIMEEditBox@@KGHPAUHWND__@@K@Z ; CDXUTIMEEditBox::Dummy_ImmSimulateHotKey
PUBLIC	?Dummy_ImmIsIME@CDXUTIMEEditBox@@KGHPAUHKL__@@@Z ; CDXUTIMEEditBox::Dummy_ImmIsIME
PUBLIC	?Dummy_GetReadingString@CDXUTIMEEditBox@@KGIPAUHIMC__@@IPADPAH2PAI@Z ; CDXUTIMEEditBox::Dummy_GetReadingString
PUBLIC	?Dummy_ShowReadingWindow@CDXUTIMEEditBox@@KGHPAUHIMC__@@H@Z ; CDXUTIMEEditBox::Dummy_ShowReadingWindow
PUBLIC	?Dummy_VerQueryValueA@CDXUTIMEEditBox@@KGHQAXPADPAPAXPAI@Z ; CDXUTIMEEditBox::Dummy_VerQueryValueA
PUBLIC	?Dummy_GetFileVersionInfoA@CDXUTIMEEditBox@@KGHPADKKPAX@Z ; CDXUTIMEEditBox::Dummy_GetFileVersionInfoA
PUBLIC	?Dummy_GetFileVersionInfoSizeA@CDXUTIMEEditBox@@KGKPADPAK@Z ; CDXUTIMEEditBox::Dummy_GetFileVersionInfoSizeA
PUBLIC	?_ImmLockIMC@CDXUTIMEEditBox@@1P6GPAU__MIDL___MIDL_itf_dimm_0000_0000_0012@@PAUHIMC__@@@ZA ; CDXUTIMEEditBox::_ImmLockIMC
PUBLIC	?_ImmUnlockIMC@CDXUTIMEEditBox@@1P6GHPAUHIMC__@@@ZA ; CDXUTIMEEditBox::_ImmUnlockIMC
PUBLIC	?_ImmLockIMCC@CDXUTIMEEditBox@@1P6GPAXPAUHIMCC__@@@ZA ; CDXUTIMEEditBox::_ImmLockIMCC
PUBLIC	?_ImmUnlockIMCC@CDXUTIMEEditBox@@1P6GHPAUHIMCC__@@@ZA ; CDXUTIMEEditBox::_ImmUnlockIMCC
PUBLIC	?_ImmDisableTextFrameService@CDXUTIMEEditBox@@1P6GHK@ZA ; CDXUTIMEEditBox::_ImmDisableTextFrameService
PUBLIC	?_ImmGetCompositionStringW@CDXUTIMEEditBox@@1P6GJPAUHIMC__@@KPAXK@ZA ; CDXUTIMEEditBox::_ImmGetCompositionStringW
PUBLIC	?_ImmGetCandidateListW@CDXUTIMEEditBox@@1P6GKPAUHIMC__@@KPAUtagCANDIDATELIST@@K@ZA ; CDXUTIMEEditBox::_ImmGetCandidateListW
PUBLIC	?_ImmGetContext@CDXUTIMEEditBox@@1P6GPAUHIMC__@@PAUHWND__@@@ZA ; CDXUTIMEEditBox::_ImmGetContext
PUBLIC	?_ImmReleaseContext@CDXUTIMEEditBox@@1P6GHPAUHWND__@@PAUHIMC__@@@ZA ; CDXUTIMEEditBox::_ImmReleaseContext
PUBLIC	?_ImmAssociateContext@CDXUTIMEEditBox@@1P6GPAUHIMC__@@PAUHWND__@@PAU2@@ZA ; CDXUTIMEEditBox::_ImmAssociateContext
PUBLIC	?_ImmGetOpenStatus@CDXUTIMEEditBox@@1P6GHPAUHIMC__@@@ZA ; CDXUTIMEEditBox::_ImmGetOpenStatus
PUBLIC	?_ImmSetOpenStatus@CDXUTIMEEditBox@@1P6GHPAUHIMC__@@H@ZA ; CDXUTIMEEditBox::_ImmSetOpenStatus
PUBLIC	?_ImmGetConversionStatus@CDXUTIMEEditBox@@1P6GHPAUHIMC__@@PAK1@ZA ; CDXUTIMEEditBox::_ImmGetConversionStatus
PUBLIC	?_ImmGetDefaultIMEWnd@CDXUTIMEEditBox@@1P6GPAUHWND__@@PAU2@@ZA ; CDXUTIMEEditBox::_ImmGetDefaultIMEWnd
PUBLIC	?_ImmGetIMEFileNameA@CDXUTIMEEditBox@@1P6GIPAUHKL__@@PADI@ZA ; CDXUTIMEEditBox::_ImmGetIMEFileNameA
PUBLIC	?_ImmGetVirtualKey@CDXUTIMEEditBox@@1P6GIPAUHWND__@@@ZA ; CDXUTIMEEditBox::_ImmGetVirtualKey
PUBLIC	?_ImmNotifyIME@CDXUTIMEEditBox@@1P6GHPAUHIMC__@@KKK@ZA ; CDXUTIMEEditBox::_ImmNotifyIME
PUBLIC	?_ImmSetConversionStatus@CDXUTIMEEditBox@@1P6GHPAUHIMC__@@KK@ZA ; CDXUTIMEEditBox::_ImmSetConversionStatus
PUBLIC	?_ImmSimulateHotKey@CDXUTIMEEditBox@@1P6GHPAUHWND__@@K@ZA ; CDXUTIMEEditBox::_ImmSimulateHotKey
PUBLIC	?_ImmIsIME@CDXUTIMEEditBox@@1P6GHPAUHKL__@@@ZA	; CDXUTIMEEditBox::_ImmIsIME
PUBLIC	?_GetReadingString@CDXUTIMEEditBox@@1P6GIPAUHIMC__@@IPADPAH2PAI@ZA ; CDXUTIMEEditBox::_GetReadingString
PUBLIC	?_ShowReadingWindow@CDXUTIMEEditBox@@1P6GHPAUHIMC__@@H@ZA ; CDXUTIMEEditBox::_ShowReadingWindow
PUBLIC	?_VerQueryValueA@CDXUTIMEEditBox@@1P6GHQAXPADPAPAXPAI@ZA ; CDXUTIMEEditBox::_VerQueryValueA
PUBLIC	?_GetFileVersionInfoA@CDXUTIMEEditBox@@1P6GHPADKKPAX@ZA ; CDXUTIMEEditBox::_GetFileVersionInfoA
PUBLIC	?_GetFileVersionInfoSizeA@CDXUTIMEEditBox@@1P6GKPADPAK@ZA ; CDXUTIMEEditBox::_GetFileVersionInfoSizeA
PUBLIC	?s_hDllImm32@CDXUTIMEEditBox@@1PAUHINSTANCE__@@A ; CDXUTIMEEditBox::s_hDllImm32
PUBLIC	?s_hDllVer@CDXUTIMEEditBox@@1PAUHINSTANCE__@@A	; CDXUTIMEEditBox::s_hDllVer
PUBLIC	?s_hImcDef@CDXUTIMEEditBox@@1PAUHIMC__@@A	; CDXUTIMEEditBox::s_hImcDef
PUBLIC	?s_hklCurrent@CDXUTIMEEditBox@@1PAUHKL__@@A	; CDXUTIMEEditBox::s_hklCurrent
PUBLIC	?s_bVerticalCand@CDXUTIMEEditBox@@1_NA		; CDXUTIMEEditBox::s_bVerticalCand
PUBLIC	?s_wszCurrIndicator@CDXUTIMEEditBox@@1PADA	; CDXUTIMEEditBox::s_wszCurrIndicator
PUBLIC	?s_aszIndicator@CDXUTIMEEditBox@@1PAY02DA	; CDXUTIMEEditBox::s_aszIndicator
PUBLIC	?s_bInsertOnType@CDXUTIMEEditBox@@1_NA		; CDXUTIMEEditBox::s_bInsertOnType
PUBLIC	?s_hDllIme@CDXUTIMEEditBox@@1PAUHINSTANCE__@@A	; CDXUTIMEEditBox::s_hDllIme
PUBLIC	?s_ImeState@CDXUTIMEEditBox@@1W4IMESTATE@1@A	; CDXUTIMEEditBox::s_ImeState
PUBLIC	?s_bEnableImeSystem@CDXUTIMEEditBox@@1_NA	; CDXUTIMEEditBox::s_bEnableImeSystem
PUBLIC	?s_ptCompString@CDXUTIMEEditBox@@1UtagPOINT@@A	; CDXUTIMEEditBox::s_ptCompString
PUBLIC	?s_nCompCaret@CDXUTIMEEditBox@@1HA		; CDXUTIMEEditBox::s_nCompCaret
PUBLIC	?s_nFirstTargetConv@CDXUTIMEEditBox@@1HA	; CDXUTIMEEditBox::s_nFirstTargetConv
PUBLIC	?s_abCompStringAttr@CDXUTIMEEditBox@@1PAEA	; CDXUTIMEEditBox::s_abCompStringAttr
_BSS	SEGMENT
?s_adwCompStringClause@CDXUTIMEEditBox@@1PAKA DD 0100H DUP (?) ; CDXUTIMEEditBox::s_adwCompStringClause
?s_wszReadingString@CDXUTIMEEditBox@@1PADA DB 020H DUP (?) ; CDXUTIMEEditBox::s_wszReadingString
?s_bShowReadingWindow@CDXUTIMEEditBox@@1_NA DB 01H DUP (?) ; CDXUTIMEEditBox::s_bShowReadingWindow
	ALIGN	4

?s_bHorizontalReading@CDXUTIMEEditBox@@1_NA DB 01H DUP (?) ; CDXUTIMEEditBox::s_bHorizontalReading
	ALIGN	4

?s_bChineseIME@CDXUTIMEEditBox@@1_NA DB 01H DUP (?)	; CDXUTIMEEditBox::s_bChineseIME
	ALIGN	4

?hklPrev@?1??GetImeId@CDXUTIMEEditBox@@KAKI@Z@4PAUHKL__@@A DD 01H DUP (?) ; `CDXUTIMEEditBox::GetImeId'::`2'::hklPrev
?dwID@?1??GetImeId@CDXUTIMEEditBox@@KAKI@Z@4PAKA DD 02H DUP (?) ; `CDXUTIMEEditBox::GetImeId'::`2'::dwID
?m_bIMEStaticMsgProcCalled@CDXUTIMEEditBox@@1_NA DB 01H DUP (?) ; CDXUTIMEEditBox::m_bIMEStaticMsgProcCalled
	ALIGN	4

?hklPrev@?1??CheckInputLocale@CDXUTIMEEditBox@@KAXXZ@4PAUHKL__@@A DD 01H DUP (?) ; `CDXUTIMEEditBox::CheckInputLocale'::`2'::hklPrev
?s_fTimeRefresh@CDXUTDialog@@0NA DQ 01H DUP (?)		; CDXUTDialog::s_fTimeRefresh
?s_pControlFocus@CDXUTDialog@@0PAVCDXUTControl@@A DD 01H DUP (?) ; CDXUTDialog::s_pControlFocus
?s_pControlPressed@CDXUTDialog@@0PAVCDXUTControl@@A DD 01H DUP (?) ; CDXUTDialog::s_pControlPressed
?bProcessing@?3??FinalizeString@CDXUTIMEEditBox@@IAEX_N@Z@4_NA DB 01H DUP (?) ; `CDXUTIMEEditBox::FinalizeString'::`4'::bProcessing
	ALIGN	4

?s_hDll@CUniBuffer@@0PAUHINSTANCE__@@A DD 01H DUP (?)	; CUniBuffer::s_hDll
?s_bHideCaret@CDXUTEditBox@@1_NA DB 01H DUP (?)		; CDXUTEditBox::s_bHideCaret
	ALIGN	4

?s_hDllImm32@CDXUTIMEEditBox@@1PAUHINSTANCE__@@A DD 01H DUP (?) ; CDXUTIMEEditBox::s_hDllImm32
?s_hDllVer@CDXUTIMEEditBox@@1PAUHINSTANCE__@@A DD 01H DUP (?) ; CDXUTIMEEditBox::s_hDllVer
?s_hImcDef@CDXUTIMEEditBox@@1PAUHIMC__@@A DD 01H DUP (?) ; CDXUTIMEEditBox::s_hImcDef
?s_hklCurrent@CDXUTIMEEditBox@@1PAUHKL__@@A DD 01H DUP (?) ; CDXUTIMEEditBox::s_hklCurrent
?s_bVerticalCand@CDXUTIMEEditBox@@1_NA DB 01H DUP (?)	; CDXUTIMEEditBox::s_bVerticalCand
	ALIGN	4

?s_bInsertOnType@CDXUTIMEEditBox@@1_NA DB 01H DUP (?)	; CDXUTIMEEditBox::s_bInsertOnType
	ALIGN	4

?s_hDllIme@CDXUTIMEEditBox@@1PAUHINSTANCE__@@A DD 01H DUP (?) ; CDXUTIMEEditBox::s_hDllIme
?s_ImeState@CDXUTIMEEditBox@@1W4IMESTATE@1@A DD 01H DUP (?) ; CDXUTIMEEditBox::s_ImeState
?s_bEnableImeSystem@CDXUTIMEEditBox@@1_NA DB 01H DUP (?) ; CDXUTIMEEditBox::s_bEnableImeSystem
	ALIGN	8

?s_ptCompString@CDXUTIMEEditBox@@1UtagPOINT@@A DQ 01H DUP (?) ; CDXUTIMEEditBox::s_ptCompString
?s_nCompCaret@CDXUTIMEEditBox@@1HA DD 01H DUP (?)	; CDXUTIMEEditBox::s_nCompCaret
?s_nFirstTargetConv@CDXUTIMEEditBox@@1HA DD 01H DUP (?)	; CDXUTIMEEditBox::s_nFirstTargetConv
?s_abCompStringAttr@CDXUTIMEEditBox@@1PAEA DB 0100H DUP (?) ; CDXUTIMEEditBox::s_abCompStringAttr
_BSS	ENDS
_DATA	SEGMENT
?FVF@DXUT_SCREEN_VERTEX@@2KA DD 0144H			; DXUT_SCREEN_VERTEX::FVF
?lAlt@?3??MsgProc@CDXUTIMEEditBox@@UAE_NIIJ@Z@4JA DD 080000000H ; `CDXUTIMEEditBox::MsgProc'::`4'::lAlt
?lCtrl@?3??MsgProc@CDXUTIMEEditBox@@UAE_NIIJ@Z@4JA DD 080000000H ; `CDXUTIMEEditBox::MsgProc'::`4'::lCtrl
?lShift@?3??MsgProc@CDXUTIMEEditBox@@UAE_NIIJ@Z@4JA DD 080000000H ; `CDXUTIMEEditBox::MsgProc'::`4'::lShift
?_ScriptApplyDigitSubstitution@CUniBuffer@@0P6GJPBUtag_SCRIPT_DIGITSUBSTITUTE@@PAUtag_SCRIPT_CONTROL@@PAUtag_SCRIPT_STATE@@@ZA DD FLAT:?Dummy_ScriptApplyDigitSubstitution@CUniBuffer@@CGJPBUtag_SCRIPT_DIGITSUBSTITUTE@@PAUtag_SCRIPT_CONTROL@@PAUtag_SCRIPT_STATE@@@Z ; CUniBuffer::_ScriptApplyDigitSubstitution
?_ScriptStringAnalyse@CUniBuffer@@0P6GJPAUHDC__@@PBXHHHKHPAUtag_SCRIPT_CONTROL@@PAUtag_SCRIPT_STATE@@PBHPAUtag_SCRIPT_TABDEF@@PBEPAPAX@ZA DD FLAT:?Dummy_ScriptStringAnalyse@CUniBuffer@@CGJPAUHDC__@@PBXHHHKHPAUtag_SCRIPT_CONTROL@@PAUtag_SCRIPT_STATE@@PBHPAUtag_SCRIPT_TABDEF@@PBEPAPAX@Z ; CUniBuffer::_ScriptStringAnalyse
?_ScriptStringCPtoX@CUniBuffer@@0P6GJPAXHHPAH@ZA DD FLAT:?Dummy_ScriptStringCPtoX@CUniBuffer@@CGJPAXHHPAH@Z ; CUniBuffer::_ScriptStringCPtoX
?_ScriptStringXtoCP@CUniBuffer@@0P6GJPAXHPAH1@ZA DD FLAT:?Dummy_ScriptStringXtoCP@CUniBuffer@@CGJPAXHPAH1@Z ; CUniBuffer::_ScriptStringXtoCP
?_ScriptStringFree@CUniBuffer@@0P6GJPAPAX@ZA DD FLAT:?Dummy_ScriptStringFree@CUniBuffer@@CGJPAPAX@Z ; CUniBuffer::_ScriptStringFree
?_ScriptString_pLogAttr@CUniBuffer@@0P6GPBUtag_SCRIPT_LOGATTR@@PAX@ZA DD FLAT:?Dummy_ScriptString_pLogAttr@CUniBuffer@@CGPBUtag_SCRIPT_LOGATTR@@PAX@Z ; CUniBuffer::_ScriptString_pLogAttr
?_ScriptString_pcOutChars@CUniBuffer@@0P6GPBHPAX@ZA DD FLAT:?Dummy_ScriptString_pcOutChars@CUniBuffer@@CGPBHPAX@Z ; CUniBuffer::_ScriptString_pcOutChars
?_ImmLockIMC@CDXUTIMEEditBox@@1P6GPAU__MIDL___MIDL_itf_dimm_0000_0000_0012@@PAUHIMC__@@@ZA DD FLAT:?Dummy_ImmLockIMC@CDXUTIMEEditBox@@KGPAU__MIDL___MIDL_itf_dimm_0000_0000_0012@@PAUHIMC__@@@Z ; CDXUTIMEEditBox::_ImmLockIMC
?_ImmUnlockIMC@CDXUTIMEEditBox@@1P6GHPAUHIMC__@@@ZA DD FLAT:?Dummy_ImmUnlockIMC@CDXUTIMEEditBox@@KGHPAUHIMC__@@@Z ; CDXUTIMEEditBox::_ImmUnlockIMC
?_ImmLockIMCC@CDXUTIMEEditBox@@1P6GPAXPAUHIMCC__@@@ZA DD FLAT:?Dummy_ImmLockIMCC@CDXUTIMEEditBox@@KGPAXPAUHIMCC__@@@Z ; CDXUTIMEEditBox::_ImmLockIMCC
?_ImmUnlockIMCC@CDXUTIMEEditBox@@1P6GHPAUHIMCC__@@@ZA DD FLAT:?Dummy_ImmUnlockIMCC@CDXUTIMEEditBox@@KGHPAUHIMCC__@@@Z ; CDXUTIMEEditBox::_ImmUnlockIMCC
?_ImmDisableTextFrameService@CDXUTIMEEditBox@@1P6GHK@ZA DD FLAT:?Dummy_ImmDisableTextFrameService@CDXUTIMEEditBox@@KGHK@Z ; CDXUTIMEEditBox::_ImmDisableTextFrameService
?_ImmGetCompositionStringW@CDXUTIMEEditBox@@1P6GJPAUHIMC__@@KPAXK@ZA DD FLAT:?Dummy_ImmGetCompositionStringW@CDXUTIMEEditBox@@KGJPAUHIMC__@@KPAXK@Z ; CDXUTIMEEditBox::_ImmGetCompositionStringW
?_ImmGetCandidateListW@CDXUTIMEEditBox@@1P6GKPAUHIMC__@@KPAUtagCANDIDATELIST@@K@ZA DD FLAT:?Dummy_ImmGetCandidateListW@CDXUTIMEEditBox@@KGKPAUHIMC__@@KPAUtagCANDIDATELIST@@K@Z ; CDXUTIMEEditBox::_ImmGetCandidateListW
?_ImmGetContext@CDXUTIMEEditBox@@1P6GPAUHIMC__@@PAUHWND__@@@ZA DD FLAT:?Dummy_ImmGetContext@CDXUTIMEEditBox@@KGPAUHIMC__@@PAUHWND__@@@Z ; CDXUTIMEEditBox::_ImmGetContext
?_ImmReleaseContext@CDXUTIMEEditBox@@1P6GHPAUHWND__@@PAUHIMC__@@@ZA DD FLAT:?Dummy_ImmReleaseContext@CDXUTIMEEditBox@@KGHPAUHWND__@@PAUHIMC__@@@Z ; CDXUTIMEEditBox::_ImmReleaseContext
?_ImmAssociateContext@CDXUTIMEEditBox@@1P6GPAUHIMC__@@PAUHWND__@@PAU2@@ZA DD FLAT:?Dummy_ImmAssociateContext@CDXUTIMEEditBox@@KGPAUHIMC__@@PAUHWND__@@PAU2@@Z ; CDXUTIMEEditBox::_ImmAssociateContext
?_ImmGetOpenStatus@CDXUTIMEEditBox@@1P6GHPAUHIMC__@@@ZA DD FLAT:?Dummy_ImmGetOpenStatus@CDXUTIMEEditBox@@KGHPAUHIMC__@@@Z ; CDXUTIMEEditBox::_ImmGetOpenStatus
?_ImmSetOpenStatus@CDXUTIMEEditBox@@1P6GHPAUHIMC__@@H@ZA DD FLAT:?Dummy_ImmSetOpenStatus@CDXUTIMEEditBox@@KGHPAUHIMC__@@H@Z ; CDXUTIMEEditBox::_ImmSetOpenStatus
?_ImmGetConversionStatus@CDXUTIMEEditBox@@1P6GHPAUHIMC__@@PAK1@ZA DD FLAT:?Dummy_ImmGetConversionStatus@CDXUTIMEEditBox@@KGHPAUHIMC__@@PAK1@Z ; CDXUTIMEEditBox::_ImmGetConversionStatus
?_ImmGetDefaultIMEWnd@CDXUTIMEEditBox@@1P6GPAUHWND__@@PAU2@@ZA DD FLAT:?Dummy_ImmGetDefaultIMEWnd@CDXUTIMEEditBox@@KGPAUHWND__@@PAU2@@Z ; CDXUTIMEEditBox::_ImmGetDefaultIMEWnd
?_ImmGetIMEFileNameA@CDXUTIMEEditBox@@1P6GIPAUHKL__@@PADI@ZA DD FLAT:?Dummy_ImmGetIMEFileNameA@CDXUTIMEEditBox@@KGIPAUHKL__@@PADI@Z ; CDXUTIMEEditBox::_ImmGetIMEFileNameA
?_ImmGetVirtualKey@CDXUTIMEEditBox@@1P6GIPAUHWND__@@@ZA DD FLAT:?Dummy_ImmGetVirtualKey@CDXUTIMEEditBox@@KGIPAUHWND__@@@Z ; CDXUTIMEEditBox::_ImmGetVirtualKey
?_ImmNotifyIME@CDXUTIMEEditBox@@1P6GHPAUHIMC__@@KKK@ZA DD FLAT:?Dummy_ImmNotifyIME@CDXUTIMEEditBox@@KGHPAUHIMC__@@KKK@Z ; CDXUTIMEEditBox::_ImmNotifyIME
?_ImmSetConversionStatus@CDXUTIMEEditBox@@1P6GHPAUHIMC__@@KK@ZA DD FLAT:?Dummy_ImmSetConversionStatus@CDXUTIMEEditBox@@KGHPAUHIMC__@@KK@Z ; CDXUTIMEEditBox::_ImmSetConversionStatus
?_ImmSimulateHotKey@CDXUTIMEEditBox@@1P6GHPAUHWND__@@K@ZA DD FLAT:?Dummy_ImmSimulateHotKey@CDXUTIMEEditBox@@KGHPAUHWND__@@K@Z ; CDXUTIMEEditBox::_ImmSimulateHotKey
?_ImmIsIME@CDXUTIMEEditBox@@1P6GHPAUHKL__@@@ZA DD FLAT:?Dummy_ImmIsIME@CDXUTIMEEditBox@@KGHPAUHKL__@@@Z ; CDXUTIMEEditBox::_ImmIsIME
?_GetReadingString@CDXUTIMEEditBox@@1P6GIPAUHIMC__@@IPADPAH2PAI@ZA DD FLAT:?Dummy_GetReadingString@CDXUTIMEEditBox@@KGIPAUHIMC__@@IPADPAH2PAI@Z ; CDXUTIMEEditBox::_GetReadingString
?_ShowReadingWindow@CDXUTIMEEditBox@@1P6GHPAUHIMC__@@H@ZA DD FLAT:?Dummy_ShowReadingWindow@CDXUTIMEEditBox@@KGHPAUHIMC__@@H@Z ; CDXUTIMEEditBox::_ShowReadingWindow
?_VerQueryValueA@CDXUTIMEEditBox@@1P6GHQAXPADPAPAXPAI@ZA DD FLAT:?Dummy_VerQueryValueA@CDXUTIMEEditBox@@KGHQAXPADPAPAXPAI@Z ; CDXUTIMEEditBox::_VerQueryValueA
?_GetFileVersionInfoA@CDXUTIMEEditBox@@1P6GHPADKKPAX@ZA DD FLAT:?Dummy_GetFileVersionInfoA@CDXUTIMEEditBox@@KGHPADKKPAX@Z ; CDXUTIMEEditBox::_GetFileVersionInfoA
?_GetFileVersionInfoSizeA@CDXUTIMEEditBox@@1P6GKPADPAK@ZA DD FLAT:?Dummy_GetFileVersionInfoSizeA@CDXUTIMEEditBox@@KGKPADPAK@Z ; CDXUTIMEEditBox::_GetFileVersionInfoSizeA
?s_wszCurrIndicator@CDXUTIMEEditBox@@1PADA DD FLAT:?s_aszIndicator@CDXUTIMEEditBox@@1PAY02DA ; CDXUTIMEEditBox::s_wszCurrIndicator
?s_aszIndicator@CDXUTIMEEditBox@@1PAY02DA DB 'En', 00H	; CDXUTIMEEditBox::s_aszIndicator
	DB	00H, 00H
	ORG $+1
	DB	00H, 00H
	ORG $+1
	DB	00H, 00H
	ORG $+1
	DB	00H, 00H
	ORG $+1
_DATA	ENDS
PUBLIC	??2@YAPAXIPAX@Z					; operator new
PUBLIC	_powf
PUBLIC	??0D3DXVECTOR3@@QAE@MMM@Z			; D3DXVECTOR3::D3DXVECTOR3
PUBLIC	??0D3DXMATRIX@@QAE@XZ				; D3DXMATRIX::D3DXMATRIX
PUBLIC	??0_D3DXMATRIXA16@@QAE@XZ			; _D3DXMATRIXA16::_D3DXMATRIXA16
PUBLIC	??0D3DXCOLOR@@QAE@XZ				; D3DXCOLOR::D3DXCOLOR
PUBLIC	??0D3DXCOLOR@@QAE@K@Z				; D3DXCOLOR::D3DXCOLOR
PUBLIC	??BD3DXCOLOR@@QBEKXZ				; D3DXCOLOR::operator unsigned long
PUBLIC	?D3DXMatrixIdentity@@YAPAUD3DXMATRIX@@PAU1@@Z	; D3DXMatrixIdentity
PUBLIC	?D3DXColorLerp@@YAPAUD3DXCOLOR@@PAU1@PBU1@1M@Z	; D3DXColorLerp
PUBLIC	?StringCopyWorkerA@@YGJPADIPBD@Z		; StringCopyWorkerA
PUBLIC	?StringCatWorkerA@@YGJPADIPBD@Z			; StringCatWorkerA
PUBLIC	?StringVPrintfWorkerA@@YGJPADIPBD0@Z		; StringVPrintfWorkerA
PUBLIC	?StringLengthWorkerA@@YGJPBDIPAI@Z		; StringLengthWorkerA
PUBLIC	?StringCchCopyA@@YGJPADIPBD@Z			; StringCchCopyA
PUBLIC	?StringCchCatA@@YGJPADIPBD@Z			; StringCchCatA
PUBLIC	?StringCchPrintfA@@YAJPADIPBDZZ			; StringCchPrintfA
PUBLIC	?Init@DXUTBlendColor@@QAEXKKK@Z			; DXUTBlendColor::Init
PUBLIC	?Blend@DXUTBlendColor@@QAEXIMM@Z		; DXUTBlendColor::Blend
PUBLIC	??0DXUTBlendColor@@QAE@XZ			; DXUTBlendColor::DXUTBlendColor
PUBLIC	?SetTexture@CDXUTElement@@QAEXIPAUtagRECT@@K@Z	; CDXUTElement::SetTexture
PUBLIC	?SetFont@CDXUTElement@@QAEXIKK@Z		; CDXUTElement::SetFont
PUBLIC	?Refresh@CDXUTElement@@QAEXXZ			; CDXUTElement::Refresh
PUBLIC	??0CDXUTElement@@QAE@XZ				; CDXUTElement::CDXUTElement
PUBLIC	??0CDXUTDialog@@QAE@XZ				; CDXUTDialog::CDXUTDialog
PUBLIC	??1CDXUTDialog@@QAE@XZ				; CDXUTDialog::~CDXUTDialog
PUBLIC	?Init@CDXUTDialog@@QAEXPAVCDXUTDialogResourceManager@@@Z ; CDXUTDialog::Init
PUBLIC	?MsgProc@CDXUTDialog@@QAE_NPAUHWND__@@IIJ@Z	; CDXUTDialog::MsgProc
PUBLIC	?AddStatic@CDXUTDialog@@QAEJHPBDHHHH_NPAPAVCDXUTStatic@@@Z ; CDXUTDialog::AddStatic
PUBLIC	?AddButton@CDXUTDialog@@QAEJHPBDHHHHI_NPAPAVCDXUTButton@@@Z ; CDXUTDialog::AddButton
PUBLIC	?AddCheckBox@CDXUTDialog@@QAEJHPBDHHHH_NI1PAPAVCDXUTCheckBox@@@Z ; CDXUTDialog::AddCheckBox
PUBLIC	?AddRadioButton@CDXUTDialog@@QAEJHIPBDHHHH_NI1PAPAVCDXUTRadioButton@@@Z ; CDXUTDialog::AddRadioButton
PUBLIC	?AddComboBox@CDXUTDialog@@QAEJHHHHHI_NPAPAVCDXUTComboBox@@@Z ; CDXUTDialog::AddComboBox
PUBLIC	?AddSlider@CDXUTDialog@@QAEJHHHHHHHH_NPAPAVCDXUTSlider@@@Z ; CDXUTDialog::AddSlider
PUBLIC	?AddEditBox@CDXUTDialog@@QAEJHPBDHHHH_NPAPAVCDXUTEditBox@@@Z ; CDXUTDialog::AddEditBox
PUBLIC	?AddIMEEditBox@CDXUTDialog@@QAEJHPBDHHHH_NPAPAVCDXUTIMEEditBox@@@Z ; CDXUTDialog::AddIMEEditBox
PUBLIC	?AddListBox@CDXUTDialog@@QAEJHHHHHKPAPAVCDXUTListBox@@@Z ; CDXUTDialog::AddListBox
PUBLIC	?AddControl@CDXUTDialog@@QAEJPAVCDXUTControl@@@Z ; CDXUTDialog::AddControl
PUBLIC	?InitControl@CDXUTDialog@@QAEJPAVCDXUTControl@@@Z ; CDXUTDialog::InitControl
PUBLIC	?GetComboBox@CDXUTDialog@@QAEPAVCDXUTComboBox@@H@Z ; CDXUTDialog::GetComboBox
PUBLIC	?GetControl@CDXUTDialog@@QAEPAVCDXUTControl@@H@Z ; CDXUTDialog::GetControl
PUBLIC	?GetControl@CDXUTDialog@@QAEPAVCDXUTControl@@HI@Z ; CDXUTDialog::GetControl
PUBLIC	?GetControlAtPoint@CDXUTDialog@@QAEPAVCDXUTControl@@UtagPOINT@@@Z ; CDXUTDialog::GetControlAtPoint
PUBLIC	?GetControlEnabled@CDXUTDialog@@QAE_NH@Z	; CDXUTDialog::GetControlEnabled
PUBLIC	?SetControlEnabled@CDXUTDialog@@QAEXH_N@Z	; CDXUTDialog::SetControlEnabled
PUBLIC	?ClearRadioButtonGroup@CDXUTDialog@@QAEXI@Z	; CDXUTDialog::ClearRadioButtonGroup
PUBLIC	?ClearComboBox@CDXUTDialog@@QAEXH@Z		; CDXUTDialog::ClearComboBox
PUBLIC	?SetDefaultElement@CDXUTDialog@@QAEJIIPAVCDXUTElement@@@Z ; CDXUTDialog::SetDefaultElement
PUBLIC	?GetDefaultElement@CDXUTDialog@@QAEPAVCDXUTElement@@II@Z ; CDXUTDialog::GetDefaultElement
PUBLIC	?SendEvent@CDXUTDialog@@QAEXI_NPAVCDXUTControl@@@Z ; CDXUTDialog::SendEvent
PUBLIC	?RequestFocus@CDXUTDialog@@QAEXPAVCDXUTControl@@@Z ; CDXUTDialog::RequestFocus
PUBLIC	?DrawRect@CDXUTDialog@@QAEJPAUtagRECT@@K@Z	; CDXUTDialog::DrawRect
PUBLIC	?DrawPolyLine@CDXUTDialog@@QAEJPAUtagPOINT@@IK@Z ; CDXUTDialog::DrawPolyLine
PUBLIC	?DrawSprite@CDXUTDialog@@QAEJPAVCDXUTElement@@PAUtagRECT@@@Z ; CDXUTDialog::DrawSprite
PUBLIC	?CalcTextRect@CDXUTDialog@@QAEJPBDPAVCDXUTElement@@PAUtagRECT@@H@Z ; CDXUTDialog::CalcTextRect
PUBLIC	?DrawTextA@CDXUTDialog@@QAEJPBDPAVCDXUTElement@@PAUtagRECT@@_NH@Z ; CDXUTDialog::DrawTextA
PUBLIC	?SetBackgroundColors@CDXUTDialog@@QAEXKKKK@Z	; CDXUTDialog::SetBackgroundColors
PUBLIC	?GetWidth@CDXUTDialog@@QAEHXZ			; CDXUTDialog::GetWidth
PUBLIC	?GetHeight@CDXUTDialog@@QAEHXZ			; CDXUTDialog::GetHeight
PUBLIC	?SetNextDialog@CDXUTDialog@@QAEXPAV1@@Z		; CDXUTDialog::SetNextDialog
PUBLIC	?GetNextControl@CDXUTDialog@@SAPAVCDXUTControl@@PAV2@@Z ; CDXUTDialog::GetNextControl
PUBLIC	?GetPrevControl@CDXUTDialog@@SAPAVCDXUTControl@@PAV2@@Z ; CDXUTDialog::GetPrevControl
PUBLIC	?RemoveControl@CDXUTDialog@@QAEXH@Z		; CDXUTDialog::RemoveControl
PUBLIC	?RemoveAllControls@CDXUTDialog@@QAEXXZ		; CDXUTDialog::RemoveAllControls
PUBLIC	?SetCallback@CDXUTDialog@@QAEXP6GXIHPAVCDXUTControl@@PAX@Z1@Z ; CDXUTDialog::SetCallback
PUBLIC	?Refresh@CDXUTDialog@@QAEXXZ			; CDXUTDialog::Refresh
PUBLIC	?OnRender@CDXUTDialog@@QAEJM@Z			; CDXUTDialog::OnRender
PUBLIC	?SetFont@CDXUTDialog@@QAEJIPBDJJ@Z		; CDXUTDialog::SetFont
PUBLIC	?GetFont@CDXUTDialog@@QAEPAUDXUTFontNode@@I@Z	; CDXUTDialog::GetFont
PUBLIC	?SetTexture@CDXUTDialog@@QAEJIPBD@Z		; CDXUTDialog::SetTexture
PUBLIC	?GetTexture@CDXUTDialog@@QAEPAUDXUTTextureNode@@I@Z ; CDXUTDialog::GetTexture
PUBLIC	?GetManager@CDXUTDialog@@QAEPAVCDXUTDialogResourceManager@@XZ ; CDXUTDialog::GetManager
PUBLIC	?ClearFocus@CDXUTDialog@@SAXXZ			; CDXUTDialog::ClearFocus
PUBLIC	?FocusDefaultControl@CDXUTDialog@@QAEXXZ	; CDXUTDialog::FocusDefaultControl
PUBLIC	?InitDefaultElements@CDXUTDialog@@AAEXXZ	; CDXUTDialog::InitDefaultElements
PUBLIC	?OnMouseMove@CDXUTDialog@@AAEXUtagPOINT@@@Z	; CDXUTDialog::OnMouseMove
PUBLIC	?OnMouseUp@CDXUTDialog@@AAEXUtagPOINT@@@Z	; CDXUTDialog::OnMouseUp
PUBLIC	?OnCycleFocus@CDXUTDialog@@AAE_N_N@Z		; CDXUTDialog::OnCycleFocus
PUBLIC	??0?$CGrowableArray@H@@QAE@XZ			; CGrowableArray<int>::CGrowableArray<int>
PUBLIC	??1?$CGrowableArray@H@@QAE@XZ			; CGrowableArray<int>::~CGrowableArray<int>
PUBLIC	?SetSize@?$CGrowableArray@H@@QAEJH@Z		; CGrowableArray<int>::SetSize
PUBLIC	?Add@?$CGrowableArray@H@@QAEJABH@Z		; CGrowableArray<int>::Add
PUBLIC	?SetAt@?$CGrowableArray@H@@QAEJHABH@Z		; CGrowableArray<int>::SetAt
PUBLIC	?GetAt@?$CGrowableArray@H@@QAEAAHH@Z		; CGrowableArray<int>::GetAt
PUBLIC	?GetSize@?$CGrowableArray@H@@QBEHXZ		; CGrowableArray<int>::GetSize
PUBLIC	?RemoveAll@?$CGrowableArray@H@@QAEXXZ		; CGrowableArray<int>::RemoveAll
PUBLIC	?SetSizeInternal@?$CGrowableArray@H@@IAEJH@Z	; CGrowableArray<int>::SetSizeInternal
PUBLIC	??0?$CGrowableArray@PAVCDXUTControl@@@@QAE@XZ	; CGrowableArray<CDXUTControl *>::CGrowableArray<CDXUTControl *>
PUBLIC	??1?$CGrowableArray@PAVCDXUTControl@@@@QAE@XZ	; CGrowableArray<CDXUTControl *>::~CGrowableArray<CDXUTControl *>
PUBLIC	?SetSize@?$CGrowableArray@PAVCDXUTControl@@@@QAEJH@Z ; CGrowableArray<CDXUTControl *>::SetSize
PUBLIC	?Add@?$CGrowableArray@PAVCDXUTControl@@@@QAEJABQAVCDXUTControl@@@Z ; CGrowableArray<CDXUTControl *>::Add
PUBLIC	?GetAt@?$CGrowableArray@PAVCDXUTControl@@@@QAEAAPAVCDXUTControl@@H@Z ; CGrowableArray<CDXUTControl *>::GetAt
PUBLIC	?GetSize@?$CGrowableArray@PAVCDXUTControl@@@@QBEHXZ ; CGrowableArray<CDXUTControl *>::GetSize
PUBLIC	?Remove@?$CGrowableArray@PAVCDXUTControl@@@@QAEJH@Z ; CGrowableArray<CDXUTControl *>::Remove
PUBLIC	?RemoveAll@?$CGrowableArray@PAVCDXUTControl@@@@QAEXXZ ; CGrowableArray<CDXUTControl *>::RemoveAll
PUBLIC	?SetSizeInternal@?$CGrowableArray@PAVCDXUTControl@@@@IAEJH@Z ; CGrowableArray<CDXUTControl *>::SetSizeInternal
PUBLIC	??0?$CGrowableArray@PAUDXUTElementHolder@@@@QAE@XZ ; CGrowableArray<DXUTElementHolder *>::CGrowableArray<DXUTElementHolder *>
PUBLIC	??1?$CGrowableArray@PAUDXUTElementHolder@@@@QAE@XZ ; CGrowableArray<DXUTElementHolder *>::~CGrowableArray<DXUTElementHolder *>
PUBLIC	?SetSize@?$CGrowableArray@PAUDXUTElementHolder@@@@QAEJH@Z ; CGrowableArray<DXUTElementHolder *>::SetSize
PUBLIC	?Add@?$CGrowableArray@PAUDXUTElementHolder@@@@QAEJABQAUDXUTElementHolder@@@Z ; CGrowableArray<DXUTElementHolder *>::Add
PUBLIC	?GetAt@?$CGrowableArray@PAUDXUTElementHolder@@@@QAEAAPAUDXUTElementHolder@@H@Z ; CGrowableArray<DXUTElementHolder *>::GetAt
PUBLIC	?GetSize@?$CGrowableArray@PAUDXUTElementHolder@@@@QBEHXZ ; CGrowableArray<DXUTElementHolder *>::GetSize
PUBLIC	?RemoveAll@?$CGrowableArray@PAUDXUTElementHolder@@@@QAEXXZ ; CGrowableArray<DXUTElementHolder *>::RemoveAll
PUBLIC	?SetSizeInternal@?$CGrowableArray@PAUDXUTElementHolder@@@@IAEJH@Z ; CGrowableArray<DXUTElementHolder *>::SetSizeInternal
PUBLIC	??0CDXUTDialogResourceManager@@QAE@XZ		; CDXUTDialogResourceManager::CDXUTDialogResourceManager
PUBLIC	??1CDXUTDialogResourceManager@@QAE@XZ		; CDXUTDialogResourceManager::~CDXUTDialogResourceManager
PUBLIC	?OnCreateDevice@CDXUTDialogResourceManager@@QAEJPAUIDirect3DDevice9@@@Z ; CDXUTDialogResourceManager::OnCreateDevice
PUBLIC	?OnResetDevice@CDXUTDialogResourceManager@@QAEJXZ ; CDXUTDialogResourceManager::OnResetDevice
PUBLIC	?OnLostDevice@CDXUTDialogResourceManager@@QAEXXZ ; CDXUTDialogResourceManager::OnLostDevice
PUBLIC	?OnDestroyDevice@CDXUTDialogResourceManager@@QAEXXZ ; CDXUTDialogResourceManager::OnDestroyDevice
PUBLIC	?MsgProc@CDXUTDialogResourceManager@@QAE_NPAUHWND__@@IIJ@Z ; CDXUTDialogResourceManager::MsgProc
PUBLIC	?AddFont@CDXUTDialogResourceManager@@QAEHPBDJJ@Z ; CDXUTDialogResourceManager::AddFont
PUBLIC	?AddTexture@CDXUTDialogResourceManager@@QAEHPBD@Z ; CDXUTDialogResourceManager::AddTexture
PUBLIC	?GetFontNode@CDXUTDialogResourceManager@@QAEPAUDXUTFontNode@@H@Z ; CDXUTDialogResourceManager::GetFontNode
PUBLIC	?GetTextureNode@CDXUTDialogResourceManager@@QAEPAUDXUTTextureNode@@H@Z ; CDXUTDialogResourceManager::GetTextureNode
PUBLIC	?GetD3DDevice@CDXUTDialogResourceManager@@QAEPAUIDirect3DDevice9@@XZ ; CDXUTDialogResourceManager::GetD3DDevice
PUBLIC	??0?$CGrowableArray@PAUDXUTTextureNode@@@@QAE@XZ ; CGrowableArray<DXUTTextureNode *>::CGrowableArray<DXUTTextureNode *>
PUBLIC	??1?$CGrowableArray@PAUDXUTTextureNode@@@@QAE@XZ ; CGrowableArray<DXUTTextureNode *>::~CGrowableArray<DXUTTextureNode *>
PUBLIC	?SetSize@?$CGrowableArray@PAUDXUTTextureNode@@@@QAEJH@Z ; CGrowableArray<DXUTTextureNode *>::SetSize
PUBLIC	?Add@?$CGrowableArray@PAUDXUTTextureNode@@@@QAEJABQAUDXUTTextureNode@@@Z ; CGrowableArray<DXUTTextureNode *>::Add
PUBLIC	?GetAt@?$CGrowableArray@PAUDXUTTextureNode@@@@QAEAAPAUDXUTTextureNode@@H@Z ; CGrowableArray<DXUTTextureNode *>::GetAt
PUBLIC	?GetSize@?$CGrowableArray@PAUDXUTTextureNode@@@@QBEHXZ ; CGrowableArray<DXUTTextureNode *>::GetSize
PUBLIC	?RemoveAll@?$CGrowableArray@PAUDXUTTextureNode@@@@QAEXXZ ; CGrowableArray<DXUTTextureNode *>::RemoveAll
PUBLIC	?SetSizeInternal@?$CGrowableArray@PAUDXUTTextureNode@@@@IAEJH@Z ; CGrowableArray<DXUTTextureNode *>::SetSizeInternal
PUBLIC	??0?$CGrowableArray@PAUDXUTFontNode@@@@QAE@XZ	; CGrowableArray<DXUTFontNode *>::CGrowableArray<DXUTFontNode *>
PUBLIC	??1?$CGrowableArray@PAUDXUTFontNode@@@@QAE@XZ	; CGrowableArray<DXUTFontNode *>::~CGrowableArray<DXUTFontNode *>
PUBLIC	?SetSize@?$CGrowableArray@PAUDXUTFontNode@@@@QAEJH@Z ; CGrowableArray<DXUTFontNode *>::SetSize
PUBLIC	?Add@?$CGrowableArray@PAUDXUTFontNode@@@@QAEJABQAUDXUTFontNode@@@Z ; CGrowableArray<DXUTFontNode *>::Add
PUBLIC	?GetAt@?$CGrowableArray@PAUDXUTFontNode@@@@QAEAAPAUDXUTFontNode@@H@Z ; CGrowableArray<DXUTFontNode *>::GetAt
PUBLIC	?GetSize@?$CGrowableArray@PAUDXUTFontNode@@@@QBEHXZ ; CGrowableArray<DXUTFontNode *>::GetSize
PUBLIC	?RemoveAll@?$CGrowableArray@PAUDXUTFontNode@@@@QAEXXZ ; CGrowableArray<DXUTFontNode *>::RemoveAll
PUBLIC	?SetSizeInternal@?$CGrowableArray@PAUDXUTFontNode@@@@IAEJH@Z ; CGrowableArray<DXUTFontNode *>::SetSizeInternal
PUBLIC	?CreateFontA@CDXUTDialogResourceManager@@QAEJI@Z ; CDXUTDialogResourceManager::CreateFontA
PUBLIC	?CreateTexture@CDXUTDialogResourceManager@@QAEJI@Z ; CDXUTDialogResourceManager::CreateTexture
PUBLIC	??0CDXUTControl@@QAE@PAVCDXUTDialog@@@Z		; CDXUTControl::CDXUTControl
PUBLIC	??1CDXUTControl@@UAE@XZ				; CDXUTControl::~CDXUTControl
PUBLIC	?OnInit@CDXUTControl@@UAEJXZ			; CDXUTControl::OnInit
PUBLIC	?Refresh@CDXUTControl@@UAEXXZ			; CDXUTControl::Refresh
PUBLIC	?Render@CDXUTControl@@UAEXPAUIDirect3DDevice9@@M@Z ; CDXUTControl::Render
PUBLIC	?MsgProc@CDXUTControl@@UAE_NIIJ@Z		; CDXUTControl::MsgProc
PUBLIC	?HandleKeyboard@CDXUTControl@@UAE_NIIJ@Z	; CDXUTControl::HandleKeyboard
PUBLIC	?HandleMouse@CDXUTControl@@UAE_NIUtagPOINT@@IJ@Z ; CDXUTControl::HandleMouse
PUBLIC	?CanHaveFocus@CDXUTControl@@UAE_NXZ		; CDXUTControl::CanHaveFocus
PUBLIC	?OnFocusIn@CDXUTControl@@UAEXXZ			; CDXUTControl::OnFocusIn
PUBLIC	?OnFocusOut@CDXUTControl@@UAEXXZ		; CDXUTControl::OnFocusOut
PUBLIC	?OnMouseEnter@CDXUTControl@@UAEXXZ		; CDXUTControl::OnMouseEnter
PUBLIC	?OnMouseLeave@CDXUTControl@@UAEXXZ		; CDXUTControl::OnMouseLeave
PUBLIC	?OnHotkey@CDXUTControl@@UAEXXZ			; CDXUTControl::OnHotkey
PUBLIC	?ContainsPoint@CDXUTControl@@UAEHUtagPOINT@@@Z	; CDXUTControl::ContainsPoint
PUBLIC	?SetEnabled@CDXUTControl@@UAEX_N@Z		; CDXUTControl::SetEnabled
PUBLIC	?GetEnabled@CDXUTControl@@UAE_NXZ		; CDXUTControl::GetEnabled
PUBLIC	?SetVisible@CDXUTControl@@UAEX_N@Z		; CDXUTControl::SetVisible
PUBLIC	?GetVisible@CDXUTControl@@UAE_NXZ		; CDXUTControl::GetVisible
PUBLIC	?GetType@CDXUTControl@@QBEIXZ			; CDXUTControl::GetType
PUBLIC	?GetID@CDXUTControl@@QBEHXZ			; CDXUTControl::GetID
PUBLIC	?SetID@CDXUTControl@@QAEXH@Z			; CDXUTControl::SetID
PUBLIC	?SetLocation@CDXUTControl@@QAEXHH@Z		; CDXUTControl::SetLocation
PUBLIC	?SetSize@CDXUTControl@@QAEXHH@Z			; CDXUTControl::SetSize
PUBLIC	?SetHotkey@CDXUTControl@@QAEXI@Z		; CDXUTControl::SetHotkey
PUBLIC	?GetHotkey@CDXUTControl@@QAEIXZ			; CDXUTControl::GetHotkey
PUBLIC	?SetTextColor@CDXUTControl@@UAEXK@Z		; CDXUTControl::SetTextColor
PUBLIC	?GetElement@CDXUTControl@@QAEPAVCDXUTElement@@I@Z ; CDXUTControl::GetElement
PUBLIC	?SetElement@CDXUTControl@@QAEJIPAVCDXUTElement@@@Z ; CDXUTControl::SetElement
PUBLIC	??0?$CGrowableArray@PAVCDXUTElement@@@@QAE@XZ	; CGrowableArray<CDXUTElement *>::CGrowableArray<CDXUTElement *>
PUBLIC	??1?$CGrowableArray@PAVCDXUTElement@@@@QAE@XZ	; CGrowableArray<CDXUTElement *>::~CGrowableArray<CDXUTElement *>
PUBLIC	??A?$CGrowableArray@PAVCDXUTElement@@@@QAEAAPAVCDXUTElement@@H@Z ; CGrowableArray<CDXUTElement *>::operator[]
PUBLIC	?SetSize@?$CGrowableArray@PAVCDXUTElement@@@@QAEJH@Z ; CGrowableArray<CDXUTElement *>::SetSize
PUBLIC	?Add@?$CGrowableArray@PAVCDXUTElement@@@@QAEJABQAVCDXUTElement@@@Z ; CGrowableArray<CDXUTElement *>::Add
PUBLIC	?GetAt@?$CGrowableArray@PAVCDXUTElement@@@@QAEAAPAVCDXUTElement@@H@Z ; CGrowableArray<CDXUTElement *>::GetAt
PUBLIC	?GetSize@?$CGrowableArray@PAVCDXUTElement@@@@QBEHXZ ; CGrowableArray<CDXUTElement *>::GetSize
PUBLIC	?RemoveAll@?$CGrowableArray@PAVCDXUTElement@@@@QAEXXZ ; CGrowableArray<CDXUTElement *>::RemoveAll
PUBLIC	?SetSizeInternal@?$CGrowableArray@PAVCDXUTElement@@@@IAEJH@Z ; CGrowableArray<CDXUTElement *>::SetSizeInternal
PUBLIC	?UpdateRects@CDXUTControl@@MAEXXZ		; CDXUTControl::UpdateRects
PUBLIC	??_GCDXUTControl@@UAEPAXI@Z			; CDXUTControl::`scalar deleting destructor'
PUBLIC	??0DXUTElementHolder@@QAE@XZ			; DXUTElementHolder::DXUTElementHolder
PUBLIC	??0CDXUTStatic@@QAE@PAVCDXUTDialog@@@Z		; CDXUTStatic::CDXUTStatic
PUBLIC	?Render@CDXUTStatic@@UAEXPAUIDirect3DDevice9@@M@Z ; CDXUTStatic::Render
PUBLIC	?ContainsPoint@CDXUTStatic@@UAEHUtagPOINT@@@Z	; CDXUTStatic::ContainsPoint
PUBLIC	?GetTextCopy@CDXUTStatic@@QAEJPADI@Z		; CDXUTStatic::GetTextCopy
PUBLIC	?SetText@CDXUTStatic@@QAEJPBD@Z			; CDXUTStatic::SetText
PUBLIC	??1CDXUTStatic@@UAE@XZ				; CDXUTStatic::~CDXUTStatic
PUBLIC	??_GCDXUTStatic@@UAEPAXI@Z			; CDXUTStatic::`scalar deleting destructor'
PUBLIC	??0CDXUTButton@@QAE@PAVCDXUTDialog@@@Z		; CDXUTButton::CDXUTButton
PUBLIC	?HandleKeyboard@CDXUTButton@@UAE_NIIJ@Z		; CDXUTButton::HandleKeyboard
PUBLIC	?HandleMouse@CDXUTButton@@UAE_NIUtagPOINT@@IJ@Z	; CDXUTButton::HandleMouse
PUBLIC	?OnHotkey@CDXUTButton@@UAEXXZ			; CDXUTButton::OnHotkey
PUBLIC	?ContainsPoint@CDXUTButton@@UAEHUtagPOINT@@@Z	; CDXUTButton::ContainsPoint
PUBLIC	?CanHaveFocus@CDXUTButton@@UAE_NXZ		; CDXUTButton::CanHaveFocus
PUBLIC	?Render@CDXUTButton@@UAEXPAUIDirect3DDevice9@@M@Z ; CDXUTButton::Render
PUBLIC	??1CDXUTButton@@UAE@XZ				; CDXUTButton::~CDXUTButton
PUBLIC	??_GCDXUTButton@@UAEPAXI@Z			; CDXUTButton::`scalar deleting destructor'
PUBLIC	??0CDXUTCheckBox@@QAE@PAVCDXUTDialog@@@Z	; CDXUTCheckBox::CDXUTCheckBox
PUBLIC	?HandleKeyboard@CDXUTCheckBox@@UAE_NIIJ@Z	; CDXUTCheckBox::HandleKeyboard
PUBLIC	?HandleMouse@CDXUTCheckBox@@UAE_NIUtagPOINT@@IJ@Z ; CDXUTCheckBox::HandleMouse
PUBLIC	?OnHotkey@CDXUTCheckBox@@UAEXXZ			; CDXUTCheckBox::OnHotkey
PUBLIC	?ContainsPoint@CDXUTCheckBox@@UAEHUtagPOINT@@@Z	; CDXUTCheckBox::ContainsPoint
PUBLIC	?UpdateRects@CDXUTCheckBox@@UAEXXZ		; CDXUTCheckBox::UpdateRects
PUBLIC	?Render@CDXUTCheckBox@@UAEXPAUIDirect3DDevice9@@M@Z ; CDXUTCheckBox::Render
PUBLIC	?SetChecked@CDXUTCheckBox@@QAEX_N@Z		; CDXUTCheckBox::SetChecked
PUBLIC	?SetCheckedInternal@CDXUTCheckBox@@MAEX_N0@Z	; CDXUTCheckBox::SetCheckedInternal
PUBLIC	??1CDXUTCheckBox@@UAE@XZ			; CDXUTCheckBox::~CDXUTCheckBox
PUBLIC	??_GCDXUTCheckBox@@UAEPAXI@Z			; CDXUTCheckBox::`scalar deleting destructor'
PUBLIC	??0CDXUTRadioButton@@QAE@PAVCDXUTDialog@@@Z	; CDXUTRadioButton::CDXUTRadioButton
PUBLIC	?HandleKeyboard@CDXUTRadioButton@@UAE_NIIJ@Z	; CDXUTRadioButton::HandleKeyboard
PUBLIC	?HandleMouse@CDXUTRadioButton@@UAE_NIUtagPOINT@@IJ@Z ; CDXUTRadioButton::HandleMouse
PUBLIC	?OnHotkey@CDXUTRadioButton@@UAEXXZ		; CDXUTRadioButton::OnHotkey
PUBLIC	?SetChecked@CDXUTRadioButton@@QAEX_N0@Z		; CDXUTRadioButton::SetChecked
PUBLIC	?SetButtonGroup@CDXUTRadioButton@@QAEXI@Z	; CDXUTRadioButton::SetButtonGroup
PUBLIC	?GetButtonGroup@CDXUTRadioButton@@QAEIXZ	; CDXUTRadioButton::GetButtonGroup
PUBLIC	?SetCheckedInternal@CDXUTRadioButton@@MAEX_N00@Z ; CDXUTRadioButton::SetCheckedInternal
PUBLIC	??1CDXUTRadioButton@@UAE@XZ			; CDXUTRadioButton::~CDXUTRadioButton
PUBLIC	??_GCDXUTRadioButton@@UAEPAXI@Z			; CDXUTRadioButton::`scalar deleting destructor'
PUBLIC	??0CDXUTScrollBar@@QAE@PAVCDXUTDialog@@@Z	; CDXUTScrollBar::CDXUTScrollBar
PUBLIC	??1CDXUTScrollBar@@UAE@XZ			; CDXUTScrollBar::~CDXUTScrollBar
PUBLIC	?HandleKeyboard@CDXUTScrollBar@@UAE_NIIJ@Z	; CDXUTScrollBar::HandleKeyboard
PUBLIC	?HandleMouse@CDXUTScrollBar@@UAE_NIUtagPOINT@@IJ@Z ; CDXUTScrollBar::HandleMouse
PUBLIC	?Render@CDXUTScrollBar@@UAEXPAUIDirect3DDevice9@@M@Z ; CDXUTScrollBar::Render
PUBLIC	?UpdateRects@CDXUTScrollBar@@UAEXXZ		; CDXUTScrollBar::UpdateRects
PUBLIC	?SetTrackRange@CDXUTScrollBar@@QAEXHH@Z		; CDXUTScrollBar::SetTrackRange
PUBLIC	?GetTrackPos@CDXUTScrollBar@@QAEHXZ		; CDXUTScrollBar::GetTrackPos
PUBLIC	?GetPageSize@CDXUTScrollBar@@QAEHXZ		; CDXUTScrollBar::GetPageSize
PUBLIC	?SetPageSize@CDXUTScrollBar@@QAEXH@Z		; CDXUTScrollBar::SetPageSize
PUBLIC	?Scroll@CDXUTScrollBar@@QAEXH@Z			; CDXUTScrollBar::Scroll
PUBLIC	?ShowItem@CDXUTScrollBar@@QAEXH@Z		; CDXUTScrollBar::ShowItem
PUBLIC	?UpdateThumbRect@CDXUTScrollBar@@IAEXXZ		; CDXUTScrollBar::UpdateThumbRect
PUBLIC	?Cap@CDXUTScrollBar@@IAEXXZ			; CDXUTScrollBar::Cap
PUBLIC	??_GCDXUTScrollBar@@UAEPAXI@Z			; CDXUTScrollBar::`scalar deleting destructor'
PUBLIC	??0CDXUTListBox@@QAE@PAVCDXUTDialog@@@Z		; CDXUTListBox::CDXUTListBox
PUBLIC	??1CDXUTListBox@@UAE@XZ				; CDXUTListBox::~CDXUTListBox
PUBLIC	?OnInit@CDXUTListBox@@UAEJXZ			; CDXUTListBox::OnInit
PUBLIC	?CanHaveFocus@CDXUTListBox@@UAE_NXZ		; CDXUTListBox::CanHaveFocus
PUBLIC	?HandleKeyboard@CDXUTListBox@@UAE_NIIJ@Z	; CDXUTListBox::HandleKeyboard
PUBLIC	?HandleMouse@CDXUTListBox@@UAE_NIUtagPOINT@@IJ@Z ; CDXUTListBox::HandleMouse
PUBLIC	?Render@CDXUTListBox@@UAEXPAUIDirect3DDevice9@@M@Z ; CDXUTListBox::Render
PUBLIC	?UpdateRects@CDXUTListBox@@UAEXXZ		; CDXUTListBox::UpdateRects
PUBLIC	?SetStyle@CDXUTListBox@@QAEXK@Z			; CDXUTListBox::SetStyle
PUBLIC	?AddItem@CDXUTListBox@@QAEJPBDPAX@Z		; CDXUTListBox::AddItem
PUBLIC	?InsertItem@CDXUTListBox@@QAEJHPBDPAX@Z		; CDXUTListBox::InsertItem
PUBLIC	?RemoveItem@CDXUTListBox@@QAEXH@Z		; CDXUTListBox::RemoveItem
PUBLIC	?RemoveItemByText@CDXUTListBox@@QAEXPAD@Z	; CDXUTListBox::RemoveItemByText
PUBLIC	?RemoveItemByData@CDXUTListBox@@QAEXPAX@Z	; CDXUTListBox::RemoveItemByData
PUBLIC	?RemoveAllItems@CDXUTListBox@@QAEXXZ		; CDXUTListBox::RemoveAllItems
PUBLIC	?GetItem@CDXUTListBox@@QAEPAUDXUTListBoxItem@@H@Z ; CDXUTListBox::GetItem
PUBLIC	?GetSelectedIndex@CDXUTListBox@@QAEHH@Z		; CDXUTListBox::GetSelectedIndex
PUBLIC	?SelectItem@CDXUTListBox@@QAEXH@Z		; CDXUTListBox::SelectItem
PUBLIC	??0?$CGrowableArray@PAUDXUTListBoxItem@@@@QAE@XZ ; CGrowableArray<DXUTListBoxItem *>::CGrowableArray<DXUTListBoxItem *>
PUBLIC	??1?$CGrowableArray@PAUDXUTListBoxItem@@@@QAE@XZ ; CGrowableArray<DXUTListBoxItem *>::~CGrowableArray<DXUTListBoxItem *>
PUBLIC	??A?$CGrowableArray@PAUDXUTListBoxItem@@@@QAEAAPAUDXUTListBoxItem@@H@Z ; CGrowableArray<DXUTListBoxItem *>::operator[]
PUBLIC	?SetSize@?$CGrowableArray@PAUDXUTListBoxItem@@@@QAEJH@Z ; CGrowableArray<DXUTListBoxItem *>::SetSize
PUBLIC	?Add@?$CGrowableArray@PAUDXUTListBoxItem@@@@QAEJABQAUDXUTListBoxItem@@@Z ; CGrowableArray<DXUTListBoxItem *>::Add
PUBLIC	?Insert@?$CGrowableArray@PAUDXUTListBoxItem@@@@QAEJHABQAUDXUTListBoxItem@@@Z ; CGrowableArray<DXUTListBoxItem *>::Insert
PUBLIC	?GetAt@?$CGrowableArray@PAUDXUTListBoxItem@@@@QAEAAPAUDXUTListBoxItem@@H@Z ; CGrowableArray<DXUTListBoxItem *>::GetAt
PUBLIC	?GetSize@?$CGrowableArray@PAUDXUTListBoxItem@@@@QBEHXZ ; CGrowableArray<DXUTListBoxItem *>::GetSize
PUBLIC	?Remove@?$CGrowableArray@PAUDXUTListBoxItem@@@@QAEJH@Z ; CGrowableArray<DXUTListBoxItem *>::Remove
PUBLIC	?RemoveAll@?$CGrowableArray@PAUDXUTListBoxItem@@@@QAEXXZ ; CGrowableArray<DXUTListBoxItem *>::RemoveAll
PUBLIC	?SetSizeInternal@?$CGrowableArray@PAUDXUTListBoxItem@@@@IAEJH@Z ; CGrowableArray<DXUTListBoxItem *>::SetSizeInternal
PUBLIC	??_GCDXUTListBox@@UAEPAXI@Z			; CDXUTListBox::`scalar deleting destructor'
PUBLIC	??0CDXUTComboBox@@QAE@PAVCDXUTDialog@@@Z	; CDXUTComboBox::CDXUTComboBox
PUBLIC	??1CDXUTComboBox@@UAE@XZ			; CDXUTComboBox::~CDXUTComboBox
PUBLIC	?SetTextColor@CDXUTComboBox@@UAEXK@Z		; CDXUTComboBox::SetTextColor
PUBLIC	?OnInit@CDXUTComboBox@@UAEJXZ			; CDXUTComboBox::OnInit
PUBLIC	?HandleKeyboard@CDXUTComboBox@@UAE_NIIJ@Z	; CDXUTComboBox::HandleKeyboard
PUBLIC	?HandleMouse@CDXUTComboBox@@UAE_NIUtagPOINT@@IJ@Z ; CDXUTComboBox::HandleMouse
PUBLIC	?OnHotkey@CDXUTComboBox@@UAEXXZ			; CDXUTComboBox::OnHotkey
PUBLIC	?CanHaveFocus@CDXUTComboBox@@UAE_NXZ		; CDXUTComboBox::CanHaveFocus
PUBLIC	?OnFocusOut@CDXUTComboBox@@UAEXXZ		; CDXUTComboBox::OnFocusOut
PUBLIC	?Render@CDXUTComboBox@@UAEXPAUIDirect3DDevice9@@M@Z ; CDXUTComboBox::Render
PUBLIC	?UpdateRects@CDXUTComboBox@@UAEXXZ		; CDXUTComboBox::UpdateRects
PUBLIC	?AddItem@CDXUTComboBox@@QAEJPBDPAX@Z		; CDXUTComboBox::AddItem
PUBLIC	?RemoveAllItems@CDXUTComboBox@@QAEXXZ		; CDXUTComboBox::RemoveAllItems
PUBLIC	?RemoveItem@CDXUTComboBox@@QAEXI@Z		; CDXUTComboBox::RemoveItem
PUBLIC	?ContainsItem@CDXUTComboBox@@QAE_NPBDI@Z	; CDXUTComboBox::ContainsItem
PUBLIC	?FindItem@CDXUTComboBox@@QAEHPBDI@Z		; CDXUTComboBox::FindItem
PUBLIC	?GetItemData@CDXUTComboBox@@QAEPAXPBD@Z		; CDXUTComboBox::GetItemData
PUBLIC	?GetItemData@CDXUTComboBox@@QAEPAXH@Z		; CDXUTComboBox::GetItemData
PUBLIC	?GetSelectedData@CDXUTComboBox@@QAEPAXXZ	; CDXUTComboBox::GetSelectedData
PUBLIC	?GetSelectedItem@CDXUTComboBox@@QAEPAUDXUTComboBoxItem@@XZ ; CDXUTComboBox::GetSelectedItem
PUBLIC	?GetNumItems@CDXUTComboBox@@QAEIXZ		; CDXUTComboBox::GetNumItems
PUBLIC	?SetSelectedByIndex@CDXUTComboBox@@QAEJI@Z	; CDXUTComboBox::SetSelectedByIndex
PUBLIC	?SetSelectedByText@CDXUTComboBox@@QAEJPBD@Z	; CDXUTComboBox::SetSelectedByText
PUBLIC	?SetSelectedByData@CDXUTComboBox@@QAEJPAX@Z	; CDXUTComboBox::SetSelectedByData
PUBLIC	??0?$CGrowableArray@PAUDXUTComboBoxItem@@@@QAE@XZ ; CGrowableArray<DXUTComboBoxItem *>::CGrowableArray<DXUTComboBoxItem *>
PUBLIC	??1?$CGrowableArray@PAUDXUTComboBoxItem@@@@QAE@XZ ; CGrowableArray<DXUTComboBoxItem *>::~CGrowableArray<DXUTComboBoxItem *>
PUBLIC	?SetSize@?$CGrowableArray@PAUDXUTComboBoxItem@@@@QAEJH@Z ; CGrowableArray<DXUTComboBoxItem *>::SetSize
PUBLIC	?Add@?$CGrowableArray@PAUDXUTComboBoxItem@@@@QAEJABQAUDXUTComboBoxItem@@@Z ; CGrowableArray<DXUTComboBoxItem *>::Add
PUBLIC	?GetAt@?$CGrowableArray@PAUDXUTComboBoxItem@@@@QAEAAPAUDXUTComboBoxItem@@H@Z ; CGrowableArray<DXUTComboBoxItem *>::GetAt
PUBLIC	?GetSize@?$CGrowableArray@PAUDXUTComboBoxItem@@@@QBEHXZ ; CGrowableArray<DXUTComboBoxItem *>::GetSize
PUBLIC	?Remove@?$CGrowableArray@PAUDXUTComboBoxItem@@@@QAEJH@Z ; CGrowableArray<DXUTComboBoxItem *>::Remove
PUBLIC	?RemoveAll@?$CGrowableArray@PAUDXUTComboBoxItem@@@@QAEXXZ ; CGrowableArray<DXUTComboBoxItem *>::RemoveAll
PUBLIC	?SetSizeInternal@?$CGrowableArray@PAUDXUTComboBoxItem@@@@IAEJH@Z ; CGrowableArray<DXUTComboBoxItem *>::SetSizeInternal
PUBLIC	??_GCDXUTComboBox@@UAEPAXI@Z			; CDXUTComboBox::`scalar deleting destructor'
PUBLIC	??0CDXUTSlider@@QAE@PAVCDXUTDialog@@@Z		; CDXUTSlider::CDXUTSlider
PUBLIC	?ContainsPoint@CDXUTSlider@@UAEHUtagPOINT@@@Z	; CDXUTSlider::ContainsPoint
PUBLIC	?CanHaveFocus@CDXUTSlider@@UAE_NXZ		; CDXUTSlider::CanHaveFocus
PUBLIC	?HandleKeyboard@CDXUTSlider@@UAE_NIIJ@Z		; CDXUTSlider::HandleKeyboard
PUBLIC	?HandleMouse@CDXUTSlider@@UAE_NIUtagPOINT@@IJ@Z	; CDXUTSlider::HandleMouse
PUBLIC	?UpdateRects@CDXUTSlider@@UAEXXZ		; CDXUTSlider::UpdateRects
PUBLIC	?Render@CDXUTSlider@@UAEXPAUIDirect3DDevice9@@M@Z ; CDXUTSlider::Render
PUBLIC	?SetValue@CDXUTSlider@@QAEXH@Z			; CDXUTSlider::SetValue
PUBLIC	?SetRange@CDXUTSlider@@QAEXHH@Z			; CDXUTSlider::SetRange
PUBLIC	?SetValueInternal@CDXUTSlider@@IAEXH_N@Z	; CDXUTSlider::SetValueInternal
PUBLIC	?ValueFromPos@CDXUTSlider@@IAEHH@Z		; CDXUTSlider::ValueFromPos
PUBLIC	??1CDXUTSlider@@UAE@XZ				; CDXUTSlider::~CDXUTSlider
PUBLIC	??_GCDXUTSlider@@UAEPAXI@Z			; CDXUTSlider::`scalar deleting destructor'
PUBLIC	??0CUniBuffer@@QAE@H@Z				; CUniBuffer::CUniBuffer
PUBLIC	??1CUniBuffer@@QAE@XZ				; CUniBuffer::~CUniBuffer
PUBLIC	?Initialize@CUniBuffer@@SAXXZ			; CUniBuffer::Initialize
PUBLIC	?Uninitialize@CUniBuffer@@SAXXZ			; CUniBuffer::Uninitialize
PUBLIC	?GetBufferSize@CUniBuffer@@QAEHXZ		; CUniBuffer::GetBufferSize
PUBLIC	?SetBufferSize@CUniBuffer@@QAE_NH@Z		; CUniBuffer::SetBufferSize
PUBLIC	?GetTextSize@CUniBuffer@@QAEHXZ			; CUniBuffer::GetTextSize
PUBLIC	?GetBuffer@CUniBuffer@@QAEPBDXZ			; CUniBuffer::GetBuffer
PUBLIC	??ACUniBuffer@@QAEAADH@Z			; CUniBuffer::operator[]
PUBLIC	?SetFontNode@CUniBuffer@@QAEXPAUDXUTFontNode@@@Z ; CUniBuffer::SetFontNode
PUBLIC	?Clear@CUniBuffer@@QAEXXZ			; CUniBuffer::Clear
PUBLIC	?InsertChar@CUniBuffer@@QAE_NHD@Z		; CUniBuffer::InsertChar
PUBLIC	?RemoveChar@CUniBuffer@@QAE_NH@Z		; CUniBuffer::RemoveChar
PUBLIC	?InsertString@CUniBuffer@@QAE_NHPBDH@Z		; CUniBuffer::InsertString
PUBLIC	?SetText@CUniBuffer@@QAE_NPBD@Z			; CUniBuffer::SetText
PUBLIC	?CPtoX@CUniBuffer@@QAEJHHPAH@Z			; CUniBuffer::CPtoX
PUBLIC	?XtoCP@CUniBuffer@@QAEJHPAH0@Z			; CUniBuffer::XtoCP
PUBLIC	?GetPriorItemPos@CUniBuffer@@QAEXHPAH@Z		; CUniBuffer::GetPriorItemPos
PUBLIC	?GetNextItemPos@CUniBuffer@@QAEXHPAH@Z		; CUniBuffer::GetNextItemPos
PUBLIC	?Analyse@CUniBuffer@@AAEJXZ			; CUniBuffer::Analyse
PUBLIC	??0CDXUTEditBox@@QAE@PAVCDXUTDialog@@@Z		; CDXUTEditBox::CDXUTEditBox
PUBLIC	??1CDXUTEditBox@@UAE@XZ				; CDXUTEditBox::~CDXUTEditBox
PUBLIC	?HandleKeyboard@CDXUTEditBox@@UAE_NIIJ@Z	; CDXUTEditBox::HandleKeyboard
PUBLIC	?HandleMouse@CDXUTEditBox@@UAE_NIUtagPOINT@@IJ@Z ; CDXUTEditBox::HandleMouse
PUBLIC	?MsgProc@CDXUTEditBox@@UAE_NIIJ@Z		; CDXUTEditBox::MsgProc
PUBLIC	?UpdateRects@CDXUTEditBox@@UAEXXZ		; CDXUTEditBox::UpdateRects
PUBLIC	?CanHaveFocus@CDXUTEditBox@@UAE_NXZ		; CDXUTEditBox::CanHaveFocus
PUBLIC	?Render@CDXUTEditBox@@UAEXPAUIDirect3DDevice9@@M@Z ; CDXUTEditBox::Render
PUBLIC	?OnFocusIn@CDXUTEditBox@@UAEXXZ			; CDXUTEditBox::OnFocusIn
PUBLIC	?SetText@CDXUTEditBox@@QAEXPBD_N@Z		; CDXUTEditBox::SetText
PUBLIC	?GetTextCopy@CDXUTEditBox@@QAEJPADI@Z		; CDXUTEditBox::GetTextCopy
PUBLIC	?ClearText@CDXUTEditBox@@QAEXXZ			; CDXUTEditBox::ClearText
PUBLIC	?SetTextColor@CDXUTEditBox@@UAEXK@Z		; CDXUTEditBox::SetTextColor
PUBLIC	?ParseFloatArray@CDXUTEditBox@@QAEXPAMH@Z	; CDXUTEditBox::ParseFloatArray
PUBLIC	?SetTextFloatArray@CDXUTEditBox@@QAEXPBMH@Z	; CDXUTEditBox::SetTextFloatArray
PUBLIC	?PlaceCaret@CDXUTEditBox@@IAEXH@Z		; CDXUTEditBox::PlaceCaret
PUBLIC	?DeleteSelectionText@CDXUTEditBox@@IAEXXZ	; CDXUTEditBox::DeleteSelectionText
PUBLIC	?ResetCaretBlink@CDXUTEditBox@@IAEXXZ		; CDXUTEditBox::ResetCaretBlink
PUBLIC	?CopyToClipboard@CDXUTEditBox@@IAEXXZ		; CDXUTEditBox::CopyToClipboard
PUBLIC	?PasteFromClipboard@CDXUTEditBox@@IAEXXZ	; CDXUTEditBox::PasteFromClipboard
PUBLIC	??_GCDXUTEditBox@@UAEPAXI@Z			; CDXUTEditBox::`scalar deleting destructor'
PUBLIC	??0CDXUTIMEEditBox@@QAE@PAVCDXUTDialog@@@Z	; CDXUTIMEEditBox::CDXUTIMEEditBox
PUBLIC	??1CDXUTIMEEditBox@@UAE@XZ			; CDXUTIMEEditBox::~CDXUTIMEEditBox
PUBLIC	?Initialize@CDXUTIMEEditBox@@SAXXZ		; CDXUTIMEEditBox::Initialize
PUBLIC	?Uninitialize@CDXUTIMEEditBox@@SAXXZ		; CDXUTIMEEditBox::Uninitialize
PUBLIC	?StaticOnCreateDevice@CDXUTIMEEditBox@@SAJXZ	; CDXUTIMEEditBox::StaticOnCreateDevice
PUBLIC	?StaticMsgProc@CDXUTIMEEditBox@@SA_NIIJ@Z	; CDXUTIMEEditBox::StaticMsgProc
PUBLIC	?EnableImeSystem@CDXUTIMEEditBox@@SAX_N@Z	; CDXUTIMEEditBox::EnableImeSystem
PUBLIC	?Render@CDXUTIMEEditBox@@UAEXPAUIDirect3DDevice9@@M@Z ; CDXUTIMEEditBox::Render
PUBLIC	?MsgProc@CDXUTIMEEditBox@@UAE_NIIJ@Z		; CDXUTIMEEditBox::MsgProc
PUBLIC	?HandleMouse@CDXUTIMEEditBox@@UAE_NIUtagPOINT@@IJ@Z ; CDXUTIMEEditBox::HandleMouse
PUBLIC	?UpdateRects@CDXUTIMEEditBox@@UAEXXZ		; CDXUTIMEEditBox::UpdateRects
PUBLIC	?OnFocusIn@CDXUTIMEEditBox@@UAEXXZ		; CDXUTIMEEditBox::OnFocusIn
PUBLIC	?OnFocusOut@CDXUTIMEEditBox@@UAEXXZ		; CDXUTIMEEditBox::OnFocusOut
PUBLIC	?RenderCandidateReadingWindow@CDXUTIMEEditBox@@UAEXPAUIDirect3DDevice9@@M_N@Z ; CDXUTIMEEditBox::RenderCandidateReadingWindow
PUBLIC	?RenderComposition@CDXUTIMEEditBox@@UAEXPAUIDirect3DDevice9@@M@Z ; CDXUTIMEEditBox::RenderComposition
PUBLIC	?RenderIndicator@CDXUTIMEEditBox@@UAEXPAUIDirect3DDevice9@@M@Z ; CDXUTIMEEditBox::RenderIndicator
PUBLIC	?GetLanguage@CDXUTIMEEditBox@@KAGXZ		; CDXUTIMEEditBox::GetLanguage
PUBLIC	?GetPrimaryLanguage@CDXUTIMEEditBox@@KAGXZ	; CDXUTIMEEditBox::GetPrimaryLanguage
PUBLIC	?GetSubLanguage@CDXUTIMEEditBox@@KAGXZ		; CDXUTIMEEditBox::GetSubLanguage
PUBLIC	?SendKey@CDXUTIMEEditBox@@KAXE@Z		; CDXUTIMEEditBox::SendKey
PUBLIC	?GetImeId@CDXUTIMEEditBox@@KAKI@Z		; CDXUTIMEEditBox::GetImeId
PUBLIC	?CheckInputLocale@CDXUTIMEEditBox@@KAXXZ	; CDXUTIMEEditBox::CheckInputLocale
PUBLIC	?CheckToggleState@CDXUTIMEEditBox@@KAXXZ	; CDXUTIMEEditBox::CheckToggleState
PUBLIC	?SetupImeApi@CDXUTIMEEditBox@@KAXXZ		; CDXUTIMEEditBox::SetupImeApi
PUBLIC	?ResetCompositionString@CDXUTIMEEditBox@@KAXXZ	; CDXUTIMEEditBox::ResetCompositionString
PUBLIC	?TruncateCompString@CDXUTIMEEditBox@@IAEX_NH@Z	; CDXUTIMEEditBox::TruncateCompString
PUBLIC	?FinalizeString@CDXUTIMEEditBox@@IAEX_N@Z	; CDXUTIMEEditBox::FinalizeString
PUBLIC	?GetReadingWindowOrientation@CDXUTIMEEditBox@@KAXK@Z ; CDXUTIMEEditBox::GetReadingWindowOrientation
PUBLIC	?GetPrivateReadingString@CDXUTIMEEditBox@@KAXXZ	; CDXUTIMEEditBox::GetPrivateReadingString
PUBLIC	?SendCompString@CDXUTIMEEditBox@@IAEXXZ		; CDXUTIMEEditBox::SendCompString
PUBLIC	??0CCandList@CDXUTIMEEditBox@@QAE@XZ		; CDXUTIMEEditBox::CCandList::CCandList
PUBLIC	??1CCandList@CDXUTIMEEditBox@@QAE@XZ		; CDXUTIMEEditBox::CCandList::~CCandList
PUBLIC	??0?$CGrowableArray@UCInputLocale@CDXUTIMEEditBox@@@@QAE@XZ ; CGrowableArray<CDXUTIMEEditBox::CInputLocale>::CGrowableArray<CDXUTIMEEditBox::CInputLocale>
PUBLIC	??1?$CGrowableArray@UCInputLocale@CDXUTIMEEditBox@@@@QAE@XZ ; CGrowableArray<CDXUTIMEEditBox::CInputLocale>::~CGrowableArray<CDXUTIMEEditBox::CInputLocale>
PUBLIC	?SetSize@?$CGrowableArray@UCInputLocale@CDXUTIMEEditBox@@@@QAEJH@Z ; CGrowableArray<CDXUTIMEEditBox::CInputLocale>::SetSize
PUBLIC	?Add@?$CGrowableArray@UCInputLocale@CDXUTIMEEditBox@@@@QAEJABUCInputLocale@CDXUTIMEEditBox@@@Z ; CGrowableArray<CDXUTIMEEditBox::CInputLocale>::Add
PUBLIC	?GetAt@?$CGrowableArray@UCInputLocale@CDXUTIMEEditBox@@@@QAEAAUCInputLocale@CDXUTIMEEditBox@@H@Z ; CGrowableArray<CDXUTIMEEditBox::CInputLocale>::GetAt
PUBLIC	?GetSize@?$CGrowableArray@UCInputLocale@CDXUTIMEEditBox@@@@QBEHXZ ; CGrowableArray<CDXUTIMEEditBox::CInputLocale>::GetSize
PUBLIC	?RemoveAll@?$CGrowableArray@UCInputLocale@CDXUTIMEEditBox@@@@QAEXXZ ; CGrowableArray<CDXUTIMEEditBox::CInputLocale>::RemoveAll
PUBLIC	?SetSizeInternal@?$CGrowableArray@UCInputLocale@CDXUTIMEEditBox@@@@IAEJH@Z ; CGrowableArray<CDXUTIMEEditBox::CInputLocale>::SetSizeInternal
PUBLIC	??_GCDXUTIMEEditBox@@UAEPAXI@Z			; CDXUTIMEEditBox::`scalar deleting destructor'
PUBLIC	?RectWidth@@YAHAAUtagRECT@@@Z			; RectWidth
PUBLIC	?RectHeight@@YAHAAUtagRECT@@@Z			; RectHeight
PUBLIC	??_C@_00CNPNBAHC@?$AA@				; `string'
PUBLIC	??_7CDXUTControl@@6B@				; CDXUTControl::`vftable'
PUBLIC	??_7CDXUTStatic@@6B@				; CDXUTStatic::`vftable'
PUBLIC	??_7CDXUTButton@@6B@				; CDXUTButton::`vftable'
PUBLIC	??_7CDXUTCheckBox@@6B@				; CDXUTCheckBox::`vftable'
PUBLIC	??_7CDXUTRadioButton@@6B@			; CDXUTRadioButton::`vftable'
PUBLIC	??_7CDXUTScrollBar@@6B@				; CDXUTScrollBar::`vftable'
PUBLIC	??_7CDXUTListBox@@6B@				; CDXUTListBox::`vftable'
PUBLIC	??_7CDXUTComboBox@@6B@				; CDXUTComboBox::`vftable'
PUBLIC	??_7CDXUTSlider@@6B@				; CDXUTSlider::`vftable'
PUBLIC	??_7CDXUTEditBox@@6B@				; CDXUTEditBox::`vftable'
PUBLIC	?s_CompString@CDXUTIMEEditBox@@1VCUniBuffer@@A	; CDXUTIMEEditBox::s_CompString
PUBLIC	?s_CandList@CDXUTIMEEditBox@@1UCCandList@1@A	; CDXUTIMEEditBox::s_CandList
PUBLIC	?s_Locale@CDXUTIMEEditBox@@1V?$CGrowableArray@UCInputLocale@CDXUTIMEEditBox@@@@A ; CDXUTIMEEditBox::s_Locale
PUBLIC	??_7CDXUTIMEEditBox@@6B@			; CDXUTIMEEditBox::`vftable'
PUBLIC	?__LINE__Var@?1??SetCallback@CDXUTDialog@@QAEXP6GXIHPAVCDXUTControl@@PAX@Z1@Z@4JA ; `CDXUTDialog::SetCallback'::`2'::__LINE__Var
PUBLIC	??_C@_0EC@INLDDICL@To?5fix?5call?5CDXUTDialog?3?3Init?$CI?$CJ?5@ ; `string'
PUBLIC	??_C@_1FM@FMACGJEA@?$AAz?$AA?3?$AA?2?$AAs?$AAa?$AAm?$AAp?$AAs?$AAr?$AAc?$AA?2?$AA0?$AA2?$AAx?$AAu?$AA1?$AA?2?$AAs?$AAa?$AAc?$AAo?$AA?2?$AAd?$AA3?$AAd?$AA9?$AA?2?$AAc?$AAo?$AAm?$AAm?$AAo@ ; `string'
PUBLIC	??_C@_1LE@JLCOLCJL@?$AAm?$AA_?$AAp?$AAM?$AAa?$AAn?$AAa?$AAg?$AAe?$AAr?$AA?5?$AA?$CB?$AA?$DN?$AA?5?$AAN?$AAU?$AAL?$AAL?$AA?5?$AA?$CG?$AA?$CG?$AA?5?$AA?$CC?$AAT?$AAo?$AA?5?$AAf?$AAi?$AAx?$AA?5?$AAc?$AAa@ ; `string'
PUBLIC	?__LINE__Var@?1??OnCreateDevice@CDXUTDialogResourceManager@@QAEJPAUIDirect3DDevice9@@@Z@4JA ; `CDXUTDialogResourceManager::OnCreateDevice'::`2'::__LINE__Var
PUBLIC	??_C@_0BB@OBNOFHEC@D3DXCreateSprite?$AA@	; `string'
PUBLIC	??_C@_0CO@PNKEDBKA@z?3?2sampsrc?202xu1?2saco?2d3d9?2commo@ ; `string'
PUBLIC	?__LINE__Var@?1??OnRender@CDXUTDialog@@QAEJM@Z@4JA ; `CDXUTDialog::OnRender'::`2'::__LINE__Var
PUBLIC	??_C@_0FJ@OFKGNHOL@To?5fix?5hook?5up?5CDXUTDialogResour@ ; `string'
PUBLIC	??_C@_1BCM@NAODPGLM@?$AAm?$AA_?$AAp?$AAM?$AAa?$AAn?$AAa?$AAg?$AAe?$AAr?$AA?9?$AA?$DO?$AAG?$AAe?$AAt?$AAD?$AA3?$AAD?$AAD?$AAe?$AAv?$AAi?$AAc?$AAe?$AA?$CI?$AA?$CJ?$AA?5?$AA?$CG?$AA?$CG?$AA?5?$AAm?$AA_@ ; `string'
PUBLIC	??_C@_0N@EHHLLFIF@?5?$CIMinimized?$CJ?$AA@	; `string'
PUBLIC	?__LINE__Var@?1??SetFont@CDXUTDialog@@QAEJIPBDJJ@Z@4JA ; `CDXUTDialog::SetFont'::`2'::__LINE__Var
PUBLIC	?__LINE__Var@?1??SetTexture@CDXUTDialog@@QAEJIPBD@Z@4JA ; `CDXUTDialog::SetTexture'::`2'::__LINE__Var
PUBLIC	??_C@_0BM@EKOPLJBN@CDXUTDialog?3?3MsgProc?$CIMOUSE?$CJ?$AA@ ; `string'
PUBLIC	?__LINE__Var@?1??AddControl@CDXUTDialog@@QAEJPAVCDXUTControl@@@Z@4JA ; `CDXUTDialog::AddControl'::`2'::__LINE__Var
PUBLIC	??_C@_0BJ@NMGKIFBC@CDXUTDialog?3?3InitControl?$AA@ ; `string'
PUBLIC	??_C@_0BE@PJMOKIGM@CGrowableArray?3?3Add?$AA@	; `string'
PUBLIC	?__LINE__Var@?1??OnCycleFocus@CDXUTDialog@@AAE_N_N@Z@4JA ; `CDXUTDialog::OnCycleFocus'::`2'::__LINE__Var
PUBLIC	??_C@_0DO@CFELJLCL@CDXUTDialog?3?5Multiple?5dialogs?5ar@ ; `string'
PUBLIC	??_C@_0DH@CFMKICLK@CDXUTDialogResourceManager?3?3Crea@ ; `string'
PUBLIC	?__LINE__Var@?1??CreateTexture@CDXUTDialogResourceManager@@QAEJI@Z@4JA ; `CDXUTDialogResourceManager::CreateTexture'::`2'::__LINE__Var
PUBLIC	??_C@_0BK@NOJEPBKH@DXUTFindDXSDKMediaFileCch?$AA@ ; `string'
PUBLIC	??_C@_0BM@CBAPLCDC@D3DXCreateTextureFromFileEx?$AA@ ; `string'
PUBLIC	??_C@_0M@GAAOCDFL@dxutgui?4png?$AA@		; `string'
PUBLIC	??_C@_05MPFIAJAP@Arial?$AA@			; `string'
PUBLIC	??_C@_0BJ@OLOOAJCD@CDXUTButton?3?3HandleMouse?$AA@ ; `string'
PUBLIC	?__LINE__Var@?1??AddItem@CDXUTComboBox@@QAEJPBDPAX@Z@4JA ; `CDXUTComboBox::AddItem'::`2'::__LINE__Var
PUBLIC	??_C@_03CLCAEGCJ@new?$AA@			; `string'
PUBLIC	?__LINE__Var@?1??GetItemData@CDXUTComboBox@@QAEPAXPBD@Z@4JA ; `CDXUTComboBox::GetItemData'::`2'::__LINE__Var
PUBLIC	??_C@_0BG@JAGODAII@CGrowableArray?3?3GetAt?$AA@	; `string'
PUBLIC	?__LINE__Var@?1??PlaceCaret@CDXUTEditBox@@IAEXH@Z@4JA ; `CDXUTEditBox::PlaceCaret'::`2'::__LINE__Var
PUBLIC	??_C@_1FE@INHINDLN@?$AAn?$AAC?$AAP?$AA?5?$AA?$DO?$AA?$DN?$AA?5?$AA0?$AA?5?$AA?$CG?$AA?$CG?$AA?5?$AAn?$AAC?$AAP?$AA?5?$AA?$DM?$AA?$DN?$AA?5?$AAm?$AA_?$AAB?$AAu?$AAf?$AAf?$AAe?$AAr?$AA?4?$AAG?$AAe?$AAt?$AAT@ ; `string'
PUBLIC	?__LINE__Var@?1??SetText@CDXUTEditBox@@QAEXPBD_N@Z@4JA ; `CDXUTEditBox::SetText'::`2'::__LINE__Var
PUBLIC	??_C@_1CA@PMHPGCBD@?$AAw?$AAs?$AAz?$AAT?$AAe?$AAx?$AAt?$AA?5?$AA?$CB?$AA?$DN?$AA?5?$AAN?$AAU?$AAL?$AAL?$AA?$AA@ ; `string'
PUBLIC	?__LINE__Var@?1??GetTextCopy@CDXUTEditBox@@QAEJPADI@Z@4JA ; `CDXUTEditBox::GetTextCopy'::`2'::__LINE__Var
PUBLIC	??_C@_1BA@LIOJNBNF@?$AAs?$AAt?$AAr?$AAD?$AAe?$AAs?$AAt?$AA?$AA@ ; `string'
PUBLIC	??_C@_05MBDKKHHK@?$CF?44f?5?$AA@		; `string'
PUBLIC	??_C@_0N@FFMHCBAD@TINTLGNT?4IME?$AA@		; `string'
PUBLIC	??_C@_0N@JMLDIBIB@CINTLGNT?4IME?$AA@		; `string'
PUBLIC	??_C@_0N@FHDFFBN@MSTCIPHA?4IME?$AA@		; `string'
PUBLIC	??_C@_0N@JFHOELJF@PINTLGNT?4IME?$AA@		; `string'
PUBLIC	??_C@_0N@ONOBNHOE@MSSCIPYA?4IME?$AA@		; `string'
PUBLIC	??_C@_01KICIPPFI@?2?$AA@			; `string'
PUBLIC	??_C@_0BB@EOIFCLLM@GetReadingString?$AA@	; `string'
PUBLIC	??_C@_0BC@MEELNKEC@ShowReadingWindow?$AA@	; `string'
PUBLIC	?__LINE__Var@?1??TruncateCompString@CDXUTIMEEditBox@@IAEX_NH@Z@4JA ; `CDXUTIMEEditBox::TruncateCompString'::`2'::__LINE__Var
PUBLIC	??_C@_1EI@PNFNGNLA@?$AAi?$AAN?$AAe?$AAw?$AAS?$AAt?$AAr?$AAL?$AAe?$AAn?$AA?5?$AA?$DN?$AA?$DN?$AA?5?$AA0?$AA?5?$AA?$HM?$AA?$HM?$AA?5?$AAi?$AAN?$AAe?$AAw?$AAS?$AAt?$AAr?$AAL?$AAe?$AAn?$AA?5?$AA?$DO?$AA?$DN@ ; `string'
PUBLIC	??_C@_0DG@PFMNNKP@CDXUTIMEEditBox?3?3FinalizeString?3@ ; `string'
PUBLIC	??_C@_0CL@PCFEMFCF@software?2microsoft?2windows?2curre@ ; `string'
PUBLIC	??_C@_07DEJAPC@MSTCIPH?$AA@			; `string'
PUBLIC	??_C@_08LMKCILHO@TINTLGNT?$AA@			; `string'
PUBLIC	??_C@_0BB@KFOMJFEN@Keyboard?5Mapping?$AA@	; `string'
PUBLIC	??_C@_0BE@GLEPKDNP@WM_INPUTLANGCHANGE?6?$AA@	; `string'
PUBLIC	??_C@_0BD@BNFMLOBE@WM_IME_SETCONTEXT?6?$AA@	; `string'
PUBLIC	??_C@_0BJ@NNLCHIHF@WM_IME_STARTCOMPOSITION?6?$AA@ ; `string'
PUBLIC	??_C@_0BE@CDAMKNCN@WM_IME_COMPOSITION?6?$AA@	; `string'
PUBLIC	?__LINE__Var@?1??MsgProc@CDXUTIMEEditBox@@UAE_NIIJ@Z@4JA ; `CDXUTIMEEditBox::MsgProc'::`2'::__LINE__Var
PUBLIC	??_C@_0DJ@IHHHAIEO@To?5fix?0?5call?5CDXUTDialogResource@ ; `string'
PUBLIC	??_C@_1LA@NJBLLMDF@?$AAm?$AA_?$AAb?$AAI?$AAM?$AAE?$AAS?$AAt?$AAa?$AAt?$AAi?$AAc?$AAM?$AAs?$AAg?$AAP?$AAr?$AAo?$AAc?$AAC?$AAa?$AAl?$AAl?$AAe?$AAd?$AA?5?$AA?$CG?$AA?$CG?$AA?5?$AA?$CC?$AAT?$AAo@ ; `string'
PUBLIC	??_C@_0BB@CNOGDNAM@?5?5GCS_RESULTSTR?6?$AA@	; `string'
PUBLIC	??_C@_0P@NDDGOCDK@?5?5GCS_COMPSTR?6?$AA@	; `string'
PUBLIC	??_C@_0BH@BGPMFOJC@WM_IME_ENDCOMPOSITION?6?$AA@	; `string'
PUBLIC	??_C@_0BC@EAGJPPFG@WM_IME_NOTIFY?5?$CFu?6?$AA@	; `string'
PUBLIC	??_C@_0BJ@ONBLFOKJ@?5?5IMN_SETCONVERSIONMODE?6?$AA@ ; `string'
PUBLIC	??_C@_0BF@BJFGBGLB@?5?5IMN_SETOPENSTATUS?6?$AA@	; `string'
PUBLIC	??_C@_0BH@NOIBGFFB@?5?5IMN_CHANGECANDIDATE?6?$AA@ ; `string'
PUBLIC	??_C@_0BF@BOLGLHEB@?5?5IMN_OPENCANDIDATE?6?$AA@	; `string'
PUBLIC	??_C@_03IKGEINEE@?$CFs?5?$AA@			; `string'
PUBLIC	??_C@_0BG@DOILBMAC@?5?5IMN_CLOSECANDIDATE?6?$AA@ ; `string'
PUBLIC	??_C@_0P@PGCPFIAP@?5?5IMN_PRIVATE?6?$AA@	; `string'
PUBLIC	??_C@_0L@NLJMGPDJ@?2usp10?4dll?$AA@		; `string'
PUBLIC	??_C@_0BN@GIMDAPPD@ScriptApplyDigitSubstitution?$AA@ ; `string'
PUBLIC	??_C@_0BE@DPDJMHJ@ScriptStringAnalyse?$AA@	; `string'
PUBLIC	??_C@_0BC@NCOCHMDF@ScriptStringCPtoX?$AA@	; `string'
PUBLIC	??_C@_0BC@PBCEOCLL@ScriptStringXtoCP?$AA@	; `string'
PUBLIC	??_C@_0BB@KPJJNIOI@ScriptStringFree?$AA@	; `string'
PUBLIC	??_C@_0BG@ENNDDIIO@ScriptString_pLogAttr?$AA@	; `string'
PUBLIC	??_C@_0BI@NIMEAFDJ@ScriptString_pcOutChars?$AA@	; `string'
PUBLIC	?__LINE__Var@?1??InsertChar@CUniBuffer@@QAE_NHD@Z@4JA ; `CUniBuffer::InsertChar'::`2'::__LINE__Var
PUBLIC	??_C@_1BI@EFNELFHP@?$AAn?$AAI?$AAn?$AAd?$AAe?$AAx?$AA?5?$AA?$DO?$AA?$DN?$AA?5?$AA0?$AA?$AA@ ; `string'
PUBLIC	??_C@_1CG@LHICNCCG@?$AAm?$AA_?$AAn?$AAB?$AAu?$AAf?$AAf?$AAe?$AAr?$AAS?$AAi?$AAz?$AAe?$AA?5?$AA?$DO?$AA?$DN?$AA?5?$AA2?$AA?$AA@ ; `string'
PUBLIC	?__LINE__Var@?1??InsertString@CUniBuffer@@QAE_NHPBDH@Z@4JA ; `CUniBuffer::InsertString'::`2'::__LINE__Var
PUBLIC	?__LINE__Var@?1??SetText@CUniBuffer@@QAE_NPBD@Z@4JA ; `CUniBuffer::SetText'::`2'::__LINE__Var
PUBLIC	?__LINE__Var@?1??CPtoX@CUniBuffer@@QAEJHHPAH@Z@4JA ; `CUniBuffer::CPtoX'::`2'::__LINE__Var
PUBLIC	??_C@_15ELKGHENA@?$AAp?$AAX?$AA?$AA@		; `string'
PUBLIC	?__LINE__Var@?1??XtoCP@CUniBuffer@@QAEJHPAH0@Z@4JA ; `CUniBuffer::XtoCP'::`2'::__LINE__Var
PUBLIC	??_C@_1BO@KHKNKHIE@?$AAp?$AAC?$AAP?$AA?5?$AA?$CG?$AA?$CG?$AA?5?$AAp?$AAn?$AAT?$AAr?$AAa?$AAi?$AAl?$AA?$AA@ ; `string'
PUBLIC	??_C@_0L@LPOFADGE@?2imm32?4dll?$AA@		; `string'
PUBLIC	??_C@_0L@JGAMEFKO@ImmLockIMC?$AA@		; `string'
PUBLIC	??_C@_0N@PDIACEGP@ImmUnlockIMC?$AA@		; `string'
PUBLIC	??_C@_0M@OKKMJOGM@ImmLockIMCC?$AA@		; `string'
PUBLIC	??_C@_0O@GKKOACL@ImmUnlockIMCC?$AA@		; `string'
PUBLIC	??_C@_0BL@MBEANDFB@ImmDisableTextFrameService?$AA@ ; `string'
PUBLIC	??_C@_0BJ@BIPOEMOA@ImmGetCompositionStringW?$AA@ ; `string'
PUBLIC	??_C@_0BF@INEDHPDK@ImmGetCandidateListW?$AA@	; `string'
PUBLIC	??_C@_0O@KCHCFLMC@ImmGetContext?$AA@		; `string'
PUBLIC	??_C@_0BC@OCDKEPCD@ImmReleaseContext?$AA@	; `string'
PUBLIC	??_C@_0BE@BDEIBNIK@ImmAssociateContext?$AA@	; `string'
PUBLIC	??_C@_0BB@GAPKNCDL@ImmGetOpenStatus?$AA@	; `string'
PUBLIC	??_C@_0BB@BPOEGBEM@ImmSetOpenStatus?$AA@	; `string'
PUBLIC	??_C@_0BH@GMNMAKPF@ImmGetConversionStatus?$AA@	; `string'
PUBLIC	??_C@_0BE@LPNAGBML@ImmGetDefaultIMEWnd?$AA@	; `string'
PUBLIC	??_C@_0BD@GDCNBOJF@ImmGetIMEFileNameA?$AA@	; `string'
PUBLIC	??_C@_0BB@CEHHIDO@ImmGetVirtualKey?$AA@		; `string'
PUBLIC	??_C@_0N@OLIMKHEA@ImmNotifyIME?$AA@		; `string'
PUBLIC	??_C@_0BH@MCPHEKIJ@ImmSetConversionStatus?$AA@	; `string'
PUBLIC	??_C@_0BC@OMCMFCHK@ImmSimulateHotKey?$AA@	; `string'
PUBLIC	??_C@_08EPDNLFJN@ImmIsIME?$AA@			; `string'
PUBLIC	??_C@_0N@HAEJINEE@?2version?4dll?$AA@		; `string'
PUBLIC	??_C@_0P@EGBPEC@VerQueryValueA?$AA@		; `string'
PUBLIC	??_C@_0BE@JIHADGJK@GetFileVersionInfoA?$AA@	; `string'
PUBLIC	??_C@_0BI@FKDAHLLJ@GetFileVersionInfoSizeA?$AA@	; `string'
PUBLIC	??_C@_1FK@FIMIDMPE@?$AAz?$AA?3?$AA?2?$AAs?$AAa?$AAm?$AAp?$AAs?$AAr?$AAc?$AA?2?$AA0?$AA2?$AAx?$AAu?$AA1?$AA?2?$AAs?$AAa?$AAc?$AAo?$AA?2?$AAd?$AA3?$AAd?$AA9?$AA?2?$AAc?$AAo?$AAm?$AAm?$AAo@ ; `string'
PUBLIC	??_C@_1EA@JHMKKLFC@?$AAn?$AAI?$AAn?$AAd?$AAe?$AAx?$AA?5?$AA?$DO?$AA?$DN?$AA?5?$AA0?$AA?5?$AA?$CG?$AA?$CG?$AA?5?$AAn?$AAI?$AAn?$AAd?$AAe?$AAx?$AA?5?$AA?$DM?$AA?5?$AAm?$AA_?$AAn?$AAS?$AAi?$AAz?$AAe?$AA?$AA@ ; `string'
PUBLIC	??_C@_1M@HLGKFCJM@?$AAf?$AAa?$AAl?$AAs?$AAe?$AA?$AA@ ; `string'
PUBLIC	??_R4CDXUTControl@@6B@				; CDXUTControl::`RTTI Complete Object Locator'
PUBLIC	??_R0?AVCDXUTControl@@@8			; CDXUTControl `RTTI Type Descriptor'
PUBLIC	??_R3CDXUTControl@@8				; CDXUTControl::`RTTI Class Hierarchy Descriptor'
PUBLIC	??_R2CDXUTControl@@8				; CDXUTControl::`RTTI Base Class Array'
PUBLIC	??_R1A@?0A@EA@CDXUTControl@@8			; CDXUTControl::`RTTI Base Class Descriptor at (0,-1,0,64)'
PUBLIC	??_R4CDXUTButton@@6B@				; CDXUTButton::`RTTI Complete Object Locator'
PUBLIC	??_R0?AVCDXUTButton@@@8				; CDXUTButton `RTTI Type Descriptor'
PUBLIC	??_R3CDXUTButton@@8				; CDXUTButton::`RTTI Class Hierarchy Descriptor'
PUBLIC	??_R2CDXUTButton@@8				; CDXUTButton::`RTTI Base Class Array'
PUBLIC	??_R1A@?0A@EA@CDXUTButton@@8			; CDXUTButton::`RTTI Base Class Descriptor at (0,-1,0,64)'
PUBLIC	??_R1A@?0A@EA@CDXUTStatic@@8			; CDXUTStatic::`RTTI Base Class Descriptor at (0,-1,0,64)'
PUBLIC	??_R0?AVCDXUTStatic@@@8				; CDXUTStatic `RTTI Type Descriptor'
PUBLIC	??_R3CDXUTStatic@@8				; CDXUTStatic::`RTTI Class Hierarchy Descriptor'
PUBLIC	??_R2CDXUTStatic@@8				; CDXUTStatic::`RTTI Base Class Array'
PUBLIC	??_R4CDXUTStatic@@6B@				; CDXUTStatic::`RTTI Complete Object Locator'
PUBLIC	??_R4CDXUTCheckBox@@6B@				; CDXUTCheckBox::`RTTI Complete Object Locator'
PUBLIC	??_R0?AVCDXUTCheckBox@@@8			; CDXUTCheckBox `RTTI Type Descriptor'
PUBLIC	??_R3CDXUTCheckBox@@8				; CDXUTCheckBox::`RTTI Class Hierarchy Descriptor'
PUBLIC	??_R2CDXUTCheckBox@@8				; CDXUTCheckBox::`RTTI Base Class Array'
PUBLIC	??_R1A@?0A@EA@CDXUTCheckBox@@8			; CDXUTCheckBox::`RTTI Base Class Descriptor at (0,-1,0,64)'
PUBLIC	??_R4CDXUTRadioButton@@6B@			; CDXUTRadioButton::`RTTI Complete Object Locator'
PUBLIC	??_R0?AVCDXUTRadioButton@@@8			; CDXUTRadioButton `RTTI Type Descriptor'
PUBLIC	??_R3CDXUTRadioButton@@8			; CDXUTRadioButton::`RTTI Class Hierarchy Descriptor'
PUBLIC	??_R2CDXUTRadioButton@@8			; CDXUTRadioButton::`RTTI Base Class Array'
PUBLIC	??_R1A@?0A@EA@CDXUTRadioButton@@8		; CDXUTRadioButton::`RTTI Base Class Descriptor at (0,-1,0,64)'
PUBLIC	??_R4CDXUTComboBox@@6B@				; CDXUTComboBox::`RTTI Complete Object Locator'
PUBLIC	??_R0?AVCDXUTComboBox@@@8			; CDXUTComboBox `RTTI Type Descriptor'
PUBLIC	??_R3CDXUTComboBox@@8				; CDXUTComboBox::`RTTI Class Hierarchy Descriptor'
PUBLIC	??_R2CDXUTComboBox@@8				; CDXUTComboBox::`RTTI Base Class Array'
PUBLIC	??_R1A@?0A@EA@CDXUTComboBox@@8			; CDXUTComboBox::`RTTI Base Class Descriptor at (0,-1,0,64)'
PUBLIC	??_R4CDXUTSlider@@6B@				; CDXUTSlider::`RTTI Complete Object Locator'
PUBLIC	??_R0?AVCDXUTSlider@@@8				; CDXUTSlider `RTTI Type Descriptor'
PUBLIC	??_R3CDXUTSlider@@8				; CDXUTSlider::`RTTI Class Hierarchy Descriptor'
PUBLIC	??_R2CDXUTSlider@@8				; CDXUTSlider::`RTTI Base Class Array'
PUBLIC	??_R1A@?0A@EA@CDXUTSlider@@8			; CDXUTSlider::`RTTI Base Class Descriptor at (0,-1,0,64)'
PUBLIC	??_R4CDXUTEditBox@@6B@				; CDXUTEditBox::`RTTI Complete Object Locator'
PUBLIC	??_R0?AVCDXUTEditBox@@@8			; CDXUTEditBox `RTTI Type Descriptor'
PUBLIC	??_R3CDXUTEditBox@@8				; CDXUTEditBox::`RTTI Class Hierarchy Descriptor'
PUBLIC	??_R2CDXUTEditBox@@8				; CDXUTEditBox::`RTTI Base Class Array'
PUBLIC	??_R1A@?0A@EA@CDXUTEditBox@@8			; CDXUTEditBox::`RTTI Base Class Descriptor at (0,-1,0,64)'
PUBLIC	??_R4CDXUTIMEEditBox@@6B@			; CDXUTIMEEditBox::`RTTI Complete Object Locator'
PUBLIC	??_R0?AVCDXUTIMEEditBox@@@8			; CDXUTIMEEditBox `RTTI Type Descriptor'
PUBLIC	??_R3CDXUTIMEEditBox@@8				; CDXUTIMEEditBox::`RTTI Class Hierarchy Descriptor'
PUBLIC	??_R2CDXUTIMEEditBox@@8				; CDXUTIMEEditBox::`RTTI Base Class Array'
PUBLIC	??_R1A@?0A@EA@CDXUTIMEEditBox@@8		; CDXUTIMEEditBox::`RTTI Base Class Descriptor at (0,-1,0,64)'
PUBLIC	??_R4CDXUTListBox@@6B@				; CDXUTListBox::`RTTI Complete Object Locator'
PUBLIC	??_R0?AVCDXUTListBox@@@8			; CDXUTListBox `RTTI Type Descriptor'
PUBLIC	??_R3CDXUTListBox@@8				; CDXUTListBox::`RTTI Class Hierarchy Descriptor'
PUBLIC	??_R2CDXUTListBox@@8				; CDXUTListBox::`RTTI Base Class Array'
PUBLIC	??_R1A@?0A@EA@CDXUTListBox@@8			; CDXUTListBox::`RTTI Base Class Descriptor at (0,-1,0,64)'
PUBLIC	??_R4CDXUTScrollBar@@6B@			; CDXUTScrollBar::`RTTI Complete Object Locator'
PUBLIC	??_R0?AVCDXUTScrollBar@@@8			; CDXUTScrollBar `RTTI Type Descriptor'
PUBLIC	??_R3CDXUTScrollBar@@8				; CDXUTScrollBar::`RTTI Class Hierarchy Descriptor'
PUBLIC	??_R2CDXUTScrollBar@@8				; CDXUTScrollBar::`RTTI Base Class Array'
PUBLIC	??_R1A@?0A@EA@CDXUTScrollBar@@8			; CDXUTScrollBar::`RTTI Base Class Descriptor at (0,-1,0,64)'
PUBLIC	__real@00000000
PUBLIC	__real@0000000000000000
PUBLIC	__real@3a83126f
PUBLIC	__real@3b808081
PUBLIC	__real@3dcccccd
PUBLIC	__real@3f000000
PUBLIC	__real@3f333333
PUBLIC	__real@3f4ccccd
PUBLIC	__real@3f666666
PUBLIC	__real@3f800000
PUBLIC	__real@3fa00000
PUBLIC	__real@3fa999999999999a
PUBLIC	__real@3fd51eb851eb851f
PUBLIC	__real@41200000
PUBLIC	__real@41f00000
PUBLIC	__real@437f0000
PUBLIC	__xmm@41f00000000000000000000000000000
EXTRN	??2@YAPAXI@Z:PROC				; operator new
EXTRN	??3@YAXPAX@Z:PROC				; operator delete
EXTRN	_atexit:PROC
EXTRN	___report_rangecheckfailure:PROC
EXTRN	_tolower:PROC
EXTRN	_memcpy:PROC
EXTRN	_memset:PROC
EXTRN	_strcmp:PROC
EXTRN	_strlen:PROC
EXTRN	_memmove:PROC
EXTRN	__strnicmp:PROC
EXTRN	__imp__OutputDebugStringA@4:PROC
EXTRN	__imp__HeapAlloc@12:PROC
EXTRN	__imp__HeapFree@12:PROC
EXTRN	__imp__GetProcessHeap@0:PROC
EXTRN	__imp__GetSystemDirectoryA@8:PROC
EXTRN	__imp__FreeLibrary@4:PROC
EXTRN	__imp__GetProcAddress@8:PROC
EXTRN	__imp__GlobalAlloc@8:PROC
EXTRN	__imp__GlobalLock@4:PROC
EXTRN	__imp__GlobalUnlock@4:PROC
EXTRN	__imp__GlobalFree@4:PROC
EXTRN	__imp__lstrlenA@4:PROC
EXTRN	__imp__LoadLibraryA@4:PROC
EXTRN	__imp__GetKeyboardLayoutList@8:PROC
EXTRN	__imp__GetKeyboardLayout@4:PROC
EXTRN	__imp__SendMessageA@16:PROC
EXTRN	__imp__SendMessageW@16:PROC
EXTRN	__imp__PostMessageW@16:PROC
EXTRN	__imp__OpenClipboard@4:PROC
EXTRN	__imp__CloseClipboard@0:PROC
EXTRN	__imp__SetClipboardData@8:PROC
EXTRN	__imp__GetClipboardData@4:PROC
EXTRN	__imp__EmptyClipboard@0:PROC
EXTRN	__imp__GetFocus@0:PROC
EXTRN	__imp__GetKeyState@4:PROC
EXTRN	__imp__GetAsyncKeyState@4:PROC
EXTRN	__imp__keybd_event@16:PROC
EXTRN	__imp__SetCapture@4:PROC
EXTRN	__imp__ReleaseCapture@0:PROC
EXTRN	__imp__GetCaretBlinkTime@0:PROC
EXTRN	__imp__SetRect@20:PROC
EXTRN	__imp__SetRectEmpty@4:PROC
EXTRN	__imp__InflateRect@12:PROC
EXTRN	__imp__IntersectRect@12:PROC
EXTRN	__imp__OffsetRect@12:PROC
EXTRN	__imp__PtInRect@12:PROC
EXTRN	__imp__SystemParametersInfoA@16:PROC
EXTRN	__imp__CompareStringA@24:PROC
EXTRN	__imp__GetLocaleInfoA@16:PROC
EXTRN	__imp__RegCloseKey@4:PROC
EXTRN	__imp__RegOpenKeyExA@20:PROC
EXTRN	__imp__RegQueryValueExA@24:PROC
EXTRN	_abs:PROC
EXTRN	_strtod:PROC
EXTRN	_free:PROC
EXTRN	_realloc:PROC
EXTRN	__wassert:PROC
EXTRN	_pow:PROC
EXTRN	__vsnprintf:PROC
EXTRN	??_U@YAPAXI@Z:PROC				; operator new[]
EXTRN	??_V@YAXPAX@Z:PROC				; operator delete[]
EXTRN	_D3DXMatrixScaling@16:PROC
EXTRN	_D3DXCreateSprite@8:PROC
EXTRN	_D3DXCreateFontA@48:PROC
EXTRN	_D3DXCreateTextureFromFileExA@56:PROC
EXTRN	?DXTraceWrapper@@YGJPBDKJ0H@Z:PROC		; DXTraceWrapper
EXTRN	?DXUTGetHWND@@YAPAUHWND__@@XZ:PROC		; DXUTGetHWND
EXTRN	?DXUTGetTime@@YANXZ:PROC			; DXUTGetTime
EXTRN	?DXUTGetAutomation@@YA_NXZ:PROC			; DXUTGetAutomation
EXTRN	?GetAbsoluteTime@CDXUTTimer@@QAENXZ:PROC	; CDXUTTimer::GetAbsoluteTime
EXTRN	?DXUTGetGlobalTimer@@YAPAVCDXUTTimer@@XZ:PROC	; DXUTGetGlobalTimer
EXTRN	?DXUTFindDXSDKMediaFileCch@@YAJPADHPBD@Z:PROC	; DXUTFindDXSDKMediaFileCch
EXTRN	?DXUTOutputDebugStringA@@YAXPBDZZ:PROC		; DXUTOutputDebugStringA
EXTRN	?DXUTTrace@@YGJPBDKJ0_N@Z:PROC			; DXUTTrace
EXTRN	??_ECDXUTControl@@UAEPAXI@Z:PROC		; CDXUTControl::`vector deleting destructor'
EXTRN	??_ECDXUTStatic@@UAEPAXI@Z:PROC			; CDXUTStatic::`vector deleting destructor'
EXTRN	??_ECDXUTButton@@UAEPAXI@Z:PROC			; CDXUTButton::`vector deleting destructor'
EXTRN	??_ECDXUTCheckBox@@UAEPAXI@Z:PROC		; CDXUTCheckBox::`vector deleting destructor'
EXTRN	??_ECDXUTRadioButton@@UAEPAXI@Z:PROC		; CDXUTRadioButton::`vector deleting destructor'
EXTRN	??_ECDXUTScrollBar@@UAEPAXI@Z:PROC		; CDXUTScrollBar::`vector deleting destructor'
EXTRN	??_ECDXUTListBox@@UAEPAXI@Z:PROC		; CDXUTListBox::`vector deleting destructor'
EXTRN	??_ECDXUTComboBox@@UAEPAXI@Z:PROC		; CDXUTComboBox::`vector deleting destructor'
EXTRN	??_ECDXUTSlider@@UAEPAXI@Z:PROC			; CDXUTSlider::`vector deleting destructor'
EXTRN	??_ECDXUTEditBox@@UAEPAXI@Z:PROC		; CDXUTEditBox::`vector deleting destructor'
EXTRN	??_ECDXUTIMEEditBox@@UAEPAXI@Z:PROC		; CDXUTIMEEditBox::`vector deleting destructor'
EXTRN	@_RTC_CheckStackVars@8:PROC
EXTRN	@__security_check_cookie@4:PROC
EXTRN	__RTC_CheckEsp:PROC
EXTRN	__RTC_InitBase:PROC
EXTRN	__RTC_Shutdown:PROC
EXTRN	___CxxFrameHandler3:PROC
EXTRN	__ftoui3:PROC
EXTRN	_memset:PROC
EXTRN	??_7type_info@@6B@:QWORD			; type_info::`vftable'
EXTRN	___security_cookie:DWORD
EXTRN	__fltused:DWORD
_BSS	SEGMENT
?s_CompString@CDXUTIMEEditBox@@1VCUniBuffer@@A DB 011H DUP (?) ; CDXUTIMEEditBox::s_CompString
	ALIGN	4

?s_CandList@CDXUTIMEEditBox@@1UCCandList@1@A DB 0a3aH DUP (?) ; CDXUTIMEEditBox::s_CandList
	ALIGN	4

?s_Locale@CDXUTIMEEditBox@@1V?$CGrowableArray@UCInputLocale@CDXUTIMEEditBox@@@@A DB 0cH DUP (?) ; CDXUTIMEEditBox::s_Locale
?bDrag@?9??MsgProc@CDXUTDialog@@QAE_NPAUHWND__@@IIJ@Z@4_NA DB 01H DUP (?) ; `CDXUTDialog::MsgProc'::`10'::bDrag
	ALIGN	4

?bSBInit@?3??Render@CDXUTComboBox@@UAEXPAUIDirect3DDevice9@@M@Z@4_NA DB 01H DUP (?) ; `CDXUTComboBox::Render'::`4'::bSBInit
	ALIGN	4

?ThumbOffsetY@?1??HandleMouse@CDXUTScrollBar@@UAE_NIUtagPOINT@@IJ@Z@4HA DD 01H DUP (?) ; `CDXUTScrollBar::HandleMouse'::`2'::ThumbOffsetY
?bDrag@?1??HandleMouse@CDXUTScrollBar@@UAE_NIUtagPOINT@@IJ@Z@4_NA DB 01H DUP (?) ; `CDXUTScrollBar::HandleMouse'::`2'::bDrag
	ALIGN	4

?bSBInit@?6??Render@CDXUTListBox@@UAEXPAUIDirect3DDevice9@@M@Z@4_NA DB 01H DUP (?) ; `CDXUTListBox::Render'::`7'::bSBInit
_BSS	ENDS
CRT$XCU	SEGMENT
?s_CompString$initializer$@CDXUTIMEEditBox@@1P6AXXZA DD FLAT:??__E?s_CompString@CDXUTIMEEditBox@@1VCUniBuffer@@A@@YAXXZ ; CDXUTIMEEditBox::s_CompString$initializer$
CRT$XCU	ENDS
;	COMDAT __xmm@41f00000000000000000000000000000
CONST	SEGMENT
__xmm@41f00000000000000000000000000000 DB 00H, 00H, 00H, 00H, 00H, 00H, 00H
	DB	00H, 00H, 00H, 00H, 00H, 00H, 00H, 0f0H, 'A'
CONST	ENDS
;	COMDAT __real@437f0000
CONST	SEGMENT
__real@437f0000 DD 0437f0000r			; 255
CONST	ENDS
;	COMDAT __real@41f00000
CONST	SEGMENT
__real@41f00000 DD 041f00000r			; 30
CONST	ENDS
;	COMDAT __real@41200000
CONST	SEGMENT
__real@41200000 DD 041200000r			; 10
CONST	ENDS
;	COMDAT __real@3fd51eb851eb851f
CONST	SEGMENT
__real@3fd51eb851eb851f DQ 03fd51eb851eb851fr	; 0.33
CONST	ENDS
;	COMDAT __real@3fa999999999999a
CONST	SEGMENT
__real@3fa999999999999a DQ 03fa999999999999ar	; 0.05
CONST	ENDS
;	COMDAT __real@3fa00000
CONST	SEGMENT
__real@3fa00000 DD 03fa00000r			; 1.25
CONST	ENDS
;	COMDAT __real@3f800000
CONST	SEGMENT
__real@3f800000 DD 03f800000r			; 1
CONST	ENDS
;	COMDAT __real@3f666666
CONST	SEGMENT
__real@3f666666 DD 03f666666r			; 0.9
CONST	ENDS
;	COMDAT __real@3f4ccccd
CONST	SEGMENT
__real@3f4ccccd DD 03f4ccccdr			; 0.8
CONST	ENDS
;	COMDAT __real@3f333333
CONST	SEGMENT
__real@3f333333 DD 03f333333r			; 0.7
CONST	ENDS
;	COMDAT __real@3f000000
CONST	SEGMENT
__real@3f000000 DD 03f000000r			; 0.5
CONST	ENDS
;	COMDAT __real@3dcccccd
CONST	SEGMENT
__real@3dcccccd DD 03dcccccdr			; 0.1
CONST	ENDS
;	COMDAT __real@3b808081
CONST	SEGMENT
__real@3b808081 DD 03b808081r			; 0.00392157
CONST	ENDS
;	COMDAT __real@3a83126f
CONST	SEGMENT
__real@3a83126f DD 03a83126fr			; 0.001
CONST	ENDS
;	COMDAT __real@0000000000000000
CONST	SEGMENT
__real@0000000000000000 DQ 00000000000000000r	; 0
CONST	ENDS
;	COMDAT __real@00000000
CONST	SEGMENT
__real@00000000 DD 000000000r			; 0
CONST	ENDS
;	COMDAT rtc$TMZ
rtc$TMZ	SEGMENT
__RTC_Shutdown.rtc$TMZ DD FLAT:__RTC_Shutdown
rtc$TMZ	ENDS
;	COMDAT rtc$IMZ
rtc$IMZ	SEGMENT
__RTC_InitBase.rtc$IMZ DD FLAT:__RTC_InitBase
rtc$IMZ	ENDS
;	COMDAT ??_R1A@?0A@EA@CDXUTScrollBar@@8
rdata$r	SEGMENT
??_R1A@?0A@EA@CDXUTScrollBar@@8 DD FLAT:??_R0?AVCDXUTScrollBar@@@8 ; CDXUTScrollBar::`RTTI Base Class Descriptor at (0,-1,0,64)'
	DD	01H
	DD	00H
	DD	0ffffffffH
	DD	00H
	DD	040H
	DD	FLAT:??_R3CDXUTScrollBar@@8
rdata$r	ENDS
;	COMDAT ??_R2CDXUTScrollBar@@8
rdata$r	SEGMENT
??_R2CDXUTScrollBar@@8 DD FLAT:??_R1A@?0A@EA@CDXUTScrollBar@@8 ; CDXUTScrollBar::`RTTI Base Class Array'
	DD	FLAT:??_R1A@?0A@EA@CDXUTControl@@8
rdata$r	ENDS
;	COMDAT ??_R3CDXUTScrollBar@@8
rdata$r	SEGMENT
??_R3CDXUTScrollBar@@8 DD 00H				; CDXUTScrollBar::`RTTI Class Hierarchy Descriptor'
	DD	00H
	DD	02H
	DD	FLAT:??_R2CDXUTScrollBar@@8
rdata$r	ENDS
;	COMDAT ??_R0?AVCDXUTScrollBar@@@8
data$r	SEGMENT
??_R0?AVCDXUTScrollBar@@@8 DD FLAT:??_7type_info@@6B@	; CDXUTScrollBar `RTTI Type Descriptor'
	DD	00H
	DB	'.?AVCDXUTScrollBar@@', 00H
data$r	ENDS
;	COMDAT ??_R4CDXUTScrollBar@@6B@
rdata$r	SEGMENT
??_R4CDXUTScrollBar@@6B@ DD 00H				; CDXUTScrollBar::`RTTI Complete Object Locator'
	DD	00H
	DD	00H
	DD	FLAT:??_R0?AVCDXUTScrollBar@@@8
	DD	FLAT:??_R3CDXUTScrollBar@@8
rdata$r	ENDS
;	COMDAT ??_R1A@?0A@EA@CDXUTListBox@@8
rdata$r	SEGMENT
??_R1A@?0A@EA@CDXUTListBox@@8 DD FLAT:??_R0?AVCDXUTListBox@@@8 ; CDXUTListBox::`RTTI Base Class Descriptor at (0,-1,0,64)'
	DD	01H
	DD	00H
	DD	0ffffffffH
	DD	00H
	DD	040H
	DD	FLAT:??_R3CDXUTListBox@@8
rdata$r	ENDS
;	COMDAT ??_R2CDXUTListBox@@8
rdata$r	SEGMENT
??_R2CDXUTListBox@@8 DD FLAT:??_R1A@?0A@EA@CDXUTListBox@@8 ; CDXUTListBox::`RTTI Base Class Array'
	DD	FLAT:??_R1A@?0A@EA@CDXUTControl@@8
rdata$r	ENDS
;	COMDAT ??_R3CDXUTListBox@@8
rdata$r	SEGMENT
??_R3CDXUTListBox@@8 DD 00H				; CDXUTListBox::`RTTI Class Hierarchy Descriptor'
	DD	00H
	DD	02H
	DD	FLAT:??_R2CDXUTListBox@@8
rdata$r	ENDS
;	COMDAT ??_R0?AVCDXUTListBox@@@8
data$r	SEGMENT
??_R0?AVCDXUTListBox@@@8 DD FLAT:??_7type_info@@6B@	; CDXUTListBox `RTTI Type Descriptor'
	DD	00H
	DB	'.?AVCDXUTListBox@@', 00H
data$r	ENDS
;	COMDAT ??_R4CDXUTListBox@@6B@
rdata$r	SEGMENT
??_R4CDXUTListBox@@6B@ DD 00H				; CDXUTListBox::`RTTI Complete Object Locator'
	DD	00H
	DD	00H
	DD	FLAT:??_R0?AVCDXUTListBox@@@8
	DD	FLAT:??_R3CDXUTListBox@@8
rdata$r	ENDS
;	COMDAT ??_R1A@?0A@EA@CDXUTIMEEditBox@@8
rdata$r	SEGMENT
??_R1A@?0A@EA@CDXUTIMEEditBox@@8 DD FLAT:??_R0?AVCDXUTIMEEditBox@@@8 ; CDXUTIMEEditBox::`RTTI Base Class Descriptor at (0,-1,0,64)'
	DD	02H
	DD	00H
	DD	0ffffffffH
	DD	00H
	DD	040H
	DD	FLAT:??_R3CDXUTIMEEditBox@@8
rdata$r	ENDS
;	COMDAT ??_R2CDXUTIMEEditBox@@8
rdata$r	SEGMENT
??_R2CDXUTIMEEditBox@@8 DD FLAT:??_R1A@?0A@EA@CDXUTIMEEditBox@@8 ; CDXUTIMEEditBox::`RTTI Base Class Array'
	DD	FLAT:??_R1A@?0A@EA@CDXUTEditBox@@8
	DD	FLAT:??_R1A@?0A@EA@CDXUTControl@@8
rdata$r	ENDS
;	COMDAT ??_R3CDXUTIMEEditBox@@8
rdata$r	SEGMENT
??_R3CDXUTIMEEditBox@@8 DD 00H				; CDXUTIMEEditBox::`RTTI Class Hierarchy Descriptor'
	DD	00H
	DD	03H
	DD	FLAT:??_R2CDXUTIMEEditBox@@8
rdata$r	ENDS
;	COMDAT ??_R0?AVCDXUTIMEEditBox@@@8
data$r	SEGMENT
??_R0?AVCDXUTIMEEditBox@@@8 DD FLAT:??_7type_info@@6B@	; CDXUTIMEEditBox `RTTI Type Descriptor'
	DD	00H
	DB	'.?AVCDXUTIMEEditBox@@', 00H
data$r	ENDS
;	COMDAT ??_R4CDXUTIMEEditBox@@6B@
rdata$r	SEGMENT
??_R4CDXUTIMEEditBox@@6B@ DD 00H			; CDXUTIMEEditBox::`RTTI Complete Object Locator'
	DD	00H
	DD	00H
	DD	FLAT:??_R0?AVCDXUTIMEEditBox@@@8
	DD	FLAT:??_R3CDXUTIMEEditBox@@8
rdata$r	ENDS
;	COMDAT ??_R1A@?0A@EA@CDXUTEditBox@@8
rdata$r	SEGMENT
??_R1A@?0A@EA@CDXUTEditBox@@8 DD FLAT:??_R0?AVCDXUTEditBox@@@8 ; CDXUTEditBox::`RTTI Base Class Descriptor at (0,-1,0,64)'
	DD	01H
	DD	00H
	DD	0ffffffffH
	DD	00H
	DD	040H
	DD	FLAT:??_R3CDXUTEditBox@@8
rdata$r	ENDS
;	COMDAT ??_R2CDXUTEditBox@@8
rdata$r	SEGMENT
??_R2CDXUTEditBox@@8 DD FLAT:??_R1A@?0A@EA@CDXUTEditBox@@8 ; CDXUTEditBox::`RTTI Base Class Array'
	DD	FLAT:??_R1A@?0A@EA@CDXUTControl@@8
rdata$r	ENDS
;	COMDAT ??_R3CDXUTEditBox@@8
rdata$r	SEGMENT
??_R3CDXUTEditBox@@8 DD 00H				; CDXUTEditBox::`RTTI Class Hierarchy Descriptor'
	DD	00H
	DD	02H
	DD	FLAT:??_R2CDXUTEditBox@@8
rdata$r	ENDS
;	COMDAT ??_R0?AVCDXUTEditBox@@@8
data$r	SEGMENT
??_R0?AVCDXUTEditBox@@@8 DD FLAT:??_7type_info@@6B@	; CDXUTEditBox `RTTI Type Descriptor'
	DD	00H
	DB	'.?AVCDXUTEditBox@@', 00H
data$r	ENDS
;	COMDAT ??_R4CDXUTEditBox@@6B@
rdata$r	SEGMENT
??_R4CDXUTEditBox@@6B@ DD 00H				; CDXUTEditBox::`RTTI Complete Object Locator'
	DD	00H
	DD	00H
	DD	FLAT:??_R0?AVCDXUTEditBox@@@8
	DD	FLAT:??_R3CDXUTEditBox@@8
rdata$r	ENDS
;	COMDAT ??_R1A@?0A@EA@CDXUTSlider@@8
rdata$r	SEGMENT
??_R1A@?0A@EA@CDXUTSlider@@8 DD FLAT:??_R0?AVCDXUTSlider@@@8 ; CDXUTSlider::`RTTI Base Class Descriptor at (0,-1,0,64)'
	DD	01H
	DD	00H
	DD	0ffffffffH
	DD	00H
	DD	040H
	DD	FLAT:??_R3CDXUTSlider@@8
rdata$r	ENDS
;	COMDAT ??_R2CDXUTSlider@@8
rdata$r	SEGMENT
??_R2CDXUTSlider@@8 DD FLAT:??_R1A@?0A@EA@CDXUTSlider@@8 ; CDXUTSlider::`RTTI Base Class Array'
	DD	FLAT:??_R1A@?0A@EA@CDXUTControl@@8
rdata$r	ENDS
;	COMDAT ??_R3CDXUTSlider@@8
rdata$r	SEGMENT
??_R3CDXUTSlider@@8 DD 00H				; CDXUTSlider::`RTTI Class Hierarchy Descriptor'
	DD	00H
	DD	02H
	DD	FLAT:??_R2CDXUTSlider@@8
rdata$r	ENDS
;	COMDAT ??_R0?AVCDXUTSlider@@@8
data$r	SEGMENT
??_R0?AVCDXUTSlider@@@8 DD FLAT:??_7type_info@@6B@	; CDXUTSlider `RTTI Type Descriptor'
	DD	00H
	DB	'.?AVCDXUTSlider@@', 00H
data$r	ENDS
;	COMDAT ??_R4CDXUTSlider@@6B@
rdata$r	SEGMENT
??_R4CDXUTSlider@@6B@ DD 00H				; CDXUTSlider::`RTTI Complete Object Locator'
	DD	00H
	DD	00H
	DD	FLAT:??_R0?AVCDXUTSlider@@@8
	DD	FLAT:??_R3CDXUTSlider@@8
rdata$r	ENDS
;	COMDAT ??_R1A@?0A@EA@CDXUTComboBox@@8
rdata$r	SEGMENT
??_R1A@?0A@EA@CDXUTComboBox@@8 DD FLAT:??_R0?AVCDXUTComboBox@@@8 ; CDXUTComboBox::`RTTI Base Class Descriptor at (0,-1,0,64)'
	DD	03H
	DD	00H
	DD	0ffffffffH
	DD	00H
	DD	040H
	DD	FLAT:??_R3CDXUTComboBox@@8
rdata$r	ENDS
;	COMDAT ??_R2CDXUTComboBox@@8
rdata$r	SEGMENT
??_R2CDXUTComboBox@@8 DD FLAT:??_R1A@?0A@EA@CDXUTComboBox@@8 ; CDXUTComboBox::`RTTI Base Class Array'
	DD	FLAT:??_R1A@?0A@EA@CDXUTButton@@8
	DD	FLAT:??_R1A@?0A@EA@CDXUTStatic@@8
	DD	FLAT:??_R1A@?0A@EA@CDXUTControl@@8
rdata$r	ENDS
;	COMDAT ??_R3CDXUTComboBox@@8
rdata$r	SEGMENT
??_R3CDXUTComboBox@@8 DD 00H				; CDXUTComboBox::`RTTI Class Hierarchy Descriptor'
	DD	00H
	DD	04H
	DD	FLAT:??_R2CDXUTComboBox@@8
rdata$r	ENDS
;	COMDAT ??_R0?AVCDXUTComboBox@@@8
data$r	SEGMENT
??_R0?AVCDXUTComboBox@@@8 DD FLAT:??_7type_info@@6B@	; CDXUTComboBox `RTTI Type Descriptor'
	DD	00H
	DB	'.?AVCDXUTComboBox@@', 00H
data$r	ENDS
;	COMDAT ??_R4CDXUTComboBox@@6B@
rdata$r	SEGMENT
??_R4CDXUTComboBox@@6B@ DD 00H				; CDXUTComboBox::`RTTI Complete Object Locator'
	DD	00H
	DD	00H
	DD	FLAT:??_R0?AVCDXUTComboBox@@@8
	DD	FLAT:??_R3CDXUTComboBox@@8
rdata$r	ENDS
;	COMDAT ??_R1A@?0A@EA@CDXUTRadioButton@@8
rdata$r	SEGMENT
??_R1A@?0A@EA@CDXUTRadioButton@@8 DD FLAT:??_R0?AVCDXUTRadioButton@@@8 ; CDXUTRadioButton::`RTTI Base Class Descriptor at (0,-1,0,64)'
	DD	04H
	DD	00H
	DD	0ffffffffH
	DD	00H
	DD	040H
	DD	FLAT:??_R3CDXUTRadioButton@@8
rdata$r	ENDS
;	COMDAT ??_R2CDXUTRadioButton@@8
rdata$r	SEGMENT
??_R2CDXUTRadioButton@@8 DD FLAT:??_R1A@?0A@EA@CDXUTRadioButton@@8 ; CDXUTRadioButton::`RTTI Base Class Array'
	DD	FLAT:??_R1A@?0A@EA@CDXUTCheckBox@@8
	DD	FLAT:??_R1A@?0A@EA@CDXUTButton@@8
	DD	FLAT:??_R1A@?0A@EA@CDXUTStatic@@8
	DD	FLAT:??_R1A@?0A@EA@CDXUTControl@@8
rdata$r	ENDS
;	COMDAT ??_R3CDXUTRadioButton@@8
rdata$r	SEGMENT
??_R3CDXUTRadioButton@@8 DD 00H				; CDXUTRadioButton::`RTTI Class Hierarchy Descriptor'
	DD	00H
	DD	05H
	DD	FLAT:??_R2CDXUTRadioButton@@8
rdata$r	ENDS
;	COMDAT ??_R0?AVCDXUTRadioButton@@@8
data$r	SEGMENT
??_R0?AVCDXUTRadioButton@@@8 DD FLAT:??_7type_info@@6B@	; CDXUTRadioButton `RTTI Type Descriptor'
	DD	00H
	DB	'.?AVCDXUTRadioButton@@', 00H
data$r	ENDS
;	COMDAT ??_R4CDXUTRadioButton@@6B@
rdata$r	SEGMENT
??_R4CDXUTRadioButton@@6B@ DD 00H			; CDXUTRadioButton::`RTTI Complete Object Locator'
	DD	00H
	DD	00H
	DD	FLAT:??_R0?AVCDXUTRadioButton@@@8
	DD	FLAT:??_R3CDXUTRadioButton@@8
rdata$r	ENDS
;	COMDAT ??_R1A@?0A@EA@CDXUTCheckBox@@8
rdata$r	SEGMENT
??_R1A@?0A@EA@CDXUTCheckBox@@8 DD FLAT:??_R0?AVCDXUTCheckBox@@@8 ; CDXUTCheckBox::`RTTI Base Class Descriptor at (0,-1,0,64)'
	DD	03H
	DD	00H
	DD	0ffffffffH
	DD	00H
	DD	040H
	DD	FLAT:??_R3CDXUTCheckBox@@8
rdata$r	ENDS
;	COMDAT ??_R2CDXUTCheckBox@@8
rdata$r	SEGMENT
??_R2CDXUTCheckBox@@8 DD FLAT:??_R1A@?0A@EA@CDXUTCheckBox@@8 ; CDXUTCheckBox::`RTTI Base Class Array'
	DD	FLAT:??_R1A@?0A@EA@CDXUTButton@@8
	DD	FLAT:??_R1A@?0A@EA@CDXUTStatic@@8
	DD	FLAT:??_R1A@?0A@EA@CDXUTControl@@8
rdata$r	ENDS
;	COMDAT ??_R3CDXUTCheckBox@@8
rdata$r	SEGMENT
??_R3CDXUTCheckBox@@8 DD 00H				; CDXUTCheckBox::`RTTI Class Hierarchy Descriptor'
	DD	00H
	DD	04H
	DD	FLAT:??_R2CDXUTCheckBox@@8
rdata$r	ENDS
;	COMDAT ??_R0?AVCDXUTCheckBox@@@8
data$r	SEGMENT
??_R0?AVCDXUTCheckBox@@@8 DD FLAT:??_7type_info@@6B@	; CDXUTCheckBox `RTTI Type Descriptor'
	DD	00H
	DB	'.?AVCDXUTCheckBox@@', 00H
data$r	ENDS
;	COMDAT ??_R4CDXUTCheckBox@@6B@
rdata$r	SEGMENT
??_R4CDXUTCheckBox@@6B@ DD 00H				; CDXUTCheckBox::`RTTI Complete Object Locator'
	DD	00H
	DD	00H
	DD	FLAT:??_R0?AVCDXUTCheckBox@@@8
	DD	FLAT:??_R3CDXUTCheckBox@@8
rdata$r	ENDS
;	COMDAT ??_R4CDXUTStatic@@6B@
rdata$r	SEGMENT
??_R4CDXUTStatic@@6B@ DD 00H				; CDXUTStatic::`RTTI Complete Object Locator'
	DD	00H
	DD	00H
	DD	FLAT:??_R0?AVCDXUTStatic@@@8
	DD	FLAT:??_R3CDXUTStatic@@8
rdata$r	ENDS
;	COMDAT ??_R2CDXUTStatic@@8
rdata$r	SEGMENT
??_R2CDXUTStatic@@8 DD FLAT:??_R1A@?0A@EA@CDXUTStatic@@8 ; CDXUTStatic::`RTTI Base Class Array'
	DD	FLAT:??_R1A@?0A@EA@CDXUTControl@@8
rdata$r	ENDS
;	COMDAT ??_R3CDXUTStatic@@8
rdata$r	SEGMENT
??_R3CDXUTStatic@@8 DD 00H				; CDXUTStatic::`RTTI Class Hierarchy Descriptor'
	DD	00H
	DD	02H
	DD	FLAT:??_R2CDXUTStatic@@8
rdata$r	ENDS
;	COMDAT ??_R0?AVCDXUTStatic@@@8
data$r	SEGMENT
??_R0?AVCDXUTStatic@@@8 DD FLAT:??_7type_info@@6B@	; CDXUTStatic `RTTI Type Descriptor'
	DD	00H
	DB	'.?AVCDXUTStatic@@', 00H
data$r	ENDS
;	COMDAT ??_R1A@?0A@EA@CDXUTStatic@@8
rdata$r	SEGMENT
??_R1A@?0A@EA@CDXUTStatic@@8 DD FLAT:??_R0?AVCDXUTStatic@@@8 ; CDXUTStatic::`RTTI Base Class Descriptor at (0,-1,0,64)'
	DD	01H
	DD	00H
	DD	0ffffffffH
	DD	00H
	DD	040H
	DD	FLAT:??_R3CDXUTStatic@@8
rdata$r	ENDS
;	COMDAT ??_R1A@?0A@EA@CDXUTButton@@8
rdata$r	SEGMENT
??_R1A@?0A@EA@CDXUTButton@@8 DD FLAT:??_R0?AVCDXUTButton@@@8 ; CDXUTButton::`RTTI Base Class Descriptor at (0,-1,0,64)'
	DD	02H
	DD	00H
	DD	0ffffffffH
	DD	00H
	DD	040H
	DD	FLAT:??_R3CDXUTButton@@8
rdata$r	ENDS
;	COMDAT ??_R2CDXUTButton@@8
rdata$r	SEGMENT
??_R2CDXUTButton@@8 DD FLAT:??_R1A@?0A@EA@CDXUTButton@@8 ; CDXUTButton::`RTTI Base Class Array'
	DD	FLAT:??_R1A@?0A@EA@CDXUTStatic@@8
	DD	FLAT:??_R1A@?0A@EA@CDXUTControl@@8
rdata$r	ENDS
;	COMDAT ??_R3CDXUTButton@@8
rdata$r	SEGMENT
??_R3CDXUTButton@@8 DD 00H				; CDXUTButton::`RTTI Class Hierarchy Descriptor'
	DD	00H
	DD	03H
	DD	FLAT:??_R2CDXUTButton@@8
rdata$r	ENDS
;	COMDAT ??_R0?AVCDXUTButton@@@8
data$r	SEGMENT
??_R0?AVCDXUTButton@@@8 DD FLAT:??_7type_info@@6B@	; CDXUTButton `RTTI Type Descriptor'
	DD	00H
	DB	'.?AVCDXUTButton@@', 00H
data$r	ENDS
;	COMDAT ??_R4CDXUTButton@@6B@
rdata$r	SEGMENT
??_R4CDXUTButton@@6B@ DD 00H				; CDXUTButton::`RTTI Complete Object Locator'
	DD	00H
	DD	00H
	DD	FLAT:??_R0?AVCDXUTButton@@@8
	DD	FLAT:??_R3CDXUTButton@@8
rdata$r	ENDS
;	COMDAT ??_R1A@?0A@EA@CDXUTControl@@8
rdata$r	SEGMENT
??_R1A@?0A@EA@CDXUTControl@@8 DD FLAT:??_R0?AVCDXUTControl@@@8 ; CDXUTControl::`RTTI Base Class Descriptor at (0,-1,0,64)'
	DD	00H
	DD	00H
	DD	0ffffffffH
	DD	00H
	DD	040H
	DD	FLAT:??_R3CDXUTControl@@8
rdata$r	ENDS
;	COMDAT ??_R2CDXUTControl@@8
rdata$r	SEGMENT
??_R2CDXUTControl@@8 DD FLAT:??_R1A@?0A@EA@CDXUTControl@@8 ; CDXUTControl::`RTTI Base Class Array'
rdata$r	ENDS
;	COMDAT ??_R3CDXUTControl@@8
rdata$r	SEGMENT
??_R3CDXUTControl@@8 DD 00H				; CDXUTControl::`RTTI Class Hierarchy Descriptor'
	DD	00H
	DD	01H
	DD	FLAT:??_R2CDXUTControl@@8
rdata$r	ENDS
;	COMDAT ??_R0?AVCDXUTControl@@@8
data$r	SEGMENT
??_R0?AVCDXUTControl@@@8 DD FLAT:??_7type_info@@6B@	; CDXUTControl `RTTI Type Descriptor'
	DD	00H
	DB	'.?AVCDXUTControl@@', 00H
data$r	ENDS
;	COMDAT ??_R4CDXUTControl@@6B@
rdata$r	SEGMENT
??_R4CDXUTControl@@6B@ DD 00H				; CDXUTControl::`RTTI Complete Object Locator'
	DD	00H
	DD	00H
	DD	FLAT:??_R0?AVCDXUTControl@@@8
	DD	FLAT:??_R3CDXUTControl@@8
rdata$r	ENDS
;	COMDAT ??_C@_1M@HLGKFCJM@?$AAf?$AAa?$AAl?$AAs?$AAe?$AA?$AA@
CONST	SEGMENT
??_C@_1M@HLGKFCJM@?$AAf?$AAa?$AAl?$AAs?$AAe?$AA?$AA@ DB 'f', 00H, 'a', 00H
	DB	'l', 00H, 's', 00H, 'e', 00H, 00H, 00H	; `string'
CONST	ENDS
;	COMDAT ??_C@_1EA@JHMKKLFC@?$AAn?$AAI?$AAn?$AAd?$AAe?$AAx?$AA?5?$AA?$DO?$AA?$DN?$AA?5?$AA0?$AA?5?$AA?$CG?$AA?$CG?$AA?5?$AAn?$AAI?$AAn?$AAd?$AAe?$AAx?$AA?5?$AA?$DM?$AA?5?$AAm?$AA_?$AAn?$AAS?$AAi?$AAz?$AAe?$AA?$AA@
CONST	SEGMENT
??_C@_1EA@JHMKKLFC@?$AAn?$AAI?$AAn?$AAd?$AAe?$AAx?$AA?5?$AA?$DO?$AA?$DN?$AA?5?$AA0?$AA?5?$AA?$CG?$AA?$CG?$AA?5?$AAn?$AAI?$AAn?$AAd?$AAe?$AAx?$AA?5?$AA?$DM?$AA?5?$AAm?$AA_?$AAn?$AAS?$AAi?$AAz?$AAe?$AA?$AA@ DB 'n'
	DB	00H, 'I', 00H, 'n', 00H, 'd', 00H, 'e', 00H, 'x', 00H, ' ', 00H
	DB	'>', 00H, '=', 00H, ' ', 00H, '0', 00H, ' ', 00H, '&', 00H, '&'
	DB	00H, ' ', 00H, 'n', 00H, 'I', 00H, 'n', 00H, 'd', 00H, 'e', 00H
	DB	'x', 00H, ' ', 00H, '<', 00H, ' ', 00H, 'm', 00H, '_', 00H, 'n'
	DB	00H, 'S', 00H, 'i', 00H, 'z', 00H, 'e', 00H, 00H, 00H ; `string'
CONST	ENDS
;	COMDAT ??_C@_1FK@FIMIDMPE@?$AAz?$AA?3?$AA?2?$AAs?$AAa?$AAm?$AAp?$AAs?$AAr?$AAc?$AA?2?$AA0?$AA2?$AAx?$AAu?$AA1?$AA?2?$AAs?$AAa?$AAc?$AAo?$AA?2?$AAd?$AA3?$AAd?$AA9?$AA?2?$AAc?$AAo?$AAm?$AAm?$AAo@
CONST	SEGMENT
??_C@_1FK@FIMIDMPE@?$AAz?$AA?3?$AA?2?$AAs?$AAa?$AAm?$AAp?$AAs?$AAr?$AAc?$AA?2?$AA0?$AA2?$AAx?$AAu?$AA1?$AA?2?$AAs?$AAa?$AAc?$AAo?$AA?2?$AAd?$AA3?$AAd?$AA9?$AA?2?$AAc?$AAo?$AAm?$AAm?$AAo@ DB 'z'
	DB	00H, ':', 00H, '\', 00H, 's', 00H, 'a', 00H, 'm', 00H, 'p', 00H
	DB	's', 00H, 'r', 00H, 'c', 00H, '\', 00H, '0', 00H, '2', 00H, 'x'
	DB	00H, 'u', 00H, '1', 00H, '\', 00H, 's', 00H, 'a', 00H, 'c', 00H
	DB	'o', 00H, '\', 00H, 'd', 00H, '3', 00H, 'd', 00H, '9', 00H, '\'
	DB	00H, 'c', 00H, 'o', 00H, 'm', 00H, 'm', 00H, 'o', 00H, 'n', 00H
	DB	'\', 00H, 'd', 00H, 'x', 00H, 'u', 00H, 't', 00H, 'm', 00H, 'i'
	DB	00H, 's', 00H, 'c', 00H, '.', 00H, 'h', 00H, 00H, 00H ; `string'
CONST	ENDS
;	COMDAT ??_C@_0BI@FKDAHLLJ@GetFileVersionInfoSizeA?$AA@
CONST	SEGMENT
??_C@_0BI@FKDAHLLJ@GetFileVersionInfoSizeA?$AA@ DB 'GetFileVersionInfoSiz'
	DB	'eA', 00H					; `string'
CONST	ENDS
;	COMDAT ??_C@_0BE@JIHADGJK@GetFileVersionInfoA?$AA@
CONST	SEGMENT
??_C@_0BE@JIHADGJK@GetFileVersionInfoA?$AA@ DB 'GetFileVersionInfoA', 00H ; `string'
CONST	ENDS
;	COMDAT ??_C@_0P@EGBPEC@VerQueryValueA?$AA@
CONST	SEGMENT
??_C@_0P@EGBPEC@VerQueryValueA?$AA@ DB 'VerQueryValueA', 00H ; `string'
CONST	ENDS
;	COMDAT ??_C@_0N@HAEJINEE@?2version?4dll?$AA@
CONST	SEGMENT
??_C@_0N@HAEJINEE@?2version?4dll?$AA@ DB '\version.dll', 00H ; `string'
CONST	ENDS
;	COMDAT ??_C@_08EPDNLFJN@ImmIsIME?$AA@
CONST	SEGMENT
??_C@_08EPDNLFJN@ImmIsIME?$AA@ DB 'ImmIsIME', 00H	; `string'
CONST	ENDS
;	COMDAT ??_C@_0BC@OMCMFCHK@ImmSimulateHotKey?$AA@
CONST	SEGMENT
??_C@_0BC@OMCMFCHK@ImmSimulateHotKey?$AA@ DB 'ImmSimulateHotKey', 00H ; `string'
CONST	ENDS
;	COMDAT ??_C@_0BH@MCPHEKIJ@ImmSetConversionStatus?$AA@
CONST	SEGMENT
??_C@_0BH@MCPHEKIJ@ImmSetConversionStatus?$AA@ DB 'ImmSetConversionStatus'
	DB	00H						; `string'
CONST	ENDS
;	COMDAT ??_C@_0N@OLIMKHEA@ImmNotifyIME?$AA@
CONST	SEGMENT
??_C@_0N@OLIMKHEA@ImmNotifyIME?$AA@ DB 'ImmNotifyIME', 00H ; `string'
CONST	ENDS
;	COMDAT ??_C@_0BB@CEHHIDO@ImmGetVirtualKey?$AA@
CONST	SEGMENT
??_C@_0BB@CEHHIDO@ImmGetVirtualKey?$AA@ DB 'ImmGetVirtualKey', 00H ; `string'
CONST	ENDS
;	COMDAT ??_C@_0BD@GDCNBOJF@ImmGetIMEFileNameA?$AA@
CONST	SEGMENT
??_C@_0BD@GDCNBOJF@ImmGetIMEFileNameA?$AA@ DB 'ImmGetIMEFileNameA', 00H ; `string'
CONST	ENDS
;	COMDAT ??_C@_0BE@LPNAGBML@ImmGetDefaultIMEWnd?$AA@
CONST	SEGMENT
??_C@_0BE@LPNAGBML@ImmGetDefaultIMEWnd?$AA@ DB 'ImmGetDefaultIMEWnd', 00H ; `string'
CONST	ENDS
;	COMDAT ??_C@_0BH@GMNMAKPF@ImmGetConversionStatus?$AA@
CONST	SEGMENT
??_C@_0BH@GMNMAKPF@ImmGetConversionStatus?$AA@ DB 'ImmGetConversionStatus'
	DB	00H						; `string'
CONST	ENDS
;	COMDAT ??_C@_0BB@BPOEGBEM@ImmSetOpenStatus?$AA@
CONST	SEGMENT
??_C@_0BB@BPOEGBEM@ImmSetOpenStatus?$AA@ DB 'ImmSetOpenStatus', 00H ; `string'
CONST	ENDS
;	COMDAT ??_C@_0BB@GAPKNCDL@ImmGetOpenStatus?$AA@
CONST	SEGMENT
??_C@_0BB@GAPKNCDL@ImmGetOpenStatus?$AA@ DB 'ImmGetOpenStatus', 00H ; `string'
CONST	ENDS
;	COMDAT ??_C@_0BE@BDEIBNIK@ImmAssociateContext?$AA@
CONST	SEGMENT
??_C@_0BE@BDEIBNIK@ImmAssociateContext?$AA@ DB 'ImmAssociateContext', 00H ; `string'
CONST	ENDS
;	COMDAT ??_C@_0BC@OCDKEPCD@ImmReleaseContext?$AA@
CONST	SEGMENT
??_C@_0BC@OCDKEPCD@ImmReleaseContext?$AA@ DB 'ImmReleaseContext', 00H ; `string'
CONST	ENDS
;	COMDAT ??_C@_0O@KCHCFLMC@ImmGetContext?$AA@
CONST	SEGMENT
??_C@_0O@KCHCFLMC@ImmGetContext?$AA@ DB 'ImmGetContext', 00H ; `string'
CONST	ENDS
;	COMDAT ??_C@_0BF@INEDHPDK@ImmGetCandidateListW?$AA@
CONST	SEGMENT
??_C@_0BF@INEDHPDK@ImmGetCandidateListW?$AA@ DB 'ImmGetCandidateListW', 00H ; `string'
CONST	ENDS
;	COMDAT ??_C@_0BJ@BIPOEMOA@ImmGetCompositionStringW?$AA@
CONST	SEGMENT
??_C@_0BJ@BIPOEMOA@ImmGetCompositionStringW?$AA@ DB 'ImmGetCompositionStr'
	DB	'ingW', 00H					; `string'
CONST	ENDS
;	COMDAT ??_C@_0BL@MBEANDFB@ImmDisableTextFrameService?$AA@
CONST	SEGMENT
??_C@_0BL@MBEANDFB@ImmDisableTextFrameService?$AA@ DB 'ImmDisableTextFram'
	DB	'eService', 00H				; `string'
CONST	ENDS
;	COMDAT ??_C@_0O@GKKOACL@ImmUnlockIMCC?$AA@
CONST	SEGMENT
??_C@_0O@GKKOACL@ImmUnlockIMCC?$AA@ DB 'ImmUnlockIMCC', 00H ; `string'
CONST	ENDS
;	COMDAT ??_C@_0M@OKKMJOGM@ImmLockIMCC?$AA@
CONST	SEGMENT
??_C@_0M@OKKMJOGM@ImmLockIMCC?$AA@ DB 'ImmLockIMCC', 00H ; `string'
CONST	ENDS
;	COMDAT ??_C@_0N@PDIACEGP@ImmUnlockIMC?$AA@
CONST	SEGMENT
??_C@_0N@PDIACEGP@ImmUnlockIMC?$AA@ DB 'ImmUnlockIMC', 00H ; `string'
CONST	ENDS
;	COMDAT ??_C@_0L@JGAMEFKO@ImmLockIMC?$AA@
CONST	SEGMENT
??_C@_0L@JGAMEFKO@ImmLockIMC?$AA@ DB 'ImmLockIMC', 00H	; `string'
CONST	ENDS
;	COMDAT ??_C@_0L@LPOFADGE@?2imm32?4dll?$AA@
CONST	SEGMENT
??_C@_0L@LPOFADGE@?2imm32?4dll?$AA@ DB '\imm32.dll', 00H ; `string'
CONST	ENDS
;	COMDAT ??_C@_1BO@KHKNKHIE@?$AAp?$AAC?$AAP?$AA?5?$AA?$CG?$AA?$CG?$AA?5?$AAp?$AAn?$AAT?$AAr?$AAa?$AAi?$AAl?$AA?$AA@
CONST	SEGMENT
??_C@_1BO@KHKNKHIE@?$AAp?$AAC?$AAP?$AA?5?$AA?$CG?$AA?$CG?$AA?5?$AAp?$AAn?$AAT?$AAr?$AAa?$AAi?$AAl?$AA?$AA@ DB 'p'
	DB	00H, 'C', 00H, 'P', 00H, ' ', 00H, '&', 00H, '&', 00H, ' ', 00H
	DB	'p', 00H, 'n', 00H, 'T', 00H, 'r', 00H, 'a', 00H, 'i', 00H, 'l'
	DB	00H, 00H, 00H				; `string'
CONST	ENDS
;	COMDAT ?__LINE__Var@?1??XtoCP@CUniBuffer@@QAEJHPAH0@Z@4JA
_DATA	SEGMENT
?__LINE__Var@?1??XtoCP@CUniBuffer@@QAEJHPAH0@Z@4JA DD 01d36H ; `CUniBuffer::XtoCP'::`2'::__LINE__Var
_DATA	ENDS
;	COMDAT ??_C@_15ELKGHENA@?$AAp?$AAX?$AA?$AA@
CONST	SEGMENT
??_C@_15ELKGHENA@?$AAp?$AAX?$AA?$AA@ DB 'p', 00H, 'X', 00H, 00H, 00H ; `string'
CONST	ENDS
;	COMDAT ?__LINE__Var@?1??CPtoX@CUniBuffer@@QAEJHHPAH@Z@4JA
_DATA	SEGMENT
?__LINE__Var@?1??CPtoX@CUniBuffer@@QAEJHHPAH@Z@4JA DD 01d25H ; `CUniBuffer::CPtoX'::`2'::__LINE__Var
_DATA	ENDS
;	COMDAT ?__LINE__Var@?1??SetText@CUniBuffer@@QAE_NPBD@Z@4JA
_DATA	SEGMENT
?__LINE__Var@?1??SetText@CUniBuffer@@QAE_NPBD@Z@4JA DD 01d0bH ; `CUniBuffer::SetText'::`2'::__LINE__Var
_DATA	ENDS
;	COMDAT ?__LINE__Var@?1??InsertString@CUniBuffer@@QAE_NHPBDH@Z@4JA
_DATA	SEGMENT
?__LINE__Var@?1??InsertString@CUniBuffer@@QAE_NHPBDH@Z@4JA DD 01ceeH ; `CUniBuffer::InsertString'::`2'::__LINE__Var
_DATA	ENDS
;	COMDAT ??_C@_1CG@LHICNCCG@?$AAm?$AA_?$AAn?$AAB?$AAu?$AAf?$AAf?$AAe?$AAr?$AAS?$AAi?$AAz?$AAe?$AA?5?$AA?$DO?$AA?$DN?$AA?5?$AA2?$AA?$AA@
CONST	SEGMENT
??_C@_1CG@LHICNCCG@?$AAm?$AA_?$AAn?$AAB?$AAu?$AAf?$AAf?$AAe?$AAr?$AAS?$AAi?$AAz?$AAe?$AA?5?$AA?$DO?$AA?$DN?$AA?5?$AA2?$AA?$AA@ DB 'm'
	DB	00H, '_', 00H, 'n', 00H, 'B', 00H, 'u', 00H, 'f', 00H, 'f', 00H
	DB	'e', 00H, 'r', 00H, 'S', 00H, 'i', 00H, 'z', 00H, 'e', 00H, ' '
	DB	00H, '>', 00H, '=', 00H, ' ', 00H, '2', 00H, 00H, 00H ; `string'
CONST	ENDS
;	COMDAT ??_C@_1BI@EFNELFHP@?$AAn?$AAI?$AAn?$AAd?$AAe?$AAx?$AA?5?$AA?$DO?$AA?$DN?$AA?5?$AA0?$AA?$AA@
CONST	SEGMENT
??_C@_1BI@EFNELFHP@?$AAn?$AAI?$AAn?$AAd?$AAe?$AAx?$AA?5?$AA?$DO?$AA?$DN?$AA?5?$AA0?$AA?$AA@ DB 'n'
	DB	00H, 'I', 00H, 'n', 00H, 'd', 00H, 'e', 00H, 'x', 00H, ' ', 00H
	DB	'>', 00H, '=', 00H, ' ', 00H, '0', 00H, 00H, 00H ; `string'
CONST	ENDS
;	COMDAT ?__LINE__Var@?1??InsertChar@CUniBuffer@@QAE_NHD@Z@4JA
_DATA	SEGMENT
?__LINE__Var@?1??InsertChar@CUniBuffer@@QAE_NHD@Z@4JA DD 01cb5H ; `CUniBuffer::InsertChar'::`2'::__LINE__Var
_DATA	ENDS
;	COMDAT ??_C@_0BI@NIMEAFDJ@ScriptString_pcOutChars?$AA@
CONST	SEGMENT
??_C@_0BI@NIMEAFDJ@ScriptString_pcOutChars?$AA@ DB 'ScriptString_pcOutCha'
	DB	'rs', 00H					; `string'
CONST	ENDS
;	COMDAT ??_C@_0BG@ENNDDIIO@ScriptString_pLogAttr?$AA@
CONST	SEGMENT
??_C@_0BG@ENNDDIIO@ScriptString_pLogAttr?$AA@ DB 'ScriptString_pLogAttr', 00H ; `string'
CONST	ENDS
;	COMDAT ??_C@_0BB@KPJJNIOI@ScriptStringFree?$AA@
CONST	SEGMENT
??_C@_0BB@KPJJNIOI@ScriptStringFree?$AA@ DB 'ScriptStringFree', 00H ; `string'
CONST	ENDS
;	COMDAT ??_C@_0BC@PBCEOCLL@ScriptStringXtoCP?$AA@
CONST	SEGMENT
??_C@_0BC@PBCEOCLL@ScriptStringXtoCP?$AA@ DB 'ScriptStringXtoCP', 00H ; `string'
CONST	ENDS
;	COMDAT ??_C@_0BC@NCOCHMDF@ScriptStringCPtoX?$AA@
CONST	SEGMENT
??_C@_0BC@NCOCHMDF@ScriptStringCPtoX?$AA@ DB 'ScriptStringCPtoX', 00H ; `string'
CONST	ENDS
;	COMDAT ??_C@_0BE@DPDJMHJ@ScriptStringAnalyse?$AA@
CONST	SEGMENT
??_C@_0BE@DPDJMHJ@ScriptStringAnalyse?$AA@ DB 'ScriptStringAnalyse', 00H ; `string'
CONST	ENDS
;	COMDAT ??_C@_0BN@GIMDAPPD@ScriptApplyDigitSubstitution?$AA@
CONST	SEGMENT
??_C@_0BN@GIMDAPPD@ScriptApplyDigitSubstitution?$AA@ DB 'ScriptApplyDigit'
	DB	'Substitution', 00H				; `string'
CONST	ENDS
;	COMDAT ??_C@_0L@NLJMGPDJ@?2usp10?4dll?$AA@
CONST	SEGMENT
??_C@_0L@NLJMGPDJ@?2usp10?4dll?$AA@ DB '\usp10.dll', 00H ; `string'
CONST	ENDS
;	COMDAT ??_C@_0P@PGCPFIAP@?5?5IMN_PRIVATE?6?$AA@
CONST	SEGMENT
??_C@_0P@PGCPFIAP@?5?5IMN_PRIVATE?6?$AA@ DB '  IMN_PRIVATE', 0aH, 00H ; `string'
CONST	ENDS
;	COMDAT ??_C@_0BG@DOILBMAC@?5?5IMN_CLOSECANDIDATE?6?$AA@
CONST	SEGMENT
??_C@_0BG@DOILBMAC@?5?5IMN_CLOSECANDIDATE?6?$AA@ DB '  IMN_CLOSECANDIDATE'
	DB	0aH, 00H					; `string'
CONST	ENDS
;	COMDAT ??_C@_03IKGEINEE@?$CFs?5?$AA@
CONST	SEGMENT
??_C@_03IKGEINEE@?$CFs?5?$AA@ DB '%s ', 00H		; `string'
CONST	ENDS
;	COMDAT ??_C@_0BF@BOLGLHEB@?5?5IMN_OPENCANDIDATE?6?$AA@
CONST	SEGMENT
??_C@_0BF@BOLGLHEB@?5?5IMN_OPENCANDIDATE?6?$AA@ DB '  IMN_OPENCANDIDATE', 0aH
	DB	00H						; `string'
CONST	ENDS
;	COMDAT ??_C@_0BH@NOIBGFFB@?5?5IMN_CHANGECANDIDATE?6?$AA@
CONST	SEGMENT
??_C@_0BH@NOIBGFFB@?5?5IMN_CHANGECANDIDATE?6?$AA@ DB '  IMN_CHANGECANDIDA'
	DB	'TE', 0aH, 00H				; `string'
CONST	ENDS
;	COMDAT ??_C@_0BF@BJFGBGLB@?5?5IMN_SETOPENSTATUS?6?$AA@
CONST	SEGMENT
??_C@_0BF@BJFGBGLB@?5?5IMN_SETOPENSTATUS?6?$AA@ DB '  IMN_SETOPENSTATUS', 0aH
	DB	00H						; `string'
CONST	ENDS
;	COMDAT ??_C@_0BJ@ONBLFOKJ@?5?5IMN_SETCONVERSIONMODE?6?$AA@
CONST	SEGMENT
??_C@_0BJ@ONBLFOKJ@?5?5IMN_SETCONVERSIONMODE?6?$AA@ DB '  IMN_SETCONVERSI'
	DB	'ONMODE', 0aH, 00H				; `string'
CONST	ENDS
;	COMDAT ??_C@_0BC@EAGJPPFG@WM_IME_NOTIFY?5?$CFu?6?$AA@
CONST	SEGMENT
??_C@_0BC@EAGJPPFG@WM_IME_NOTIFY?5?$CFu?6?$AA@ DB 'WM_IME_NOTIFY %u', 0aH
	DB	00H						; `string'
CONST	ENDS
;	COMDAT ??_C@_0BH@BGPMFOJC@WM_IME_ENDCOMPOSITION?6?$AA@
CONST	SEGMENT
??_C@_0BH@BGPMFOJC@WM_IME_ENDCOMPOSITION?6?$AA@ DB 'WM_IME_ENDCOMPOSITION'
	DB	0aH, 00H					; `string'
CONST	ENDS
;	COMDAT ??_C@_0P@NDDGOCDK@?5?5GCS_COMPSTR?6?$AA@
CONST	SEGMENT
??_C@_0P@NDDGOCDK@?5?5GCS_COMPSTR?6?$AA@ DB '  GCS_COMPSTR', 0aH, 00H ; `string'
CONST	ENDS
;	COMDAT ??_C@_0BB@CNOGDNAM@?5?5GCS_RESULTSTR?6?$AA@
CONST	SEGMENT
??_C@_0BB@CNOGDNAM@?5?5GCS_RESULTSTR?6?$AA@ DB '  GCS_RESULTSTR', 0aH, 00H ; `string'
CONST	ENDS
;	COMDAT ??_C@_1LA@NJBLLMDF@?$AAm?$AA_?$AAb?$AAI?$AAM?$AAE?$AAS?$AAt?$AAa?$AAt?$AAi?$AAc?$AAM?$AAs?$AAg?$AAP?$AAr?$AAo?$AAc?$AAC?$AAa?$AAl?$AAl?$AAe?$AAd?$AA?5?$AA?$CG?$AA?$CG?$AA?5?$AA?$CC?$AAT?$AAo@
CONST	SEGMENT
??_C@_1LA@NJBLLMDF@?$AAm?$AA_?$AAb?$AAI?$AAM?$AAE?$AAS?$AAt?$AAa?$AAt?$AAi?$AAc?$AAM?$AAs?$AAg?$AAP?$AAr?$AAo?$AAc?$AAC?$AAa?$AAl?$AAl?$AAe?$AAd?$AA?5?$AA?$CG?$AA?$CG?$AA?5?$AA?$CC?$AAT?$AAo@ DB 'm'
	DB	00H, '_', 00H, 'b', 00H, 'I', 00H, 'M', 00H, 'E', 00H, 'S', 00H
	DB	't', 00H, 'a', 00H, 't', 00H, 'i', 00H, 'c', 00H, 'M', 00H, 's'
	DB	00H, 'g', 00H, 'P', 00H, 'r', 00H, 'o', 00H, 'c', 00H, 'C', 00H
	DB	'a', 00H, 'l', 00H, 'l', 00H, 'e', 00H, 'd', 00H, ' ', 00H, '&'
	DB	00H, '&', 00H, ' ', 00H, '"', 00H, 'T', 00H, 'o', 00H, ' ', 00H
	DB	'f', 00H, 'i', 00H, 'x', 00H, ',', 00H, ' ', 00H, 'c', 00H, 'a'
	DB	00H, 'l', 00H, 'l', 00H, ' ', 00H, 'C', 00H, 'D', 00H, 'X', 00H
	DB	'U', 00H, 'T', 00H, 'D', 00H, 'i', 00H, 'a', 00H, 'l', 00H, 'o'
	DB	00H, 'g', 00H, 'R', 00H, 'e', 00H, 's', 00H, 'o', 00H, 'u', 00H
	DB	'r', 00H, 'c', 00H, 'e', 00H, 'M', 00H, 'a', 00H, 'n', 00H, 'a'
	DB	00H, 'g', 00H, 'e', 00H, 'r', 00H, ':', 00H, ':', 00H, 'M', 00H
	DB	's', 00H, 'g', 00H, 'P', 00H, 'r', 00H, 'o', 00H, 'c', 00H, '('
	DB	00H, ')', 00H, ' ', 00H, 'f', 00H, 'i', 00H, 'r', 00H, 's', 00H
	DB	't', 00H, '"', 00H, 00H, 00H			; `string'
CONST	ENDS
;	COMDAT ??_C@_0DJ@IHHHAIEO@To?5fix?0?5call?5CDXUTDialogResource@
CONST	SEGMENT
??_C@_0DJ@IHHHAIEO@To?5fix?0?5call?5CDXUTDialogResource@ DB 'To fix, call'
	DB	' CDXUTDialogResourceManager::MsgProc() first', 00H ; `string'
CONST	ENDS
;	COMDAT ?__LINE__Var@?1??MsgProc@CDXUTIMEEditBox@@UAE_NIIJ@Z@4JA
_DATA	SEGMENT
?__LINE__Var@?1??MsgProc@CDXUTIMEEditBox@@UAE_NIIJ@Z@4JA DD 018c5H ; `CDXUTIMEEditBox::MsgProc'::`2'::__LINE__Var
_DATA	ENDS
;	COMDAT ??_C@_0BE@CDAMKNCN@WM_IME_COMPOSITION?6?$AA@
CONST	SEGMENT
??_C@_0BE@CDAMKNCN@WM_IME_COMPOSITION?6?$AA@ DB 'WM_IME_COMPOSITION', 0aH
	DB	00H						; `string'
CONST	ENDS
;	COMDAT ??_C@_0BJ@NNLCHIHF@WM_IME_STARTCOMPOSITION?6?$AA@
CONST	SEGMENT
??_C@_0BJ@NNLCHIHF@WM_IME_STARTCOMPOSITION?6?$AA@ DB 'WM_IME_STARTCOMPOSI'
	DB	'TION', 0aH, 00H				; `string'
CONST	ENDS
;	COMDAT ??_C@_0BD@BNFMLOBE@WM_IME_SETCONTEXT?6?$AA@
CONST	SEGMENT
??_C@_0BD@BNFMLOBE@WM_IME_SETCONTEXT?6?$AA@ DB 'WM_IME_SETCONTEXT', 0aH, 00H ; `string'
CONST	ENDS
;	COMDAT ??_C@_0BE@GLEPKDNP@WM_INPUTLANGCHANGE?6?$AA@
CONST	SEGMENT
??_C@_0BE@GLEPKDNP@WM_INPUTLANGCHANGE?6?$AA@ DB 'WM_INPUTLANGCHANGE', 0aH
	DB	00H						; `string'
CONST	ENDS
;	COMDAT ??_C@_0BB@KFOMJFEN@Keyboard?5Mapping?$AA@
CONST	SEGMENT
??_C@_0BB@KFOMJFEN@Keyboard?5Mapping?$AA@ DB 'Keyboard Mapping', 00H ; `string'
CONST	ENDS
;	COMDAT ??_C@_08LMKCILHO@TINTLGNT?$AA@
CONST	SEGMENT
??_C@_08LMKCILHO@TINTLGNT?$AA@ DB 'TINTLGNT', 00H	; `string'
CONST	ENDS
;	COMDAT ??_C@_07DEJAPC@MSTCIPH?$AA@
CONST	SEGMENT
??_C@_07DEJAPC@MSTCIPH?$AA@ DB 'MSTCIPH', 00H		; `string'
CONST	ENDS
;	COMDAT ??_C@_0CL@PCFEMFCF@software?2microsoft?2windows?2curre@
CONST	SEGMENT
??_C@_0CL@PCFEMFCF@software?2microsoft?2windows?2curre@ DB 'software\micr'
	DB	'osoft\windows\currentversion\', 00H		; `string'
CONST	ENDS
;	COMDAT ??_C@_0DG@PFMNNKP@CDXUTIMEEditBox?3?3FinalizeString?3@
CONST	SEGMENT
??_C@_0DG@PFMNNKP@CDXUTIMEEditBox?3?3FinalizeString?3@ DB 'CDXUTIMEEditBo'
	DB	'x::FinalizeString: Reentrant detected!', 0aH, 00H ; `string'
CONST	ENDS
;	COMDAT ??_C@_1EI@PNFNGNLA@?$AAi?$AAN?$AAe?$AAw?$AAS?$AAt?$AAr?$AAL?$AAe?$AAn?$AA?5?$AA?$DN?$AA?$DN?$AA?5?$AA0?$AA?5?$AA?$HM?$AA?$HM?$AA?5?$AAi?$AAN?$AAe?$AAw?$AAS?$AAt?$AAr?$AAL?$AAe?$AAn?$AA?5?$AA?$DO?$AA?$DN@
CONST	SEGMENT
??_C@_1EI@PNFNGNLA@?$AAi?$AAN?$AAe?$AAw?$AAS?$AAt?$AAr?$AAL?$AAe?$AAn?$AA?5?$AA?$DN?$AA?$DN?$AA?5?$AA0?$AA?5?$AA?$HM?$AA?$HM?$AA?5?$AAi?$AAN?$AAe?$AAw?$AAS?$AAt?$AAr?$AAL?$AAe?$AAn?$AA?5?$AA?$DO?$AA?$DN@ DB 'i'
	DB	00H, 'N', 00H, 'e', 00H, 'w', 00H, 'S', 00H, 't', 00H, 'r', 00H
	DB	'L', 00H, 'e', 00H, 'n', 00H, ' ', 00H, '=', 00H, '=', 00H, ' '
	DB	00H, '0', 00H, ' ', 00H, '|', 00H, '|', 00H, ' ', 00H, 'i', 00H
	DB	'N', 00H, 'e', 00H, 'w', 00H, 'S', 00H, 't', 00H, 'r', 00H, 'L'
	DB	00H, 'e', 00H, 'n', 00H, ' ', 00H, '>', 00H, '=', 00H, ' ', 00H
	DB	'c', 00H, 'c', 00H, 00H, 00H			; `string'
CONST	ENDS
;	COMDAT ?__LINE__Var@?1??TruncateCompString@CDXUTIMEEditBox@@IAEX_NH@Z@4JA
_DATA	SEGMENT
?__LINE__Var@?1??TruncateCompString@CDXUTIMEEditBox@@IAEX_NH@Z@4JA DD 016d2H ; `CDXUTIMEEditBox::TruncateCompString'::`2'::__LINE__Var
_DATA	ENDS
;	COMDAT ??_C@_0BC@MEELNKEC@ShowReadingWindow?$AA@
CONST	SEGMENT
??_C@_0BC@MEELNKEC@ShowReadingWindow?$AA@ DB 'ShowReadingWindow', 00H ; `string'
CONST	ENDS
;	COMDAT ??_C@_0BB@EOIFCLLM@GetReadingString?$AA@
CONST	SEGMENT
??_C@_0BB@EOIFCLLM@GetReadingString?$AA@ DB 'GetReadingString', 00H ; `string'
CONST	ENDS
;	COMDAT ??_C@_01KICIPPFI@?2?$AA@
CONST	SEGMENT
??_C@_01KICIPPFI@?2?$AA@ DB '\', 00H			; `string'
CONST	ENDS
;	COMDAT ??_C@_0N@ONOBNHOE@MSSCIPYA?4IME?$AA@
CONST	SEGMENT
??_C@_0N@ONOBNHOE@MSSCIPYA?4IME?$AA@ DB 'MSSCIPYA.IME', 00H ; `string'
CONST	ENDS
;	COMDAT ??_C@_0N@JFHOELJF@PINTLGNT?4IME?$AA@
CONST	SEGMENT
??_C@_0N@JFHOELJF@PINTLGNT?4IME?$AA@ DB 'PINTLGNT.IME', 00H ; `string'
CONST	ENDS
;	COMDAT ??_C@_0N@FHDFFBN@MSTCIPHA?4IME?$AA@
CONST	SEGMENT
??_C@_0N@FHDFFBN@MSTCIPHA?4IME?$AA@ DB 'MSTCIPHA.IME', 00H ; `string'
CONST	ENDS
;	COMDAT ??_C@_0N@JMLDIBIB@CINTLGNT?4IME?$AA@
CONST	SEGMENT
??_C@_0N@JMLDIBIB@CINTLGNT?4IME?$AA@ DB 'CINTLGNT.IME', 00H ; `string'
CONST	ENDS
;	COMDAT ??_C@_0N@FFMHCBAD@TINTLGNT?4IME?$AA@
CONST	SEGMENT
??_C@_0N@FFMHCBAD@TINTLGNT?4IME?$AA@ DB 'TINTLGNT.IME', 00H ; `string'
CONST	ENDS
;	COMDAT ??_C@_05MBDKKHHK@?$CF?44f?5?$AA@
CONST	SEGMENT
??_C@_05MBDKKHHK@?$CF?44f?5?$AA@ DB '%.4f ', 00H	; `string'
CONST	ENDS
;	COMDAT ??_C@_1BA@LIOJNBNF@?$AAs?$AAt?$AAr?$AAD?$AAe?$AAs?$AAt?$AA?$AA@
CONST	SEGMENT
??_C@_1BA@LIOJNBNF@?$AAs?$AAt?$AAr?$AAD?$AAe?$AAs?$AAt?$AA?$AA@ DB 's', 00H
	DB	't', 00H, 'r', 00H, 'D', 00H, 'e', 00H, 's', 00H, 't', 00H, 00H
	DB	00H						; `string'
CONST	ENDS
;	COMDAT ?__LINE__Var@?1??GetTextCopy@CDXUTEditBox@@QAEJPADI@Z@4JA
_DATA	SEGMENT
?__LINE__Var@?1??GetTextCopy@CDXUTEditBox@@QAEJPADI@Z@4JA DD 012d5H ; `CDXUTEditBox::GetTextCopy'::`2'::__LINE__Var
_DATA	ENDS
;	COMDAT ??_C@_1CA@PMHPGCBD@?$AAw?$AAs?$AAz?$AAT?$AAe?$AAx?$AAt?$AA?5?$AA?$CB?$AA?$DN?$AA?5?$AAN?$AAU?$AAL?$AAL?$AA?$AA@
CONST	SEGMENT
??_C@_1CA@PMHPGCBD@?$AAw?$AAs?$AAz?$AAT?$AAe?$AAx?$AAt?$AA?5?$AA?$CB?$AA?$DN?$AA?5?$AAN?$AAU?$AAL?$AAL?$AA?$AA@ DB 'w'
	DB	00H, 's', 00H, 'z', 00H, 'T', 00H, 'e', 00H, 'x', 00H, 't', 00H
	DB	' ', 00H, '!', 00H, '=', 00H, ' ', 00H, 'N', 00H, 'U', 00H, 'L'
	DB	00H, 'L', 00H, 00H, 00H			; `string'
CONST	ENDS
;	COMDAT ?__LINE__Var@?1??SetText@CDXUTEditBox@@QAEXPBD_N@Z@4JA
_DATA	SEGMENT
?__LINE__Var@?1??SetText@CDXUTEditBox@@QAEXPBD_N@Z@4JA DD 012c8H ; `CDXUTEditBox::SetText'::`2'::__LINE__Var
_DATA	ENDS
;	COMDAT ??_C@_1FE@INHINDLN@?$AAn?$AAC?$AAP?$AA?5?$AA?$DO?$AA?$DN?$AA?5?$AA0?$AA?5?$AA?$CG?$AA?$CG?$AA?5?$AAn?$AAC?$AAP?$AA?5?$AA?$DM?$AA?$DN?$AA?5?$AAm?$AA_?$AAB?$AAu?$AAf?$AAf?$AAe?$AAr?$AA?4?$AAG?$AAe?$AAt?$AAT@
CONST	SEGMENT
??_C@_1FE@INHINDLN@?$AAn?$AAC?$AAP?$AA?5?$AA?$DO?$AA?$DN?$AA?5?$AA0?$AA?5?$AA?$CG?$AA?$CG?$AA?5?$AAn?$AAC?$AAP?$AA?5?$AA?$DM?$AA?$DN?$AA?5?$AAm?$AA_?$AAB?$AAu?$AAf?$AAf?$AAe?$AAr?$AA?4?$AAG?$AAe?$AAt?$AAT@ DB 'n'
	DB	00H, 'C', 00H, 'P', 00H, ' ', 00H, '>', 00H, '=', 00H, ' ', 00H
	DB	'0', 00H, ' ', 00H, '&', 00H, '&', 00H, ' ', 00H, 'n', 00H, 'C'
	DB	00H, 'P', 00H, ' ', 00H, '<', 00H, '=', 00H, ' ', 00H, 'm', 00H
	DB	'_', 00H, 'B', 00H, 'u', 00H, 'f', 00H, 'f', 00H, 'e', 00H, 'r'
	DB	00H, '.', 00H, 'G', 00H, 'e', 00H, 't', 00H, 'T', 00H, 'e', 00H
	DB	'x', 00H, 't', 00H, 'S', 00H, 'i', 00H, 'z', 00H, 'e', 00H, '('
	DB	00H, ')', 00H, 00H, 00H			; `string'
CONST	ENDS
;	COMDAT ?__LINE__Var@?1??PlaceCaret@CDXUTEditBox@@IAEXH@Z@4JA
_DATA	SEGMENT
?__LINE__Var@?1??PlaceCaret@CDXUTEditBox@@IAEXH@Z@4JA DD 0128eH ; `CDXUTEditBox::PlaceCaret'::`2'::__LINE__Var
_DATA	ENDS
;	COMDAT ??_C@_0BG@JAGODAII@CGrowableArray?3?3GetAt?$AA@
CONST	SEGMENT
??_C@_0BG@JAGODAII@CGrowableArray?3?3GetAt?$AA@ DB 'CGrowableArray::GetAt'
	DB	00H						; `string'
CONST	ENDS
;	COMDAT ?__LINE__Var@?1??GetItemData@CDXUTComboBox@@QAEPAXPBD@Z@4JA
_DATA	SEGMENT
?__LINE__Var@?1??GetItemData@CDXUTComboBox@@QAEPAXPBD@Z@4JA DD 0d42H ; `CDXUTComboBox::GetItemData'::`2'::__LINE__Var
_DATA	ENDS
;	COMDAT ??_C@_03CLCAEGCJ@new?$AA@
CONST	SEGMENT
??_C@_03CLCAEGCJ@new?$AA@ DB 'new', 00H			; `string'
CONST	ENDS
;	COMDAT ?__LINE__Var@?1??AddItem@CDXUTComboBox@@QAEJPBDPAX@Z@4JA
_DATA	SEGMENT
?__LINE__Var@?1??AddItem@CDXUTComboBox@@QAEJPBDPAX@Z@4JA DD 0cd1H ; `CDXUTComboBox::AddItem'::`2'::__LINE__Var
_DATA	ENDS
;	COMDAT ??_C@_0BJ@OLOOAJCD@CDXUTButton?3?3HandleMouse?$AA@
CONST	SEGMENT
??_C@_0BJ@OLOOAJCD@CDXUTButton?3?3HandleMouse?$AA@ DB 'CDXUTButton::Handl'
	DB	'eMouse', 00H				; `string'
CONST	ENDS
;	COMDAT ??_C@_05MPFIAJAP@Arial?$AA@
CONST	SEGMENT
??_C@_05MPFIAJAP@Arial?$AA@ DB 'Arial', 00H		; `string'
CONST	ENDS
;	COMDAT ??_C@_0M@GAAOCDFL@dxutgui?4png?$AA@
CONST	SEGMENT
??_C@_0M@GAAOCDFL@dxutgui?4png?$AA@ DB 'dxutgui.png', 00H ; `string'
CONST	ENDS
;	COMDAT ??_C@_0BM@CBAPLCDC@D3DXCreateTextureFromFileEx?$AA@
CONST	SEGMENT
??_C@_0BM@CBAPLCDC@D3DXCreateTextureFromFileEx?$AA@ DB 'D3DXCreateTexture'
	DB	'FromFileEx', 00H				; `string'
CONST	ENDS
;	COMDAT ??_C@_0BK@NOJEPBKH@DXUTFindDXSDKMediaFileCch?$AA@
CONST	SEGMENT
??_C@_0BK@NOJEPBKH@DXUTFindDXSDKMediaFileCch?$AA@ DB 'DXUTFindDXSDKMediaF'
	DB	'ileCch', 00H				; `string'
CONST	ENDS
;	COMDAT ?__LINE__Var@?1??CreateTexture@CDXUTDialogResourceManager@@QAEJI@Z@4JA
_DATA	SEGMENT
?__LINE__Var@?1??CreateTexture@CDXUTDialogResourceManager@@QAEJI@Z@4JA DD 06eaH ; `CDXUTDialogResourceManager::CreateTexture'::`2'::__LINE__Var
_DATA	ENDS
;	COMDAT ??_C@_0DH@CFMKICLK@CDXUTDialogResourceManager?3?3Crea@
CONST	SEGMENT
??_C@_0DH@CFMKICLK@CDXUTDialogResourceManager?3?3Crea@ DB 'CDXUTDialogRes'
	DB	'ourceManager::CreateTexture(BAD_TEXFILE)', 00H ; `string'
CONST	ENDS
;	COMDAT ??_C@_0DO@CFELJLCL@CDXUTDialog?3?5Multiple?5dialogs?5ar@
CONST	SEGMENT
??_C@_0DO@CFELJLCL@CDXUTDialog?3?5Multiple?5dialogs?5ar@ DB 'CDXUTDialog:'
	DB	' Multiple dialogs are improperly chained together', 00H ; `string'
CONST	ENDS
;	COMDAT ?__LINE__Var@?1??OnCycleFocus@CDXUTDialog@@AAE_N_N@Z@4JA
_DATA	SEGMENT
?__LINE__Var@?1??OnCycleFocus@CDXUTDialog@@AAE_N_N@Z@4JA DD 06b4H ; `CDXUTDialog::OnCycleFocus'::`2'::__LINE__Var
_DATA	ENDS
;	COMDAT ??_C@_0BE@PJMOKIGM@CGrowableArray?3?3Add?$AA@
CONST	SEGMENT
??_C@_0BE@PJMOKIGM@CGrowableArray?3?3Add?$AA@ DB 'CGrowableArray::Add', 00H ; `string'
CONST	ENDS
;	COMDAT ??_C@_0BJ@NMGKIFBC@CDXUTDialog?3?3InitControl?$AA@
CONST	SEGMENT
??_C@_0BJ@NMGKIFBC@CDXUTDialog?3?3InitControl?$AA@ DB 'CDXUTDialog::InitC'
	DB	'ontrol', 00H				; `string'
CONST	ENDS
;	COMDAT ?__LINE__Var@?1??AddControl@CDXUTDialog@@QAEJPAVCDXUTControl@@@Z@4JA
_DATA	SEGMENT
?__LINE__Var@?1??AddControl@CDXUTDialog@@QAEJPAVCDXUTControl@@@Z@4JA DD 051dH ; `CDXUTDialog::AddControl'::`2'::__LINE__Var
_DATA	ENDS
;	COMDAT ??_C@_0BM@EKOPLJBN@CDXUTDialog?3?3MsgProc?$CIMOUSE?$CJ?$AA@
CONST	SEGMENT
??_C@_0BM@EKOPLJBN@CDXUTDialog?3?3MsgProc?$CIMOUSE?$CJ?$AA@ DB 'CDXUTDial'
	DB	'og::MsgProc(MOUSE)', 00H			; `string'
CONST	ENDS
;	COMDAT ?__LINE__Var@?1??SetTexture@CDXUTDialog@@QAEJIPBD@Z@4JA
_DATA	SEGMENT
?__LINE__Var@?1??SetTexture@CDXUTDialog@@QAEJIPBD@Z@4JA DD 025eH ; `CDXUTDialog::SetTexture'::`2'::__LINE__Var
_DATA	ENDS
;	COMDAT ?__LINE__Var@?1??SetFont@CDXUTDialog@@QAEJIPBDJJ@Z@4JA
_DATA	SEGMENT
?__LINE__Var@?1??SetFont@CDXUTDialog@@QAEJIPBDJJ@Z@4JA DD 021eH ; `CDXUTDialog::SetFont'::`2'::__LINE__Var
_DATA	ENDS
;	COMDAT ??_C@_0N@EHHLLFIF@?5?$CIMinimized?$CJ?$AA@
CONST	SEGMENT
??_C@_0N@EHHLLFIF@?5?$CIMinimized?$CJ?$AA@ DB ' (Minimized)', 00H ; `string'
CONST	ENDS
;	COMDAT ??_C@_1BCM@NAODPGLM@?$AAm?$AA_?$AAp?$AAM?$AAa?$AAn?$AAa?$AAg?$AAe?$AAr?$AA?9?$AA?$DO?$AAG?$AAe?$AAt?$AAD?$AA3?$AAD?$AAD?$AAe?$AAv?$AAi?$AAc?$AAe?$AA?$CI?$AA?$CJ?$AA?5?$AA?$CG?$AA?$CG?$AA?5?$AAm?$AA_@
CONST	SEGMENT
??_C@_1BCM@NAODPGLM@?$AAm?$AA_?$AAp?$AAM?$AAa?$AAn?$AAa?$AAg?$AAe?$AAr?$AA?9?$AA?$DO?$AAG?$AAe?$AAt?$AAD?$AA3?$AAD?$AAD?$AAe?$AAv?$AAi?$AAc?$AAe?$AA?$CI?$AA?$CJ?$AA?5?$AA?$CG?$AA?$CG?$AA?5?$AAm?$AA_@ DB 'm'
	DB	00H, '_', 00H, 'p', 00H, 'M', 00H, 'a', 00H, 'n', 00H, 'a', 00H
	DB	'g', 00H, 'e', 00H, 'r', 00H, '-', 00H, '>', 00H, 'G', 00H, 'e'
	DB	00H, 't', 00H, 'D', 00H, '3', 00H, 'D', 00H, 'D', 00H, 'e', 00H
	DB	'v', 00H, 'i', 00H, 'c', 00H, 'e', 00H, '(', 00H, ')', 00H, ' '
	DB	00H, '&', 00H, '&', 00H, ' ', 00H, 'm', 00H, '_', 00H, 'p', 00H
	DB	'M', 00H, 'a', 00H, 'n', 00H, 'a', 00H, 'g', 00H, 'e', 00H, 'r'
	DB	00H, '-', 00H, '>', 00H, 'm', 00H, '_', 00H, 'p', 00H, 'S', 00H
	DB	't', 00H, 'a', 00H, 't', 00H, 'e', 00H, 'B', 00H, 'l', 00H, 'o'
	DB	00H, 'c', 00H, 'k', 00H, ' ', 00H, '&', 00H, '&', 00H, ' ', 00H
	DB	'"', 00H, 'T', 00H, 'o', 00H, ' ', 00H, 'f', 00H, 'i', 00H, 'x'
	DB	00H, ' ', 00H, 'h', 00H, 'o', 00H, 'o', 00H, 'k', 00H, ' ', 00H
	DB	'u', 00H, 'p', 00H, ' ', 00H, 'C', 00H, 'D', 00H, 'X', 00H, 'U'
	DB	00H, 'T', 00H, 'D', 00H, 'i', 00H, 'a', 00H, 'l', 00H, 'o', 00H
	DB	'g', 00H, 'R', 00H, 'e', 00H, 's', 00H, 'o', 00H, 'u', 00H, 'r'
	DB	00H, 'c', 00H, 'e', 00H, 'M', 00H, 'a', 00H, 'n', 00H, 'a', 00H
	DB	'g', 00H, 'e', 00H, 'r', 00H, ' ', 00H, 't', 00H, 'o', 00H, ' '
	DB	00H, 'd', 00H, 'e', 00H, 'v', 00H, 'i', 00H, 'c', 00H, 'e', 00H
	DB	' ', 00H, 'c', 00H, 'a', 00H, 'l', 00H, 'l', 00H, 'b', 00H, 'a'
	DB	00H, 'c', 00H, 'k', 00H, 's', 00H, '.', 00H, ' ', 00H, ' ', 00H
	DB	'S', 00H, 'e', 00H, 'e', 00H, ' ', 00H, 'c', 00H, 'o', 00H, 'm'
	DB	00H, 'm', 00H, 'e', 00H, 'n', 00H, 't', 00H, 's', 00H, ' ', 00H
	DB	'f', 00H, 'o', 00H, 'r', 00H, ' ', 00H, 'd', 00H, 'e', 00H, 't'
	DB	00H, 'a', 00H, 'i', 00H, 'l', 00H, 's', 00H, '"', 00H, 00H, 00H ; `string'
CONST	ENDS
;	COMDAT ??_C@_0FJ@OFKGNHOL@To?5fix?5hook?5up?5CDXUTDialogResour@
CONST	SEGMENT
??_C@_0FJ@OFKGNHOL@To?5fix?5hook?5up?5CDXUTDialogResour@ DB 'To fix hook '
	DB	'up CDXUTDialogResourceManager to device callbacks.  See comme'
	DB	'nts for details', 00H			; `string'
CONST	ENDS
;	COMDAT ?__LINE__Var@?1??OnRender@CDXUTDialog@@QAEJM@Z@4JA
_DATA	SEGMENT
?__LINE__Var@?1??OnRender@CDXUTDialog@@QAEJM@Z@4JA DD 0179H ; `CDXUTDialog::OnRender'::`2'::__LINE__Var
_DATA	ENDS
;	COMDAT ??_C@_0CO@PNKEDBKA@z?3?2sampsrc?202xu1?2saco?2d3d9?2commo@
CONST	SEGMENT
??_C@_0CO@PNKEDBKA@z?3?2sampsrc?202xu1?2saco?2d3d9?2commo@ DB 'z:\sampsrc'
	DB	'\02xu1\saco\d3d9\common\dxutgui.cpp', 00H	; `string'
CONST	ENDS
;	COMDAT ??_C@_0BB@OBNOFHEC@D3DXCreateSprite?$AA@
CONST	SEGMENT
??_C@_0BB@OBNOFHEC@D3DXCreateSprite?$AA@ DB 'D3DXCreateSprite', 00H ; `string'
CONST	ENDS
;	COMDAT ?__LINE__Var@?1??OnCreateDevice@CDXUTDialogResourceManager@@QAEJPAUIDirect3DDevice9@@@Z@4JA
_DATA	SEGMENT
?__LINE__Var@?1??OnCreateDevice@CDXUTDialogResourceManager@@QAEJPAUIDirect3DDevice9@@@Z@4JA DD 0f1H ; `CDXUTDialogResourceManager::OnCreateDevice'::`2'::__LINE__Var
_DATA	ENDS
;	COMDAT ??_C@_1LE@JLCOLCJL@?$AAm?$AA_?$AAp?$AAM?$AAa?$AAn?$AAa?$AAg?$AAe?$AAr?$AA?5?$AA?$CB?$AA?$DN?$AA?5?$AAN?$AAU?$AAL?$AAL?$AA?5?$AA?$CG?$AA?$CG?$AA?5?$AA?$CC?$AAT?$AAo?$AA?5?$AAf?$AAi?$AAx?$AA?5?$AAc?$AAa@
CONST	SEGMENT
??_C@_1LE@JLCOLCJL@?$AAm?$AA_?$AAp?$AAM?$AAa?$AAn?$AAa?$AAg?$AAe?$AAr?$AA?5?$AA?$CB?$AA?$DN?$AA?5?$AAN?$AAU?$AAL?$AAL?$AA?5?$AA?$CG?$AA?$CG?$AA?5?$AA?$CC?$AAT?$AAo?$AA?5?$AAf?$AAi?$AAx?$AA?5?$AAc?$AAa@ DB 'm'
	DB	00H, '_', 00H, 'p', 00H, 'M', 00H, 'a', 00H, 'n', 00H, 'a', 00H
	DB	'g', 00H, 'e', 00H, 'r', 00H, ' ', 00H, '!', 00H, '=', 00H, ' '
	DB	00H, 'N', 00H, 'U', 00H, 'L', 00H, 'L', 00H, ' ', 00H, '&', 00H
	DB	'&', 00H, ' ', 00H, '"', 00H, 'T', 00H, 'o', 00H, ' ', 00H, 'f'
	DB	00H, 'i', 00H, 'x', 00H, ' ', 00H, 'c', 00H, 'a', 00H, 'l', 00H
	DB	'l', 00H, ' ', 00H, 'C', 00H, 'D', 00H, 'X', 00H, 'U', 00H, 'T'
	DB	00H, 'D', 00H, 'i', 00H, 'a', 00H, 'l', 00H, 'o', 00H, 'g', 00H
	DB	':', 00H, ':', 00H, 'I', 00H, 'n', 00H, 'i', 00H, 't', 00H, '('
	DB	00H, ')', 00H, ' ', 00H, 'f', 00H, 'i', 00H, 'r', 00H, 's', 00H
	DB	't', 00H, '.', 00H, ' ', 00H, ' ', 00H, 'S', 00H, 'e', 00H, 'e'
	DB	00H, ' ', 00H, 'c', 00H, 'o', 00H, 'm', 00H, 'm', 00H, 'e', 00H
	DB	'n', 00H, 't', 00H, 's', 00H, ' ', 00H, 'f', 00H, 'o', 00H, 'r'
	DB	00H, ' ', 00H, 'd', 00H, 'e', 00H, 't', 00H, 'a', 00H, 'i', 00H
	DB	'l', 00H, 's', 00H, '.', 00H, '"', 00H, 00H, 00H ; `string'
CONST	ENDS
;	COMDAT ??_C@_1FM@FMACGJEA@?$AAz?$AA?3?$AA?2?$AAs?$AAa?$AAm?$AAp?$AAs?$AAr?$AAc?$AA?2?$AA0?$AA2?$AAx?$AAu?$AA1?$AA?2?$AAs?$AAa?$AAc?$AAo?$AA?2?$AAd?$AA3?$AAd?$AA9?$AA?2?$AAc?$AAo?$AAm?$AAm?$AAo@
CONST	SEGMENT
??_C@_1FM@FMACGJEA@?$AAz?$AA?3?$AA?2?$AAs?$AAa?$AAm?$AAp?$AAs?$AAr?$AAc?$AA?2?$AA0?$AA2?$AAx?$AAu?$AA1?$AA?2?$AAs?$AAa?$AAc?$AAo?$AA?2?$AAd?$AA3?$AAd?$AA9?$AA?2?$AAc?$AAo?$AAm?$AAm?$AAo@ DB 'z'
	DB	00H, ':', 00H, '\', 00H, 's', 00H, 'a', 00H, 'm', 00H, 'p', 00H
	DB	's', 00H, 'r', 00H, 'c', 00H, '\', 00H, '0', 00H, '2', 00H, 'x'
	DB	00H, 'u', 00H, '1', 00H, '\', 00H, 's', 00H, 'a', 00H, 'c', 00H
	DB	'o', 00H, '\', 00H, 'd', 00H, '3', 00H, 'd', 00H, '9', 00H, '\'
	DB	00H, 'c', 00H, 'o', 00H, 'm', 00H, 'm', 00H, 'o', 00H, 'n', 00H
	DB	'\', 00H, 'd', 00H, 'x', 00H, 'u', 00H, 't', 00H, 'g', 00H, 'u'
	DB	00H, 'i', 00H, '.', 00H, 'c', 00H, 'p', 00H, 'p', 00H, 00H, 00H ; `string'
CONST	ENDS
;	COMDAT ??_C@_0EC@INLDDICL@To?5fix?5call?5CDXUTDialog?3?3Init?$CI?$CJ?5@
CONST	SEGMENT
??_C@_0EC@INLDDICL@To?5fix?5call?5CDXUTDialog?3?3Init?$CI?$CJ?5@ DB 'To f'
	DB	'ix call CDXUTDialog::Init() first.  See comments for details.'
	DB	00H						; `string'
CONST	ENDS
;	COMDAT ?__LINE__Var@?1??SetCallback@CDXUTDialog@@QAEXP6GXIHPAVCDXUTControl@@PAX@Z1@Z@4JA
_DATA	SEGMENT
?__LINE__Var@?1??SetCallback@CDXUTDialog@@QAEXP6GXIHPAVCDXUTControl@@PAX@Z1@Z@4JA DD 094H ; `CDXUTDialog::SetCallback'::`2'::__LINE__Var
_DATA	ENDS
;	COMDAT ??_7CDXUTIMEEditBox@@6B@
CONST	SEGMENT
??_7CDXUTIMEEditBox@@6B@ DD FLAT:??_R4CDXUTIMEEditBox@@6B@ ; CDXUTIMEEditBox::`vftable'
	DD	FLAT:??_ECDXUTIMEEditBox@@UAEPAXI@Z
	DD	FLAT:?OnInit@CDXUTControl@@UAEJXZ
	DD	FLAT:?Refresh@CDXUTControl@@UAEXXZ
	DD	FLAT:?Render@CDXUTIMEEditBox@@UAEXPAUIDirect3DDevice9@@M@Z
	DD	FLAT:?MsgProc@CDXUTIMEEditBox@@UAE_NIIJ@Z
	DD	FLAT:?HandleKeyboard@CDXUTEditBox@@UAE_NIIJ@Z
	DD	FLAT:?HandleMouse@CDXUTIMEEditBox@@UAE_NIUtagPOINT@@IJ@Z
	DD	FLAT:?CanHaveFocus@CDXUTEditBox@@UAE_NXZ
	DD	FLAT:?OnFocusIn@CDXUTIMEEditBox@@UAEXXZ
	DD	FLAT:?OnFocusOut@CDXUTIMEEditBox@@UAEXXZ
	DD	FLAT:?OnMouseEnter@CDXUTControl@@UAEXXZ
	DD	FLAT:?OnMouseLeave@CDXUTControl@@UAEXXZ
	DD	FLAT:?OnHotkey@CDXUTControl@@UAEXXZ
	DD	FLAT:?ContainsPoint@CDXUTControl@@UAEHUtagPOINT@@@Z
	DD	FLAT:?SetEnabled@CDXUTControl@@UAEX_N@Z
	DD	FLAT:?GetEnabled@CDXUTControl@@UAE_NXZ
	DD	FLAT:?SetVisible@CDXUTControl@@UAEX_N@Z
	DD	FLAT:?GetVisible@CDXUTControl@@UAE_NXZ
	DD	FLAT:?SetTextColor@CDXUTEditBox@@UAEXK@Z
	DD	FLAT:?UpdateRects@CDXUTIMEEditBox@@UAEXXZ
	DD	FLAT:?RenderCandidateReadingWindow@CDXUTIMEEditBox@@UAEXPAUIDirect3DDevice9@@M_N@Z
	DD	FLAT:?RenderComposition@CDXUTIMEEditBox@@UAEXPAUIDirect3DDevice9@@M@Z
	DD	FLAT:?RenderIndicator@CDXUTIMEEditBox@@UAEXPAUIDirect3DDevice9@@M@Z
CONST	ENDS
;	COMDAT ??_7CDXUTEditBox@@6B@
CONST	SEGMENT
??_7CDXUTEditBox@@6B@ DD FLAT:??_R4CDXUTEditBox@@6B@	; CDXUTEditBox::`vftable'
	DD	FLAT:??_ECDXUTEditBox@@UAEPAXI@Z
	DD	FLAT:?OnInit@CDXUTControl@@UAEJXZ
	DD	FLAT:?Refresh@CDXUTControl@@UAEXXZ
	DD	FLAT:?Render@CDXUTEditBox@@UAEXPAUIDirect3DDevice9@@M@Z
	DD	FLAT:?MsgProc@CDXUTEditBox@@UAE_NIIJ@Z
	DD	FLAT:?HandleKeyboard@CDXUTEditBox@@UAE_NIIJ@Z
	DD	FLAT:?HandleMouse@CDXUTEditBox@@UAE_NIUtagPOINT@@IJ@Z
	DD	FLAT:?CanHaveFocus@CDXUTEditBox@@UAE_NXZ
	DD	FLAT:?OnFocusIn@CDXUTEditBox@@UAEXXZ
	DD	FLAT:?OnFocusOut@CDXUTControl@@UAEXXZ
	DD	FLAT:?OnMouseEnter@CDXUTControl@@UAEXXZ
	DD	FLAT:?OnMouseLeave@CDXUTControl@@UAEXXZ
	DD	FLAT:?OnHotkey@CDXUTControl@@UAEXXZ
	DD	FLAT:?ContainsPoint@CDXUTControl@@UAEHUtagPOINT@@@Z
	DD	FLAT:?SetEnabled@CDXUTControl@@UAEX_N@Z
	DD	FLAT:?GetEnabled@CDXUTControl@@UAE_NXZ
	DD	FLAT:?SetVisible@CDXUTControl@@UAEX_N@Z
	DD	FLAT:?GetVisible@CDXUTControl@@UAE_NXZ
	DD	FLAT:?SetTextColor@CDXUTEditBox@@UAEXK@Z
	DD	FLAT:?UpdateRects@CDXUTEditBox@@UAEXXZ
CONST	ENDS
;	COMDAT ??_7CDXUTSlider@@6B@
CONST	SEGMENT
??_7CDXUTSlider@@6B@ DD FLAT:??_R4CDXUTSlider@@6B@	; CDXUTSlider::`vftable'
	DD	FLAT:??_ECDXUTSlider@@UAEPAXI@Z
	DD	FLAT:?OnInit@CDXUTControl@@UAEJXZ
	DD	FLAT:?Refresh@CDXUTControl@@UAEXXZ
	DD	FLAT:?Render@CDXUTSlider@@UAEXPAUIDirect3DDevice9@@M@Z
	DD	FLAT:?MsgProc@CDXUTControl@@UAE_NIIJ@Z
	DD	FLAT:?HandleKeyboard@CDXUTSlider@@UAE_NIIJ@Z
	DD	FLAT:?HandleMouse@CDXUTSlider@@UAE_NIUtagPOINT@@IJ@Z
	DD	FLAT:?CanHaveFocus@CDXUTSlider@@UAE_NXZ
	DD	FLAT:?OnFocusIn@CDXUTControl@@UAEXXZ
	DD	FLAT:?OnFocusOut@CDXUTControl@@UAEXXZ
	DD	FLAT:?OnMouseEnter@CDXUTControl@@UAEXXZ
	DD	FLAT:?OnMouseLeave@CDXUTControl@@UAEXXZ
	DD	FLAT:?OnHotkey@CDXUTControl@@UAEXXZ
	DD	FLAT:?ContainsPoint@CDXUTSlider@@UAEHUtagPOINT@@@Z
	DD	FLAT:?SetEnabled@CDXUTControl@@UAEX_N@Z
	DD	FLAT:?GetEnabled@CDXUTControl@@UAE_NXZ
	DD	FLAT:?SetVisible@CDXUTControl@@UAEX_N@Z
	DD	FLAT:?GetVisible@CDXUTControl@@UAE_NXZ
	DD	FLAT:?SetTextColor@CDXUTControl@@UAEXK@Z
	DD	FLAT:?UpdateRects@CDXUTSlider@@UAEXXZ
CONST	ENDS
;	COMDAT ??_7CDXUTComboBox@@6B@
CONST	SEGMENT
??_7CDXUTComboBox@@6B@ DD FLAT:??_R4CDXUTComboBox@@6B@	; CDXUTComboBox::`vftable'
	DD	FLAT:??_ECDXUTComboBox@@UAEPAXI@Z
	DD	FLAT:?OnInit@CDXUTComboBox@@UAEJXZ
	DD	FLAT:?Refresh@CDXUTControl@@UAEXXZ
	DD	FLAT:?Render@CDXUTComboBox@@UAEXPAUIDirect3DDevice9@@M@Z
	DD	FLAT:?MsgProc@CDXUTControl@@UAE_NIIJ@Z
	DD	FLAT:?HandleKeyboard@CDXUTComboBox@@UAE_NIIJ@Z
	DD	FLAT:?HandleMouse@CDXUTComboBox@@UAE_NIUtagPOINT@@IJ@Z
	DD	FLAT:?CanHaveFocus@CDXUTComboBox@@UAE_NXZ
	DD	FLAT:?OnFocusIn@CDXUTControl@@UAEXXZ
	DD	FLAT:?OnFocusOut@CDXUTComboBox@@UAEXXZ
	DD	FLAT:?OnMouseEnter@CDXUTControl@@UAEXXZ
	DD	FLAT:?OnMouseLeave@CDXUTControl@@UAEXXZ
	DD	FLAT:?OnHotkey@CDXUTComboBox@@UAEXXZ
	DD	FLAT:?ContainsPoint@CDXUTButton@@UAEHUtagPOINT@@@Z
	DD	FLAT:?SetEnabled@CDXUTControl@@UAEX_N@Z
	DD	FLAT:?GetEnabled@CDXUTControl@@UAE_NXZ
	DD	FLAT:?SetVisible@CDXUTControl@@UAEX_N@Z
	DD	FLAT:?GetVisible@CDXUTControl@@UAE_NXZ
	DD	FLAT:?SetTextColor@CDXUTComboBox@@UAEXK@Z
	DD	FLAT:?UpdateRects@CDXUTComboBox@@UAEXXZ
CONST	ENDS
;	COMDAT ??_7CDXUTListBox@@6B@
CONST	SEGMENT
??_7CDXUTListBox@@6B@ DD FLAT:??_R4CDXUTListBox@@6B@	; CDXUTListBox::`vftable'
	DD	FLAT:??_ECDXUTListBox@@UAEPAXI@Z
	DD	FLAT:?OnInit@CDXUTListBox@@UAEJXZ
	DD	FLAT:?Refresh@CDXUTControl@@UAEXXZ
	DD	FLAT:?Render@CDXUTListBox@@UAEXPAUIDirect3DDevice9@@M@Z
	DD	FLAT:?MsgProc@CDXUTControl@@UAE_NIIJ@Z
	DD	FLAT:?HandleKeyboard@CDXUTListBox@@UAE_NIIJ@Z
	DD	FLAT:?HandleMouse@CDXUTListBox@@UAE_NIUtagPOINT@@IJ@Z
	DD	FLAT:?CanHaveFocus@CDXUTListBox@@UAE_NXZ
	DD	FLAT:?OnFocusIn@CDXUTControl@@UAEXXZ
	DD	FLAT:?OnFocusOut@CDXUTControl@@UAEXXZ
	DD	FLAT:?OnMouseEnter@CDXUTControl@@UAEXXZ
	DD	FLAT:?OnMouseLeave@CDXUTControl@@UAEXXZ
	DD	FLAT:?OnHotkey@CDXUTControl@@UAEXXZ
	DD	FLAT:?ContainsPoint@CDXUTControl@@UAEHUtagPOINT@@@Z
	DD	FLAT:?SetEnabled@CDXUTControl@@UAEX_N@Z
	DD	FLAT:?GetEnabled@CDXUTControl@@UAE_NXZ
	DD	FLAT:?SetVisible@CDXUTControl@@UAEX_N@Z
	DD	FLAT:?GetVisible@CDXUTControl@@UAE_NXZ
	DD	FLAT:?SetTextColor@CDXUTControl@@UAEXK@Z
	DD	FLAT:?UpdateRects@CDXUTListBox@@UAEXXZ
CONST	ENDS
;	COMDAT ??_7CDXUTScrollBar@@6B@
CONST	SEGMENT
??_7CDXUTScrollBar@@6B@ DD FLAT:??_R4CDXUTScrollBar@@6B@ ; CDXUTScrollBar::`vftable'
	DD	FLAT:??_ECDXUTScrollBar@@UAEPAXI@Z
	DD	FLAT:?OnInit@CDXUTControl@@UAEJXZ
	DD	FLAT:?Refresh@CDXUTControl@@UAEXXZ
	DD	FLAT:?Render@CDXUTScrollBar@@UAEXPAUIDirect3DDevice9@@M@Z
	DD	FLAT:?MsgProc@CDXUTControl@@UAE_NIIJ@Z
	DD	FLAT:?HandleKeyboard@CDXUTScrollBar@@UAE_NIIJ@Z
	DD	FLAT:?HandleMouse@CDXUTScrollBar@@UAE_NIUtagPOINT@@IJ@Z
	DD	FLAT:?CanHaveFocus@CDXUTControl@@UAE_NXZ
	DD	FLAT:?OnFocusIn@CDXUTControl@@UAEXXZ
	DD	FLAT:?OnFocusOut@CDXUTControl@@UAEXXZ
	DD	FLAT:?OnMouseEnter@CDXUTControl@@UAEXXZ
	DD	FLAT:?OnMouseLeave@CDXUTControl@@UAEXXZ
	DD	FLAT:?OnHotkey@CDXUTControl@@UAEXXZ
	DD	FLAT:?ContainsPoint@CDXUTControl@@UAEHUtagPOINT@@@Z
	DD	FLAT:?SetEnabled@CDXUTControl@@UAEX_N@Z
	DD	FLAT:?GetEnabled@CDXUTControl@@UAE_NXZ
	DD	FLAT:?SetVisible@CDXUTControl@@UAEX_N@Z
	DD	FLAT:?GetVisible@CDXUTControl@@UAE_NXZ
	DD	FLAT:?SetTextColor@CDXUTControl@@UAEXK@Z
	DD	FLAT:?UpdateRects@CDXUTScrollBar@@UAEXXZ
CONST	ENDS
;	COMDAT ??_7CDXUTRadioButton@@6B@
CONST	SEGMENT
??_7CDXUTRadioButton@@6B@ DD FLAT:??_R4CDXUTRadioButton@@6B@ ; CDXUTRadioButton::`vftable'
	DD	FLAT:??_ECDXUTRadioButton@@UAEPAXI@Z
	DD	FLAT:?OnInit@CDXUTControl@@UAEJXZ
	DD	FLAT:?Refresh@CDXUTControl@@UAEXXZ
	DD	FLAT:?Render@CDXUTCheckBox@@UAEXPAUIDirect3DDevice9@@M@Z
	DD	FLAT:?MsgProc@CDXUTControl@@UAE_NIIJ@Z
	DD	FLAT:?HandleKeyboard@CDXUTRadioButton@@UAE_NIIJ@Z
	DD	FLAT:?HandleMouse@CDXUTRadioButton@@UAE_NIUtagPOINT@@IJ@Z
	DD	FLAT:?CanHaveFocus@CDXUTButton@@UAE_NXZ
	DD	FLAT:?OnFocusIn@CDXUTControl@@UAEXXZ
	DD	FLAT:?OnFocusOut@CDXUTControl@@UAEXXZ
	DD	FLAT:?OnMouseEnter@CDXUTControl@@UAEXXZ
	DD	FLAT:?OnMouseLeave@CDXUTControl@@UAEXXZ
	DD	FLAT:?OnHotkey@CDXUTRadioButton@@UAEXXZ
	DD	FLAT:?ContainsPoint@CDXUTCheckBox@@UAEHUtagPOINT@@@Z
	DD	FLAT:?SetEnabled@CDXUTControl@@UAEX_N@Z
	DD	FLAT:?GetEnabled@CDXUTControl@@UAE_NXZ
	DD	FLAT:?SetVisible@CDXUTControl@@UAEX_N@Z
	DD	FLAT:?GetVisible@CDXUTControl@@UAE_NXZ
	DD	FLAT:?SetTextColor@CDXUTControl@@UAEXK@Z
	DD	FLAT:?UpdateRects@CDXUTCheckBox@@UAEXXZ
	DD	FLAT:?SetCheckedInternal@CDXUTCheckBox@@MAEX_N0@Z
	DD	FLAT:?SetCheckedInternal@CDXUTRadioButton@@MAEX_N00@Z
CONST	ENDS
;	COMDAT ??_7CDXUTCheckBox@@6B@
CONST	SEGMENT
??_7CDXUTCheckBox@@6B@ DD FLAT:??_R4CDXUTCheckBox@@6B@	; CDXUTCheckBox::`vftable'
	DD	FLAT:??_ECDXUTCheckBox@@UAEPAXI@Z
	DD	FLAT:?OnInit@CDXUTControl@@UAEJXZ
	DD	FLAT:?Refresh@CDXUTControl@@UAEXXZ
	DD	FLAT:?Render@CDXUTCheckBox@@UAEXPAUIDirect3DDevice9@@M@Z
	DD	FLAT:?MsgProc@CDXUTControl@@UAE_NIIJ@Z
	DD	FLAT:?HandleKeyboard@CDXUTCheckBox@@UAE_NIIJ@Z
	DD	FLAT:?HandleMouse@CDXUTCheckBox@@UAE_NIUtagPOINT@@IJ@Z
	DD	FLAT:?CanHaveFocus@CDXUTButton@@UAE_NXZ
	DD	FLAT:?OnFocusIn@CDXUTControl@@UAEXXZ
	DD	FLAT:?OnFocusOut@CDXUTControl@@UAEXXZ
	DD	FLAT:?OnMouseEnter@CDXUTControl@@UAEXXZ
	DD	FLAT:?OnMouseLeave@CDXUTControl@@UAEXXZ
	DD	FLAT:?OnHotkey@CDXUTCheckBox@@UAEXXZ
	DD	FLAT:?ContainsPoint@CDXUTCheckBox@@UAEHUtagPOINT@@@Z
	DD	FLAT:?SetEnabled@CDXUTControl@@UAEX_N@Z
	DD	FLAT:?GetEnabled@CDXUTControl@@UAE_NXZ
	DD	FLAT:?SetVisible@CDXUTControl@@UAEX_N@Z
	DD	FLAT:?GetVisible@CDXUTControl@@UAE_NXZ
	DD	FLAT:?SetTextColor@CDXUTControl@@UAEXK@Z
	DD	FLAT:?UpdateRects@CDXUTCheckBox@@UAEXXZ
	DD	FLAT:?SetCheckedInternal@CDXUTCheckBox@@MAEX_N0@Z
CONST	ENDS
;	COMDAT ??_7CDXUTButton@@6B@
CONST	SEGMENT
??_7CDXUTButton@@6B@ DD FLAT:??_R4CDXUTButton@@6B@	; CDXUTButton::`vftable'
	DD	FLAT:??_ECDXUTButton@@UAEPAXI@Z
	DD	FLAT:?OnInit@CDXUTControl@@UAEJXZ
	DD	FLAT:?Refresh@CDXUTControl@@UAEXXZ
	DD	FLAT:?Render@CDXUTButton@@UAEXPAUIDirect3DDevice9@@M@Z
	DD	FLAT:?MsgProc@CDXUTControl@@UAE_NIIJ@Z
	DD	FLAT:?HandleKeyboard@CDXUTButton@@UAE_NIIJ@Z
	DD	FLAT:?HandleMouse@CDXUTButton@@UAE_NIUtagPOINT@@IJ@Z
	DD	FLAT:?CanHaveFocus@CDXUTButton@@UAE_NXZ
	DD	FLAT:?OnFocusIn@CDXUTControl@@UAEXXZ
	DD	FLAT:?OnFocusOut@CDXUTControl@@UAEXXZ
	DD	FLAT:?OnMouseEnter@CDXUTControl@@UAEXXZ
	DD	FLAT:?OnMouseLeave@CDXUTControl@@UAEXXZ
	DD	FLAT:?OnHotkey@CDXUTButton@@UAEXXZ
	DD	FLAT:?ContainsPoint@CDXUTButton@@UAEHUtagPOINT@@@Z
	DD	FLAT:?SetEnabled@CDXUTControl@@UAEX_N@Z
	DD	FLAT:?GetEnabled@CDXUTControl@@UAE_NXZ
	DD	FLAT:?SetVisible@CDXUTControl@@UAEX_N@Z
	DD	FLAT:?GetVisible@CDXUTControl@@UAE_NXZ
	DD	FLAT:?SetTextColor@CDXUTControl@@UAEXK@Z
	DD	FLAT:?UpdateRects@CDXUTControl@@MAEXXZ
CONST	ENDS
;	COMDAT ??_7CDXUTStatic@@6B@
CONST	SEGMENT
??_7CDXUTStatic@@6B@ DD FLAT:??_R4CDXUTStatic@@6B@	; CDXUTStatic::`vftable'
	DD	FLAT:??_ECDXUTStatic@@UAEPAXI@Z
	DD	FLAT:?OnInit@CDXUTControl@@UAEJXZ
	DD	FLAT:?Refresh@CDXUTControl@@UAEXXZ
	DD	FLAT:?Render@CDXUTStatic@@UAEXPAUIDirect3DDevice9@@M@Z
	DD	FLAT:?MsgProc@CDXUTControl@@UAE_NIIJ@Z
	DD	FLAT:?HandleKeyboard@CDXUTControl@@UAE_NIIJ@Z
	DD	FLAT:?HandleMouse@CDXUTControl@@UAE_NIUtagPOINT@@IJ@Z
	DD	FLAT:?CanHaveFocus@CDXUTControl@@UAE_NXZ
	DD	FLAT:?OnFocusIn@CDXUTControl@@UAEXXZ
	DD	FLAT:?OnFocusOut@CDXUTControl@@UAEXXZ
	DD	FLAT:?OnMouseEnter@CDXUTControl@@UAEXXZ
	DD	FLAT:?OnMouseLeave@CDXUTControl@@UAEXXZ
	DD	FLAT:?OnHotkey@CDXUTControl@@UAEXXZ
	DD	FLAT:?ContainsPoint@CDXUTStatic@@UAEHUtagPOINT@@@Z
	DD	FLAT:?SetEnabled@CDXUTControl@@UAEX_N@Z
	DD	FLAT:?GetEnabled@CDXUTControl@@UAE_NXZ
	DD	FLAT:?SetVisible@CDXUTControl@@UAEX_N@Z
	DD	FLAT:?GetVisible@CDXUTControl@@UAE_NXZ
	DD	FLAT:?SetTextColor@CDXUTControl@@UAEXK@Z
	DD	FLAT:?UpdateRects@CDXUTControl@@MAEXXZ
CONST	ENDS
;	COMDAT ??_7CDXUTControl@@6B@
CONST	SEGMENT
??_7CDXUTControl@@6B@ DD FLAT:??_R4CDXUTControl@@6B@	; CDXUTControl::`vftable'
	DD	FLAT:??_ECDXUTControl@@UAEPAXI@Z
	DD	FLAT:?OnInit@CDXUTControl@@UAEJXZ
	DD	FLAT:?Refresh@CDXUTControl@@UAEXXZ
	DD	FLAT:?Render@CDXUTControl@@UAEXPAUIDirect3DDevice9@@M@Z
	DD	FLAT:?MsgProc@CDXUTControl@@UAE_NIIJ@Z
	DD	FLAT:?HandleKeyboard@CDXUTControl@@UAE_NIIJ@Z
	DD	FLAT:?HandleMouse@CDXUTControl@@UAE_NIUtagPOINT@@IJ@Z
	DD	FLAT:?CanHaveFocus@CDXUTControl@@UAE_NXZ
	DD	FLAT:?OnFocusIn@CDXUTControl@@UAEXXZ
	DD	FLAT:?OnFocusOut@CDXUTControl@@UAEXXZ
	DD	FLAT:?OnMouseEnter@CDXUTControl@@UAEXXZ
	DD	FLAT:?OnMouseLeave@CDXUTControl@@UAEXXZ
	DD	FLAT:?OnHotkey@CDXUTControl@@UAEXXZ
	DD	FLAT:?ContainsPoint@CDXUTControl@@UAEHUtagPOINT@@@Z
	DD	FLAT:?SetEnabled@CDXUTControl@@UAEX_N@Z
	DD	FLAT:?GetEnabled@CDXUTControl@@UAE_NXZ
	DD	FLAT:?SetVisible@CDXUTControl@@UAEX_N@Z
	DD	FLAT:?GetVisible@CDXUTControl@@UAE_NXZ
	DD	FLAT:?SetTextColor@CDXUTControl@@UAEXK@Z
	DD	FLAT:?UpdateRects@CDXUTControl@@MAEXXZ
CONST	ENDS
;	COMDAT ??_C@_00CNPNBAHC@?$AA@
CONST	SEGMENT
??_C@_00CNPNBAHC@?$AA@ DB 00H				; `string'
CONST	ENDS
;	COMDAT xdata$x
xdata$x	SEGMENT
__unwindtable$??0CDXUTIMEEditBox@@QAE@PAVCDXUTDialog@@@Z DD 0ffffffffH
	DD	FLAT:__unwindfunclet$??0CDXUTIMEEditBox@@QAE@PAVCDXUTDialog@@@Z$0
__ehfuncinfo$??0CDXUTIMEEditBox@@QAE@PAVCDXUTDialog@@@Z DD 019930522H
	DD	01H
	DD	FLAT:__unwindtable$??0CDXUTIMEEditBox@@QAE@PAVCDXUTDialog@@@Z
	DD	2 DUP(00H)
	DD	2 DUP(00H)
	DD	00H
	DD	01H
xdata$x	ENDS
;	COMDAT xdata$x
xdata$x	SEGMENT
__unwindtable$??1CDXUTEditBox@@UAE@XZ DD 0ffffffffH
	DD	FLAT:__unwindfunclet$??1CDXUTEditBox@@UAE@XZ$0
__ehfuncinfo$??1CDXUTEditBox@@UAE@XZ DD 019930522H
	DD	01H
	DD	FLAT:__unwindtable$??1CDXUTEditBox@@UAE@XZ
	DD	2 DUP(00H)
	DD	2 DUP(00H)
	DD	00H
	DD	01H
xdata$x	ENDS
;	COMDAT xdata$x
xdata$x	SEGMENT
__unwindtable$??0CDXUTEditBox@@QAE@PAVCDXUTDialog@@@Z DD 0ffffffffH
	DD	FLAT:__unwindfunclet$??0CDXUTEditBox@@QAE@PAVCDXUTDialog@@@Z$0
	DD	00H
	DD	FLAT:__unwindfunclet$??0CDXUTEditBox@@QAE@PAVCDXUTDialog@@@Z$1
__ehfuncinfo$??0CDXUTEditBox@@QAE@PAVCDXUTDialog@@@Z DD 019930522H
	DD	02H
	DD	FLAT:__unwindtable$??0CDXUTEditBox@@QAE@PAVCDXUTDialog@@@Z
	DD	2 DUP(00H)
	DD	2 DUP(00H)
	DD	00H
	DD	01H
xdata$x	ENDS
;	COMDAT xdata$x
xdata$x	SEGMENT
__unwindtable$??1CDXUTComboBox@@UAE@XZ DD 0ffffffffH
	DD	FLAT:__unwindfunclet$??1CDXUTComboBox@@UAE@XZ$0
	DD	00H
	DD	FLAT:__unwindfunclet$??1CDXUTComboBox@@UAE@XZ$1
	DD	01H
	DD	FLAT:__unwindfunclet$??1CDXUTComboBox@@UAE@XZ$2
__ehfuncinfo$??1CDXUTComboBox@@UAE@XZ DD 019930522H
	DD	03H
	DD	FLAT:__unwindtable$??1CDXUTComboBox@@UAE@XZ
	DD	2 DUP(00H)
	DD	2 DUP(00H)
	DD	00H
	DD	01H
xdata$x	ENDS
;	COMDAT xdata$x
xdata$x	SEGMENT
__unwindtable$??0CDXUTComboBox@@QAE@PAVCDXUTDialog@@@Z DD 0ffffffffH
	DD	FLAT:__unwindfunclet$??0CDXUTComboBox@@QAE@PAVCDXUTDialog@@@Z$0
	DD	00H
	DD	FLAT:__unwindfunclet$??0CDXUTComboBox@@QAE@PAVCDXUTDialog@@@Z$1
__ehfuncinfo$??0CDXUTComboBox@@QAE@PAVCDXUTDialog@@@Z DD 019930522H
	DD	02H
	DD	FLAT:__unwindtable$??0CDXUTComboBox@@QAE@PAVCDXUTDialog@@@Z
	DD	2 DUP(00H)
	DD	2 DUP(00H)
	DD	00H
	DD	01H
xdata$x	ENDS
;	COMDAT xdata$x
xdata$x	SEGMENT
__unwindtable$??1CDXUTListBox@@UAE@XZ DD 0ffffffffH
	DD	FLAT:__unwindfunclet$??1CDXUTListBox@@UAE@XZ$0
	DD	00H
	DD	FLAT:__unwindfunclet$??1CDXUTListBox@@UAE@XZ$1
	DD	01H
	DD	FLAT:__unwindfunclet$??1CDXUTListBox@@UAE@XZ$2
__ehfuncinfo$??1CDXUTListBox@@UAE@XZ DD 019930522H
	DD	03H
	DD	FLAT:__unwindtable$??1CDXUTListBox@@UAE@XZ
	DD	2 DUP(00H)
	DD	2 DUP(00H)
	DD	00H
	DD	01H
xdata$x	ENDS
;	COMDAT xdata$x
xdata$x	SEGMENT
__unwindtable$??0CDXUTListBox@@QAE@PAVCDXUTDialog@@@Z DD 0ffffffffH
	DD	FLAT:__unwindfunclet$??0CDXUTListBox@@QAE@PAVCDXUTDialog@@@Z$0
	DD	00H
	DD	FLAT:__unwindfunclet$??0CDXUTListBox@@QAE@PAVCDXUTDialog@@@Z$1
__ehfuncinfo$??0CDXUTListBox@@QAE@PAVCDXUTDialog@@@Z DD 019930522H
	DD	02H
	DD	FLAT:__unwindtable$??0CDXUTListBox@@QAE@PAVCDXUTDialog@@@Z
	DD	2 DUP(00H)
	DD	2 DUP(00H)
	DD	00H
	DD	01H
xdata$x	ENDS
;	COMDAT xdata$x
xdata$x	SEGMENT
__unwindtable$??0CDXUTStatic@@QAE@PAVCDXUTDialog@@@Z DD 0ffffffffH
	DD	FLAT:__unwindfunclet$??0CDXUTStatic@@QAE@PAVCDXUTDialog@@@Z$0
__ehfuncinfo$??0CDXUTStatic@@QAE@PAVCDXUTDialog@@@Z DD 019930522H
	DD	01H
	DD	FLAT:__unwindtable$??0CDXUTStatic@@QAE@PAVCDXUTDialog@@@Z
	DD	2 DUP(00H)
	DD	2 DUP(00H)
	DD	00H
	DD	01H
xdata$x	ENDS
;	COMDAT xdata$x
xdata$x	SEGMENT
__unwindtable$?SetElement@CDXUTControl@@QAEJIPAVCDXUTElement@@@Z DD 0ffffffffH
	DD	FLAT:__unwindfunclet$?SetElement@CDXUTControl@@QAEJIPAVCDXUTElement@@@Z$0
__ehfuncinfo$?SetElement@CDXUTControl@@QAEJIPAVCDXUTElement@@@Z DD 019930522H
	DD	01H
	DD	FLAT:__unwindtable$?SetElement@CDXUTControl@@QAEJIPAVCDXUTElement@@@Z
	DD	2 DUP(00H)
	DD	2 DUP(00H)
	DD	00H
	DD	01H
xdata$x	ENDS
;	COMDAT xdata$x
xdata$x	SEGMENT
__unwindtable$??1CDXUTControl@@UAE@XZ DD 0ffffffffH
	DD	FLAT:__unwindfunclet$??1CDXUTControl@@UAE@XZ$0
__ehfuncinfo$??1CDXUTControl@@UAE@XZ DD 019930522H
	DD	01H
	DD	FLAT:__unwindtable$??1CDXUTControl@@UAE@XZ
	DD	2 DUP(00H)
	DD	2 DUP(00H)
	DD	00H
	DD	01H
xdata$x	ENDS
;	COMDAT xdata$x
xdata$x	SEGMENT
__unwindtable$??1CDXUTDialogResourceManager@@QAE@XZ DD 0ffffffffH
	DD	FLAT:__unwindfunclet$??1CDXUTDialogResourceManager@@QAE@XZ$0
	DD	00H
	DD	FLAT:__unwindfunclet$??1CDXUTDialogResourceManager@@QAE@XZ$1
__ehfuncinfo$??1CDXUTDialogResourceManager@@QAE@XZ DD 019930522H
	DD	02H
	DD	FLAT:__unwindtable$??1CDXUTDialogResourceManager@@QAE@XZ
	DD	2 DUP(00H)
	DD	2 DUP(00H)
	DD	00H
	DD	01H
xdata$x	ENDS
;	COMDAT xdata$x
xdata$x	SEGMENT
__unwindtable$??0CDXUTDialogResourceManager@@QAE@XZ DD 0ffffffffH
	DD	FLAT:__unwindfunclet$??0CDXUTDialogResourceManager@@QAE@XZ$0
__ehfuncinfo$??0CDXUTDialogResourceManager@@QAE@XZ DD 019930522H
	DD	01H
	DD	FLAT:__unwindtable$??0CDXUTDialogResourceManager@@QAE@XZ
	DD	2 DUP(00H)
	DD	2 DUP(00H)
	DD	00H
	DD	01H
xdata$x	ENDS
;	COMDAT xdata$x
xdata$x	SEGMENT
__unwindtable$?SetDefaultElement@CDXUTDialog@@QAEJIIPAVCDXUTElement@@@Z DD 0ffffffffH
	DD	FLAT:__unwindfunclet$?SetDefaultElement@CDXUTDialog@@QAEJIIPAVCDXUTElement@@@Z$0
__ehfuncinfo$?SetDefaultElement@CDXUTDialog@@QAEJIIPAVCDXUTElement@@@Z DD 019930522H
	DD	01H
	DD	FLAT:__unwindtable$?SetDefaultElement@CDXUTDialog@@QAEJIIPAVCDXUTElement@@@Z
	DD	2 DUP(00H)
	DD	2 DUP(00H)
	DD	00H
	DD	01H
xdata$x	ENDS
;	COMDAT xdata$x
xdata$x	SEGMENT
__unwindtable$?AddListBox@CDXUTDialog@@QAEJHHHHHKPAPAVCDXUTListBox@@@Z DD 0ffffffffH
	DD	FLAT:__unwindfunclet$?AddListBox@CDXUTDialog@@QAEJHHHHHKPAPAVCDXUTListBox@@@Z$0
__ehfuncinfo$?AddListBox@CDXUTDialog@@QAEJHHHHHKPAPAVCDXUTListBox@@@Z DD 019930522H
	DD	01H
	DD	FLAT:__unwindtable$?AddListBox@CDXUTDialog@@QAEJHHHHHKPAPAVCDXUTListBox@@@Z
	DD	2 DUP(00H)
	DD	2 DUP(00H)
	DD	00H
	DD	01H
xdata$x	ENDS
;	COMDAT xdata$x
xdata$x	SEGMENT
__unwindtable$?AddIMEEditBox@CDXUTDialog@@QAEJHPBDHHHH_NPAPAVCDXUTIMEEditBox@@@Z DD 0ffffffffH
	DD	FLAT:__unwindfunclet$?AddIMEEditBox@CDXUTDialog@@QAEJHPBDHHHH_NPAPAVCDXUTIMEEditBox@@@Z$0
__ehfuncinfo$?AddIMEEditBox@CDXUTDialog@@QAEJHPBDHHHH_NPAPAVCDXUTIMEEditBox@@@Z DD 019930522H
	DD	01H
	DD	FLAT:__unwindtable$?AddIMEEditBox@CDXUTDialog@@QAEJHPBDHHHH_NPAPAVCDXUTIMEEditBox@@@Z
	DD	2 DUP(00H)
	DD	2 DUP(00H)
	DD	00H
	DD	01H
xdata$x	ENDS
;	COMDAT xdata$x
xdata$x	SEGMENT
__unwindtable$?AddEditBox@CDXUTDialog@@QAEJHPBDHHHH_NPAPAVCDXUTEditBox@@@Z DD 0ffffffffH
	DD	FLAT:__unwindfunclet$?AddEditBox@CDXUTDialog@@QAEJHPBDHHHH_NPAPAVCDXUTEditBox@@@Z$0
__ehfuncinfo$?AddEditBox@CDXUTDialog@@QAEJHPBDHHHH_NPAPAVCDXUTEditBox@@@Z DD 019930522H
	DD	01H
	DD	FLAT:__unwindtable$?AddEditBox@CDXUTDialog@@QAEJHPBDHHHH_NPAPAVCDXUTEditBox@@@Z
	DD	2 DUP(00H)
	DD	2 DUP(00H)
	DD	00H
	DD	01H
xdata$x	ENDS
;	COMDAT xdata$x
xdata$x	SEGMENT
__unwindtable$?AddSlider@CDXUTDialog@@QAEJHHHHHHHH_NPAPAVCDXUTSlider@@@Z DD 0ffffffffH
	DD	FLAT:__unwindfunclet$?AddSlider@CDXUTDialog@@QAEJHHHHHHHH_NPAPAVCDXUTSlider@@@Z$0
__ehfuncinfo$?AddSlider@CDXUTDialog@@QAEJHHHHHHHH_NPAPAVCDXUTSlider@@@Z DD 019930522H
	DD	01H
	DD	FLAT:__unwindtable$?AddSlider@CDXUTDialog@@QAEJHHHHHHHH_NPAPAVCDXUTSlider@@@Z
	DD	2 DUP(00H)
	DD	2 DUP(00H)
	DD	00H
	DD	01H
xdata$x	ENDS
;	COMDAT xdata$x
xdata$x	SEGMENT
__unwindtable$?AddComboBox@CDXUTDialog@@QAEJHHHHHI_NPAPAVCDXUTComboBox@@@Z DD 0ffffffffH
	DD	FLAT:__unwindfunclet$?AddComboBox@CDXUTDialog@@QAEJHHHHHI_NPAPAVCDXUTComboBox@@@Z$0
__ehfuncinfo$?AddComboBox@CDXUTDialog@@QAEJHHHHHI_NPAPAVCDXUTComboBox@@@Z DD 019930522H
	DD	01H
	DD	FLAT:__unwindtable$?AddComboBox@CDXUTDialog@@QAEJHHHHHI_NPAPAVCDXUTComboBox@@@Z
	DD	2 DUP(00H)
	DD	2 DUP(00H)
	DD	00H
	DD	01H
xdata$x	ENDS
;	COMDAT xdata$x
xdata$x	SEGMENT
__unwindtable$?AddRadioButton@CDXUTDialog@@QAEJHIPBDHHHH_NI1PAPAVCDXUTRadioButton@@@Z DD 0ffffffffH
	DD	FLAT:__unwindfunclet$?AddRadioButton@CDXUTDialog@@QAEJHIPBDHHHH_NI1PAPAVCDXUTRadioButton@@@Z$0
__ehfuncinfo$?AddRadioButton@CDXUTDialog@@QAEJHIPBDHHHH_NI1PAPAVCDXUTRadioButton@@@Z DD 019930522H
	DD	01H
	DD	FLAT:__unwindtable$?AddRadioButton@CDXUTDialog@@QAEJHIPBDHHHH_NI1PAPAVCDXUTRadioButton@@@Z
	DD	2 DUP(00H)
	DD	2 DUP(00H)
	DD	00H
	DD	01H
xdata$x	ENDS
;	COMDAT xdata$x
xdata$x	SEGMENT
__unwindtable$?AddCheckBox@CDXUTDialog@@QAEJHPBDHHHH_NI1PAPAVCDXUTCheckBox@@@Z DD 0ffffffffH
	DD	FLAT:__unwindfunclet$?AddCheckBox@CDXUTDialog@@QAEJHPBDHHHH_NI1PAPAVCDXUTCheckBox@@@Z$0
__ehfuncinfo$?AddCheckBox@CDXUTDialog@@QAEJHPBDHHHH_NI1PAPAVCDXUTCheckBox@@@Z DD 019930522H
	DD	01H
	DD	FLAT:__unwindtable$?AddCheckBox@CDXUTDialog@@QAEJHPBDHHHH_NI1PAPAVCDXUTCheckBox@@@Z
	DD	2 DUP(00H)
	DD	2 DUP(00H)
	DD	00H
	DD	01H
xdata$x	ENDS
;	COMDAT xdata$x
xdata$x	SEGMENT
__unwindtable$?AddButton@CDXUTDialog@@QAEJHPBDHHHHI_NPAPAVCDXUTButton@@@Z DD 0ffffffffH
	DD	FLAT:__unwindfunclet$?AddButton@CDXUTDialog@@QAEJHPBDHHHHI_NPAPAVCDXUTButton@@@Z$0
__ehfuncinfo$?AddButton@CDXUTDialog@@QAEJHPBDHHHHI_NPAPAVCDXUTButton@@@Z DD 019930522H
	DD	01H
	DD	FLAT:__unwindtable$?AddButton@CDXUTDialog@@QAEJHPBDHHHHI_NPAPAVCDXUTButton@@@Z
	DD	2 DUP(00H)
	DD	2 DUP(00H)
	DD	00H
	DD	01H
xdata$x	ENDS
;	COMDAT xdata$x
xdata$x	SEGMENT
__unwindtable$?AddStatic@CDXUTDialog@@QAEJHPBDHHHH_NPAPAVCDXUTStatic@@@Z DD 0ffffffffH
	DD	FLAT:__unwindfunclet$?AddStatic@CDXUTDialog@@QAEJHPBDHHHH_NPAPAVCDXUTStatic@@@Z$0
__ehfuncinfo$?AddStatic@CDXUTDialog@@QAEJHPBDHHHH_NPAPAVCDXUTStatic@@@Z DD 019930522H
	DD	01H
	DD	FLAT:__unwindtable$?AddStatic@CDXUTDialog@@QAEJHPBDHHHH_NPAPAVCDXUTStatic@@@Z
	DD	2 DUP(00H)
	DD	2 DUP(00H)
	DD	00H
	DD	01H
xdata$x	ENDS
;	COMDAT xdata$x
xdata$x	SEGMENT
__unwindtable$??1CDXUTDialog@@QAE@XZ DD 0ffffffffH
	DD	FLAT:__unwindfunclet$??1CDXUTDialog@@QAE@XZ$0
	DD	00H
	DD	FLAT:__unwindfunclet$??1CDXUTDialog@@QAE@XZ$1
	DD	01H
	DD	FLAT:__unwindfunclet$??1CDXUTDialog@@QAE@XZ$2
	DD	02H
	DD	FLAT:__unwindfunclet$??1CDXUTDialog@@QAE@XZ$3
__ehfuncinfo$??1CDXUTDialog@@QAE@XZ DD 019930522H
	DD	04H
	DD	FLAT:__unwindtable$??1CDXUTDialog@@QAE@XZ
	DD	2 DUP(00H)
	DD	2 DUP(00H)
	DD	00H
	DD	01H
xdata$x	ENDS
;	COMDAT xdata$x
xdata$x	SEGMENT
__unwindtable$??0CDXUTDialog@@QAE@XZ DD 0ffffffffH
	DD	FLAT:__unwindfunclet$??0CDXUTDialog@@QAE@XZ$0
	DD	00H
	DD	FLAT:__unwindfunclet$??0CDXUTDialog@@QAE@XZ$1
	DD	01H
	DD	FLAT:__unwindfunclet$??0CDXUTDialog@@QAE@XZ$2
	DD	02H
	DD	FLAT:__unwindfunclet$??0CDXUTDialog@@QAE@XZ$3
__ehfuncinfo$??0CDXUTDialog@@QAE@XZ DD 019930522H
	DD	04H
	DD	FLAT:__unwindtable$??0CDXUTDialog@@QAE@XZ
	DD	2 DUP(00H)
	DD	2 DUP(00H)
	DD	00H
	DD	01H
xdata$x	ENDS
CRT$XCU	SEGMENT
?s_CandList$initializer$@CDXUTIMEEditBox@@1P6AXXZA DD FLAT:??__E?s_CandList@CDXUTIMEEditBox@@1UCCandList@1@A@@YAXXZ ; CDXUTIMEEditBox::s_CandList$initializer$
CRT$XCU	ENDS
CRT$XCU	SEGMENT
?s_Locale$initializer$@CDXUTIMEEditBox@@1P6AXXZA DD FLAT:??__E?s_Locale@CDXUTIMEEditBox@@1V?$CGrowableArray@UCInputLocale@CDXUTIMEEditBox@@@@A@@YAXXZ ; CDXUTIMEEditBox::s_Locale$initializer$
CRT$XCU	ENDS
; Function compile flags: /Odtp /RTCsu /ZI
;	COMDAT ??__F?s_Locale@CDXUTIMEEditBox@@1V?$CGrowableArray@UCInputLocale@CDXUTIMEEditBox@@@@A@@YAXXZ
text$yd	SEGMENT
??__F?s_Locale@CDXUTIMEEditBox@@1V?$CGrowableArray@UCInputLocale@CDXUTIMEEditBox@@@@A@@YAXXZ PROC ; `dynamic atexit destructor for 'CDXUTIMEEditBox::s_Locale'', COMDAT
	push	ebp
	mov	ebp, esp
	sub	esp, 192				; 000000c0H
	push	ebx
	push	esi
	push	edi
	lea	edi, DWORD PTR [ebp-192]
	mov	ecx, 48					; 00000030H
	mov	eax, -858993460				; ccccccccH
	rep stosd
	mov	ecx, OFFSET ?s_Locale@CDXUTIMEEditBox@@1V?$CGrowableArray@UCInputLocale@CDXUTIMEEditBox@@@@A ; CDXUTIMEEditBox::s_Locale
	call	??1?$CGrowableArray@UCInputLocale@CDXUTIMEEditBox@@@@QAE@XZ ; CGrowableArray<CDXUTIMEEditBox::CInputLocale>::~CGrowableArray<CDXUTIMEEditBox::CInputLocale>
	pop	edi
	pop	esi
	pop	ebx
	add	esp, 192				; 000000c0H
	cmp	ebp, esp
	call	__RTC_CheckEsp
	mov	esp, ebp
	pop	ebp
	ret	0
??__F?s_Locale@CDXUTIMEEditBox@@1V?$CGrowableArray@UCInputLocale@CDXUTIMEEditBox@@@@A@@YAXXZ ENDP ; `dynamic atexit destructor for 'CDXUTIMEEditBox::s_Locale''
text$yd	ENDS
; Function compile flags: /Odtp /RTCsu /ZI
; File z:\sampsrc\02xu1\saco\d3d9\common\dxutgui.cpp
;	COMDAT ??__E?s_Locale@CDXUTIMEEditBox@@1V?$CGrowableArray@UCInputLocale@CDXUTIMEEditBox@@@@A@@YAXXZ
text$di	SEGMENT
??__E?s_Locale@CDXUTIMEEditBox@@1V?$CGrowableArray@UCInputLocale@CDXUTIMEEditBox@@@@A@@YAXXZ PROC ; `dynamic initializer for 'CDXUTIMEEditBox::s_Locale'', COMDAT

; 5519 : CGrowableArray< CDXUTIMEEditBox::CInputLocale > CDXUTIMEEditBox::s_Locale; // Array of loaded keyboard layout on system

	push	ebp
	mov	ebp, esp
	sub	esp, 192				; 000000c0H
	push	ebx
	push	esi
	push	edi
	lea	edi, DWORD PTR [ebp-192]
	mov	ecx, 48					; 00000030H
	mov	eax, -858993460				; ccccccccH
	rep stosd
	mov	ecx, OFFSET ?s_Locale@CDXUTIMEEditBox@@1V?$CGrowableArray@UCInputLocale@CDXUTIMEEditBox@@@@A ; CDXUTIMEEditBox::s_Locale
	call	??0?$CGrowableArray@UCInputLocale@CDXUTIMEEditBox@@@@QAE@XZ ; CGrowableArray<CDXUTIMEEditBox::CInputLocale>::CGrowableArray<CDXUTIMEEditBox::CInputLocale>
	push	OFFSET ??__F?s_Locale@CDXUTIMEEditBox@@1V?$CGrowableArray@UCInputLocale@CDXUTIMEEditBox@@@@A@@YAXXZ ; `dynamic atexit destructor for 'CDXUTIMEEditBox::s_Locale''
	call	_atexit
	add	esp, 4
	pop	edi
	pop	esi
	pop	ebx
	add	esp, 192				; 000000c0H
	cmp	ebp, esp
	call	__RTC_CheckEsp
	mov	esp, ebp
	pop	ebp
	ret	0
??__E?s_Locale@CDXUTIMEEditBox@@1V?$CGrowableArray@UCInputLocale@CDXUTIMEEditBox@@@@A@@YAXXZ ENDP ; `dynamic initializer for 'CDXUTIMEEditBox::s_Locale''
text$di	ENDS
; Function compile flags: /Odtp /RTCsu /ZI
;	COMDAT ??__F?s_CandList@CDXUTIMEEditBox@@1UCCandList@1@A@@YAXXZ
text$yd	SEGMENT
??__F?s_CandList@CDXUTIMEEditBox@@1UCCandList@1@A@@YAXXZ PROC ; `dynamic atexit destructor for 'CDXUTIMEEditBox::s_CandList'', COMDAT
	push	ebp
	mov	ebp, esp
	sub	esp, 192				; 000000c0H
	push	ebx
	push	esi
	push	edi
	lea	edi, DWORD PTR [ebp-192]
	mov	ecx, 48					; 00000030H
	mov	eax, -858993460				; ccccccccH
	rep stosd
	mov	ecx, OFFSET ?s_CandList@CDXUTIMEEditBox@@1UCCandList@1@A ; CDXUTIMEEditBox::s_CandList
	call	??1CCandList@CDXUTIMEEditBox@@QAE@XZ
	pop	edi
	pop	esi
	pop	ebx
	add	esp, 192				; 000000c0H
	cmp	ebp, esp
	call	__RTC_CheckEsp
	mov	esp, ebp
	pop	ebp
	ret	0
??__F?s_CandList@CDXUTIMEEditBox@@1UCCandList@1@A@@YAXXZ ENDP ; `dynamic atexit destructor for 'CDXUTIMEEditBox::s_CandList''
text$yd	ENDS
; Function compile flags: /Odtp /RTCsu /ZI
; File z:\sampsrc\02xu1\saco\d3d9\common\dxutgui.cpp
;	COMDAT ??__E?s_CandList@CDXUTIMEEditBox@@1UCCandList@1@A@@YAXXZ
text$di	SEGMENT
??__E?s_CandList@CDXUTIMEEditBox@@1UCCandList@1@A@@YAXXZ PROC ; `dynamic initializer for 'CDXUTIMEEditBox::s_CandList'', COMDAT

; 5515 : CDXUTIMEEditBox::CCandList CDXUTIMEEditBox::s_CandList;       // Data relevant to the candidate list

	push	ebp
	mov	ebp, esp
	sub	esp, 192				; 000000c0H
	push	ebx
	push	esi
	push	edi
	lea	edi, DWORD PTR [ebp-192]
	mov	ecx, 48					; 00000030H
	mov	eax, -858993460				; ccccccccH
	rep stosd
	mov	ecx, OFFSET ?s_CandList@CDXUTIMEEditBox@@1UCCandList@1@A ; CDXUTIMEEditBox::s_CandList
	call	??0CCandList@CDXUTIMEEditBox@@QAE@XZ
	push	OFFSET ??__F?s_CandList@CDXUTIMEEditBox@@1UCCandList@1@A@@YAXXZ ; `dynamic atexit destructor for 'CDXUTIMEEditBox::s_CandList''
	call	_atexit
	add	esp, 4
	pop	edi
	pop	esi
	pop	ebx
	add	esp, 192				; 000000c0H
	cmp	ebp, esp
	call	__RTC_CheckEsp
	mov	esp, ebp
	pop	ebp
	ret	0
??__E?s_CandList@CDXUTIMEEditBox@@1UCCandList@1@A@@YAXXZ ENDP ; `dynamic initializer for 'CDXUTIMEEditBox::s_CandList''
text$di	ENDS
; Function compile flags: /Odtp /RTCsu /ZI
;	COMDAT ??__F?s_CompString@CDXUTIMEEditBox@@1VCUniBuffer@@A@@YAXXZ
text$yd	SEGMENT
??__F?s_CompString@CDXUTIMEEditBox@@1VCUniBuffer@@A@@YAXXZ PROC ; `dynamic atexit destructor for 'CDXUTIMEEditBox::s_CompString'', COMDAT
	push	ebp
	mov	ebp, esp
	sub	esp, 192				; 000000c0H
	push	ebx
	push	esi
	push	edi
	lea	edi, DWORD PTR [ebp-192]
	mov	ecx, 48					; 00000030H
	mov	eax, -858993460				; ccccccccH
	rep stosd
	mov	ecx, OFFSET ?s_CompString@CDXUTIMEEditBox@@1VCUniBuffer@@A ; CDXUTIMEEditBox::s_CompString
	call	??1CUniBuffer@@QAE@XZ			; CUniBuffer::~CUniBuffer
	pop	edi
	pop	esi
	pop	ebx
	add	esp, 192				; 000000c0H
	cmp	ebp, esp
	call	__RTC_CheckEsp
	mov	esp, ebp
	pop	ebp
	ret	0
??__F?s_CompString@CDXUTIMEEditBox@@1VCUniBuffer@@A@@YAXXZ ENDP ; `dynamic atexit destructor for 'CDXUTIMEEditBox::s_CompString''
text$yd	ENDS
; Function compile flags: /Odtp /RTCsu /ZI
; File z:\sampsrc\02xu1\saco\d3d9\common\dxutgui.cpp
;	COMDAT ??__E?s_CompString@CDXUTIMEEditBox@@1VCUniBuffer@@A@@YAXXZ
text$di	SEGMENT
??__E?s_CompString@CDXUTIMEEditBox@@1VCUniBuffer@@A@@YAXXZ PROC ; `dynamic initializer for 'CDXUTIMEEditBox::s_CompString'', COMDAT

; 5511 : CUniBuffer CDXUTIMEEditBox::s_CompString = CUniBuffer( 0 );

	push	ebp
	mov	ebp, esp
	sub	esp, 192				; 000000c0H
	push	ebx
	push	esi
	push	edi
	lea	edi, DWORD PTR [ebp-192]
	mov	ecx, 48					; 00000030H
	mov	eax, -858993460				; ccccccccH
	rep stosd
	push	0
	mov	ecx, OFFSET ?s_CompString@CDXUTIMEEditBox@@1VCUniBuffer@@A ; CDXUTIMEEditBox::s_CompString
	call	??0CUniBuffer@@QAE@H@Z			; CUniBuffer::CUniBuffer
	push	OFFSET ??__F?s_CompString@CDXUTIMEEditBox@@1VCUniBuffer@@A@@YAXXZ ; `dynamic atexit destructor for 'CDXUTIMEEditBox::s_CompString''
	call	_atexit
	add	esp, 4
	pop	edi
	pop	esi
	pop	ebx
	add	esp, 192				; 000000c0H
	cmp	ebp, esp
	call	__RTC_CheckEsp
	mov	esp, ebp
	pop	ebp
	ret	0
??__E?s_CompString@CDXUTIMEEditBox@@1VCUniBuffer@@A@@YAXXZ ENDP ; `dynamic initializer for 'CDXUTIMEEditBox::s_CompString''
text$di	ENDS
; Function compile flags: /Odtp /RTCsu /ZI
; File z:\sampsrc\02xu1\saco\d3d9\common\dxutgui.cpp
;	COMDAT ?RectHeight@@YAHAAUtagRECT@@@Z
_TEXT	SEGMENT
_rc$ = 8						; size = 4
?RectHeight@@YAHAAUtagRECT@@@Z PROC			; RectHeight, COMDAT

; 74   : inline int RectHeight( RECT &rc ) { return ( (rc).bottom - (rc).top ); }

	push	ebp
	mov	ebp, esp
	sub	esp, 192				; 000000c0H
	push	ebx
	push	esi
	push	edi
	lea	edi, DWORD PTR [ebp-192]
	mov	ecx, 48					; 00000030H
	mov	eax, -858993460				; ccccccccH
	rep stosd
	mov	eax, DWORD PTR _rc$[ebp]
	mov	ecx, DWORD PTR _rc$[ebp]
	mov	eax, DWORD PTR [eax+12]
	sub	eax, DWORD PTR [ecx+4]
	pop	edi
	pop	esi
	pop	ebx
	mov	esp, ebp
	pop	ebp
	ret	0
?RectHeight@@YAHAAUtagRECT@@@Z ENDP			; RectHeight
_TEXT	ENDS
; Function compile flags: /Odtp /RTCsu /ZI
; File z:\sampsrc\02xu1\saco\d3d9\common\dxutgui.cpp
;	COMDAT ?RectWidth@@YAHAAUtagRECT@@@Z
_TEXT	SEGMENT
_rc$ = 8						; size = 4
?RectWidth@@YAHAAUtagRECT@@@Z PROC			; RectWidth, COMDAT

; 73   : inline int RectWidth( RECT &rc ) { return ( (rc).right - (rc).left ); }

	push	ebp
	mov	ebp, esp
	sub	esp, 192				; 000000c0H
	push	ebx
	push	esi
	push	edi
	lea	edi, DWORD PTR [ebp-192]
	mov	ecx, 48					; 00000030H
	mov	eax, -858993460				; ccccccccH
	rep stosd
	mov	eax, DWORD PTR _rc$[ebp]
	mov	ecx, DWORD PTR _rc$[ebp]
	mov	eax, DWORD PTR [eax+8]
	sub	eax, DWORD PTR [ecx]
	pop	edi
	pop	esi
	pop	ebx
	mov	esp, ebp
	pop	ebp
	ret	0
?RectWidth@@YAHAAUtagRECT@@@Z ENDP			; RectWidth
_TEXT	ENDS
; Function compile flags: /Odtp /RTCsu /ZI
;	COMDAT ??_GCDXUTIMEEditBox@@UAEPAXI@Z
_TEXT	SEGMENT
_this$ = -8						; size = 4
___flags$ = 8						; size = 4
??_GCDXUTIMEEditBox@@UAEPAXI@Z PROC			; CDXUTIMEEditBox::`scalar deleting destructor', COMDAT
; _this$ = ecx
	push	ebp
	mov	ebp, esp
	sub	esp, 204				; 000000ccH
	push	ebx
	push	esi
	push	edi
	push	ecx
	lea	edi, DWORD PTR [ebp-204]
	mov	ecx, 51					; 00000033H
	mov	eax, -858993460				; ccccccccH
	rep stosd
	pop	ecx
	mov	DWORD PTR _this$[ebp], ecx
	mov	ecx, DWORD PTR _this$[ebp]
	call	??1CDXUTIMEEditBox@@UAE@XZ		; CDXUTIMEEditBox::~CDXUTIMEEditBox
	mov	eax, DWORD PTR ___flags$[ebp]
	and	eax, 1
	je	SHORT $LN1@scalar
	mov	eax, DWORD PTR _this$[ebp]
	push	eax
	call	??3@YAXPAX@Z				; operator delete
	add	esp, 4
$LN1@scalar:
	mov	eax, DWORD PTR _this$[ebp]
	pop	edi
	pop	esi
	pop	ebx
	add	esp, 204				; 000000ccH
	cmp	ebp, esp
	call	__RTC_CheckEsp
	mov	esp, ebp
	pop	ebp
	ret	4
??_GCDXUTIMEEditBox@@UAEPAXI@Z ENDP			; CDXUTIMEEditBox::`scalar deleting destructor'
_TEXT	ENDS
; Function compile flags: /Odtp /RTCsu /ZI
; File z:\sampsrc\02xu1\saco\d3d9\common\dxutmisc.h
;	COMDAT ?SetSizeInternal@?$CGrowableArray@UCInputLocale@CDXUTIMEEditBox@@@@IAEJH@Z
_TEXT	SEGMENT
tv91 = -232						; size = 4
tv85 = -232						; size = 4
_pDataNew$1 = -32					; size = 4
_nGrowBy$2 = -20					; size = 4
_this$ = -8						; size = 4
_nNewMaxSize$ = 8					; size = 4
?SetSizeInternal@?$CGrowableArray@UCInputLocale@CDXUTIMEEditBox@@@@IAEJH@Z PROC ; CGrowableArray<CDXUTIMEEditBox::CInputLocale>::SetSizeInternal, COMDAT
; _this$ = ecx

; 670  : {

	push	ebp
	mov	ebp, esp
	sub	esp, 232				; 000000e8H
	push	ebx
	push	esi
	push	edi
	push	ecx
	lea	edi, DWORD PTR [ebp-232]
	mov	ecx, 58					; 0000003aH
	mov	eax, -858993460				; ccccccccH
	rep stosd
	pop	ecx
	mov	DWORD PTR _this$[ebp], ecx

; 671  :     if( nNewMaxSize < 0 )

	cmp	DWORD PTR _nNewMaxSize$[ebp], 0
	jge	SHORT $LN7@SetSizeInt

; 672  :     {
; 673  :         assert( false );

	xor	eax, eax
	jne	SHORT $LN10@SetSizeInt
	push	673					; 000002a1H
	push	OFFSET ??_C@_1FK@FIMIDMPE@?$AAz?$AA?3?$AA?2?$AAs?$AAa?$AAm?$AAp?$AAs?$AAr?$AAc?$AA?2?$AA0?$AA2?$AAx?$AAu?$AA1?$AA?2?$AAs?$AAa?$AAc?$AAo?$AA?2?$AAd?$AA3?$AAd?$AA9?$AA?2?$AAc?$AAo?$AAm?$AAm?$AAo@
	push	OFFSET ??_C@_1M@HLGKFCJM@?$AAf?$AAa?$AAl?$AAs?$AAe?$AA?$AA@
	call	__wassert
	add	esp, 12					; 0000000cH
$LN10@SetSizeInt:

; 674  :         return E_INVALIDARG;

	mov	eax, -2147024809			; 80070057H
	jmp	$LN8@SetSizeInt
$LN7@SetSizeInt:

; 675  :     }
; 676  : 
; 677  :     if( nNewMaxSize == 0 )

	cmp	DWORD PTR _nNewMaxSize$[ebp], 0
	jne	SHORT $LN6@SetSizeInt

; 678  :     {
; 679  :         // Shrink to 0 size & cleanup
; 680  :         if( m_pData )

	mov	eax, DWORD PTR _this$[ebp]
	cmp	DWORD PTR [eax], 0
	je	SHORT $LN5@SetSizeInt

; 681  :         {
; 682  :             free( m_pData );

	mov	eax, DWORD PTR _this$[ebp]
	mov	ecx, DWORD PTR [eax]
	push	ecx
	call	_free
	add	esp, 4

; 683  :             m_pData = NULL;

	mov	eax, DWORD PTR _this$[ebp]
	mov	DWORD PTR [eax], 0
$LN5@SetSizeInt:

; 684  :         }
; 685  : 
; 686  :         m_nMaxSize = 0;

	mov	eax, DWORD PTR _this$[ebp]
	mov	DWORD PTR [eax+8], 0

; 687  :         m_nSize = 0;

	mov	eax, DWORD PTR _this$[ebp]
	mov	DWORD PTR [eax+4], 0
	jmp	$LN4@SetSizeInt
$LN6@SetSizeInt:

; 688  :     }
; 689  :     else if( m_pData == NULL || nNewMaxSize > m_nMaxSize )

	mov	eax, DWORD PTR _this$[ebp]
	cmp	DWORD PTR [eax], 0
	je	SHORT $LN2@SetSizeInt
	mov	eax, DWORD PTR _this$[ebp]
	mov	ecx, DWORD PTR _nNewMaxSize$[ebp]
	cmp	ecx, DWORD PTR [eax+8]
	jle	$LN4@SetSizeInt
$LN2@SetSizeInt:

; 690  :     {
; 691  :         // Grow array
; 692  :         int nGrowBy = ( m_nMaxSize == 0 ) ? 16 : m_nMaxSize;

	mov	eax, DWORD PTR _this$[ebp]
	cmp	DWORD PTR [eax+8], 0
	jne	SHORT $LN11@SetSizeInt
	mov	DWORD PTR tv85[ebp], 16			; 00000010H
	jmp	SHORT $LN12@SetSizeInt
$LN11@SetSizeInt:
	mov	ecx, DWORD PTR _this$[ebp]
	mov	edx, DWORD PTR [ecx+8]
	mov	DWORD PTR tv85[ebp], edx
$LN12@SetSizeInt:
	mov	eax, DWORD PTR tv85[ebp]
	mov	DWORD PTR _nGrowBy$2[ebp], eax

; 693  :         nNewMaxSize = __max( nNewMaxSize, m_nMaxSize + nGrowBy );

	mov	eax, DWORD PTR _this$[ebp]
	mov	ecx, DWORD PTR [eax+8]
	add	ecx, DWORD PTR _nGrowBy$2[ebp]
	cmp	DWORD PTR _nNewMaxSize$[ebp], ecx
	jle	SHORT $LN13@SetSizeInt
	mov	edx, DWORD PTR _nNewMaxSize$[ebp]
	mov	DWORD PTR tv91[ebp], edx
	jmp	SHORT $LN14@SetSizeInt
$LN13@SetSizeInt:
	mov	eax, DWORD PTR _this$[ebp]
	mov	ecx, DWORD PTR [eax+8]
	add	ecx, DWORD PTR _nGrowBy$2[ebp]
	mov	DWORD PTR tv91[ebp], ecx
$LN14@SetSizeInt:
	mov	edx, DWORD PTR tv91[ebp]
	mov	DWORD PTR _nNewMaxSize$[ebp], edx

; 694  : 
; 695  :         TYPE* pDataNew = (TYPE*) realloc( m_pData, nNewMaxSize * sizeof(TYPE) );

	imul	eax, DWORD PTR _nNewMaxSize$[ebp], 71
	push	eax
	mov	ecx, DWORD PTR _this$[ebp]
	mov	edx, DWORD PTR [ecx]
	push	edx
	call	_realloc
	add	esp, 8
	mov	DWORD PTR _pDataNew$1[ebp], eax

; 696  :         if( pDataNew == NULL )

	cmp	DWORD PTR _pDataNew$1[ebp], 0
	jne	SHORT $LN1@SetSizeInt

; 697  :             return E_OUTOFMEMORY;

	mov	eax, -2147024882			; 8007000eH
	jmp	SHORT $LN8@SetSizeInt
$LN1@SetSizeInt:

; 698  : 
; 699  :         m_pData = pDataNew;

	mov	eax, DWORD PTR _this$[ebp]
	mov	ecx, DWORD PTR _pDataNew$1[ebp]
	mov	DWORD PTR [eax], ecx

; 700  :         m_nMaxSize = nNewMaxSize;

	mov	eax, DWORD PTR _this$[ebp]
	mov	ecx, DWORD PTR _nNewMaxSize$[ebp]
	mov	DWORD PTR [eax+8], ecx
$LN4@SetSizeInt:

; 701  :     }
; 702  : 
; 703  :     return S_OK;

	xor	eax, eax
$LN8@SetSizeInt:

; 704  : }

	pop	edi
	pop	esi
	pop	ebx
	add	esp, 232				; 000000e8H
	cmp	ebp, esp
	call	__RTC_CheckEsp
	mov	esp, ebp
	pop	ebp
	ret	4
?SetSizeInternal@?$CGrowableArray@UCInputLocale@CDXUTIMEEditBox@@@@IAEJH@Z ENDP ; CGrowableArray<CDXUTIMEEditBox::CInputLocale>::SetSizeInternal
_TEXT	ENDS
; Function compile flags: /Odtp /RTCsu /ZI
; File z:\sampsrc\02xu1\saco\d3d9\common\dxutmisc.h
;	COMDAT ?RemoveAll@?$CGrowableArray@UCInputLocale@CDXUTIMEEditBox@@@@QAEXXZ
_TEXT	SEGMENT
_this$ = -8						; size = 4
?RemoveAll@?$CGrowableArray@UCInputLocale@CDXUTIMEEditBox@@@@QAEXXZ PROC ; CGrowableArray<CDXUTIMEEditBox::CInputLocale>::RemoveAll, COMDAT
; _this$ = ecx

; 47   :     void    RemoveAll() { SetSize(0); }

	push	ebp
	mov	ebp, esp
	sub	esp, 204				; 000000ccH
	push	ebx
	push	esi
	push	edi
	push	ecx
	lea	edi, DWORD PTR [ebp-204]
	mov	ecx, 51					; 00000033H
	mov	eax, -858993460				; ccccccccH
	rep stosd
	pop	ecx
	mov	DWORD PTR _this$[ebp], ecx
	push	0
	mov	ecx, DWORD PTR _this$[ebp]
	call	?SetSize@?$CGrowableArray@UCInputLocale@CDXUTIMEEditBox@@@@QAEJH@Z ; CGrowableArray<CDXUTIMEEditBox::CInputLocale>::SetSize
	pop	edi
	pop	esi
	pop	ebx
	add	esp, 204				; 000000ccH
	cmp	ebp, esp
	call	__RTC_CheckEsp
	mov	esp, ebp
	pop	ebp
	ret	0
?RemoveAll@?$CGrowableArray@UCInputLocale@CDXUTIMEEditBox@@@@QAEXXZ ENDP ; CGrowableArray<CDXUTIMEEditBox::CInputLocale>::RemoveAll
_TEXT	ENDS
; Function compile flags: /Odtp /RTCsu /ZI
; File z:\sampsrc\02xu1\saco\d3d9\common\dxutmisc.h
;	COMDAT ?GetSize@?$CGrowableArray@UCInputLocale@CDXUTIMEEditBox@@@@QBEHXZ
_TEXT	SEGMENT
_this$ = -8						; size = 4
?GetSize@?$CGrowableArray@UCInputLocale@CDXUTIMEEditBox@@@@QBEHXZ PROC ; CGrowableArray<CDXUTIMEEditBox::CInputLocale>::GetSize, COMDAT
; _this$ = ecx

; 34   :     int     GetSize() const { return m_nSize; }

	push	ebp
	mov	ebp, esp
	sub	esp, 204				; 000000ccH
	push	ebx
	push	esi
	push	edi
	push	ecx
	lea	edi, DWORD PTR [ebp-204]
	mov	ecx, 51					; 00000033H
	mov	eax, -858993460				; ccccccccH
	rep stosd
	pop	ecx
	mov	DWORD PTR _this$[ebp], ecx
	mov	eax, DWORD PTR _this$[ebp]
	mov	eax, DWORD PTR [eax+4]
	pop	edi
	pop	esi
	pop	ebx
	mov	esp, ebp
	pop	ebp
	ret	0
?GetSize@?$CGrowableArray@UCInputLocale@CDXUTIMEEditBox@@@@QBEHXZ ENDP ; CGrowableArray<CDXUTIMEEditBox::CInputLocale>::GetSize
_TEXT	ENDS
; Function compile flags: /Odtp /RTCsu /ZI
; File z:\sampsrc\02xu1\saco\d3d9\common\dxutmisc.h
;	COMDAT ?GetAt@?$CGrowableArray@UCInputLocale@CDXUTIMEEditBox@@@@QAEAAUCInputLocale@CDXUTIMEEditBox@@H@Z
_TEXT	SEGMENT
_this$ = -8						; size = 4
_nIndex$ = 8						; size = 4
?GetAt@?$CGrowableArray@UCInputLocale@CDXUTIMEEditBox@@@@QAEAAUCInputLocale@CDXUTIMEEditBox@@H@Z PROC ; CGrowableArray<CDXUTIMEEditBox::CInputLocale>::GetAt, COMDAT
; _this$ = ecx

; 33   :     TYPE&   GetAt( int nIndex ) { assert( nIndex >= 0 && nIndex < m_nSize ); return m_pData[nIndex]; }

	push	ebp
	mov	ebp, esp
	sub	esp, 204				; 000000ccH
	push	ebx
	push	esi
	push	edi
	push	ecx
	lea	edi, DWORD PTR [ebp-204]
	mov	ecx, 51					; 00000033H
	mov	eax, -858993460				; ccccccccH
	rep stosd
	pop	ecx
	mov	DWORD PTR _this$[ebp], ecx
	cmp	DWORD PTR _nIndex$[ebp], 0
	jl	SHORT $LN3@GetAt
	mov	eax, DWORD PTR _this$[ebp]
	mov	ecx, DWORD PTR _nIndex$[ebp]
	cmp	ecx, DWORD PTR [eax+4]
	jl	SHORT $LN4@GetAt
$LN3@GetAt:
	push	33					; 00000021H
	push	OFFSET ??_C@_1FK@FIMIDMPE@?$AAz?$AA?3?$AA?2?$AAs?$AAa?$AAm?$AAp?$AAs?$AAr?$AAc?$AA?2?$AA0?$AA2?$AAx?$AAu?$AA1?$AA?2?$AAs?$AAa?$AAc?$AAo?$AA?2?$AAd?$AA3?$AAd?$AA9?$AA?2?$AAc?$AAo?$AAm?$AAm?$AAo@
	push	OFFSET ??_C@_1EA@JHMKKLFC@?$AAn?$AAI?$AAn?$AAd?$AAe?$AAx?$AA?5?$AA?$DO?$AA?$DN?$AA?5?$AA0?$AA?5?$AA?$CG?$AA?$CG?$AA?5?$AAn?$AAI?$AAn?$AAd?$AAe?$AAx?$AA?5?$AA?$DM?$AA?5?$AAm?$AA_?$AAn?$AAS?$AAi?$AAz?$AAe?$AA?$AA@
	call	__wassert
	add	esp, 12					; 0000000cH
$LN4@GetAt:
	imul	eax, DWORD PTR _nIndex$[ebp], 71
	mov	ecx, DWORD PTR _this$[ebp]
	add	eax, DWORD PTR [ecx]
	pop	edi
	pop	esi
	pop	ebx
	add	esp, 204				; 000000ccH
	cmp	ebp, esp
	call	__RTC_CheckEsp
	mov	esp, ebp
	pop	ebp
	ret	4
?GetAt@?$CGrowableArray@UCInputLocale@CDXUTIMEEditBox@@@@QAEAAUCInputLocale@CDXUTIMEEditBox@@H@Z ENDP ; CGrowableArray<CDXUTIMEEditBox::CInputLocale>::GetAt
_TEXT	ENDS
; Function compile flags: /Odtp /RTCsu /ZI
; File z:\sampsrc\02xu1\saco\d3d9\common\dxutmisc.h
;	COMDAT ?Add@?$CGrowableArray@UCInputLocale@CDXUTIMEEditBox@@@@QAEJABUCInputLocale@CDXUTIMEEditBox@@@Z
_TEXT	SEGMENT
$T1 = -224						; size = 4
_hr$ = -20						; size = 4
_this$ = -8						; size = 4
_value$ = 8						; size = 4
?Add@?$CGrowableArray@UCInputLocale@CDXUTIMEEditBox@@@@QAEJABUCInputLocale@CDXUTIMEEditBox@@@Z PROC ; CGrowableArray<CDXUTIMEEditBox::CInputLocale>::Add, COMDAT
; _this$ = ecx

; 740  : {

	push	ebp
	mov	ebp, esp
	sub	esp, 228				; 000000e4H
	push	ebx
	push	esi
	push	edi
	push	ecx
	lea	edi, DWORD PTR [ebp-228]
	mov	ecx, 57					; 00000039H
	mov	eax, -858993460				; ccccccccH
	rep stosd
	pop	ecx
	mov	DWORD PTR _this$[ebp], ecx

; 741  :     HRESULT hr;
; 742  :     if( FAILED( hr = SetSizeInternal( m_nSize + 1 ) ) )

	mov	eax, DWORD PTR _this$[ebp]
	mov	ecx, DWORD PTR [eax+4]
	add	ecx, 1
	push	ecx
	mov	ecx, DWORD PTR _this$[ebp]
	call	?SetSizeInternal@?$CGrowableArray@UCInputLocale@CDXUTIMEEditBox@@@@IAEJH@Z ; CGrowableArray<CDXUTIMEEditBox::CInputLocale>::SetSizeInternal
	mov	DWORD PTR _hr$[ebp], eax
	cmp	DWORD PTR _hr$[ebp], 0
	jge	SHORT $LN1@Add

; 743  :         return hr;

	mov	eax, DWORD PTR _hr$[ebp]
	jmp	SHORT $LN2@Add
$LN1@Add:

; 744  : 
; 745  :     // Construct the new element
; 746  :     ::new (&m_pData[m_nSize]) TYPE;

	mov	eax, DWORD PTR _this$[ebp]
	imul	ecx, DWORD PTR [eax+4], 71
	mov	edx, DWORD PTR _this$[ebp]
	add	ecx, DWORD PTR [edx]
	push	ecx
	push	71					; 00000047H
	call	??2@YAPAXIPAX@Z				; operator new
	add	esp, 8
	mov	DWORD PTR $T1[ebp], eax

; 747  : 
; 748  :     // Assign
; 749  :     m_pData[m_nSize] = value;

	mov	eax, DWORD PTR _this$[ebp]
	imul	ecx, DWORD PTR [eax+4], 71
	mov	edx, DWORD PTR _this$[ebp]
	mov	edi, DWORD PTR [edx]
	add	edi, ecx
	mov	ecx, 17					; 00000011H
	mov	esi, DWORD PTR _value$[ebp]
	rep movsd
	movsw
	movsb

; 750  :     ++m_nSize;

	mov	eax, DWORD PTR _this$[ebp]
	mov	ecx, DWORD PTR [eax+4]
	add	ecx, 1
	mov	edx, DWORD PTR _this$[ebp]
	mov	DWORD PTR [edx+4], ecx

; 751  : 
; 752  :     return S_OK;

	xor	eax, eax
$LN2@Add:

; 753  : }

	pop	edi
	pop	esi
	pop	ebx
	add	esp, 228				; 000000e4H
	cmp	ebp, esp
	call	__RTC_CheckEsp
	mov	esp, ebp
	pop	ebp
	ret	4
?Add@?$CGrowableArray@UCInputLocale@CDXUTIMEEditBox@@@@QAEJABUCInputLocale@CDXUTIMEEditBox@@@Z ENDP ; CGrowableArray<CDXUTIMEEditBox::CInputLocale>::Add
_TEXT	ENDS
; Function compile flags: /Odtp /RTCsu /ZI
; File z:\sampsrc\02xu1\saco\d3d9\common\dxutmisc.h
;	COMDAT ?SetSize@?$CGrowableArray@UCInputLocale@CDXUTIMEEditBox@@@@QAEJH@Z
_TEXT	SEGMENT
$T1 = -260						; size = 4
_i$2 = -56						; size = 4
_hr$ = -44						; size = 4
_i$3 = -32						; size = 4
_nOldSize$ = -20					; size = 4
_this$ = -8						; size = 4
_nNewMaxSize$ = 8					; size = 4
?SetSize@?$CGrowableArray@UCInputLocale@CDXUTIMEEditBox@@@@QAEJH@Z PROC ; CGrowableArray<CDXUTIMEEditBox::CInputLocale>::SetSize, COMDAT
; _this$ = ecx

; 710  : {

	push	ebp
	mov	ebp, esp
	sub	esp, 264				; 00000108H
	push	ebx
	push	esi
	push	edi
	push	ecx
	lea	edi, DWORD PTR [ebp-264]
	mov	ecx, 66					; 00000042H
	mov	eax, -858993460				; ccccccccH
	rep stosd
	pop	ecx
	mov	DWORD PTR _this$[ebp], ecx

; 711  :     int nOldSize = m_nSize;

	mov	eax, DWORD PTR _this$[ebp]
	mov	ecx, DWORD PTR [eax+4]
	mov	DWORD PTR _nOldSize$[ebp], ecx

; 712  : 
; 713  :     if( nOldSize > nNewMaxSize )

	mov	eax, DWORD PTR _nOldSize$[ebp]
	cmp	eax, DWORD PTR _nNewMaxSize$[ebp]
	jle	SHORT $LN8@SetSize

; 714  :     {
; 715  :         // Removing elements. Call dtor.
; 716  : 
; 717  :         for( int i = nNewMaxSize; i < nOldSize; ++i )

	mov	eax, DWORD PTR _nNewMaxSize$[ebp]
	mov	DWORD PTR _i$3[ebp], eax
	jmp	SHORT $LN7@SetSize
$LN6@SetSize:
	mov	eax, DWORD PTR _i$3[ebp]
	add	eax, 1
	mov	DWORD PTR _i$3[ebp], eax
$LN7@SetSize:
	mov	eax, DWORD PTR _i$3[ebp]
	cmp	eax, DWORD PTR _nOldSize$[ebp]
	jge	SHORT $LN8@SetSize

; 718  :             m_pData[i].~TYPE();

	jmp	SHORT $LN6@SetSize
$LN8@SetSize:

; 719  :     }
; 720  : 
; 721  :     // Adjust buffer.  Note that there's no need to check for error
; 722  :     // since if it happens, nOldSize == nNewMaxSize will be true.)
; 723  :     HRESULT hr = SetSizeInternal( nNewMaxSize );

	mov	eax, DWORD PTR _nNewMaxSize$[ebp]
	push	eax
	mov	ecx, DWORD PTR _this$[ebp]
	call	?SetSizeInternal@?$CGrowableArray@UCInputLocale@CDXUTIMEEditBox@@@@IAEJH@Z ; CGrowableArray<CDXUTIMEEditBox::CInputLocale>::SetSizeInternal
	mov	DWORD PTR _hr$[ebp], eax

; 724  : 
; 725  :     if( nOldSize < nNewMaxSize )

	mov	eax, DWORD PTR _nOldSize$[ebp]
	cmp	eax, DWORD PTR _nNewMaxSize$[ebp]
	jge	SHORT $LN4@SetSize

; 726  :     {
; 727  :         // Adding elements. Call ctor.
; 728  : 
; 729  :         for( int i = nOldSize; i < nNewMaxSize; ++i )

	mov	eax, DWORD PTR _nOldSize$[ebp]
	mov	DWORD PTR _i$2[ebp], eax
	jmp	SHORT $LN3@SetSize
$LN2@SetSize:
	mov	eax, DWORD PTR _i$2[ebp]
	add	eax, 1
	mov	DWORD PTR _i$2[ebp], eax
$LN3@SetSize:
	mov	eax, DWORD PTR _i$2[ebp]
	cmp	eax, DWORD PTR _nNewMaxSize$[ebp]
	jge	SHORT $LN4@SetSize

; 730  :             ::new (&m_pData[i]) TYPE;

	imul	eax, DWORD PTR _i$2[ebp], 71
	mov	ecx, DWORD PTR _this$[ebp]
	add	eax, DWORD PTR [ecx]
	push	eax
	push	71					; 00000047H
	call	??2@YAPAXIPAX@Z				; operator new
	add	esp, 8
	mov	DWORD PTR $T1[ebp], eax
	jmp	SHORT $LN2@SetSize
$LN4@SetSize:

; 731  :     }
; 732  : 
; 733  :     return hr;

	mov	eax, DWORD PTR _hr$[ebp]

; 734  : }

	pop	edi
	pop	esi
	pop	ebx
	add	esp, 264				; 00000108H
	cmp	ebp, esp
	call	__RTC_CheckEsp
	mov	esp, ebp
	pop	ebp
	ret	4
?SetSize@?$CGrowableArray@UCInputLocale@CDXUTIMEEditBox@@@@QAEJH@Z ENDP ; CGrowableArray<CDXUTIMEEditBox::CInputLocale>::SetSize
_TEXT	ENDS
; Function compile flags: /Odtp /RTCsu /ZI
; File z:\sampsrc\02xu1\saco\d3d9\common\dxutmisc.h
;	COMDAT ??1?$CGrowableArray@UCInputLocale@CDXUTIMEEditBox@@@@QAE@XZ
_TEXT	SEGMENT
_this$ = -8						; size = 4
??1?$CGrowableArray@UCInputLocale@CDXUTIMEEditBox@@@@QAE@XZ PROC ; CGrowableArray<CDXUTIMEEditBox::CInputLocale>::~CGrowableArray<CDXUTIMEEditBox::CInputLocale>, COMDAT
; _this$ = ecx

; 22   :     ~CGrowableArray() { RemoveAll(); }

	push	ebp
	mov	ebp, esp
	sub	esp, 204				; 000000ccH
	push	ebx
	push	esi
	push	edi
	push	ecx
	lea	edi, DWORD PTR [ebp-204]
	mov	ecx, 51					; 00000033H
	mov	eax, -858993460				; ccccccccH
	rep stosd
	pop	ecx
	mov	DWORD PTR _this$[ebp], ecx
	mov	ecx, DWORD PTR _this$[ebp]
	call	?RemoveAll@?$CGrowableArray@UCInputLocale@CDXUTIMEEditBox@@@@QAEXXZ ; CGrowableArray<CDXUTIMEEditBox::CInputLocale>::RemoveAll
	pop	edi
	pop	esi
	pop	ebx
	add	esp, 204				; 000000ccH
	cmp	ebp, esp
	call	__RTC_CheckEsp
	mov	esp, ebp
	pop	ebp
	ret	0
??1?$CGrowableArray@UCInputLocale@CDXUTIMEEditBox@@@@QAE@XZ ENDP ; CGrowableArray<CDXUTIMEEditBox::CInputLocale>::~CGrowableArray<CDXUTIMEEditBox::CInputLocale>
_TEXT	ENDS
; Function compile flags: /Odtp /RTCsu /ZI
; File z:\sampsrc\02xu1\saco\d3d9\common\dxutmisc.h
;	COMDAT ??0?$CGrowableArray@UCInputLocale@CDXUTIMEEditBox@@@@QAE@XZ
_TEXT	SEGMENT
_this$ = -8						; size = 4
??0?$CGrowableArray@UCInputLocale@CDXUTIMEEditBox@@@@QAE@XZ PROC ; CGrowableArray<CDXUTIMEEditBox::CInputLocale>::CGrowableArray<CDXUTIMEEditBox::CInputLocale>, COMDAT
; _this$ = ecx

; 20   :     CGrowableArray()  { m_pData = NULL; m_nSize = 0; m_nMaxSize = 0; }

	push	ebp
	mov	ebp, esp
	sub	esp, 204				; 000000ccH
	push	ebx
	push	esi
	push	edi
	push	ecx
	lea	edi, DWORD PTR [ebp-204]
	mov	ecx, 51					; 00000033H
	mov	eax, -858993460				; ccccccccH
	rep stosd
	pop	ecx
	mov	DWORD PTR _this$[ebp], ecx
	mov	eax, DWORD PTR _this$[ebp]
	mov	DWORD PTR [eax], 0
	mov	eax, DWORD PTR _this$[ebp]
	mov	DWORD PTR [eax+4], 0
	mov	eax, DWORD PTR _this$[ebp]
	mov	DWORD PTR [eax+8], 0
	mov	eax, DWORD PTR _this$[ebp]
	pop	edi
	pop	esi
	pop	ebx
	mov	esp, ebp
	pop	ebp
	ret	0
??0?$CGrowableArray@UCInputLocale@CDXUTIMEEditBox@@@@QAE@XZ ENDP ; CGrowableArray<CDXUTIMEEditBox::CInputLocale>::CGrowableArray<CDXUTIMEEditBox::CInputLocale>
_TEXT	ENDS
; Function compile flags: /Odtp /RTCsu /ZI
;	COMDAT ??1CCandList@CDXUTIMEEditBox@@QAE@XZ
_TEXT	SEGMENT
_this$ = -8						; size = 4
??1CCandList@CDXUTIMEEditBox@@QAE@XZ PROC		; CDXUTIMEEditBox::CCandList::~CCandList, COMDAT
; _this$ = ecx
	push	ebp
	mov	ebp, esp
	sub	esp, 204				; 000000ccH
	push	ebx
	push	esi
	push	edi
	push	ecx
	lea	edi, DWORD PTR [ebp-204]
	mov	ecx, 51					; 00000033H
	mov	eax, -858993460				; ccccccccH
	rep stosd
	pop	ecx
	mov	DWORD PTR _this$[ebp], ecx
	mov	ecx, DWORD PTR _this$[ebp]
	add	ecx, 2560				; 00000a00H
	call	??1CUniBuffer@@QAE@XZ			; CUniBuffer::~CUniBuffer
	pop	edi
	pop	esi
	pop	ebx
	add	esp, 204				; 000000ccH
	cmp	ebp, esp
	call	__RTC_CheckEsp
	mov	esp, ebp
	pop	ebp
	ret	0
??1CCandList@CDXUTIMEEditBox@@QAE@XZ ENDP		; CDXUTIMEEditBox::CCandList::~CCandList
_TEXT	ENDS
; Function compile flags: /Odtp /RTCsu /ZI
;	COMDAT ??0CCandList@CDXUTIMEEditBox@@QAE@XZ
_TEXT	SEGMENT
_this$ = -8						; size = 4
??0CCandList@CDXUTIMEEditBox@@QAE@XZ PROC		; CDXUTIMEEditBox::CCandList::CCandList, COMDAT
; _this$ = ecx
	push	ebp
	mov	ebp, esp
	sub	esp, 204				; 000000ccH
	push	ebx
	push	esi
	push	edi
	push	ecx
	lea	edi, DWORD PTR [ebp-204]
	mov	ecx, 51					; 00000033H
	mov	eax, -858993460				; ccccccccH
	rep stosd
	pop	ecx
	mov	DWORD PTR _this$[ebp], ecx
	push	1
	mov	ecx, DWORD PTR _this$[ebp]
	add	ecx, 2560				; 00000a00H
	call	??0CUniBuffer@@QAE@H@Z			; CUniBuffer::CUniBuffer
	mov	eax, DWORD PTR _this$[ebp]
	pop	edi
	pop	esi
	pop	ebx
	add	esp, 204				; 000000ccH
	cmp	ebp, esp
	call	__RTC_CheckEsp
	mov	esp, ebp
	pop	ebp
	ret	0
??0CCandList@CDXUTIMEEditBox@@QAE@XZ ENDP		; CDXUTIMEEditBox::CCandList::CCandList
_TEXT	ENDS
; Function compile flags: /Odtp /RTCsu /ZI
; File z:\sampsrc\02xu1\saco\d3d9\common\dxutgui.cpp
;	COMDAT ?SendCompString@CDXUTIMEEditBox@@IAEXXZ
_TEXT	SEGMENT
_i$1 = -20						; size = 4
_this$ = -8						; size = 4
?SendCompString@CDXUTIMEEditBox@@IAEXXZ PROC		; CDXUTIMEEditBox::SendCompString, COMDAT
; _this$ = ecx

; 5888 : {

	push	ebp
	mov	ebp, esp
	sub	esp, 216				; 000000d8H
	push	ebx
	push	esi
	push	edi
	push	ecx
	lea	edi, DWORD PTR [ebp-216]
	mov	ecx, 54					; 00000036H
	mov	eax, -858993460				; ccccccccH
	rep stosd
	pop	ecx
	mov	DWORD PTR _this$[ebp], ecx

; 5889 :     for( int i = 0; i < lstrlen( s_CompString.GetBuffer() ); ++i )

	mov	DWORD PTR _i$1[ebp], 0
	jmp	SHORT $LN3@SendCompSt
$LN2@SendCompSt:
	mov	eax, DWORD PTR _i$1[ebp]
	add	eax, 1
	mov	DWORD PTR _i$1[ebp], eax
$LN3@SendCompSt:
	mov	ecx, OFFSET ?s_CompString@CDXUTIMEEditBox@@1VCUniBuffer@@A ; CDXUTIMEEditBox::s_CompString
	call	?GetBuffer@CUniBuffer@@QAEPBDXZ		; CUniBuffer::GetBuffer
	mov	esi, esp
	push	eax
	call	DWORD PTR __imp__lstrlenA@4
	cmp	esi, esp
	call	__RTC_CheckEsp
	cmp	DWORD PTR _i$1[ebp], eax
	jge	SHORT $LN4@SendCompSt

; 5890 :         MsgProc( WM_CHAR, (WPARAM)s_CompString[i], 0 );

	mov	esi, esp
	push	0
	mov	eax, DWORD PTR _i$1[ebp]
	push	eax
	mov	ecx, OFFSET ?s_CompString@CDXUTIMEEditBox@@1VCUniBuffer@@A ; CDXUTIMEEditBox::s_CompString
	call	??ACUniBuffer@@QAEAADH@Z		; CUniBuffer::operator[]
	movsx	ecx, BYTE PTR [eax]
	push	ecx
	push	258					; 00000102H
	mov	edx, DWORD PTR _this$[ebp]
	mov	eax, DWORD PTR [edx]
	mov	ecx, DWORD PTR _this$[ebp]
	mov	edx, DWORD PTR [eax+16]
	call	edx
	cmp	esi, esp
	call	__RTC_CheckEsp
	jmp	SHORT $LN2@SendCompSt
$LN4@SendCompSt:

; 5891 : }

	pop	edi
	pop	esi
	pop	ebx
	add	esp, 216				; 000000d8H
	cmp	ebp, esp
	call	__RTC_CheckEsp
	mov	esp, ebp
	pop	ebp
	ret	0
?SendCompString@CDXUTIMEEditBox@@IAEXXZ ENDP		; CDXUTIMEEditBox::SendCompString
_TEXT	ENDS
; Function compile flags: /Odtp /RTCsu /ZI
; File z:\sampsrc\02xu1\saco\d3d9\common\dxutgui.cpp
;	COMDAT ?GetPrivateReadingString@CDXUTIMEEditBox@@KAXXZ
_TEXT	SEGMENT
?GetPrivateReadingString@CDXUTIMEEditBox@@KAXXZ PROC	; CDXUTIMEEditBox::GetPrivateReadingString, COMDAT

; 5973 : {

	push	ebp
	mov	ebp, esp
	sub	esp, 192				; 000000c0H
	push	ebx
	push	esi
	push	edi
	lea	edi, DWORD PTR [ebp-192]
	mov	ecx, 48					; 00000030H
	mov	eax, -858993460				; ccccccccH
	rep stosd

; 5974 : 	return;
; 5975 : }

	pop	edi
	pop	esi
	pop	ebx
	mov	esp, ebp
	pop	ebp
	ret	0
?GetPrivateReadingString@CDXUTIMEEditBox@@KAXXZ ENDP	; CDXUTIMEEditBox::GetPrivateReadingString
_TEXT	ENDS
; Function compile flags: /Odtp /RTCsu /ZI
; File z:\sampsrc\02xu1\saco\d3d9\common\dxutgui.cpp
;	COMDAT ?GetReadingWindowOrientation@CDXUTIMEEditBox@@KAXK@Z
_TEXT	SEGMENT
tv79 = -540						; size = 4
tv67 = -540						; size = 4
_dwType$1 = -340					; size = 4
_dwMapping$2 = -328					; size = 4
_dwSize$3 = -316					; size = 4
_lRc$4 = -304						; size = 4
_dwVer$5 = -292						; size = 4
_hKey$6 = -280						; size = 4
_wszRegPath$7 = -268					; size = 260
__$ArrayPad$ = -4					; size = 4
_dwId$ = 8						; size = 4
?GetReadingWindowOrientation@CDXUTIMEEditBox@@KAXK@Z PROC ; CDXUTIMEEditBox::GetReadingWindowOrientation, COMDAT

; 5938 : {

	push	ebp
	mov	ebp, esp
	sub	esp, 540				; 0000021cH
	push	ebx
	push	esi
	push	edi
	lea	edi, DWORD PTR [ebp-540]
	mov	ecx, 135				; 00000087H
	mov	eax, -858993460				; ccccccccH
	rep stosd
	mov	eax, DWORD PTR ___security_cookie
	xor	eax, ebp
	mov	DWORD PTR __$ArrayPad$[ebp], eax

; 5939 :     s_bHorizontalReading = ( s_hklCurrent == _CHS_HKL ) || ( s_hklCurrent == _CHT_HKL2 ) || ( dwId == 0 );

	cmp	DWORD PTR ?s_hklCurrent@CDXUTIMEEditBox@@1PAUHKL__@@A, -535951356 ; CDXUTIMEEditBox::s_hklCurrent, e00e0804H
	je	SHORT $LN10@GetReading
	cmp	DWORD PTR ?s_hklCurrent@CDXUTIMEEditBox@@1PAUHKL__@@A, -536280060 ; CDXUTIMEEditBox::s_hklCurrent, e0090404H
	je	SHORT $LN10@GetReading
	cmp	DWORD PTR _dwId$[ebp], 0
	je	SHORT $LN10@GetReading
	mov	DWORD PTR tv67[ebp], 0
	jmp	SHORT $LN11@GetReading
$LN10@GetReading:
	mov	DWORD PTR tv67[ebp], 1
$LN11@GetReading:
	mov	al, BYTE PTR tv67[ebp]
	mov	BYTE PTR ?s_bHorizontalReading@CDXUTIMEEditBox@@1_NA, al ; CDXUTIMEEditBox::s_bHorizontalReading

; 5940 :     if( !s_bHorizontalReading && ( dwId & 0x0000FFFF ) == LANG_CHT )

	movzx	eax, BYTE PTR ?s_bHorizontalReading@CDXUTIMEEditBox@@1_NA ; CDXUTIMEEditBox::s_bHorizontalReading
	test	eax, eax
	jne	$LN8@GetReading
	mov	eax, DWORD PTR _dwId$[ebp]
	and	eax, 65535				; 0000ffffH
	cmp	eax, 1028				; 00000404H
	jne	$LN8@GetReading

; 5941 :     {
; 5942 :         TCHAR wszRegPath[MAX_PATH];
; 5943 :         HKEY hKey;
; 5944 :         DWORD dwVer = dwId & 0xFFFF0000;

	mov	eax, DWORD PTR _dwId$[ebp]
	and	eax, -65536				; ffff0000H
	mov	DWORD PTR _dwVer$5[ebp], eax

; 5945 :         StringCchCopy( wszRegPath, MAX_PATH, "software\\microsoft\\windows\\currentversion\\" );

	push	OFFSET ??_C@_0CL@PCFEMFCF@software?2microsoft?2windows?2curre@
	push	260					; 00000104H
	lea	eax, DWORD PTR _wszRegPath$7[ebp]
	push	eax
	call	?StringCchCopyA@@YGJPADIPBD@Z		; StringCchCopyA

; 5946 :         StringCchCat( wszRegPath, MAX_PATH, ( dwVer >= MAKEIMEVERSION( 5, 1 ) ) ? "MSTCIPH" : "TINTLGNT" );

	cmp	DWORD PTR _dwVer$5[ebp], 83951616	; 05010000H
	jb	SHORT $LN12@GetReading
	mov	DWORD PTR tv79[ebp], OFFSET ??_C@_07DEJAPC@MSTCIPH?$AA@
	jmp	SHORT $LN13@GetReading
$LN12@GetReading:
	mov	DWORD PTR tv79[ebp], OFFSET ??_C@_08LMKCILHO@TINTLGNT?$AA@
$LN13@GetReading:
	mov	eax, DWORD PTR tv79[ebp]
	push	eax
	push	260					; 00000104H
	lea	ecx, DWORD PTR _wszRegPath$7[ebp]
	push	ecx
	call	?StringCchCatA@@YGJPADIPBD@Z		; StringCchCatA

; 5947 :         LONG lRc = RegOpenKeyExA( HKEY_CURRENT_USER, wszRegPath, 0, KEY_READ, &hKey );

	mov	esi, esp
	lea	eax, DWORD PTR _hKey$6[ebp]
	push	eax
	push	131097					; 00020019H
	push	0
	lea	ecx, DWORD PTR _wszRegPath$7[ebp]
	push	ecx
	push	-2147483647				; 80000001H
	call	DWORD PTR __imp__RegOpenKeyExA@20
	cmp	esi, esp
	call	__RTC_CheckEsp
	mov	DWORD PTR _lRc$4[ebp], eax

; 5948 :         if (lRc == ERROR_SUCCESS)

	cmp	DWORD PTR _lRc$4[ebp], 0
	jne	$LN8@GetReading

; 5949 :         {
; 5950 :             DWORD dwSize = sizeof(DWORD), dwMapping, dwType;

	mov	DWORD PTR _dwSize$3[ebp], 4

; 5951 :             lRc = RegQueryValueExA( hKey, "Keyboard Mapping", NULL, &dwType, (PBYTE)&dwMapping, &dwSize );

	mov	esi, esp
	lea	eax, DWORD PTR _dwSize$3[ebp]
	push	eax
	lea	ecx, DWORD PTR _dwMapping$2[ebp]
	push	ecx
	lea	edx, DWORD PTR _dwType$1[ebp]
	push	edx
	push	0
	push	OFFSET ??_C@_0BB@KFOMJFEN@Keyboard?5Mapping?$AA@
	mov	eax, DWORD PTR _hKey$6[ebp]
	push	eax
	call	DWORD PTR __imp__RegQueryValueExA@24
	cmp	esi, esp
	call	__RTC_CheckEsp
	mov	DWORD PTR _lRc$4[ebp], eax

; 5952 :             if (lRc == ERROR_SUCCESS)

	cmp	DWORD PTR _lRc$4[ebp], 0
	jne	SHORT $LN5@GetReading

; 5953 :             {
; 5954 :                 if ( ( dwVer <= MAKEIMEVERSION( 5, 0 ) && 
; 5955 :                        ( (BYTE)dwMapping == 0x22 || (BYTE)dwMapping == 0x23 ) )
; 5956 :                      ||
; 5957 :                      ( ( dwVer == MAKEIMEVERSION( 5, 1 ) || dwVer == MAKEIMEVERSION( 5, 2 ) ) &&
; 5958 :                        (BYTE)dwMapping >= 0x22 && (BYTE)dwMapping <= 0x24 )
; 5959 :                    )

	cmp	DWORD PTR _dwVer$5[ebp], 83886080	; 05000000H
	ja	SHORT $LN2@GetReading
	movzx	eax, BYTE PTR _dwMapping$2[ebp]
	cmp	eax, 34					; 00000022H
	je	SHORT $LN3@GetReading
	movzx	eax, BYTE PTR _dwMapping$2[ebp]
	cmp	eax, 35					; 00000023H
	je	SHORT $LN3@GetReading
$LN2@GetReading:
	cmp	DWORD PTR _dwVer$5[ebp], 83951616	; 05010000H
	je	SHORT $LN1@GetReading
	cmp	DWORD PTR _dwVer$5[ebp], 84017152	; 05020000H
	jne	SHORT $LN5@GetReading
$LN1@GetReading:
	movzx	eax, BYTE PTR _dwMapping$2[ebp]
	cmp	eax, 34					; 00000022H
	jl	SHORT $LN5@GetReading
	movzx	eax, BYTE PTR _dwMapping$2[ebp]
	cmp	eax, 36					; 00000024H
	jg	SHORT $LN5@GetReading
$LN3@GetReading:

; 5960 :                 {
; 5961 :                     s_bHorizontalReading = true;

	mov	BYTE PTR ?s_bHorizontalReading@CDXUTIMEEditBox@@1_NA, 1 ; CDXUTIMEEditBox::s_bHorizontalReading
$LN5@GetReading:

; 5962 :                 }
; 5963 :             }
; 5964 :             RegCloseKey( hKey );

	mov	esi, esp
	mov	eax, DWORD PTR _hKey$6[ebp]
	push	eax
	call	DWORD PTR __imp__RegCloseKey@4
	cmp	esi, esp
	call	__RTC_CheckEsp
$LN8@GetReading:

; 5965 :         }
; 5966 :     }
; 5967 : }

	push	edx
	mov	ecx, ebp
	push	eax
	lea	edx, DWORD PTR $LN20@GetReading
	call	@_RTC_CheckStackVars@8
	pop	eax
	pop	edx
	pop	edi
	pop	esi
	pop	ebx
	mov	ecx, DWORD PTR __$ArrayPad$[ebp]
	xor	ecx, ebp
	call	@__security_check_cookie@4
	add	esp, 540				; 0000021cH
	cmp	ebp, esp
	call	__RTC_CheckEsp
	mov	esp, ebp
	pop	ebp
	ret	0
	npad	2
$LN20@GetReading:
	DD	5
	DD	$LN19@GetReading
$LN19@GetReading:
	DD	-268					; fffffef4H
	DD	260					; 00000104H
	DD	$LN14@GetReading
	DD	-280					; fffffee8H
	DD	4
	DD	$LN15@GetReading
	DD	-316					; fffffec4H
	DD	4
	DD	$LN16@GetReading
	DD	-328					; fffffeb8H
	DD	4
	DD	$LN17@GetReading
	DD	-340					; fffffeacH
	DD	4
	DD	$LN18@GetReading
$LN18@GetReading:
	DB	100					; 00000064H
	DB	119					; 00000077H
	DB	84					; 00000054H
	DB	121					; 00000079H
	DB	112					; 00000070H
	DB	101					; 00000065H
	DB	0
$LN17@GetReading:
	DB	100					; 00000064H
	DB	119					; 00000077H
	DB	77					; 0000004dH
	DB	97					; 00000061H
	DB	112					; 00000070H
	DB	112					; 00000070H
	DB	105					; 00000069H
	DB	110					; 0000006eH
	DB	103					; 00000067H
	DB	0
$LN16@GetReading:
	DB	100					; 00000064H
	DB	119					; 00000077H
	DB	83					; 00000053H
	DB	105					; 00000069H
	DB	122					; 0000007aH
	DB	101					; 00000065H
	DB	0
$LN15@GetReading:
	DB	104					; 00000068H
	DB	75					; 0000004bH
	DB	101					; 00000065H
	DB	121					; 00000079H
	DB	0
$LN14@GetReading:
	DB	119					; 00000077H
	DB	115					; 00000073H
	DB	122					; 0000007aH
	DB	82					; 00000052H
	DB	101					; 00000065H
	DB	103					; 00000067H
	DB	80					; 00000050H
	DB	97					; 00000061H
	DB	116					; 00000074H
	DB	104					; 00000068H
	DB	0
?GetReadingWindowOrientation@CDXUTIMEEditBox@@KAXK@Z ENDP ; CDXUTIMEEditBox::GetReadingWindowOrientation
_TEXT	ENDS
; Function compile flags: /Odtp /RTCsu /ZI
; File z:\sampsrc\02xu1\saco\d3d9\common\dxutgui.cpp
;	COMDAT ?FinalizeString@CDXUTIMEEditBox@@IAEX_N@Z
_TEXT	SEGMENT
_lLength$1 = -32					; size = 4
_hImc$ = -20						; size = 4
_this$ = -8						; size = 4
_bSend$ = 8						; size = 1
?FinalizeString@CDXUTIMEEditBox@@IAEX_N@Z PROC		; CDXUTIMEEditBox::FinalizeString, COMDAT
; _this$ = ecx

; 5897 : {

	push	ebp
	mov	ebp, esp
	sub	esp, 228				; 000000e4H
	push	ebx
	push	esi
	push	edi
	push	ecx
	lea	edi, DWORD PTR [ebp-228]
	mov	ecx, 57					; 00000039H
	mov	eax, -858993460				; ccccccccH
	rep stosd
	pop	ecx
	mov	DWORD PTR _this$[ebp], ecx

; 5898 :     HIMC hImc;
; 5899 :     if( NULL == ( hImc = _ImmGetContext( DXUTGetHWND() ) ) )

	call	?DXUTGetHWND@@YAPAUHWND__@@XZ		; DXUTGetHWND
	mov	esi, esp
	push	eax
	call	DWORD PTR ?_ImmGetContext@CDXUTIMEEditBox@@1P6GPAUHIMC__@@PAUHWND__@@@ZA ; CDXUTIMEEditBox::_ImmGetContext
	cmp	esi, esp
	call	__RTC_CheckEsp
	mov	DWORD PTR _hImc$[ebp], eax
	cmp	DWORD PTR _hImc$[ebp], 0
	jne	SHORT $LN4@FinalizeSt

; 5900 :         return;

	jmp	$LN5@FinalizeSt
$LN4@FinalizeSt:

; 5901 : 
; 5902 :     static bool bProcessing = false;
; 5903 :     if( bProcessing )    // avoid infinite recursion

	movzx	eax, BYTE PTR ?bProcessing@?3??FinalizeString@CDXUTIMEEditBox@@IAEX_N@Z@4_NA
	test	eax, eax
	je	SHORT $LN3@FinalizeSt

; 5904 :     {
; 5905 :         DXUTTRACE( "CDXUTIMEEditBox::FinalizeString: Reentrant detected!\n" );

	push	OFFSET ??_C@_0DG@PFMNNKP@CDXUTIMEEditBox?3?3FinalizeString?3@
	call	?DXUTOutputDebugStringA@@YAXPBDZZ	; DXUTOutputDebugStringA
	add	esp, 4

; 5906 :         _ImmReleaseContext( DXUTGetHWND(), hImc );

	mov	esi, esp
	mov	eax, DWORD PTR _hImc$[ebp]
	push	eax
	call	?DXUTGetHWND@@YAPAUHWND__@@XZ		; DXUTGetHWND
	push	eax
	call	DWORD PTR ?_ImmReleaseContext@CDXUTIMEEditBox@@1P6GHPAUHWND__@@PAUHIMC__@@@ZA ; CDXUTIMEEditBox::_ImmReleaseContext
	cmp	esi, esp
	call	__RTC_CheckEsp

; 5907 :         return;

	jmp	$LN5@FinalizeSt
$LN3@FinalizeSt:

; 5908 :     }
; 5909 :     bProcessing = true;

	mov	BYTE PTR ?bProcessing@?3??FinalizeString@CDXUTIMEEditBox@@IAEX_N@Z@4_NA, 1

; 5910 : 
; 5911 :     if( !s_bInsertOnType && bSend )

	movzx	eax, BYTE PTR ?s_bInsertOnType@CDXUTIMEEditBox@@1_NA ; CDXUTIMEEditBox::s_bInsertOnType
	test	eax, eax
	jne	SHORT $LN2@FinalizeSt
	movzx	eax, BYTE PTR _bSend$[ebp]
	test	eax, eax
	je	SHORT $LN2@FinalizeSt

; 5912 :     {
; 5913 :         // Send composition string to app.
; 5914 :         LONG lLength = lstrlen( s_CompString.GetBuffer() );

	mov	ecx, OFFSET ?s_CompString@CDXUTIMEEditBox@@1VCUniBuffer@@A ; CDXUTIMEEditBox::s_CompString
	call	?GetBuffer@CUniBuffer@@QAEPBDXZ		; CUniBuffer::GetBuffer
	mov	esi, esp
	push	eax
	call	DWORD PTR __imp__lstrlenA@4
	cmp	esi, esp
	call	__RTC_CheckEsp
	mov	DWORD PTR _lLength$1[ebp], eax

; 5915 :         // In case of CHT IME, don't send the trailing double byte space, if it exists.
; 5916 :         if( GetLanguage() == LANG_CHT
; 5917 :             && s_CompString[lLength - 1] == 0x3000 )

	call	?GetLanguage@CDXUTIMEEditBox@@KAGXZ	; CDXUTIMEEditBox::GetLanguage
	movzx	eax, ax
	cmp	eax, 1028				; 00000404H
	jne	SHORT $LN1@FinalizeSt
	mov	eax, DWORD PTR _lLength$1[ebp]
	sub	eax, 1
	push	eax
	mov	ecx, OFFSET ?s_CompString@CDXUTIMEEditBox@@1VCUniBuffer@@A ; CDXUTIMEEditBox::s_CompString
	call	??ACUniBuffer@@QAEAADH@Z		; CUniBuffer::operator[]
	movsx	ecx, BYTE PTR [eax]
	cmp	ecx, 12288				; 00003000H
	jne	SHORT $LN1@FinalizeSt

; 5918 :         {
; 5919 :             s_CompString[lLength - 1] = 0;

	mov	eax, DWORD PTR _lLength$1[ebp]
	sub	eax, 1
	push	eax
	mov	ecx, OFFSET ?s_CompString@CDXUTIMEEditBox@@1VCUniBuffer@@A ; CDXUTIMEEditBox::s_CompString
	call	??ACUniBuffer@@QAEAADH@Z		; CUniBuffer::operator[]
	mov	BYTE PTR [eax], 0
$LN1@FinalizeSt:

; 5920 :         }
; 5921 :         SendCompString();

	mov	ecx, DWORD PTR _this$[ebp]
	call	?SendCompString@CDXUTIMEEditBox@@IAEXXZ	; CDXUTIMEEditBox::SendCompString
$LN2@FinalizeSt:

; 5922 :     }
; 5923 : 
; 5924 :     ResetCompositionString();

	call	?ResetCompositionString@CDXUTIMEEditBox@@KAXXZ ; CDXUTIMEEditBox::ResetCompositionString

; 5925 :     // Clear composition string in IME
; 5926 :     _ImmNotifyIME( hImc, NI_COMPOSITIONSTR, CPS_CANCEL, 0 );

	mov	esi, esp
	push	0
	push	4
	push	21					; 00000015H
	mov	eax, DWORD PTR _hImc$[ebp]
	push	eax
	call	DWORD PTR ?_ImmNotifyIME@CDXUTIMEEditBox@@1P6GHPAUHIMC__@@KKK@ZA ; CDXUTIMEEditBox::_ImmNotifyIME
	cmp	esi, esp
	call	__RTC_CheckEsp

; 5927 :     // the following line is necessary as Korean IME doesn't close cand list
; 5928 :     // when comp string is cancelled.
; 5929 :     _ImmNotifyIME( hImc, NI_CLOSECANDIDATE, 0, 0 ); 

	mov	esi, esp
	push	0
	push	0
	push	17					; 00000011H
	mov	eax, DWORD PTR _hImc$[ebp]
	push	eax
	call	DWORD PTR ?_ImmNotifyIME@CDXUTIMEEditBox@@1P6GHPAUHIMC__@@KKK@ZA ; CDXUTIMEEditBox::_ImmNotifyIME
	cmp	esi, esp
	call	__RTC_CheckEsp

; 5930 :     _ImmReleaseContext( DXUTGetHWND(), hImc );

	mov	esi, esp
	mov	eax, DWORD PTR _hImc$[ebp]
	push	eax
	call	?DXUTGetHWND@@YAPAUHWND__@@XZ		; DXUTGetHWND
	push	eax
	call	DWORD PTR ?_ImmReleaseContext@CDXUTIMEEditBox@@1P6GHPAUHWND__@@PAUHIMC__@@@ZA ; CDXUTIMEEditBox::_ImmReleaseContext
	cmp	esi, esp
	call	__RTC_CheckEsp

; 5931 :     bProcessing = false;

	mov	BYTE PTR ?bProcessing@?3??FinalizeString@CDXUTIMEEditBox@@IAEX_N@Z@4_NA, 0
$LN5@FinalizeSt:

; 5932 : }

	pop	edi
	pop	esi
	pop	ebx
	add	esp, 228				; 000000e4H
	cmp	ebp, esp
	call	__RTC_CheckEsp
	mov	esp, ebp
	pop	ebp
	ret	4
?FinalizeString@CDXUTIMEEditBox@@IAEX_N@Z ENDP		; CDXUTIMEEditBox::FinalizeString
_TEXT	ENDS
; Function compile flags: /Odtp /RTCsu /ZI
; File z:\sampsrc\02xu1\saco\d3d9\common\dxutgui.cpp
;	COMDAT ?TruncateCompString@CDXUTIMEEditBox@@IAEX_NH@Z
_TEXT	SEGMENT
_i$1 = -56						; size = 4
_i$2 = -44						; size = 4
_i$3 = -32						; size = 4
_cc$ = -20						; size = 4
_this$ = -8						; size = 4
_bUseBackSpace$ = 8					; size = 1
_iNewStrLen$ = 12					; size = 4
?TruncateCompString@CDXUTIMEEditBox@@IAEX_NH@Z PROC	; CDXUTIMEEditBox::TruncateCompString, COMDAT
; _this$ = ecx

; 5842 : {

	push	ebp
	mov	ebp, esp
	sub	esp, 252				; 000000fcH
	push	ebx
	push	esi
	push	edi
	push	ecx
	lea	edi, DWORD PTR [ebp-252]
	mov	ecx, 63					; 0000003fH
	mov	eax, -858993460				; ccccccccH
	rep stosd
	pop	ecx
	mov	DWORD PTR _this$[ebp], ecx

; 5843 :     if( !s_bInsertOnType )

	movzx	eax, BYTE PTR ?s_bInsertOnType@CDXUTIMEEditBox@@1_NA ; CDXUTIMEEditBox::s_bInsertOnType
	test	eax, eax
	jne	SHORT $LN14@TruncateCo

; 5844 :         return;

	jmp	$LN15@TruncateCo
$LN14@TruncateCo:

; 5845 : 
; 5846 :     int cc = (int) strlen( s_CompString.GetBuffer() );

	mov	ecx, OFFSET ?s_CompString@CDXUTIMEEditBox@@1VCUniBuffer@@A ; CDXUTIMEEditBox::s_CompString
	call	?GetBuffer@CUniBuffer@@QAEPBDXZ		; CUniBuffer::GetBuffer
	push	eax
	call	_strlen
	add	esp, 4
	mov	DWORD PTR _cc$[ebp], eax

; 5847 :     assert( iNewStrLen == 0 || iNewStrLen >= cc );

	cmp	DWORD PTR _iNewStrLen$[ebp], 0
	je	SHORT $LN17@TruncateCo
	mov	eax, DWORD PTR _iNewStrLen$[ebp]
	cmp	eax, DWORD PTR _cc$[ebp]
	jge	SHORT $LN17@TruncateCo
	mov	ecx, DWORD PTR ?__LINE__Var@?1??TruncateCompString@CDXUTIMEEditBox@@IAEX_NH@Z@4JA
	add	ecx, 5
	push	ecx
	push	OFFSET ??_C@_1FM@FMACGJEA@?$AAz?$AA?3?$AA?2?$AAs?$AAa?$AAm?$AAp?$AAs?$AAr?$AAc?$AA?2?$AA0?$AA2?$AAx?$AAu?$AA1?$AA?2?$AAs?$AAa?$AAc?$AAo?$AA?2?$AAd?$AA3?$AAd?$AA9?$AA?2?$AAc?$AAo?$AAm?$AAm?$AAo@
	push	OFFSET ??_C@_1EI@PNFNGNLA@?$AAi?$AAN?$AAe?$AAw?$AAS?$AAt?$AAr?$AAL?$AAe?$AAn?$AA?5?$AA?$DN?$AA?$DN?$AA?5?$AA0?$AA?5?$AA?$HM?$AA?$HM?$AA?5?$AAi?$AAN?$AAe?$AAw?$AAS?$AAt?$AAr?$AAL?$AAe?$AAn?$AA?5?$AA?$DO?$AA?$DN@
	call	__wassert
	add	esp, 12					; 0000000cH
$LN17@TruncateCo:

; 5848 : 
; 5849 :     // Send right arrow keystrokes to move the caret
; 5850 :     //   to the end of the composition string.
; 5851 :     for (int i = 0; i < cc - s_nCompCaret; ++i )

	mov	DWORD PTR _i$3[ebp], 0
	jmp	SHORT $LN13@TruncateCo
$LN12@TruncateCo:
	mov	eax, DWORD PTR _i$3[ebp]
	add	eax, 1
	mov	DWORD PTR _i$3[ebp], eax
$LN13@TruncateCo:
	mov	eax, DWORD PTR _cc$[ebp]
	sub	eax, DWORD PTR ?s_nCompCaret@CDXUTIMEEditBox@@1HA ; CDXUTIMEEditBox::s_nCompCaret
	cmp	DWORD PTR _i$3[ebp], eax
	jge	SHORT $LN11@TruncateCo

; 5852 :         SendMessage( DXUTGetHWND(), WM_KEYDOWN, VK_RIGHT, 0 );

	mov	esi, esp
	push	0
	push	39					; 00000027H
	push	256					; 00000100H
	call	?DXUTGetHWND@@YAPAUHWND__@@XZ		; DXUTGetHWND
	push	eax
	call	DWORD PTR __imp__SendMessageA@16
	cmp	esi, esp
	call	__RTC_CheckEsp
	jmp	SHORT $LN12@TruncateCo
$LN11@TruncateCo:

; 5853 :     SendMessage( DXUTGetHWND(), WM_KEYUP, VK_RIGHT, 0 );

	mov	esi, esp
	push	0
	push	39					; 00000027H
	push	257					; 00000101H
	call	?DXUTGetHWND@@YAPAUHWND__@@XZ		; DXUTGetHWND
	push	eax
	call	DWORD PTR __imp__SendMessageA@16
	cmp	esi, esp
	call	__RTC_CheckEsp

; 5854 : 
; 5855 :     if( bUseBackSpace || m_bInsertMode )

	movzx	eax, BYTE PTR _bUseBackSpace$[ebp]
	test	eax, eax
	jne	SHORT $LN9@TruncateCo
	mov	eax, DWORD PTR _this$[ebp]
	movzx	ecx, BYTE PTR [eax+283]
	test	ecx, ecx
	je	SHORT $LN10@TruncateCo
$LN9@TruncateCo:

; 5856 :         iNewStrLen = 0;

	mov	DWORD PTR _iNewStrLen$[ebp], 0
$LN10@TruncateCo:

; 5857 : 
; 5858 :     // The caller sets bUseBackSpace to false if there's possibility of sending
; 5859 :     // new composition string to the app right after this function call.
; 5860 :     // 
; 5861 :     // If the app is in overwriting mode and new comp string is 
; 5862 :     // shorter than current one, delete previous comp string 
; 5863 :     // till it's same long as the new one. Then move caret to the beginning of comp string.
; 5864 :     // New comp string will overwrite old one.
; 5865 :     if( iNewStrLen < cc )

	mov	eax, DWORD PTR _iNewStrLen$[ebp]
	cmp	eax, DWORD PTR _cc$[ebp]
	jge	SHORT $LN8@TruncateCo

; 5866 :     {
; 5867 :         for( int i = 0; i < cc - iNewStrLen; ++i )

	mov	DWORD PTR _i$2[ebp], 0
	jmp	SHORT $LN7@TruncateCo
$LN6@TruncateCo:
	mov	eax, DWORD PTR _i$2[ebp]
	add	eax, 1
	mov	DWORD PTR _i$2[ebp], eax
$LN7@TruncateCo:
	mov	eax, DWORD PTR _cc$[ebp]
	sub	eax, DWORD PTR _iNewStrLen$[ebp]
	cmp	DWORD PTR _i$2[ebp], eax
	jge	SHORT $LN5@TruncateCo

; 5868 :         {
; 5869 :             SendMessage( DXUTGetHWND(), WM_KEYDOWN, VK_BACK, 0 );  // Backspace character

	mov	esi, esp
	push	0
	push	8
	push	256					; 00000100H
	call	?DXUTGetHWND@@YAPAUHWND__@@XZ		; DXUTGetHWND
	push	eax
	call	DWORD PTR __imp__SendMessageA@16
	cmp	esi, esp
	call	__RTC_CheckEsp

; 5870 :             SendMessageW( DXUTGetHWND(), WM_CHAR, VK_BACK, 0 );

	mov	esi, esp
	push	0
	push	8
	push	258					; 00000102H
	call	?DXUTGetHWND@@YAPAUHWND__@@XZ		; DXUTGetHWND
	push	eax
	call	DWORD PTR __imp__SendMessageW@16
	cmp	esi, esp
	call	__RTC_CheckEsp

; 5871 :         }

	jmp	SHORT $LN6@TruncateCo
$LN5@TruncateCo:

; 5872 :         SendMessage( DXUTGetHWND(), WM_KEYUP, VK_BACK, 0 );

	mov	esi, esp
	push	0
	push	8
	push	257					; 00000101H
	call	?DXUTGetHWND@@YAPAUHWND__@@XZ		; DXUTGetHWND
	push	eax
	call	DWORD PTR __imp__SendMessageA@16
	cmp	esi, esp
	call	__RTC_CheckEsp

; 5873 :     }
; 5874 :     else

	jmp	SHORT $LN4@TruncateCo
$LN8@TruncateCo:

; 5875 :         iNewStrLen = cc;

	mov	eax, DWORD PTR _cc$[ebp]
	mov	DWORD PTR _iNewStrLen$[ebp], eax
$LN4@TruncateCo:

; 5876 : 
; 5877 :     // Move the caret to the beginning by sending left keystrokes
; 5878 :     for (int i = 0; i < iNewStrLen; ++i )

	mov	DWORD PTR _i$1[ebp], 0
	jmp	SHORT $LN3@TruncateCo
$LN2@TruncateCo:
	mov	eax, DWORD PTR _i$1[ebp]
	add	eax, 1
	mov	DWORD PTR _i$1[ebp], eax
$LN3@TruncateCo:
	mov	eax, DWORD PTR _i$1[ebp]
	cmp	eax, DWORD PTR _iNewStrLen$[ebp]
	jge	SHORT $LN1@TruncateCo

; 5879 :         SendMessage( DXUTGetHWND(), WM_KEYDOWN, VK_LEFT, 0 );

	mov	esi, esp
	push	0
	push	37					; 00000025H
	push	256					; 00000100H
	call	?DXUTGetHWND@@YAPAUHWND__@@XZ		; DXUTGetHWND
	push	eax
	call	DWORD PTR __imp__SendMessageA@16
	cmp	esi, esp
	call	__RTC_CheckEsp
	jmp	SHORT $LN2@TruncateCo
$LN1@TruncateCo:

; 5880 :     SendMessage( DXUTGetHWND(), WM_KEYUP, VK_LEFT, 0 );

	mov	esi, esp
	push	0
	push	37					; 00000025H
	push	257					; 00000101H
	call	?DXUTGetHWND@@YAPAUHWND__@@XZ		; DXUTGetHWND
	push	eax
	call	DWORD PTR __imp__SendMessageA@16
	cmp	esi, esp
	call	__RTC_CheckEsp
$LN15@TruncateCo:

; 5881 : }

	pop	edi
	pop	esi
	pop	ebx
	add	esp, 252				; 000000fcH
	cmp	ebp, esp
	call	__RTC_CheckEsp
	mov	esp, ebp
	pop	ebp
	ret	8
?TruncateCompString@CDXUTIMEEditBox@@IAEX_NH@Z ENDP	; CDXUTIMEEditBox::TruncateCompString
_TEXT	ENDS
; Function compile flags: /Odtp /RTCsu /ZI
; File z:\sampsrc\02xu1\saco\d3d9\common\dxutgui.cpp
;	COMDAT ?ResetCompositionString@CDXUTIMEEditBox@@KAXXZ
_TEXT	SEGMENT
?ResetCompositionString@CDXUTIMEEditBox@@KAXXZ PROC	; CDXUTIMEEditBox::ResetCompositionString, COMDAT

; 5832 : {

	push	ebp
	mov	ebp, esp
	sub	esp, 192				; 000000c0H
	push	ebx
	push	esi
	push	edi
	lea	edi, DWORD PTR [ebp-192]
	mov	ecx, 48					; 00000030H
	mov	eax, -858993460				; ccccccccH
	rep stosd

; 5833 :     s_nCompCaret = 0;

	mov	DWORD PTR ?s_nCompCaret@CDXUTIMEEditBox@@1HA, 0 ; CDXUTIMEEditBox::s_nCompCaret

; 5834 :     s_CompString.SetText( "" );

	push	OFFSET ??_C@_00CNPNBAHC@?$AA@
	mov	ecx, OFFSET ?s_CompString@CDXUTIMEEditBox@@1VCUniBuffer@@A ; CDXUTIMEEditBox::s_CompString
	call	?SetText@CUniBuffer@@QAE_NPBD@Z		; CUniBuffer::SetText

; 5835 :     ZeroMemory( s_abCompStringAttr, sizeof(s_abCompStringAttr) );

	push	256					; 00000100H
	push	0
	push	OFFSET ?s_abCompStringAttr@CDXUTIMEEditBox@@1PAEA ; CDXUTIMEEditBox::s_abCompStringAttr
	call	_memset
	add	esp, 12					; 0000000cH

; 5836 : }

	pop	edi
	pop	esi
	pop	ebx
	add	esp, 192				; 000000c0H
	cmp	ebp, esp
	call	__RTC_CheckEsp
	mov	esp, ebp
	pop	ebp
	ret	0
?ResetCompositionString@CDXUTIMEEditBox@@KAXXZ ENDP	; CDXUTIMEEditBox::ResetCompositionString
_TEXT	ENDS
; Function compile flags: /Odtp /RTCsu /ZI
; File z:\sampsrc\02xu1\saco\d3d9\common\dxutgui.cpp
;	COMDAT ?SetupImeApi@CDXUTIMEEditBox@@KAXXZ
_TEXT	SEGMENT
_szImeFile$ = -272					; size = 261
__$ArrayPad$ = -4					; size = 4
?SetupImeApi@CDXUTIMEEditBox@@KAXXZ PROC		; CDXUTIMEEditBox::SetupImeApi, COMDAT

; 5810 : {

	push	ebp
	mov	ebp, esp
	sub	esp, 468				; 000001d4H
	push	ebx
	push	esi
	push	edi
	lea	edi, DWORD PTR [ebp-468]
	mov	ecx, 117				; 00000075H
	mov	eax, -858993460				; ccccccccH
	rep stosd
	mov	eax, DWORD PTR ___security_cookie
	xor	eax, ebp
	mov	DWORD PTR __$ArrayPad$[ebp], eax

; 5811 :     char szImeFile[MAX_PATH + 1];
; 5812 : 
; 5813 :     _GetReadingString = NULL;

	mov	DWORD PTR ?_GetReadingString@CDXUTIMEEditBox@@1P6GIPAUHIMC__@@IPADPAH2PAI@ZA, 0 ; CDXUTIMEEditBox::_GetReadingString

; 5814 :     _ShowReadingWindow = NULL;

	mov	DWORD PTR ?_ShowReadingWindow@CDXUTIMEEditBox@@1P6GHPAUHIMC__@@H@ZA, 0 ; CDXUTIMEEditBox::_ShowReadingWindow

; 5815 :     if( _ImmGetIMEFileNameA( s_hklCurrent, szImeFile, sizeof(szImeFile)/sizeof(szImeFile[0]) - 1 ) == 0 )

	mov	esi, esp
	push	260					; 00000104H
	lea	eax, DWORD PTR _szImeFile$[ebp]
	push	eax
	mov	ecx, DWORD PTR ?s_hklCurrent@CDXUTIMEEditBox@@1PAUHKL__@@A ; CDXUTIMEEditBox::s_hklCurrent
	push	ecx
	call	DWORD PTR ?_ImmGetIMEFileNameA@CDXUTIMEEditBox@@1P6GIPAUHKL__@@PADI@ZA ; CDXUTIMEEditBox::_ImmGetIMEFileNameA
	cmp	esi, esp
	call	__RTC_CheckEsp
	test	eax, eax
	jne	SHORT $LN3@SetupImeAp

; 5816 :         return;

	jmp	$LN4@SetupImeAp
$LN3@SetupImeAp:

; 5817 : 
; 5818 :     if( s_hDllIme ) FreeLibrary( s_hDllIme );

	cmp	DWORD PTR ?s_hDllIme@CDXUTIMEEditBox@@1PAUHINSTANCE__@@A, 0 ; CDXUTIMEEditBox::s_hDllIme
	je	SHORT $LN2@SetupImeAp
	mov	esi, esp
	mov	eax, DWORD PTR ?s_hDllIme@CDXUTIMEEditBox@@1PAUHINSTANCE__@@A ; CDXUTIMEEditBox::s_hDllIme
	push	eax
	call	DWORD PTR __imp__FreeLibrary@4
	cmp	esi, esp
	call	__RTC_CheckEsp
$LN2@SetupImeAp:

; 5819 :     s_hDllIme = LoadLibraryA( szImeFile );

	mov	esi, esp
	lea	eax, DWORD PTR _szImeFile$[ebp]
	push	eax
	call	DWORD PTR __imp__LoadLibraryA@4
	cmp	esi, esp
	call	__RTC_CheckEsp
	mov	DWORD PTR ?s_hDllIme@CDXUTIMEEditBox@@1PAUHINSTANCE__@@A, eax ; CDXUTIMEEditBox::s_hDllIme

; 5820 :     if ( !s_hDllIme )

	cmp	DWORD PTR ?s_hDllIme@CDXUTIMEEditBox@@1PAUHINSTANCE__@@A, 0 ; CDXUTIMEEditBox::s_hDllIme
	jne	SHORT $LN1@SetupImeAp

; 5821 :         return;

	jmp	SHORT $LN4@SetupImeAp
$LN1@SetupImeAp:

; 5822 :     _GetReadingString = (UINT (WINAPI*)(HIMC, UINT, PCHAR, PINT, BOOL*, PUINT))

	mov	esi, esp
	push	OFFSET ??_C@_0BB@EOIFCLLM@GetReadingString?$AA@
	mov	eax, DWORD PTR ?s_hDllIme@CDXUTIMEEditBox@@1PAUHINSTANCE__@@A ; CDXUTIMEEditBox::s_hDllIme
	push	eax
	call	DWORD PTR __imp__GetProcAddress@8
	cmp	esi, esp
	call	__RTC_CheckEsp
	mov	DWORD PTR ?_GetReadingString@CDXUTIMEEditBox@@1P6GIPAUHIMC__@@IPADPAH2PAI@ZA, eax ; CDXUTIMEEditBox::_GetReadingString

; 5823 :         ( GetProcAddress( s_hDllIme, "GetReadingString" ) );
; 5824 :     _ShowReadingWindow =(BOOL (WINAPI*)(HIMC, BOOL))

	mov	esi, esp
	push	OFFSET ??_C@_0BC@MEELNKEC@ShowReadingWindow?$AA@
	mov	eax, DWORD PTR ?s_hDllIme@CDXUTIMEEditBox@@1PAUHINSTANCE__@@A ; CDXUTIMEEditBox::s_hDllIme
	push	eax
	call	DWORD PTR __imp__GetProcAddress@8
	cmp	esi, esp
	call	__RTC_CheckEsp
	mov	DWORD PTR ?_ShowReadingWindow@CDXUTIMEEditBox@@1P6GHPAUHIMC__@@H@ZA, eax ; CDXUTIMEEditBox::_ShowReadingWindow
$LN4@SetupImeAp:

; 5825 :         ( GetProcAddress( s_hDllIme, "ShowReadingWindow" ) );
; 5826 : }

	push	edx
	mov	ecx, ebp
	push	eax
	lea	edx, DWORD PTR $LN8@SetupImeAp
	call	@_RTC_CheckStackVars@8
	pop	eax
	pop	edx
	pop	edi
	pop	esi
	pop	ebx
	mov	ecx, DWORD PTR __$ArrayPad$[ebp]
	xor	ecx, ebp
	call	@__security_check_cookie@4
	add	esp, 468				; 000001d4H
	cmp	ebp, esp
	call	__RTC_CheckEsp
	mov	esp, ebp
	pop	ebp
	ret	0
$LN8@SetupImeAp:
	DD	1
	DD	$LN7@SetupImeAp
$LN7@SetupImeAp:
	DD	-272					; fffffef0H
	DD	261					; 00000105H
	DD	$LN6@SetupImeAp
$LN6@SetupImeAp:
	DB	115					; 00000073H
	DB	122					; 0000007aH
	DB	73					; 00000049H
	DB	109					; 0000006dH
	DB	101					; 00000065H
	DB	70					; 00000046H
	DB	105					; 00000069H
	DB	108					; 0000006cH
	DB	101					; 00000065H
	DB	0
?SetupImeApi@CDXUTIMEEditBox@@KAXXZ ENDP		; CDXUTIMEEditBox::SetupImeApi
_TEXT	ENDS
; Function compile flags: /Odtp /RTCsu /ZI
; File z:\sampsrc\02xu1\saco\d3d9\common\dxutgui.cpp
;	COMDAT ?CheckToggleState@CDXUTIMEEditBox@@KAXXZ
_TEXT	SEGMENT
tv93 = -244						; size = 4
tv87 = -244						; size = 4
tv74 = -244						; size = 4
tv67 = -244						; size = 4
_dwSentMode$1 = -44					; size = 4
_dwConvMode$2 = -32					; size = 4
_hImc$ = -20						; size = 4
_bIme$ = -5						; size = 1
?CheckToggleState@CDXUTIMEEditBox@@KAXXZ PROC		; CDXUTIMEEditBox::CheckToggleState, COMDAT

; 5772 : {

	push	ebp
	mov	ebp, esp
	sub	esp, 244				; 000000f4H
	push	ebx
	push	esi
	push	edi
	lea	edi, DWORD PTR [ebp-244]
	mov	ecx, 61					; 0000003dH
	mov	eax, -858993460				; ccccccccH
	rep stosd

; 5773 :     CheckInputLocale();

	call	?CheckInputLocale@CDXUTIMEEditBox@@KAXXZ ; CDXUTIMEEditBox::CheckInputLocale

; 5774 :     bool bIme = _ImmIsIME( s_hklCurrent ) != 0;

	mov	esi, esp
	mov	eax, DWORD PTR ?s_hklCurrent@CDXUTIMEEditBox@@1PAUHKL__@@A ; CDXUTIMEEditBox::s_hklCurrent
	push	eax
	call	DWORD PTR ?_ImmIsIME@CDXUTIMEEditBox@@1P6GHPAUHKL__@@@ZA ; CDXUTIMEEditBox::_ImmIsIME
	cmp	esi, esp
	call	__RTC_CheckEsp
	test	eax, eax
	je	SHORT $LN7@CheckToggl
	mov	DWORD PTR tv67[ebp], 1
	jmp	SHORT $LN8@CheckToggl
$LN7@CheckToggl:
	mov	DWORD PTR tv67[ebp], 0
$LN8@CheckToggl:
	mov	cl, BYTE PTR tv67[ebp]
	mov	BYTE PTR _bIme$[ebp], cl

; 5775 :     s_bChineseIME = ( GetPrimaryLanguage() == LANG_CHINESE ) && bIme;

	call	?GetPrimaryLanguage@CDXUTIMEEditBox@@KAGXZ ; CDXUTIMEEditBox::GetPrimaryLanguage
	movzx	eax, ax
	cmp	eax, 4
	jne	SHORT $LN9@CheckToggl
	movzx	ecx, BYTE PTR _bIme$[ebp]
	test	ecx, ecx
	je	SHORT $LN9@CheckToggl
	mov	DWORD PTR tv74[ebp], 1
	jmp	SHORT $LN10@CheckToggl
$LN9@CheckToggl:
	mov	DWORD PTR tv74[ebp], 0
$LN10@CheckToggl:
	mov	dl, BYTE PTR tv74[ebp]
	mov	BYTE PTR ?s_bChineseIME@CDXUTIMEEditBox@@1_NA, dl ; CDXUTIMEEditBox::s_bChineseIME

; 5776 : 
; 5777 :     HIMC hImc;
; 5778 :     if( NULL != ( hImc = _ImmGetContext( DXUTGetHWND() ) ) )

	call	?DXUTGetHWND@@YAPAUHWND__@@XZ		; DXUTGetHWND
	mov	esi, esp
	push	eax
	call	DWORD PTR ?_ImmGetContext@CDXUTIMEEditBox@@1P6GPAUHIMC__@@PAUHWND__@@@ZA ; CDXUTIMEEditBox::_ImmGetContext
	cmp	esi, esp
	call	__RTC_CheckEsp
	mov	DWORD PTR _hImc$[ebp], eax
	cmp	DWORD PTR _hImc$[ebp], 0
	je	$LN4@CheckToggl

; 5779 :     {
; 5780 :         if( s_bChineseIME )

	movzx	eax, BYTE PTR ?s_bChineseIME@CDXUTIMEEditBox@@1_NA ; CDXUTIMEEditBox::s_bChineseIME
	test	eax, eax
	je	SHORT $LN3@CheckToggl

; 5781 :         {
; 5782 :             DWORD dwConvMode, dwSentMode;
; 5783 :             _ImmGetConversionStatus( hImc, &dwConvMode, &dwSentMode );

	mov	esi, esp
	lea	eax, DWORD PTR _dwSentMode$1[ebp]
	push	eax
	lea	ecx, DWORD PTR _dwConvMode$2[ebp]
	push	ecx
	mov	edx, DWORD PTR _hImc$[ebp]
	push	edx
	call	DWORD PTR ?_ImmGetConversionStatus@CDXUTIMEEditBox@@1P6GHPAUHIMC__@@PAK1@ZA ; CDXUTIMEEditBox::_ImmGetConversionStatus
	cmp	esi, esp
	call	__RTC_CheckEsp

; 5784 :             s_ImeState = ( dwConvMode & IME_CMODE_NATIVE ) ? IMEUI_STATE_ON : IMEUI_STATE_ENGLISH;

	mov	eax, DWORD PTR _dwConvMode$2[ebp]
	and	eax, 1
	je	SHORT $LN11@CheckToggl
	mov	DWORD PTR tv87[ebp], 1
	jmp	SHORT $LN12@CheckToggl
$LN11@CheckToggl:
	mov	DWORD PTR tv87[ebp], 2
$LN12@CheckToggl:
	mov	ecx, DWORD PTR tv87[ebp]
	mov	DWORD PTR ?s_ImeState@CDXUTIMEEditBox@@1W4IMESTATE@1@A, ecx ; CDXUTIMEEditBox::s_ImeState

; 5785 :         }
; 5786 :         else

	jmp	SHORT $LN2@CheckToggl
$LN3@CheckToggl:

; 5787 :         {
; 5788 :             s_ImeState = ( bIme && _ImmGetOpenStatus( hImc ) != 0 ) ? IMEUI_STATE_ON : IMEUI_STATE_OFF;

	movzx	eax, BYTE PTR _bIme$[ebp]
	test	eax, eax
	je	SHORT $LN13@CheckToggl
	mov	esi, esp
	mov	ecx, DWORD PTR _hImc$[ebp]
	push	ecx
	call	DWORD PTR ?_ImmGetOpenStatus@CDXUTIMEEditBox@@1P6GHPAUHIMC__@@@ZA ; CDXUTIMEEditBox::_ImmGetOpenStatus
	cmp	esi, esp
	call	__RTC_CheckEsp
	test	eax, eax
	je	SHORT $LN13@CheckToggl
	mov	DWORD PTR tv93[ebp], 1
	jmp	SHORT $LN14@CheckToggl
$LN13@CheckToggl:
	mov	DWORD PTR tv93[ebp], 0
$LN14@CheckToggl:
	mov	edx, DWORD PTR tv93[ebp]
	mov	DWORD PTR ?s_ImeState@CDXUTIMEEditBox@@1W4IMESTATE@1@A, edx ; CDXUTIMEEditBox::s_ImeState
$LN2@CheckToggl:

; 5789 :         }
; 5790 :         _ImmReleaseContext( DXUTGetHWND(), hImc );

	mov	esi, esp
	mov	eax, DWORD PTR _hImc$[ebp]
	push	eax
	call	?DXUTGetHWND@@YAPAUHWND__@@XZ		; DXUTGetHWND
	push	eax
	call	DWORD PTR ?_ImmReleaseContext@CDXUTIMEEditBox@@1P6GHPAUHWND__@@PAUHIMC__@@@ZA ; CDXUTIMEEditBox::_ImmReleaseContext
	cmp	esi, esp
	call	__RTC_CheckEsp

; 5791 :     }
; 5792 :     else

	jmp	SHORT $LN5@CheckToggl
$LN4@CheckToggl:

; 5793 :         s_ImeState = IMEUI_STATE_OFF;

	mov	DWORD PTR ?s_ImeState@CDXUTIMEEditBox@@1W4IMESTATE@1@A, 0 ; CDXUTIMEEditBox::s_ImeState
$LN5@CheckToggl:

; 5794 : }

	push	edx
	mov	ecx, ebp
	push	eax
	lea	edx, DWORD PTR $LN18@CheckToggl
	call	@_RTC_CheckStackVars@8
	pop	eax
	pop	edx
	pop	edi
	pop	esi
	pop	ebx
	add	esp, 244				; 000000f4H
	cmp	ebp, esp
	call	__RTC_CheckEsp
	mov	esp, ebp
	pop	ebp
	ret	0
	npad	3
$LN18@CheckToggl:
	DD	2
	DD	$LN17@CheckToggl
$LN17@CheckToggl:
	DD	-32					; ffffffe0H
	DD	4
	DD	$LN15@CheckToggl
	DD	-44					; ffffffd4H
	DD	4
	DD	$LN16@CheckToggl
$LN16@CheckToggl:
	DB	100					; 00000064H
	DB	119					; 00000077H
	DB	83					; 00000053H
	DB	101					; 00000065H
	DB	110					; 0000006eH
	DB	116					; 00000074H
	DB	77					; 0000004dH
	DB	111					; 0000006fH
	DB	100					; 00000064H
	DB	101					; 00000065H
	DB	0
$LN15@CheckToggl:
	DB	100					; 00000064H
	DB	119					; 00000077H
	DB	67					; 00000043H
	DB	111					; 0000006fH
	DB	110					; 0000006eH
	DB	118					; 00000076H
	DB	77					; 0000004dH
	DB	111					; 0000006fH
	DB	100					; 00000064H
	DB	101					; 00000065H
	DB	0
?CheckToggleState@CDXUTIMEEditBox@@KAXXZ ENDP		; CDXUTIMEEditBox::CheckToggleState
_TEXT	ENDS
; Function compile flags: /Odtp /RTCsu /ZI
; File z:\sampsrc\02xu1\saco\d3d9\common\dxutgui.cpp
;	COMDAT ?CheckInputLocale@CDXUTIMEEditBox@@KAXXZ
_TEXT	SEGMENT
tv78 = -216						; size = 4
tv72 = -216						; size = 4
tv69 = -216						; size = 4
_wszLang$1 = -16					; size = 5
__$ArrayPad$ = -4					; size = 4
?CheckInputLocale@CDXUTIMEEditBox@@KAXXZ PROC		; CDXUTIMEEditBox::CheckInputLocale, COMDAT

; 5717 : {

	push	ebp
	mov	ebp, esp
	sub	esp, 216				; 000000d8H
	push	ebx
	push	esi
	push	edi
	lea	edi, DWORD PTR [ebp-216]
	mov	ecx, 54					; 00000036H
	mov	eax, -858993460				; ccccccccH
	rep stosd
	mov	eax, DWORD PTR ___security_cookie
	xor	eax, ebp
	mov	DWORD PTR __$ArrayPad$[ebp], eax

; 5718 :     static HKL hklPrev = 0;
; 5719 :     s_hklCurrent = GetKeyboardLayout( 0 );

	mov	esi, esp
	push	0
	call	DWORD PTR __imp__GetKeyboardLayout@4
	cmp	esi, esp
	call	__RTC_CheckEsp
	mov	DWORD PTR ?s_hklCurrent@CDXUTIMEEditBox@@1PAUHKL__@@A, eax ; CDXUTIMEEditBox::s_hklCurrent

; 5720 :     if ( hklPrev == s_hklCurrent )

	mov	eax, DWORD PTR ?hklPrev@?1??CheckInputLocale@CDXUTIMEEditBox@@KAXXZ@4PAUHKL__@@A
	cmp	eax, DWORD PTR ?s_hklCurrent@CDXUTIMEEditBox@@1PAUHKL__@@A ; CDXUTIMEEditBox::s_hklCurrent
	jne	SHORT $LN13@CheckInput

; 5721 :         return;

	jmp	$LN14@CheckInput
$LN13@CheckInput:

; 5722 : 
; 5723 :     hklPrev = s_hklCurrent;

	mov	eax, DWORD PTR ?s_hklCurrent@CDXUTIMEEditBox@@1PAUHKL__@@A ; CDXUTIMEEditBox::s_hklCurrent
	mov	DWORD PTR ?hklPrev@?1??CheckInputLocale@CDXUTIMEEditBox@@KAXXZ@4PAUHKL__@@A, eax

; 5724 :     switch ( GetPrimaryLanguage() )

	call	?GetPrimaryLanguage@CDXUTIMEEditBox@@KAGXZ ; CDXUTIMEEditBox::GetPrimaryLanguage
	movzx	eax, ax
	mov	DWORD PTR tv69[ebp], eax
	cmp	DWORD PTR tv69[ebp], 4
	je	SHORT $LN10@CheckInput
	cmp	DWORD PTR tv69[ebp], 17			; 00000011H
	je	$LN3@CheckInput
	cmp	DWORD PTR tv69[ebp], 18			; 00000012H
	je	$LN4@CheckInput
	jmp	$LN2@CheckInput
$LN10@CheckInput:

; 5725 :     {
; 5726 :         // Simplified Chinese
; 5727 :         case LANG_CHINESE:
; 5728 :             s_bVerticalCand = true;

	mov	BYTE PTR ?s_bVerticalCand@CDXUTIMEEditBox@@1_NA, 1 ; CDXUTIMEEditBox::s_bVerticalCand

; 5729 :             switch ( GetSubLanguage() )

	call	?GetSubLanguage@CDXUTIMEEditBox@@KAGXZ	; CDXUTIMEEditBox::GetSubLanguage
	movzx	eax, ax
	mov	DWORD PTR tv72[ebp], eax
	cmp	DWORD PTR tv72[ebp], 1
	je	SHORT $LN6@CheckInput
	cmp	DWORD PTR tv72[ebp], 2
	je	SHORT $LN7@CheckInput
	jmp	SHORT $LN5@CheckInput
$LN7@CheckInput:

; 5730 :             {
; 5731 :                 case SUBLANG_CHINESE_SIMPLIFIED:
; 5732 :                     s_wszCurrIndicator = s_aszIndicator[INDICATOR_CHS];

	mov	eax, 3
	shl	eax, 0
	add	eax, OFFSET ?s_aszIndicator@CDXUTIMEEditBox@@1PAY02DA ; CDXUTIMEEditBox::s_aszIndicator
	mov	DWORD PTR ?s_wszCurrIndicator@CDXUTIMEEditBox@@1PADA, eax ; CDXUTIMEEditBox::s_wszCurrIndicator

; 5733 :                     s_bVerticalCand = GetImeId() == 0;

	push	0
	call	?GetImeId@CDXUTIMEEditBox@@KAKI@Z	; CDXUTIMEEditBox::GetImeId
	add	esp, 4
	test	eax, eax
	jne	SHORT $LN16@CheckInput
	mov	DWORD PTR tv78[ebp], 1
	jmp	SHORT $LN17@CheckInput
$LN16@CheckInput:
	mov	DWORD PTR tv78[ebp], 0
$LN17@CheckInput:
	mov	al, BYTE PTR tv78[ebp]
	mov	BYTE PTR ?s_bVerticalCand@CDXUTIMEEditBox@@1_NA, al ; CDXUTIMEEditBox::s_bVerticalCand

; 5734 :                     break;

	jmp	SHORT $LN8@CheckInput
$LN6@CheckInput:

; 5735 :                 case SUBLANG_CHINESE_TRADITIONAL:
; 5736 :                     s_wszCurrIndicator = s_aszIndicator[INDICATOR_CHT];

	mov	eax, 3
	shl	eax, 1
	add	eax, OFFSET ?s_aszIndicator@CDXUTIMEEditBox@@1PAY02DA ; CDXUTIMEEditBox::s_aszIndicator
	mov	DWORD PTR ?s_wszCurrIndicator@CDXUTIMEEditBox@@1PADA, eax ; CDXUTIMEEditBox::s_wszCurrIndicator

; 5737 :                     break;

	jmp	SHORT $LN8@CheckInput
$LN5@CheckInput:

; 5738 :                 default:    // unsupported sub-language
; 5739 :                     s_wszCurrIndicator = s_aszIndicator[INDICATOR_NON_IME];

	mov	eax, 3
	imul	ecx, eax, 0
	add	ecx, OFFSET ?s_aszIndicator@CDXUTIMEEditBox@@1PAY02DA ; CDXUTIMEEditBox::s_aszIndicator
	mov	DWORD PTR ?s_wszCurrIndicator@CDXUTIMEEditBox@@1PADA, ecx ; CDXUTIMEEditBox::s_wszCurrIndicator
$LN8@CheckInput:

; 5740 :                     break;
; 5741 :             }
; 5742 :             break;

	jmp	SHORT $LN11@CheckInput
$LN4@CheckInput:

; 5743 :         // Korean
; 5744 :         case LANG_KOREAN:
; 5745 :             s_wszCurrIndicator = s_aszIndicator[INDICATOR_KOREAN];

	mov	eax, 3
	imul	ecx, eax, 3
	add	ecx, OFFSET ?s_aszIndicator@CDXUTIMEEditBox@@1PAY02DA ; CDXUTIMEEditBox::s_aszIndicator
	mov	DWORD PTR ?s_wszCurrIndicator@CDXUTIMEEditBox@@1PADA, ecx ; CDXUTIMEEditBox::s_wszCurrIndicator

; 5746 :             s_bVerticalCand = false;

	mov	BYTE PTR ?s_bVerticalCand@CDXUTIMEEditBox@@1_NA, 0 ; CDXUTIMEEditBox::s_bVerticalCand

; 5747 :             break;

	jmp	SHORT $LN11@CheckInput
$LN3@CheckInput:

; 5748 :         // Japanese
; 5749 :         case LANG_JAPANESE:
; 5750 :             s_wszCurrIndicator = s_aszIndicator[INDICATOR_JAPANESE];

	mov	eax, 3
	shl	eax, 2
	add	eax, OFFSET ?s_aszIndicator@CDXUTIMEEditBox@@1PAY02DA ; CDXUTIMEEditBox::s_aszIndicator
	mov	DWORD PTR ?s_wszCurrIndicator@CDXUTIMEEditBox@@1PADA, eax ; CDXUTIMEEditBox::s_wszCurrIndicator

; 5751 :             s_bVerticalCand = true;

	mov	BYTE PTR ?s_bVerticalCand@CDXUTIMEEditBox@@1_NA, 1 ; CDXUTIMEEditBox::s_bVerticalCand

; 5752 :             break;

	jmp	SHORT $LN11@CheckInput
$LN2@CheckInput:

; 5753 :         default:
; 5754 :             // A non-IME language.  Obtain the language abbreviation
; 5755 :             // and store it for rendering the indicator later.
; 5756 :             s_wszCurrIndicator = s_aszIndicator[INDICATOR_NON_IME];

	mov	eax, 3
	imul	ecx, eax, 0
	add	ecx, OFFSET ?s_aszIndicator@CDXUTIMEEditBox@@1PAY02DA ; CDXUTIMEEditBox::s_aszIndicator
	mov	DWORD PTR ?s_wszCurrIndicator@CDXUTIMEEditBox@@1PADA, ecx ; CDXUTIMEEditBox::s_wszCurrIndicator
$LN11@CheckInput:

; 5757 :     }
; 5758 : 
; 5759 :     // If non-IME, use the language abbreviation.
; 5760 :     if( s_wszCurrIndicator == s_aszIndicator[INDICATOR_NON_IME] )

	mov	eax, 3
	imul	ecx, eax, 0
	add	ecx, OFFSET ?s_aszIndicator@CDXUTIMEEditBox@@1PAY02DA ; CDXUTIMEEditBox::s_aszIndicator
	cmp	DWORD PTR ?s_wszCurrIndicator@CDXUTIMEEditBox@@1PADA, ecx ; CDXUTIMEEditBox::s_wszCurrIndicator
	jne	SHORT $LN14@CheckInput

; 5761 :     {
; 5762 :         TCHAR wszLang[5];
; 5763 :         GetLocaleInfoA( MAKELCID( LOWORD( s_hklCurrent ), SORT_DEFAULT ), LOCALE_SABBREVLANGNAME, wszLang, 5 );

	mov	esi, esp
	push	5
	lea	eax, DWORD PTR _wszLang$1[ebp]
	push	eax
	push	3
	mov	ecx, DWORD PTR ?s_hklCurrent@CDXUTIMEEditBox@@1PAUHKL__@@A ; CDXUTIMEEditBox::s_hklCurrent
	and	ecx, 65535				; 0000ffffH
	movzx	edx, cx
	push	edx
	call	DWORD PTR __imp__GetLocaleInfoA@16
	cmp	esi, esp
	call	__RTC_CheckEsp

; 5764 :         s_wszCurrIndicator[0] = wszLang[0];

	mov	eax, 1
	imul	ecx, eax, 0
	mov	edx, 1
	imul	eax, edx, 0
	mov	edx, DWORD PTR ?s_wszCurrIndicator@CDXUTIMEEditBox@@1PADA ; CDXUTIMEEditBox::s_wszCurrIndicator
	mov	cl, BYTE PTR _wszLang$1[ebp+ecx]
	mov	BYTE PTR [edx+eax], cl

; 5765 :         s_wszCurrIndicator[1] = tolower( wszLang[1] );

	mov	eax, 1
	shl	eax, 0
	movsx	ecx, BYTE PTR _wszLang$1[ebp+eax]
	push	ecx
	call	_tolower
	add	esp, 4
	mov	edx, 1
	shl	edx, 0
	mov	ecx, DWORD PTR ?s_wszCurrIndicator@CDXUTIMEEditBox@@1PADA ; CDXUTIMEEditBox::s_wszCurrIndicator
	mov	BYTE PTR [ecx+edx], al
$LN14@CheckInput:

; 5766 :     }
; 5767 : }

	push	edx
	mov	ecx, ebp
	push	eax
	lea	edx, DWORD PTR $LN20@CheckInput
	call	@_RTC_CheckStackVars@8
	pop	eax
	pop	edx
	pop	edi
	pop	esi
	pop	ebx
	mov	ecx, DWORD PTR __$ArrayPad$[ebp]
	xor	ecx, ebp
	call	@__security_check_cookie@4
	add	esp, 216				; 000000d8H
	cmp	ebp, esp
	call	__RTC_CheckEsp
	mov	esp, ebp
	pop	ebp
	ret	0
	npad	3
$LN20@CheckInput:
	DD	1
	DD	$LN19@CheckInput
$LN19@CheckInput:
	DD	-16					; fffffff0H
	DD	5
	DD	$LN18@CheckInput
$LN18@CheckInput:
	DB	119					; 00000077H
	DB	115					; 00000073H
	DB	122					; 0000007aH
	DB	76					; 0000004cH
	DB	97					; 00000061H
	DB	110					; 0000006eH
	DB	103					; 00000067H
	DB	0
?CheckInputLocale@CDXUTIMEEditBox@@KAXXZ ENDP		; CDXUTIMEEditBox::CheckInputLocale
_TEXT	ENDS
; Function compile flags: /Odtp /RTCsu /ZI
; File z:\sampsrc\02xu1\saco\d3d9\common\dxutgui.cpp
;	COMDAT ?GetImeId@CDXUTIMEEditBox@@KAKI@Z
_TEXT	SEGMENT
_dwVer$1 = -1104					; size = 4
_szTmp$ = -1092						; size = 1024
_cbVerData$ = -60					; size = 4
_lpVerData$ = -48					; size = 4
_lpVerBuffer$ = -36					; size = 4
_dwVerHandle$ = -24					; size = 4
_dwVerSize$ = -12					; size = 4
__$ArrayPad$ = -4					; size = 4
_uIndex$ = 8						; size = 4
?GetImeId@CDXUTIMEEditBox@@KAKI@Z PROC			; CDXUTIMEEditBox::GetImeId, COMDAT

; 5626 : {

	push	ebp
	mov	ebp, esp
	sub	esp, 1300				; 00000514H
	push	ebx
	push	esi
	push	edi
	lea	edi, DWORD PTR [ebp-1300]
	mov	ecx, 325				; 00000145H
	mov	eax, -858993460				; ccccccccH
	rep stosd
	mov	eax, DWORD PTR ___security_cookie
	xor	eax, ebp
	mov	DWORD PTR __$ArrayPad$[ebp], eax

; 5627 :     static HKL hklPrev = 0;
; 5628 :     static DWORD dwID[2] = { 0, 0 };  // Cache the result
; 5629 :     
; 5630 :     DWORD   dwVerSize;
; 5631 :     DWORD   dwVerHandle;
; 5632 :     LPVOID  lpVerBuffer;
; 5633 :     LPVOID  lpVerData;
; 5634 :     UINT    cbVerData;
; 5635 :     char    szTmp[1024];
; 5636 : 
; 5637 :     if( uIndex >= sizeof( dwID ) / sizeof( dwID[0] ) )

	cmp	DWORD PTR _uIndex$[ebp], 2
	jb	SHORT $LN14@GetImeId

; 5638 :         return 0;

	xor	eax, eax
	jmp	$LN15@GetImeId
$LN14@GetImeId:

; 5639 : 
; 5640 :     if( hklPrev == s_hklCurrent )

	mov	eax, DWORD PTR ?hklPrev@?1??GetImeId@CDXUTIMEEditBox@@KAKI@Z@4PAUHKL__@@A
	cmp	eax, DWORD PTR ?s_hklCurrent@CDXUTIMEEditBox@@1PAUHKL__@@A ; CDXUTIMEEditBox::s_hklCurrent
	jne	SHORT $LN13@GetImeId

; 5641 :         return dwID[uIndex];

	mov	eax, DWORD PTR _uIndex$[ebp]
	mov	eax, DWORD PTR ?dwID@?1??GetImeId@CDXUTIMEEditBox@@KAKI@Z@4PAKA[eax*4]
	jmp	$LN15@GetImeId
$LN13@GetImeId:

; 5642 : 
; 5643 :     hklPrev = s_hklCurrent;  // Save for the next invocation

	mov	eax, DWORD PTR ?s_hklCurrent@CDXUTIMEEditBox@@1PAUHKL__@@A ; CDXUTIMEEditBox::s_hklCurrent
	mov	DWORD PTR ?hklPrev@?1??GetImeId@CDXUTIMEEditBox@@KAKI@Z@4PAUHKL__@@A, eax

; 5644 : 
; 5645 :     // Check if we are using an older Chinese IME
; 5646 :     if( !( ( s_hklCurrent == _CHT_HKL ) || ( s_hklCurrent == _CHT_HKL2 ) || ( s_hklCurrent == _CHS_HKL ) ) )

	cmp	DWORD PTR ?s_hklCurrent@CDXUTIMEEditBox@@1PAUHKL__@@A, -536345596 ; CDXUTIMEEditBox::s_hklCurrent, e0080404H
	je	SHORT $LN12@GetImeId
	cmp	DWORD PTR ?s_hklCurrent@CDXUTIMEEditBox@@1PAUHKL__@@A, -536280060 ; CDXUTIMEEditBox::s_hklCurrent, e0090404H
	je	SHORT $LN12@GetImeId
	cmp	DWORD PTR ?s_hklCurrent@CDXUTIMEEditBox@@1PAUHKL__@@A, -535951356 ; CDXUTIMEEditBox::s_hklCurrent, e00e0804H
	je	SHORT $LN12@GetImeId

; 5647 :     {
; 5648 :         dwID[0] = dwID[1] = 0;

	mov	eax, 4
	shl	eax, 0
	mov	DWORD PTR ?dwID@?1??GetImeId@CDXUTIMEEditBox@@KAKI@Z@4PAKA[eax], 0
	mov	ecx, 4
	imul	edx, ecx, 0
	mov	DWORD PTR ?dwID@?1??GetImeId@CDXUTIMEEditBox@@KAKI@Z@4PAKA[edx], 0

; 5649 :         return dwID[uIndex];

	mov	eax, DWORD PTR _uIndex$[ebp]
	mov	eax, DWORD PTR ?dwID@?1??GetImeId@CDXUTIMEEditBox@@KAKI@Z@4PAKA[eax*4]
	jmp	$LN15@GetImeId
$LN12@GetImeId:

; 5650 :     }
; 5651 : 
; 5652 :     // Obtain the IME file name
; 5653 :     if ( !_ImmGetIMEFileNameA( s_hklCurrent, szTmp, ( sizeof(szTmp) / sizeof(szTmp[0]) ) - 1 ) )

	mov	esi, esp
	push	1023					; 000003ffH
	lea	eax, DWORD PTR _szTmp$[ebp]
	push	eax
	mov	ecx, DWORD PTR ?s_hklCurrent@CDXUTIMEEditBox@@1PAUHKL__@@A ; CDXUTIMEEditBox::s_hklCurrent
	push	ecx
	call	DWORD PTR ?_ImmGetIMEFileNameA@CDXUTIMEEditBox@@1P6GIPAUHKL__@@PADI@ZA ; CDXUTIMEEditBox::_ImmGetIMEFileNameA
	cmp	esi, esp
	call	__RTC_CheckEsp
	test	eax, eax
	jne	SHORT $LN11@GetImeId

; 5654 :     {
; 5655 :         dwID[0] = dwID[1] = 0;

	mov	eax, 4
	shl	eax, 0
	mov	DWORD PTR ?dwID@?1??GetImeId@CDXUTIMEEditBox@@KAKI@Z@4PAKA[eax], 0
	mov	ecx, 4
	imul	edx, ecx, 0
	mov	DWORD PTR ?dwID@?1??GetImeId@CDXUTIMEEditBox@@KAKI@Z@4PAKA[edx], 0

; 5656 :         return dwID[uIndex];

	mov	eax, DWORD PTR _uIndex$[ebp]
	mov	eax, DWORD PTR ?dwID@?1??GetImeId@CDXUTIMEEditBox@@KAKI@Z@4PAKA[eax*4]
	jmp	$LN15@GetImeId
$LN11@GetImeId:

; 5657 :     }
; 5658 : 
; 5659 :     // Check for IME that doesn't implement reading string API
; 5660 :     if ( !_GetReadingString )

	cmp	DWORD PTR ?_GetReadingString@CDXUTIMEEditBox@@1P6GIPAUHIMC__@@IPADPAH2PAI@ZA, 0 ; CDXUTIMEEditBox::_GetReadingString
	jne	$LN10@GetImeId

; 5661 :     {
; 5662 :         if( ( CompareStringA( LCID_INVARIANT, NORM_IGNORECASE, szTmp, -1, CHT_IMEFILENAME1, -1 ) != CSTR_EQUAL ) &&
; 5663 :             ( CompareStringA( LCID_INVARIANT, NORM_IGNORECASE, szTmp, -1, CHT_IMEFILENAME2, -1 ) != CSTR_EQUAL ) &&
; 5664 :             ( CompareStringA( LCID_INVARIANT, NORM_IGNORECASE, szTmp, -1, CHT_IMEFILENAME3, -1 ) != CSTR_EQUAL ) &&
; 5665 :             ( CompareStringA( LCID_INVARIANT, NORM_IGNORECASE, szTmp, -1, CHS_IMEFILENAME1, -1 ) != CSTR_EQUAL ) &&
; 5666 :             ( CompareStringA( LCID_INVARIANT, NORM_IGNORECASE, szTmp, -1, CHS_IMEFILENAME2, -1 ) != CSTR_EQUAL ) )

	mov	esi, esp
	push	-1
	push	OFFSET ??_C@_0N@FFMHCBAD@TINTLGNT?4IME?$AA@
	push	-1
	lea	eax, DWORD PTR _szTmp$[ebp]
	push	eax
	push	1
	push	1033					; 00000409H
	call	DWORD PTR __imp__CompareStringA@24
	cmp	esi, esp
	call	__RTC_CheckEsp
	cmp	eax, 2
	je	$LN10@GetImeId
	mov	esi, esp
	push	-1
	push	OFFSET ??_C@_0N@JMLDIBIB@CINTLGNT?4IME?$AA@
	push	-1
	lea	eax, DWORD PTR _szTmp$[ebp]
	push	eax
	push	1
	push	1033					; 00000409H
	call	DWORD PTR __imp__CompareStringA@24
	cmp	esi, esp
	call	__RTC_CheckEsp
	cmp	eax, 2
	je	$LN10@GetImeId
	mov	esi, esp
	push	-1
	push	OFFSET ??_C@_0N@FHDFFBN@MSTCIPHA?4IME?$AA@
	push	-1
	lea	eax, DWORD PTR _szTmp$[ebp]
	push	eax
	push	1
	push	1033					; 00000409H
	call	DWORD PTR __imp__CompareStringA@24
	cmp	esi, esp
	call	__RTC_CheckEsp
	cmp	eax, 2
	je	$LN10@GetImeId
	mov	esi, esp
	push	-1
	push	OFFSET ??_C@_0N@JFHOELJF@PINTLGNT?4IME?$AA@
	push	-1
	lea	eax, DWORD PTR _szTmp$[ebp]
	push	eax
	push	1
	push	1033					; 00000409H
	call	DWORD PTR __imp__CompareStringA@24
	cmp	esi, esp
	call	__RTC_CheckEsp
	cmp	eax, 2
	je	SHORT $LN10@GetImeId
	mov	esi, esp
	push	-1
	push	OFFSET ??_C@_0N@ONOBNHOE@MSSCIPYA?4IME?$AA@
	push	-1
	lea	eax, DWORD PTR _szTmp$[ebp]
	push	eax
	push	1
	push	1033					; 00000409H
	call	DWORD PTR __imp__CompareStringA@24
	cmp	esi, esp
	call	__RTC_CheckEsp
	cmp	eax, 2
	je	SHORT $LN10@GetImeId

; 5667 :         {
; 5668 :             dwID[0] = dwID[1] = 0;

	mov	eax, 4
	shl	eax, 0
	mov	DWORD PTR ?dwID@?1??GetImeId@CDXUTIMEEditBox@@KAKI@Z@4PAKA[eax], 0
	mov	ecx, 4
	imul	edx, ecx, 0
	mov	DWORD PTR ?dwID@?1??GetImeId@CDXUTIMEEditBox@@KAKI@Z@4PAKA[edx], 0

; 5669 :             return dwID[uIndex];

	mov	eax, DWORD PTR _uIndex$[ebp]
	mov	eax, DWORD PTR ?dwID@?1??GetImeId@CDXUTIMEEditBox@@KAKI@Z@4PAKA[eax*4]
	jmp	$LN15@GetImeId
$LN10@GetImeId:

; 5670 :         }
; 5671 :     }
; 5672 : 
; 5673 :     dwVerSize = _GetFileVersionInfoSizeA( szTmp, &dwVerHandle );

	mov	esi, esp
	lea	eax, DWORD PTR _dwVerHandle$[ebp]
	push	eax
	lea	ecx, DWORD PTR _szTmp$[ebp]
	push	ecx
	call	DWORD PTR ?_GetFileVersionInfoSizeA@CDXUTIMEEditBox@@1P6GKPADPAK@ZA ; CDXUTIMEEditBox::_GetFileVersionInfoSizeA
	cmp	esi, esp
	call	__RTC_CheckEsp
	mov	DWORD PTR _dwVerSize$[ebp], eax

; 5674 :     if( dwVerSize )

	cmp	DWORD PTR _dwVerSize$[ebp], 0
	je	$LN8@GetImeId

; 5675 :     {
; 5676 :         lpVerBuffer = HeapAlloc( GetProcessHeap(), 0, dwVerSize );

	mov	esi, esp
	mov	eax, DWORD PTR _dwVerSize$[ebp]
	push	eax
	push	0
	mov	edi, esp
	call	DWORD PTR __imp__GetProcessHeap@0
	cmp	edi, esp
	call	__RTC_CheckEsp
	push	eax
	call	DWORD PTR __imp__HeapAlloc@12
	cmp	esi, esp
	call	__RTC_CheckEsp
	mov	DWORD PTR _lpVerBuffer$[ebp], eax

; 5677 :         if( lpVerBuffer )

	cmp	DWORD PTR _lpVerBuffer$[ebp], 0
	je	$LN8@GetImeId

; 5678 :         {
; 5679 :             if( _GetFileVersionInfoA( szTmp, dwVerHandle, dwVerSize, lpVerBuffer ) )

	mov	esi, esp
	mov	eax, DWORD PTR _lpVerBuffer$[ebp]
	push	eax
	mov	ecx, DWORD PTR _dwVerSize$[ebp]
	push	ecx
	mov	edx, DWORD PTR _dwVerHandle$[ebp]
	push	edx
	lea	eax, DWORD PTR _szTmp$[ebp]
	push	eax
	call	DWORD PTR ?_GetFileVersionInfoA@CDXUTIMEEditBox@@1P6GHPADKKPAX@ZA ; CDXUTIMEEditBox::_GetFileVersionInfoA
	cmp	esi, esp
	call	__RTC_CheckEsp
	test	eax, eax
	je	$LN6@GetImeId

; 5680 :             {
; 5681 :                 if( _VerQueryValueA( lpVerBuffer, "\\", &lpVerData, &cbVerData ) )

	mov	esi, esp
	lea	eax, DWORD PTR _cbVerData$[ebp]
	push	eax
	lea	ecx, DWORD PTR _lpVerData$[ebp]
	push	ecx
	push	OFFSET ??_C@_01KICIPPFI@?2?$AA@
	mov	edx, DWORD PTR _lpVerBuffer$[ebp]
	push	edx
	call	DWORD PTR ?_VerQueryValueA@CDXUTIMEEditBox@@1P6GHQAXPADPAPAXPAI@ZA ; CDXUTIMEEditBox::_VerQueryValueA
	cmp	esi, esp
	call	__RTC_CheckEsp
	test	eax, eax
	je	$LN6@GetImeId

; 5682 :                 {
; 5683 :                     DWORD dwVer = ( (VS_FIXEDFILEINFO*)lpVerData )->dwFileVersionMS;

	mov	eax, DWORD PTR _lpVerData$[ebp]
	mov	ecx, DWORD PTR [eax+8]
	mov	DWORD PTR _dwVer$1[ebp], ecx

; 5684 :                     dwVer = ( dwVer & 0x00ff0000 ) << 8 | ( dwVer & 0x000000ff ) << 16;

	mov	eax, DWORD PTR _dwVer$1[ebp]
	and	eax, 16711680				; 00ff0000H
	shl	eax, 8
	mov	ecx, DWORD PTR _dwVer$1[ebp]
	and	ecx, 255				; 000000ffH
	shl	ecx, 16					; 00000010H
	or	eax, ecx
	mov	DWORD PTR _dwVer$1[ebp], eax

; 5685 :                     if( _GetReadingString
; 5686 :                         ||
; 5687 :                         ( GetLanguage() == LANG_CHT &&
; 5688 :                           ( dwVer == MAKEIMEVERSION(4, 2) || 
; 5689 :                             dwVer == MAKEIMEVERSION(4, 3) || 
; 5690 :                             dwVer == MAKEIMEVERSION(4, 4) || 
; 5691 :                             dwVer == MAKEIMEVERSION(5, 0) ||
; 5692 :                             dwVer == MAKEIMEVERSION(5, 1) ||
; 5693 :                             dwVer == MAKEIMEVERSION(5, 2) ||
; 5694 :                             dwVer == MAKEIMEVERSION(6, 0) ) )
; 5695 :                         ||
; 5696 :                         ( GetLanguage() == LANG_CHS &&
; 5697 :                           ( dwVer == MAKEIMEVERSION(4, 1) ||
; 5698 :                             dwVer == MAKEIMEVERSION(4, 2) ||
; 5699 :                             dwVer == MAKEIMEVERSION(5, 3) ) )
; 5700 :                       )

	cmp	DWORD PTR ?_GetReadingString@CDXUTIMEEditBox@@1P6GIPAUHIMC__@@IPADPAH2PAI@ZA, 0 ; CDXUTIMEEditBox::_GetReadingString
	jne	$LN3@GetImeId
	call	?GetLanguage@CDXUTIMEEditBox@@KAGXZ	; CDXUTIMEEditBox::GetLanguage
	movzx	eax, ax
	cmp	eax, 1028				; 00000404H
	jne	SHORT $LN2@GetImeId
	cmp	DWORD PTR _dwVer$1[ebp], 67239936	; 04020000H
	je	SHORT $LN3@GetImeId
	cmp	DWORD PTR _dwVer$1[ebp], 67305472	; 04030000H
	je	SHORT $LN3@GetImeId
	cmp	DWORD PTR _dwVer$1[ebp], 67371008	; 04040000H
	je	SHORT $LN3@GetImeId
	cmp	DWORD PTR _dwVer$1[ebp], 83886080	; 05000000H
	je	SHORT $LN3@GetImeId
	cmp	DWORD PTR _dwVer$1[ebp], 83951616	; 05010000H
	je	SHORT $LN3@GetImeId
	cmp	DWORD PTR _dwVer$1[ebp], 84017152	; 05020000H
	je	SHORT $LN3@GetImeId
	cmp	DWORD PTR _dwVer$1[ebp], 100663296	; 06000000H
	je	SHORT $LN3@GetImeId
$LN2@GetImeId:
	call	?GetLanguage@CDXUTIMEEditBox@@KAGXZ	; CDXUTIMEEditBox::GetLanguage
	movzx	eax, ax
	cmp	eax, 2052				; 00000804H
	jne	SHORT $LN6@GetImeId
	cmp	DWORD PTR _dwVer$1[ebp], 67174400	; 04010000H
	je	SHORT $LN3@GetImeId
	cmp	DWORD PTR _dwVer$1[ebp], 67239936	; 04020000H
	je	SHORT $LN3@GetImeId
	cmp	DWORD PTR _dwVer$1[ebp], 84082688	; 05030000H
	jne	SHORT $LN6@GetImeId
$LN3@GetImeId:

; 5701 :                     {
; 5702 :                         dwID[0] = dwVer | GetLanguage();

	call	?GetLanguage@CDXUTIMEEditBox@@KAGXZ	; CDXUTIMEEditBox::GetLanguage
	movzx	eax, ax
	or	eax, DWORD PTR _dwVer$1[ebp]
	mov	ecx, 4
	imul	edx, ecx, 0
	mov	DWORD PTR ?dwID@?1??GetImeId@CDXUTIMEEditBox@@KAKI@Z@4PAKA[edx], eax

; 5703 :                         dwID[1] = ( (VS_FIXEDFILEINFO*)lpVerData )->dwFileVersionLS;

	mov	eax, 4
	shl	eax, 0
	mov	ecx, DWORD PTR _lpVerData$[ebp]
	mov	edx, DWORD PTR [ecx+12]
	mov	DWORD PTR ?dwID@?1??GetImeId@CDXUTIMEEditBox@@KAKI@Z@4PAKA[eax], edx
$LN6@GetImeId:

; 5704 :                     }
; 5705 :                 }
; 5706 :             }
; 5707 :             HeapFree( GetProcessHeap(), 0, lpVerBuffer );

	mov	esi, esp
	mov	eax, DWORD PTR _lpVerBuffer$[ebp]
	push	eax
	push	0
	mov	edi, esp
	call	DWORD PTR __imp__GetProcessHeap@0
	cmp	edi, esp
	call	__RTC_CheckEsp
	push	eax
	call	DWORD PTR __imp__HeapFree@12
	cmp	esi, esp
	call	__RTC_CheckEsp
$LN8@GetImeId:

; 5708 :         }
; 5709 :     }
; 5710 : 
; 5711 :     return dwID[uIndex];

	mov	eax, DWORD PTR _uIndex$[ebp]
	mov	eax, DWORD PTR ?dwID@?1??GetImeId@CDXUTIMEEditBox@@KAKI@Z@4PAKA[eax*4]
$LN15@GetImeId:

; 5712 : }

	push	edx
	mov	ecx, ebp
	push	eax
	lea	edx, DWORD PTR $LN22@GetImeId
	call	@_RTC_CheckStackVars@8
	pop	eax
	pop	edx
	pop	edi
	pop	esi
	pop	ebx
	mov	ecx, DWORD PTR __$ArrayPad$[ebp]
	xor	ecx, ebp
	call	@__security_check_cookie@4
	add	esp, 1300				; 00000514H
	cmp	ebp, esp
	call	__RTC_CheckEsp
	mov	esp, ebp
	pop	ebp
	ret	0
	npad	1
$LN22@GetImeId:
	DD	4
	DD	$LN21@GetImeId
$LN21@GetImeId:
	DD	-24					; ffffffe8H
	DD	4
	DD	$LN17@GetImeId
	DD	-48					; ffffffd0H
	DD	4
	DD	$LN18@GetImeId
	DD	-60					; ffffffc4H
	DD	4
	DD	$LN19@GetImeId
	DD	-1092					; fffffbbcH
	DD	1024					; 00000400H
	DD	$LN20@GetImeId
$LN20@GetImeId:
	DB	115					; 00000073H
	DB	122					; 0000007aH
	DB	84					; 00000054H
	DB	109					; 0000006dH
	DB	112					; 00000070H
	DB	0
$LN19@GetImeId:
	DB	99					; 00000063H
	DB	98					; 00000062H
	DB	86					; 00000056H
	DB	101					; 00000065H
	DB	114					; 00000072H
	DB	68					; 00000044H
	DB	97					; 00000061H
	DB	116					; 00000074H
	DB	97					; 00000061H
	DB	0
$LN18@GetImeId:
	DB	108					; 0000006cH
	DB	112					; 00000070H
	DB	86					; 00000056H
	DB	101					; 00000065H
	DB	114					; 00000072H
	DB	68					; 00000044H
	DB	97					; 00000061H
	DB	116					; 00000074H
	DB	97					; 00000061H
	DB	0
$LN17@GetImeId:
	DB	100					; 00000064H
	DB	119					; 00000077H
	DB	86					; 00000056H
	DB	101					; 00000065H
	DB	114					; 00000072H
	DB	72					; 00000048H
	DB	97					; 00000061H
	DB	110					; 0000006eH
	DB	100					; 00000064H
	DB	108					; 0000006cH
	DB	101					; 00000065H
	DB	0
?GetImeId@CDXUTIMEEditBox@@KAKI@Z ENDP			; CDXUTIMEEditBox::GetImeId
_TEXT	ENDS
; Function compile flags: /Odtp /RTCsu /ZI
; File z:\sampsrc\02xu1\saco\d3d9\common\dxutgui.cpp
;	COMDAT ?SendKey@CDXUTIMEEditBox@@KAXE@Z
_TEXT	SEGMENT
_nVirtKey$ = 8						; size = 1
?SendKey@CDXUTIMEEditBox@@KAXE@Z PROC			; CDXUTIMEEditBox::SendKey, COMDAT

; 5564 : {

	push	ebp
	mov	ebp, esp
	sub	esp, 192				; 000000c0H
	push	ebx
	push	esi
	push	edi
	lea	edi, DWORD PTR [ebp-192]
	mov	ecx, 48					; 00000030H
	mov	eax, -858993460				; ccccccccH
	rep stosd

; 5565 :     keybd_event( nVirtKey, 0, 0,               0 );

	mov	esi, esp
	push	0
	push	0
	push	0
	movzx	eax, BYTE PTR _nVirtKey$[ebp]
	push	eax
	call	DWORD PTR __imp__keybd_event@16
	cmp	esi, esp
	call	__RTC_CheckEsp

; 5566 :     keybd_event( nVirtKey, 0, KEYEVENTF_KEYUP, 0 );

	mov	esi, esp
	push	0
	push	2
	push	0
	movzx	eax, BYTE PTR _nVirtKey$[ebp]
	push	eax
	call	DWORD PTR __imp__keybd_event@16
	cmp	esi, esp
	call	__RTC_CheckEsp

; 5567 : }

	pop	edi
	pop	esi
	pop	ebx
	add	esp, 192				; 000000c0H
	cmp	ebp, esp
	call	__RTC_CheckEsp
	mov	esp, ebp
	pop	ebp
	ret	0
?SendKey@CDXUTIMEEditBox@@KAXE@Z ENDP			; CDXUTIMEEditBox::SendKey
_TEXT	ENDS
; Function compile flags: /Odtp /RTCsu /ZI
; File z:\sampsrc\02xu1\saco\d3d9\common\dxutgui.h
;	COMDAT ?GetSubLanguage@CDXUTIMEEditBox@@KAGXZ
_TEXT	SEGMENT
?GetSubLanguage@CDXUTIMEEditBox@@KAGXZ PROC		; CDXUTIMEEditBox::GetSubLanguage, COMDAT

; 990  :     static WORD GetSubLanguage() { return SUBLANGID( LOWORD( s_hklCurrent ) ); }

	push	ebp
	mov	ebp, esp
	sub	esp, 192				; 000000c0H
	push	ebx
	push	esi
	push	edi
	lea	edi, DWORD PTR [ebp-192]
	mov	ecx, 48					; 00000030H
	mov	eax, -858993460				; ccccccccH
	rep stosd
	mov	eax, DWORD PTR ?s_hklCurrent@CDXUTIMEEditBox@@1PAUHKL__@@A ; CDXUTIMEEditBox::s_hklCurrent
	and	eax, 65535				; 0000ffffH
	movzx	eax, ax
	sar	eax, 10					; 0000000aH
	pop	edi
	pop	esi
	pop	ebx
	mov	esp, ebp
	pop	ebp
	ret	0
?GetSubLanguage@CDXUTIMEEditBox@@KAGXZ ENDP		; CDXUTIMEEditBox::GetSubLanguage
_TEXT	ENDS
; Function compile flags: /Odtp /RTCsu /ZI
; File z:\sampsrc\02xu1\saco\d3d9\common\dxutgui.h
;	COMDAT ?GetPrimaryLanguage@CDXUTIMEEditBox@@KAGXZ
_TEXT	SEGMENT
?GetPrimaryLanguage@CDXUTIMEEditBox@@KAGXZ PROC		; CDXUTIMEEditBox::GetPrimaryLanguage, COMDAT

; 989  :     static WORD GetPrimaryLanguage() { return PRIMARYLANGID( LOWORD( s_hklCurrent ) ); }

	push	ebp
	mov	ebp, esp
	sub	esp, 192				; 000000c0H
	push	ebx
	push	esi
	push	edi
	lea	edi, DWORD PTR [ebp-192]
	mov	ecx, 48					; 00000030H
	mov	eax, -858993460				; ccccccccH
	rep stosd
	mov	eax, DWORD PTR ?s_hklCurrent@CDXUTIMEEditBox@@1PAUHKL__@@A ; CDXUTIMEEditBox::s_hklCurrent
	and	eax, 65535				; 0000ffffH
	movzx	eax, ax
	and	eax, 1023				; 000003ffH
	pop	edi
	pop	esi
	pop	ebx
	mov	esp, ebp
	pop	ebp
	ret	0
?GetPrimaryLanguage@CDXUTIMEEditBox@@KAGXZ ENDP		; CDXUTIMEEditBox::GetPrimaryLanguage
_TEXT	ENDS
; Function compile flags: /Odtp /RTCsu /ZI
; File z:\sampsrc\02xu1\saco\d3d9\common\dxutgui.h
;	COMDAT ?GetLanguage@CDXUTIMEEditBox@@KAGXZ
_TEXT	SEGMENT
?GetLanguage@CDXUTIMEEditBox@@KAGXZ PROC		; CDXUTIMEEditBox::GetLanguage, COMDAT

; 988  :     static WORD GetLanguage() { return LOWORD( s_hklCurrent ); }

	push	ebp
	mov	ebp, esp
	sub	esp, 192				; 000000c0H
	push	ebx
	push	esi
	push	edi
	lea	edi, DWORD PTR [ebp-192]
	mov	ecx, 48					; 00000030H
	mov	eax, -858993460				; ccccccccH
	rep stosd
	mov	eax, DWORD PTR ?s_hklCurrent@CDXUTIMEEditBox@@1PAUHKL__@@A ; CDXUTIMEEditBox::s_hklCurrent
	and	eax, 65535				; 0000ffffH
	pop	edi
	pop	esi
	pop	ebx
	mov	esp, ebp
	pop	ebp
	ret	0
?GetLanguage@CDXUTIMEEditBox@@KAGXZ ENDP		; CDXUTIMEEditBox::GetLanguage
_TEXT	ENDS
; Function compile flags: /Odtp /RTCsu /ZI
; File z:\sampsrc\02xu1\saco\d3d9\common\dxutgui.cpp
;	COMDAT ?RenderIndicator@CDXUTIMEEditBox@@UAEXPAUIDirect3DDevice9@@M@Z
_TEXT	SEGMENT
tv149 = -308						; size = 4
tv144 = -308						; size = 4
$T1 = -300						; size = 16
_pwszIndicator$ = -84					; size = 4
_rcCalc$ = -72						; size = 16
_rc$ = -48						; size = 16
_pElement$ = -24					; size = 4
_this$ = -12						; size = 4
__$ArrayPad$ = -4					; size = 4
_pd3dDevice$ = 8					; size = 4
_fElapsedTime$ = 12					; size = 4
?RenderIndicator@CDXUTIMEEditBox@@UAEXPAUIDirect3DDevice9@@M@Z PROC ; CDXUTIMEEditBox::RenderIndicator, COMDAT
; _this$ = ecx

; 7101 : {

	push	ebp
	mov	ebp, esp
	sub	esp, 308				; 00000134H
	push	ebx
	push	esi
	push	edi
	push	ecx
	lea	edi, DWORD PTR [ebp-308]
	mov	ecx, 77					; 0000004dH
	mov	eax, -858993460				; ccccccccH
	rep stosd
	pop	ecx
	mov	eax, DWORD PTR ___security_cookie
	xor	eax, ebp
	mov	DWORD PTR __$ArrayPad$[ebp], eax
	mov	DWORD PTR _this$[ebp], ecx

; 7102 :     CDXUTElement *pElement = m_Elements.GetAt( 9 );

	push	9
	mov	ecx, DWORD PTR _this$[ebp]
	add	ecx, 32					; 00000020H
	call	?GetAt@?$CGrowableArray@PAVCDXUTElement@@@@QAEAAPAVCDXUTElement@@H@Z ; CGrowableArray<CDXUTElement *>::GetAt
	mov	eax, DWORD PTR [eax]
	mov	DWORD PTR _pElement$[ebp], eax

; 7103 :     pElement->TextureColor.Blend( DXUT_STATE_NORMAL, fElapsedTime );

	push	ecx
	movss	xmm0, DWORD PTR __real@3f333333
	movss	DWORD PTR [esp], xmm0
	push	ecx
	movss	xmm0, DWORD PTR _fElapsedTime$[ebp]
	movss	DWORD PTR [esp], xmm0
	push	0
	mov	ecx, DWORD PTR _pElement$[ebp]
	add	ecx, 28					; 0000001cH
	call	?Blend@DXUTBlendColor@@QAEXIMM@Z	; DXUTBlendColor::Blend

; 7104 : 
; 7105 :     m_pDialog->DrawSprite( pElement, &m_rcIndicator );

	mov	eax, DWORD PTR _this$[ebp]
	add	eax, 385				; 00000181H
	push	eax
	mov	ecx, DWORD PTR _pElement$[ebp]
	push	ecx
	mov	edx, DWORD PTR _this$[ebp]
	mov	ecx, DWORD PTR [edx+24]
	call	?DrawSprite@CDXUTDialog@@QAEJPAVCDXUTElement@@PAUtagRECT@@@Z ; CDXUTDialog::DrawSprite

; 7106 :     RECT rc = m_rcIndicator;

	mov	eax, DWORD PTR _this$[ebp]
	add	eax, 385				; 00000181H
	mov	ecx, DWORD PTR [eax]
	mov	DWORD PTR _rc$[ebp], ecx
	mov	edx, DWORD PTR [eax+4]
	mov	DWORD PTR _rc$[ebp+4], edx
	mov	ecx, DWORD PTR [eax+8]
	mov	DWORD PTR _rc$[ebp+8], ecx
	mov	edx, DWORD PTR [eax+12]
	mov	DWORD PTR _rc$[ebp+12], edx

; 7107 :     InflateRect( &rc, -m_nSpacing, -m_nSpacing );

	mov	eax, DWORD PTR _this$[ebp]
	mov	ecx, DWORD PTR [eax+98]
	neg	ecx
	mov	esi, esp
	push	ecx
	mov	edx, DWORD PTR _this$[ebp]
	mov	eax, DWORD PTR [edx+98]
	neg	eax
	push	eax
	lea	ecx, DWORD PTR _rc$[ebp]
	push	ecx
	call	DWORD PTR __imp__InflateRect@12
	cmp	esi, esp
	call	__RTC_CheckEsp

; 7108 :     pElement->FontColor.Current = s_ImeState == IMEUI_STATE_ON && s_bEnableImeSystem ? m_IndicatorImeColor : m_IndicatorEngColor;

	cmp	DWORD PTR ?s_ImeState@CDXUTIMEEditBox@@1W4IMESTATE@1@A, 1 ; CDXUTIMEEditBox::s_ImeState
	jne	SHORT $LN3@RenderIndi
	movzx	eax, BYTE PTR ?s_bEnableImeSystem@CDXUTIMEEditBox@@1_NA ; CDXUTIMEEditBox::s_bEnableImeSystem
	test	eax, eax
	je	SHORT $LN3@RenderIndi
	mov	ecx, DWORD PTR _this$[ebp]
	mov	edx, DWORD PTR [ecx+369]
	mov	DWORD PTR tv144[ebp], edx
	jmp	SHORT $LN4@RenderIndi
$LN3@RenderIndi:
	mov	eax, DWORD PTR _this$[ebp]
	mov	ecx, DWORD PTR [eax+373]
	mov	DWORD PTR tv144[ebp], ecx
$LN4@RenderIndi:
	mov	edx, DWORD PTR tv144[ebp]
	push	edx
	lea	ecx, DWORD PTR $T1[ebp]
	call	??0D3DXCOLOR@@QAE@K@Z			; D3DXCOLOR::D3DXCOLOR
	mov	eax, DWORD PTR _pElement$[ebp]
	add	eax, 92					; 0000005cH
	mov	ecx, DWORD PTR $T1[ebp]
	mov	DWORD PTR [eax], ecx
	mov	edx, DWORD PTR $T1[ebp+4]
	mov	DWORD PTR [eax+4], edx
	mov	ecx, DWORD PTR $T1[ebp+8]
	mov	DWORD PTR [eax+8], ecx
	mov	edx, DWORD PTR $T1[ebp+12]
	mov	DWORD PTR [eax+12], edx

; 7109 :     RECT rcCalc = { 0, 0, 0, 0 };

	mov	DWORD PTR _rcCalc$[ebp], 0
	mov	DWORD PTR _rcCalc$[ebp+4], 0
	mov	DWORD PTR _rcCalc$[ebp+8], 0
	mov	DWORD PTR _rcCalc$[ebp+12], 0

; 7110 :     // If IME system is off, draw English indicator.
; 7111 :     TCHAR *pwszIndicator = s_bEnableImeSystem ? s_wszCurrIndicator : s_aszIndicator[0];

	movzx	eax, BYTE PTR ?s_bEnableImeSystem@CDXUTIMEEditBox@@1_NA ; CDXUTIMEEditBox::s_bEnableImeSystem
	test	eax, eax
	je	SHORT $LN5@RenderIndi
	mov	ecx, DWORD PTR ?s_wszCurrIndicator@CDXUTIMEEditBox@@1PADA ; CDXUTIMEEditBox::s_wszCurrIndicator
	mov	DWORD PTR tv149[ebp], ecx
	jmp	SHORT $LN6@RenderIndi
$LN5@RenderIndi:
	mov	edx, 3
	imul	eax, edx, 0
	add	eax, OFFSET ?s_aszIndicator@CDXUTIMEEditBox@@1PAY02DA ; CDXUTIMEEditBox::s_aszIndicator
	mov	DWORD PTR tv149[ebp], eax
$LN6@RenderIndi:
	mov	ecx, DWORD PTR tv149[ebp]
	mov	DWORD PTR _pwszIndicator$[ebp], ecx

; 7112 : 
; 7113 :     m_pDialog->CalcTextRect( pwszIndicator, pElement, &rcCalc );

	push	-1
	lea	eax, DWORD PTR _rcCalc$[ebp]
	push	eax
	mov	ecx, DWORD PTR _pElement$[ebp]
	push	ecx
	mov	edx, DWORD PTR _pwszIndicator$[ebp]
	push	edx
	mov	eax, DWORD PTR _this$[ebp]
	mov	ecx, DWORD PTR [eax+24]
	call	?CalcTextRect@CDXUTDialog@@QAEJPBDPAVCDXUTElement@@PAUtagRECT@@H@Z ; CDXUTDialog::CalcTextRect

; 7114 :     m_pDialog->DrawText( pwszIndicator, pElement, &rc );

	push	-1
	push	0
	lea	eax, DWORD PTR _rc$[ebp]
	push	eax
	mov	ecx, DWORD PTR _pElement$[ebp]
	push	ecx
	mov	edx, DWORD PTR _pwszIndicator$[ebp]
	push	edx
	mov	eax, DWORD PTR _this$[ebp]
	mov	ecx, DWORD PTR [eax+24]
	call	?DrawTextA@CDXUTDialog@@QAEJPBDPAVCDXUTElement@@PAUtagRECT@@_NH@Z ; CDXUTDialog::DrawTextA

; 7115 : }

	push	edx
	mov	ecx, ebp
	push	eax
	lea	edx, DWORD PTR $LN10@RenderIndi
	call	@_RTC_CheckStackVars@8
	pop	eax
	pop	edx
	pop	edi
	pop	esi
	pop	ebx
	mov	ecx, DWORD PTR __$ArrayPad$[ebp]
	xor	ecx, ebp
	call	@__security_check_cookie@4
	add	esp, 308				; 00000134H
	cmp	ebp, esp
	call	__RTC_CheckEsp
	mov	esp, ebp
	pop	ebp
	ret	8
	npad	2
$LN10@RenderIndi:
	DD	2
	DD	$LN9@RenderIndi
$LN9@RenderIndi:
	DD	-48					; ffffffd0H
	DD	16					; 00000010H
	DD	$LN7@RenderIndi
	DD	-72					; ffffffb8H
	DD	16					; 00000010H
	DD	$LN8@RenderIndi
$LN8@RenderIndi:
	DB	114					; 00000072H
	DB	99					; 00000063H
	DB	67					; 00000043H
	DB	97					; 00000061H
	DB	108					; 0000006cH
	DB	99					; 00000063H
	DB	0
$LN7@RenderIndi:
	DB	114					; 00000072H
	DB	99					; 00000063H
	DB	0
?RenderIndicator@CDXUTIMEEditBox@@UAEXPAUIDirect3DDevice9@@M@Z ENDP ; CDXUTIMEEditBox::RenderIndicator
_TEXT	ENDS
; Function compile flags: /Odtp /RTCsu /ZI
; File z:\sampsrc\02xu1\saco\d3d9\common\dxutgui.cpp
;	COMDAT ?RenderComposition@CDXUTIMEEditBox@@UAEXPAUIDirect3DDevice9@@M@Z
_TEXT	SEGMENT
tv211 = -584						; size = 4
$T1 = -576						; size = 16
$T2 = -552						; size = 16
$T3 = -528						; size = 16
$T4 = -504						; size = 16
_rcTarget$5 = -288					; size = 16
_nXRight$6 = -264					; size = 4
_nXLeft$7 = -252					; size = 4
_bkColor$8 = -240					; size = 4
_pcComp$ = -228						; size = 4
_pAttr$ = -216						; size = 4
_nCharFirst$ = -204					; size = 4
_nNumCharToDraw$9 = -192				; size = 4
_bTrail$10 = -180					; size = 4
_nLastInLine$11 = -168					; size = 4
_nCharLeft$ = -156					; size = 4
_pwszComp$ = -144					; size = 4
_TextColor$ = -132					; size = 4
_rcFirst$ = -120					; size = 16
_rc$ = -96						; size = 16
_pElement$ = -72					; size = 4
_nXFirst$ = -60						; size = 4
_nX$ = -48						; size = 4
_rcCaret$ = -36						; size = 16
_this$ = -12						; size = 4
__$ArrayPad$ = -4					; size = 4
_pd3dDevice$ = 8					; size = 4
_fElapsedTime$ = 12					; size = 4
?RenderComposition@CDXUTIMEEditBox@@UAEXPAUIDirect3DDevice9@@M@Z PROC ; CDXUTIMEEditBox::RenderComposition, COMDAT
; _this$ = ecx

; 6938 : {

	push	ebp
	mov	ebp, esp
	sub	esp, 584				; 00000248H
	push	ebx
	push	esi
	push	edi
	push	ecx
	lea	edi, DWORD PTR [ebp-584]
	mov	ecx, 146				; 00000092H
	mov	eax, -858993460				; ccccccccH
	rep stosd
	pop	ecx
	mov	eax, DWORD PTR ___security_cookie
	xor	eax, ebp
	mov	DWORD PTR __$ArrayPad$[ebp], eax
	mov	DWORD PTR _this$[ebp], ecx

; 6939 :     RECT rcCaret = { 0, 0, 0, 0 };

	mov	DWORD PTR _rcCaret$[ebp], 0
	mov	DWORD PTR _rcCaret$[ebp+4], 0
	mov	DWORD PTR _rcCaret$[ebp+8], 0
	mov	DWORD PTR _rcCaret$[ebp+12], 0

; 6940 :     int nX, nXFirst;
; 6941 :     m_Buffer.CPtoX( m_nCaret, FALSE, &nX );

	lea	eax, DWORD PTR _nX$[ebp]
	push	eax
	push	0
	mov	ecx, DWORD PTR _this$[ebp]
	mov	edx, DWORD PTR [ecx+279]
	push	edx
	mov	ecx, DWORD PTR _this$[ebp]
	add	ecx, 77					; 0000004dH
	call	?CPtoX@CUniBuffer@@QAEJHHPAH@Z		; CUniBuffer::CPtoX

; 6942 :     m_Buffer.CPtoX( m_nFirstVisible, FALSE, &nXFirst );

	lea	eax, DWORD PTR _nXFirst$[ebp]
	push	eax
	push	0
	mov	ecx, DWORD PTR _this$[ebp]
	mov	edx, DWORD PTR [ecx+288]
	push	edx
	mov	ecx, DWORD PTR _this$[ebp]
	add	ecx, 77					; 0000004dH
	call	?CPtoX@CUniBuffer@@QAEJHHPAH@Z		; CUniBuffer::CPtoX

; 6943 :     CDXUTElement *pElement = m_Elements.GetAt( 1 );

	push	1
	mov	ecx, DWORD PTR _this$[ebp]
	add	ecx, 32					; 00000020H
	call	?GetAt@?$CGrowableArray@PAVCDXUTElement@@@@QAEAAPAVCDXUTElement@@H@Z ; CGrowableArray<CDXUTElement *>::GetAt
	mov	eax, DWORD PTR [eax]
	mov	DWORD PTR _pElement$[ebp], eax

; 6944 : 
; 6945 :     // Get the required width
; 6946 :     RECT rc = { m_rcText.left + nX - nXFirst, m_rcText.top,
; 6947 :                 m_rcText.left + nX - nXFirst, m_rcText.bottom };

	mov	eax, DWORD PTR _this$[ebp]
	mov	ecx, DWORD PTR [eax+102]
	add	ecx, DWORD PTR _nX$[ebp]
	sub	ecx, DWORD PTR _nXFirst$[ebp]
	mov	DWORD PTR _rc$[ebp], ecx
	mov	eax, DWORD PTR _this$[ebp]
	mov	ecx, DWORD PTR [eax+106]
	mov	DWORD PTR _rc$[ebp+4], ecx
	mov	eax, DWORD PTR _this$[ebp]
	mov	ecx, DWORD PTR [eax+102]
	add	ecx, DWORD PTR _nX$[ebp]
	sub	ecx, DWORD PTR _nXFirst$[ebp]
	mov	DWORD PTR _rc$[ebp+8], ecx
	mov	eax, DWORD PTR _this$[ebp]
	mov	ecx, DWORD PTR [eax+114]
	mov	DWORD PTR _rc$[ebp+12], ecx

; 6948 :     m_pDialog->CalcTextRect( s_CompString.GetBuffer(), pElement, &rc );

	push	-1
	lea	eax, DWORD PTR _rc$[ebp]
	push	eax
	mov	ecx, DWORD PTR _pElement$[ebp]
	push	ecx
	mov	ecx, OFFSET ?s_CompString@CDXUTIMEEditBox@@1VCUniBuffer@@A ; CDXUTIMEEditBox::s_CompString
	call	?GetBuffer@CUniBuffer@@QAEPBDXZ		; CUniBuffer::GetBuffer
	push	eax
	mov	edx, DWORD PTR _this$[ebp]
	mov	ecx, DWORD PTR [edx+24]
	call	?CalcTextRect@CDXUTDialog@@QAEJPBDPAVCDXUTElement@@PAUtagRECT@@H@Z ; CDXUTDialog::CalcTextRect

; 6949 : 
; 6950 :     // If the composition string is too long to fit within
; 6951 :     // the text area, move it to below the current line.
; 6952 :     // This matches the behavior of the default IME.
; 6953 :     if( rc.right > m_rcText.right )

	mov	eax, DWORD PTR _this$[ebp]
	mov	ecx, DWORD PTR _rc$[ebp+8]
	cmp	ecx, DWORD PTR [eax+110]
	jle	SHORT $LN20@RenderComp

; 6954 :         OffsetRect( &rc, m_rcText.left - rc.left, rc.bottom - rc.top );

	mov	eax, DWORD PTR _rc$[ebp+12]
	sub	eax, DWORD PTR _rc$[ebp+4]
	mov	esi, esp
	push	eax
	mov	ecx, DWORD PTR _this$[ebp]
	mov	edx, DWORD PTR [ecx+102]
	sub	edx, DWORD PTR _rc$[ebp]
	push	edx
	lea	eax, DWORD PTR _rc$[ebp]
	push	eax
	call	DWORD PTR __imp__OffsetRect@12
	cmp	esi, esp
	call	__RTC_CheckEsp
$LN20@RenderComp:

; 6955 : 
; 6956 :     // Save the rectangle position for processing highlighted text.
; 6957 :     RECT rcFirst = rc;

	mov	eax, DWORD PTR _rc$[ebp]
	mov	DWORD PTR _rcFirst$[ebp], eax
	mov	ecx, DWORD PTR _rc$[ebp+4]
	mov	DWORD PTR _rcFirst$[ebp+4], ecx
	mov	edx, DWORD PTR _rc$[ebp+8]
	mov	DWORD PTR _rcFirst$[ebp+8], edx
	mov	eax, DWORD PTR _rc$[ebp+12]
	mov	DWORD PTR _rcFirst$[ebp+12], eax

; 6958 : 
; 6959 :     // Update s_ptCompString for RenderCandidateReadingWindow().
; 6960 :     s_ptCompString.x = rc.left; s_ptCompString.y = rc.top;

	mov	eax, DWORD PTR _rc$[ebp]
	mov	DWORD PTR ?s_ptCompString@CDXUTIMEEditBox@@1UtagPOINT@@A, eax
	mov	eax, DWORD PTR _rc$[ebp+4]
	mov	DWORD PTR ?s_ptCompString@CDXUTIMEEditBox@@1UtagPOINT@@A+4, eax

; 6961 : 
; 6962 :     D3DCOLOR TextColor = m_CompColor;

	mov	eax, DWORD PTR _this$[ebp]
	mov	ecx, DWORD PTR [eax+341]
	mov	DWORD PTR _TextColor$[ebp], ecx

; 6963 :     // Render the window and string.
; 6964 :     // If the string is too long, we must wrap the line.
; 6965 :     pElement->FontColor.Current = TextColor;

	mov	eax, DWORD PTR _TextColor$[ebp]
	push	eax
	lea	ecx, DWORD PTR $T1[ebp]
	call	??0D3DXCOLOR@@QAE@K@Z			; D3DXCOLOR::D3DXCOLOR
	mov	ecx, DWORD PTR _pElement$[ebp]
	add	ecx, 92					; 0000005cH
	mov	edx, DWORD PTR $T1[ebp]
	mov	DWORD PTR [ecx], edx
	mov	eax, DWORD PTR $T1[ebp+4]
	mov	DWORD PTR [ecx+4], eax
	mov	edx, DWORD PTR $T1[ebp+8]
	mov	DWORD PTR [ecx+8], edx
	mov	eax, DWORD PTR $T1[ebp+12]
	mov	DWORD PTR [ecx+12], eax

; 6966 :     const TCHAR *pwszComp = s_CompString.GetBuffer();

	mov	ecx, OFFSET ?s_CompString@CDXUTIMEEditBox@@1VCUniBuffer@@A ; CDXUTIMEEditBox::s_CompString
	call	?GetBuffer@CUniBuffer@@QAEPBDXZ		; CUniBuffer::GetBuffer
	mov	DWORD PTR _pwszComp$[ebp], eax

; 6967 :     int nCharLeft = s_CompString.GetTextSize();

	mov	ecx, OFFSET ?s_CompString@CDXUTIMEEditBox@@1VCUniBuffer@@A ; CDXUTIMEEditBox::s_CompString
	call	?GetTextSize@CUniBuffer@@QAEHXZ		; CUniBuffer::GetTextSize
	mov	DWORD PTR _nCharLeft$[ebp], eax
$LN19@RenderComp:

; 6968 :     for( ; ; )
; 6969 :     {
; 6970 :         // Find the last character that can be drawn on the same line.
; 6971 :         int nLastInLine;
; 6972 :         int bTrail;
; 6973 :         s_CompString.XtoCP( m_rcText.right - rc.left, &nLastInLine, &bTrail );

	lea	eax, DWORD PTR _bTrail$10[ebp]
	push	eax
	lea	ecx, DWORD PTR _nLastInLine$11[ebp]
	push	ecx
	mov	edx, DWORD PTR _this$[ebp]
	mov	eax, DWORD PTR [edx+110]
	sub	eax, DWORD PTR _rc$[ebp]
	push	eax
	mov	ecx, OFFSET ?s_CompString@CDXUTIMEEditBox@@1VCUniBuffer@@A ; CDXUTIMEEditBox::s_CompString
	call	?XtoCP@CUniBuffer@@QAEJHPAH0@Z		; CUniBuffer::XtoCP

; 6974 :         int nNumCharToDraw = __min( nCharLeft, nLastInLine );

	mov	eax, DWORD PTR _nCharLeft$[ebp]
	cmp	eax, DWORD PTR _nLastInLine$11[ebp]
	jge	SHORT $LN23@RenderComp
	mov	ecx, DWORD PTR _nCharLeft$[ebp]
	mov	DWORD PTR tv211[ebp], ecx
	jmp	SHORT $LN24@RenderComp
$LN23@RenderComp:
	mov	edx, DWORD PTR _nLastInLine$11[ebp]
	mov	DWORD PTR tv211[ebp], edx
$LN24@RenderComp:
	mov	eax, DWORD PTR tv211[ebp]
	mov	DWORD PTR _nNumCharToDraw$9[ebp], eax

; 6975 :         m_pDialog->CalcTextRect( pwszComp, pElement, &rc, nNumCharToDraw );

	mov	eax, DWORD PTR _nNumCharToDraw$9[ebp]
	push	eax
	lea	ecx, DWORD PTR _rc$[ebp]
	push	ecx
	mov	edx, DWORD PTR _pElement$[ebp]
	push	edx
	mov	eax, DWORD PTR _pwszComp$[ebp]
	push	eax
	mov	ecx, DWORD PTR _this$[ebp]
	mov	ecx, DWORD PTR [ecx+24]
	call	?CalcTextRect@CDXUTDialog@@QAEJPBDPAVCDXUTElement@@PAUtagRECT@@H@Z ; CDXUTDialog::CalcTextRect

; 6976 : 
; 6977 :         // Draw the background
; 6978 :         // For Korean IME, blink the composition window background as if it
; 6979 :         // is a cursor.
; 6980 :         if( GetPrimaryLanguage() == LANG_KOREAN )

	call	?GetPrimaryLanguage@CDXUTIMEEditBox@@KAGXZ ; CDXUTIMEEditBox::GetPrimaryLanguage
	movzx	eax, ax
	cmp	eax, 18					; 00000012H
	jne	SHORT $LN17@RenderComp

; 6981 :         {
; 6982 :             if( m_bCaretOn )

	mov	eax, DWORD PTR _this$[ebp]
	movzx	ecx, BYTE PTR [eax+278]
	test	ecx, ecx
	je	SHORT $LN16@RenderComp

; 6983 :             {
; 6984 :                 m_pDialog->DrawRect( &rc, m_CompWinColor );

	mov	eax, DWORD PTR _this$[ebp]
	mov	ecx, DWORD PTR [eax+345]
	push	ecx
	lea	edx, DWORD PTR _rc$[ebp]
	push	edx
	mov	eax, DWORD PTR _this$[ebp]
	mov	ecx, DWORD PTR [eax+24]
	call	?DrawRect@CDXUTDialog@@QAEJPAUtagRECT@@K@Z ; CDXUTDialog::DrawRect

; 6985 :             }
; 6986 :             else

	jmp	SHORT $LN15@RenderComp
$LN16@RenderComp:

; 6987 :             {
; 6988 :                 // Not drawing composition string background. We
; 6989 :                 // use the editbox's text color for composition
; 6990 :                 // string text.
; 6991 :                 TextColor = m_Elements.GetAt(0)->FontColor.States[DXUT_STATE_NORMAL];

	push	0
	mov	ecx, DWORD PTR _this$[ebp]
	add	ecx, 32					; 00000020H
	call	?GetAt@?$CGrowableArray@PAVCDXUTElement@@@@QAEAAPAVCDXUTElement@@H@Z ; CGrowableArray<CDXUTElement *>::GetAt
	mov	eax, DWORD PTR [eax]
	mov	ecx, 4
	imul	edx, ecx, 0
	mov	eax, DWORD PTR [eax+edx+68]
	mov	DWORD PTR _TextColor$[ebp], eax
$LN15@RenderComp:

; 6992 :             }
; 6993 :         } else

	jmp	SHORT $LN14@RenderComp
$LN17@RenderComp:

; 6994 :         {
; 6995 :             // Non-Korean IME. Always draw composition background.
; 6996 :             m_pDialog->DrawRect( &rc, m_CompWinColor );

	mov	eax, DWORD PTR _this$[ebp]
	mov	ecx, DWORD PTR [eax+345]
	push	ecx
	lea	edx, DWORD PTR _rc$[ebp]
	push	edx
	mov	eax, DWORD PTR _this$[ebp]
	mov	ecx, DWORD PTR [eax+24]
	call	?DrawRect@CDXUTDialog@@QAEJPAUtagRECT@@K@Z ; CDXUTDialog::DrawRect
$LN14@RenderComp:

; 6997 :         }
; 6998 : 
; 6999 :         // Draw the text
; 7000 :         pElement->FontColor.Current = TextColor;

	mov	eax, DWORD PTR _TextColor$[ebp]
	push	eax
	lea	ecx, DWORD PTR $T2[ebp]
	call	??0D3DXCOLOR@@QAE@K@Z			; D3DXCOLOR::D3DXCOLOR
	mov	ecx, DWORD PTR _pElement$[ebp]
	add	ecx, 92					; 0000005cH
	mov	edx, DWORD PTR $T2[ebp]
	mov	DWORD PTR [ecx], edx
	mov	eax, DWORD PTR $T2[ebp+4]
	mov	DWORD PTR [ecx+4], eax
	mov	edx, DWORD PTR $T2[ebp+8]
	mov	DWORD PTR [ecx+8], edx
	mov	eax, DWORD PTR $T2[ebp+12]
	mov	DWORD PTR [ecx+12], eax

; 7001 :         m_pDialog->DrawText( pwszComp, pElement, &rc, false, nNumCharToDraw );

	mov	eax, DWORD PTR _nNumCharToDraw$9[ebp]
	push	eax
	push	0
	lea	ecx, DWORD PTR _rc$[ebp]
	push	ecx
	mov	edx, DWORD PTR _pElement$[ebp]
	push	edx
	mov	eax, DWORD PTR _pwszComp$[ebp]
	push	eax
	mov	ecx, DWORD PTR _this$[ebp]
	mov	ecx, DWORD PTR [ecx+24]
	call	?DrawTextA@CDXUTDialog@@QAEJPBDPAVCDXUTElement@@PAUtagRECT@@_NH@Z ; CDXUTDialog::DrawTextA

; 7002 : 
; 7003 :         // Advance pointer and counter
; 7004 :         nCharLeft -= nNumCharToDraw;

	mov	eax, DWORD PTR _nCharLeft$[ebp]
	sub	eax, DWORD PTR _nNumCharToDraw$9[ebp]
	mov	DWORD PTR _nCharLeft$[ebp], eax

; 7005 :         pwszComp += nNumCharToDraw;

	mov	eax, DWORD PTR _pwszComp$[ebp]
	add	eax, DWORD PTR _nNumCharToDraw$9[ebp]
	mov	DWORD PTR _pwszComp$[ebp], eax

; 7006 :         if( nCharLeft <= 0 )

	cmp	DWORD PTR _nCharLeft$[ebp], 0
	jg	SHORT $LN13@RenderComp

; 7007 :             break;

	jmp	SHORT $LN18@RenderComp
$LN13@RenderComp:

; 7008 : 
; 7009 :         // Advance rectangle coordinates to beginning of next line
; 7010 :         OffsetRect( &rc, m_rcText.left - rc.left, rc.bottom - rc.top );

	mov	eax, DWORD PTR _rc$[ebp+12]
	sub	eax, DWORD PTR _rc$[ebp+4]
	mov	esi, esp
	push	eax
	mov	ecx, DWORD PTR _this$[ebp]
	mov	edx, DWORD PTR [ecx+102]
	sub	edx, DWORD PTR _rc$[ebp]
	push	edx
	lea	eax, DWORD PTR _rc$[ebp]
	push	eax
	call	DWORD PTR __imp__OffsetRect@12
	cmp	esi, esp
	call	__RTC_CheckEsp

; 7011 :     }

	jmp	$LN19@RenderComp
$LN18@RenderComp:

; 7012 : 
; 7013 :     // Load the rect for the first line again.
; 7014 :     rc = rcFirst;

	mov	eax, DWORD PTR _rcFirst$[ebp]
	mov	DWORD PTR _rc$[ebp], eax
	mov	ecx, DWORD PTR _rcFirst$[ebp+4]
	mov	DWORD PTR _rc$[ebp+4], ecx
	mov	edx, DWORD PTR _rcFirst$[ebp+8]
	mov	DWORD PTR _rc$[ebp+8], edx
	mov	eax, DWORD PTR _rcFirst$[ebp+12]
	mov	DWORD PTR _rc$[ebp+12], eax

; 7015 : 
; 7016 :     // Inspect each character in the comp string.
; 7017 :     // For target-converted and target-non-converted characters,
; 7018 :     // we display a different background color so they appear highlighted.
; 7019 :     int nCharFirst = 0;

	mov	DWORD PTR _nCharFirst$[ebp], 0

; 7020 :     nXFirst = 0;

	mov	DWORD PTR _nXFirst$[ebp], 0

; 7021 :     s_nFirstTargetConv = -1;

	mov	DWORD PTR ?s_nFirstTargetConv@CDXUTIMEEditBox@@1HA, -1 ; CDXUTIMEEditBox::s_nFirstTargetConv

; 7022 :     BYTE *pAttr;
; 7023 :     const TCHAR *pcComp;
; 7024 :     for( pcComp = s_CompString.GetBuffer(), pAttr = s_abCompStringAttr;

	mov	ecx, OFFSET ?s_CompString@CDXUTIMEEditBox@@1VCUniBuffer@@A ; CDXUTIMEEditBox::s_CompString
	call	?GetBuffer@CUniBuffer@@QAEPBDXZ		; CUniBuffer::GetBuffer
	mov	DWORD PTR _pcComp$[ebp], eax
	mov	DWORD PTR _pAttr$[ebp], OFFSET ?s_abCompStringAttr@CDXUTIMEEditBox@@1PAEA ; CDXUTIMEEditBox::s_abCompStringAttr

; 7025 :           *pcComp != L'\0'; ++pcComp, ++pAttr )

	jmp	SHORT $LN12@RenderComp
$LN11@RenderComp:
	mov	eax, DWORD PTR _pcComp$[ebp]
	add	eax, 1
	mov	DWORD PTR _pcComp$[ebp], eax
	mov	ecx, DWORD PTR _pAttr$[ebp]
	add	ecx, 1
	mov	DWORD PTR _pAttr$[ebp], ecx
$LN12@RenderComp:
	mov	eax, DWORD PTR _pcComp$[ebp]
	movsx	ecx, BYTE PTR [eax]
	test	ecx, ecx
	je	$LN10@RenderComp

; 7026 :     {
; 7027 :         D3DCOLOR bkColor;
; 7028 : 
; 7029 :         // Render a different background for this character
; 7030 :         int nXLeft, nXRight;
; 7031 :         s_CompString.CPtoX( int(pcComp - s_CompString.GetBuffer()), FALSE, &nXLeft );

	lea	eax, DWORD PTR _nXLeft$7[ebp]
	push	eax
	push	0
	mov	ecx, OFFSET ?s_CompString@CDXUTIMEEditBox@@1VCUniBuffer@@A ; CDXUTIMEEditBox::s_CompString
	call	?GetBuffer@CUniBuffer@@QAEPBDXZ		; CUniBuffer::GetBuffer
	mov	ecx, DWORD PTR _pcComp$[ebp]
	sub	ecx, eax
	push	ecx
	mov	ecx, OFFSET ?s_CompString@CDXUTIMEEditBox@@1VCUniBuffer@@A ; CDXUTIMEEditBox::s_CompString
	call	?CPtoX@CUniBuffer@@QAEJHHPAH@Z		; CUniBuffer::CPtoX

; 7032 :         s_CompString.CPtoX( int(pcComp - s_CompString.GetBuffer()), TRUE, &nXRight );

	lea	eax, DWORD PTR _nXRight$6[ebp]
	push	eax
	push	1
	mov	ecx, OFFSET ?s_CompString@CDXUTIMEEditBox@@1VCUniBuffer@@A ; CDXUTIMEEditBox::s_CompString
	call	?GetBuffer@CUniBuffer@@QAEPBDXZ		; CUniBuffer::GetBuffer
	mov	ecx, DWORD PTR _pcComp$[ebp]
	sub	ecx, eax
	push	ecx
	mov	ecx, OFFSET ?s_CompString@CDXUTIMEEditBox@@1VCUniBuffer@@A ; CDXUTIMEEditBox::s_CompString
	call	?CPtoX@CUniBuffer@@QAEJHHPAH@Z		; CUniBuffer::CPtoX

; 7033 : 
; 7034 :         // Check if this character is off the right edge and should
; 7035 :         // be wrapped to the next line.
; 7036 :         if( nXRight - nXFirst > m_rcText.right - rc.left )

	mov	eax, DWORD PTR _nXRight$6[ebp]
	sub	eax, DWORD PTR _nXFirst$[ebp]
	mov	ecx, DWORD PTR _this$[ebp]
	mov	edx, DWORD PTR [ecx+110]
	sub	edx, DWORD PTR _rc$[ebp]
	cmp	eax, edx
	jle	SHORT $LN9@RenderComp

; 7037 :         {
; 7038 :             // Advance rectangle coordinates to beginning of next line
; 7039 :             OffsetRect( &rc, m_rcText.left - rc.left, rc.bottom - rc.top );

	mov	eax, DWORD PTR _rc$[ebp+12]
	sub	eax, DWORD PTR _rc$[ebp+4]
	mov	esi, esp
	push	eax
	mov	ecx, DWORD PTR _this$[ebp]
	mov	edx, DWORD PTR [ecx+102]
	sub	edx, DWORD PTR _rc$[ebp]
	push	edx
	lea	eax, DWORD PTR _rc$[ebp]
	push	eax
	call	DWORD PTR __imp__OffsetRect@12
	cmp	esi, esp
	call	__RTC_CheckEsp

; 7040 : 
; 7041 :             // Update the line's first character information
; 7042 :             nCharFirst = int(pcComp - s_CompString.GetBuffer());

	mov	ecx, OFFSET ?s_CompString@CDXUTIMEEditBox@@1VCUniBuffer@@A ; CDXUTIMEEditBox::s_CompString
	call	?GetBuffer@CUniBuffer@@QAEPBDXZ		; CUniBuffer::GetBuffer
	mov	ecx, DWORD PTR _pcComp$[ebp]
	sub	ecx, eax
	mov	DWORD PTR _nCharFirst$[ebp], ecx

; 7043 :             s_CompString.CPtoX( nCharFirst, FALSE, &nXFirst );

	lea	eax, DWORD PTR _nXFirst$[ebp]
	push	eax
	push	0
	mov	ecx, DWORD PTR _nCharFirst$[ebp]
	push	ecx
	mov	ecx, OFFSET ?s_CompString@CDXUTIMEEditBox@@1VCUniBuffer@@A ; CDXUTIMEEditBox::s_CompString
	call	?CPtoX@CUniBuffer@@QAEJHHPAH@Z		; CUniBuffer::CPtoX
$LN9@RenderComp:

; 7044 :         }
; 7045 : 
; 7046 :         // If the caret is on this character, save the coordinates
; 7047 :         // for drawing the caret later.
; 7048 :         if( s_nCompCaret == int(pcComp - s_CompString.GetBuffer()) )

	mov	ecx, OFFSET ?s_CompString@CDXUTIMEEditBox@@1VCUniBuffer@@A ; CDXUTIMEEditBox::s_CompString
	call	?GetBuffer@CUniBuffer@@QAEPBDXZ		; CUniBuffer::GetBuffer
	mov	ecx, DWORD PTR _pcComp$[ebp]
	sub	ecx, eax
	cmp	DWORD PTR ?s_nCompCaret@CDXUTIMEEditBox@@1HA, ecx ; CDXUTIMEEditBox::s_nCompCaret
	jne	SHORT $LN8@RenderComp

; 7049 :         {
