; Listing generated by Microsoft (R) Optimizing Compiler Version 18.00.31101.0 

	TITLE	Z:\sampsrc\02Xu1\saco\d3d9\common\DXUTenum.cpp
	.686P
	.XMM
	include listing.inc
	.model	flat

INCLUDELIB LIBCMTD
INCLUDELIB OLDNAMES

PUBLIC	??2@YAPAXIPAX@Z					; operator new
PUBLIC	?StringCopyWorkerA@@YGJPADIPBD@Z		; StringCopyWorkerA
PUBLIC	?StringCatWorkerA@@YGJPADIPBD@Z			; StringCatWorkerA
PUBLIC	?StringVPrintfWorkerA@@YGJPADIPBD0@Z		; StringVPrintfWorkerA
PUBLIC	?StringLengthWorkerA@@YGJPBDIPAI@Z		; StringLengthWorkerA
PUBLIC	?StringCchCatA@@YGJPADIPBD@Z			; StringCchCatA
PUBLIC	?StringCchPrintfA@@YAJPADIPBDZZ			; StringCchPrintfA
PUBLIC	?SetResolutionMinMax@CD3DEnumeration@@QAEXIIII@Z ; CD3DEnumeration::SetResolutionMinMax
PUBLIC	?SetRefreshMinMax@CD3DEnumeration@@QAEXII@Z	; CD3DEnumeration::SetRefreshMinMax
PUBLIC	?SetMultisampleQualityMax@CD3DEnumeration@@QAEXI@Z ; CD3DEnumeration::SetMultisampleQualityMax
PUBLIC	?GetPossibleVertexProcessingList@CD3DEnumeration@@QAEXPA_N000@Z ; CD3DEnumeration::GetPossibleVertexProcessingList
PUBLIC	?SetPossibleVertexProcessingList@CD3DEnumeration@@QAEX_N000@Z ; CD3DEnumeration::SetPossibleVertexProcessingList
PUBLIC	?GetPossibleDepthStencilFormatList@CD3DEnumeration@@QAEPAV?$CGrowableArray@W4_D3DFORMAT@@@@XZ ; CD3DEnumeration::GetPossibleDepthStencilFormatList
PUBLIC	?GetPossibleMultisampleTypeList@CD3DEnumeration@@QAEPAV?$CGrowableArray@W4_D3DMULTISAMPLE_TYPE@@@@XZ ; CD3DEnumeration::GetPossibleMultisampleTypeList
PUBLIC	?GetPossiblePresentIntervalList@CD3DEnumeration@@QAEPAV?$CGrowableArray@I@@XZ ; CD3DEnumeration::GetPossiblePresentIntervalList
PUBLIC	?ResetPossibleDepthStencilFormats@CD3DEnumeration@@QAEXXZ ; CD3DEnumeration::ResetPossibleDepthStencilFormats
PUBLIC	?ResetPossibleMultisampleTypeList@CD3DEnumeration@@QAEXXZ ; CD3DEnumeration::ResetPossibleMultisampleTypeList
PUBLIC	?ResetPossiblePresentIntervalList@CD3DEnumeration@@QAEXXZ ; CD3DEnumeration::ResetPossiblePresentIntervalList
PUBLIC	?Enumerate@CD3DEnumeration@@QAEJPAUIDirect3D9@@P6G_NPAU_D3DCAPS9@@W4_D3DFORMAT@@2_NPAX@Z4@Z ; CD3DEnumeration::Enumerate
PUBLIC	?GetAdapterInfoList@CD3DEnumeration@@QAEPAV?$CGrowableArray@PAVCD3DEnumAdapterInfo@@@@XZ ; CD3DEnumeration::GetAdapterInfoList
PUBLIC	?GetAdapterInfo@CD3DEnumeration@@QAEPAVCD3DEnumAdapterInfo@@I@Z ; CD3DEnumeration::GetAdapterInfo
PUBLIC	?GetDeviceInfo@CD3DEnumeration@@QAEPAVCD3DEnumDeviceInfo@@IW4_D3DDEVTYPE@@@Z ; CD3DEnumeration::GetDeviceInfo
PUBLIC	?GetDeviceSettingsCombo@CD3DEnumeration@@QAEPAUCD3DEnumDeviceSettingsCombo@@IW4_D3DDEVTYPE@@W4_D3DFORMAT@@1H@Z ; CD3DEnumeration::GetDeviceSettingsCombo
PUBLIC	??1CD3DEnumeration@@QAE@XZ			; CD3DEnumeration::~CD3DEnumeration
PUBLIC	?DXUTGetEnumeration@@YAPAVCD3DEnumeration@@XZ	; DXUTGetEnumeration
PUBLIC	??0CD3DEnumeration@@AAE@XZ			; CD3DEnumeration::CD3DEnumeration
PUBLIC	??0?$CGrowableArray@W4_D3DFORMAT@@@@QAE@XZ	; CGrowableArray<enum _D3DFORMAT>::CGrowableArray<enum _D3DFORMAT>
PUBLIC	??1?$CGrowableArray@W4_D3DFORMAT@@@@QAE@XZ	; CGrowableArray<enum _D3DFORMAT>::~CGrowableArray<enum _D3DFORMAT>
PUBLIC	?SetSize@?$CGrowableArray@W4_D3DFORMAT@@@@QAEJH@Z ; CGrowableArray<enum _D3DFORMAT>::SetSize
PUBLIC	?Add@?$CGrowableArray@W4_D3DFORMAT@@@@QAEJABW4_D3DFORMAT@@@Z ; CGrowableArray<enum _D3DFORMAT>::Add
PUBLIC	?GetAt@?$CGrowableArray@W4_D3DFORMAT@@@@QAEAAW4_D3DFORMAT@@H@Z ; CGrowableArray<enum _D3DFORMAT>::GetAt
PUBLIC	?GetSize@?$CGrowableArray@W4_D3DFORMAT@@@@QBEHXZ ; CGrowableArray<enum _D3DFORMAT>::GetSize
PUBLIC	?Contains@?$CGrowableArray@W4_D3DFORMAT@@@@QAE_NABW4_D3DFORMAT@@@Z ; CGrowableArray<enum _D3DFORMAT>::Contains
PUBLIC	?IndexOf@?$CGrowableArray@W4_D3DFORMAT@@@@QAEHABW4_D3DFORMAT@@@Z ; CGrowableArray<enum _D3DFORMAT>::IndexOf
PUBLIC	?IndexOf@?$CGrowableArray@W4_D3DFORMAT@@@@QAEHABW4_D3DFORMAT@@HH@Z ; CGrowableArray<enum _D3DFORMAT>::IndexOf
PUBLIC	?RemoveAll@?$CGrowableArray@W4_D3DFORMAT@@@@QAEXXZ ; CGrowableArray<enum _D3DFORMAT>::RemoveAll
PUBLIC	?SetSizeInternal@?$CGrowableArray@W4_D3DFORMAT@@@@IAEJH@Z ; CGrowableArray<enum _D3DFORMAT>::SetSizeInternal
PUBLIC	??0?$CGrowableArray@W4_D3DMULTISAMPLE_TYPE@@@@QAE@XZ ; CGrowableArray<enum _D3DMULTISAMPLE_TYPE>::CGrowableArray<enum _D3DMULTISAMPLE_TYPE>
PUBLIC	??1?$CGrowableArray@W4_D3DMULTISAMPLE_TYPE@@@@QAE@XZ ; CGrowableArray<enum _D3DMULTISAMPLE_TYPE>::~CGrowableArray<enum _D3DMULTISAMPLE_TYPE>
PUBLIC	?SetSize@?$CGrowableArray@W4_D3DMULTISAMPLE_TYPE@@@@QAEJH@Z ; CGrowableArray<enum _D3DMULTISAMPLE_TYPE>::SetSize
PUBLIC	?Add@?$CGrowableArray@W4_D3DMULTISAMPLE_TYPE@@@@QAEJABW4_D3DMULTISAMPLE_TYPE@@@Z ; CGrowableArray<enum _D3DMULTISAMPLE_TYPE>::Add
PUBLIC	?GetAt@?$CGrowableArray@W4_D3DMULTISAMPLE_TYPE@@@@QAEAAW4_D3DMULTISAMPLE_TYPE@@H@Z ; CGrowableArray<enum _D3DMULTISAMPLE_TYPE>::GetAt
PUBLIC	?GetSize@?$CGrowableArray@W4_D3DMULTISAMPLE_TYPE@@@@QBEHXZ ; CGrowableArray<enum _D3DMULTISAMPLE_TYPE>::GetSize
PUBLIC	?RemoveAll@?$CGrowableArray@W4_D3DMULTISAMPLE_TYPE@@@@QAEXXZ ; CGrowableArray<enum _D3DMULTISAMPLE_TYPE>::RemoveAll
PUBLIC	?SetSizeInternal@?$CGrowableArray@W4_D3DMULTISAMPLE_TYPE@@@@IAEJH@Z ; CGrowableArray<enum _D3DMULTISAMPLE_TYPE>::SetSizeInternal
PUBLIC	??0?$CGrowableArray@I@@QAE@XZ			; CGrowableArray<unsigned int>::CGrowableArray<unsigned int>
PUBLIC	??1?$CGrowableArray@I@@QAE@XZ			; CGrowableArray<unsigned int>::~CGrowableArray<unsigned int>
PUBLIC	?SetSize@?$CGrowableArray@I@@QAEJH@Z		; CGrowableArray<unsigned int>::SetSize
PUBLIC	?Add@?$CGrowableArray@I@@QAEJABI@Z		; CGrowableArray<unsigned int>::Add
PUBLIC	?GetAt@?$CGrowableArray@I@@QAEAAIH@Z		; CGrowableArray<unsigned int>::GetAt
PUBLIC	?GetSize@?$CGrowableArray@I@@QBEHXZ		; CGrowableArray<unsigned int>::GetSize
PUBLIC	?RemoveAll@?$CGrowableArray@I@@QAEXXZ		; CGrowableArray<unsigned int>::RemoveAll
PUBLIC	?SetSizeInternal@?$CGrowableArray@I@@IAEJH@Z	; CGrowableArray<unsigned int>::SetSizeInternal
PUBLIC	??0?$CGrowableArray@PAVCD3DEnumAdapterInfo@@@@QAE@XZ ; CGrowableArray<CD3DEnumAdapterInfo *>::CGrowableArray<CD3DEnumAdapterInfo *>
PUBLIC	??1?$CGrowableArray@PAVCD3DEnumAdapterInfo@@@@QAE@XZ ; CGrowableArray<CD3DEnumAdapterInfo *>::~CGrowableArray<CD3DEnumAdapterInfo *>
PUBLIC	?SetSize@?$CGrowableArray@PAVCD3DEnumAdapterInfo@@@@QAEJH@Z ; CGrowableArray<CD3DEnumAdapterInfo *>::SetSize
PUBLIC	?Add@?$CGrowableArray@PAVCD3DEnumAdapterInfo@@@@QAEJABQAVCD3DEnumAdapterInfo@@@Z ; CGrowableArray<CD3DEnumAdapterInfo *>::Add
PUBLIC	?GetAt@?$CGrowableArray@PAVCD3DEnumAdapterInfo@@@@QAEAAPAVCD3DEnumAdapterInfo@@H@Z ; CGrowableArray<CD3DEnumAdapterInfo *>::GetAt
PUBLIC	?GetSize@?$CGrowableArray@PAVCD3DEnumAdapterInfo@@@@QBEHXZ ; CGrowableArray<CD3DEnumAdapterInfo *>::GetSize
PUBLIC	?RemoveAll@?$CGrowableArray@PAVCD3DEnumAdapterInfo@@@@QAEXXZ ; CGrowableArray<CD3DEnumAdapterInfo *>::RemoveAll
PUBLIC	?SetSizeInternal@?$CGrowableArray@PAVCD3DEnumAdapterInfo@@@@IAEJH@Z ; CGrowableArray<CD3DEnumAdapterInfo *>::SetSizeInternal
PUBLIC	?EnumerateDevices@CD3DEnumeration@@AAEJPAVCD3DEnumAdapterInfo@@PAV?$CGrowableArray@W4_D3DFORMAT@@@@@Z ; CD3DEnumeration::EnumerateDevices
PUBLIC	?EnumerateDeviceCombos@CD3DEnumeration@@AAEJPAVCD3DEnumAdapterInfo@@PAVCD3DEnumDeviceInfo@@PAV?$CGrowableArray@W4_D3DFORMAT@@@@@Z ; CD3DEnumeration::EnumerateDeviceCombos
PUBLIC	?BuildDepthStencilFormatList@CD3DEnumeration@@AAEXPAUCD3DEnumDeviceSettingsCombo@@@Z ; CD3DEnumeration::BuildDepthStencilFormatList
PUBLIC	?BuildMultiSampleTypeList@CD3DEnumeration@@AAEXPAUCD3DEnumDeviceSettingsCombo@@@Z ; CD3DEnumeration::BuildMultiSampleTypeList
PUBLIC	?BuildDSMSConflictList@CD3DEnumeration@@AAEXPAUCD3DEnumDeviceSettingsCombo@@@Z ; CD3DEnumeration::BuildDSMSConflictList
PUBLIC	?BuildPresentIntervalList@CD3DEnumeration@@AAEXPAVCD3DEnumDeviceInfo@@PAUCD3DEnumDeviceSettingsCombo@@@Z ; CD3DEnumeration::BuildPresentIntervalList
PUBLIC	?ClearAdapterInfoList@CD3DEnumeration@@AAEXXZ	; CD3DEnumeration::ClearAdapterInfoList
PUBLIC	??1CD3DEnumAdapterInfo@@QAE@XZ			; CD3DEnumAdapterInfo::~CD3DEnumAdapterInfo
PUBLIC	??0?$CGrowableArray@U_D3DDISPLAYMODE@@@@QAE@XZ	; CGrowableArray<_D3DDISPLAYMODE>::CGrowableArray<_D3DDISPLAYMODE>
PUBLIC	??1?$CGrowableArray@U_D3DDISPLAYMODE@@@@QAE@XZ	; CGrowableArray<_D3DDISPLAYMODE>::~CGrowableArray<_D3DDISPLAYMODE>
PUBLIC	?SetSize@?$CGrowableArray@U_D3DDISPLAYMODE@@@@QAEJH@Z ; CGrowableArray<_D3DDISPLAYMODE>::SetSize
PUBLIC	?Add@?$CGrowableArray@U_D3DDISPLAYMODE@@@@QAEJABU_D3DDISPLAYMODE@@@Z ; CGrowableArray<_D3DDISPLAYMODE>::Add
PUBLIC	?GetSize@?$CGrowableArray@U_D3DDISPLAYMODE@@@@QBEHXZ ; CGrowableArray<_D3DDISPLAYMODE>::GetSize
PUBLIC	?GetData@?$CGrowableArray@U_D3DDISPLAYMODE@@@@QAEPAU_D3DDISPLAYMODE@@XZ ; CGrowableArray<_D3DDISPLAYMODE>::GetData
PUBLIC	?RemoveAll@?$CGrowableArray@U_D3DDISPLAYMODE@@@@QAEXXZ ; CGrowableArray<_D3DDISPLAYMODE>::RemoveAll
PUBLIC	?SetSizeInternal@?$CGrowableArray@U_D3DDISPLAYMODE@@@@IAEJH@Z ; CGrowableArray<_D3DDISPLAYMODE>::SetSizeInternal
PUBLIC	??0?$CGrowableArray@PAVCD3DEnumDeviceInfo@@@@QAE@XZ ; CGrowableArray<CD3DEnumDeviceInfo *>::CGrowableArray<CD3DEnumDeviceInfo *>
PUBLIC	??1?$CGrowableArray@PAVCD3DEnumDeviceInfo@@@@QAE@XZ ; CGrowableArray<CD3DEnumDeviceInfo *>::~CGrowableArray<CD3DEnumDeviceInfo *>
PUBLIC	?SetSize@?$CGrowableArray@PAVCD3DEnumDeviceInfo@@@@QAEJH@Z ; CGrowableArray<CD3DEnumDeviceInfo *>::SetSize
PUBLIC	?Add@?$CGrowableArray@PAVCD3DEnumDeviceInfo@@@@QAEJABQAVCD3DEnumDeviceInfo@@@Z ; CGrowableArray<CD3DEnumDeviceInfo *>::Add
PUBLIC	?GetAt@?$CGrowableArray@PAVCD3DEnumDeviceInfo@@@@QAEAAPAVCD3DEnumDeviceInfo@@H@Z ; CGrowableArray<CD3DEnumDeviceInfo *>::GetAt
PUBLIC	?GetSize@?$CGrowableArray@PAVCD3DEnumDeviceInfo@@@@QBEHXZ ; CGrowableArray<CD3DEnumDeviceInfo *>::GetSize
PUBLIC	?RemoveAll@?$CGrowableArray@PAVCD3DEnumDeviceInfo@@@@QAEXXZ ; CGrowableArray<CD3DEnumDeviceInfo *>::RemoveAll
PUBLIC	?SetSizeInternal@?$CGrowableArray@PAVCD3DEnumDeviceInfo@@@@IAEJH@Z ; CGrowableArray<CD3DEnumDeviceInfo *>::SetSizeInternal
PUBLIC	??0CD3DEnumAdapterInfo@@QAE@XZ			; CD3DEnumAdapterInfo::CD3DEnumAdapterInfo
PUBLIC	??_GCD3DEnumAdapterInfo@@QAEPAXI@Z		; CD3DEnumAdapterInfo::`scalar deleting destructor'
PUBLIC	??1CD3DEnumDeviceInfo@@QAE@XZ			; CD3DEnumDeviceInfo::~CD3DEnumDeviceInfo
PUBLIC	??0?$CGrowableArray@PAUCD3DEnumDeviceSettingsCombo@@@@QAE@XZ ; CGrowableArray<CD3DEnumDeviceSettingsCombo *>::CGrowableArray<CD3DEnumDeviceSettingsCombo *>
PUBLIC	??1?$CGrowableArray@PAUCD3DEnumDeviceSettingsCombo@@@@QAE@XZ ; CGrowableArray<CD3DEnumDeviceSettingsCombo *>::~CGrowableArray<CD3DEnumDeviceSettingsCombo *>
PUBLIC	?SetSize@?$CGrowableArray@PAUCD3DEnumDeviceSettingsCombo@@@@QAEJH@Z ; CGrowableArray<CD3DEnumDeviceSettingsCombo *>::SetSize
PUBLIC	?Add@?$CGrowableArray@PAUCD3DEnumDeviceSettingsCombo@@@@QAEJABQAUCD3DEnumDeviceSettingsCombo@@@Z ; CGrowableArray<CD3DEnumDeviceSettingsCombo *>::Add
PUBLIC	?GetAt@?$CGrowableArray@PAUCD3DEnumDeviceSettingsCombo@@@@QAEAAPAUCD3DEnumDeviceSettingsCombo@@H@Z ; CGrowableArray<CD3DEnumDeviceSettingsCombo *>::GetAt
PUBLIC	?GetSize@?$CGrowableArray@PAUCD3DEnumDeviceSettingsCombo@@@@QBEHXZ ; CGrowableArray<CD3DEnumDeviceSettingsCombo *>::GetSize
PUBLIC	?RemoveAll@?$CGrowableArray@PAUCD3DEnumDeviceSettingsCombo@@@@QAEXXZ ; CGrowableArray<CD3DEnumDeviceSettingsCombo *>::RemoveAll
PUBLIC	?SetSizeInternal@?$CGrowableArray@PAUCD3DEnumDeviceSettingsCombo@@@@IAEJH@Z ; CGrowableArray<CD3DEnumDeviceSettingsCombo *>::SetSizeInternal
PUBLIC	??0CD3DEnumDeviceInfo@@QAE@XZ			; CD3DEnumDeviceInfo::CD3DEnumDeviceInfo
PUBLIC	??_GCD3DEnumDeviceInfo@@QAEPAXI@Z		; CD3DEnumDeviceInfo::`scalar deleting destructor'
PUBLIC	??0?$CGrowableArray@K@@QAE@XZ			; CGrowableArray<unsigned long>::CGrowableArray<unsigned long>
PUBLIC	??1?$CGrowableArray@K@@QAE@XZ			; CGrowableArray<unsigned long>::~CGrowableArray<unsigned long>
PUBLIC	?SetSize@?$CGrowableArray@K@@QAEJH@Z		; CGrowableArray<unsigned long>::SetSize
PUBLIC	?Add@?$CGrowableArray@K@@QAEJABK@Z		; CGrowableArray<unsigned long>::Add
PUBLIC	?RemoveAll@?$CGrowableArray@K@@QAEXXZ		; CGrowableArray<unsigned long>::RemoveAll
PUBLIC	?SetSizeInternal@?$CGrowableArray@K@@IAEJH@Z	; CGrowableArray<unsigned long>::SetSizeInternal
PUBLIC	??0?$CGrowableArray@UCD3DEnumDSMSConflict@@@@QAE@XZ ; CGrowableArray<CD3DEnumDSMSConflict>::CGrowableArray<CD3DEnumDSMSConflict>
PUBLIC	??1?$CGrowableArray@UCD3DEnumDSMSConflict@@@@QAE@XZ ; CGrowableArray<CD3DEnumDSMSConflict>::~CGrowableArray<CD3DEnumDSMSConflict>
PUBLIC	?SetSize@?$CGrowableArray@UCD3DEnumDSMSConflict@@@@QAEJH@Z ; CGrowableArray<CD3DEnumDSMSConflict>::SetSize
PUBLIC	?Add@?$CGrowableArray@UCD3DEnumDSMSConflict@@@@QAEJABUCD3DEnumDSMSConflict@@@Z ; CGrowableArray<CD3DEnumDSMSConflict>::Add
PUBLIC	?RemoveAll@?$CGrowableArray@UCD3DEnumDSMSConflict@@@@QAEXXZ ; CGrowableArray<CD3DEnumDSMSConflict>::RemoveAll
PUBLIC	?SetSizeInternal@?$CGrowableArray@UCD3DEnumDSMSConflict@@@@IAEJH@Z ; CGrowableArray<CD3DEnumDSMSConflict>::SetSizeInternal
PUBLIC	??0CD3DEnumDeviceSettingsCombo@@QAE@XZ		; CD3DEnumDeviceSettingsCombo::CD3DEnumDeviceSettingsCombo
PUBLIC	??1CD3DEnumDeviceSettingsCombo@@QAE@XZ		; CD3DEnumDeviceSettingsCombo::~CD3DEnumDeviceSettingsCombo
PUBLIC	??_GCD3DEnumDeviceSettingsCombo@@QAEPAXI@Z	; CD3DEnumDeviceSettingsCombo::`scalar deleting destructor'
PUBLIC	?DXUTStencilBits@@YAIW4_D3DFORMAT@@@Z		; DXUTStencilBits
PUBLIC	?DXUTDepthBits@@YAIW4_D3DFORMAT@@@Z		; DXUTDepthBits
PUBLIC	?DXUTAlphaChannelBits@@YAIW4_D3DFORMAT@@@Z	; DXUTAlphaChannelBits
PUBLIC	?DXUTColorChannelBits@@YAIW4_D3DFORMAT@@@Z	; DXUTColorChannelBits
PUBLIC	??_C@_06FMMEGIIJ@?5?$CI?$CD?$CFd?$CJ?$AA@	; `string'
PUBLIC	??_C@_1FK@FIMIDMPE@?$AAz?$AA?3?$AA?2?$AAs?$AAa?$AAm?$AAp?$AAs?$AAr?$AAc?$AA?2?$AA0?$AA2?$AAx?$AAu?$AA1?$AA?2?$AAs?$AAa?$AAc?$AAo?$AA?2?$AAd?$AA3?$AAd?$AA9?$AA?2?$AAc?$AAo?$AAm?$AAm?$AAo@ ; `string'
PUBLIC	??_C@_1EA@JHMKKLFC@?$AAn?$AAI?$AAn?$AAd?$AAe?$AAx?$AA?5?$AA?$DO?$AA?$DN?$AA?5?$AA0?$AA?5?$AA?$CG?$AA?$CG?$AA?5?$AAn?$AAI?$AAn?$AAd?$AAe?$AAx?$AA?5?$AA?$DM?$AA?5?$AAm?$AA_?$AAn?$AAS?$AAi?$AAz?$AAe?$AA?$AA@ ; `string'
PUBLIC	??_C@_1M@HLGKFCJM@?$AAf?$AAa?$AAl?$AAs?$AAe?$AA?$AA@ ; `string'
EXTRN	??2@YAPAXI@Z:PROC				; operator new
EXTRN	??3@YAXPAX@Z:PROC				; operator delete
EXTRN	_atexit:PROC
EXTRN	_strcpy:PROC
EXTRN	__stricmp:PROC
EXTRN	_qsort:PROC
EXTRN	_free:PROC
EXTRN	_realloc:PROC
EXTRN	__wassert:PROC
EXTRN	__vsnprintf:PROC
EXTRN	?DXUTGetD3DObject@@YAPAUIDirect3D9@@XZ:PROC	; DXUTGetD3DObject
EXTRN	@_RTC_CheckStackVars@8:PROC
EXTRN	@__security_check_cookie@4:PROC
EXTRN	__RTC_CheckEsp:PROC
EXTRN	__RTC_InitBase:PROC
EXTRN	__RTC_Shutdown:PROC
EXTRN	___CxxFrameHandler3:PROC
EXTRN	___security_cookie:DWORD
_BSS	SEGMENT
?d3denum@?1??DXUTGetEnumeration@@YAPAVCD3DEnumeration@@XZ@4V2@A DB 05dH DUP (?) ; `DXUTGetEnumeration'::`2'::d3denum
	ALIGN	4

?$S1@?1??DXUTGetEnumeration@@YAPAVCD3DEnumeration@@XZ@4IA DD 01H DUP (?) ; `DXUTGetEnumeration'::`2'::$S1
_BSS	ENDS
;	COMDAT rtc$TMZ
rtc$TMZ	SEGMENT
__RTC_Shutdown.rtc$TMZ DD FLAT:__RTC_Shutdown
rtc$TMZ	ENDS
;	COMDAT rtc$IMZ
rtc$IMZ	SEGMENT
__RTC_InitBase.rtc$IMZ DD FLAT:__RTC_InitBase
rtc$IMZ	ENDS
;	COMDAT ??_C@_1M@HLGKFCJM@?$AAf?$AAa?$AAl?$AAs?$AAe?$AA?$AA@
CONST	SEGMENT
??_C@_1M@HLGKFCJM@?$AAf?$AAa?$AAl?$AAs?$AAe?$AA?$AA@ DB 'f', 00H, 'a', 00H
	DB	'l', 00H, 's', 00H, 'e', 00H, 00H, 00H	; `string'
CONST	ENDS
;	COMDAT ??_C@_1EA@JHMKKLFC@?$AAn?$AAI?$AAn?$AAd?$AAe?$AAx?$AA?5?$AA?$DO?$AA?$DN?$AA?5?$AA0?$AA?5?$AA?$CG?$AA?$CG?$AA?5?$AAn?$AAI?$AAn?$AAd?$AAe?$AAx?$AA?5?$AA?$DM?$AA?5?$AAm?$AA_?$AAn?$AAS?$AAi?$AAz?$AAe?$AA?$AA@
CONST	SEGMENT
??_C@_1EA@JHMKKLFC@?$AAn?$AAI?$AAn?$AAd?$AAe?$AAx?$AA?5?$AA?$DO?$AA?$DN?$AA?5?$AA0?$AA?5?$AA?$CG?$AA?$CG?$AA?5?$AAn?$AAI?$AAn?$AAd?$AAe?$AAx?$AA?5?$AA?$DM?$AA?5?$AAm?$AA_?$AAn?$AAS?$AAi?$AAz?$AAe?$AA?$AA@ DB 'n'
	DB	00H, 'I', 00H, 'n', 00H, 'd', 00H, 'e', 00H, 'x', 00H, ' ', 00H
	DB	'>', 00H, '=', 00H, ' ', 00H, '0', 00H, ' ', 00H, '&', 00H, '&'
	DB	00H, ' ', 00H, 'n', 00H, 'I', 00H, 'n', 00H, 'd', 00H, 'e', 00H
	DB	'x', 00H, ' ', 00H, '<', 00H, ' ', 00H, 'm', 00H, '_', 00H, 'n'
	DB	00H, 'S', 00H, 'i', 00H, 'z', 00H, 'e', 00H, 00H, 00H ; `string'
CONST	ENDS
;	COMDAT ??_C@_1FK@FIMIDMPE@?$AAz?$AA?3?$AA?2?$AAs?$AAa?$AAm?$AAp?$AAs?$AAr?$AAc?$AA?2?$AA0?$AA2?$AAx?$AAu?$AA1?$AA?2?$AAs?$AAa?$AAc?$AAo?$AA?2?$AAd?$AA3?$AAd?$AA9?$AA?2?$AAc?$AAo?$AAm?$AAm?$AAo@
CONST	SEGMENT
??_C@_1FK@FIMIDMPE@?$AAz?$AA?3?$AA?2?$AAs?$AAa?$AAm?$AAp?$AAs?$AAr?$AAc?$AA?2?$AA0?$AA2?$AAx?$AAu?$AA1?$AA?2?$AAs?$AAa?$AAc?$AAo?$AA?2?$AAd?$AA3?$AAd?$AA9?$AA?2?$AAc?$AAo?$AAm?$AAm?$AAo@ DB 'z'
	DB	00H, ':', 00H, '\', 00H, 's', 00H, 'a', 00H, 'm', 00H, 'p', 00H
	DB	's', 00H, 'r', 00H, 'c', 00H, '\', 00H, '0', 00H, '2', 00H, 'x'
	DB	00H, 'u', 00H, '1', 00H, '\', 00H, 's', 00H, 'a', 00H, 'c', 00H
	DB	'o', 00H, '\', 00H, 'd', 00H, '3', 00H, 'd', 00H, '9', 00H, '\'
	DB	00H, 'c', 00H, 'o', 00H, 'm', 00H, 'm', 00H, 'o', 00H, 'n', 00H
	DB	'\', 00H, 'd', 00H, 'x', 00H, 'u', 00H, 't', 00H, 'm', 00H, 'i'
	DB	00H, 's', 00H, 'c', 00H, '.', 00H, 'h', 00H, 00H, 00H ; `string'
CONST	ENDS
;	COMDAT ??_C@_06FMMEGIIJ@?5?$CI?$CD?$CFd?$CJ?$AA@
CONST	SEGMENT
??_C@_06FMMEGIIJ@?5?$CI?$CD?$CFd?$CJ?$AA@ DB ' (#%d)', 00H ; `string'
CONST	ENDS
;	COMDAT xdata$x
xdata$x	SEGMENT
__unwindtable$??1CD3DEnumDeviceSettingsCombo@@QAE@XZ DD 0ffffffffH
	DD	FLAT:__unwindfunclet$??1CD3DEnumDeviceSettingsCombo@@QAE@XZ$0
	DD	00H
	DD	FLAT:__unwindfunclet$??1CD3DEnumDeviceSettingsCombo@@QAE@XZ$1
	DD	01H
	DD	FLAT:__unwindfunclet$??1CD3DEnumDeviceSettingsCombo@@QAE@XZ$2
	DD	02H
	DD	FLAT:__unwindfunclet$??1CD3DEnumDeviceSettingsCombo@@QAE@XZ$3
__ehfuncinfo$??1CD3DEnumDeviceSettingsCombo@@QAE@XZ DD 019930522H
	DD	04H
	DD	FLAT:__unwindtable$??1CD3DEnumDeviceSettingsCombo@@QAE@XZ
	DD	2 DUP(00H)
	DD	2 DUP(00H)
	DD	00H
	DD	01H
xdata$x	ENDS
;	COMDAT xdata$x
xdata$x	SEGMENT
__unwindtable$??0CD3DEnumDeviceSettingsCombo@@QAE@XZ DD 0ffffffffH
	DD	FLAT:__unwindfunclet$??0CD3DEnumDeviceSettingsCombo@@QAE@XZ$0
	DD	00H
	DD	FLAT:__unwindfunclet$??0CD3DEnumDeviceSettingsCombo@@QAE@XZ$1
	DD	01H
	DD	FLAT:__unwindfunclet$??0CD3DEnumDeviceSettingsCombo@@QAE@XZ$2
	DD	02H
	DD	FLAT:__unwindfunclet$??0CD3DEnumDeviceSettingsCombo@@QAE@XZ$3
__ehfuncinfo$??0CD3DEnumDeviceSettingsCombo@@QAE@XZ DD 019930522H
	DD	04H
	DD	FLAT:__unwindtable$??0CD3DEnumDeviceSettingsCombo@@QAE@XZ
	DD	2 DUP(00H)
	DD	2 DUP(00H)
	DD	00H
	DD	01H
xdata$x	ENDS
;	COMDAT xdata$x
xdata$x	SEGMENT
__unwindtable$??1CD3DEnumDeviceInfo@@QAE@XZ DD 0ffffffffH
	DD	FLAT:__unwindfunclet$??1CD3DEnumDeviceInfo@@QAE@XZ$0
__ehfuncinfo$??1CD3DEnumDeviceInfo@@QAE@XZ DD 019930522H
	DD	01H
	DD	FLAT:__unwindtable$??1CD3DEnumDeviceInfo@@QAE@XZ
	DD	2 DUP(00H)
	DD	2 DUP(00H)
	DD	00H
	DD	01H
xdata$x	ENDS
;	COMDAT xdata$x
xdata$x	SEGMENT
__unwindtable$??0CD3DEnumAdapterInfo@@QAE@XZ DD 0ffffffffH
	DD	FLAT:__unwindfunclet$??0CD3DEnumAdapterInfo@@QAE@XZ$0
__ehfuncinfo$??0CD3DEnumAdapterInfo@@QAE@XZ DD 019930522H
	DD	01H
	DD	FLAT:__unwindtable$??0CD3DEnumAdapterInfo@@QAE@XZ
	DD	2 DUP(00H)
	DD	2 DUP(00H)
	DD	00H
	DD	01H
xdata$x	ENDS
;	COMDAT xdata$x
xdata$x	SEGMENT
__unwindtable$??1CD3DEnumAdapterInfo@@QAE@XZ DD 0ffffffffH
	DD	FLAT:__unwindfunclet$??1CD3DEnumAdapterInfo@@QAE@XZ$0
	DD	00H
	DD	FLAT:__unwindfunclet$??1CD3DEnumAdapterInfo@@QAE@XZ$1
__ehfuncinfo$??1CD3DEnumAdapterInfo@@QAE@XZ DD 019930522H
	DD	02H
	DD	FLAT:__unwindtable$??1CD3DEnumAdapterInfo@@QAE@XZ
	DD	2 DUP(00H)
	DD	2 DUP(00H)
	DD	00H
	DD	01H
xdata$x	ENDS
;	COMDAT xdata$x
xdata$x	SEGMENT
__unwindtable$?EnumerateDeviceCombos@CD3DEnumeration@@AAEJPAVCD3DEnumAdapterInfo@@PAVCD3DEnumDeviceInfo@@PAV?$CGrowableArray@W4_D3DFORMAT@@@@@Z DD 0ffffffffH
	DD	FLAT:__unwindfunclet$?EnumerateDeviceCombos@CD3DEnumeration@@AAEJPAVCD3DEnumAdapterInfo@@PAVCD3DEnumDeviceInfo@@PAV?$CGrowableArray@W4_D3DFORMAT@@@@@Z$0
__ehfuncinfo$?EnumerateDeviceCombos@CD3DEnumeration@@AAEJPAVCD3DEnumAdapterInfo@@PAVCD3DEnumDeviceInfo@@PAV?$CGrowableArray@W4_D3DFORMAT@@@@@Z DD 019930522H
	DD	01H
	DD	FLAT:__unwindtable$?EnumerateDeviceCombos@CD3DEnumeration@@AAEJPAVCD3DEnumAdapterInfo@@PAVCD3DEnumDeviceInfo@@PAV?$CGrowableArray@W4_D3DFORMAT@@@@@Z
	DD	2 DUP(00H)
	DD	2 DUP(00H)
	DD	00H
	DD	01H
xdata$x	ENDS
;	COMDAT xdata$x
xdata$x	SEGMENT
__unwindtable$?EnumerateDevices@CD3DEnumeration@@AAEJPAVCD3DEnumAdapterInfo@@PAV?$CGrowableArray@W4_D3DFORMAT@@@@@Z DD 0ffffffffH
	DD	FLAT:__unwindfunclet$?EnumerateDevices@CD3DEnumeration@@AAEJPAVCD3DEnumAdapterInfo@@PAV?$CGrowableArray@W4_D3DFORMAT@@@@@Z$0
__ehfuncinfo$?EnumerateDevices@CD3DEnumeration@@AAEJPAVCD3DEnumAdapterInfo@@PAV?$CGrowableArray@W4_D3DFORMAT@@@@@Z DD 019930522H
	DD	01H
	DD	FLAT:__unwindtable$?EnumerateDevices@CD3DEnumeration@@AAEJPAVCD3DEnumAdapterInfo@@PAV?$CGrowableArray@W4_D3DFORMAT@@@@@Z
	DD	2 DUP(00H)
	DD	2 DUP(00H)
	DD	00H
	DD	01H
xdata$x	ENDS
;	COMDAT xdata$x
xdata$x	SEGMENT
__unwindtable$??0CD3DEnumeration@@AAE@XZ DD 0ffffffffH
	DD	FLAT:__unwindfunclet$??0CD3DEnumeration@@AAE@XZ$0
	DD	00H
	DD	FLAT:__unwindfunclet$??0CD3DEnumeration@@AAE@XZ$1
	DD	01H
	DD	FLAT:__unwindfunclet$??0CD3DEnumeration@@AAE@XZ$2
	DD	02H
	DD	FLAT:__unwindfunclet$??0CD3DEnumeration@@AAE@XZ$3
__ehfuncinfo$??0CD3DEnumeration@@AAE@XZ DD 019930522H
	DD	04H
	DD	FLAT:__unwindtable$??0CD3DEnumeration@@AAE@XZ
	DD	2 DUP(00H)
	DD	2 DUP(00H)
	DD	00H
	DD	01H
xdata$x	ENDS
;	COMDAT xdata$x
xdata$x	SEGMENT
__unwindtable$?DXUTGetEnumeration@@YAPAVCD3DEnumeration@@XZ DD 0ffffffffH
	DD	FLAT:__unwindfunclet$?DXUTGetEnumeration@@YAPAVCD3DEnumeration@@XZ$0
__ehfuncinfo$?DXUTGetEnumeration@@YAPAVCD3DEnumeration@@XZ DD 019930522H
	DD	01H
	DD	FLAT:__unwindtable$?DXUTGetEnumeration@@YAPAVCD3DEnumeration@@XZ
	DD	2 DUP(00H)
	DD	2 DUP(00H)
	DD	00H
	DD	01H
xdata$x	ENDS
;	COMDAT xdata$x
xdata$x	SEGMENT
__unwindtable$??1CD3DEnumeration@@QAE@XZ DD 0ffffffffH
	DD	FLAT:__unwindfunclet$??1CD3DEnumeration@@QAE@XZ$0
	DD	00H
	DD	FLAT:__unwindfunclet$??1CD3DEnumeration@@QAE@XZ$1
	DD	01H
	DD	FLAT:__unwindfunclet$??1CD3DEnumeration@@QAE@XZ$2
	DD	02H
	DD	FLAT:__unwindfunclet$??1CD3DEnumeration@@QAE@XZ$3
__ehfuncinfo$??1CD3DEnumeration@@QAE@XZ DD 019930522H
	DD	04H
	DD	FLAT:__unwindtable$??1CD3DEnumeration@@QAE@XZ
	DD	2 DUP(00H)
	DD	2 DUP(00H)
	DD	00H
	DD	01H
xdata$x	ENDS
;	COMDAT xdata$x
xdata$x	SEGMENT
__unwindtable$?Enumerate@CD3DEnumeration@@QAEJPAUIDirect3D9@@P6G_NPAU_D3DCAPS9@@W4_D3DFORMAT@@2_NPAX@Z4@Z DD 0ffffffffH
	DD	FLAT:__unwindfunclet$?Enumerate@CD3DEnumeration@@QAEJPAUIDirect3D9@@P6G_NPAU_D3DCAPS9@@W4_D3DFORMAT@@2_NPAX@Z4@Z$0
	DD	00H
	DD	FLAT:__unwindfunclet$?Enumerate@CD3DEnumeration@@QAEJPAUIDirect3D9@@P6G_NPAU_D3DCAPS9@@W4_D3DFORMAT@@2_NPAX@Z4@Z$1
__ehfuncinfo$?Enumerate@CD3DEnumeration@@QAEJPAUIDirect3D9@@P6G_NPAU_D3DCAPS9@@W4_D3DFORMAT@@2_NPAX@Z4@Z DD 019930522H
	DD	02H
	DD	FLAT:__unwindtable$?Enumerate@CD3DEnumeration@@QAEJPAUIDirect3D9@@P6G_NPAU_D3DCAPS9@@W4_D3DFORMAT@@2_NPAX@Z4@Z
	DD	2 DUP(00H)
	DD	2 DUP(00H)
	DD	00H
	DD	01H
xdata$x	ENDS
; Function compile flags: /Odtp /RTCsu /ZI
;	COMDAT ??__Fd3denum@?1??DXUTGetEnumeration@@YAPAVCD3DEnumeration@@XZ@YAXXZ
text$yd	SEGMENT
??__Fd3denum@?1??DXUTGetEnumeration@@YAPAVCD3DEnumeration@@XZ@YAXXZ PROC ; `DXUTGetEnumeration'::`2'::`dynamic atexit destructor for 'd3denum'', COMDAT
	push	ebp
	mov	ebp, esp
	sub	esp, 192				; 000000c0H
	push	ebx
	push	esi
	push	edi
	lea	edi, DWORD PTR [ebp-192]
	mov	ecx, 48					; 00000030H
	mov	eax, -858993460				; ccccccccH
	rep stosd
	mov	ecx, OFFSET ?d3denum@?1??DXUTGetEnumeration@@YAPAVCD3DEnumeration@@XZ@4V2@A
	call	??1CD3DEnumeration@@QAE@XZ		; CD3DEnumeration::~CD3DEnumeration
	pop	edi
	pop	esi
	pop	ebx
	add	esp, 192				; 000000c0H
	cmp	ebp, esp
	call	__RTC_CheckEsp
	mov	esp, ebp
	pop	ebp
	ret	0
??__Fd3denum@?1??DXUTGetEnumeration@@YAPAVCD3DEnumeration@@XZ@YAXXZ ENDP ; `DXUTGetEnumeration'::`2'::`dynamic atexit destructor for 'd3denum''
text$yd	ENDS
; Function compile flags: /Odtp /RTCsu /ZI
; File z:\sampsrc\02xu1\saco\d3d9\common\dxutenum.cpp
;	COMDAT ?DXUTColorChannelBits@@YAIW4_D3DFORMAT@@@Z
_TEXT	SEGMENT
tv64 = -196						; size = 4
_fmt$ = 8						; size = 4
?DXUTColorChannelBits@@YAIW4_D3DFORMAT@@@Z PROC		; DXUTColorChannelBits, COMDAT

; 552  : {

	push	ebp
	mov	ebp, esp
	sub	esp, 196				; 000000c4H
	push	ebx
	push	esi
	push	edi
	lea	edi, DWORD PTR [ebp-196]
	mov	ecx, 49					; 00000031H
	mov	eax, -858993460				; ccccccccH
	rep stosd

; 553  :     switch( fmt )

	mov	eax, DWORD PTR _fmt$[ebp]
	mov	DWORD PTR tv64[ebp], eax
	mov	ecx, DWORD PTR tv64[ebp]
	sub	ecx, 20					; 00000014H
	mov	DWORD PTR tv64[ebp], ecx
	cmp	DWORD PTR tv64[ebp], 16			; 00000010H
	ja	SHORT $LN1@DXUTColorC
	mov	edx, DWORD PTR tv64[ebp]
	jmp	DWORD PTR $LN20@DXUTColorC[edx*4]
$LN15@DXUTColorC:

; 554  :     {
; 555  :         case D3DFMT_R8G8B8:
; 556  :             return 8;

	mov	eax, 8
	jmp	SHORT $LN18@DXUTColorC
$LN14@DXUTColorC:

; 557  :         case D3DFMT_A8R8G8B8:
; 558  :             return 8;

	mov	eax, 8
	jmp	SHORT $LN18@DXUTColorC
$LN13@DXUTColorC:

; 559  :         case D3DFMT_X8R8G8B8:
; 560  :             return 8;

	mov	eax, 8
	jmp	SHORT $LN18@DXUTColorC
$LN12@DXUTColorC:

; 561  :         case D3DFMT_R5G6B5:
; 562  :             return 5;

	mov	eax, 5
	jmp	SHORT $LN18@DXUTColorC
$LN11@DXUTColorC:

; 563  :         case D3DFMT_X1R5G5B5:
; 564  :             return 5;

	mov	eax, 5
	jmp	SHORT $LN18@DXUTColorC
$LN10@DXUTColorC:

; 565  :         case D3DFMT_A1R5G5B5:
; 566  :             return 5;

	mov	eax, 5
	jmp	SHORT $LN18@DXUTColorC
$LN9@DXUTColorC:

; 567  :         case D3DFMT_A4R4G4B4:
; 568  :             return 4;

	mov	eax, 4
	jmp	SHORT $LN18@DXUTColorC
$LN8@DXUTColorC:

; 569  :         case D3DFMT_R3G3B2:
; 570  :             return 2;

	mov	eax, 2
	jmp	SHORT $LN18@DXUTColorC
$LN7@DXUTColorC:

; 571  :         case D3DFMT_A8R3G3B2:
; 572  :             return 2;

	mov	eax, 2
	jmp	SHORT $LN18@DXUTColorC
$LN6@DXUTColorC:

; 573  :         case D3DFMT_X4R4G4B4:
; 574  :             return 4;

	mov	eax, 4
	jmp	SHORT $LN18@DXUTColorC
$LN5@DXUTColorC:

; 575  :         case D3DFMT_A2B10G10R10:
; 576  :             return 10;

	mov	eax, 10					; 0000000aH
	jmp	SHORT $LN18@DXUTColorC
$LN4@DXUTColorC:

; 577  :         case D3DFMT_A8B8G8R8:
; 578  :             return 8;

	mov	eax, 8
	jmp	SHORT $LN18@DXUTColorC
$LN3@DXUTColorC:

; 579  :         case D3DFMT_A2R10G10B10:
; 580  :             return 10;

	mov	eax, 10					; 0000000aH
	jmp	SHORT $LN18@DXUTColorC
$LN2@DXUTColorC:

; 581  :         case D3DFMT_A16B16G16R16:
; 582  :             return 16;

	mov	eax, 16					; 00000010H
	jmp	SHORT $LN18@DXUTColorC
$LN1@DXUTColorC:

; 583  :         default:
; 584  :             return 0;

	xor	eax, eax
$LN18@DXUTColorC:

; 585  :     }
; 586  : }

	pop	edi
	pop	esi
	pop	ebx
	mov	esp, ebp
	pop	ebp
	ret	0
	npad	1
$LN20@DXUTColorC:
	DD	$LN15@DXUTColorC
	DD	$LN14@DXUTColorC
	DD	$LN13@DXUTColorC
	DD	$LN12@DXUTColorC
	DD	$LN11@DXUTColorC
	DD	$LN10@DXUTColorC
	DD	$LN9@DXUTColorC
	DD	$LN8@DXUTColorC
	DD	$LN1@DXUTColorC
	DD	$LN7@DXUTColorC
	DD	$LN6@DXUTColorC
	DD	$LN5@DXUTColorC
	DD	$LN4@DXUTColorC
	DD	$LN1@DXUTColorC
	DD	$LN1@DXUTColorC
	DD	$LN3@DXUTColorC
	DD	$LN2@DXUTColorC
?DXUTColorChannelBits@@YAIW4_D3DFORMAT@@@Z ENDP		; DXUTColorChannelBits
_TEXT	ENDS
; Function compile flags: /Odtp /RTCsu /ZI
; File z:\sampsrc\02xu1\saco\d3d9\common\dxutenum.cpp
;	COMDAT ?DXUTAlphaChannelBits@@YAIW4_D3DFORMAT@@@Z
_TEXT	SEGMENT
tv64 = -196						; size = 4
_fmt$ = 8						; size = 4
?DXUTAlphaChannelBits@@YAIW4_D3DFORMAT@@@Z PROC		; DXUTAlphaChannelBits, COMDAT

; 595  : {

	push	ebp
	mov	ebp, esp
	sub	esp, 196				; 000000c4H
	push	ebx
	push	esi
	push	edi
	lea	edi, DWORD PTR [ebp-196]
	mov	ecx, 49					; 00000031H
	mov	eax, -858993460				; ccccccccH
	rep stosd

; 596  :     switch( fmt )

	mov	eax, DWORD PTR _fmt$[ebp]
	mov	DWORD PTR tv64[ebp], eax
	mov	ecx, DWORD PTR tv64[ebp]
	sub	ecx, 20					; 00000014H
	mov	DWORD PTR tv64[ebp], ecx
	cmp	DWORD PTR tv64[ebp], 16			; 00000010H
	ja	SHORT $LN1@DXUTAlphaC
	mov	edx, DWORD PTR tv64[ebp]
	jmp	DWORD PTR $LN20@DXUTAlphaC[edx*4]
$LN15@DXUTAlphaC:

; 597  :     {
; 598  :         case D3DFMT_R8G8B8:
; 599  :             return 0;

	xor	eax, eax
	jmp	SHORT $LN18@DXUTAlphaC
$LN14@DXUTAlphaC:

; 600  :         case D3DFMT_A8R8G8B8:
; 601  :             return 8;

	mov	eax, 8
	jmp	SHORT $LN18@DXUTAlphaC
$LN13@DXUTAlphaC:

; 602  :         case D3DFMT_X8R8G8B8:
; 603  :             return 0;

	xor	eax, eax
	jmp	SHORT $LN18@DXUTAlphaC
$LN12@DXUTAlphaC:

; 604  :         case D3DFMT_R5G6B5:
; 605  :             return 0;

	xor	eax, eax
	jmp	SHORT $LN18@DXUTAlphaC
$LN11@DXUTAlphaC:

; 606  :         case D3DFMT_X1R5G5B5:
; 607  :             return 0;

	xor	eax, eax
	jmp	SHORT $LN18@DXUTAlphaC
$LN10@DXUTAlphaC:

; 608  :         case D3DFMT_A1R5G5B5:
; 609  :             return 1;

	mov	eax, 1
	jmp	SHORT $LN18@DXUTAlphaC
$LN9@DXUTAlphaC:

; 610  :         case D3DFMT_A4R4G4B4:
; 611  :             return 4;

	mov	eax, 4
	jmp	SHORT $LN18@DXUTAlphaC
$LN8@DXUTAlphaC:

; 612  :         case D3DFMT_R3G3B2:
; 613  :             return 0;

	xor	eax, eax
	jmp	SHORT $LN18@DXUTAlphaC
$LN7@DXUTAlphaC:

; 614  :         case D3DFMT_A8R3G3B2:
; 615  :             return 8;

	mov	eax, 8
	jmp	SHORT $LN18@DXUTAlphaC
$LN6@DXUTAlphaC:

; 616  :         case D3DFMT_X4R4G4B4:
; 617  :             return 0;

	xor	eax, eax
	jmp	SHORT $LN18@DXUTAlphaC
$LN5@DXUTAlphaC:

; 618  :         case D3DFMT_A2B10G10R10:
; 619  :             return 2;

	mov	eax, 2
	jmp	SHORT $LN18@DXUTAlphaC
$LN4@DXUTAlphaC:

; 620  :         case D3DFMT_A8B8G8R8:
; 621  :             return 8;

	mov	eax, 8
	jmp	SHORT $LN18@DXUTAlphaC
$LN3@DXUTAlphaC:

; 622  :         case D3DFMT_A2R10G10B10:
; 623  :             return 2;

	mov	eax, 2
	jmp	SHORT $LN18@DXUTAlphaC
$LN2@DXUTAlphaC:

; 624  :         case D3DFMT_A16B16G16R16:
; 625  :             return 16;

	mov	eax, 16					; 00000010H
	jmp	SHORT $LN18@DXUTAlphaC
$LN1@DXUTAlphaC:

; 626  :         default:
; 627  :             return 0;

	xor	eax, eax
$LN18@DXUTAlphaC:

; 628  :     }
; 629  : }

	pop	edi
	pop	esi
	pop	ebx
	mov	esp, ebp
	pop	ebp
	ret	0
	npad	3
$LN20@DXUTAlphaC:
	DD	$LN15@DXUTAlphaC
	DD	$LN14@DXUTAlphaC
	DD	$LN13@DXUTAlphaC
	DD	$LN12@DXUTAlphaC
	DD	$LN11@DXUTAlphaC
	DD	$LN10@DXUTAlphaC
	DD	$LN9@DXUTAlphaC
	DD	$LN8@DXUTAlphaC
	DD	$LN1@DXUTAlphaC
	DD	$LN7@DXUTAlphaC
	DD	$LN6@DXUTAlphaC
	DD	$LN5@DXUTAlphaC
	DD	$LN4@DXUTAlphaC
	DD	$LN1@DXUTAlphaC
	DD	$LN1@DXUTAlphaC
	DD	$LN3@DXUTAlphaC
	DD	$LN2@DXUTAlphaC
?DXUTAlphaChannelBits@@YAIW4_D3DFORMAT@@@Z ENDP		; DXUTAlphaChannelBits
_TEXT	ENDS
; Function compile flags: /Odtp /RTCsu /ZI
; File z:\sampsrc\02xu1\saco\d3d9\common\dxutenum.cpp
;	COMDAT ?DXUTDepthBits@@YAIW4_D3DFORMAT@@@Z
_TEXT	SEGMENT
tv64 = -196						; size = 4
_fmt$ = 8						; size = 4
?DXUTDepthBits@@YAIW4_D3DFORMAT@@@Z PROC		; DXUTDepthBits, COMDAT

; 638  : {

	push	ebp
	mov	ebp, esp
	sub	esp, 196				; 000000c4H
	push	ebx
	push	esi
	push	edi
	lea	edi, DWORD PTR [ebp-196]
	mov	ecx, 49					; 00000031H
	mov	eax, -858993460				; ccccccccH
	rep stosd

; 639  :     switch( fmt )

	mov	eax, DWORD PTR _fmt$[ebp]
	mov	DWORD PTR tv64[ebp], eax
	mov	ecx, DWORD PTR tv64[ebp]
	sub	ecx, 70					; 00000046H
	mov	DWORD PTR tv64[ebp], ecx
	cmp	DWORD PTR tv64[ebp], 13			; 0000000dH
	ja	SHORT $LN1@DXUTDepthB
	mov	edx, DWORD PTR tv64[ebp]
	movzx	eax, BYTE PTR $LN10@DXUTDepthB[edx]
	jmp	DWORD PTR $LN11@DXUTDepthB[eax*4]
$LN5@DXUTDepthB:

; 640  :     {
; 641  :         case D3DFMT_D32F_LOCKABLE:
; 642  :         case D3DFMT_D32:
; 643  :             return 32;

	mov	eax, 32					; 00000020H
	jmp	SHORT $LN8@DXUTDepthB
$LN4@DXUTDepthB:

; 644  : 
; 645  :         case D3DFMT_D24X8:
; 646  :         case D3DFMT_D24S8:
; 647  :         case D3DFMT_D24X4S4:
; 648  :         case D3DFMT_D24FS8:
; 649  :             return 24;

	mov	eax, 24					; 00000018H
	jmp	SHORT $LN8@DXUTDepthB
$LN3@DXUTDepthB:

; 650  : 
; 651  :         case D3DFMT_D16_LOCKABLE:
; 652  :         case D3DFMT_D16:
; 653  :             return 16;

	mov	eax, 16					; 00000010H
	jmp	SHORT $LN8@DXUTDepthB
$LN2@DXUTDepthB:

; 654  : 
; 655  :         case D3DFMT_D15S1:
; 656  :             return 15;

	mov	eax, 15					; 0000000fH
	jmp	SHORT $LN8@DXUTDepthB
$LN1@DXUTDepthB:

; 657  : 
; 658  :         default:
; 659  :             return 0;

	xor	eax, eax
$LN8@DXUTDepthB:

; 660  :     }
; 661  : }

	pop	edi
	pop	esi
	pop	ebx
	mov	esp, ebp
	pop	ebp
	ret	0
$LN11@DXUTDepthB:
	DD	$LN3@DXUTDepthB
	DD	$LN5@DXUTDepthB
	DD	$LN2@DXUTDepthB
	DD	$LN4@DXUTDepthB
	DD	$LN1@DXUTDepthB
$LN10@DXUTDepthB:
	DB	0
	DB	1
	DB	4
	DB	2
	DB	4
	DB	3
	DB	4
	DB	3
	DB	4
	DB	3
	DB	0
	DB	4
	DB	1
	DB	3
?DXUTDepthBits@@YAIW4_D3DFORMAT@@@Z ENDP		; DXUTDepthBits
_TEXT	ENDS
; Function compile flags: /Odtp /RTCsu /ZI
; File z:\sampsrc\02xu1\saco\d3d9\common\dxutenum.cpp
;	COMDAT ?DXUTStencilBits@@YAIW4_D3DFORMAT@@@Z
_TEXT	SEGMENT
tv64 = -196						; size = 4
_fmt$ = 8						; size = 4
?DXUTStencilBits@@YAIW4_D3DFORMAT@@@Z PROC		; DXUTStencilBits, COMDAT

; 670  : {

	push	ebp
	mov	ebp, esp
	sub	esp, 196				; 000000c4H
	push	ebx
	push	esi
	push	edi
	lea	edi, DWORD PTR [ebp-196]
	mov	ecx, 49					; 00000031H
	mov	eax, -858993460				; ccccccccH
	rep stosd

; 671  :     switch( fmt )

	mov	eax, DWORD PTR _fmt$[ebp]
	mov	DWORD PTR tv64[ebp], eax
	mov	ecx, DWORD PTR tv64[ebp]
	sub	ecx, 70					; 00000046H
	mov	DWORD PTR tv64[ebp], ecx
	cmp	DWORD PTR tv64[ebp], 13			; 0000000dH
	ja	SHORT $LN1@DXUTStenci
	mov	edx, DWORD PTR tv64[ebp]
	movzx	eax, BYTE PTR $LN10@DXUTStenci[edx]
	jmp	DWORD PTR $LN11@DXUTStenci[eax*4]
$LN5@DXUTStenci:

; 672  :     {
; 673  :         case D3DFMT_D16_LOCKABLE:
; 674  :         case D3DFMT_D16:
; 675  :         case D3DFMT_D32F_LOCKABLE:
; 676  :         case D3DFMT_D32:
; 677  :         case D3DFMT_D24X8:
; 678  :             return 0;

	xor	eax, eax
	jmp	SHORT $LN8@DXUTStenci
$LN4@DXUTStenci:

; 679  : 
; 680  :         case D3DFMT_D15S1:
; 681  :             return 1;

	mov	eax, 1
	jmp	SHORT $LN8@DXUTStenci
$LN3@DXUTStenci:

; 682  : 
; 683  :         case D3DFMT_D24X4S4:
; 684  :             return 4;

	mov	eax, 4
	jmp	SHORT $LN8@DXUTStenci
$LN2@DXUTStenci:

; 685  : 
; 686  :         case D3DFMT_D24S8:
; 687  :         case D3DFMT_D24FS8:
; 688  :             return 8;

	mov	eax, 8
	jmp	SHORT $LN8@DXUTStenci
$LN1@DXUTStenci:

; 689  : 
; 690  :         default:
; 691  :             return 0;

	xor	eax, eax
$LN8@DXUTStenci:

; 692  :     }
; 693  : }

	pop	edi
	pop	esi
	pop	ebx
	mov	esp, ebp
	pop	ebp
	ret	0
	npad	3
$LN11@DXUTStenci:
	DD	$LN5@DXUTStenci
	DD	$LN4@DXUTStenci
	DD	$LN2@DXUTStenci
	DD	$LN3@DXUTStenci
	DD	$LN1@DXUTStenci
$LN10@DXUTStenci:
	DB	0
	DB	0
	DB	4
	DB	1
	DB	4
	DB	2
	DB	4
	DB	0
	DB	4
	DB	3
	DB	0
	DB	4
	DB	0
	DB	2
?DXUTStencilBits@@YAIW4_D3DFORMAT@@@Z ENDP		; DXUTStencilBits
_TEXT	ENDS
; Function compile flags: /Odtp /RTCsu /ZI
; File z:\sampsrc\02xu1\saco\d3d9\common\dxutenum.cpp
;	COMDAT ?SortModesCallback@@YAHPBX0@Z
_TEXT	SEGMENT
_pdm2$ = -20						; size = 4
_pdm1$ = -8						; size = 4
_arg1$ = 8						; size = 4
_arg2$ = 12						; size = 4
?SortModesCallback@@YAHPBX0@Z PROC			; SortModesCallback, COMDAT

; 701  : {

	push	ebp
	mov	ebp, esp
	sub	esp, 216				; 000000d8H
	push	ebx
	push	esi
	push	edi
	lea	edi, DWORD PTR [ebp-216]
	mov	ecx, 54					; 00000036H
	mov	eax, -858993460				; ccccccccH
	rep stosd

; 702  :     D3DDISPLAYMODE* pdm1 = (D3DDISPLAYMODE*)arg1;

	mov	eax, DWORD PTR _arg1$[ebp]
	mov	DWORD PTR _pdm1$[ebp], eax

; 703  :     D3DDISPLAYMODE* pdm2 = (D3DDISPLAYMODE*)arg2;

	mov	eax, DWORD PTR _arg2$[ebp]
	mov	DWORD PTR _pdm2$[ebp], eax

; 704  : 
; 705  :     if (pdm1->Width > pdm2->Width)

	mov	eax, DWORD PTR _pdm1$[ebp]
	mov	ecx, DWORD PTR _pdm2$[ebp]
	mov	edx, DWORD PTR [eax]
	cmp	edx, DWORD PTR [ecx]
	jbe	SHORT $LN8@SortModesC

; 706  :         return 1;

	mov	eax, 1
	jmp	$LN9@SortModesC
$LN8@SortModesC:

; 707  :     if (pdm1->Width < pdm2->Width)

	mov	eax, DWORD PTR _pdm1$[ebp]
	mov	ecx, DWORD PTR _pdm2$[ebp]
	mov	edx, DWORD PTR [eax]
	cmp	edx, DWORD PTR [ecx]
	jae	SHORT $LN7@SortModesC

; 708  :         return -1;

	or	eax, -1
	jmp	SHORT $LN9@SortModesC
$LN7@SortModesC:

; 709  :     if (pdm1->Height > pdm2->Height)

	mov	eax, DWORD PTR _pdm1$[ebp]
	mov	ecx, DWORD PTR _pdm2$[ebp]
	mov	edx, DWORD PTR [eax+4]
	cmp	edx, DWORD PTR [ecx+4]
	jbe	SHORT $LN6@SortModesC

; 710  :         return 1;

	mov	eax, 1
	jmp	SHORT $LN9@SortModesC
$LN6@SortModesC:

; 711  :     if (pdm1->Height < pdm2->Height)

	mov	eax, DWORD PTR _pdm1$[ebp]
	mov	ecx, DWORD PTR _pdm2$[ebp]
	mov	edx, DWORD PTR [eax+4]
	cmp	edx, DWORD PTR [ecx+4]
	jae	SHORT $LN5@SortModesC

; 712  :         return -1;

	or	eax, -1
	jmp	SHORT $LN9@SortModesC
$LN5@SortModesC:

; 713  :     if (pdm1->Format > pdm2->Format)

	mov	eax, DWORD PTR _pdm1$[ebp]
	mov	ecx, DWORD PTR _pdm2$[ebp]
	mov	edx, DWORD PTR [eax+12]
	cmp	edx, DWORD PTR [ecx+12]
	jle	SHORT $LN4@SortModesC

; 714  :         return 1;

	mov	eax, 1
	jmp	SHORT $LN9@SortModesC
$LN4@SortModesC:

; 715  :     if (pdm1->Format < pdm2->Format)

	mov	eax, DWORD PTR _pdm1$[ebp]
	mov	ecx, DWORD PTR _pdm2$[ebp]
	mov	edx, DWORD PTR [eax+12]
	cmp	edx, DWORD PTR [ecx+12]
	jge	SHORT $LN3@SortModesC

; 716  :         return -1;

	or	eax, -1
	jmp	SHORT $LN9@SortModesC
$LN3@SortModesC:

; 717  :     if (pdm1->RefreshRate > pdm2->RefreshRate)

	mov	eax, DWORD PTR _pdm1$[ebp]
	mov	ecx, DWORD PTR _pdm2$[ebp]
	mov	edx, DWORD PTR [eax+8]
	cmp	edx, DWORD PTR [ecx+8]
	jbe	SHORT $LN2@SortModesC

; 718  :         return 1;

	mov	eax, 1
	jmp	SHORT $LN9@SortModesC
$LN2@SortModesC:

; 719  :     if (pdm1->RefreshRate < pdm2->RefreshRate)

	mov	eax, DWORD PTR _pdm1$[ebp]
	mov	ecx, DWORD PTR _pdm2$[ebp]
	mov	edx, DWORD PTR [eax+8]
	cmp	edx, DWORD PTR [ecx+8]
	jae	SHORT $LN1@SortModesC

; 720  :         return -1;

	or	eax, -1
	jmp	SHORT $LN9@SortModesC
$LN1@SortModesC:

; 721  :     return 0;

	xor	eax, eax
$LN9@SortModesC:

; 722  : }

	pop	edi
	pop	esi
	pop	ebx
	mov	esp, ebp
	pop	ebp
	ret	0
?SortModesCallback@@YAHPBX0@Z ENDP			; SortModesCallback
_TEXT	ENDS
; Function compile flags: /Odtp /RTCsu /ZI
;	COMDAT ??_GCD3DEnumDeviceSettingsCombo@@QAEPAXI@Z
_TEXT	SEGMENT
_this$ = -8						; size = 4
___flags$ = 8						; size = 4
??_GCD3DEnumDeviceSettingsCombo@@QAEPAXI@Z PROC		; CD3DEnumDeviceSettingsCombo::`scalar deleting destructor', COMDAT
; _this$ = ecx
	push	ebp
	mov	ebp, esp
	sub	esp, 204				; 000000ccH
	push	ebx
	push	esi
	push	edi
	push	ecx
	lea	edi, DWORD PTR [ebp-204]
	mov	ecx, 51					; 00000033H
	mov	eax, -858993460				; ccccccccH
	rep stosd
	pop	ecx
	mov	DWORD PTR _this$[ebp], ecx
	mov	ecx, DWORD PTR _this$[ebp]
	call	??1CD3DEnumDeviceSettingsCombo@@QAE@XZ
	mov	eax, DWORD PTR ___flags$[ebp]
	and	eax, 1
	je	SHORT $LN1@scalar
	mov	eax, DWORD PTR _this$[ebp]
	push	eax
	call	??3@YAXPAX@Z				; operator delete
	add	esp, 4
$LN1@scalar:
	mov	eax, DWORD PTR _this$[ebp]
	pop	edi
	pop	esi
	pop	ebx
	add	esp, 204				; 000000ccH
	cmp	ebp, esp
	call	__RTC_CheckEsp
	mov	esp, ebp
	pop	ebp
	ret	4
??_GCD3DEnumDeviceSettingsCombo@@QAEPAXI@Z ENDP		; CD3DEnumDeviceSettingsCombo::`scalar deleting destructor'
_TEXT	ENDS
; Function compile flags: /Odtp /RTCsu /ZI
;	COMDAT ??1CD3DEnumDeviceSettingsCombo@@QAE@XZ
_TEXT	SEGMENT
_this$ = -20						; size = 4
__$EHRec$ = -12						; size = 12
??1CD3DEnumDeviceSettingsCombo@@QAE@XZ PROC		; CD3DEnumDeviceSettingsCombo::~CD3DEnumDeviceSettingsCombo, COMDAT
; _this$ = ecx
	push	ebp
	mov	ebp, esp
	push	-1
	push	__ehhandler$??1CD3DEnumDeviceSettingsCombo@@QAE@XZ
	mov	eax, DWORD PTR fs:0
	push	eax
	sub	esp, 204				; 000000ccH
	push	ebx
	push	esi
	push	edi
	push	ecx
	lea	edi, DWORD PTR [ebp-216]
	mov	ecx, 51					; 00000033H
	mov	eax, -858993460				; ccccccccH
	rep stosd
	pop	ecx
	mov	eax, DWORD PTR ___security_cookie
	xor	eax, ebp
	push	eax
	lea	eax, DWORD PTR __$EHRec$[ebp]
	mov	DWORD PTR fs:0, eax
	mov	DWORD PTR _this$[ebp], ecx
	mov	DWORD PTR __$EHRec$[ebp+8], 3
	mov	ecx, DWORD PTR _this$[ebp]
	add	ecx, 68					; 00000044H
	call	??1?$CGrowableArray@UCD3DEnumDSMSConflict@@@@QAE@XZ ; CGrowableArray<CD3DEnumDSMSConflict>::~CGrowableArray<CD3DEnumDSMSConflict>
	mov	BYTE PTR __$EHRec$[ebp+8], 2
	mov	ecx, DWORD PTR _this$[ebp]
	add	ecx, 56					; 00000038H
	call	??1?$CGrowableArray@I@@QAE@XZ		; CGrowableArray<unsigned int>::~CGrowableArray<unsigned int>
	mov	BYTE PTR __$EHRec$[ebp+8], 1
	mov	ecx, DWORD PTR _this$[ebp]
	add	ecx, 44					; 0000002cH
	call	??1?$CGrowableArray@K@@QAE@XZ		; CGrowableArray<unsigned long>::~CGrowableArray<unsigned long>
	mov	BYTE PTR __$EHRec$[ebp+8], 0
	mov	ecx, DWORD PTR _this$[ebp]
	add	ecx, 32					; 00000020H
	call	??1?$CGrowableArray@W4_D3DMULTISAMPLE_TYPE@@@@QAE@XZ ; CGrowableArray<enum _D3DMULTISAMPLE_TYPE>::~CGrowableArray<enum _D3DMULTISAMPLE_TYPE>
	mov	DWORD PTR __$EHRec$[ebp+8], -1
	mov	ecx, DWORD PTR _this$[ebp]
	add	ecx, 20					; 00000014H
	call	??1?$CGrowableArray@W4_D3DFORMAT@@@@QAE@XZ ; CGrowableArray<enum _D3DFORMAT>::~CGrowableArray<enum _D3DFORMAT>
	mov	ecx, DWORD PTR __$EHRec$[ebp]
	mov	DWORD PTR fs:0, ecx
	pop	ecx
	pop	edi
	pop	esi
	pop	ebx
	add	esp, 216				; 000000d8H
	cmp	ebp, esp
	call	__RTC_CheckEsp
	mov	esp, ebp
	pop	ebp
	ret	0
_TEXT	ENDS
;	COMDAT text$x
text$x	SEGMENT
__unwindfunclet$??1CD3DEnumDeviceSettingsCombo@@QAE@XZ$0:
	mov	ecx, DWORD PTR _this$[ebp]
	add	ecx, 20					; 00000014H
	jmp	??1?$CGrowableArray@W4_D3DFORMAT@@@@QAE@XZ ; CGrowableArray<enum _D3DFORMAT>::~CGrowableArray<enum _D3DFORMAT>
__unwindfunclet$??1CD3DEnumDeviceSettingsCombo@@QAE@XZ$1:
	mov	ecx, DWORD PTR _this$[ebp]
	add	ecx, 32					; 00000020H
	jmp	??1?$CGrowableArray@W4_D3DMULTISAMPLE_TYPE@@@@QAE@XZ ; CGrowableArray<enum _D3DMULTISAMPLE_TYPE>::~CGrowableArray<enum _D3DMULTISAMPLE_TYPE>
__unwindfunclet$??1CD3DEnumDeviceSettingsCombo@@QAE@XZ$2:
	mov	ecx, DWORD PTR _this$[ebp]
	add	ecx, 44					; 0000002cH
	jmp	??1?$CGrowableArray@K@@QAE@XZ		; CGrowableArray<unsigned long>::~CGrowableArray<unsigned long>
__unwindfunclet$??1CD3DEnumDeviceSettingsCombo@@QAE@XZ$3:
	mov	ecx, DWORD PTR _this$[ebp]
	add	ecx, 56					; 00000038H
	jmp	??1?$CGrowableArray@I@@QAE@XZ		; CGrowableArray<unsigned int>::~CGrowableArray<unsigned int>
__ehhandler$??1CD3DEnumDeviceSettingsCombo@@QAE@XZ:
	mov	edx, DWORD PTR [esp+8]
	lea	eax, DWORD PTR [edx+12]
	mov	ecx, DWORD PTR [edx-220]
	xor	ecx, eax
	call	@__security_check_cookie@4
	mov	eax, OFFSET __ehfuncinfo$??1CD3DEnumDeviceSettingsCombo@@QAE@XZ
	jmp	___CxxFrameHandler3
text$x	ENDS
??1CD3DEnumDeviceSettingsCombo@@QAE@XZ ENDP		; CD3DEnumDeviceSettingsCombo::~CD3DEnumDeviceSettingsCombo
; Function compile flags: /Odtp /RTCsu /ZI
;	COMDAT ??0CD3DEnumDeviceSettingsCombo@@QAE@XZ
_TEXT	SEGMENT
_this$ = -20						; size = 4
__$EHRec$ = -12						; size = 12
??0CD3DEnumDeviceSettingsCombo@@QAE@XZ PROC		; CD3DEnumDeviceSettingsCombo::CD3DEnumDeviceSettingsCombo, COMDAT
; _this$ = ecx
	push	ebp
	mov	ebp, esp
	push	-1
	push	__ehhandler$??0CD3DEnumDeviceSettingsCombo@@QAE@XZ
	mov	eax, DWORD PTR fs:0
	push	eax
	sub	esp, 204				; 000000ccH
	push	ebx
	push	esi
	push	edi
	push	ecx
	lea	edi, DWORD PTR [ebp-216]
	mov	ecx, 51					; 00000033H
	mov	eax, -858993460				; ccccccccH
	rep stosd
	pop	ecx
	mov	eax, DWORD PTR ___security_cookie
	xor	eax, ebp
	push	eax
	lea	eax, DWORD PTR __$EHRec$[ebp]
	mov	DWORD PTR fs:0, eax
	mov	DWORD PTR _this$[ebp], ecx
	mov	ecx, DWORD PTR _this$[ebp]
	add	ecx, 20					; 00000014H
	call	??0?$CGrowableArray@W4_D3DFORMAT@@@@QAE@XZ ; CGrowableArray<enum _D3DFORMAT>::CGrowableArray<enum _D3DFORMAT>
	mov	DWORD PTR __$EHRec$[ebp+8], 0
	mov	ecx, DWORD PTR _this$[ebp]
	add	ecx, 32					; 00000020H
	call	??0?$CGrowableArray@W4_D3DMULTISAMPLE_TYPE@@@@QAE@XZ ; CGrowableArray<enum _D3DMULTISAMPLE_TYPE>::CGrowableArray<enum _D3DMULTISAMPLE_TYPE>
	mov	BYTE PTR __$EHRec$[ebp+8], 1
	mov	ecx, DWORD PTR _this$[ebp]
	add	ecx, 44					; 0000002cH
	call	??0?$CGrowableArray@K@@QAE@XZ		; CGrowableArray<unsigned long>::CGrowableArray<unsigned long>
	mov	BYTE PTR __$EHRec$[ebp+8], 2
	mov	ecx, DWORD PTR _this$[ebp]
	add	ecx, 56					; 00000038H
	call	??0?$CGrowableArray@I@@QAE@XZ		; CGrowableArray<unsigned int>::CGrowableArray<unsigned int>
	mov	BYTE PTR __$EHRec$[ebp+8], 3
	mov	ecx, DWORD PTR _this$[ebp]
	add	ecx, 68					; 00000044H
	call	??0?$CGrowableArray@UCD3DEnumDSMSConflict@@@@QAE@XZ ; CGrowableArray<CD3DEnumDSMSConflict>::CGrowableArray<CD3DEnumDSMSConflict>
	mov	DWORD PTR __$EHRec$[ebp+8], -1
	mov	eax, DWORD PTR _this$[ebp]
	mov	ecx, DWORD PTR __$EHRec$[ebp]
	mov	DWORD PTR fs:0, ecx
	pop	ecx
	pop	edi
	pop	esi
	pop	ebx
	add	esp, 216				; 000000d8H
	cmp	ebp, esp
	call	__RTC_CheckEsp
	mov	esp, ebp
	pop	ebp
	ret	0
_TEXT	ENDS
;	COMDAT text$x
text$x	SEGMENT
__unwindfunclet$??0CD3DEnumDeviceSettingsCombo@@QAE@XZ$0:
	mov	ecx, DWORD PTR _this$[ebp]
	add	ecx, 20					; 00000014H
	jmp	??1?$CGrowableArray@W4_D3DFORMAT@@@@QAE@XZ ; CGrowableArray<enum _D3DFORMAT>::~CGrowableArray<enum _D3DFORMAT>
__unwindfunclet$??0CD3DEnumDeviceSettingsCombo@@QAE@XZ$1:
	mov	ecx, DWORD PTR _this$[ebp]
	add	ecx, 32					; 00000020H
	jmp	??1?$CGrowableArray@W4_D3DMULTISAMPLE_TYPE@@@@QAE@XZ ; CGrowableArray<enum _D3DMULTISAMPLE_TYPE>::~CGrowableArray<enum _D3DMULTISAMPLE_TYPE>
__unwindfunclet$??0CD3DEnumDeviceSettingsCombo@@QAE@XZ$2:
	mov	ecx, DWORD PTR _this$[ebp]
	add	ecx, 44					; 0000002cH
	jmp	??1?$CGrowableArray@K@@QAE@XZ		; CGrowableArray<unsigned long>::~CGrowableArray<unsigned long>
__unwindfunclet$??0CD3DEnumDeviceSettingsCombo@@QAE@XZ$3:
	mov	ecx, DWORD PTR _this$[ebp]
	add	ecx, 56					; 00000038H
	jmp	??1?$CGrowableArray@I@@QAE@XZ		; CGrowableArray<unsigned int>::~CGrowableArray<unsigned int>
__ehhandler$??0CD3DEnumDeviceSettingsCombo@@QAE@XZ:
	mov	edx, DWORD PTR [esp+8]
	lea	eax, DWORD PTR [edx+12]
	mov	ecx, DWORD PTR [edx-220]
	xor	ecx, eax
	call	@__security_check_cookie@4
	mov	eax, OFFSET __ehfuncinfo$??0CD3DEnumDeviceSettingsCombo@@QAE@XZ
	jmp	___CxxFrameHandler3
text$x	ENDS
??0CD3DEnumDeviceSettingsCombo@@QAE@XZ ENDP		; CD3DEnumDeviceSettingsCombo::CD3DEnumDeviceSettingsCombo
; Function compile flags: /Odtp /RTCsu /ZI
; File z:\sampsrc\02xu1\saco\d3d9\common\dxutmisc.h
;	COMDAT ?SetSizeInternal@?$CGrowableArray@UCD3DEnumDSMSConflict@@@@IAEJH@Z
_TEXT	SEGMENT
tv91 = -232						; size = 4
tv85 = -232						; size = 4
_pDataNew$1 = -32					; size = 4
_nGrowBy$2 = -20					; size = 4
_this$ = -8						; size = 4
_nNewMaxSize$ = 8					; size = 4
?SetSizeInternal@?$CGrowableArray@UCD3DEnumDSMSConflict@@@@IAEJH@Z PROC ; CGrowableArray<CD3DEnumDSMSConflict>::SetSizeInternal, COMDAT
; _this$ = ecx

; 670  : {

	push	ebp
	mov	ebp, esp
	sub	esp, 232				; 000000e8H
	push	ebx
	push	esi
	push	edi
	push	ecx
	lea	edi, DWORD PTR [ebp-232]
	mov	ecx, 58					; 0000003aH
	mov	eax, -858993460				; ccccccccH
	rep stosd
	pop	ecx
	mov	DWORD PTR _this$[ebp], ecx

; 671  :     if( nNewMaxSize < 0 )

	cmp	DWORD PTR _nNewMaxSize$[ebp], 0
	jge	SHORT $LN7@SetSizeInt

; 672  :     {
; 673  :         assert( false );

	xor	eax, eax
	jne	SHORT $LN10@SetSizeInt
	push	673					; 000002a1H
	push	OFFSET ??_C@_1FK@FIMIDMPE@?$AAz?$AA?3?$AA?2?$AAs?$AAa?$AAm?$AAp?$AAs?$AAr?$AAc?$AA?2?$AA0?$AA2?$AAx?$AAu?$AA1?$AA?2?$AAs?$AAa?$AAc?$AAo?$AA?2?$AAd?$AA3?$AAd?$AA9?$AA?2?$AAc?$AAo?$AAm?$AAm?$AAo@
	push	OFFSET ??_C@_1M@HLGKFCJM@?$AAf?$AAa?$AAl?$AAs?$AAe?$AA?$AA@
	call	__wassert
	add	esp, 12					; 0000000cH
$LN10@SetSizeInt:

; 674  :         return E_INVALIDARG;

	mov	eax, -2147024809			; 80070057H
	jmp	$LN8@SetSizeInt
$LN7@SetSizeInt:

; 675  :     }
; 676  : 
; 677  :     if( nNewMaxSize == 0 )

	cmp	DWORD PTR _nNewMaxSize$[ebp], 0
	jne	SHORT $LN6@SetSizeInt

; 678  :     {
; 679  :         // Shrink to 0 size & cleanup
; 680  :         if( m_pData )

	mov	eax, DWORD PTR _this$[ebp]
	cmp	DWORD PTR [eax], 0
	je	SHORT $LN5@SetSizeInt

; 681  :         {
; 682  :             free( m_pData );

	mov	eax, DWORD PTR _this$[ebp]
	mov	ecx, DWORD PTR [eax]
	push	ecx
	call	_free
	add	esp, 4

; 683  :             m_pData = NULL;

	mov	eax, DWORD PTR _this$[ebp]
	mov	DWORD PTR [eax], 0
$LN5@SetSizeInt:

; 684  :         }
; 685  : 
; 686  :         m_nMaxSize = 0;

	mov	eax, DWORD PTR _this$[ebp]
	mov	DWORD PTR [eax+8], 0

; 687  :         m_nSize = 0;

	mov	eax, DWORD PTR _this$[ebp]
	mov	DWORD PTR [eax+4], 0
	jmp	$LN4@SetSizeInt
$LN6@SetSizeInt:

; 688  :     }
; 689  :     else if( m_pData == NULL || nNewMaxSize > m_nMaxSize )

	mov	eax, DWORD PTR _this$[ebp]
	cmp	DWORD PTR [eax], 0
	je	SHORT $LN2@SetSizeInt
	mov	eax, DWORD PTR _this$[ebp]
	mov	ecx, DWORD PTR _nNewMaxSize$[ebp]
	cmp	ecx, DWORD PTR [eax+8]
	jle	$LN4@SetSizeInt
$LN2@SetSizeInt:

; 690  :     {
; 691  :         // Grow array
; 692  :         int nGrowBy = ( m_nMaxSize == 0 ) ? 16 : m_nMaxSize;

	mov	eax, DWORD PTR _this$[ebp]
	cmp	DWORD PTR [eax+8], 0
	jne	SHORT $LN11@SetSizeInt
	mov	DWORD PTR tv85[ebp], 16			; 00000010H
	jmp	SHORT $LN12@SetSizeInt
$LN11@SetSizeInt:
	mov	ecx, DWORD PTR _this$[ebp]
	mov	edx, DWORD PTR [ecx+8]
	mov	DWORD PTR tv85[ebp], edx
$LN12@SetSizeInt:
	mov	eax, DWORD PTR tv85[ebp]
	mov	DWORD PTR _nGrowBy$2[ebp], eax

; 693  :         nNewMaxSize = __max( nNewMaxSize, m_nMaxSize + nGrowBy );

	mov	eax, DWORD PTR _this$[ebp]
	mov	ecx, DWORD PTR [eax+8]
	add	ecx, DWORD PTR _nGrowBy$2[ebp]
	cmp	DWORD PTR _nNewMaxSize$[ebp], ecx
	jle	SHORT $LN13@SetSizeInt
	mov	edx, DWORD PTR _nNewMaxSize$[ebp]
	mov	DWORD PTR tv91[ebp], edx
	jmp	SHORT $LN14@SetSizeInt
$LN13@SetSizeInt:
	mov	eax, DWORD PTR _this$[ebp]
	mov	ecx, DWORD PTR [eax+8]
	add	ecx, DWORD PTR _nGrowBy$2[ebp]
	mov	DWORD PTR tv91[ebp], ecx
$LN14@SetSizeInt:
	mov	edx, DWORD PTR tv91[ebp]
	mov	DWORD PTR _nNewMaxSize$[ebp], edx

; 694  : 
; 695  :         TYPE* pDataNew = (TYPE*) realloc( m_pData, nNewMaxSize * sizeof(TYPE) );

	mov	eax, DWORD PTR _nNewMaxSize$[ebp]
	shl	eax, 3
	push	eax
	mov	ecx, DWORD PTR _this$[ebp]
	mov	edx, DWORD PTR [ecx]
	push	edx
	call	_realloc
	add	esp, 8
	mov	DWORD PTR _pDataNew$1[ebp], eax

; 696  :         if( pDataNew == NULL )

	cmp	DWORD PTR _pDataNew$1[ebp], 0
	jne	SHORT $LN1@SetSizeInt

; 697  :             return E_OUTOFMEMORY;

	mov	eax, -2147024882			; 8007000eH
	jmp	SHORT $LN8@SetSizeInt
$LN1@SetSizeInt:

; 698  : 
; 699  :         m_pData = pDataNew;

	mov	eax, DWORD PTR _this$[ebp]
	mov	ecx, DWORD PTR _pDataNew$1[ebp]
	mov	DWORD PTR [eax], ecx

; 700  :         m_nMaxSize = nNewMaxSize;

	mov	eax, DWORD PTR _this$[ebp]
	mov	ecx, DWORD PTR _nNewMaxSize$[ebp]
	mov	DWORD PTR [eax+8], ecx
$LN4@SetSizeInt:

; 701  :     }
; 702  : 
; 703  :     return S_OK;

	xor	eax, eax
$LN8@SetSizeInt:

; 704  : }

	pop	edi
	pop	esi
	pop	ebx
	add	esp, 232				; 000000e8H
	cmp	ebp, esp
	call	__RTC_CheckEsp
	mov	esp, ebp
	pop	ebp
	ret	4
?SetSizeInternal@?$CGrowableArray@UCD3DEnumDSMSConflict@@@@IAEJH@Z ENDP ; CGrowableArray<CD3DEnumDSMSConflict>::SetSizeInternal
_TEXT	ENDS
; Function compile flags: /Odtp /RTCsu /ZI
; File z:\sampsrc\02xu1\saco\d3d9\common\dxutmisc.h
;	COMDAT ?RemoveAll@?$CGrowableArray@UCD3DEnumDSMSConflict@@@@QAEXXZ
_TEXT	SEGMENT
_this$ = -8						; size = 4
?RemoveAll@?$CGrowableArray@UCD3DEnumDSMSConflict@@@@QAEXXZ PROC ; CGrowableArray<CD3DEnumDSMSConflict>::RemoveAll, COMDAT
; _this$ = ecx

; 47   :     void    RemoveAll() { SetSize(0); }

	push	ebp
	mov	ebp, esp
	sub	esp, 204				; 000000ccH
	push	ebx
	push	esi
	push	edi
	push	ecx
	lea	edi, DWORD PTR [ebp-204]
	mov	ecx, 51					; 00000033H
	mov	eax, -858993460				; ccccccccH
	rep stosd
	pop	ecx
	mov	DWORD PTR _this$[ebp], ecx
	push	0
	mov	ecx, DWORD PTR _this$[ebp]
	call	?SetSize@?$CGrowableArray@UCD3DEnumDSMSConflict@@@@QAEJH@Z ; CGrowableArray<CD3DEnumDSMSConflict>::SetSize
	pop	edi
	pop	esi
	pop	ebx
	add	esp, 204				; 000000ccH
	cmp	ebp, esp
	call	__RTC_CheckEsp
	mov	esp, ebp
	pop	ebp
	ret	0
?RemoveAll@?$CGrowableArray@UCD3DEnumDSMSConflict@@@@QAEXXZ ENDP ; CGrowableArray<CD3DEnumDSMSConflict>::RemoveAll
_TEXT	ENDS
; Function compile flags: /Odtp /RTCsu /ZI
; File z:\sampsrc\02xu1\saco\d3d9\common\dxutmisc.h
;	COMDAT ?Add@?$CGrowableArray@UCD3DEnumDSMSConflict@@@@QAEJABUCD3DEnumDSMSConflict@@@Z
_TEXT	SEGMENT
$T1 = -224						; size = 4
_hr$ = -20						; size = 4
_this$ = -8						; size = 4
_value$ = 8						; size = 4
?Add@?$CGrowableArray@UCD3DEnumDSMSConflict@@@@QAEJABUCD3DEnumDSMSConflict@@@Z PROC ; CGrowableArray<CD3DEnumDSMSConflict>::Add, COMDAT
; _this$ = ecx

; 740  : {

	push	ebp
	mov	ebp, esp
	sub	esp, 228				; 000000e4H
	push	ebx
	push	esi
	push	edi
	push	ecx
	lea	edi, DWORD PTR [ebp-228]
	mov	ecx, 57					; 00000039H
	mov	eax, -858993460				; ccccccccH
	rep stosd
	pop	ecx
	mov	DWORD PTR _this$[ebp], ecx

; 741  :     HRESULT hr;
; 742  :     if( FAILED( hr = SetSizeInternal( m_nSize + 1 ) ) )

	mov	eax, DWORD PTR _this$[ebp]
	mov	ecx, DWORD PTR [eax+4]
	add	ecx, 1
	push	ecx
	mov	ecx, DWORD PTR _this$[ebp]
	call	?SetSizeInternal@?$CGrowableArray@UCD3DEnumDSMSConflict@@@@IAEJH@Z ; CGrowableArray<CD3DEnumDSMSConflict>::SetSizeInternal
	mov	DWORD PTR _hr$[ebp], eax
	cmp	DWORD PTR _hr$[ebp], 0
	jge	SHORT $LN1@Add

; 743  :         return hr;

	mov	eax, DWORD PTR _hr$[ebp]
	jmp	SHORT $LN2@Add
$LN1@Add:

; 744  : 
; 745  :     // Construct the new element
; 746  :     ::new (&m_pData[m_nSize]) TYPE;

	mov	eax, DWORD PTR _this$[ebp]
	mov	ecx, DWORD PTR [eax+4]
	mov	edx, DWORD PTR _this$[ebp]
	mov	eax, DWORD PTR [edx]
	lea	ecx, DWORD PTR [eax+ecx*8]
	push	ecx
	push	8
	call	??2@YAPAXIPAX@Z				; operator new
	add	esp, 8
	mov	DWORD PTR $T1[ebp], eax

; 747  : 
; 748  :     // Assign
; 749  :     m_pData[m_nSize] = value;

	mov	eax, DWORD PTR _value$[ebp]
	mov	ecx, DWORD PTR [eax]
	mov	edx, DWORD PTR [eax+4]
	mov	eax, DWORD PTR _this$[ebp]
	mov	eax, DWORD PTR [eax+4]
	mov	esi, DWORD PTR _this$[ebp]
	mov	esi, DWORD PTR [esi]
	mov	DWORD PTR [esi+eax*8], ecx
	mov	DWORD PTR [esi+eax*8+4], edx

; 750  :     ++m_nSize;

	mov	eax, DWORD PTR _this$[ebp]
	mov	ecx, DWORD PTR [eax+4]
	add	ecx, 1
	mov	edx, DWORD PTR _this$[ebp]
	mov	DWORD PTR [edx+4], ecx

; 751  : 
; 752  :     return S_OK;

	xor	eax, eax
$LN2@Add:

; 753  : }

	pop	edi
	pop	esi
	pop	ebx
	add	esp, 228				; 000000e4H
	cmp	ebp, esp
	call	__RTC_CheckEsp
	mov	esp, ebp
	pop	ebp
	ret	4
?Add@?$CGrowableArray@UCD3DEnumDSMSConflict@@@@QAEJABUCD3DEnumDSMSConflict@@@Z ENDP ; CGrowableArray<CD3DEnumDSMSConflict>::Add
_TEXT	ENDS
; Function compile flags: /Odtp /RTCsu /ZI
; File z:\sampsrc\02xu1\saco\d3d9\common\dxutmisc.h
;	COMDAT ?SetSize@?$CGrowableArray@UCD3DEnumDSMSConflict@@@@QAEJH@Z
_TEXT	SEGMENT
$T1 = -260						; size = 4
_i$2 = -56						; size = 4
_hr$ = -44						; size = 4
_i$3 = -32						; size = 4
_nOldSize$ = -20					; size = 4
_this$ = -8						; size = 4
_nNewMaxSize$ = 8					; size = 4
?SetSize@?$CGrowableArray@UCD3DEnumDSMSConflict@@@@QAEJH@Z PROC ; CGrowableArray<CD3DEnumDSMSConflict>::SetSize, COMDAT
; _this$ = ecx

; 710  : {

	push	ebp
	mov	ebp, esp
	sub	esp, 264				; 00000108H
	push	ebx
	push	esi
	push	edi
	push	ecx
	lea	edi, DWORD PTR [ebp-264]
	mov	ecx, 66					; 00000042H
	mov	eax, -858993460				; ccccccccH
	rep stosd
	pop	ecx
	mov	DWORD PTR _this$[ebp], ecx

; 711  :     int nOldSize = m_nSize;

	mov	eax, DWORD PTR _this$[ebp]
	mov	ecx, DWORD PTR [eax+4]
	mov	DWORD PTR _nOldSize$[ebp], ecx

; 712  : 
; 713  :     if( nOldSize > nNewMaxSize )

	mov	eax, DWORD PTR _nOldSize$[ebp]
	cmp	eax, DWORD PTR _nNewMaxSize$[ebp]
	jle	SHORT $LN8@SetSize

; 714  :     {
; 715  :         // Removing elements. Call dtor.
; 716  : 
; 717  :         for( int i = nNewMaxSize; i < nOldSize; ++i )

	mov	eax, DWORD PTR _nNewMaxSize$[ebp]
	mov	DWORD PTR _i$3[ebp], eax
	jmp	SHORT $LN7@SetSize
$LN6@SetSize:
	mov	eax, DWORD PTR _i$3[ebp]
	add	eax, 1
	mov	DWORD PTR _i$3[ebp], eax
$LN7@SetSize:
	mov	eax, DWORD PTR _i$3[ebp]
	cmp	eax, DWORD PTR _nOldSize$[ebp]
	jge	SHORT $LN8@SetSize

; 718  :             m_pData[i].~TYPE();

	jmp	SHORT $LN6@SetSize
$LN8@SetSize:

; 719  :     }
; 720  : 
; 721  :     // Adjust buffer.  Note that there's no need to check for error
; 722  :     // since if it happens, nOldSize == nNewMaxSize will be true.)
; 723  :     HRESULT hr = SetSizeInternal( nNewMaxSize );

	mov	eax, DWORD PTR _nNewMaxSize$[ebp]
	push	eax
	mov	ecx, DWORD PTR _this$[ebp]
	call	?SetSizeInternal@?$CGrowableArray@UCD3DEnumDSMSConflict@@@@IAEJH@Z ; CGrowableArray<CD3DEnumDSMSConflict>::SetSizeInternal
	mov	DWORD PTR _hr$[ebp], eax

; 724  : 
; 725  :     if( nOldSize < nNewMaxSize )

	mov	eax, DWORD PTR _nOldSize$[ebp]
	cmp	eax, DWORD PTR _nNewMaxSize$[ebp]
	jge	SHORT $LN4@SetSize

; 726  :     {
; 727  :         // Adding elements. Call ctor.
; 728  : 
; 729  :         for( int i = nOldSize; i < nNewMaxSize; ++i )

	mov	eax, DWORD PTR _nOldSize$[ebp]
	mov	DWORD PTR _i$2[ebp], eax
	jmp	SHORT $LN3@SetSize
$LN2@SetSize:
	mov	eax, DWORD PTR _i$2[ebp]
	add	eax, 1
	mov	DWORD PTR _i$2[ebp], eax
$LN3@SetSize:
	mov	eax, DWORD PTR _i$2[ebp]
	cmp	eax, DWORD PTR _nNewMaxSize$[ebp]
	jge	SHORT $LN4@SetSize

; 730  :             ::new (&m_pData[i]) TYPE;

	mov	eax, DWORD PTR _this$[ebp]
	mov	ecx, DWORD PTR [eax]
	mov	edx, DWORD PTR _i$2[ebp]
	lea	eax, DWORD PTR [ecx+edx*8]
	push	eax
	push	8
	call	??2@YAPAXIPAX@Z				; operator new
	add	esp, 8
	mov	DWORD PTR $T1[ebp], eax
	jmp	SHORT $LN2@SetSize
$LN4@SetSize:

; 731  :     }
; 732  : 
; 733  :     return hr;

	mov	eax, DWORD PTR _hr$[ebp]

; 734  : }

	pop	edi
	pop	esi
	pop	ebx
	add	esp, 264				; 00000108H
	cmp	ebp, esp
	call	__RTC_CheckEsp
	mov	esp, ebp
	pop	ebp
	ret	4
?SetSize@?$CGrowableArray@UCD3DEnumDSMSConflict@@@@QAEJH@Z ENDP ; CGrowableArray<CD3DEnumDSMSConflict>::SetSize
_TEXT	ENDS
; Function compile flags: /Odtp /RTCsu /ZI
; File z:\sampsrc\02xu1\saco\d3d9\common\dxutmisc.h
;	COMDAT ??1?$CGrowableArray@UCD3DEnumDSMSConflict@@@@QAE@XZ
_TEXT	SEGMENT
_this$ = -8						; size = 4
??1?$CGrowableArray@UCD3DEnumDSMSConflict@@@@QAE@XZ PROC ; CGrowableArray<CD3DEnumDSMSConflict>::~CGrowableArray<CD3DEnumDSMSConflict>, COMDAT
; _this$ = ecx

; 22   :     ~CGrowableArray() { RemoveAll(); }

	push	ebp
	mov	ebp, esp
	sub	esp, 204				; 000000ccH
	push	ebx
	push	esi
	push	edi
	push	ecx
	lea	edi, DWORD PTR [ebp-204]
	mov	ecx, 51					; 00000033H
	mov	eax, -858993460				; ccccccccH
	rep stosd
	pop	ecx
	mov	DWORD PTR _this$[ebp], ecx
	mov	ecx, DWORD PTR _this$[ebp]
	call	?RemoveAll@?$CGrowableArray@UCD3DEnumDSMSConflict@@@@QAEXXZ ; CGrowableArray<CD3DEnumDSMSConflict>::RemoveAll
	pop	edi
	pop	esi
	pop	ebx
	add	esp, 204				; 000000ccH
	cmp	ebp, esp
	call	__RTC_CheckEsp
	mov	esp, ebp
	pop	ebp
	ret	0
??1?$CGrowableArray@UCD3DEnumDSMSConflict@@@@QAE@XZ ENDP ; CGrowableArray<CD3DEnumDSMSConflict>::~CGrowableArray<CD3DEnumDSMSConflict>
_TEXT	ENDS
; Function compile flags: /Odtp /RTCsu /ZI
; File z:\sampsrc\02xu1\saco\d3d9\common\dxutmisc.h
;	COMDAT ??0?$CGrowableArray@UCD3DEnumDSMSConflict@@@@QAE@XZ
_TEXT	SEGMENT
_this$ = -8						; size = 4
??0?$CGrowableArray@UCD3DEnumDSMSConflict@@@@QAE@XZ PROC ; CGrowableArray<CD3DEnumDSMSConflict>::CGrowableArray<CD3DEnumDSMSConflict>, COMDAT
; _this$ = ecx

; 20   :     CGrowableArray()  { m_pData = NULL; m_nSize = 0; m_nMaxSize = 0; }

	push	ebp
	mov	ebp, esp
	sub	esp, 204				; 000000ccH
	push	ebx
	push	esi
	push	edi
	push	ecx
	lea	edi, DWORD PTR [ebp-204]
	mov	ecx, 51					; 00000033H
	mov	eax, -858993460				; ccccccccH
	rep stosd
	pop	ecx
	mov	DWORD PTR _this$[ebp], ecx
	mov	eax, DWORD PTR _this$[ebp]
	mov	DWORD PTR [eax], 0
	mov	eax, DWORD PTR _this$[ebp]
	mov	DWORD PTR [eax+4], 0
	mov	eax, DWORD PTR _this$[ebp]
	mov	DWORD PTR [eax+8], 0
	mov	eax, DWORD PTR _this$[ebp]
	pop	edi
	pop	esi
	pop	ebx
	mov	esp, ebp
	pop	ebp
	ret	0
??0?$CGrowableArray@UCD3DEnumDSMSConflict@@@@QAE@XZ ENDP ; CGrowableArray<CD3DEnumDSMSConflict>::CGrowableArray<CD3DEnumDSMSConflict>
_TEXT	ENDS
; Function compile flags: /Odtp /RTCsu /ZI
; File z:\sampsrc\02xu1\saco\d3d9\common\dxutmisc.h
;	COMDAT ?SetSizeInternal@?$CGrowableArray@K@@IAEJH@Z
_TEXT	SEGMENT
tv91 = -232						; size = 4
tv85 = -232						; size = 4
_pDataNew$1 = -32					; size = 4
_nGrowBy$2 = -20					; size = 4
_this$ = -8						; size = 4
_nNewMaxSize$ = 8					; size = 4
?SetSizeInternal@?$CGrowableArray@K@@IAEJH@Z PROC	; CGrowableArray<unsigned long>::SetSizeInternal, COMDAT
; _this$ = ecx

; 670  : {

	push	ebp
	mov	ebp, esp
	sub	esp, 232				; 000000e8H
	push	ebx
	push	esi
	push	edi
	push	ecx
	lea	edi, DWORD PTR [ebp-232]
	mov	ecx, 58					; 0000003aH
	mov	eax, -858993460				; ccccccccH
	rep stosd
	pop	ecx
	mov	DWORD PTR _this$[ebp], ecx

; 671  :     if( nNewMaxSize < 0 )

	cmp	DWORD PTR _nNewMaxSize$[ebp], 0
	jge	SHORT $LN7@SetSizeInt

; 672  :     {
; 673  :         assert( false );

	xor	eax, eax
	jne	SHORT $LN10@SetSizeInt
	push	673					; 000002a1H
	push	OFFSET ??_C@_1FK@FIMIDMPE@?$AAz?$AA?3?$AA?2?$AAs?$AAa?$AAm?$AAp?$AAs?$AAr?$AAc?$AA?2?$AA0?$AA2?$AAx?$AAu?$AA1?$AA?2?$AAs?$AAa?$AAc?$AAo?$AA?2?$AAd?$AA3?$AAd?$AA9?$AA?2?$AAc?$AAo?$AAm?$AAm?$AAo@
	push	OFFSET ??_C@_1M@HLGKFCJM@?$AAf?$AAa?$AAl?$AAs?$AAe?$AA?$AA@
	call	__wassert
	add	esp, 12					; 0000000cH
$LN10@SetSizeInt:

; 674  :         return E_INVALIDARG;

	mov	eax, -2147024809			; 80070057H
	jmp	$LN8@SetSizeInt
$LN7@SetSizeInt:

; 675  :     }
; 676  : 
; 677  :     if( nNewMaxSize == 0 )

	cmp	DWORD PTR _nNewMaxSize$[ebp], 0
	jne	SHORT $LN6@SetSizeInt

; 678  :     {
; 679  :         // Shrink to 0 size & cleanup
; 680  :         if( m_pData )

	mov	eax, DWORD PTR _this$[ebp]
	cmp	DWORD PTR [eax], 0
	je	SHORT $LN5@SetSizeInt

; 681  :         {
; 682  :             free( m_pData );

	mov	eax, DWORD PTR _this$[ebp]
	mov	ecx, DWORD PTR [eax]
	push	ecx
	call	_free
	add	esp, 4

; 683  :             m_pData = NULL;

	mov	eax, DWORD PTR _this$[ebp]
	mov	DWORD PTR [eax], 0
$LN5@SetSizeInt:

; 684  :         }
; 685  : 
; 686  :         m_nMaxSize = 0;

	mov	eax, DWORD PTR _this$[ebp]
	mov	DWORD PTR [eax+8], 0

; 687  :         m_nSize = 0;

	mov	eax, DWORD PTR _this$[ebp]
	mov	DWORD PTR [eax+4], 0
	jmp	$LN4@SetSizeInt
$LN6@SetSizeInt:

; 688  :     }
; 689  :     else if( m_pData == NULL || nNewMaxSize > m_nMaxSize )

	mov	eax, DWORD PTR _this$[ebp]
	cmp	DWORD PTR [eax], 0
	je	SHORT $LN2@SetSizeInt
	mov	eax, DWORD PTR _this$[ebp]
	mov	ecx, DWORD PTR _nNewMaxSize$[ebp]
	cmp	ecx, DWORD PTR [eax+8]
	jle	$LN4@SetSizeInt
$LN2@SetSizeInt:

; 690  :     {
; 691  :         // Grow array
; 692  :         int nGrowBy = ( m_nMaxSize == 0 ) ? 16 : m_nMaxSize;

	mov	eax, DWORD PTR _this$[ebp]
	cmp	DWORD PTR [eax+8], 0
	jne	SHORT $LN11@SetSizeInt
	mov	DWORD PTR tv85[ebp], 16			; 00000010H
	jmp	SHORT $LN12@SetSizeInt
$LN11@SetSizeInt:
	mov	ecx, DWORD PTR _this$[ebp]
	mov	edx, DWORD PTR [ecx+8]
	mov	DWORD PTR tv85[ebp], edx
$LN12@SetSizeInt:
	mov	eax, DWORD PTR tv85[ebp]
	mov	DWORD PTR _nGrowBy$2[ebp], eax

; 693  :         nNewMaxSize = __max( nNewMaxSize, m_nMaxSize + nGrowBy );

	mov	eax, DWORD PTR _this$[ebp]
	mov	ecx, DWORD PTR [eax+8]
	add	ecx, DWORD PTR _nGrowBy$2[ebp]
	cmp	DWORD PTR _nNewMaxSize$[ebp], ecx
	jle	SHORT $LN13@SetSizeInt
	mov	edx, DWORD PTR _nNewMaxSize$[ebp]
	mov	DWORD PTR tv91[ebp], edx
	jmp	SHORT $LN14@SetSizeInt
$LN13@SetSizeInt:
	mov	eax, DWORD PTR _this$[ebp]
	mov	ecx, DWORD PTR [eax+8]
	add	ecx, DWORD PTR _nGrowBy$2[ebp]
	mov	DWORD PTR tv91[ebp], ecx
$LN14@SetSizeInt:
	mov	edx, DWORD PTR tv91[ebp]
	mov	DWORD PTR _nNewMaxSize$[ebp], edx

; 694  : 
; 695  :         TYPE* pDataNew = (TYPE*) realloc( m_pData, nNewMaxSize * sizeof(TYPE) );

	mov	eax, DWORD PTR _nNewMaxSize$[ebp]
	shl	eax, 2
	push	eax
	mov	ecx, DWORD PTR _this$[ebp]
	mov	edx, DWORD PTR [ecx]
	push	edx
	call	_realloc
	add	esp, 8
	mov	DWORD PTR _pDataNew$1[ebp], eax

; 696  :         if( pDataNew == NULL )

	cmp	DWORD PTR _pDataNew$1[ebp], 0
	jne	SHORT $LN1@SetSizeInt

; 697  :             return E_OUTOFMEMORY;

	mov	eax, -2147024882			; 8007000eH
	jmp	SHORT $LN8@SetSizeInt
$LN1@SetSizeInt:

; 698  : 
; 699  :         m_pData = pDataNew;

	mov	eax, DWORD PTR _this$[ebp]
	mov	ecx, DWORD PTR _pDataNew$1[ebp]
	mov	DWORD PTR [eax], ecx

; 700  :         m_nMaxSize = nNewMaxSize;

	mov	eax, DWORD PTR _this$[ebp]
	mov	ecx, DWORD PTR _nNewMaxSize$[ebp]
	mov	DWORD PTR [eax+8], ecx
$LN4@SetSizeInt:

; 701  :     }
; 702  : 
; 703  :     return S_OK;

	xor	eax, eax
$LN8@SetSizeInt:

; 704  : }

	pop	edi
	pop	esi
	pop	ebx
	add	esp, 232				; 000000e8H
	cmp	ebp, esp
	call	__RTC_CheckEsp
	mov	esp, ebp
	pop	ebp
	ret	4
?SetSizeInternal@?$CGrowableArray@K@@IAEJH@Z ENDP	; CGrowableArray<unsigned long>::SetSizeInternal
_TEXT	ENDS
; Function compile flags: /Odtp /RTCsu /ZI
; File z:\sampsrc\02xu1\saco\d3d9\common\dxutmisc.h
;	COMDAT ?RemoveAll@?$CGrowableArray@K@@QAEXXZ
_TEXT	SEGMENT
_this$ = -8						; size = 4
?RemoveAll@?$CGrowableArray@K@@QAEXXZ PROC		; CGrowableArray<unsigned long>::RemoveAll, COMDAT
; _this$ = ecx

; 47   :     void    RemoveAll() { SetSize(0); }

	push	ebp
	mov	ebp, esp
	sub	esp, 204				; 000000ccH
	push	ebx
	push	esi
	push	edi
	push	ecx
	lea	edi, DWORD PTR [ebp-204]
	mov	ecx, 51					; 00000033H
	mov	eax, -858993460				; ccccccccH
	rep stosd
	pop	ecx
	mov	DWORD PTR _this$[ebp], ecx
	push	0
	mov	ecx, DWORD PTR _this$[ebp]
	call	?SetSize@?$CGrowableArray@K@@QAEJH@Z	; CGrowableArray<unsigned long>::SetSize
	pop	edi
	pop	esi
	pop	ebx
	add	esp, 204				; 000000ccH
	cmp	ebp, esp
	call	__RTC_CheckEsp
	mov	esp, ebp
	pop	ebp
	ret	0
?RemoveAll@?$CGrowableArray@K@@QAEXXZ ENDP		; CGrowableArray<unsigned long>::RemoveAll
_TEXT	ENDS
; Function compile flags: /Odtp /RTCsu /ZI
; File z:\sampsrc\02xu1\saco\d3d9\common\dxutmisc.h
;	COMDAT ?Add@?$CGrowableArray@K@@QAEJABK@Z
_TEXT	SEGMENT
$T1 = -224						; size = 4
_hr$ = -20						; size = 4
_this$ = -8						; size = 4
_value$ = 8						; size = 4
?Add@?$CGrowableArray@K@@QAEJABK@Z PROC			; CGrowableArray<unsigned long>::Add, COMDAT
; _this$ = ecx

; 740  : {

	push	ebp
	mov	ebp, esp
	sub	esp, 228				; 000000e4H
	push	ebx
	push	esi
	push	edi
	push	ecx
	lea	edi, DWORD PTR [ebp-228]
	mov	ecx, 57					; 00000039H
	mov	eax, -858993460				; ccccccccH
	rep stosd
	pop	ecx
	mov	DWORD PTR _this$[ebp], ecx

; 741  :     HRESULT hr;
; 742  :     if( FAILED( hr = SetSizeInternal( m_nSize + 1 ) ) )

	mov	eax, DWORD PTR _this$[ebp]
	mov	ecx, DWORD PTR [eax+4]
	add	ecx, 1
	push	ecx
	mov	ecx, DWORD PTR _this$[ebp]
	call	?SetSizeInternal@?$CGrowableArray@K@@IAEJH@Z ; CGrowableArray<unsigned long>::SetSizeInternal
	mov	DWORD PTR _hr$[ebp], eax
	cmp	DWORD PTR _hr$[ebp], 0
	jge	SHORT $LN1@Add

; 743  :         return hr;

	mov	eax, DWORD PTR _hr$[ebp]
	jmp	SHORT $LN2@Add
$LN1@Add:

; 744  : 
; 745  :     // Construct the new element
; 746  :     ::new (&m_pData[m_nSize]) TYPE;

	mov	eax, DWORD PTR _this$[ebp]
	mov	ecx, DWORD PTR [eax+4]
	mov	edx, DWORD PTR _this$[ebp]
	mov	eax, DWORD PTR [edx]
	lea	ecx, DWORD PTR [eax+ecx*4]
	push	ecx
	push	4
	call	??2@YAPAXIPAX@Z				; operator new
	add	esp, 8
	mov	DWORD PTR $T1[ebp], eax

; 747  : 
; 748  :     // Assign
; 749  :     m_pData[m_nSize] = value;

	mov	eax, DWORD PTR _this$[ebp]
	mov	ecx, DWORD PTR [eax+4]
	mov	edx, DWORD PTR _this$[ebp]
	mov	eax, DWORD PTR [edx]
	mov	edx, DWORD PTR _value$[ebp]
	mov	edx, DWORD PTR [edx]
	mov	DWORD PTR [eax+ecx*4], edx

; 750  :     ++m_nSize;

	mov	eax, DWORD PTR _this$[ebp]
	mov	ecx, DWORD PTR [eax+4]
	add	ecx, 1
	mov	edx, DWORD PTR _this$[ebp]
	mov	DWORD PTR [edx+4], ecx

; 751  : 
; 752  :     return S_OK;

	xor	eax, eax
$LN2@Add:

; 753  : }

	pop	edi
	pop	esi
	pop	ebx
	add	esp, 228				; 000000e4H
	cmp	ebp, esp
	call	__RTC_CheckEsp
	mov	esp, ebp
	pop	ebp
	ret	4
?Add@?$CGrowableArray@K@@QAEJABK@Z ENDP			; CGrowableArray<unsigned long>::Add
_TEXT	ENDS
; Function compile flags: /Odtp /RTCsu /ZI
; File z:\sampsrc\02xu1\saco\d3d9\common\dxutmisc.h
;	COMDAT ?SetSize@?$CGrowableArray@K@@QAEJH@Z
_TEXT	SEGMENT
$T1 = -260						; size = 4
_i$2 = -56						; size = 4
_hr$ = -44						; size = 4
_i$3 = -32						; size = 4
_nOldSize$ = -20					; size = 4
_this$ = -8						; size = 4
_nNewMaxSize$ = 8					; size = 4
?SetSize@?$CGrowableArray@K@@QAEJH@Z PROC		; CGrowableArray<unsigned long>::SetSize, COMDAT
; _this$ = ecx

; 710  : {

	push	ebp
	mov	ebp, esp
	sub	esp, 264				; 00000108H
	push	ebx
	push	esi
	push	edi
	push	ecx
	lea	edi, DWORD PTR [ebp-264]
	mov	ecx, 66					; 00000042H
	mov	eax, -858993460				; ccccccccH
	rep stosd
	pop	ecx
	mov	DWORD PTR _this$[ebp], ecx

; 711  :     int nOldSize = m_nSize;

	mov	eax, DWORD PTR _this$[ebp]
	mov	ecx, DWORD PTR [eax+4]
	mov	DWORD PTR _nOldSize$[ebp], ecx

; 712  : 
; 713  :     if( nOldSize > nNewMaxSize )

	mov	eax, DWORD PTR _nOldSize$[ebp]
	cmp	eax, DWORD PTR _nNewMaxSize$[ebp]
	jle	SHORT $LN8@SetSize

; 714  :     {
; 715  :         // Removing elements. Call dtor.
; 716  : 
; 717  :         for( int i = nNewMaxSize; i < nOldSize; ++i )

	mov	eax, DWORD PTR _nNewMaxSize$[ebp]
	mov	DWORD PTR _i$3[ebp], eax
	jmp	SHORT $LN7@SetSize
$LN6@SetSize:
	mov	eax, DWORD PTR _i$3[ebp]
	add	eax, 1
	mov	DWORD PTR _i$3[ebp], eax
$LN7@SetSize:
	mov	eax, DWORD PTR _i$3[ebp]
	cmp	eax, DWORD PTR _nOldSize$[ebp]
	jge	SHORT $LN8@SetSize

; 718  :             m_pData[i].~TYPE();

	jmp	SHORT $LN6@SetSize
$LN8@SetSize:

; 719  :     }
; 720  : 
; 721  :     // Adjust buffer.  Note that there's no need to check for error
; 722  :     // since if it happens, nOldSize == nNewMaxSize will be true.)
; 723  :     HRESULT hr = SetSizeInternal( nNewMaxSize );

	mov	eax, DWORD PTR _nNewMaxSize$[ebp]
	push	eax
	mov	ecx, DWORD PTR _this$[ebp]
	call	?SetSizeInternal@?$CGrowableArray@K@@IAEJH@Z ; CGrowableArray<unsigned long>::SetSizeInternal
	mov	DWORD PTR _hr$[ebp], eax

; 724  : 
; 725  :     if( nOldSize < nNewMaxSize )

	mov	eax, DWORD PTR _nOldSize$[ebp]
	cmp	eax, DWORD PTR _nNewMaxSize$[ebp]
	jge	SHORT $LN4@SetSize

; 726  :     {
; 727  :         // Adding elements. Call ctor.
; 728  : 
; 729  :         for( int i = nOldSize; i < nNewMaxSize; ++i )

	mov	eax, DWORD PTR _nOldSize$[ebp]
	mov	DWORD PTR _i$2[ebp], eax
	jmp	SHORT $LN3@SetSize
$LN2@SetSize:
	mov	eax, DWORD PTR _i$2[ebp]
	add	eax, 1
	mov	DWORD PTR _i$2[ebp], eax
$LN3@SetSize:
	mov	eax, DWORD PTR _i$2[ebp]
	cmp	eax, DWORD PTR _nNewMaxSize$[ebp]
	jge	SHORT $LN4@SetSize

; 730  :             ::new (&m_pData[i]) TYPE;

	mov	eax, DWORD PTR _this$[ebp]
	mov	ecx, DWORD PTR [eax]
	mov	edx, DWORD PTR _i$2[ebp]
	lea	eax, DWORD PTR [ecx+edx*4]
	push	eax
	push	4
	call	??2@YAPAXIPAX@Z				; operator new
	add	esp, 8
	mov	DWORD PTR $T1[ebp], eax
	jmp	SHORT $LN2@SetSize
$LN4@SetSize:

; 731  :     }
; 732  : 
; 733  :     return hr;

	mov	eax, DWORD PTR _hr$[ebp]

; 734  : }

	pop	edi
	pop	esi
	pop	ebx
	add	esp, 264				; 00000108H
	cmp	ebp, esp
	call	__RTC_CheckEsp
	mov	esp, ebp
	pop	ebp
	ret	4
?SetSize@?$CGrowableArray@K@@QAEJH@Z ENDP		; CGrowableArray<unsigned long>::SetSize
_TEXT	ENDS
; Function compile flags: /Odtp /RTCsu /ZI
; File z:\sampsrc\02xu1\saco\d3d9\common\dxutmisc.h
;	COMDAT ??1?$CGrowableArray@K@@QAE@XZ
_TEXT	SEGMENT
_this$ = -8						; size = 4
??1?$CGrowableArray@K@@QAE@XZ PROC			; CGrowableArray<unsigned long>::~CGrowableArray<unsigned long>, COMDAT
; _this$ = ecx

; 22   :     ~CGrowableArray() { RemoveAll(); }

	push	ebp
	mov	ebp, esp
	sub	esp, 204				; 000000ccH
	push	ebx
	push	esi
	push	edi
	push	ecx
	lea	edi, DWORD PTR [ebp-204]
	mov	ecx, 51					; 00000033H
	mov	eax, -858993460				; ccccccccH
	rep stosd
	pop	ecx
	mov	DWORD PTR _this$[ebp], ecx
	mov	ecx, DWORD PTR _this$[ebp]
	call	?RemoveAll@?$CGrowableArray@K@@QAEXXZ	; CGrowableArray<unsigned long>::RemoveAll
	pop	edi
	pop	esi
	pop	ebx
	add	esp, 204				; 000000ccH
	cmp	ebp, esp
	call	__RTC_CheckEsp
	mov	esp, ebp
	pop	ebp
	ret	0
??1?$CGrowableArray@K@@QAE@XZ ENDP			; CGrowableArray<unsigned long>::~CGrowableArray<unsigned long>
_TEXT	ENDS
; Function compile flags: /Odtp /RTCsu /ZI
; File z:\sampsrc\02xu1\saco\d3d9\common\dxutmisc.h
;	COMDAT ??0?$CGrowableArray@K@@QAE@XZ
_TEXT	SEGMENT
_this$ = -8						; size = 4
??0?$CGrowableArray@K@@QAE@XZ PROC			; CGrowableArray<unsigned long>::CGrowableArray<unsigned long>, COMDAT
; _this$ = ecx

; 20   :     CGrowableArray()  { m_pData = NULL; m_nSize = 0; m_nMaxSize = 0; }

	push	ebp
	mov	ebp, esp
	sub	esp, 204				; 000000ccH
	push	ebx
	push	esi
	push	edi
	push	ecx
	lea	edi, DWORD PTR [ebp-204]
	mov	ecx, 51					; 00000033H
	mov	eax, -858993460				; ccccccccH
	rep stosd
	pop	ecx
	mov	DWORD PTR _this$[ebp], ecx
	mov	eax, DWORD PTR _this$[ebp]
	mov	DWORD PTR [eax], 0
	mov	eax, DWORD PTR _this$[ebp]
	mov	DWORD PTR [eax+4], 0
	mov	eax, DWORD PTR _this$[ebp]
	mov	DWORD PTR [eax+8], 0
	mov	eax, DWORD PTR _this$[ebp]
	pop	edi
	pop	esi
	pop	ebx
	mov	esp, ebp
	pop	ebp
	ret	0
??0?$CGrowableArray@K@@QAE@XZ ENDP			; CGrowableArray<unsigned long>::CGrowableArray<unsigned long>
_TEXT	ENDS
; Function compile flags: /Odtp /RTCsu /ZI
;	COMDAT ??_GCD3DEnumDeviceInfo@@QAEPAXI@Z
_TEXT	SEGMENT
_this$ = -8						; size = 4
___flags$ = 8						; size = 4
??_GCD3DEnumDeviceInfo@@QAEPAXI@Z PROC			; CD3DEnumDeviceInfo::`scalar deleting destructor', COMDAT
; _this$ = ecx
	push	ebp
	mov	ebp, esp
	sub	esp, 204				; 000000ccH
	push	ebx
	push	esi
	push	edi
	push	ecx
	lea	edi, DWORD PTR [ebp-204]
	mov	ecx, 51					; 00000033H
	mov	eax, -858993460				; ccccccccH
	rep stosd
	pop	ecx
	mov	DWORD PTR _this$[ebp], ecx
	mov	ecx, DWORD PTR _this$[ebp]
	call	??1CD3DEnumDeviceInfo@@QAE@XZ		; CD3DEnumDeviceInfo::~CD3DEnumDeviceInfo
	mov	eax, DWORD PTR ___flags$[ebp]
	and	eax, 1
	je	SHORT $LN1@scalar
	mov	eax, DWORD PTR _this$[ebp]
	push	eax
	call	??3@YAXPAX@Z				; operator delete
	add	esp, 4
$LN1@scalar:
	mov	eax, DWORD PTR _this$[ebp]
	pop	edi
	pop	esi
	pop	ebx
	add	esp, 204				; 000000ccH
	cmp	ebp, esp
	call	__RTC_CheckEsp
	mov	esp, ebp
	pop	ebp
	ret	4
??_GCD3DEnumDeviceInfo@@QAEPAXI@Z ENDP			; CD3DEnumDeviceInfo::`scalar deleting destructor'
_TEXT	ENDS
; Function compile flags: /Odtp /RTCsu /ZI
;	COMDAT ??0CD3DEnumDeviceInfo@@QAE@XZ
_TEXT	SEGMENT
_this$ = -8						; size = 4
??0CD3DEnumDeviceInfo@@QAE@XZ PROC			; CD3DEnumDeviceInfo::CD3DEnumDeviceInfo, COMDAT
; _this$ = ecx
	push	ebp
	mov	ebp, esp
	sub	esp, 204				; 000000ccH
	push	ebx
	push	esi
	push	edi
	push	ecx
	lea	edi, DWORD PTR [ebp-204]
	mov	ecx, 51					; 00000033H
	mov	eax, -858993460				; ccccccccH
	rep stosd
	pop	ecx
	mov	DWORD PTR _this$[ebp], ecx
	mov	ecx, DWORD PTR _this$[ebp]
	add	ecx, 312				; 00000138H
	call	??0?$CGrowableArray@PAUCD3DEnumDeviceSettingsCombo@@@@QAE@XZ ; CGrowableArray<CD3DEnumDeviceSettingsCombo *>::CGrowableArray<CD3DEnumDeviceSettingsCombo *>
	mov	eax, DWORD PTR _this$[ebp]
	pop	edi
	pop	esi
	pop	ebx
	add	esp, 204				; 000000ccH
	cmp	ebp, esp
	call	__RTC_CheckEsp
	mov	esp, ebp
	pop	ebp
	ret	0
??0CD3DEnumDeviceInfo@@QAE@XZ ENDP			; CD3DEnumDeviceInfo::CD3DEnumDeviceInfo
_TEXT	ENDS
; Function compile flags: /Odtp /RTCsu /ZI
; File z:\sampsrc\02xu1\saco\d3d9\common\dxutmisc.h
;	COMDAT ?SetSizeInternal@?$CGrowableArray@PAUCD3DEnumDeviceSettingsCombo@@@@IAEJH@Z
_TEXT	SEGMENT
tv91 = -232						; size = 4
tv85 = -232						; size = 4
_pDataNew$1 = -32					; size = 4
_nGrowBy$2 = -20					; size = 4
_this$ = -8						; size = 4
_nNewMaxSize$ = 8					; size = 4
?SetSizeInternal@?$CGrowableArray@PAUCD3DEnumDeviceSettingsCombo@@@@IAEJH@Z PROC ; CGrowableArray<CD3DEnumDeviceSettingsCombo *>::SetSizeInternal, COMDAT
; _this$ = ecx

; 670  : {

	push	ebp
	mov	ebp, esp
	sub	esp, 232				; 000000e8H
	push	ebx
	push	esi
	push	edi
	push	ecx
	lea	edi, DWORD PTR [ebp-232]
	mov	ecx, 58					; 0000003aH
	mov	eax, -858993460				; ccccccccH
	rep stosd
	pop	ecx
	mov	DWORD PTR _this$[ebp], ecx

; 671  :     if( nNewMaxSize < 0 )

	cmp	DWORD PTR _nNewMaxSize$[ebp], 0
	jge	SHORT $LN7@SetSizeInt

; 672  :     {
; 673  :         assert( false );

	xor	eax, eax
	jne	SHORT $LN10@SetSizeInt
	push	673					; 000002a1H
	push	OFFSET ??_C@_1FK@FIMIDMPE@?$AAz?$AA?3?$AA?2?$AAs?$AAa?$AAm?$AAp?$AAs?$AAr?$AAc?$AA?2?$AA0?$AA2?$AAx?$AAu?$AA1?$AA?2?$AAs?$AAa?$AAc?$AAo?$AA?2?$AAd?$AA3?$AAd?$AA9?$AA?2?$AAc?$AAo?$AAm?$AAm?$AAo@
	push	OFFSET ??_C@_1M@HLGKFCJM@?$AAf?$AAa?$AAl?$AAs?$AAe?$AA?$AA@
	call	__wassert
	add	esp, 12					; 0000000cH
$LN10@SetSizeInt:

; 674  :         return E_INVALIDARG;

	mov	eax, -2147024809			; 80070057H
	jmp	$LN8@SetSizeInt
$LN7@SetSizeInt:

; 675  :     }
; 676  : 
; 677  :     if( nNewMaxSize == 0 )

	cmp	DWORD PTR _nNewMaxSize$[ebp], 0
	jne	SHORT $LN6@SetSizeInt

; 678  :     {
; 679  :         // Shrink to 0 size & cleanup
; 680  :         if( m_pData )

	mov	eax, DWORD PTR _this$[ebp]
	cmp	DWORD PTR [eax], 0
	je	SHORT $LN5@SetSizeInt

; 681  :         {
; 682  :             free( m_pData );

	mov	eax, DWORD PTR _this$[ebp]
	mov	ecx, DWORD PTR [eax]
	push	ecx
	call	_free
	add	esp, 4

; 683  :             m_pData = NULL;

	mov	eax, DWORD PTR _this$[ebp]
	mov	DWORD PTR [eax], 0
$LN5@SetSizeInt:

; 684  :         }
; 685  : 
; 686  :         m_nMaxSize = 0;

	mov	eax, DWORD PTR _this$[ebp]
	mov	DWORD PTR [eax+8], 0

; 687  :         m_nSize = 0;

	mov	eax, DWORD PTR _this$[ebp]
	mov	DWORD PTR [eax+4], 0
	jmp	$LN4@SetSizeInt
$LN6@SetSizeInt:

; 688  :     }
; 689  :     else if( m_pData == NULL || nNewMaxSize > m_nMaxSize )

	mov	eax, DWORD PTR _this$[ebp]
	cmp	DWORD PTR [eax], 0
	je	SHORT $LN2@SetSizeInt
	mov	eax, DWORD PTR _this$[ebp]
	mov	ecx, DWORD PTR _nNewMaxSize$[ebp]
	cmp	ecx, DWORD PTR [eax+8]
	jle	$LN4@SetSizeInt
$LN2@SetSizeInt:

; 690  :     {
; 691  :         // Grow array
; 692  :         int nGrowBy = ( m_nMaxSize == 0 ) ? 16 : m_nMaxSize;

	mov	eax, DWORD PTR _this$[ebp]
	cmp	DWORD PTR [eax+8], 0
	jne	SHORT $LN11@SetSizeInt
	mov	DWORD PTR tv85[ebp], 16			; 00000010H
	jmp	SHORT $LN12@SetSizeInt
$LN11@SetSizeInt:
	mov	ecx, DWORD PTR _this$[ebp]
	mov	edx, DWORD PTR [ecx+8]
	mov	DWORD PTR tv85[ebp], edx
$LN12@SetSizeInt:
	mov	eax, DWORD PTR tv85[ebp]
	mov	DWORD PTR _nGrowBy$2[ebp], eax

; 693  :         nNewMaxSize = __max( nNewMaxSize, m_nMaxSize + nGrowBy );

	mov	eax, DWORD PTR _this$[ebp]
	mov	ecx, DWORD PTR [eax+8]
	add	ecx, DWORD PTR _nGrowBy$2[ebp]
	cmp	DWORD PTR _nNewMaxSize$[ebp], ecx
	jle	SHORT $LN13@SetSizeInt
	mov	edx, DWORD PTR _nNewMaxSize$[ebp]
	mov	DWORD PTR tv91[ebp], edx
	jmp	SHORT $LN14@SetSizeInt
$LN13@SetSizeInt:
	mov	eax, DWORD PTR _this$[ebp]
	mov	ecx, DWORD PTR [eax+8]
	add	ecx, DWORD PTR _nGrowBy$2[ebp]
	mov	DWORD PTR tv91[ebp], ecx
$LN14@SetSizeInt:
	mov	edx, DWORD PTR tv91[ebp]
	mov	DWORD PTR _nNewMaxSize$[ebp], edx

; 694  : 
; 695  :         TYPE* pDataNew = (TYPE*) realloc( m_pData, nNewMaxSize * sizeof(TYPE) );

	mov	eax, DWORD PTR _nNewMaxSize$[ebp]
	shl	eax, 2
	push	eax
	mov	ecx, DWORD PTR _this$[ebp]
	mov	edx, DWORD PTR [ecx]
	push	edx
	call	_realloc
	add	esp, 8
	mov	DWORD PTR _pDataNew$1[ebp], eax

; 696  :         if( pDataNew == NULL )

	cmp	DWORD PTR _pDataNew$1[ebp], 0
	jne	SHORT $LN1@SetSizeInt

; 697  :             return E_OUTOFMEMORY;

	mov	eax, -2147024882			; 8007000eH
	jmp	SHORT $LN8@SetSizeInt
$LN1@SetSizeInt:

; 698  : 
; 699  :         m_pData = pDataNew;

	mov	eax, DWORD PTR _this$[ebp]
	mov	ecx, DWORD PTR _pDataNew$1[ebp]
	mov	DWORD PTR [eax], ecx

; 700  :         m_nMaxSize = nNewMaxSize;

	mov	eax, DWORD PTR _this$[ebp]
	mov	ecx, DWORD PTR _nNewMaxSize$[ebp]
	mov	DWORD PTR [eax+8], ecx
$LN4@SetSizeInt:

; 701  :     }
; 702  : 
; 703  :     return S_OK;

	xor	eax, eax
$LN8@SetSizeInt:

; 704  : }

	pop	edi
	pop	esi
	pop	ebx
	add	esp, 232				; 000000e8H
	cmp	ebp, esp
	call	__RTC_CheckEsp
	mov	esp, ebp
	pop	ebp
	ret	4
?SetSizeInternal@?$CGrowableArray@PAUCD3DEnumDeviceSettingsCombo@@@@IAEJH@Z ENDP ; CGrowableArray<CD3DEnumDeviceSettingsCombo *>::SetSizeInternal
_TEXT	ENDS
; Function compile flags: /Odtp /RTCsu /ZI
; File z:\sampsrc\02xu1\saco\d3d9\common\dxutmisc.h
;	COMDAT ?RemoveAll@?$CGrowableArray@PAUCD3DEnumDeviceSettingsCombo@@@@QAEXXZ
_TEXT	SEGMENT
_this$ = -8						; size = 4
?RemoveAll@?$CGrowableArray@PAUCD3DEnumDeviceSettingsCombo@@@@QAEXXZ PROC ; CGrowableArray<CD3DEnumDeviceSettingsCombo *>::RemoveAll, COMDAT
; _this$ = ecx

; 47   :     void    RemoveAll() { SetSize(0); }

	push	ebp
	mov	ebp, esp
	sub	esp, 204				; 000000ccH
	push	ebx
	push	esi
	push	edi
	push	ecx
	lea	edi, DWORD PTR [ebp-204]
	mov	ecx, 51					; 00000033H
	mov	eax, -858993460				; ccccccccH
	rep stosd
	pop	ecx
	mov	DWORD PTR _this$[ebp], ecx
	push	0
	mov	ecx, DWORD PTR _this$[ebp]
	call	?SetSize@?$CGrowableArray@PAUCD3DEnumDeviceSettingsCombo@@@@QAEJH@Z ; CGrowableArray<CD3DEnumDeviceSettingsCombo *>::SetSize
	pop	edi
	pop	esi
	pop	ebx
	add	esp, 204				; 000000ccH
	cmp	ebp, esp
	call	__RTC_CheckEsp
	mov	esp, ebp
	pop	ebp
	ret	0
?RemoveAll@?$CGrowableArray@PAUCD3DEnumDeviceSettingsCombo@@@@QAEXXZ ENDP ; CGrowableArray<CD3DEnumDeviceSettingsCombo *>::RemoveAll
_TEXT	ENDS
; Function compile flags: /Odtp /RTCsu /ZI
; File z:\sampsrc\02xu1\saco\d3d9\common\dxutmisc.h
;	COMDAT ?GetSize@?$CGrowableArray@PAUCD3DEnumDeviceSettingsCombo@@@@QBEHXZ
_TEXT	SEGMENT
_this$ = -8						; size = 4
?GetSize@?$CGrowableArray@PAUCD3DEnumDeviceSettingsCombo@@@@QBEHXZ PROC ; CGrowableArray<CD3DEnumDeviceSettingsCombo *>::GetSize, COMDAT
; _this$ = ecx

; 34   :     int     GetSize() const { return m_nSize; }

	push	ebp
	mov	ebp, esp
	sub	esp, 204				; 000000ccH
	push	ebx
	push	esi
	push	edi
	push	ecx
	lea	edi, DWORD PTR [ebp-204]
	mov	ecx, 51					; 00000033H
	mov	eax, -858993460				; ccccccccH
	rep stosd
	pop	ecx
	mov	DWORD PTR _this$[ebp], ecx
	mov	eax, DWORD PTR _this$[ebp]
	mov	eax, DWORD PTR [eax+4]
	pop	edi
	pop	esi
	pop	ebx
	mov	esp, ebp
	pop	ebp
	ret	0
?GetSize@?$CGrowableArray@PAUCD3DEnumDeviceSettingsCombo@@@@QBEHXZ ENDP ; CGrowableArray<CD3DEnumDeviceSettingsCombo *>::GetSize
_TEXT	ENDS
; Function compile flags: /Odtp /RTCsu /ZI
; File z:\sampsrc\02xu1\saco\d3d9\common\dxutmisc.h
;	COMDAT ?GetAt@?$CGrowableArray@PAUCD3DEnumDeviceSettingsCombo@@@@QAEAAPAUCD3DEnumDeviceSettingsCombo@@H@Z
_TEXT	SEGMENT
_this$ = -8						; size = 4
_nIndex$ = 8						; size = 4
?GetAt@?$CGrowableArray@PAUCD3DEnumDeviceSettingsCombo@@@@QAEAAPAUCD3DEnumDeviceSettingsCombo@@H@Z PROC ; CGrowableArray<CD3DEnumDeviceSettingsCombo *>::GetAt, COMDAT
; _this$ = ecx

; 33   :     TYPE&   GetAt( int nIndex ) { assert( nIndex >= 0 && nIndex < m_nSize ); return m_pData[nIndex]; }

	push	ebp
	mov	ebp, esp
	sub	esp, 204				; 000000ccH
	push	ebx
	push	esi
	push	edi
	push	ecx
	lea	edi, DWORD PTR [ebp-204]
	mov	ecx, 51					; 00000033H
	mov	eax, -858993460				; ccccccccH
	rep stosd
	pop	ecx
	mov	DWORD PTR _this$[ebp], ecx
	cmp	DWORD PTR _nIndex$[ebp], 0
	jl	SHORT $LN3@GetAt
	mov	eax, DWORD PTR _this$[ebp]
	mov	ecx, DWORD PTR _nIndex$[ebp]
	cmp	ecx, DWORD PTR [eax+4]
	jl	SHORT $LN4@GetAt
$LN3@GetAt:
	push	33					; 00000021H
	push	OFFSET ??_C@_1FK@FIMIDMPE@?$AAz?$AA?3?$AA?2?$AAs?$AAa?$AAm?$AAp?$AAs?$AAr?$AAc?$AA?2?$AA0?$AA2?$AAx?$AAu?$AA1?$AA?2?$AAs?$AAa?$AAc?$AAo?$AA?2?$AAd?$AA3?$AAd?$AA9?$AA?2?$AAc?$AAo?$AAm?$AAm?$AAo@
	push	OFFSET ??_C@_1EA@JHMKKLFC@?$AAn?$AAI?$AAn?$AAd?$AAe?$AAx?$AA?5?$AA?$DO?$AA?$DN?$AA?5?$AA0?$AA?5?$AA?$CG?$AA?$CG?$AA?5?$AAn?$AAI?$AAn?$AAd?$AAe?$AAx?$AA?5?$AA?$DM?$AA?5?$AAm?$AA_?$AAn?$AAS?$AAi?$AAz?$AAe?$AA?$AA@
	call	__wassert
	add	esp, 12					; 0000000cH
$LN4@GetAt:
	mov	eax, DWORD PTR _this$[ebp]
	mov	ecx, DWORD PTR [eax]
	mov	edx, DWORD PTR _nIndex$[ebp]
	lea	eax, DWORD PTR [ecx+edx*4]
	pop	edi
	pop	esi
	pop	ebx
	add	esp, 204				; 000000ccH
	cmp	ebp, esp
	call	__RTC_CheckEsp
	mov	esp, ebp
	pop	ebp
	ret	4
?GetAt@?$CGrowableArray@PAUCD3DEnumDeviceSettingsCombo@@@@QAEAAPAUCD3DEnumDeviceSettingsCombo@@H@Z ENDP ; CGrowableArray<CD3DEnumDeviceSettingsCombo *>::GetAt
_TEXT	ENDS
; Function compile flags: /Odtp /RTCsu /ZI
; File z:\sampsrc\02xu1\saco\d3d9\common\dxutmisc.h
;	COMDAT ?Add@?$CGrowableArray@PAUCD3DEnumDeviceSettingsCombo@@@@QAEJABQAUCD3DEnumDeviceSettingsCombo@@@Z
_TEXT	SEGMENT
$T1 = -224						; size = 4
_hr$ = -20						; size = 4
_this$ = -8						; size = 4
_value$ = 8						; size = 4
?Add@?$CGrowableArray@PAUCD3DEnumDeviceSettingsCombo@@@@QAEJABQAUCD3DEnumDeviceSettingsCombo@@@Z PROC ; CGrowableArray<CD3DEnumDeviceSettingsCombo *>::Add, COMDAT
; _this$ = ecx

; 740  : {

	push	ebp
	mov	ebp, esp
	sub	esp, 228				; 000000e4H
	push	ebx
	push	esi
	push	edi
	push	ecx
	lea	edi, DWORD PTR [ebp-228]
	mov	ecx, 57					; 00000039H
	mov	eax, -858993460				; ccccccccH
	rep stosd
	pop	ecx
	mov	DWORD PTR _this$[ebp], ecx

; 741  :     HRESULT hr;
; 742  :     if( FAILED( hr = SetSizeInternal( m_nSize + 1 ) ) )

	mov	eax, DWORD PTR _this$[ebp]
	mov	ecx, DWORD PTR [eax+4]
	add	ecx, 1
	push	ecx
	mov	ecx, DWORD PTR _this$[ebp]
	call	?SetSizeInternal@?$CGrowableArray@PAUCD3DEnumDeviceSettingsCombo@@@@IAEJH@Z ; CGrowableArray<CD3DEnumDeviceSettingsCombo *>::SetSizeInternal
	mov	DWORD PTR _hr$[ebp], eax
	cmp	DWORD PTR _hr$[ebp], 0
	jge	SHORT $LN1@Add

; 743  :         return hr;

	mov	eax, DWORD PTR _hr$[ebp]
	jmp	SHORT $LN2@Add
$LN1@Add:

; 744  : 
; 745  :     // Construct the new element
; 746  :     ::new (&m_pData[m_nSize]) TYPE;

	mov	eax, DWORD PTR _this$[ebp]
	mov	ecx, DWORD PTR [eax+4]
	mov	edx, DWORD PTR _this$[ebp]
	mov	eax, DWORD PTR [edx]
	lea	ecx, DWORD PTR [eax+ecx*4]
	push	ecx
	push	4
	call	??2@YAPAXIPAX@Z				; operator new
	add	esp, 8
	mov	DWORD PTR $T1[ebp], eax

; 747  : 
; 748  :     // Assign
; 749  :     m_pData[m_nSize] = value;

	mov	eax, DWORD PTR _this$[ebp]
	mov	ecx, DWORD PTR [eax+4]
	mov	edx, DWORD PTR _this$[ebp]
	mov	eax, DWORD PTR [edx]
	mov	edx, DWORD PTR _value$[ebp]
	mov	edx, DWORD PTR [edx]
	mov	DWORD PTR [eax+ecx*4], edx

; 750  :     ++m_nSize;

	mov	eax, DWORD PTR _this$[ebp]
	mov	ecx, DWORD PTR [eax+4]
	add	ecx, 1
	mov	edx, DWORD PTR _this$[ebp]
	mov	DWORD PTR [edx+4], ecx

; 751  : 
; 752  :     return S_OK;

	xor	eax, eax
$LN2@Add:

; 753  : }

	pop	edi
	pop	esi
	pop	ebx
	add	esp, 228				; 000000e4H
	cmp	ebp, esp
	call	__RTC_CheckEsp
	mov	esp, ebp
	pop	ebp
	ret	4
?Add@?$CGrowableArray@PAUCD3DEnumDeviceSettingsCombo@@@@QAEJABQAUCD3DEnumDeviceSettingsCombo@@@Z ENDP ; CGrowableArray<CD3DEnumDeviceSettingsCombo *>::Add
_TEXT	ENDS
; Function compile flags: /Odtp /RTCsu /ZI
; File z:\sampsrc\02xu1\saco\d3d9\common\dxutmisc.h
;	COMDAT ?SetSize@?$CGrowableArray@PAUCD3DEnumDeviceSettingsCombo@@@@QAEJH@Z
_TEXT	SEGMENT
$T1 = -260						; size = 4
_i$2 = -56						; size = 4
_hr$ = -44						; size = 4
_i$3 = -32						; size = 4
_nOldSize$ = -20					; size = 4
_this$ = -8						; size = 4
_nNewMaxSize$ = 8					; size = 4
?SetSize@?$CGrowableArray@PAUCD3DEnumDeviceSettingsCombo@@@@QAEJH@Z PROC ; CGrowableArray<CD3DEnumDeviceSettingsCombo *>::SetSize, COMDAT
; _this$ = ecx

; 710  : {

	push	ebp
	mov	ebp, esp
	sub	esp, 264				; 00000108H
	push	ebx
	push	esi
	push	edi
	push	ecx
	lea	edi, DWORD PTR [ebp-264]
	mov	ecx, 66					; 00000042H
	mov	eax, -858993460				; ccccccccH
	rep stosd
	pop	ecx
	mov	DWORD PTR _this$[ebp], ecx

; 711  :     int nOldSize = m_nSize;

	mov	eax, DWORD PTR _this$[ebp]
	mov	ecx, DWORD PTR [eax+4]
	mov	DWORD PTR _nOldSize$[ebp], ecx

; 712  : 
; 713  :     if( nOldSize > nNewMaxSize )

	mov	eax, DWORD PTR _nOldSize$[ebp]
	cmp	eax, DWORD PTR _nNewMaxSize$[ebp]
	jle	SHORT $LN8@SetSize

; 714  :     {
; 715  :         // Removing elements. Call dtor.
; 716  : 
; 717  :         for( int i = nNewMaxSize; i < nOldSize; ++i )

	mov	eax, DWORD PTR _nNewMaxSize$[ebp]
	mov	DWORD PTR _i$3[ebp], eax
	jmp	SHORT $LN7@SetSize
$LN6@SetSize:
	mov	eax, DWORD PTR _i$3[ebp]
	add	eax, 1
	mov	DWORD PTR _i$3[ebp], eax
$LN7@SetSize:
	mov	eax, DWORD PTR _i$3[ebp]
	cmp	eax, DWORD PTR _nOldSize$[ebp]
	jge	SHORT $LN8@SetSize

; 718  :             m_pData[i].~TYPE();

	jmp	SHORT $LN6@SetSize
$LN8@SetSize:

; 719  :     }
; 720  : 
; 721  :     // Adjust buffer.  Note that there's no need to check for error
; 722  :     // since if it happens, nOldSize == nNewMaxSize will be true.)
; 723  :     HRESULT hr = SetSizeInternal( nNewMaxSize );

	mov	eax, DWORD PTR _nNewMaxSize$[ebp]
	push	eax
	mov	ecx, DWORD PTR _this$[ebp]
	call	?SetSizeInternal@?$CGrowableArray@PAUCD3DEnumDeviceSettingsCombo@@@@IAEJH@Z ; CGrowableArray<CD3DEnumDeviceSettingsCombo *>::SetSizeInternal
	mov	DWORD PTR _hr$[ebp], eax

; 724  : 
; 725  :     if( nOldSize < nNewMaxSize )

	mov	eax, DWORD PTR _nOldSize$[ebp]
	cmp	eax, DWORD PTR _nNewMaxSize$[ebp]
	jge	SHORT $LN4@SetSize

; 726  :     {
; 727  :         // Adding elements. Call ctor.
; 728  : 
; 729  :         for( int i = nOldSize; i < nNewMaxSize; ++i )

	mov	eax, DWORD PTR _nOldSize$[ebp]
	mov	DWORD PTR _i$2[ebp], eax
	jmp	SHORT $LN3@SetSize
$LN2@SetSize:
	mov	eax, DWORD PTR _i$2[ebp]
	add	eax, 1
	mov	DWORD PTR _i$2[ebp], eax
$LN3@SetSize:
	mov	eax, DWORD PTR _i$2[ebp]
	cmp	eax, DWORD PTR _nNewMaxSize$[ebp]
	jge	SHORT $LN4@SetSize

; 730  :             ::new (&m_pData[i]) TYPE;

	mov	eax, DWORD PTR _this$[ebp]
	mov	ecx, DWORD PTR [eax]
	mov	edx, DWORD PTR _i$2[ebp]
	lea	eax, DWORD PTR [ecx+edx*4]
	push	eax
	push	4
	call	??2@YAPAXIPAX@Z				; operator new
	add	esp, 8
	mov	DWORD PTR $T1[ebp], eax
	jmp	SHORT $LN2@SetSize
$LN4@SetSize:

; 731  :     }
; 732  : 
; 733  :     return hr;

	mov	eax, DWORD PTR _hr$[ebp]

; 734  : }

	pop	edi
	pop	esi
	pop	ebx
	add	esp, 264				; 00000108H
	cmp	ebp, esp
	call	__RTC_CheckEsp
	mov	esp, ebp
	pop	ebp
	ret	4
?SetSize@?$CGrowableArray@PAUCD3DEnumDeviceSettingsCombo@@@@QAEJH@Z ENDP ; CGrowableArray<CD3DEnumDeviceSettingsCombo *>::SetSize
_TEXT	ENDS
; Function compile flags: /Odtp /RTCsu /ZI
; File z:\sampsrc\02xu1\saco\d3d9\common\dxutmisc.h
;	COMDAT ??1?$CGrowableArray@PAUCD3DEnumDeviceSettingsCombo@@@@QAE@XZ
_TEXT	SEGMENT
_this$ = -8						; size = 4
??1?$CGrowableArray@PAUCD3DEnumDeviceSettingsCombo@@@@QAE@XZ PROC ; CGrowableArray<CD3DEnumDeviceSettingsCombo *>::~CGrowableArray<CD3DEnumDeviceSettingsCombo *>, COMDAT
; _this$ = ecx

; 22   :     ~CGrowableArray() { RemoveAll(); }

	push	ebp
	mov	ebp, esp
	sub	esp, 204				; 000000ccH
	push	ebx
	push	esi
	push	edi
	push	ecx
	lea	edi, DWORD PTR [ebp-204]
	mov	ecx, 51					; 00000033H
	mov	eax, -858993460				; ccccccccH
	rep stosd
	pop	ecx
	mov	DWORD PTR _this$[ebp], ecx
	mov	ecx, DWORD PTR _this$[ebp]
	call	?RemoveAll@?$CGrowableArray@PAUCD3DEnumDeviceSettingsCombo@@@@QAEXXZ ; CGrowableArray<CD3DEnumDeviceSettingsCombo *>::RemoveAll
	pop	edi
	pop	esi
	pop	ebx
	add	esp, 204				; 000000ccH
	cmp	ebp, esp
	call	__RTC_CheckEsp
	mov	esp, ebp
	pop	ebp
	ret	0
??1?$CGrowableArray@PAUCD3DEnumDeviceSettingsCombo@@@@QAE@XZ ENDP ; CGrowableArray<CD3DEnumDeviceSettingsCombo *>::~CGrowableArray<CD3DEnumDeviceSettingsCombo *>
_TEXT	ENDS
; Function compile flags: /Odtp /RTCsu /ZI
; File z:\sampsrc\02xu1\saco\d3d9\common\dxutmisc.h
;	COMDAT ??0?$CGrowableArray@PAUCD3DEnumDeviceSettingsCombo@@@@QAE@XZ
_TEXT	SEGMENT
_this$ = -8						; size = 4
??0?$CGrowableArray@PAUCD3DEnumDeviceSettingsCombo@@@@QAE@XZ PROC ; CGrowableArray<CD3DEnumDeviceSettingsCombo *>::CGrowableArray<CD3DEnumDeviceSettingsCombo *>, COMDAT
; _this$ = ecx

; 20   :     CGrowableArray()  { m_pData = NULL; m_nSize = 0; m_nMaxSize = 0; }

	push	ebp
	mov	ebp, esp
	sub	esp, 204				; 000000ccH
	push	ebx
	push	esi
	push	edi
	push	ecx
	lea	edi, DWORD PTR [ebp-204]
	mov	ecx, 51					; 00000033H
	mov	eax, -858993460				; ccccccccH
	rep stosd
	pop	ecx
	mov	DWORD PTR _this$[ebp], ecx
	mov	eax, DWORD PTR _this$[ebp]
	mov	DWORD PTR [eax], 0
	mov	eax, DWORD PTR _this$[ebp]
	mov	DWORD PTR [eax+4], 0
	mov	eax, DWORD PTR _this$[ebp]
	mov	DWORD PTR [eax+8], 0
	mov	eax, DWORD PTR _this$[ebp]
	pop	edi
	pop	esi
	pop	ebx
	mov	esp, ebp
	pop	ebp
	ret	0
??0?$CGrowableArray@PAUCD3DEnumDeviceSettingsCombo@@@@QAE@XZ ENDP ; CGrowableArray<CD3DEnumDeviceSettingsCombo *>::CGrowableArray<CD3DEnumDeviceSettingsCombo *>
_TEXT	ENDS
; Function compile flags: /Odtp /RTCsu /ZI
; File z:\sampsrc\02xu1\saco\d3d9\common\dxutenum.cpp
;	COMDAT ??1CD3DEnumDeviceInfo@@QAE@XZ
_TEXT	SEGMENT
tv79 = -268						; size = 4
$T2 = -260						; size = 4
$T3 = -248						; size = 4
_i$4 = -44						; size = 4
_pDeviceCombo$ = -32					; size = 4
_this$ = -20						; size = 4
__$EHRec$ = -12						; size = 12
??1CD3DEnumDeviceInfo@@QAE@XZ PROC			; CD3DEnumDeviceInfo::~CD3DEnumDeviceInfo, COMDAT
; _this$ = ecx

; 743  : {

	push	ebp
	mov	ebp, esp
	push	-1
	push	__ehhandler$??1CD3DEnumDeviceInfo@@QAE@XZ
	mov	eax, DWORD PTR fs:0
	push	eax
	sub	esp, 256				; 00000100H
	push	ebx
	push	esi
	push	edi
	push	ecx
	lea	edi, DWORD PTR [ebp-268]
	mov	ecx, 64					; 00000040H
	mov	eax, -858993460				; ccccccccH
	rep stosd
	pop	ecx
	mov	eax, DWORD PTR ___security_cookie
	xor	eax, ebp
	push	eax
	lea	eax, DWORD PTR __$EHRec$[ebp]
	mov	DWORD PTR fs:0, eax
	mov	DWORD PTR _this$[ebp], ecx
	mov	DWORD PTR __$EHRec$[ebp+8], 0

; 744  :     CD3DEnumDeviceSettingsCombo* pDeviceCombo;
; 745  :     for( int i=0; i<deviceSettingsComboList.GetSize(); i++ )

	mov	DWORD PTR _i$4[ebp], 0
	jmp	SHORT $LN3@CD3DEnumDe
$LN2@CD3DEnumDe:
	mov	eax, DWORD PTR _i$4[ebp]
	add	eax, 1
	mov	DWORD PTR _i$4[ebp], eax
$LN3@CD3DEnumDe:
	mov	ecx, DWORD PTR _this$[ebp]
	add	ecx, 312				; 00000138H
	call	?GetSize@?$CGrowableArray@PAUCD3DEnumDeviceSettingsCombo@@@@QBEHXZ ; CGrowableArray<CD3DEnumDeviceSettingsCombo *>::GetSize
	cmp	DWORD PTR _i$4[ebp], eax
	jge	SHORT $LN1@CD3DEnumDe

; 746  :     {
; 747  :         pDeviceCombo = deviceSettingsComboList.GetAt(i);

	mov	eax, DWORD PTR _i$4[ebp]
	push	eax
	mov	ecx, DWORD PTR _this$[ebp]
	add	ecx, 312				; 00000138H
	call	?GetAt@?$CGrowableArray@PAUCD3DEnumDeviceSettingsCombo@@@@QAEAAPAUCD3DEnumDeviceSettingsCombo@@H@Z ; CGrowableArray<CD3DEnumDeviceSettingsCombo *>::GetAt
	mov	ecx, DWORD PTR [eax]
	mov	DWORD PTR _pDeviceCombo$[ebp], ecx

; 748  :         delete pDeviceCombo;

	mov	eax, DWORD PTR _pDeviceCombo$[ebp]
	mov	DWORD PTR $T3[ebp], eax
	mov	ecx, DWORD PTR $T3[ebp]
	mov	DWORD PTR $T2[ebp], ecx
	cmp	DWORD PTR $T2[ebp], 0
	je	SHORT $LN6@CD3DEnumDe
	push	1
	mov	ecx, DWORD PTR $T2[ebp]
	call	??_GCD3DEnumDeviceSettingsCombo@@QAEPAXI@Z
	mov	DWORD PTR tv79[ebp], eax
	jmp	SHORT $LN7@CD3DEnumDe
$LN6@CD3DEnumDe:
	mov	DWORD PTR tv79[ebp], 0
$LN7@CD3DEnumDe:

; 749  :     }

	jmp	SHORT $LN2@CD3DEnumDe
$LN1@CD3DEnumDe:

; 750  :     deviceSettingsComboList.RemoveAll();

	mov	ecx, DWORD PTR _this$[ebp]
	add	ecx, 312				; 00000138H
	call	?RemoveAll@?$CGrowableArray@PAUCD3DEnumDeviceSettingsCombo@@@@QAEXXZ ; CGrowableArray<CD3DEnumDeviceSettingsCombo *>::RemoveAll

; 751  : }

	mov	DWORD PTR __$EHRec$[ebp+8], -1
	mov	ecx, DWORD PTR _this$[ebp]
	add	ecx, 312				; 00000138H
	call	??1?$CGrowableArray@PAUCD3DEnumDeviceSettingsCombo@@@@QAE@XZ ; CGrowableArray<CD3DEnumDeviceSettingsCombo *>::~CGrowableArray<CD3DEnumDeviceSettingsCombo *>
	mov	ecx, DWORD PTR __$EHRec$[ebp]
	mov	DWORD PTR fs:0, ecx
	pop	ecx
	pop	edi
	pop	esi
	pop	ebx
	add	esp, 268				; 0000010cH
	cmp	ebp, esp
	call	__RTC_CheckEsp
	mov	esp, ebp
	pop	ebp
	ret	0
_TEXT	ENDS
;	COMDAT text$x
text$x	SEGMENT
__unwindfunclet$??1CD3DEnumDeviceInfo@@QAE@XZ$0:
	mov	ecx, DWORD PTR _this$[ebp]
	add	ecx, 312				; 00000138H
	jmp	??1?$CGrowableArray@PAUCD3DEnumDeviceSettingsCombo@@@@QAE@XZ ; CGrowableArray<CD3DEnumDeviceSettingsCombo *>::~CGrowableArray<CD3DEnumDeviceSettingsCombo *>
__ehhandler$??1CD3DEnumDeviceInfo@@QAE@XZ:
	mov	edx, DWORD PTR [esp+8]
	lea	eax, DWORD PTR [edx+12]
	mov	ecx, DWORD PTR [edx-272]
	xor	ecx, eax
	call	@__security_check_cookie@4
	mov	eax, OFFSET __ehfuncinfo$??1CD3DEnumDeviceInfo@@QAE@XZ
	jmp	___CxxFrameHandler3
text$x	ENDS
??1CD3DEnumDeviceInfo@@QAE@XZ ENDP			; CD3DEnumDeviceInfo::~CD3DEnumDeviceInfo
; Function compile flags: /Odtp /RTCsu /ZI
;	COMDAT ??_GCD3DEnumAdapterInfo@@QAEPAXI@Z
_TEXT	SEGMENT
_this$ = -8						; size = 4
___flags$ = 8						; size = 4
??_GCD3DEnumAdapterInfo@@QAEPAXI@Z PROC			; CD3DEnumAdapterInfo::`scalar deleting destructor', COMDAT
; _this$ = ecx
	push	ebp
	mov	ebp, esp
	sub	esp, 204				; 000000ccH
	push	ebx
	push	esi
	push	edi
	push	ecx
	lea	edi, DWORD PTR [ebp-204]
	mov	ecx, 51					; 00000033H
	mov	eax, -858993460				; ccccccccH
	rep stosd
	pop	ecx
	mov	DWORD PTR _this$[ebp], ecx
	mov	ecx, DWORD PTR _this$[ebp]
	call	??1CD3DEnumAdapterInfo@@QAE@XZ		; CD3DEnumAdapterInfo::~CD3DEnumAdapterInfo
	mov	eax, DWORD PTR ___flags$[ebp]
	and	eax, 1
	je	SHORT $LN1@scalar
	mov	eax, DWORD PTR _this$[ebp]
	push	eax
	call	??3@YAXPAX@Z				; operator delete
	add	esp, 4
$LN1@scalar:
	mov	eax, DWORD PTR _this$[ebp]
	pop	edi
	pop	esi
	pop	ebx
	add	esp, 204				; 000000ccH
	cmp	ebp, esp
	call	__RTC_CheckEsp
	mov	esp, ebp
	pop	ebp
	ret	4
??_GCD3DEnumAdapterInfo@@QAEPAXI@Z ENDP			; CD3DEnumAdapterInfo::`scalar deleting destructor'
_TEXT	ENDS
; Function compile flags: /Odtp /RTCsu /ZI
;	COMDAT ??0CD3DEnumAdapterInfo@@QAE@XZ
_TEXT	SEGMENT
_this$ = -20						; size = 4
__$EHRec$ = -12						; size = 12
??0CD3DEnumAdapterInfo@@QAE@XZ PROC			; CD3DEnumAdapterInfo::CD3DEnumAdapterInfo, COMDAT
; _this$ = ecx
	push	ebp
	mov	ebp, esp
	push	-1
	push	__ehhandler$??0CD3DEnumAdapterInfo@@QAE@XZ
	mov	eax, DWORD PTR fs:0
	push	eax
	sub	esp, 204				; 000000ccH
	push	ebx
	push	esi
	push	edi
	push	ecx
	lea	edi, DWORD PTR [ebp-216]
	mov	ecx, 51					; 00000033H
	mov	eax, -858993460				; ccccccccH
	rep stosd
	pop	ecx
	mov	eax, DWORD PTR ___security_cookie
	xor	eax, ebp
	push	eax
	lea	eax, DWORD PTR __$EHRec$[ebp]
	mov	DWORD PTR fs:0, eax
	mov	DWORD PTR _this$[ebp], ecx
	mov	ecx, DWORD PTR _this$[ebp]
	add	ecx, 1360				; 00000550H
	call	??0?$CGrowableArray@U_D3DDISPLAYMODE@@@@QAE@XZ ; CGrowableArray<_D3DDISPLAYMODE>::CGrowableArray<_D3DDISPLAYMODE>
	mov	DWORD PTR __$EHRec$[ebp+8], 0
	mov	ecx, DWORD PTR _this$[ebp]
	add	ecx, 1372				; 0000055cH
	call	??0?$CGrowableArray@PAVCD3DEnumDeviceInfo@@@@QAE@XZ ; CGrowableArray<CD3DEnumDeviceInfo *>::CGrowableArray<CD3DEnumDeviceInfo *>
	mov	DWORD PTR __$EHRec$[ebp+8], -1
	mov	eax, DWORD PTR _this$[ebp]
	mov	ecx, DWORD PTR __$EHRec$[ebp]
	mov	DWORD PTR fs:0, ecx
	pop	ecx
	pop	edi
	pop	esi
	pop	ebx
	add	esp, 216				; 000000d8H
	cmp	ebp, esp
	call	__RTC_CheckEsp
	mov	esp, ebp
	pop	ebp
	ret	0
_TEXT	ENDS
;	COMDAT text$x
text$x	SEGMENT
__unwindfunclet$??0CD3DEnumAdapterInfo@@QAE@XZ$0:
	mov	ecx, DWORD PTR _this$[ebp]
	add	ecx, 1360				; 00000550H
	jmp	??1?$CGrowableArray@U_D3DDISPLAYMODE@@@@QAE@XZ ; CGrowableArray<_D3DDISPLAYMODE>::~CGrowableArray<_D3DDISPLAYMODE>
__ehhandler$??0CD3DEnumAdapterInfo@@QAE@XZ:
	mov	edx, DWORD PTR [esp+8]
	lea	eax, DWORD PTR [edx+12]
	mov	ecx, DWORD PTR [edx-220]
	xor	ecx, eax
	call	@__security_check_cookie@4
	mov	eax, OFFSET __ehfuncinfo$??0CD3DEnumAdapterInfo@@QAE@XZ
	jmp	___CxxFrameHandler3
text$x	ENDS
??0CD3DEnumAdapterInfo@@QAE@XZ ENDP			; CD3DEnumAdapterInfo::CD3DEnumAdapterInfo
; Function compile flags: /Odtp /RTCsu /ZI
; File z:\sampsrc\02xu1\saco\d3d9\common\dxutmisc.h
;	COMDAT ?SetSizeInternal@?$CGrowableArray@PAVCD3DEnumDeviceInfo@@@@IAEJH@Z
_TEXT	SEGMENT
tv91 = -232						; size = 4
tv85 = -232						; size = 4
_pDataNew$1 = -32					; size = 4
_nGrowBy$2 = -20					; size = 4
_this$ = -8						; size = 4
_nNewMaxSize$ = 8					; size = 4
?SetSizeInternal@?$CGrowableArray@PAVCD3DEnumDeviceInfo@@@@IAEJH@Z PROC ; CGrowableArray<CD3DEnumDeviceInfo *>::SetSizeInternal, COMDAT
; _this$ = ecx

; 670  : {

	push	ebp
	mov	ebp, esp
	sub	esp, 232				; 000000e8H
	push	ebx
	push	esi
	push	edi
	push	ecx
	lea	edi, DWORD PTR [ebp-232]
	mov	ecx, 58					; 0000003aH
	mov	eax, -858993460				; ccccccccH
	rep stosd
	pop	ecx
	mov	DWORD PTR _this$[ebp], ecx

; 671  :     if( nNewMaxSize < 0 )

	cmp	DWORD PTR _nNewMaxSize$[ebp], 0
	jge	SHORT $LN7@SetSizeInt

; 672  :     {
; 673  :         assert( false );

	xor	eax, eax
	jne	SHORT $LN10@SetSizeInt
	push	673					; 000002a1H
	push	OFFSET ??_C@_1FK@FIMIDMPE@?$AAz?$AA?3?$AA?2?$AAs?$AAa?$AAm?$AAp?$AAs?$AAr?$AAc?$AA?2?$AA0?$AA2?$AAx?$AAu?$AA1?$AA?2?$AAs?$AAa?$AAc?$AAo?$AA?2?$AAd?$AA3?$AAd?$AA9?$AA?2?$AAc?$AAo?$AAm?$AAm?$AAo@
	push	OFFSET ??_C@_1M@HLGKFCJM@?$AAf?$AAa?$AAl?$AAs?$AAe?$AA?$AA@
	call	__wassert
	add	esp, 12					; 0000000cH
$LN10@SetSizeInt:

; 674  :         return E_INVALIDARG;

	mov	eax, -2147024809			; 80070057H
	jmp	$LN8@SetSizeInt
$LN7@SetSizeInt:

; 675  :     }
; 676  : 
; 677  :     if( nNewMaxSize == 0 )

	cmp	DWORD PTR _nNewMaxSize$[ebp], 0
	jne	SHORT $LN6@SetSizeInt

; 678  :     {
; 679  :         // Shrink to 0 size & cleanup
; 680  :         if( m_pData )

	mov	eax, DWORD PTR _this$[ebp]
	cmp	DWORD PTR [eax], 0
	je	SHORT $LN5@SetSizeInt

; 681  :         {
; 682  :             free( m_pData );

	mov	eax, DWORD PTR _this$[ebp]
	mov	ecx, DWORD PTR [eax]
	push	ecx
	call	_free
	add	esp, 4

; 683  :             m_pData = NULL;

	mov	eax, DWORD PTR _this$[ebp]
	mov	DWORD PTR [eax], 0
$LN5@SetSizeInt:

; 684  :         }
; 685  : 
; 686  :         m_nMaxSize = 0;

	mov	eax, DWORD PTR _this$[ebp]
	mov	DWORD PTR [eax+8], 0

; 687  :         m_nSize = 0;

	mov	eax, DWORD PTR _this$[ebp]
	mov	DWORD PTR [eax+4], 0
	jmp	$LN4@SetSizeInt
$LN6@SetSizeInt:

; 688  :     }
; 689  :     else if( m_pData == NULL || nNewMaxSize > m_nMaxSize )

	mov	eax, DWORD PTR _this$[ebp]
	cmp	DWORD PTR [eax], 0
	je	SHORT $LN2@SetSizeInt
	mov	eax, DWORD PTR _this$[ebp]
	mov	ecx, DWORD PTR _nNewMaxSize$[ebp]
	cmp	ecx, DWORD PTR [eax+8]
	jle	$LN4@SetSizeInt
$LN2@SetSizeInt:

; 690  :     {
; 691  :         // Grow array
; 692  :         int nGrowBy = ( m_nMaxSize == 0 ) ? 16 : m_nMaxSize;

	mov	eax, DWORD PTR _this$[ebp]
	cmp	DWORD PTR [eax+8], 0
	jne	SHORT $LN11@SetSizeInt
	mov	DWORD PTR tv85[ebp], 16			; 00000010H
	jmp	SHORT $LN12@SetSizeInt
$LN11@SetSizeInt:
	mov	ecx, DWORD PTR _this$[ebp]
	mov	edx, DWORD PTR [ecx+8]
	mov	DWORD PTR tv85[ebp], edx
$LN12@SetSizeInt:
	mov	eax, DWORD PTR tv85[ebp]
	mov	DWORD PTR _nGrowBy$2[ebp], eax

; 693  :         nNewMaxSize = __max( nNewMaxSize, m_nMaxSize + nGrowBy );

	mov	eax, DWORD PTR _this$[ebp]
	mov	ecx, DWORD PTR [eax+8]
	add	ecx, DWORD PTR _nGrowBy$2[ebp]
	cmp	DWORD PTR _nNewMaxSize$[ebp], ecx
	jle	SHORT $LN13@SetSizeInt
	mov	edx, DWORD PTR _nNewMaxSize$[ebp]
	mov	DWORD PTR tv91[ebp], edx
	jmp	SHORT $LN14@SetSizeInt
$LN13@SetSizeInt:
	mov	eax, DWORD PTR _this$[ebp]
	mov	ecx, DWORD PTR [eax+8]
	add	ecx, DWORD PTR _nGrowBy$2[ebp]
	mov	DWORD PTR tv91[ebp], ecx
$LN14@SetSizeInt:
	mov	edx, DWORD PTR tv91[ebp]
	mov	DWORD PTR _nNewMaxSize$[ebp], edx

; 694  : 
; 695  :         TYPE* pDataNew = (TYPE*) realloc( m_pData, nNewMaxSize * sizeof(TYPE) );

	mov	eax, DWORD PTR _nNewMaxSize$[ebp]
	shl	eax, 2
	push	eax
	mov	ecx, DWORD PTR _this$[ebp]
	mov	edx, DWORD PTR [ecx]
	push	edx
	call	_realloc
	add	esp, 8
	mov	DWORD PTR _pDataNew$1[ebp], eax

; 696  :         if( pDataNew == NULL )

	cmp	DWORD PTR _pDataNew$1[ebp], 0
	jne	SHORT $LN1@SetSizeInt

; 697  :             return E_OUTOFMEMORY;

	mov	eax, -2147024882			; 8007000eH
	jmp	SHORT $LN8@SetSizeInt
$LN1@SetSizeInt:

; 698  : 
; 699  :         m_pData = pDataNew;

	mov	eax, DWORD PTR _this$[ebp]
	mov	ecx, DWORD PTR _pDataNew$1[ebp]
	mov	DWORD PTR [eax], ecx

; 700  :         m_nMaxSize = nNewMaxSize;

	mov	eax, DWORD PTR _this$[ebp]
	mov	ecx, DWORD PTR _nNewMaxSize$[ebp]
	mov	DWORD PTR [eax+8], ecx
$LN4@SetSizeInt:

; 701  :     }
; 702  : 
; 703  :     return S_OK;

	xor	eax, eax
$LN8@SetSizeInt:

; 704  : }

	pop	edi
	pop	esi
	pop	ebx
	add	esp, 232				; 000000e8H
	cmp	ebp, esp
	call	__RTC_CheckEsp
	mov	esp, ebp
	pop	ebp
	ret	4
?SetSizeInternal@?$CGrowableArray@PAVCD3DEnumDeviceInfo@@@@IAEJH@Z ENDP ; CGrowableArray<CD3DEnumDeviceInfo *>::SetSizeInternal
_TEXT	ENDS
; Function compile flags: /Odtp /RTCsu /ZI
; File z:\sampsrc\02xu1\saco\d3d9\common\dxutmisc.h
;	COMDAT ?RemoveAll@?$CGrowableArray@PAVCD3DEnumDeviceInfo@@@@QAEXXZ
_TEXT	SEGMENT
_this$ = -8						; size = 4
?RemoveAll@?$CGrowableArray@PAVCD3DEnumDeviceInfo@@@@QAEXXZ PROC ; CGrowableArray<CD3DEnumDeviceInfo *>::RemoveAll, COMDAT
; _this$ = ecx

; 47   :     void    RemoveAll() { SetSize(0); }

	push	ebp
	mov	ebp, esp
	sub	esp, 204				; 000000ccH
	push	ebx
	push	esi
	push	edi
	push	ecx
	lea	edi, DWORD PTR [ebp-204]
	mov	ecx, 51					; 00000033H
	mov	eax, -858993460				; ccccccccH
	rep stosd
	pop	ecx
	mov	DWORD PTR _this$[ebp], ecx
	push	0
	mov	ecx, DWORD PTR _this$[ebp]
	call	?SetSize@?$CGrowableArray@PAVCD3DEnumDeviceInfo@@@@QAEJH@Z ; CGrowableArray<CD3DEnumDeviceInfo *>::SetSize
	pop	edi
	pop	esi
	pop	ebx
	add	esp, 204				; 000000ccH
	cmp	ebp, esp
	call	__RTC_CheckEsp
	mov	esp, ebp
	pop	ebp
	ret	0
?RemoveAll@?$CGrowableArray@PAVCD3DEnumDeviceInfo@@@@QAEXXZ ENDP ; CGrowableArray<CD3DEnumDeviceInfo *>::RemoveAll
_TEXT	ENDS
; Function compile flags: /Odtp /RTCsu /ZI
; File z:\sampsrc\02xu1\saco\d3d9\common\dxutmisc.h
;	COMDAT ?GetSize@?$CGrowableArray@PAVCD3DEnumDeviceInfo@@@@QBEHXZ
_TEXT	SEGMENT
_this$ = -8						; size = 4
?GetSize@?$CGrowableArray@PAVCD3DEnumDeviceInfo@@@@QBEHXZ PROC ; CGrowableArray<CD3DEnumDeviceInfo *>::GetSize, COMDAT
; _this$ = ecx

; 34   :     int     GetSize() const { return m_nSize; }

	push	ebp
	mov	ebp, esp
	sub	esp, 204				; 000000ccH
	push	ebx
	push	esi
	push	edi
	push	ecx
	lea	edi, DWORD PTR [ebp-204]
	mov	ecx, 51					; 00000033H
	mov	eax, -858993460				; ccccccccH
	rep stosd
	pop	ecx
	mov	DWORD PTR _this$[ebp], ecx
	mov	eax, DWORD PTR _this$[ebp]
	mov	eax, DWORD PTR [eax+4]
	pop	edi
	pop	esi
	pop	ebx
	mov	esp, ebp
	pop	ebp
	ret	0
?GetSize@?$CGrowableArray@PAVCD3DEnumDeviceInfo@@@@QBEHXZ ENDP ; CGrowableArray<CD3DEnumDeviceInfo *>::GetSize
_TEXT	ENDS
; Function compile flags: /Odtp /RTCsu /ZI
; File z:\sampsrc\02xu1\saco\d3d9\common\dxutmisc.h
;	COMDAT ?GetAt@?$CGrowableArray@PAVCD3DEnumDeviceInfo@@@@QAEAAPAVCD3DEnumDeviceInfo@@H@Z
_TEXT	SEGMENT
_this$ = -8						; size = 4
_nIndex$ = 8						; size = 4
?GetAt@?$CGrowableArray@PAVCD3DEnumDeviceInfo@@@@QAEAAPAVCD3DEnumDeviceInfo@@H@Z PROC ; CGrowableArray<CD3DEnumDeviceInfo *>::GetAt, COMDAT
; _this$ = ecx

; 33   :     TYPE&   GetAt( int nIndex ) { assert( nIndex >= 0 && nIndex < m_nSize ); return m_pData[nIndex]; }

	push	ebp
	mov	ebp, esp
	sub	esp, 204				; 000000ccH
	push	ebx
	push	esi
	push	edi
	push	ecx
	lea	edi, DWORD PTR [ebp-204]
	mov	ecx, 51					; 00000033H
	mov	eax, -858993460				; ccccccccH
	rep stosd
	pop	ecx
	mov	DWORD PTR _this$[ebp], ecx
	cmp	DWORD PTR _nIndex$[ebp], 0
	jl	SHORT $LN3@GetAt
	mov	eax, DWORD PTR _this$[ebp]
	mov	ecx, DWORD PTR _nIndex$[ebp]
	cmp	ecx, DWORD PTR [eax+4]
	jl	SHORT $LN4@GetAt
$LN3@GetAt:
	push	33					; 00000021H
	push	OFFSET ??_C@_1FK@FIMIDMPE@?$AAz?$AA?3?$AA?2?$AAs?$AAa?$AAm?$AAp?$AAs?$AAr?$AAc?$AA?2?$AA0?$AA2?$AAx?$AAu?$AA1?$AA?2?$AAs?$AAa?$AAc?$AAo?$AA?2?$AAd?$AA3?$AAd?$AA9?$AA?2?$AAc?$AAo?$AAm?$AAm?$AAo@
	push	OFFSET ??_C@_1EA@JHMKKLFC@?$AAn?$AAI?$AAn?$AAd?$AAe?$AAx?$AA?5?$AA?$DO?$AA?$DN?$AA?5?$AA0?$AA?5?$AA?$CG?$AA?$CG?$AA?5?$AAn?$AAI?$AAn?$AAd?$AAe?$AAx?$AA?5?$AA?$DM?$AA?5?$AAm?$AA_?$AAn?$AAS?$AAi?$AAz?$AAe?$AA?$AA@
	call	__wassert
	add	esp, 12					; 0000000cH
$LN4@GetAt:
	mov	eax, DWORD PTR _this$[ebp]
	mov	ecx, DWORD PTR [eax]
	mov	edx, DWORD PTR _nIndex$[ebp]
	lea	eax, DWORD PTR [ecx+edx*4]
	pop	edi
	pop	esi
	pop	ebx
	add	esp, 204				; 000000ccH
	cmp	ebp, esp
	call	__RTC_CheckEsp
	mov	esp, ebp
	pop	ebp
	ret	4
?GetAt@?$CGrowableArray@PAVCD3DEnumDeviceInfo@@@@QAEAAPAVCD3DEnumDeviceInfo@@H@Z ENDP ; CGrowableArray<CD3DEnumDeviceInfo *>::GetAt
_TEXT	ENDS
; Function compile flags: /Odtp /RTCsu /ZI
; File z:\sampsrc\02xu1\saco\d3d9\common\dxutmisc.h
;	COMDAT ?Add@?$CGrowableArray@PAVCD3DEnumDeviceInfo@@@@QAEJABQAVCD3DEnumDeviceInfo@@@Z
_TEXT	SEGMENT
$T1 = -224						; size = 4
_hr$ = -20						; size = 4
_this$ = -8						; size = 4
_value$ = 8						; size = 4
?Add@?$CGrowableArray@PAVCD3DEnumDeviceInfo@@@@QAEJABQAVCD3DEnumDeviceInfo@@@Z PROC ; CGrowableArray<CD3DEnumDeviceInfo *>::Add, COMDAT
; _this$ = ecx

; 740  : {

	push	ebp
	mov	ebp, esp
	sub	esp, 228				; 000000e4H
	push	ebx
	push	esi
	push	edi
	push	ecx
	lea	edi, DWORD PTR [ebp-228]
	mov	ecx, 57					; 00000039H
	mov	eax, -858993460				; ccccccccH
	rep stosd
	pop	ecx
	mov	DWORD PTR _this$[ebp], ecx

; 741  :     HRESULT hr;
; 742  :     if( FAILED( hr = SetSizeInternal( m_nSize + 1 ) ) )

	mov	eax, DWORD PTR _this$[ebp]
	mov	ecx, DWORD PTR [eax+4]
	add	ecx, 1
	push	ecx
	mov	ecx, DWORD PTR _this$[ebp]
	call	?SetSizeInternal@?$CGrowableArray@PAVCD3DEnumDeviceInfo@@@@IAEJH@Z ; CGrowableArray<CD3DEnumDeviceInfo *>::SetSizeInternal
	mov	DWORD PTR _hr$[ebp], eax
	cmp	DWORD PTR _hr$[ebp], 0
	jge	SHORT $LN1@Add

; 743  :         return hr;

	mov	eax, DWORD PTR _hr$[ebp]
	jmp	SHORT $LN2@Add
$LN1@Add:

; 744  : 
; 745  :     // Construct the new element
; 746  :     ::new (&m_pData[m_nSize]) TYPE;

	mov	eax, DWORD PTR _this$[ebp]
	mov	ecx, DWORD PTR [eax+4]
	mov	edx, DWORD PTR _this$[ebp]
	mov	eax, DWORD PTR [edx]
	lea	ecx, DWORD PTR [eax+ecx*4]
	push	ecx
	push	4
	call	??2@YAPAXIPAX@Z				; operator new
	add	esp, 8
	mov	DWORD PTR $T1[ebp], eax

; 747  : 
; 748  :     // Assign
; 749  :     m_pData[m_nSize] = value;

	mov	eax, DWORD PTR _this$[ebp]
	mov	ecx, DWORD PTR [eax+4]
	mov	edx, DWORD PTR _this$[ebp]
	mov	eax, DWORD PTR [edx]
	mov	edx, DWORD PTR _value$[ebp]
	mov	edx, DWORD PTR [edx]
	mov	DWORD PTR [eax+ecx*4], edx

; 750  :     ++m_nSize;

	mov	eax, DWORD PTR _this$[ebp]
	mov	ecx, DWORD PTR [eax+4]
	add	ecx, 1
	mov	edx, DWORD PTR _this$[ebp]
	mov	DWORD PTR [edx+4], ecx

; 751  : 
; 752  :     return S_OK;

	xor	eax, eax
$LN2@Add:

; 753  : }

	pop	edi
	pop	esi
	pop	ebx
	add	esp, 228				; 000000e4H
	cmp	ebp, esp
	call	__RTC_CheckEsp
	mov	esp, ebp
	pop	ebp
	ret	4
?Add@?$CGrowableArray@PAVCD3DEnumDeviceInfo@@@@QAEJABQAVCD3DEnumDeviceInfo@@@Z ENDP ; CGrowableArray<CD3DEnumDeviceInfo *>::Add
_TEXT	ENDS
; Function compile flags: /Odtp /RTCsu /ZI
; File z:\sampsrc\02xu1\saco\d3d9\common\dxutmisc.h
;	COMDAT ?SetSize@?$CGrowableArray@PAVCD3DEnumDeviceInfo@@@@QAEJH@Z
_TEXT	SEGMENT
$T1 = -260						; size = 4
_i$2 = -56						; size = 4
_hr$ = -44						; size = 4
_i$3 = -32						; size = 4
_nOldSize$ = -20					; size = 4
_this$ = -8						; size = 4
_nNewMaxSize$ = 8					; size = 4
?SetSize@?$CGrowableArray@PAVCD3DEnumDeviceInfo@@@@QAEJH@Z PROC ; CGrowableArray<CD3DEnumDeviceInfo *>::SetSize, COMDAT
; _this$ = ecx

; 710  : {

	push	ebp
	mov	ebp, esp
	sub	esp, 264				; 00000108H
	push	ebx
	push	esi
	push	edi
	push	ecx
	lea	edi, DWORD PTR [ebp-264]
	mov	ecx, 66					; 00000042H
	mov	eax, -858993460				; ccccccccH
	rep stosd
	pop	ecx
	mov	DWORD PTR _this$[ebp], ecx

; 711  :     int nOldSize = m_nSize;

	mov	eax, DWORD PTR _this$[ebp]
	mov	ecx, DWORD PTR [eax+4]
	mov	DWORD PTR _nOldSize$[ebp], ecx

; 712  : 
; 713  :     if( nOldSize > nNewMaxSize )

	mov	eax, DWORD PTR _nOldSize$[ebp]
	cmp	eax, DWORD PTR _nNewMaxSize$[ebp]
	jle	SHORT $LN8@SetSize

; 714  :     {
; 715  :         // Removing elements. Call dtor.
; 716  : 
; 717  :         for( int i = nNewMaxSize; i < nOldSize; ++i )

	mov	eax, DWORD PTR _nNewMaxSize$[ebp]
	mov	DWORD PTR _i$3[ebp], eax
	jmp	SHORT $LN7@SetSize
$LN6@SetSize:
	mov	eax, DWORD PTR _i$3[ebp]
	add	eax, 1
	mov	DWORD PTR _i$3[ebp], eax
$LN7@SetSize:
	mov	eax, DWORD PTR _i$3[ebp]
	cmp	eax, DWORD PTR _nOldSize$[ebp]
	jge	SHORT $LN8@SetSize

; 718  :             m_pData[i].~TYPE();

	jmp	SHORT $LN6@SetSize
$LN8@SetSize:

; 719  :     }
; 720  : 
; 721  :     // Adjust buffer.  Note that there's no need to check for error
; 722  :     // since if it happens, nOldSize == nNewMaxSize will be true.)
; 723  :     HRESULT hr = SetSizeInternal( nNewMaxSize );

	mov	eax, DWORD PTR _nNewMaxSize$[ebp]
	push	eax
	mov	ecx, DWORD PTR _this$[ebp]
	call	?SetSizeInternal@?$CGrowableArray@PAVCD3DEnumDeviceInfo@@@@IAEJH@Z ; CGrowableArray<CD3DEnumDeviceInfo *>::SetSizeInternal
	mov	DWORD PTR _hr$[ebp], eax

; 724  : 
; 725  :     if( nOldSize < nNewMaxSize )

	mov	eax, DWORD PTR _nOldSize$[ebp]
	cmp	eax, DWORD PTR _nNewMaxSize$[ebp]
	jge	SHORT $LN4@SetSize

; 726  :     {
; 727  :         // Adding elements. Call ctor.
; 728  : 
; 729  :         for( int i = nOldSize; i < nNewMaxSize; ++i )

	mov	eax, DWORD PTR _nOldSize$[ebp]
	mov	DWORD PTR _i$2[ebp], eax
	jmp	SHORT $LN3@SetSize
$LN2@SetSize:
	mov	eax, DWORD PTR _i$2[ebp]
	add	eax, 1
	mov	DWORD PTR _i$2[ebp], eax
$LN3@SetSize:
	mov	eax, DWORD PTR _i$2[ebp]
	cmp	eax, DWORD PTR _nNewMaxSize$[ebp]
	jge	SHORT $LN4@SetSize

; 730  :             ::new (&m_pData[i]) TYPE;

	mov	eax, DWORD PTR _this$[ebp]
	mov	ecx, DWORD PTR [eax]
	mov	edx, DWORD PTR _i$2[ebp]
	lea	eax, DWORD PTR [ecx+edx*4]
	push	eax
	push	4
	call	??2@YAPAXIPAX@Z				; operator new
	add	esp, 8
	mov	DWORD PTR $T1[ebp], eax
	jmp	SHORT $LN2@SetSize
$LN4@SetSize:

; 731  :     }
; 732  : 
; 733  :     return hr;

	mov	eax, DWORD PTR _hr$[ebp]

; 734  : }

	pop	edi
	pop	esi
	pop	ebx
	add	esp, 264				; 00000108H
	cmp	ebp, esp
	call	__RTC_CheckEsp
	mov	esp, ebp
	pop	ebp
	ret	4
?SetSize@?$CGrowableArray@PAVCD3DEnumDeviceInfo@@@@QAEJH@Z ENDP ; CGrowableArray<CD3DEnumDeviceInfo *>::SetSize
_TEXT	ENDS
; Function compile flags: /Odtp /RTCsu /ZI
; File z:\sampsrc\02xu1\saco\d3d9\common\dxutmisc.h
;	COMDAT ??1?$CGrowableArray@PAVCD3DEnumDeviceInfo@@@@QAE@XZ
_TEXT	SEGMENT
_this$ = -8						; size = 4
??1?$CGrowableArray@PAVCD3DEnumDeviceInfo@@@@QAE@XZ PROC ; CGrowableArray<CD3DEnumDeviceInfo *>::~CGrowableArray<CD3DEnumDeviceInfo *>, COMDAT
; _this$ = ecx

; 22   :     ~CGrowableArray() { RemoveAll(); }

	push	ebp
	mov	ebp, esp
	sub	esp, 204				; 000000ccH
	push	ebx
	push	esi
	push	edi
	push	ecx
	lea	edi, DWORD PTR [ebp-204]
	mov	ecx, 51					; 00000033H
	mov	eax, -858993460				; ccccccccH
	rep stosd
	pop	ecx
	mov	DWORD PTR _this$[ebp], ecx
	mov	ecx, DWORD PTR _this$[ebp]
	call	?RemoveAll@?$CGrowableArray@PAVCD3DEnumDeviceInfo@@@@QAEXXZ ; CGrowableArray<CD3DEnumDeviceInfo *>::RemoveAll
	pop	edi
	pop	esi
	pop	ebx
	add	esp, 204				; 000000ccH
	cmp	ebp, esp
	call	__RTC_CheckEsp
	mov	esp, ebp
	pop	ebp
	ret	0
??1?$CGrowableArray@PAVCD3DEnumDeviceInfo@@@@QAE@XZ ENDP ; CGrowableArray<CD3DEnumDeviceInfo *>::~CGrowableArray<CD3DEnumDeviceInfo *>
_TEXT	ENDS
; Function compile flags: /Odtp /RTCsu /ZI
; File z:\sampsrc\02xu1\saco\d3d9\common\dxutmisc.h
;	COMDAT ??0?$CGrowableArray@PAVCD3DEnumDeviceInfo@@@@QAE@XZ
_TEXT	SEGMENT
_this$ = -8						; size = 4
??0?$CGrowableArray@PAVCD3DEnumDeviceInfo@@@@QAE@XZ PROC ; CGrowableArray<CD3DEnumDeviceInfo *>::CGrowableArray<CD3DEnumDeviceInfo *>, COMDAT
; _this$ = ecx

; 20   :     CGrowableArray()  { m_pData = NULL; m_nSize = 0; m_nMaxSize = 0; }

	push	ebp
	mov	ebp, esp
	sub	esp, 204				; 000000ccH
	push	ebx
	push	esi
	push	edi
	push	ecx
	lea	edi, DWORD PTR [ebp-204]
	mov	ecx, 51					; 00000033H
	mov	eax, -858993460				; ccccccccH
	rep stosd
	pop	ecx
	mov	DWORD PTR _this$[ebp], ecx
	mov	eax, DWORD PTR _this$[ebp]
	mov	DWORD PTR [eax], 0
	mov	eax, DWORD PTR _this$[ebp]
	mov	DWORD PTR [eax+4], 0
	mov	eax, DWORD PTR _this$[ebp]
	mov	DWORD PTR [eax+8], 0
	mov	eax, DWORD PTR _this$[ebp]
	pop	edi
	pop	esi
	pop	ebx
	mov	esp, ebp
	pop	ebp
	ret	0
??0?$CGrowableArray@PAVCD3DEnumDeviceInfo@@@@QAE@XZ ENDP ; CGrowableArray<CD3DEnumDeviceInfo *>::CGrowableArray<CD3DEnumDeviceInfo *>
_TEXT	ENDS
; Function compile flags: /Odtp /RTCsu /ZI
; File z:\sampsrc\02xu1\saco\d3d9\common\dxutmisc.h
;	COMDAT ?SetSizeInternal@?$CGrowableArray@U_D3DDISPLAYMODE@@@@IAEJH@Z
_TEXT	SEGMENT
tv91 = -232						; size = 4
tv85 = -232						; size = 4
_pDataNew$1 = -32					; size = 4
_nGrowBy$2 = -20					; size = 4
_this$ = -8						; size = 4
_nNewMaxSize$ = 8					; size = 4
?SetSizeInternal@?$CGrowableArray@U_D3DDISPLAYMODE@@@@IAEJH@Z PROC ; CGrowableArray<_D3DDISPLAYMODE>::SetSizeInternal, COMDAT
; _this$ = ecx

; 670  : {

	push	ebp
	mov	ebp, esp
	sub	esp, 232				; 000000e8H
	push	ebx
	push	esi
	push	edi
	push	ecx
	lea	edi, DWORD PTR [ebp-232]
	mov	ecx, 58					; 0000003aH
	mov	eax, -858993460				; ccccccccH
	rep stosd
	pop	ecx
	mov	DWORD PTR _this$[ebp], ecx

; 671  :     if( nNewMaxSize < 0 )

	cmp	DWORD PTR _nNewMaxSize$[ebp], 0
	jge	SHORT $LN7@SetSizeInt

; 672  :     {
; 673  :         assert( false );

	xor	eax, eax
	jne	SHORT $LN10@SetSizeInt
	push	673					; 000002a1H
	push	OFFSET ??_C@_1FK@FIMIDMPE@?$AAz?$AA?3?$AA?2?$AAs?$AAa?$AAm?$AAp?$AAs?$AAr?$AAc?$AA?2?$AA0?$AA2?$AAx?$AAu?$AA1?$AA?2?$AAs?$AAa?$AAc?$AAo?$AA?2?$AAd?$AA3?$AAd?$AA9?$AA?2?$AAc?$AAo?$AAm?$AAm?$AAo@
	push	OFFSET ??_C@_1M@HLGKFCJM@?$AAf?$AAa?$AAl?$AAs?$AAe?$AA?$AA@
	call	__wassert
	add	esp, 12					; 0000000cH
$LN10@SetSizeInt:

; 674  :         return E_INVALIDARG;

	mov	eax, -2147024809			; 80070057H
	jmp	$LN8@SetSizeInt
$LN7@SetSizeInt:

; 675  :     }
; 676  : 
; 677  :     if( nNewMaxSize == 0 )

	cmp	DWORD PTR _nNewMaxSize$[ebp], 0
	jne	SHORT $LN6@SetSizeInt

; 678  :     {
; 679  :         // Shrink to 0 size & cleanup
; 680  :         if( m_pData )

	mov	eax, DWORD PTR _this$[ebp]
	cmp	DWORD PTR [eax], 0
	je	SHORT $LN5@SetSizeInt

; 681  :         {
; 682  :             free( m_pData );

	mov	eax, DWORD PTR _this$[ebp]
	mov	ecx, DWORD PTR [eax]
	push	ecx
	call	_free
	add	esp, 4

; 683  :             m_pData = NULL;

	mov	eax, DWORD PTR _this$[ebp]
	mov	DWORD PTR [eax], 0
$LN5@SetSizeInt:

; 684  :         }
; 685  : 
; 686  :         m_nMaxSize = 0;

	mov	eax, DWORD PTR _this$[ebp]
	mov	DWORD PTR [eax+8], 0

; 687  :         m_nSize = 0;

	mov	eax, DWORD PTR _this$[ebp]
	mov	DWORD PTR [eax+4], 0
	jmp	$LN4@SetSizeInt
$LN6@SetSizeInt:

; 688  :     }
; 689  :     else if( m_pData == NULL || nNewMaxSize > m_nMaxSize )

	mov	eax, DWORD PTR _this$[ebp]
	cmp	DWORD PTR [eax], 0
	je	SHORT $LN2@SetSizeInt
	mov	eax, DWORD PTR _this$[ebp]
	mov	ecx, DWORD PTR _nNewMaxSize$[ebp]
	cmp	ecx, DWORD PTR [eax+8]
	jle	$LN4@SetSizeInt
$LN2@SetSizeInt:

; 690  :     {
; 691  :         // Grow array
; 692  :         int nGrowBy = ( m_nMaxSize == 0 ) ? 16 : m_nMaxSize;

	mov	eax, DWORD PTR _this$[ebp]
	cmp	DWORD PTR [eax+8], 0
	jne	SHORT $LN11@SetSizeInt
	mov	DWORD PTR tv85[ebp], 16			; 00000010H
	jmp	SHORT $LN12@SetSizeInt
$LN11@SetSizeInt:
	mov	ecx, DWORD PTR _this$[ebp]
	mov	edx, DWORD PTR [ecx+8]
	mov	DWORD PTR tv85[ebp], edx
$LN12@SetSizeInt:
	mov	eax, DWORD PTR tv85[ebp]
	mov	DWORD PTR _nGrowBy$2[ebp], eax

; 693  :         nNewMaxSize = __max( nNewMaxSize, m_nMaxSize + nGrowBy );

	mov	eax, DWORD PTR _this$[ebp]
	mov	ecx, DWORD PTR [eax+8]
	add	ecx, DWORD PTR _nGrowBy$2[ebp]
	cmp	DWORD PTR _nNewMaxSize$[ebp], ecx
	jle	SHORT $LN13@SetSizeInt
	mov	edx, DWORD PTR _nNewMaxSize$[ebp]
	mov	DWORD PTR tv91[ebp], edx
	jmp	SHORT $LN14@SetSizeInt
$LN13@SetSizeInt:
	mov	eax, DWORD PTR _this$[ebp]
	mov	ecx, DWORD PTR [eax+8]
	add	ecx, DWORD PTR _nGrowBy$2[ebp]
	mov	DWORD PTR tv91[ebp], ecx
$LN14@SetSizeInt:
	mov	edx, DWORD PTR tv91[ebp]
	mov	DWORD PTR _nNewMaxSize$[ebp], edx

; 694  : 
; 695  :         TYPE* pDataNew = (TYPE*) realloc( m_pData, nNewMaxSize * sizeof(TYPE) );

	mov	eax, DWORD PTR _nNewMaxSize$[ebp]
	shl	eax, 4
	push	eax
	mov	ecx, DWORD PTR _this$[ebp]
	mov	edx, DWORD PTR [ecx]
	push	edx
	call	_realloc
	add	esp, 8
	mov	DWORD PTR _pDataNew$1[ebp], eax

; 696  :         if( pDataNew == NULL )

	cmp	DWORD PTR _pDataNew$1[ebp], 0
	jne	SHORT $LN1@SetSizeInt

; 697  :             return E_OUTOFMEMORY;

	mov	eax, -2147024882			; 8007000eH
	jmp	SHORT $LN8@SetSizeInt
$LN1@SetSizeInt:

; 698  : 
; 699  :         m_pData = pDataNew;

	mov	eax, DWORD PTR _this$[ebp]
	mov	ecx, DWORD PTR _pDataNew$1[ebp]
	mov	DWORD PTR [eax], ecx

; 700  :         m_nMaxSize = nNewMaxSize;

	mov	eax, DWORD PTR _this$[ebp]
	mov	ecx, DWORD PTR _nNewMaxSize$[ebp]
	mov	DWORD PTR [eax+8], ecx
$LN4@SetSizeInt:

; 701  :     }
; 702  : 
; 703  :     return S_OK;

	xor	eax, eax
$LN8@SetSizeInt:

; 704  : }

	pop	edi
	pop	esi
	pop	ebx
	add	esp, 232				; 000000e8H
	cmp	ebp, esp
	call	__RTC_CheckEsp
	mov	esp, ebp
	pop	ebp
	ret	4
?SetSizeInternal@?$CGrowableArray@U_D3DDISPLAYMODE@@@@IAEJH@Z ENDP ; CGrowableArray<_D3DDISPLAYMODE>::SetSizeInternal
_TEXT	ENDS
; Function compile flags: /Odtp /RTCsu /ZI
; File z:\sampsrc\02xu1\saco\d3d9\common\dxutmisc.h
;	COMDAT ?RemoveAll@?$CGrowableArray@U_D3DDISPLAYMODE@@@@QAEXXZ
_TEXT	SEGMENT
_this$ = -8						; size = 4
?RemoveAll@?$CGrowableArray@U_D3DDISPLAYMODE@@@@QAEXXZ PROC ; CGrowableArray<_D3DDISPLAYMODE>::RemoveAll, COMDAT
; _this$ = ecx

; 47   :     void    RemoveAll() { SetSize(0); }

	push	ebp
	mov	ebp, esp
	sub	esp, 204				; 000000ccH
	push	ebx
	push	esi
	push	edi
	push	ecx
	lea	edi, DWORD PTR [ebp-204]
	mov	ecx, 51					; 00000033H
	mov	eax, -858993460				; ccccccccH
	rep stosd
	pop	ecx
	mov	DWORD PTR _this$[ebp], ecx
	push	0
	mov	ecx, DWORD PTR _this$[ebp]
	call	?SetSize@?$CGrowableArray@U_D3DDISPLAYMODE@@@@QAEJH@Z ; CGrowableArray<_D3DDISPLAYMODE>::SetSize
	pop	edi
	pop	esi
	pop	ebx
	add	esp, 204				; 000000ccH
	cmp	ebp, esp
	call	__RTC_CheckEsp
	mov	esp, ebp
	pop	ebp
	ret	0
?RemoveAll@?$CGrowableArray@U_D3DDISPLAYMODE@@@@QAEXXZ ENDP ; CGrowableArray<_D3DDISPLAYMODE>::RemoveAll
_TEXT	ENDS
; Function compile flags: /Odtp /RTCsu /ZI
; File z:\sampsrc\02xu1\saco\d3d9\common\dxutmisc.h
;	COMDAT ?GetData@?$CGrowableArray@U_D3DDISPLAYMODE@@@@QAEPAU_D3DDISPLAYMODE@@XZ
_TEXT	SEGMENT
_this$ = -8						; size = 4
?GetData@?$CGrowableArray@U_D3DDISPLAYMODE@@@@QAEPAU_D3DDISPLAYMODE@@XZ PROC ; CGrowableArray<_D3DDISPLAYMODE>::GetData, COMDAT
; _this$ = ecx

; 35   :     TYPE*   GetData() { return m_pData; }

	push	ebp
	mov	ebp, esp
	sub	esp, 204				; 000000ccH
	push	ebx
	push	esi
	push	edi
	push	ecx
	lea	edi, DWORD PTR [ebp-204]
	mov	ecx, 51					; 00000033H
	mov	eax, -858993460				; ccccccccH
	rep stosd
	pop	ecx
	mov	DWORD PTR _this$[ebp], ecx
	mov	eax, DWORD PTR _this$[ebp]
	mov	eax, DWORD PTR [eax]
	pop	edi
	pop	esi
	pop	ebx
	mov	esp, ebp
	pop	ebp
	ret	0
?GetData@?$CGrowableArray@U_D3DDISPLAYMODE@@@@QAEPAU_D3DDISPLAYMODE@@XZ ENDP ; CGrowableArray<_D3DDISPLAYMODE>::GetData
_TEXT	ENDS
; Function compile flags: /Odtp /RTCsu /ZI
; File z:\sampsrc\02xu1\saco\d3d9\common\dxutmisc.h
;	COMDAT ?GetSize@?$CGrowableArray@U_D3DDISPLAYMODE@@@@QBEHXZ
_TEXT	SEGMENT
_this$ = -8						; size = 4
?GetSize@?$CGrowableArray@U_D3DDISPLAYMODE@@@@QBEHXZ PROC ; CGrowableArray<_D3DDISPLAYMODE>::GetSize, COMDAT
; _this$ = ecx

; 34   :     int     GetSize() const { return m_nSize; }

	push	ebp
	mov	ebp, esp
	sub	esp, 204				; 000000ccH
	push	ebx
	push	esi
	push	edi
	push	ecx
	lea	edi, DWORD PTR [ebp-204]
	mov	ecx, 51					; 00000033H
	mov	eax, -858993460				; ccccccccH
	rep stosd
	pop	ecx
	mov	DWORD PTR _this$[ebp], ecx
	mov	eax, DWORD PTR _this$[ebp]
	mov	eax, DWORD PTR [eax+4]
	pop	edi
	pop	esi
	pop	ebx
	mov	esp, ebp
	pop	ebp
	ret	0
?GetSize@?$CGrowableArray@U_D3DDISPLAYMODE@@@@QBEHXZ ENDP ; CGrowableArray<_D3DDISPLAYMODE>::GetSize
_TEXT	ENDS
; Function compile flags: /Odtp /RTCsu /ZI
; File z:\sampsrc\02xu1\saco\d3d9\common\dxutmisc.h
;	COMDAT ?Add@?$CGrowableArray@U_D3DDISPLAYMODE@@@@QAEJABU_D3DDISPLAYMODE@@@Z
_TEXT	SEGMENT
$T1 = -224						; size = 4
_hr$ = -20						; size = 4
_this$ = -8						; size = 4
_value$ = 8						; size = 4
?Add@?$CGrowableArray@U_D3DDISPLAYMODE@@@@QAEJABU_D3DDISPLAYMODE@@@Z PROC ; CGrowableArray<_D3DDISPLAYMODE>::Add, COMDAT
; _this$ = ecx

; 740  : {

	push	ebp
	mov	ebp, esp
	sub	esp, 228				; 000000e4H
	push	ebx
	push	esi
	push	edi
	push	ecx
	lea	edi, DWORD PTR [ebp-228]
	mov	ecx, 57					; 00000039H
	mov	eax, -858993460				; ccccccccH
	rep stosd
	pop	ecx
	mov	DWORD PTR _this$[ebp], ecx

; 741  :     HRESULT hr;
; 742  :     if( FAILED( hr = SetSizeInternal( m_nSize + 1 ) ) )

	mov	eax, DWORD PTR _this$[ebp]
	mov	ecx, DWORD PTR [eax+4]
	add	ecx, 1
	push	ecx
	mov	ecx, DWORD PTR _this$[ebp]
	call	?SetSizeInternal@?$CGrowableArray@U_D3DDISPLAYMODE@@@@IAEJH@Z ; CGrowableArray<_D3DDISPLAYMODE>::SetSizeInternal
	mov	DWORD PTR _hr$[ebp], eax
	cmp	DWORD PTR _hr$[ebp], 0
	jge	SHORT $LN1@Add

; 743  :         return hr;

	mov	eax, DWORD PTR _hr$[ebp]
	jmp	SHORT $LN2@Add
$LN1@Add:

; 744  : 
; 745  :     // Construct the new element
; 746  :     ::new (&m_pData[m_nSize]) TYPE;

	mov	eax, DWORD PTR _this$[ebp]
	mov	ecx, DWORD PTR [eax+4]
	shl	ecx, 4
	mov	edx, DWORD PTR _this$[ebp]
	add	ecx, DWORD PTR [edx]
	push	ecx
	push	16					; 00000010H
	call	??2@YAPAXIPAX@Z				; operator new
	add	esp, 8
	mov	DWORD PTR $T1[ebp], eax

; 747  : 
; 748  :     // Assign
; 749  :     m_pData[m_nSize] = value;

	mov	eax, DWORD PTR _this$[ebp]
	mov	ecx, DWORD PTR [eax+4]
	shl	ecx, 4
	mov	edx, DWORD PTR _this$[ebp]
	mov	eax, DWORD PTR [edx]
	add	eax, ecx
	mov	ecx, DWORD PTR _value$[ebp]
	mov	edx, DWORD PTR [ecx]
	mov	DWORD PTR [eax], edx
	mov	edx, DWORD PTR [ecx+4]
	mov	DWORD PTR [eax+4], edx
	mov	edx, DWORD PTR [ecx+8]
	mov	DWORD PTR [eax+8], edx
	mov	ecx, DWORD PTR [ecx+12]
	mov	DWORD PTR [eax+12], ecx

; 750  :     ++m_nSize;

	mov	eax, DWORD PTR _this$[ebp]
	mov	ecx, DWORD PTR [eax+4]
	add	ecx, 1
	mov	edx, DWORD PTR _this$[ebp]
	mov	DWORD PTR [edx+4], ecx

; 751  : 
; 752  :     return S_OK;

	xor	eax, eax
$LN2@Add:

; 753  : }

	pop	edi
	pop	esi
	pop	ebx
	add	esp, 228				; 000000e4H
	cmp	ebp, esp
	call	__RTC_CheckEsp
	mov	esp, ebp
	pop	ebp
	ret	4
?Add@?$CGrowableArray@U_D3DDISPLAYMODE@@@@QAEJABU_D3DDISPLAYMODE@@@Z ENDP ; CGrowableArray<_D3DDISPLAYMODE>::Add
_TEXT	ENDS
; Function compile flags: /Odtp /RTCsu /ZI
; File z:\sampsrc\02xu1\saco\d3d9\common\dxutmisc.h
;	COMDAT ?SetSize@?$CGrowableArray@U_D3DDISPLAYMODE@@@@QAEJH@Z
_TEXT	SEGMENT
$T1 = -260						; size = 4
_i$2 = -56						; size = 4
_hr$ = -44						; size = 4
_i$3 = -32						; size = 4
_nOldSize$ = -20					; size = 4
_this$ = -8						; size = 4
_nNewMaxSize$ = 8					; size = 4
?SetSize@?$CGrowableArray@U_D3DDISPLAYMODE@@@@QAEJH@Z PROC ; CGrowableArray<_D3DDISPLAYMODE>::SetSize, COMDAT
; _this$ = ecx

; 710  : {

	push	ebp
	mov	ebp, esp
	sub	esp, 264				; 00000108H
	push	ebx
	push	esi
	push	edi
	push	ecx
	lea	edi, DWORD PTR [ebp-264]
	mov	ecx, 66					; 00000042H
	mov	eax, -858993460				; ccccccccH
	rep stosd
	pop	ecx
	mov	DWORD PTR _this$[ebp], ecx

; 711  :     int nOldSize = m_nSize;

	mov	eax, DWORD PTR _this$[ebp]
	mov	ecx, DWORD PTR [eax+4]
	mov	DWORD PTR _nOldSize$[ebp], ecx

; 712  : 
; 713  :     if( nOldSize > nNewMaxSize )

	mov	eax, DWORD PTR _nOldSize$[ebp]
	cmp	eax, DWORD PTR _nNewMaxSize$[ebp]
	jle	SHORT $LN8@SetSize

; 714  :     {
; 715  :         // Removing elements. Call dtor.
; 716  : 
; 717  :         for( int i = nNewMaxSize; i < nOldSize; ++i )

	mov	eax, DWORD PTR _nNewMaxSize$[ebp]
	mov	DWORD PTR _i$3[ebp], eax
	jmp	SHORT $LN7@SetSize
$LN6@SetSize:
	mov	eax, DWORD PTR _i$3[ebp]
	add	eax, 1
	mov	DWORD PTR _i$3[ebp], eax
$LN7@SetSize:
	mov	eax, DWORD PTR _i$3[ebp]
	cmp	eax, DWORD PTR _nOldSize$[ebp]
	jge	SHORT $LN8@SetSize

; 718  :             m_pData[i].~TYPE();

	jmp	SHORT $LN6@SetSize
$LN8@SetSize:

; 719  :     }
; 720  : 
; 721  :     // Adjust buffer.  Note that there's no need to check for error
; 722  :     // since if it happens, nOldSize == nNewMaxSize will be true.)
; 723  :     HRESULT hr = SetSizeInternal( nNewMaxSize );

	mov	eax, DWORD PTR _nNewMaxSize$[ebp]
	push	eax
	mov	ecx, DWORD PTR _this$[ebp]
	call	?SetSizeInternal@?$CGrowableArray@U_D3DDISPLAYMODE@@@@IAEJH@Z ; CGrowableArray<_D3DDISPLAYMODE>::SetSizeInternal
	mov	DWORD PTR _hr$[ebp], eax

; 724  : 
; 725  :     if( nOldSize < nNewMaxSize )

	mov	eax, DWORD PTR _nOldSize$[ebp]
	cmp	eax, DWORD PTR _nNewMaxSize$[ebp]
	jge	SHORT $LN4@SetSize

; 726  :     {
; 727  :         // Adding elements. Call ctor.
; 728  : 
; 729  :         for( int i = nOldSize; i < nNewMaxSize; ++i )

	mov	eax, DWORD PTR _nOldSize$[ebp]
	mov	DWORD PTR _i$2[ebp], eax
	jmp	SHORT $LN3@SetSize
$LN2@SetSize:
	mov	eax, DWORD PTR _i$2[ebp]
	add	eax, 1
	mov	DWORD PTR _i$2[ebp], eax
$LN3@SetSize:
	mov	eax, DWORD PTR _i$2[ebp]
	cmp	eax, DWORD PTR _nNewMaxSize$[ebp]
	jge	SHORT $LN4@SetSize

; 730  :             ::new (&m_pData[i]) TYPE;

	mov	eax, DWORD PTR _i$2[ebp]
	shl	eax, 4
	mov	ecx, DWORD PTR _this$[ebp]
	add	eax, DWORD PTR [ecx]
	push	eax
	push	16					; 00000010H
	call	??2@YAPAXIPAX@Z				; operator new
	add	esp, 8
	mov	DWORD PTR $T1[ebp], eax
	jmp	SHORT $LN2@SetSize
$LN4@SetSize:

; 731  :     }
; 732  : 
; 733  :     return hr;

	mov	eax, DWORD PTR _hr$[ebp]

; 734  : }

	pop	edi
	pop	esi
	pop	ebx
	add	esp, 264				; 00000108H
	cmp	ebp, esp
	call	__RTC_CheckEsp
	mov	esp, ebp
	pop	ebp
	ret	4
?SetSize@?$CGrowableArray@U_D3DDISPLAYMODE@@@@QAEJH@Z ENDP ; CGrowableArray<_D3DDISPLAYMODE>::SetSize
_TEXT	ENDS
; Function compile flags: /Odtp /RTCsu /ZI
; File z:\sampsrc\02xu1\saco\d3d9\common\dxutmisc.h
;	COMDAT ??1?$CGrowableArray@U_D3DDISPLAYMODE@@@@QAE@XZ
_TEXT	SEGMENT
_this$ = -8						; size = 4
??1?$CGrowableArray@U_D3DDISPLAYMODE@@@@QAE@XZ PROC	; CGrowableArray<_D3DDISPLAYMODE>::~CGrowableArray<_D3DDISPLAYMODE>, COMDAT
; _this$ = ecx

; 22   :     ~CGrowableArray() { RemoveAll(); }

	push	ebp
	mov	ebp, esp
	sub	esp, 204				; 000000ccH
	push	ebx
	push	esi
	push	edi
	push	ecx
	lea	edi, DWORD PTR [ebp-204]
	mov	ecx, 51					; 00000033H
	mov	eax, -858993460				; ccccccccH
	rep stosd
	pop	ecx
	mov	DWORD PTR _this$[ebp], ecx
	mov	ecx, DWORD PTR _this$[ebp]
	call	?RemoveAll@?$CGrowableArray@U_D3DDISPLAYMODE@@@@QAEXXZ ; CGrowableArray<_D3DDISPLAYMODE>::RemoveAll
	pop	edi
	pop	esi
	pop	ebx
	add	esp, 204				; 000000ccH
	cmp	ebp, esp
	call	__RTC_CheckEsp
	mov	esp, ebp
	pop	ebp
	ret	0
??1?$CGrowableArray@U_D3DDISPLAYMODE@@@@QAE@XZ ENDP	; CGrowableArray<_D3DDISPLAYMODE>::~CGrowableArray<_D3DDISPLAYMODE>
_TEXT	ENDS
; Function compile flags: /Odtp /RTCsu /ZI
; File z:\sampsrc\02xu1\saco\d3d9\common\dxutmisc.h
;	COMDAT ??0?$CGrowableArray@U_D3DDISPLAYMODE@@@@QAE@XZ
_TEXT	SEGMENT
_this$ = -8						; size = 4
??0?$CGrowableArray@U_D3DDISPLAYMODE@@@@QAE@XZ PROC	; CGrowableArray<_D3DDISPLAYMODE>::CGrowableArray<_D3DDISPLAYMODE>, COMDAT
; _this$ = ecx

; 20   :     CGrowableArray()  { m_pData = NULL; m_nSize = 0; m_nMaxSize = 0; }

	push	ebp
	mov	ebp, esp
	sub	esp, 204				; 000000ccH
	push	ebx
	push	esi
	push	edi
	push	ecx
	lea	edi, DWORD PTR [ebp-204]
	mov	ecx, 51					; 00000033H
	mov	eax, -858993460				; ccccccccH
	rep stosd
	pop	ecx
	mov	DWORD PTR _this$[ebp], ecx
	mov	eax, DWORD PTR _this$[ebp]
	mov	DWORD PTR [eax], 0
	mov	eax, DWORD PTR _this$[ebp]
	mov	DWORD PTR [eax+4], 0
	mov	eax, DWORD PTR _this$[ebp]
	mov	DWORD PTR [eax+8], 0
	mov	eax, DWORD PTR _this$[ebp]
	pop	edi
	pop	esi
	pop	ebx
	mov	esp, ebp
	pop	ebp
	ret	0
??0?$CGrowableArray@U_D3DDISPLAYMODE@@@@QAE@XZ ENDP	; CGrowableArray<_D3DDISPLAYMODE>::CGrowableArray<_D3DDISPLAYMODE>
_TEXT	ENDS
; Function compile flags: /Odtp /RTCsu /ZI
; File z:\sampsrc\02xu1\saco\d3d9\common\dxutenum.cpp
;	COMDAT ??1CD3DEnumAdapterInfo@@QAE@XZ
_TEXT	SEGMENT
tv81 = -268						; size = 4
$T2 = -260						; size = 4
$T3 = -248						; size = 4
_i$4 = -44						; size = 4
_pDeviceInfo$ = -32					; size = 4
_this$ = -20						; size = 4
__$EHRec$ = -12						; size = 12
??1CD3DEnumAdapterInfo@@QAE@XZ PROC			; CD3DEnumAdapterInfo::~CD3DEnumAdapterInfo, COMDAT
; _this$ = ecx

; 728  : {

	push	ebp
	mov	ebp, esp
	push	-1
	push	__ehhandler$??1CD3DEnumAdapterInfo@@QAE@XZ
	mov	eax, DWORD PTR fs:0
	push	eax
	sub	esp, 256				; 00000100H
	push	ebx
	push	esi
	push	edi
	push	ecx
	lea	edi, DWORD PTR [ebp-268]
	mov	ecx, 64					; 00000040H
	mov	eax, -858993460				; ccccccccH
	rep stosd
	pop	ecx
	mov	eax, DWORD PTR ___security_cookie
	xor	eax, ebp
	push	eax
	lea	eax, DWORD PTR __$EHRec$[ebp]
	mov	DWORD PTR fs:0, eax
	mov	DWORD PTR _this$[ebp], ecx
	mov	DWORD PTR __$EHRec$[ebp+8], 1

; 729  :     CD3DEnumDeviceInfo* pDeviceInfo;
; 730  :     for( int i=0; i<deviceInfoList.GetSize(); i++ )

	mov	DWORD PTR _i$4[ebp], 0
	jmp	SHORT $LN3@CD3DEnumAd
$LN2@CD3DEnumAd:
	mov	eax, DWORD PTR _i$4[ebp]
	add	eax, 1
	mov	DWORD PTR _i$4[ebp], eax
$LN3@CD3DEnumAd:
	mov	ecx, DWORD PTR _this$[ebp]
	add	ecx, 1372				; 0000055cH
	call	?GetSize@?$CGrowableArray@PAVCD3DEnumDeviceInfo@@@@QBEHXZ ; CGrowableArray<CD3DEnumDeviceInfo *>::GetSize
	cmp	DWORD PTR _i$4[ebp], eax
	jge	SHORT $LN1@CD3DEnumAd

; 731  :     {
; 732  :         pDeviceInfo = deviceInfoList.GetAt(i);

	mov	eax, DWORD PTR _i$4[ebp]
	push	eax
	mov	ecx, DWORD PTR _this$[ebp]
	add	ecx, 1372				; 0000055cH
	call	?GetAt@?$CGrowableArray@PAVCD3DEnumDeviceInfo@@@@QAEAAPAVCD3DEnumDeviceInfo@@H@Z ; CGrowableArray<CD3DEnumDeviceInfo *>::GetAt
	mov	ecx, DWORD PTR [eax]
	mov	DWORD PTR _pDeviceInfo$[ebp], ecx

; 733  :         delete pDeviceInfo;

	mov	eax, DWORD PTR _pDeviceInfo$[ebp]
	mov	DWORD PTR $T3[ebp], eax
	mov	ecx, DWORD PTR $T3[ebp]
	mov	DWORD PTR $T2[ebp], ecx
	cmp	DWORD PTR $T2[ebp], 0
	je	SHORT $LN6@CD3DEnumAd
	push	1
	mov	ecx, DWORD PTR $T2[ebp]
	call	??_GCD3DEnumDeviceInfo@@QAEPAXI@Z
	mov	DWORD PTR tv81[ebp], eax
	jmp	SHORT $LN7@CD3DEnumAd
$LN6@CD3DEnumAd:
	mov	DWORD PTR tv81[ebp], 0
$LN7@CD3DEnumAd:

; 734  :     }

	jmp	SHORT $LN2@CD3DEnumAd
$LN1@CD3DEnumAd:

; 735  :     deviceInfoList.RemoveAll();

	mov	ecx, DWORD PTR _this$[ebp]
	add	ecx, 1372				; 0000055cH
	call	?RemoveAll@?$CGrowableArray@PAVCD3DEnumDeviceInfo@@@@QAEXXZ ; CGrowableArray<CD3DEnumDeviceInfo *>::RemoveAll

; 736  : }

	mov	BYTE PTR __$EHRec$[ebp+8], 0
	mov	ecx, DWORD PTR _this$[ebp]
	add	ecx, 1372				; 0000055cH
	call	??1?$CGrowableArray@PAVCD3DEnumDeviceInfo@@@@QAE@XZ ; CGrowableArray<CD3DEnumDeviceInfo *>::~CGrowableArray<CD3DEnumDeviceInfo *>
	mov	DWORD PTR __$EHRec$[ebp+8], -1
	mov	ecx, DWORD PTR _this$[ebp]
	add	ecx, 1360				; 00000550H
	call	??1?$CGrowableArray@U_D3DDISPLAYMODE@@@@QAE@XZ ; CGrowableArray<_D3DDISPLAYMODE>::~CGrowableArray<_D3DDISPLAYMODE>
	mov	ecx, DWORD PTR __$EHRec$[ebp]
	mov	DWORD PTR fs:0, ecx
	pop	ecx
	pop	edi
	pop	esi
	pop	ebx
	add	esp, 268				; 0000010cH
	cmp	ebp, esp
	call	__RTC_CheckEsp
	mov	esp, ebp
	pop	ebp
	ret	0
_TEXT	ENDS
;	COMDAT text$x
text$x	SEGMENT
__unwindfunclet$??1CD3DEnumAdapterInfo@@QAE@XZ$0:
	mov	ecx, DWORD PTR _this$[ebp]
	add	ecx, 1360				; 00000550H
	jmp	??1?$CGrowableArray@U_D3DDISPLAYMODE@@@@QAE@XZ ; CGrowableArray<_D3DDISPLAYMODE>::~CGrowableArray<_D3DDISPLAYMODE>
__unwindfunclet$??1CD3DEnumAdapterInfo@@QAE@XZ$1:
	mov	ecx, DWORD PTR _this$[ebp]
	add	ecx, 1372				; 0000055cH
	jmp	??1?$CGrowableArray@PAVCD3DEnumDeviceInfo@@@@QAE@XZ ; CGrowableArray<CD3DEnumDeviceInfo *>::~CGrowableArray<CD3DEnumDeviceInfo *>
__ehhandler$??1CD3DEnumAdapterInfo@@QAE@XZ:
	mov	edx, DWORD PTR [esp+8]
	lea	eax, DWORD PTR [edx+12]
	mov	ecx, DWORD PTR [edx-272]
	xor	ecx, eax
	call	@__security_check_cookie@4
	mov	eax, OFFSET __ehfuncinfo$??1CD3DEnumAdapterInfo@@QAE@XZ
	jmp	___CxxFrameHandler3
text$x	ENDS
??1CD3DEnumAdapterInfo@@QAE@XZ ENDP			; CD3DEnumAdapterInfo::~CD3DEnumAdapterInfo
; Function compile flags: /Odtp /RTCsu /ZI
; File z:\sampsrc\02xu1\saco\d3d9\common\dxutenum.cpp
;	COMDAT ?ClearAdapterInfoList@CD3DEnumeration@@AAEXXZ
_TEXT	SEGMENT
tv77 = -256						; size = 4
$T1 = -248						; size = 4
$T2 = -236						; size = 4
_i$3 = -32						; size = 4
_pAdapterInfo$ = -20					; size = 4
_this$ = -8						; size = 4
?ClearAdapterInfoList@CD3DEnumeration@@AAEXXZ PROC	; CD3DEnumeration::ClearAdapterInfoList, COMDAT
; _this$ = ecx

; 470  : {

	push	ebp
	mov	ebp, esp
	sub	esp, 256				; 00000100H
	push	ebx
	push	esi
	push	edi
	push	ecx
	lea	edi, DWORD PTR [ebp-256]
	mov	ecx, 64					; 00000040H
	mov	eax, -858993460				; ccccccccH
	rep stosd
	pop	ecx
	mov	DWORD PTR _this$[ebp], ecx

; 471  :     CD3DEnumAdapterInfo* pAdapterInfo;
; 472  :     for( int i=0; i<m_AdapterInfoList.GetSize(); i++ )

	mov	DWORD PTR _i$3[ebp], 0
	jmp	SHORT $LN3@ClearAdapt
$LN2@ClearAdapt:
	mov	eax, DWORD PTR _i$3[ebp]
	add	eax, 1
	mov	DWORD PTR _i$3[ebp], eax
$LN3@ClearAdapt:
	mov	ecx, DWORD PTR _this$[ebp]
	add	ecx, 81					; 00000051H
	call	?GetSize@?$CGrowableArray@PAVCD3DEnumAdapterInfo@@@@QBEHXZ ; CGrowableArray<CD3DEnumAdapterInfo *>::GetSize
	cmp	DWORD PTR _i$3[ebp], eax
	jge	SHORT $LN1@ClearAdapt

; 473  :     {
; 474  :         pAdapterInfo = m_AdapterInfoList.GetAt(i);

	mov	eax, DWORD PTR _i$3[ebp]
	push	eax
	mov	ecx, DWORD PTR _this$[ebp]
	add	ecx, 81					; 00000051H
	call	?GetAt@?$CGrowableArray@PAVCD3DEnumAdapterInfo@@@@QAEAAPAVCD3DEnumAdapterInfo@@H@Z ; CGrowableArray<CD3DEnumAdapterInfo *>::GetAt
	mov	ecx, DWORD PTR [eax]
	mov	DWORD PTR _pAdapterInfo$[ebp], ecx

; 475  :         delete pAdapterInfo;

	mov	eax, DWORD PTR _pAdapterInfo$[ebp]
	mov	DWORD PTR $T2[ebp], eax
	mov	ecx, DWORD PTR $T2[ebp]
	mov	DWORD PTR $T1[ebp], ecx
	cmp	DWORD PTR $T1[ebp], 0
	je	SHORT $LN6@ClearAdapt
	push	1
	mov	ecx, DWORD PTR $T1[ebp]
	call	??_GCD3DEnumAdapterInfo@@QAEPAXI@Z
	mov	DWORD PTR tv77[ebp], eax
	jmp	SHORT $LN7@ClearAdapt
$LN6@ClearAdapt:
	mov	DWORD PTR tv77[ebp], 0
$LN7@ClearAdapt:

; 476  :     }

	jmp	SHORT $LN2@ClearAdapt
$LN1@ClearAdapt:

; 477  : 
; 478  :     m_AdapterInfoList.RemoveAll();

	mov	ecx, DWORD PTR _this$[ebp]
	add	ecx, 81					; 00000051H
	call	?RemoveAll@?$CGrowableArray@PAVCD3DEnumAdapterInfo@@@@QAEXXZ ; CGrowableArray<CD3DEnumAdapterInfo *>::RemoveAll

; 479  : }

	pop	edi
	pop	esi
	pop	ebx
	add	esp, 256				; 00000100H
	cmp	ebp, esp
	call	__RTC_CheckEsp
	mov	esp, ebp
	pop	ebp
	ret	0
?ClearAdapterInfoList@CD3DEnumeration@@AAEXXZ ENDP	; CD3DEnumeration::ClearAdapterInfoList
_TEXT	ENDS
; Function compile flags: /Odtp /RTCsu /ZI
; File z:\sampsrc\02xu1\saco\d3d9\common\dxutenum.cpp
;	COMDAT ?BuildPresentIntervalList@CD3DEnumeration@@AAEXPAVCD3DEnumDeviceInfo@@PAUCD3DEnumDeviceSettingsCombo@@@Z
_TEXT	SEGMENT
_ipi$1 = -32						; size = 4
_pi$ = -20						; size = 4
_this$ = -8						; size = 4
_pDeviceInfo$ = 8					; size = 4
_pDeviceCombo$ = 12					; size = 4
?BuildPresentIntervalList@CD3DEnumeration@@AAEXPAVCD3DEnumDeviceInfo@@PAUCD3DEnumDeviceSettingsCombo@@@Z PROC ; CD3DEnumeration::BuildPresentIntervalList, COMDAT
; _this$ = ecx

; 439  : {

	push	ebp
	mov	ebp, esp
	sub	esp, 228				; 000000e4H
	push	ebx
	push	esi
	push	edi
	push	ecx
	lea	edi, DWORD PTR [ebp-228]
	mov	ecx, 57					; 00000039H
	mov	eax, -858993460				; ccccccccH
	rep stosd
	pop	ecx
	mov	DWORD PTR _this$[ebp], ecx

; 440  :     UINT pi;
; 441  :     for( int ipi = 0; ipi < m_PresentIntervalList.GetSize(); ipi++ )

	mov	DWORD PTR _ipi$1[ebp], 0
	jmp	SHORT $LN8@BuildPrese
$LN7@BuildPrese:
	mov	eax, DWORD PTR _ipi$1[ebp]
	add	eax, 1
	mov	DWORD PTR _ipi$1[ebp], eax
$LN8@BuildPrese:
	mov	ecx, DWORD PTR _this$[ebp]
	add	ecx, 37					; 00000025H
	call	?GetSize@?$CGrowableArray@I@@QBEHXZ	; CGrowableArray<unsigned int>::GetSize
	cmp	DWORD PTR _ipi$1[ebp], eax
	jge	SHORT $LN9@BuildPrese

; 442  :     {
; 443  :         pi = m_PresentIntervalList.GetAt(ipi);

	mov	eax, DWORD PTR _ipi$1[ebp]
	push	eax
	mov	ecx, DWORD PTR _this$[ebp]
	add	ecx, 37					; 00000025H
	call	?GetAt@?$CGrowableArray@I@@QAEAAIH@Z	; CGrowableArray<unsigned int>::GetAt
	mov	ecx, DWORD PTR [eax]
	mov	DWORD PTR _pi$[ebp], ecx

; 444  :         if( pDeviceCombo->Windowed )

	mov	eax, DWORD PTR _pDeviceCombo$[ebp]
	cmp	DWORD PTR [eax+16], 0
	je	SHORT $LN5@BuildPrese

; 445  :         {
; 446  :             if( pi == D3DPRESENT_INTERVAL_TWO ||
; 447  :                 pi == D3DPRESENT_INTERVAL_THREE ||
; 448  :                 pi == D3DPRESENT_INTERVAL_FOUR )

	cmp	DWORD PTR _pi$[ebp], 2
	je	SHORT $LN3@BuildPrese
	cmp	DWORD PTR _pi$[ebp], 4
	je	SHORT $LN3@BuildPrese
	cmp	DWORD PTR _pi$[ebp], 8
	jne	SHORT $LN5@BuildPrese
$LN3@BuildPrese:

; 449  :             {
; 450  :                 // These intervals are not supported in windowed mode.
; 451  :                 continue;

	jmp	SHORT $LN7@BuildPrese
$LN5@BuildPrese:

; 452  :             }
; 453  :         }
; 454  :         // Note that D3DPRESENT_INTERVAL_DEFAULT is zero, so you
; 455  :         // can't do a caps check for it -- it is always available.
; 456  :         if( pi == D3DPRESENT_INTERVAL_DEFAULT ||
; 457  :             (pDeviceInfo->Caps.PresentationIntervals & pi) )

	cmp	DWORD PTR _pi$[ebp], 0
	je	SHORT $LN1@BuildPrese
	mov	eax, DWORD PTR _pDeviceInfo$[ebp]
	mov	ecx, DWORD PTR [eax+28]
	and	ecx, DWORD PTR _pi$[ebp]
	je	SHORT $LN2@BuildPrese
$LN1@BuildPrese:

; 458  :         {
; 459  :             pDeviceCombo->presentIntervalList.Add( pi );

	lea	eax, DWORD PTR _pi$[ebp]
	push	eax
	mov	ecx, DWORD PTR _pDeviceCombo$[ebp]
	add	ecx, 56					; 00000038H
	call	?Add@?$CGrowableArray@I@@QAEJABI@Z	; CGrowableArray<unsigned int>::Add
$LN2@BuildPrese:

; 460  :         }
; 461  :     }

	jmp	SHORT $LN7@BuildPrese
$LN9@BuildPrese:

; 462  : }

	push	edx
	mov	ecx, ebp
	push	eax
	lea	edx, DWORD PTR $LN13@BuildPrese
	call	@_RTC_CheckStackVars@8
	pop	eax
	pop	edx
	pop	edi
	pop	esi
	pop	ebx
	add	esp, 228				; 000000e4H
	cmp	ebp, esp
	call	__RTC_CheckEsp
	mov	esp, ebp
	pop	ebp
	ret	8
	npad	1
$LN13@BuildPrese:
	DD	1
	DD	$LN12@BuildPrese
$LN12@BuildPrese:
	DD	-20					; ffffffecH
	DD	4
	DD	$LN11@BuildPrese
$LN11@BuildPrese:
	DB	112					; 00000070H
	DB	105					; 00000069H
	DB	0
?BuildPresentIntervalList@CD3DEnumeration@@AAEXPAVCD3DEnumDeviceInfo@@PAUCD3DEnumDeviceSettingsCombo@@@Z ENDP ; CD3DEnumeration::BuildPresentIntervalList
_TEXT	ENDS
; Function compile flags: /Odtp /RTCsu /ZI
; File z:\sampsrc\02xu1\saco\d3d9\common\dxutenum.cpp
;	COMDAT ?BuildDSMSConflictList@CD3DEnumeration@@AAEXPAUCD3DEnumDeviceSettingsCombo@@@Z
_TEXT	SEGMENT
_msType$1 = -72						; size = 4
_iMS$2 = -60						; size = 4
_dsFmt$3 = -48						; size = 4
_iDS$4 = -36						; size = 4
_DSMSConflict$ = -24					; size = 8
_this$ = -8						; size = 4
_pDeviceCombo$ = 8					; size = 4
?BuildDSMSConflictList@CD3DEnumeration@@AAEXPAUCD3DEnumDeviceSettingsCombo@@@Z PROC ; CD3DEnumeration::BuildDSMSConflictList, COMDAT
; _this$ = ecx

; 409  : {

	push	ebp
	mov	ebp, esp
	sub	esp, 268				; 0000010cH
	push	ebx
	push	esi
	push	edi
	push	ecx
	lea	edi, DWORD PTR [ebp-268]
	mov	ecx, 67					; 00000043H
	mov	eax, -858993460				; ccccccccH
	rep stosd
	pop	ecx
	mov	DWORD PTR _this$[ebp], ecx

; 410  :     CD3DEnumDSMSConflict DSMSConflict;
; 411  : 
; 412  :     for( int iDS=0; iDS<pDeviceCombo->depthStencilFormatList.GetSize(); iDS++ )

	mov	DWORD PTR _iDS$4[ebp], 0
	jmp	SHORT $LN7@BuildDSMSC
$LN6@BuildDSMSC:
	mov	eax, DWORD PTR _iDS$4[ebp]
	add	eax, 1
	mov	DWORD PTR _iDS$4[ebp], eax
$LN7@BuildDSMSC:
	mov	ecx, DWORD PTR _pDeviceCombo$[ebp]
	add	ecx, 20					; 00000014H
	call	?GetSize@?$CGrowableArray@W4_D3DFORMAT@@@@QBEHXZ ; CGrowableArray<enum _D3DFORMAT>::GetSize
	cmp	DWORD PTR _iDS$4[ebp], eax
	jge	$LN8@BuildDSMSC

; 413  :     {
; 414  :         D3DFORMAT dsFmt = pDeviceCombo->depthStencilFormatList.GetAt(iDS);

	mov	eax, DWORD PTR _iDS$4[ebp]
	push	eax
	mov	ecx, DWORD PTR _pDeviceCombo$[ebp]
	add	ecx, 20					; 00000014H
	call	?GetAt@?$CGrowableArray@W4_D3DFORMAT@@@@QAEAAW4_D3DFORMAT@@H@Z ; CGrowableArray<enum _D3DFORMAT>::GetAt
	mov	ecx, DWORD PTR [eax]
	mov	DWORD PTR _dsFmt$3[ebp], ecx

; 415  : 
; 416  :         for( int iMS=0; iMS<pDeviceCombo->multiSampleTypeList.GetSize(); iMS++ )

	mov	DWORD PTR _iMS$2[ebp], 0
	jmp	SHORT $LN4@BuildDSMSC
$LN3@BuildDSMSC:
	mov	eax, DWORD PTR _iMS$2[ebp]
	add	eax, 1
	mov	DWORD PTR _iMS$2[ebp], eax
$LN4@BuildDSMSC:
	mov	ecx, DWORD PTR _pDeviceCombo$[ebp]
	add	ecx, 32					; 00000020H
	call	?GetSize@?$CGrowableArray@W4_D3DMULTISAMPLE_TYPE@@@@QBEHXZ ; CGrowableArray<enum _D3DMULTISAMPLE_TYPE>::GetSize
	cmp	DWORD PTR _iMS$2[ebp], eax
	jge	SHORT $LN2@BuildDSMSC

; 417  :         {
; 418  :             D3DMULTISAMPLE_TYPE msType = pDeviceCombo->multiSampleTypeList.GetAt(iMS);

	mov	eax, DWORD PTR _iMS$2[ebp]
	push	eax
	mov	ecx, DWORD PTR _pDeviceCombo$[ebp]
	add	ecx, 32					; 00000020H
	call	?GetAt@?$CGrowableArray@W4_D3DMULTISAMPLE_TYPE@@@@QAEAAW4_D3DMULTISAMPLE_TYPE@@H@Z ; CGrowableArray<enum _D3DMULTISAMPLE_TYPE>::GetAt
	mov	ecx, DWORD PTR [eax]
	mov	DWORD PTR _msType$1[ebp], ecx

; 419  : 
; 420  :             if( FAILED( m_pD3D->CheckDeviceMultiSampleType( pDeviceCombo->AdapterOrdinal, pDeviceCombo->DeviceType,
; 421  :                                                             dsFmt, pDeviceCombo->Windowed, msType, NULL ) ) )

	mov	esi, esp
	push	0
	mov	eax, DWORD PTR _msType$1[ebp]
	push	eax
	mov	ecx, DWORD PTR _pDeviceCombo$[ebp]
	mov	edx, DWORD PTR [ecx+16]
	push	edx
	mov	eax, DWORD PTR _dsFmt$3[ebp]
	push	eax
	mov	ecx, DWORD PTR _pDeviceCombo$[ebp]
	mov	edx, DWORD PTR [ecx+4]
	push	edx
	mov	eax, DWORD PTR _pDeviceCombo$[ebp]
	mov	ecx, DWORD PTR [eax]
	push	ecx
	mov	edx, DWORD PTR _this$[ebp]
	mov	eax, DWORD PTR [edx]
	mov	ecx, DWORD PTR _this$[ebp]
	mov	edx, DWORD PTR [ecx]
	mov	eax, DWORD PTR [eax]
	push	edx
	mov	ecx, DWORD PTR [eax+44]
	call	ecx
	cmp	esi, esp
	call	__RTC_CheckEsp
	test	eax, eax
	jge	SHORT $LN1@BuildDSMSC

; 422  :             {
; 423  :                 DSMSConflict.DSFormat = dsFmt;

	mov	eax, DWORD PTR _dsFmt$3[ebp]
	mov	DWORD PTR _DSMSConflict$[ebp], eax

; 424  :                 DSMSConflict.MSType = msType;

	mov	eax, DWORD PTR _msType$1[ebp]
	mov	DWORD PTR _DSMSConflict$[ebp+4], eax

; 425  :                 pDeviceCombo->DSMSConflictList.Add( DSMSConflict );

	lea	eax, DWORD PTR _DSMSConflict$[ebp]
	push	eax
	mov	ecx, DWORD PTR _pDeviceCombo$[ebp]
	add	ecx, 68					; 00000044H
	call	?Add@?$CGrowableArray@UCD3DEnumDSMSConflict@@@@QAEJABUCD3DEnumDSMSConflict@@@Z ; CGrowableArray<CD3DEnumDSMSConflict>::Add
$LN1@BuildDSMSC:

; 426  :             }
; 427  :         }

	jmp	$LN3@BuildDSMSC
$LN2@BuildDSMSC:

; 428  :     }

	jmp	$LN6@BuildDSMSC
$LN8@BuildDSMSC:

; 429  : }

	push	edx
	mov	ecx, ebp
	push	eax
	lea	edx, DWORD PTR $LN12@BuildDSMSC
	call	@_RTC_CheckStackVars@8
	pop	eax
	pop	edx
	pop	edi
	pop	esi
	pop	ebx
	add	esp, 268				; 0000010cH
	cmp	ebp, esp
	call	__RTC_CheckEsp
	mov	esp, ebp
	pop	ebp
	ret	4
$LN12@BuildDSMSC:
	DD	1
	DD	$LN11@BuildDSMSC
$LN11@BuildDSMSC:
	DD	-24					; ffffffe8H
	DD	8
	DD	$LN10@BuildDSMSC
$LN10@BuildDSMSC:
	DB	68					; 00000044H
	DB	83					; 00000053H
	DB	77					; 0000004dH
	DB	83					; 00000053H
	DB	67					; 00000043H
	DB	111					; 0000006fH
	DB	110					; 0000006eH
	DB	102					; 00000066H
	DB	108					; 0000006cH
	DB	105					; 00000069H
	DB	99					; 00000063H
	DB	116					; 00000074H
	DB	0
?BuildDSMSConflictList@CD3DEnumeration@@AAEXPAUCD3DEnumDeviceSettingsCombo@@@Z ENDP ; CD3DEnumeration::BuildDSMSConflictList
_TEXT	ENDS
; Function compile flags: /Odtp /RTCsu /ZI
; File z:\sampsrc\02xu1\saco\d3d9\common\dxutenum.cpp
;	COMDAT ?BuildMultiSampleTypeList@CD3DEnumeration@@AAEXPAUCD3DEnumDeviceSettingsCombo@@@Z
_TEXT	SEGMENT
_imst$1 = -44						; size = 4
_msQuality$ = -32					; size = 4
_msType$ = -20						; size = 4
_this$ = -8						; size = 4
_pDeviceCombo$ = 8					; size = 4
?BuildMultiSampleTypeList@CD3DEnumeration@@AAEXPAUCD3DEnumDeviceSettingsCombo@@@Z PROC ; CD3DEnumeration::BuildMultiSampleTypeList, COMDAT
; _this$ = ecx

; 383  : {

	push	ebp
	mov	ebp, esp
	sub	esp, 240				; 000000f0H
	push	ebx
	push	esi
	push	edi
	push	ecx
	lea	edi, DWORD PTR [ebp-240]
	mov	ecx, 60					; 0000003cH
	mov	eax, -858993460				; ccccccccH
	rep stosd
	pop	ecx
	mov	DWORD PTR _this$[ebp], ecx

; 384  :     D3DMULTISAMPLE_TYPE msType;
; 385  :     DWORD msQuality;
; 386  :     for( int imst = 0; imst < m_MultiSampleTypeList.GetSize(); imst++ )

	mov	DWORD PTR _imst$1[ebp], 0
	jmp	SHORT $LN5@BuildMulti
$LN4@BuildMulti:
	mov	eax, DWORD PTR _imst$1[ebp]
	add	eax, 1
	mov	DWORD PTR _imst$1[ebp], eax
$LN5@BuildMulti:
	mov	ecx, DWORD PTR _this$[ebp]
	add	ecx, 25					; 00000019H
	call	?GetSize@?$CGrowableArray@W4_D3DMULTISAMPLE_TYPE@@@@QBEHXZ ; CGrowableArray<enum _D3DMULTISAMPLE_TYPE>::GetSize
	cmp	DWORD PTR _imst$1[ebp], eax
	jge	$LN6@BuildMulti

; 387  :     {
; 388  :         msType = m_MultiSampleTypeList.GetAt(imst);

	mov	eax, DWORD PTR _imst$1[ebp]
	push	eax
	mov	ecx, DWORD PTR _this$[ebp]
	add	ecx, 25					; 00000019H
	call	?GetAt@?$CGrowableArray@W4_D3DMULTISAMPLE_TYPE@@@@QAEAAW4_D3DMULTISAMPLE_TYPE@@H@Z ; CGrowableArray<enum _D3DMULTISAMPLE_TYPE>::GetAt
	mov	ecx, DWORD PTR [eax]
	mov	DWORD PTR _msType$[ebp], ecx

; 389  :         if( SUCCEEDED( m_pD3D->CheckDeviceMultiSampleType( pDeviceCombo->AdapterOrdinal, 
; 390  :                 pDeviceCombo->DeviceType, pDeviceCombo->BackBufferFormat, 
; 391  :                 pDeviceCombo->Windowed, msType, &msQuality ) ) )

	mov	esi, esp
	lea	eax, DWORD PTR _msQuality$[ebp]
	push	eax
	mov	ecx, DWORD PTR _msType$[ebp]
	push	ecx
	mov	edx, DWORD PTR _pDeviceCombo$[ebp]
	mov	eax, DWORD PTR [edx+16]
	push	eax
	mov	ecx, DWORD PTR _pDeviceCombo$[ebp]
	mov	edx, DWORD PTR [ecx+12]
	push	edx
	mov	eax, DWORD PTR _pDeviceCombo$[ebp]
	mov	ecx, DWORD PTR [eax+4]
	push	ecx
	mov	edx, DWORD PTR _pDeviceCombo$[ebp]
	mov	eax, DWORD PTR [edx]
	push	eax
	mov	ecx, DWORD PTR _this$[ebp]
	mov	edx, DWORD PTR [ecx]
	mov	eax, DWORD PTR _this$[ebp]
	mov	ecx, DWORD PTR [eax]
	mov	edx, DWORD PTR [edx]
	push	ecx
	mov	eax, DWORD PTR [edx+44]
	call	eax
	cmp	esi, esp
	call	__RTC_CheckEsp
	test	eax, eax
	jl	SHORT $LN2@BuildMulti

; 392  :         {
; 393  :             pDeviceCombo->multiSampleTypeList.Add( msType );

	lea	eax, DWORD PTR _msType$[ebp]
	push	eax
	mov	ecx, DWORD PTR _pDeviceCombo$[ebp]
	add	ecx, 32					; 00000020H
	call	?Add@?$CGrowableArray@W4_D3DMULTISAMPLE_TYPE@@@@QAEJABW4_D3DMULTISAMPLE_TYPE@@@Z ; CGrowableArray<enum _D3DMULTISAMPLE_TYPE>::Add

; 394  :             if( msQuality > m_nMultisampleQualityMax+1 )

	mov	eax, DWORD PTR _this$[ebp]
	mov	ecx, DWORD PTR [eax+77]
	add	ecx, 1
	cmp	DWORD PTR _msQuality$[ebp], ecx
	jbe	SHORT $LN1@BuildMulti

; 395  :                 msQuality = m_nMultisampleQualityMax+1;

	mov	eax, DWORD PTR _this$[ebp]
	mov	ecx, DWORD PTR [eax+77]
	add	ecx, 1
	mov	DWORD PTR _msQuality$[ebp], ecx
$LN1@BuildMulti:

; 396  :             pDeviceCombo->multiSampleQualityList.Add( msQuality );

	lea	eax, DWORD PTR _msQuality$[ebp]
	push	eax
	mov	ecx, DWORD PTR _pDeviceCombo$[ebp]
	add	ecx, 44					; 0000002cH
	call	?Add@?$CGrowableArray@K@@QAEJABK@Z	; CGrowableArray<unsigned long>::Add
$LN2@BuildMulti:

; 397  :         }
; 398  :     }

	jmp	$LN4@BuildMulti
$LN6@BuildMulti:

; 399  : }

	push	edx
	mov	ecx, ebp
	push	eax
	lea	edx, DWORD PTR $LN11@BuildMulti
	call	@_RTC_CheckStackVars@8
	pop	eax
	pop	edx
	pop	edi
	pop	esi
	pop	ebx
	add	esp, 240				; 000000f0H
	cmp	ebp, esp
	call	__RTC_CheckEsp
	mov	esp, ebp
	pop	ebp
	ret	4
	npad	1
$LN11@BuildMulti:
	DD	2
	DD	$LN10@BuildMulti
$LN10@BuildMulti:
	DD	-20					; ffffffecH
	DD	4
	DD	$LN8@BuildMulti
	DD	-32					; ffffffe0H
	DD	4
	DD	$LN9@BuildMulti
$LN9@BuildMulti:
	DB	109					; 0000006dH
	DB	115					; 00000073H
	DB	81					; 00000051H
	DB	117					; 00000075H
	DB	97					; 00000061H
	DB	108					; 0000006cH
	DB	105					; 00000069H
	DB	116					; 00000074H
	DB	121					; 00000079H
	DB	0
$LN8@BuildMulti:
	DB	109					; 0000006dH
	DB	115					; 00000073H
	DB	84					; 00000054H
	DB	121					; 00000079H
	DB	112					; 00000070H
	DB	101					; 00000065H
	DB	0
?BuildMultiSampleTypeList@CD3DEnumeration@@AAEXPAUCD3DEnumDeviceSettingsCombo@@@Z ENDP ; CD3DEnumeration::BuildMultiSampleTypeList
_TEXT	ENDS
; Function compile flags: /Odtp /RTCsu /ZI
; File z:\sampsrc\02xu1\saco\d3d9\common\dxutenum.cpp
;	COMDAT ?BuildDepthStencilFormatList@CD3DEnumeration@@AAEXPAUCD3DEnumDeviceSettingsCombo@@@Z
_TEXT	SEGMENT
_idsf$1 = -32						; size = 4
_depthStencilFmt$ = -20					; size = 4
_this$ = -8						; size = 4
_pDeviceCombo$ = 8					; size = 4
?BuildDepthStencilFormatList@CD3DEnumeration@@AAEXPAUCD3DEnumDeviceSettingsCombo@@@Z PROC ; CD3DEnumeration::BuildDepthStencilFormatList, COMDAT
; _this$ = ecx

; 356  : {

	push	ebp
	mov	ebp, esp
	sub	esp, 228				; 000000e4H
	push	ebx
	push	esi
	push	edi
	push	ecx
	lea	edi, DWORD PTR [ebp-228]
	mov	ecx, 57					; 00000039H
	mov	eax, -858993460				; ccccccccH
	rep stosd
	pop	ecx
	mov	DWORD PTR _this$[ebp], ecx

; 357  :     D3DFORMAT depthStencilFmt;
; 358  :     for( int idsf = 0; idsf < m_DepthStecilPossibleList.GetSize(); idsf++ )

	mov	DWORD PTR _idsf$1[ebp], 0
	jmp	SHORT $LN5@BuildDepth
$LN4@BuildDepth:
	mov	eax, DWORD PTR _idsf$1[ebp]
	add	eax, 1
	mov	DWORD PTR _idsf$1[ebp], eax
$LN5@BuildDepth:
	mov	ecx, DWORD PTR _this$[ebp]
	add	ecx, 13					; 0000000dH
	call	?GetSize@?$CGrowableArray@W4_D3DFORMAT@@@@QBEHXZ ; CGrowableArray<enum _D3DFORMAT>::GetSize
	cmp	DWORD PTR _idsf$1[ebp], eax
	jge	$LN6@BuildDepth

; 359  :     {
; 360  :         depthStencilFmt = m_DepthStecilPossibleList.GetAt(idsf);

	mov	eax, DWORD PTR _idsf$1[ebp]
	push	eax
	mov	ecx, DWORD PTR _this$[ebp]
	add	ecx, 13					; 0000000dH
	call	?GetAt@?$CGrowableArray@W4_D3DFORMAT@@@@QAEAAW4_D3DFORMAT@@H@Z ; CGrowableArray<enum _D3DFORMAT>::GetAt
	mov	ecx, DWORD PTR [eax]
	mov	DWORD PTR _depthStencilFmt$[ebp], ecx

; 361  :         if (SUCCEEDED(m_pD3D->CheckDeviceFormat(pDeviceCombo->AdapterOrdinal, 
; 362  :                 pDeviceCombo->DeviceType, pDeviceCombo->AdapterFormat, 
; 363  :                 D3DUSAGE_DEPTHSTENCIL, D3DRTYPE_SURFACE, depthStencilFmt)))

	mov	esi, esp
	mov	eax, DWORD PTR _depthStencilFmt$[ebp]
	push	eax
	push	1
	push	2
	mov	ecx, DWORD PTR _pDeviceCombo$[ebp]
	mov	edx, DWORD PTR [ecx+8]
	push	edx
	mov	eax, DWORD PTR _pDeviceCombo$[ebp]
	mov	ecx, DWORD PTR [eax+4]
	push	ecx
	mov	edx, DWORD PTR _pDeviceCombo$[ebp]
	mov	eax, DWORD PTR [edx]
	push	eax
	mov	ecx, DWORD PTR _this$[ebp]
	mov	edx, DWORD PTR [ecx]
	mov	eax, DWORD PTR _this$[ebp]
	mov	ecx, DWORD PTR [eax]
	mov	edx, DWORD PTR [edx]
	push	ecx
	mov	eax, DWORD PTR [edx+40]
	call	eax
	cmp	esi, esp
	call	__RTC_CheckEsp
	test	eax, eax
	jl	SHORT $LN2@BuildDepth

; 364  :         {
; 365  :             if (SUCCEEDED(m_pD3D->CheckDepthStencilMatch(pDeviceCombo->AdapterOrdinal, 
; 366  :                     pDeviceCombo->DeviceType, pDeviceCombo->AdapterFormat, 
; 367  :                     pDeviceCombo->BackBufferFormat, depthStencilFmt)))

	mov	esi, esp
	mov	eax, DWORD PTR _depthStencilFmt$[ebp]
	push	eax
	mov	ecx, DWORD PTR _pDeviceCombo$[ebp]
	mov	edx, DWORD PTR [ecx+12]
	push	edx
	mov	eax, DWORD PTR _pDeviceCombo$[ebp]
	mov	ecx, DWORD PTR [eax+8]
	push	ecx
	mov	edx, DWORD PTR _pDeviceCombo$[ebp]
	mov	eax, DWORD PTR [edx+4]
	push	eax
	mov	ecx, DWORD PTR _pDeviceCombo$[ebp]
	mov	edx, DWORD PTR [ecx]
	push	edx
	mov	eax, DWORD PTR _this$[ebp]
	mov	ecx, DWORD PTR [eax]
	mov	edx, DWORD PTR _this$[ebp]
	mov	eax, DWORD PTR [edx]
	mov	ecx, DWORD PTR [ecx]
	push	eax
	mov	edx, DWORD PTR [ecx+48]
	call	edx
	cmp	esi, esp
	call	__RTC_CheckEsp
	test	eax, eax
	jl	SHORT $LN2@BuildDepth

; 368  :             {
; 369  :                 pDeviceCombo->depthStencilFormatList.Add( depthStencilFmt );

	lea	eax, DWORD PTR _depthStencilFmt$[ebp]
	push	eax
	mov	ecx, DWORD PTR _pDeviceCombo$[ebp]
	add	ecx, 20					; 00000014H
	call	?Add@?$CGrowableArray@W4_D3DFORMAT@@@@QAEJABW4_D3DFORMAT@@@Z ; CGrowableArray<enum _D3DFORMAT>::Add
$LN2@BuildDepth:

; 370  :             }
; 371  :         }
; 372  :     }

	jmp	$LN4@BuildDepth
$LN6@BuildDepth:

; 373  : }

	push	edx
	mov	ecx, ebp
	push	eax
	lea	edx, DWORD PTR $LN10@BuildDepth
	call	@_RTC_CheckStackVars@8
	pop	eax
	pop	edx
	pop	edi
	pop	esi
	pop	ebx
	add	esp, 228				; 000000e4H
	cmp	ebp, esp
	call	__RTC_CheckEsp
	mov	esp, ebp
	pop	ebp
	ret	4
	npad	3
$LN10@BuildDepth:
	DD	1
	DD	$LN9@BuildDepth
$LN9@BuildDepth:
	DD	-20					; ffffffecH
	DD	4
	DD	$LN8@BuildDepth
$LN8@BuildDepth:
	DB	100					; 00000064H
	DB	101					; 00000065H
	DB	112					; 00000070H
	DB	116					; 00000074H
	DB	104					; 00000068H
	DB	83					; 00000053H
	DB	116					; 00000074H
	DB	101					; 00000065H
	DB	110					; 0000006eH
	DB	99					; 00000063H
	DB	105					; 00000069H
	DB	108					; 0000006cH
	DB	70					; 00000046H
	DB	109					; 0000006dH
	DB	116					; 00000074H
	DB	0
?BuildDepthStencilFormatList@CD3DEnumeration@@AAEXPAUCD3DEnumDeviceSettingsCombo@@@Z ENDP ; CD3DEnumeration::BuildDepthStencilFormatList
_TEXT	ENDS
; Function compile flags: /Odtp /RTCsu /ZI
; File z:\sampsrc\02xu1\saco\d3d9\common\dxutenum.cpp
;	COMDAT ?EnumerateDeviceCombos@CD3DEnumeration@@AAEJPAVCD3DEnumAdapterInfo@@PAVCD3DEnumDeviceInfo@@PAV?$CGrowableArray@W4_D3DFORMAT@@@@@Z
_TEXT	SEGMENT
tv194 = -388						; size = 4
tv181 = -388						; size = 4
tv172 = -388						; size = 4
tv157 = -385						; size = 1
$T2 = -380						; size = 4
$T3 = -368						; size = 4
$T4 = -356						; size = 4
$T5 = -344						; size = 4
_pDeviceCombo$6 = -140					; size = 4
_nWindowed$7 = -128					; size = 4
_backBufferFormat$8 = -116				; size = 4
_iBackBufferFormat$9 = -104				; size = 4
_adapterFormat$10 = -92					; size = 4
_iFormat$11 = -80					; size = 4
_backBufferFormatArrayCount$ = -68			; size = 4
_backBufferFormatArray$ = -56				; size = 24
_this$ = -24						; size = 4
__$ArrayPad$ = -16					; size = 4
__$EHRec$ = -12						; size = 12
_pAdapterInfo$ = 8					; size = 4
_pDeviceInfo$ = 12					; size = 4
_pAdapterFormatList$ = 16				; size = 4
?EnumerateDeviceCombos@CD3DEnumeration@@AAEJPAVCD3DEnumAdapterInfo@@PAVCD3DEnumDeviceInfo@@PAV?$CGrowableArray@W4_D3DFORMAT@@@@@Z PROC ; CD3DEnumeration::EnumerateDeviceCombos, COMDAT
; _this$ = ecx

; 261  : {

	push	ebp
	mov	ebp, esp
	push	-1
	push	__ehhandler$?EnumerateDeviceCombos@CD3DEnumeration@@AAEJPAVCD3DEnumAdapterInfo@@PAVCD3DEnumDeviceInfo@@PAV?$CGrowableArray@W4_D3DFORMAT@@@@@Z
	mov	eax, DWORD PTR fs:0
	push	eax
	sub	esp, 376				; 00000178H
	push	ebx
	push	esi
	push	edi
	push	ecx
	lea	edi, DWORD PTR [ebp-388]
	mov	ecx, 94					; 0000005eH
	mov	eax, -858993460				; ccccccccH
	rep stosd
	pop	ecx
	mov	eax, DWORD PTR ___security_cookie
	xor	eax, ebp
	mov	DWORD PTR __$ArrayPad$[ebp], eax
	push	eax
	lea	eax, DWORD PTR __$EHRec$[ebp]
	mov	DWORD PTR fs:0, eax
	mov	DWORD PTR _this$[ebp], ecx

; 262  :     const D3DFORMAT backBufferFormatArray[] = 
; 263  :     {   
; 264  :         D3DFMT_A8R8G8B8, 
; 265  :         D3DFMT_X8R8G8B8, 
; 266  :         D3DFMT_A2R10G10B10, 
; 267  :         D3DFMT_R5G6B5, 
; 268  :         D3DFMT_A1R5G5B5, 
; 269  :         D3DFMT_X1R5G5B5 
; 270  :     };

	mov	DWORD PTR _backBufferFormatArray$[ebp], 21 ; 00000015H
	mov	DWORD PTR _backBufferFormatArray$[ebp+4], 22 ; 00000016H
	mov	DWORD PTR _backBufferFormatArray$[ebp+8], 35 ; 00000023H
	mov	DWORD PTR _backBufferFormatArray$[ebp+12], 23 ; 00000017H
	mov	DWORD PTR _backBufferFormatArray$[ebp+16], 25 ; 00000019H
	mov	DWORD PTR _backBufferFormatArray$[ebp+20], 24 ; 00000018H

; 271  :     const UINT backBufferFormatArrayCount = sizeof(backBufferFormatArray) / sizeof(backBufferFormatArray[0]);

	mov	DWORD PTR _backBufferFormatArrayCount$[ebp], 6

; 272  : 
; 273  :     // See which adapter formats are supported by this device
; 274  :     for( int iFormat=0; iFormat<pAdapterFormatList->GetSize(); iFormat++ )

	mov	DWORD PTR _iFormat$11[ebp], 0
	jmp	SHORT $LN17@EnumerateD
$LN16@EnumerateD:
	mov	eax, DWORD PTR _iFormat$11[ebp]
	add	eax, 1
	mov	DWORD PTR _iFormat$11[ebp], eax
$LN17@EnumerateD:
	mov	ecx, DWORD PTR _pAdapterFormatList$[ebp]
	call	?GetSize@?$CGrowableArray@W4_D3DFORMAT@@@@QBEHXZ ; CGrowableArray<enum _D3DFORMAT>::GetSize
	cmp	DWORD PTR _iFormat$11[ebp], eax
	jge	$LN15@EnumerateD

; 275  :     {
; 276  :         D3DFORMAT adapterFormat = pAdapterFormatList->GetAt(iFormat);

	mov	eax, DWORD PTR _iFormat$11[ebp]
	push	eax
	mov	ecx, DWORD PTR _pAdapterFormatList$[ebp]
	call	?GetAt@?$CGrowableArray@W4_D3DFORMAT@@@@QAEAAW4_D3DFORMAT@@H@Z ; CGrowableArray<enum _D3DFORMAT>::GetAt
	mov	ecx, DWORD PTR [eax]
	mov	DWORD PTR _adapterFormat$10[ebp], ecx

; 277  : 
; 278  :         for( UINT iBackBufferFormat = 0; iBackBufferFormat < backBufferFormatArrayCount; iBackBufferFormat++ )

	mov	DWORD PTR _iBackBufferFormat$9[ebp], 0
	jmp	SHORT $LN14@EnumerateD
$LN13@EnumerateD:
	mov	eax, DWORD PTR _iBackBufferFormat$9[ebp]
	add	eax, 1
	mov	DWORD PTR _iBackBufferFormat$9[ebp], eax
$LN14@EnumerateD:
	cmp	DWORD PTR _iBackBufferFormat$9[ebp], 6
	jae	$LN12@EnumerateD

; 279  :         {
; 280  :             D3DFORMAT backBufferFormat = backBufferFormatArray[iBackBufferFormat];

	mov	eax, DWORD PTR _iBackBufferFormat$9[ebp]
	mov	ecx, DWORD PTR _backBufferFormatArray$[ebp+eax*4]
	mov	DWORD PTR _backBufferFormat$8[ebp], ecx

; 281  : 
; 282  :             for( int nWindowed = 0; nWindowed < 2; nWindowed++)

	mov	DWORD PTR _nWindowed$7[ebp], 0
	jmp	SHORT $LN11@EnumerateD
$LN10@EnumerateD:
	mov	eax, DWORD PTR _nWindowed$7[ebp]
	add	eax, 1
	mov	DWORD PTR _nWindowed$7[ebp], eax
$LN11@EnumerateD:
	cmp	DWORD PTR _nWindowed$7[ebp], 2
	jge	$LN9@EnumerateD

; 283  :             {
; 284  :                 if( !nWindowed && pAdapterInfo->displayModeList.GetSize() == 0 )

	cmp	DWORD PTR _nWindowed$7[ebp], 0
	jne	SHORT $LN8@EnumerateD
	mov	ecx, DWORD PTR _pAdapterInfo$[ebp]
	add	ecx, 1360				; 00000550H
	call	?GetSize@?$CGrowableArray@U_D3DDISPLAYMODE@@@@QBEHXZ ; CGrowableArray<_D3DDISPLAYMODE>::GetSize
	test	eax, eax
	jne	SHORT $LN8@EnumerateD

; 285  :                     continue;

	jmp	SHORT $LN10@EnumerateD
$LN8@EnumerateD:

; 286  : 
; 287  :                 if (FAILED( m_pD3D->CheckDeviceType( pAdapterInfo->AdapterOrdinal, pDeviceInfo->DeviceType, 
; 288  :                                                      adapterFormat, backBufferFormat, nWindowed )))

	mov	esi, esp
	mov	eax, DWORD PTR _nWindowed$7[ebp]
	push	eax
	mov	ecx, DWORD PTR _backBufferFormat$8[ebp]
	push	ecx
	mov	edx, DWORD PTR _adapterFormat$10[ebp]
	push	edx
	mov	eax, DWORD PTR _pDeviceInfo$[ebp]
	mov	ecx, DWORD PTR [eax+4]
	push	ecx
	mov	edx, DWORD PTR _pAdapterInfo$[ebp]
	mov	eax, DWORD PTR [edx]
	push	eax
	mov	ecx, DWORD PTR _this$[ebp]
	mov	edx, DWORD PTR [ecx]
	mov	eax, DWORD PTR _this$[ebp]
	mov	ecx, DWORD PTR [eax]
	mov	edx, DWORD PTR [edx]
	push	ecx
	mov	eax, DWORD PTR [edx+36]
	call	eax
	cmp	esi, esp
	call	__RTC_CheckEsp
	test	eax, eax
	jge	SHORT $LN7@EnumerateD

; 289  :                 {
; 290  :                     continue;

	jmp	SHORT $LN10@EnumerateD
$LN7@EnumerateD:

; 291  :                 }
; 292  : 
; 293  :                 if( m_bRequirePostPixelShaderBlending )

	mov	eax, DWORD PTR _this$[ebp]
	movzx	ecx, BYTE PTR [eax+12]
	test	ecx, ecx
	je	SHORT $LN6@EnumerateD

; 294  :                 {
; 295  :                     // If the backbuffer format doesn't support D3DUSAGE_QUERY_POSTPIXELSHADER_BLENDING
; 296  :                     // then alpha test, pixel fog, render-target blending, color write enable, and dithering. 
; 297  :                     // are not supported.
; 298  :                     if( FAILED( m_pD3D->CheckDeviceFormat( pAdapterInfo->AdapterOrdinal, pDeviceInfo->DeviceType,
; 299  :                                                         adapterFormat, D3DUSAGE_QUERY_POSTPIXELSHADER_BLENDING, 
; 300  :                                                         D3DRTYPE_TEXTURE, backBufferFormat ) ) )

	mov	esi, esp
	mov	eax, DWORD PTR _backBufferFormat$8[ebp]
	push	eax
	push	3
	push	524288					; 00080000H
	mov	ecx, DWORD PTR _adapterFormat$10[ebp]
	push	ecx
	mov	edx, DWORD PTR _pDeviceInfo$[ebp]
	mov	eax, DWORD PTR [edx+4]
	push	eax
	mov	ecx, DWORD PTR _pAdapterInfo$[ebp]
	mov	edx, DWORD PTR [ecx]
	push	edx
	mov	eax, DWORD PTR _this$[ebp]
	mov	ecx, DWORD PTR [eax]
	mov	edx, DWORD PTR _this$[ebp]
	mov	eax, DWORD PTR [edx]
	mov	ecx, DWORD PTR [ecx]
	push	eax
	mov	edx, DWORD PTR [ecx+40]
	call	edx
	cmp	esi, esp
	call	__RTC_CheckEsp
	test	eax, eax
	jge	SHORT $LN6@EnumerateD

; 301  :                     {
; 302  :                         continue;

	jmp	$LN10@EnumerateD
$LN6@EnumerateD:

; 303  :                     }
; 304  :                 }
; 305  : 
; 306  :                 // If an application callback function has been provided, make sure this device
; 307  :                 // is acceptable to the app.
; 308  :                 if( m_IsDeviceAcceptableFunc != NULL )

	mov	eax, DWORD PTR _this$[ebp]
	cmp	DWORD PTR [eax+4], 0
	je	SHORT $LN4@EnumerateD

; 309  :                 {
; 310  :                     if( !m_IsDeviceAcceptableFunc( &pDeviceInfo->Caps, adapterFormat, backBufferFormat, FALSE != nWindowed, m_pIsDeviceAcceptableFuncUserContext ) )

	cmp	DWORD PTR _nWindowed$7[ebp], 0
	je	SHORT $LN20@EnumerateD
	mov	BYTE PTR tv157[ebp], 1
	jmp	SHORT $LN21@EnumerateD
$LN20@EnumerateD:
	mov	BYTE PTR tv157[ebp], 0
$LN21@EnumerateD:
	mov	esi, esp
	mov	eax, DWORD PTR _this$[ebp]
	mov	ecx, DWORD PTR [eax+8]
	push	ecx
	movzx	edx, BYTE PTR tv157[ebp]
	push	edx
	mov	eax, DWORD PTR _backBufferFormat$8[ebp]
	push	eax
	mov	ecx, DWORD PTR _adapterFormat$10[ebp]
	push	ecx
	mov	edx, DWORD PTR _pDeviceInfo$[ebp]
	add	edx, 8
	push	edx
	mov	eax, DWORD PTR _this$[ebp]
	mov	ecx, DWORD PTR [eax+4]
	call	ecx
	cmp	esi, esp
	call	__RTC_CheckEsp
	movzx	edx, al
	test	edx, edx
	jne	SHORT $LN4@EnumerateD

; 311  :                         continue;

	jmp	$LN10@EnumerateD
$LN4@EnumerateD:

; 312  :                 }
; 313  :                 
; 314  :                 // At this point, we have an adapter/device/adapterformat/backbufferformat/iswindowed
; 315  :                 // DeviceCombo that is supported by the system and acceptable to the app. We still 
; 316  :                 // need to find one or more suitable depth/stencil buffer format,
; 317  :                 // multisample type, and present interval.
; 318  :                 CD3DEnumDeviceSettingsCombo* pDeviceCombo = new CD3DEnumDeviceSettingsCombo;

	push	88					; 00000058H
	call	??2@YAPAXI@Z				; operator new
	add	esp, 4
	mov	DWORD PTR $T3[ebp], eax
	mov	DWORD PTR __$EHRec$[ebp+8], 0
	cmp	DWORD PTR $T3[ebp], 0
	je	SHORT $LN22@EnumerateD
	mov	ecx, DWORD PTR $T3[ebp]
	call	??0CD3DEnumDeviceSettingsCombo@@QAE@XZ
	mov	DWORD PTR tv172[ebp], eax
	jmp	SHORT $LN23@EnumerateD
$LN22@EnumerateD:
	mov	DWORD PTR tv172[ebp], 0
$LN23@EnumerateD:
	mov	eax, DWORD PTR tv172[ebp]
	mov	DWORD PTR $T2[ebp], eax
	mov	DWORD PTR __$EHRec$[ebp+8], -1
	mov	ecx, DWORD PTR $T2[ebp]
	mov	DWORD PTR _pDeviceCombo$6[ebp], ecx

; 319  :                 if( pDeviceCombo == NULL )

	cmp	DWORD PTR _pDeviceCombo$6[ebp], 0
	jne	SHORT $LN2@EnumerateD

; 320  :                     return E_OUTOFMEMORY;

	mov	eax, -2147024882			; 8007000eH
	jmp	$LN18@EnumerateD
$LN2@EnumerateD:

; 321  : 
; 322  :                 pDeviceCombo->AdapterOrdinal = pAdapterInfo->AdapterOrdinal;

	mov	eax, DWORD PTR _pDeviceCombo$6[ebp]
	mov	ecx, DWORD PTR _pAdapterInfo$[ebp]
	mov	edx, DWORD PTR [ecx]
	mov	DWORD PTR [eax], edx

; 323  :                 pDeviceCombo->DeviceType = pDeviceInfo->DeviceType;

	mov	eax, DWORD PTR _pDeviceCombo$6[ebp]
	mov	ecx, DWORD PTR _pDeviceInfo$[ebp]
	mov	edx, DWORD PTR [ecx+4]
	mov	DWORD PTR [eax+4], edx

; 324  :                 pDeviceCombo->AdapterFormat = adapterFormat;

	mov	eax, DWORD PTR _pDeviceCombo$6[ebp]
	mov	ecx, DWORD PTR _adapterFormat$10[ebp]
	mov	DWORD PTR [eax+8], ecx

; 325  :                 pDeviceCombo->BackBufferFormat = backBufferFormat;

	mov	eax, DWORD PTR _pDeviceCombo$6[ebp]
	mov	ecx, DWORD PTR _backBufferFormat$8[ebp]
	mov	DWORD PTR [eax+12], ecx

; 326  :                 pDeviceCombo->Windowed = (nWindowed != 0);

	cmp	DWORD PTR _nWindowed$7[ebp], 0
	je	SHORT $LN24@EnumerateD
	mov	DWORD PTR tv181[ebp], 1
	jmp	SHORT $LN25@EnumerateD
$LN24@EnumerateD:
	mov	DWORD PTR tv181[ebp], 0
$LN25@EnumerateD:
	mov	eax, DWORD PTR _pDeviceCombo$6[ebp]
	mov	ecx, DWORD PTR tv181[ebp]
	mov	DWORD PTR [eax+16], ecx

; 327  :                
; 328  :                 BuildDepthStencilFormatList( pDeviceCombo );

	mov	eax, DWORD PTR _pDeviceCombo$6[ebp]
	push	eax
	mov	ecx, DWORD PTR _this$[ebp]
	call	?BuildDepthStencilFormatList@CD3DEnumeration@@AAEXPAUCD3DEnumDeviceSettingsCombo@@@Z ; CD3DEnumeration::BuildDepthStencilFormatList

; 329  :                 BuildMultiSampleTypeList( pDeviceCombo );

	mov	eax, DWORD PTR _pDeviceCombo$6[ebp]
	push	eax
	mov	ecx, DWORD PTR _this$[ebp]
	call	?BuildMultiSampleTypeList@CD3DEnumeration@@AAEXPAUCD3DEnumDeviceSettingsCombo@@@Z ; CD3DEnumeration::BuildMultiSampleTypeList

; 330  :                 if (pDeviceCombo->multiSampleTypeList.GetSize() == 0)

	mov	ecx, DWORD PTR _pDeviceCombo$6[ebp]
	add	ecx, 32					; 00000020H
	call	?GetSize@?$CGrowableArray@W4_D3DMULTISAMPLE_TYPE@@@@QBEHXZ ; CGrowableArray<enum _D3DMULTISAMPLE_TYPE>::GetSize
	test	eax, eax
	jne	SHORT $LN1@EnumerateD

; 331  :                 {
; 332  :                     delete pDeviceCombo;

	mov	eax, DWORD PTR _pDeviceCombo$6[ebp]
	mov	DWORD PTR $T5[ebp], eax
	mov	ecx, DWORD PTR $T5[ebp]
	mov	DWORD PTR $T4[ebp], ecx
	cmp	DWORD PTR $T4[ebp], 0
	je	SHORT $LN26@EnumerateD
	push	1
	mov	ecx, DWORD PTR $T4[ebp]
	call	??_GCD3DEnumDeviceSettingsCombo@@QAEPAXI@Z
	mov	DWORD PTR tv194[ebp], eax
	jmp	SHORT $LN27@EnumerateD
$LN26@EnumerateD:
	mov	DWORD PTR tv194[ebp], 0
$LN27@EnumerateD:

; 333  :                     continue;

	jmp	$LN10@EnumerateD
$LN1@EnumerateD:

; 334  :                 }
; 335  :                 BuildDSMSConflictList( pDeviceCombo );

	mov	eax, DWORD PTR _pDeviceCombo$6[ebp]
	push	eax
	mov	ecx, DWORD PTR _this$[ebp]
	call	?BuildDSMSConflictList@CD3DEnumeration@@AAEXPAUCD3DEnumDeviceSettingsCombo@@@Z ; CD3DEnumeration::BuildDSMSConflictList

; 336  :                 BuildPresentIntervalList(pDeviceInfo, pDeviceCombo );

	mov	eax, DWORD PTR _pDeviceCombo$6[ebp]
	push	eax
	mov	ecx, DWORD PTR _pDeviceInfo$[ebp]
	push	ecx
	mov	ecx, DWORD PTR _this$[ebp]
	call	?BuildPresentIntervalList@CD3DEnumeration@@AAEXPAVCD3DEnumDeviceInfo@@PAUCD3DEnumDeviceSettingsCombo@@@Z ; CD3DEnumeration::BuildPresentIntervalList

; 337  :                 pDeviceCombo->pAdapterInfo = pAdapterInfo;

	mov	eax, DWORD PTR _pDeviceCombo$6[ebp]
	mov	ecx, DWORD PTR _pAdapterInfo$[ebp]
	mov	DWORD PTR [eax+80], ecx

; 338  :                 pDeviceCombo->pDeviceInfo = pDeviceInfo;

	mov	eax, DWORD PTR _pDeviceCombo$6[ebp]
	mov	ecx, DWORD PTR _pDeviceInfo$[ebp]
	mov	DWORD PTR [eax+84], ecx

; 339  : 
; 340  :                 pDeviceInfo->deviceSettingsComboList.Add( pDeviceCombo );

	lea	eax, DWORD PTR _pDeviceCombo$6[ebp]
	push	eax
	mov	ecx, DWORD PTR _pDeviceInfo$[ebp]
	add	ecx, 312				; 00000138H
	call	?Add@?$CGrowableArray@PAUCD3DEnumDeviceSettingsCombo@@@@QAEJABQAUCD3DEnumDeviceSettingsCombo@@@Z ; CGrowableArray<CD3DEnumDeviceSettingsCombo *>::Add

; 341  :             
; 342  :             }

	jmp	$LN10@EnumerateD
$LN9@EnumerateD:

; 343  :         }

	jmp	$LN13@EnumerateD
$LN12@EnumerateD:

; 344  :     }

	jmp	$LN16@EnumerateD
$LN15@EnumerateD:

; 345  : 
; 346  :     return S_OK;

	xor	eax, eax
$LN18@EnumerateD:

; 347  : }

	push	edx
	mov	ecx, ebp
	push	eax
	lea	edx, DWORD PTR $LN33@EnumerateD
	call	@_RTC_CheckStackVars@8
	pop	eax
	pop	edx
	mov	ecx, DWORD PTR __$EHRec$[ebp]
	mov	DWORD PTR fs:0, ecx
	pop	ecx
	pop	edi
	pop	esi
	pop	ebx
	mov	ecx, DWORD PTR __$ArrayPad$[ebp]
	xor	ecx, ebp
	call	@__security_check_cookie@4
	add	esp, 388				; 00000184H
	cmp	ebp, esp
	call	__RTC_CheckEsp
	mov	esp, ebp
	pop	ebp
	ret	12					; 0000000cH
$LN33@EnumerateD:
	DD	2
	DD	$LN32@EnumerateD
$LN32@EnumerateD:
	DD	-56					; ffffffc8H
	DD	24					; 00000018H
	DD	$LN29@EnumerateD
	DD	-140					; ffffff74H
	DD	4
	DD	$LN30@EnumerateD
$LN30@EnumerateD:
	DB	112					; 00000070H
	DB	68					; 00000044H
	DB	101					; 00000065H
	DB	118					; 00000076H
	DB	105					; 00000069H
	DB	99					; 00000063H
	DB	101					; 00000065H
	DB	67					; 00000043H
	DB	111					; 0000006fH
	DB	109					; 0000006dH
	DB	98					; 00000062H
	DB	111					; 0000006fH
	DB	0
$LN29@EnumerateD:
	DB	98					; 00000062H
	DB	97					; 00000061H
	DB	99					; 00000063H
	DB	107					; 0000006bH
	DB	66					; 00000042H
	DB	117					; 00000075H
	DB	102					; 00000066H
	DB	102					; 00000066H
	DB	101					; 00000065H
	DB	114					; 00000072H
	DB	70					; 00000046H
	DB	111					; 0000006fH
	DB	114					; 00000072H
	DB	109					; 0000006dH
	DB	97					; 00000061H
	DB	116					; 00000074H
	DB	65					; 00000041H
	DB	114					; 00000072H
	DB	114					; 00000072H
	DB	97					; 00000061H
	DB	121					; 00000079H
	DB	0
_TEXT	ENDS
;	COMDAT text$x
text$x	SEGMENT
__unwindfunclet$?EnumerateDeviceCombos@CD3DEnumeration@@AAEJPAVCD3DEnumAdapterInfo@@PAVCD3DEnumDeviceInfo@@PAV?$CGrowableArray@W4_D3DFORMAT@@@@@Z$0:
	mov	eax, DWORD PTR $T3[ebp]
	push	eax
	call	??3@YAXPAX@Z				; operator delete
	pop	ecx
	ret	0
__ehhandler$?EnumerateDeviceCombos@CD3DEnumeration@@AAEJPAVCD3DEnumAdapterInfo@@PAVCD3DEnumDeviceInfo@@PAV?$CGrowableArray@W4_D3DFORMAT@@@@@Z:
	mov	edx, DWORD PTR [esp+8]
	lea	eax, DWORD PTR [edx+12]
	mov	ecx, DWORD PTR [edx-392]
	xor	ecx, eax
	call	@__security_check_cookie@4
	mov	ecx, DWORD PTR [edx-4]
	xor	ecx, eax
	call	@__security_check_cookie@4
	mov	eax, OFFSET __ehfuncinfo$?EnumerateDeviceCombos@CD3DEnumeration@@AAEJPAVCD3DEnumAdapterInfo@@PAVCD3DEnumDeviceInfo@@PAV?$CGrowableArray@W4_D3DFORMAT@@@@@Z
	jmp	___CxxFrameHandler3
text$x	ENDS
?EnumerateDeviceCombos@CD3DEnumeration@@AAEJPAVCD3DEnumAdapterInfo@@PAVCD3DEnumDeviceInfo@@PAV?$CGrowableArray@W4_D3DFORMAT@@@@@Z ENDP ; CD3DEnumeration::EnumerateDeviceCombos
; Function compile flags: /Odtp /RTCsu /ZI
; File z:\sampsrc\02xu1\saco\d3d9\common\dxutenum.cpp
;	COMDAT ?EnumerateDevices@CD3DEnumeration@@AAEJPAVCD3DEnumAdapterInfo@@PAV?$CGrowableArray@W4_D3DFORMAT@@@@@Z
_TEXT	SEGMENT
tv151 = -388						; size = 4
tv139 = -388						; size = 4
tv128 = -388						; size = 4
tv73 = -388						; size = 4
$T2 = -380						; size = 4
$T3 = -368						; size = 4
$T4 = -356						; size = 4
$T5 = -344						; size = 4
$T6 = -332						; size = 4
$T7 = -320						; size = 4
$T8 = -308						; size = 4
$T9 = -296						; size = 4
_pDeviceInfo$10 = -92					; size = 4
_iDeviceType$11 = -80					; size = 4
_devTypeArrayCount$ = -68				; size = 4
_devTypeArray$ = -56					; size = 12
_hr$ = -36						; size = 4
_this$ = -24						; size = 4
__$ArrayPad$ = -16					; size = 4
__$EHRec$ = -12						; size = 12
_pAdapterInfo$ = 8					; size = 4
_pAdapterFormatList$ = 12				; size = 4
?EnumerateDevices@CD3DEnumeration@@AAEJPAVCD3DEnumAdapterInfo@@PAV?$CGrowableArray@W4_D3DFORMAT@@@@@Z PROC ; CD3DEnumeration::EnumerateDevices, COMDAT
; _this$ = ecx

; 208  : {

	push	ebp
	mov	ebp, esp
	push	-1
	push	__ehhandler$?EnumerateDevices@CD3DEnumeration@@AAEJPAVCD3DEnumAdapterInfo@@PAV?$CGrowableArray@W4_D3DFORMAT@@@@@Z
	mov	eax, DWORD PTR fs:0
	push	eax
	sub	esp, 376				; 00000178H
	push	ebx
	push	esi
	push	edi
	push	ecx
	lea	edi, DWORD PTR [ebp-388]
	mov	ecx, 94					; 0000005eH
	mov	eax, -858993460				; ccccccccH
	rep stosd
	pop	ecx
	mov	eax, DWORD PTR ___security_cookie
	xor	eax, ebp
	mov	DWORD PTR __$ArrayPad$[ebp], eax
	push	eax
	lea	eax, DWORD PTR __$EHRec$[ebp]
	mov	DWORD PTR fs:0, eax
	mov	DWORD PTR _this$[ebp], ecx

; 209  :     HRESULT hr;
; 210  : 
; 211  :     const D3DDEVTYPE devTypeArray[] = 
; 212  :     { 
; 213  :         D3DDEVTYPE_HAL, 
; 214  :         D3DDEVTYPE_SW, 
; 215  :         D3DDEVTYPE_REF 
; 216  :     };

	mov	DWORD PTR _devTypeArray$[ebp], 1
	mov	DWORD PTR _devTypeArray$[ebp+4], 3
	mov	DWORD PTR _devTypeArray$[ebp+8], 2

; 217  :     const UINT devTypeArrayCount = sizeof(devTypeArray) / sizeof(devTypeArray[0]);

	mov	DWORD PTR _devTypeArrayCount$[ebp], 3

; 218  : 
; 219  :     // Enumerate each Direct3D device type
; 220  :     for( UINT iDeviceType = 0; iDeviceType < devTypeArrayCount; iDeviceType++ )

	mov	DWORD PTR _iDeviceType$11[ebp], 0
	jmp	SHORT $LN8@EnumerateD
$LN7@EnumerateD:
	mov	eax, DWORD PTR _iDeviceType$11[ebp]
	add	eax, 1
	mov	DWORD PTR _iDeviceType$11[ebp], eax
$LN8@EnumerateD:
	cmp	DWORD PTR _iDeviceType$11[ebp], 3
	jae	$LN6@EnumerateD

; 221  :     {
; 222  :         CD3DEnumDeviceInfo* pDeviceInfo = new CD3DEnumDeviceInfo;

	push	324					; 00000144H
	call	??2@YAPAXI@Z				; operator new
	add	esp, 4
	mov	DWORD PTR $T3[ebp], eax
	mov	DWORD PTR __$EHRec$[ebp+8], 0
	cmp	DWORD PTR $T3[ebp], 0
	je	SHORT $LN11@EnumerateD
	mov	ecx, DWORD PTR $T3[ebp]
	call	??0CD3DEnumDeviceInfo@@QAE@XZ
	mov	DWORD PTR tv73[ebp], eax
	jmp	SHORT $LN12@EnumerateD
$LN11@EnumerateD:
	mov	DWORD PTR tv73[ebp], 0
$LN12@EnumerateD:
	mov	eax, DWORD PTR tv73[ebp]
	mov	DWORD PTR $T2[ebp], eax
	mov	DWORD PTR __$EHRec$[ebp+8], -1
	mov	ecx, DWORD PTR $T2[ebp]
	mov	DWORD PTR _pDeviceInfo$10[ebp], ecx

; 223  :         if( pDeviceInfo == NULL )

	cmp	DWORD PTR _pDeviceInfo$10[ebp], 0
	jne	SHORT $LN5@EnumerateD

; 224  :             return E_OUTOFMEMORY;

	mov	eax, -2147024882			; 8007000eH
	jmp	$LN9@EnumerateD
$LN5@EnumerateD:

; 225  : 
; 226  :         // Fill struct w/ AdapterOrdinal and D3DDEVTYPE
; 227  :         pDeviceInfo->DeviceType = devTypeArray[iDeviceType];

	mov	eax, DWORD PTR _pDeviceInfo$10[ebp]
	mov	ecx, DWORD PTR _iDeviceType$11[ebp]
	mov	edx, DWORD PTR _devTypeArray$[ebp+ecx*4]
	mov	DWORD PTR [eax+4], edx

; 228  : 
; 229  :         // Store device caps
; 230  :         if( FAILED( hr = m_pD3D->GetDeviceCaps( pAdapterInfo->AdapterOrdinal, pDeviceInfo->DeviceType, 
; 231  :                                               &pDeviceInfo->Caps ) ) )

	mov	eax, DWORD PTR _pDeviceInfo$10[ebp]
	add	eax, 8
	mov	esi, esp
	push	eax
	mov	ecx, DWORD PTR _pDeviceInfo$10[ebp]
	mov	edx, DWORD PTR [ecx+4]
	push	edx
	mov	eax, DWORD PTR _pAdapterInfo$[ebp]
	mov	ecx, DWORD PTR [eax]
	push	ecx
	mov	edx, DWORD PTR _this$[ebp]
	mov	eax, DWORD PTR [edx]
	mov	ecx, DWORD PTR _this$[ebp]
	mov	edx, DWORD PTR [ecx]
	mov	eax, DWORD PTR [eax]
	push	edx
	mov	ecx, DWORD PTR [eax+56]
	call	ecx
	cmp	esi, esp
	call	__RTC_CheckEsp
	mov	DWORD PTR _hr$[ebp], eax
	cmp	DWORD PTR _hr$[ebp], 0
	jge	SHORT $LN4@EnumerateD

; 232  :         {
; 233  :             delete pDeviceInfo;

	mov	eax, DWORD PTR _pDeviceInfo$10[ebp]
	mov	DWORD PTR $T5[ebp], eax
	mov	ecx, DWORD PTR $T5[ebp]
	mov	DWORD PTR $T4[ebp], ecx
	cmp	DWORD PTR $T4[ebp], 0
	je	SHORT $LN13@EnumerateD
	push	1
	mov	ecx, DWORD PTR $T4[ebp]
	call	??_GCD3DEnumDeviceInfo@@QAEPAXI@Z
	mov	DWORD PTR tv128[ebp], eax
	jmp	SHORT $LN14@EnumerateD
$LN13@EnumerateD:
	mov	DWORD PTR tv128[ebp], 0
$LN14@EnumerateD:

; 234  :             continue;

	jmp	$LN7@EnumerateD
$LN4@EnumerateD:

; 235  :         }
; 236  : 
; 237  :         // Get info for each devicecombo on this device
; 238  :         if( FAILED( hr = EnumerateDeviceCombos( pAdapterInfo, pDeviceInfo, pAdapterFormatList ) ) )

	mov	eax, DWORD PTR _pAdapterFormatList$[ebp]
	push	eax
	mov	ecx, DWORD PTR _pDeviceInfo$10[ebp]
	push	ecx
	mov	edx, DWORD PTR _pAdapterInfo$[ebp]
	push	edx
	mov	ecx, DWORD PTR _this$[ebp]
	call	?EnumerateDeviceCombos@CD3DEnumeration@@AAEJPAVCD3DEnumAdapterInfo@@PAVCD3DEnumDeviceInfo@@PAV?$CGrowableArray@W4_D3DFORMAT@@@@@Z ; CD3DEnumeration::EnumerateDeviceCombos
	mov	DWORD PTR _hr$[ebp], eax
	cmp	DWORD PTR _hr$[ebp], 0
	jge	SHORT $LN3@EnumerateD

; 239  :         {
; 240  :             delete pDeviceInfo;

	mov	eax, DWORD PTR _pDeviceInfo$10[ebp]
	mov	DWORD PTR $T7[ebp], eax
	mov	ecx, DWORD PTR $T7[ebp]
	mov	DWORD PTR $T6[ebp], ecx
	cmp	DWORD PTR $T6[ebp], 0
	je	SHORT $LN15@EnumerateD
	push	1
	mov	ecx, DWORD PTR $T6[ebp]
	call	??_GCD3DEnumDeviceInfo@@QAEPAXI@Z
	mov	DWORD PTR tv139[ebp], eax
	jmp	SHORT $LN16@EnumerateD
$LN15@EnumerateD:
	mov	DWORD PTR tv139[ebp], 0
$LN16@EnumerateD:

; 241  :             continue;

	jmp	$LN7@EnumerateD
$LN3@EnumerateD:

; 242  :         }
; 243  : 
; 244  :         // If at least one devicecombo for this device is found, 
; 245  :         // add the deviceInfo to the list
; 246  :         if (pDeviceInfo->deviceSettingsComboList.GetSize() > 0 )

	mov	ecx, DWORD PTR _pDeviceInfo$10[ebp]
	add	ecx, 312				; 00000138H
	call	?GetSize@?$CGrowableArray@PAUCD3DEnumDeviceSettingsCombo@@@@QBEHXZ ; CGrowableArray<CD3DEnumDeviceSettingsCombo *>::GetSize
	test	eax, eax
	jle	SHORT $LN2@EnumerateD

; 247  :             pAdapterInfo->deviceInfoList.Add( pDeviceInfo );

	lea	eax, DWORD PTR _pDeviceInfo$10[ebp]
	push	eax
	mov	ecx, DWORD PTR _pAdapterInfo$[ebp]
	add	ecx, 1372				; 0000055cH
	call	?Add@?$CGrowableArray@PAVCD3DEnumDeviceInfo@@@@QAEJABQAVCD3DEnumDeviceInfo@@@Z ; CGrowableArray<CD3DEnumDeviceInfo *>::Add

; 248  :         else

	jmp	SHORT $LN1@EnumerateD
$LN2@EnumerateD:

; 249  :             delete pDeviceInfo;

	mov	eax, DWORD PTR _pDeviceInfo$10[ebp]
	mov	DWORD PTR $T9[ebp], eax
	mov	ecx, DWORD PTR $T9[ebp]
	mov	DWORD PTR $T8[ebp], ecx
	cmp	DWORD PTR $T8[ebp], 0
	je	SHORT $LN17@EnumerateD
	push	1
	mov	ecx, DWORD PTR $T8[ebp]
	call	??_GCD3DEnumDeviceInfo@@QAEPAXI@Z
	mov	DWORD PTR tv151[ebp], eax
	jmp	SHORT $LN1@EnumerateD
$LN17@EnumerateD:
	mov	DWORD PTR tv151[ebp], 0
$LN1@EnumerateD:

; 250  :     }

	jmp	$LN7@EnumerateD
$LN6@EnumerateD:

; 251  : 
; 252  :     return S_OK;

	xor	eax, eax
$LN9@EnumerateD:

; 253  : }

	push	edx
	mov	ecx, ebp
	push	eax
	lea	edx, DWORD PTR $LN24@EnumerateD
	call	@_RTC_CheckStackVars@8
	pop	eax
	pop	edx
	mov	ecx, DWORD PTR __$EHRec$[ebp]
	mov	DWORD PTR fs:0, ecx
	pop	ecx
	pop	edi
	pop	esi
	pop	ebx
	mov	ecx, DWORD PTR __$ArrayPad$[ebp]
	xor	ecx, ebp
	call	@__security_check_cookie@4
	add	esp, 388				; 00000184H
	cmp	ebp, esp
	call	__RTC_CheckEsp
	mov	esp, ebp
	pop	ebp
	ret	8
	npad	3
$LN24@EnumerateD:
	DD	2
	DD	$LN23@EnumerateD
$LN23@EnumerateD:
	DD	-56					; ffffffc8H
	DD	12					; 0000000cH
	DD	$LN20@EnumerateD
	DD	-92					; ffffffa4H
	DD	4
	DD	$LN21@EnumerateD
$LN21@EnumerateD:
	DB	112					; 00000070H
	DB	68					; 00000044H
	DB	101					; 00000065H
	DB	118					; 00000076H
	DB	105					; 00000069H
	DB	99					; 00000063H
	DB	101					; 00000065H
	DB	73					; 00000049H
	DB	110					; 0000006eH
	DB	102					; 00000066H
	DB	111					; 0000006fH
	DB	0
$LN20@EnumerateD:
	DB	100					; 00000064H
	DB	101					; 00000065H
	DB	118					; 00000076H
	DB	84					; 00000054H
	DB	121					; 00000079H
	DB	112					; 00000070H
	DB	101					; 00000065H
	DB	65					; 00000041H
	DB	114					; 00000072H
	DB	114					; 00000072H
	DB	97					; 00000061H
	DB	121					; 00000079H
	DB	0
_TEXT	ENDS
;	COMDAT text$x
text$x	SEGMENT
__unwindfunclet$?EnumerateDevices@CD3DEnumeration@@AAEJPAVCD3DEnumAdapterInfo@@PAV?$CGrowableArray@W4_D3DFORMAT@@@@@Z$0:
	mov	eax, DWORD PTR $T3[ebp]
	push	eax
	call	??3@YAXPAX@Z				; operator delete
	pop	ecx
	ret	0
__ehhandler$?EnumerateDevices@CD3DEnumeration@@AAEJPAVCD3DEnumAdapterInfo@@PAV?$CGrowableArray@W4_D3DFORMAT@@@@@Z:
	mov	edx, DWORD PTR [esp+8]
	lea	eax, DWORD PTR [edx+12]
	mov	ecx, DWORD PTR [edx-392]
	xor	ecx, eax
	call	@__security_check_cookie@4
	mov	ecx, DWORD PTR [edx-4]
	xor	ecx, eax
	call	@__security_check_cookie@4
	mov	eax, OFFSET __ehfuncinfo$?EnumerateDevices@CD3DEnumeration@@AAEJPAVCD3DEnumAdapterInfo@@PAV?$CGrowableArray@W4_D3DFORMAT@@@@@Z
	jmp	___CxxFrameHandler3
text$x	ENDS
?EnumerateDevices@CD3DEnumeration@@AAEJPAVCD3DEnumAdapterInfo@@PAV?$CGrowableArray@W4_D3DFORMAT@@@@@Z ENDP ; CD3DEnumeration::EnumerateDevices
; Function compile flags: /Odtp /RTCsu /ZI
; File z:\sampsrc\02xu1\saco\d3d9\common\dxutmisc.h
;	COMDAT ?SetSizeInternal@?$CGrowableArray@PAVCD3DEnumAdapterInfo@@@@IAEJH@Z
_TEXT	SEGMENT
tv91 = -232						; size = 4
tv85 = -232						; size = 4
_pDataNew$1 = -32					; size = 4
_nGrowBy$2 = -20					; size = 4
_this$ = -8						; size = 4
_nNewMaxSize$ = 8					; size = 4
?SetSizeInternal@?$CGrowableArray@PAVCD3DEnumAdapterInfo@@@@IAEJH@Z PROC ; CGrowableArray<CD3DEnumAdapterInfo *>::SetSizeInternal, COMDAT
; _this$ = ecx

; 670  : {

	push	ebp
	mov	ebp, esp
	sub	esp, 232				; 000000e8H
	push	ebx
	push	esi
	push	edi
	push	ecx
	lea	edi, DWORD PTR [ebp-232]
	mov	ecx, 58					; 0000003aH
	mov	eax, -858993460				; ccccccccH
	rep stosd
	pop	ecx
	mov	DWORD PTR _this$[ebp], ecx

; 671  :     if( nNewMaxSize < 0 )

	cmp	DWORD PTR _nNewMaxSize$[ebp], 0
	jge	SHORT $LN7@SetSizeInt

; 672  :     {
; 673  :         assert( false );

	xor	eax, eax
	jne	SHORT $LN10@SetSizeInt
	push	673					; 000002a1H
	push	OFFSET ??_C@_1FK@FIMIDMPE@?$AAz?$AA?3?$AA?2?$AAs?$AAa?$AAm?$AAp?$AAs?$AAr?$AAc?$AA?2?$AA0?$AA2?$AAx?$AAu?$AA1?$AA?2?$AAs?$AAa?$AAc?$AAo?$AA?2?$AAd?$AA3?$AAd?$AA9?$AA?2?$AAc?$AAo?$AAm?$AAm?$AAo@
	push	OFFSET ??_C@_1M@HLGKFCJM@?$AAf?$AAa?$AAl?$AAs?$AAe?$AA?$AA@
	call	__wassert
	add	esp, 12					; 0000000cH
$LN10@SetSizeInt:

; 674  :         return E_INVALIDARG;

	mov	eax, -2147024809			; 80070057H
	jmp	$LN8@SetSizeInt
$LN7@SetSizeInt:

; 675  :     }
; 676  : 
; 677  :     if( nNewMaxSize == 0 )

	cmp	DWORD PTR _nNewMaxSize$[ebp], 0
	jne	SHORT $LN6@SetSizeInt

; 678  :     {
; 679  :         // Shrink to 0 size & cleanup
; 680  :         if( m_pData )

	mov	eax, DWORD PTR _this$[ebp]
	cmp	DWORD PTR [eax], 0
	je	SHORT $LN5@SetSizeInt

; 681  :         {
; 682  :             free( m_pData );

	mov	eax, DWORD PTR _this$[ebp]
	mov	ecx, DWORD PTR [eax]
	push	ecx
	call	_free
	add	esp, 4

; 683  :             m_pData = NULL;

	mov	eax, DWORD PTR _this$[ebp]
	mov	DWORD PTR [eax], 0
$LN5@SetSizeInt:

; 684  :         }
; 685  : 
; 686  :         m_nMaxSize = 0;

	mov	eax, DWORD PTR _this$[ebp]
	mov	DWORD PTR [eax+8], 0

; 687  :         m_nSize = 0;

	mov	eax, DWORD PTR _this$[ebp]
	mov	DWORD PTR [eax+4], 0
	jmp	$LN4@SetSizeInt
$LN6@SetSizeInt:

; 688  :     }
; 689  :     else if( m_pData == NULL || nNewMaxSize > m_nMaxSize )

	mov	eax, DWORD PTR _this$[ebp]
	cmp	DWORD PTR [eax], 0
	je	SHORT $LN2@SetSizeInt
	mov	eax, DWORD PTR _this$[ebp]
	mov	ecx, DWORD PTR _nNewMaxSize$[ebp]
	cmp	ecx, DWORD PTR [eax+8]
	jle	$LN4@SetSizeInt
$LN2@SetSizeInt:

; 690  :     {
; 691  :         // Grow array
; 692  :         int nGrowBy = ( m_nMaxSize == 0 ) ? 16 : m_nMaxSize;

	mov	eax, DWORD PTR _this$[ebp]
	cmp	DWORD PTR [eax+8], 0
	jne	SHORT $LN11@SetSizeInt
	mov	DWORD PTR tv85[ebp], 16			; 00000010H
	jmp	SHORT $LN12@SetSizeInt
$LN11@SetSizeInt:
	mov	ecx, DWORD PTR _this$[ebp]
	mov	edx, DWORD PTR [ecx+8]
	mov	DWORD PTR tv85[ebp], edx
$LN12@SetSizeInt:
	mov	eax, DWORD PTR tv85[ebp]
	mov	DWORD PTR _nGrowBy$2[ebp], eax

; 693  :         nNewMaxSize = __max( nNewMaxSize, m_nMaxSize + nGrowBy );

	mov	eax, DWORD PTR _this$[ebp]
	mov	ecx, DWORD PTR [eax+8]
	add	ecx, DWORD PTR _nGrowBy$2[ebp]
	cmp	DWORD PTR _nNewMaxSize$[ebp], ecx
	jle	SHORT $LN13@SetSizeInt
	mov	edx, DWORD PTR _nNewMaxSize$[ebp]
	mov	DWORD PTR tv91[ebp], edx
	jmp	SHORT $LN14@SetSizeInt
$LN13@SetSizeInt:
	mov	eax, DWORD PTR _this$[ebp]
	mov	ecx, DWORD PTR [eax+8]
	add	ecx, DWORD PTR _nGrowBy$2[ebp]
	mov	DWORD PTR tv91[ebp], ecx
$LN14@SetSizeInt:
	mov	edx, DWORD PTR tv91[ebp]
	mov	DWORD PTR _nNewMaxSize$[ebp], edx

; 694  : 
; 695  :         TYPE* pDataNew = (TYPE*) realloc( m_pData, nNewMaxSize * sizeof(TYPE) );

	mov	eax, DWORD PTR _nNewMaxSize$[ebp]
	shl	eax, 2
	push	eax
	mov	ecx, DWORD PTR _this$[ebp]
	mov	edx, DWORD PTR [ecx]
	push	edx
	call	_realloc
	add	esp, 8
	mov	DWORD PTR _pDataNew$1[ebp], eax

; 696  :         if( pDataNew == NULL )

	cmp	DWORD PTR _pDataNew$1[ebp], 0
	jne	SHORT $LN1@SetSizeInt

; 697  :             return E_OUTOFMEMORY;

	mov	eax, -2147024882			; 8007000eH
	jmp	SHORT $LN8@SetSizeInt
$LN1@SetSizeInt:

; 698  : 
; 699  :         m_pData = pDataNew;

	mov	eax, DWORD PTR _this$[ebp]
	mov	ecx, DWORD PTR _pDataNew$1[ebp]
	mov	DWORD PTR [eax], ecx

; 700  :         m_nMaxSize = nNewMaxSize;

	mov	eax, DWORD PTR _this$[ebp]
	mov	ecx, DWORD PTR _nNewMaxSize$[ebp]
	mov	DWORD PTR [eax+8], ecx
$LN4@SetSizeInt:

; 701  :     }
; 702  : 
; 703  :     return S_OK;

	xor	eax, eax
$LN8@SetSizeInt:

; 704  : }

	pop	edi
	pop	esi
	pop	ebx
	add	esp, 232				; 000000e8H
	cmp	ebp, esp
	call	__RTC_CheckEsp
	mov	esp, ebp
	pop	ebp
	ret	4
?SetSizeInternal@?$CGrowableArray@PAVCD3DEnumAdapterInfo@@@@IAEJH@Z ENDP ; CGrowableArray<CD3DEnumAdapterInfo *>::SetSizeInternal
_TEXT	ENDS
; Function compile flags: /Odtp /RTCsu /ZI
; File z:\sampsrc\02xu1\saco\d3d9\common\dxutmisc.h
;	COMDAT ?RemoveAll@?$CGrowableArray@PAVCD3DEnumAdapterInfo@@@@QAEXXZ
_TEXT	SEGMENT
_this$ = -8						; size = 4
?RemoveAll@?$CGrowableArray@PAVCD3DEnumAdapterInfo@@@@QAEXXZ PROC ; CGrowableArray<CD3DEnumAdapterInfo *>::RemoveAll, COMDAT
; _this$ = ecx

; 47   :     void    RemoveAll() { SetSize(0); }

	push	ebp
	mov	ebp, esp
	sub	esp, 204				; 000000ccH
	push	ebx
	push	esi
	push	edi
	push	ecx
	lea	edi, DWORD PTR [ebp-204]
	mov	ecx, 51					; 00000033H
	mov	eax, -858993460				; ccccccccH
	rep stosd
	pop	ecx
	mov	DWORD PTR _this$[ebp], ecx
	push	0
	mov	ecx, DWORD PTR _this$[ebp]
	call	?SetSize@?$CGrowableArray@PAVCD3DEnumAdapterInfo@@@@QAEJH@Z ; CGrowableArray<CD3DEnumAdapterInfo *>::SetSize
	pop	edi
	pop	esi
	pop	ebx
	add	esp, 204				; 000000ccH
	cmp	ebp, esp
	call	__RTC_CheckEsp
	mov	esp, ebp
	pop	ebp
	ret	0
?RemoveAll@?$CGrowableArray@PAVCD3DEnumAdapterInfo@@@@QAEXXZ ENDP ; CGrowableArray<CD3DEnumAdapterInfo *>::RemoveAll
_TEXT	ENDS
; Function compile flags: /Odtp /RTCsu /ZI
; File z:\sampsrc\02xu1\saco\d3d9\common\dxutmisc.h
;	COMDAT ?GetSize@?$CGrowableArray@PAVCD3DEnumAdapterInfo@@@@QBEHXZ
_TEXT	SEGMENT
_this$ = -8						; size = 4
?GetSize@?$CGrowableArray@PAVCD3DEnumAdapterInfo@@@@QBEHXZ PROC ; CGrowableArray<CD3DEnumAdapterInfo *>::GetSize, COMDAT
; _this$ = ecx

; 34   :     int     GetSize() const { return m_nSize; }

	push	ebp
	mov	ebp, esp
	sub	esp, 204				; 000000ccH
	push	ebx
	push	esi
	push	edi
	push	ecx
	lea	edi, DWORD PTR [ebp-204]
	mov	ecx, 51					; 00000033H
	mov	eax, -858993460				; ccccccccH
	rep stosd
	pop	ecx
	mov	DWORD PTR _this$[ebp], ecx
	mov	eax, DWORD PTR _this$[ebp]
	mov	eax, DWORD PTR [eax+4]
	pop	edi
	pop	esi
	pop	ebx
	mov	esp, ebp
	pop	ebp
	ret	0
?GetSize@?$CGrowableArray@PAVCD3DEnumAdapterInfo@@@@QBEHXZ ENDP ; CGrowableArray<CD3DEnumAdapterInfo *>::GetSize
_TEXT	ENDS
; Function compile flags: /Odtp /RTCsu /ZI
; File z:\sampsrc\02xu1\saco\d3d9\common\dxutmisc.h
;	COMDAT ?GetAt@?$CGrowableArray@PAVCD3DEnumAdapterInfo@@@@QAEAAPAVCD3DEnumAdapterInfo@@H@Z
_TEXT	SEGMENT
_this$ = -8						; size = 4
_nIndex$ = 8						; size = 4
?GetAt@?$CGrowableArray@PAVCD3DEnumAdapterInfo@@@@QAEAAPAVCD3DEnumAdapterInfo@@H@Z PROC ; CGrowableArray<CD3DEnumAdapterInfo *>::GetAt, COMDAT
; _this$ = ecx

; 33   :     TYPE&   GetAt( int nIndex ) { assert( nIndex >= 0 && nIndex < m_nSize ); return m_pData[nIndex]; }

	push	ebp
	mov	ebp, esp
	sub	esp, 204				; 000000ccH
	push	ebx
	push	esi
	push	edi
	push	ecx
	lea	edi, DWORD PTR [ebp-204]
	mov	ecx, 51					; 00000033H
	mov	eax, -858993460				; ccccccccH
	rep stosd
	pop	ecx
	mov	DWORD PTR _this$[ebp], ecx
	cmp	DWORD PTR _nIndex$[ebp], 0
	jl	SHORT $LN3@GetAt
	mov	eax, DWORD PTR _this$[ebp]
	mov	ecx, DWORD PTR _nIndex$[ebp]
	cmp	ecx, DWORD PTR [eax+4]
	jl	SHORT $LN4@GetAt
$LN3@GetAt:
	push	33					; 00000021H
	push	OFFSET ??_C@_1FK@FIMIDMPE@?$AAz?$AA?3?$AA?2?$AAs?$AAa?$AAm?$AAp?$AAs?$AAr?$AAc?$AA?2?$AA0?$AA2?$AAx?$AAu?$AA1?$AA?2?$AAs?$AAa?$AAc?$AAo?$AA?2?$AAd?$AA3?$AAd?$AA9?$AA?2?$AAc?$AAo?$AAm?$AAm?$AAo@
	push	OFFSET ??_C@_1EA@JHMKKLFC@?$AAn?$AAI?$AAn?$AAd?$AAe?$AAx?$AA?5?$AA?$DO?$AA?$DN?$AA?5?$AA0?$AA?5?$AA?$CG?$AA?$CG?$AA?5?$AAn?$AAI?$AAn?$AAd?$AAe?$AAx?$AA?5?$AA?$DM?$AA?5?$AAm?$AA_?$AAn?$AAS?$AAi?$AAz?$AAe?$AA?$AA@
	call	__wassert
	add	esp, 12					; 0000000cH
$LN4@GetAt:
	mov	eax, DWORD PTR _this$[ebp]
	mov	ecx, DWORD PTR [eax]
	mov	edx, DWORD PTR _nIndex$[ebp]
	lea	eax, DWORD PTR [ecx+edx*4]
	pop	edi
	pop	esi
	pop	ebx
	add	esp, 204				; 000000ccH
	cmp	ebp, esp
	call	__RTC_CheckEsp
	mov	esp, ebp
	pop	ebp
	ret	4
?GetAt@?$CGrowableArray@PAVCD3DEnumAdapterInfo@@@@QAEAAPAVCD3DEnumAdapterInfo@@H@Z ENDP ; CGrowableArray<CD3DEnumAdapterInfo *>::GetAt
_TEXT	ENDS
; Function compile flags: /Odtp /RTCsu /ZI
; File z:\sampsrc\02xu1\saco\d3d9\common\dxutmisc.h
;	COMDAT ?Add@?$CGrowableArray@PAVCD3DEnumAdapterInfo@@@@QAEJABQAVCD3DEnumAdapterInfo@@@Z
_TEXT	SEGMENT
$T1 = -224						; size = 4
_hr$ = -20						; size = 4
_this$ = -8						; size = 4
_value$ = 8						; size = 4
?Add@?$CGrowableArray@PAVCD3DEnumAdapterInfo@@@@QAEJABQAVCD3DEnumAdapterInfo@@@Z PROC ; CGrowableArray<CD3DEnumAdapterInfo *>::Add, COMDAT
; _this$ = ecx

; 740  : {

	push	ebp
	mov	ebp, esp
	sub	esp, 228				; 000000e4H
	push	ebx
	push	esi
	push	edi
	push	ecx
	lea	edi, DWORD PTR [ebp-228]
	mov	ecx, 57					; 00000039H
	mov	eax, -858993460				; ccccccccH
	rep stosd
	pop	ecx
	mov	DWORD PTR _this$[ebp], ecx

; 741  :     HRESULT hr;
; 742  :     if( FAILED( hr = SetSizeInternal( m_nSize + 1 ) ) )

	mov	eax, DWORD PTR _this$[ebp]
	mov	ecx, DWORD PTR [eax+4]
	add	ecx, 1
	push	ecx
	mov	ecx, DWORD PTR _this$[ebp]
	call	?SetSizeInternal@?$CGrowableArray@PAVCD3DEnumAdapterInfo@@@@IAEJH@Z ; CGrowableArray<CD3DEnumAdapterInfo *>::SetSizeInternal
	mov	DWORD PTR _hr$[ebp], eax
	cmp	DWORD PTR _hr$[ebp], 0
	jge	SHORT $LN1@Add

; 743  :         return hr;

	mov	eax, DWORD PTR _hr$[ebp]
	jmp	SHORT $LN2@Add
$LN1@Add:

; 744  : 
; 745  :     // Construct the new element
; 746  :     ::new (&m_pData[m_nSize]) TYPE;

	mov	eax, DWORD PTR _this$[ebp]
	mov	ecx, DWORD PTR [eax+4]
	mov	edx, DWORD PTR _this$[ebp]
	mov	eax, DWORD PTR [edx]
	lea	ecx, DWORD PTR [eax+ecx*4]
	push	ecx
	push	4
	call	??2@YAPAXIPAX@Z				; operator new
	add	esp, 8
	mov	DWORD PTR $T1[ebp], eax

; 747  : 
; 748  :     // Assign
; 749  :     m_pData[m_nSize] = value;

	mov	eax, DWORD PTR _this$[ebp]
	mov	ecx, DWORD PTR [eax+4]
	mov	edx, DWORD PTR _this$[ebp]
	mov	eax, DWORD PTR [edx]
	mov	edx, DWORD PTR _value$[ebp]
	mov	edx, DWORD PTR [edx]
	mov	DWORD PTR [eax+ecx*4], edx

; 750  :     ++m_nSize;

	mov	eax, DWORD PTR _this$[ebp]
	mov	ecx, DWORD PTR [eax+4]
	add	ecx, 1
	mov	edx, DWORD PTR _this$[ebp]
	mov	DWORD PTR [edx+4], ecx

; 751  : 
; 752  :     return S_OK;

	xor	eax, eax
$LN2@Add:

; 753  : }

	pop	edi
	pop	esi
	pop	ebx
	add	esp, 228				; 000000e4H
	cmp	ebp, esp
	call	__RTC_CheckEsp
	mov	esp, ebp
	pop	ebp
	ret	4
?Add@?$CGrowableArray@PAVCD3DEnumAdapterInfo@@@@QAEJABQAVCD3DEnumAdapterInfo@@@Z ENDP ; CGrowableArray<CD3DEnumAdapterInfo *>::Add
_TEXT	ENDS
; Function compile flags: /Odtp /RTCsu /ZI
; File z:\sampsrc\02xu1\saco\d3d9\common\dxutmisc.h
;	COMDAT ?SetSize@?$CGrowableArray@PAVCD3DEnumAdapterInfo@@@@QAEJH@Z
_TEXT	SEGMENT
$T1 = -260						; size = 4
_i$2 = -56						; size = 4
_hr$ = -44						; size = 4
_i$3 = -32						; size = 4
_nOldSize$ = -20					; size = 4
_this$ = -8						; size = 4
_nNewMaxSize$ = 8					; size = 4
?SetSize@?$CGrowableArray@PAVCD3DEnumAdapterInfo@@@@QAEJH@Z PROC ; CGrowableArray<CD3DEnumAdapterInfo *>::SetSize, COMDAT
; _this$ = ecx

; 710  : {

	push	ebp
	mov	ebp, esp
	sub	esp, 264				; 00000108H
	push	ebx
	push	esi
	push	edi
	push	ecx
	lea	edi, DWORD PTR [ebp-264]
	mov	ecx, 66					; 00000042H
	mov	eax, -858993460				; ccccccccH
	rep stosd
	pop	ecx
	mov	DWORD PTR _this$[ebp], ecx

; 711  :     int nOldSize = m_nSize;

	mov	eax, DWORD PTR _this$[ebp]
	mov	ecx, DWORD PTR [eax+4]
	mov	DWORD PTR _nOldSize$[ebp], ecx

; 712  : 
; 713  :     if( nOldSize > nNewMaxSize )

	mov	eax, DWORD PTR _nOldSize$[ebp]
	cmp	eax, DWORD PTR _nNewMaxSize$[ebp]
	jle	SHORT $LN8@SetSize

; 714  :     {
; 715  :         // Removing elements. Call dtor.
; 716  : 
; 717  :         for( int i = nNewMaxSize; i < nOldSize; ++i )

	mov	eax, DWORD PTR _nNewMaxSize$[ebp]
	mov	DWORD PTR _i$3[ebp], eax
	jmp	SHORT $LN7@SetSize
$LN6@SetSize:
	mov	eax, DWORD PTR _i$3[ebp]
	add	eax, 1
	mov	DWORD PTR _i$3[ebp], eax
$LN7@SetSize:
	mov	eax, DWORD PTR _i$3[ebp]
	cmp	eax, DWORD PTR _nOldSize$[ebp]
	jge	SHORT $LN8@SetSize

; 718  :             m_pData[i].~TYPE();

	jmp	SHORT $LN6@SetSize
$LN8@SetSize:

; 719  :     }
; 720  : 
; 721  :     // Adjust buffer.  Note that there's no need to check for error
; 722  :     // since if it happens, nOldSize == nNewMaxSize will be true.)
; 723  :     HRESULT hr = SetSizeInternal( nNewMaxSize );

	mov	eax, DWORD PTR _nNewMaxSize$[ebp]
	push	eax
	mov	ecx, DWORD PTR _this$[ebp]
	call	?SetSizeInternal@?$CGrowableArray@PAVCD3DEnumAdapterInfo@@@@IAEJH@Z ; CGrowableArray<CD3DEnumAdapterInfo *>::SetSizeInternal
	mov	DWORD PTR _hr$[ebp], eax

; 724  : 
; 725  :     if( nOldSize < nNewMaxSize )

	mov	eax, DWORD PTR _nOldSize$[ebp]
	cmp	eax, DWORD PTR _nNewMaxSize$[ebp]
	jge	SHORT $LN4@SetSize

; 726  :     {
; 727  :         // Adding elements. Call ctor.
; 728  : 
; 729  :         for( int i = nOldSize; i < nNewMaxSize; ++i )

	mov	eax, DWORD PTR _nOldSize$[ebp]
	mov	DWORD PTR _i$2[ebp], eax
	jmp	SHORT $LN3@SetSize
$LN2@SetSize:
	mov	eax, DWORD PTR _i$2[ebp]
	add	eax, 1
	mov	DWORD PTR _i$2[ebp], eax
$LN3@SetSize:
	mov	eax, DWORD PTR _i$2[ebp]
	cmp	eax, DWORD PTR _nNewMaxSize$[ebp]
	jge	SHORT $LN4@SetSize

; 730  :             ::new (&m_pData[i]) TYPE;

	mov	eax, DWORD PTR _this$[ebp]
	mov	ecx, DWORD PTR [eax]
	mov	edx, DWORD PTR _i$2[ebp]
	lea	eax, DWORD PTR [ecx+edx*4]
	push	eax
	push	4
	call	??2@YAPAXIPAX@Z				; operator new
	add	esp, 8
	mov	DWORD PTR $T1[ebp], eax
	jmp	SHORT $LN2@SetSize
$LN4@SetSize:

; 731  :     }
; 732  : 
; 733  :     return hr;

	mov	eax, DWORD PTR _hr$[ebp]

; 734  : }

	pop	edi
	pop	esi
	pop	ebx
	add	esp, 264				; 00000108H
	cmp	ebp, esp
	call	__RTC_CheckEsp
	mov	esp, ebp
	pop	ebp
	ret	4
?SetSize@?$CGrowableArray@PAVCD3DEnumAdapterInfo@@@@QAEJH@Z ENDP ; CGrowableArray<CD3DEnumAdapterInfo *>::SetSize
_TEXT	ENDS
; Function compile flags: /Odtp /RTCsu /ZI
; File z:\sampsrc\02xu1\saco\d3d9\common\dxutmisc.h
;	COMDAT ??1?$CGrowableArray@PAVCD3DEnumAdapterInfo@@@@QAE@XZ
_TEXT	SEGMENT
_this$ = -8						; size = 4
??1?$CGrowableArray@PAVCD3DEnumAdapterInfo@@@@QAE@XZ PROC ; CGrowableArray<CD3DEnumAdapterInfo *>::~CGrowableArray<CD3DEnumAdapterInfo *>, COMDAT
; _this$ = ecx

; 22   :     ~CGrowableArray() { RemoveAll(); }

	push	ebp
	mov	ebp, esp
	sub	esp, 204				; 000000ccH
	push	ebx
	push	esi
	push	edi
	push	ecx
	lea	edi, DWORD PTR [ebp-204]
	mov	ecx, 51					; 00000033H
	mov	eax, -858993460				; ccccccccH
	rep stosd
	pop	ecx
	mov	DWORD PTR _this$[ebp], ecx
	mov	ecx, DWORD PTR _this$[ebp]
	call	?RemoveAll@?$CGrowableArray@PAVCD3DEnumAdapterInfo@@@@QAEXXZ ; CGrowableArray<CD3DEnumAdapterInfo *>::RemoveAll
	pop	edi
	pop	esi
	pop	ebx
	add	esp, 204				; 000000ccH
	cmp	ebp, esp
	call	__RTC_CheckEsp
	mov	esp, ebp
	pop	ebp
	ret	0
??1?$CGrowableArray@PAVCD3DEnumAdapterInfo@@@@QAE@XZ ENDP ; CGrowableArray<CD3DEnumAdapterInfo *>::~CGrowableArray<CD3DEnumAdapterInfo *>
_TEXT	ENDS
; Function compile flags: /Odtp /RTCsu /ZI
; File z:\sampsrc\02xu1\saco\d3d9\common\dxutmisc.h
;	COMDAT ??0?$CGrowableArray@PAVCD3DEnumAdapterInfo@@@@QAE@XZ
_TEXT	SEGMENT
_this$ = -8						; size = 4
??0?$CGrowableArray@PAVCD3DEnumAdapterInfo@@@@QAE@XZ PROC ; CGrowableArray<CD3DEnumAdapterInfo *>::CGrowableArray<CD3DEnumAdapterInfo *>, COMDAT
; _this$ = ecx

; 20   :     CGrowableArray()  { m_pData = NULL; m_nSize = 0; m_nMaxSize = 0; }

	push	ebp
	mov	ebp, esp
	sub	esp, 204				; 000000ccH
	push	ebx
	push	esi
	push	edi
	push	ecx
	lea	edi, DWORD PTR [ebp-204]
	mov	ecx, 51					; 00000033H
	mov	eax, -858993460				; ccccccccH
	rep stosd
	pop	ecx
	mov	DWORD PTR _this$[ebp], ecx
	mov	eax, DWORD PTR _this$[ebp]
	mov	DWORD PTR [eax], 0
	mov	eax, DWORD PTR _this$[ebp]
	mov	DWORD PTR [eax+4], 0
	mov	eax, DWORD PTR _this$[ebp]
	mov	DWORD PTR [eax+8], 0
	mov	eax, DWORD PTR _this$[ebp]
	pop	edi
	pop	esi
	pop	ebx
	mov	esp, ebp
	pop	ebp
	ret	0
??0?$CGrowableArray@PAVCD3DEnumAdapterInfo@@@@QAE@XZ ENDP ; CGrowableArray<CD3DEnumAdapterInfo *>::CGrowableArray<CD3DEnumAdapterInfo *>
_TEXT	ENDS
; Function compile flags: /Odtp /RTCsu /ZI
; File z:\sampsrc\02xu1\saco\d3d9\common\dxutmisc.h
;	COMDAT ?SetSizeInternal@?$CGrowableArray@I@@IAEJH@Z
_TEXT	SEGMENT
tv91 = -232						; size = 4
tv85 = -232						; size = 4
_pDataNew$1 = -32					; size = 4
_nGrowBy$2 = -20					; size = 4
_this$ = -8						; size = 4
_nNewMaxSize$ = 8					; size = 4
?SetSizeInternal@?$CGrowableArray@I@@IAEJH@Z PROC	; CGrowableArray<unsigned int>::SetSizeInternal, COMDAT
; _this$ = ecx

; 670  : {

	push	ebp
	mov	ebp, esp
	sub	esp, 232				; 000000e8H
	push	ebx
	push	esi
	push	edi
	push	ecx
	lea	edi, DWORD PTR [ebp-232]
	mov	ecx, 58					; 0000003aH
	mov	eax, -858993460				; ccccccccH
	rep stosd
	pop	ecx
	mov	DWORD PTR _this$[ebp], ecx

; 671  :     if( nNewMaxSize < 0 )

	cmp	DWORD PTR _nNewMaxSize$[ebp], 0
	jge	SHORT $LN7@SetSizeInt

; 672  :     {
; 673  :         assert( false );

	xor	eax, eax
	jne	SHORT $LN10@SetSizeInt
	push	673					; 000002a1H
	push	OFFSET ??_C@_1FK@FIMIDMPE@?$AAz?$AA?3?$AA?2?$AAs?$AAa?$AAm?$AAp?$AAs?$AAr?$AAc?$AA?2?$AA0?$AA2?$AAx?$AAu?$AA1?$AA?2?$AAs?$AAa?$AAc?$AAo?$AA?2?$AAd?$AA3?$AAd?$AA9?$AA?2?$AAc?$AAo?$AAm?$AAm?$AAo@
	push	OFFSET ??_C@_1M@HLGKFCJM@?$AAf?$AAa?$AAl?$AAs?$AAe?$AA?$AA@
	call	__wassert
	add	esp, 12					; 0000000cH
$LN10@SetSizeInt:

; 674  :         return E_INVALIDARG;

	mov	eax, -2147024809			; 80070057H
	jmp	$LN8@SetSizeInt
$LN7@SetSizeInt:

; 675  :     }
; 676  : 
; 677  :     if( nNewMaxSize == 0 )

	cmp	DWORD PTR _nNewMaxSize$[ebp], 0
	jne	SHORT $LN6@SetSizeInt

; 678  :     {
; 679  :         // Shrink to 0 size & cleanup
; 680  :         if( m_pData )

	mov	eax, DWORD PTR _this$[ebp]
	cmp	DWORD PTR [eax], 0
	je	SHORT $LN5@SetSizeInt

; 681  :         {
; 682  :             free( m_pData );

	mov	eax, DWORD PTR _this$[ebp]
	mov	ecx, DWORD PTR [eax]
	push	ecx
	call	_free
	add	esp, 4

; 683  :             m_pData = NULL;

	mov	eax, DWORD PTR _this$[ebp]
	mov	DWORD PTR [eax], 0
$LN5@SetSizeInt:

; 684  :         }
; 685  : 
; 686  :         m_nMaxSize = 0;

	mov	eax, DWORD PTR _this$[ebp]
	mov	DWORD PTR [eax+8], 0

; 687  :         m_nSize = 0;

	mov	eax, DWORD PTR _this$[ebp]
	mov	DWORD PTR [eax+4], 0
	jmp	$LN4@SetSizeInt
$LN6@SetSizeInt:

; 688  :     }
; 689  :     else if( m_pData == NULL || nNewMaxSize > m_nMaxSize )

	mov	eax, DWORD PTR _this$[ebp]
	cmp	DWORD PTR [eax], 0
	je	SHORT $LN2@SetSizeInt
	mov	eax, DWORD PTR _this$[ebp]
	mov	ecx, DWORD PTR _nNewMaxSize$[ebp]
	cmp	ecx, DWORD PTR [eax+8]
	jle	$LN4@SetSizeInt
$LN2@SetSizeInt:

; 690  :     {
; 691  :         // Grow array
; 692  :         int nGrowBy = ( m_nMaxSize == 0 ) ? 16 : m_nMaxSize;

	mov	eax, DWORD PTR _this$[ebp]
	cmp	DWORD PTR [eax+8], 0
	jne	SHORT $LN11@SetSizeInt
	mov	DWORD PTR tv85[ebp], 16			; 00000010H
	jmp	SHORT $LN12@SetSizeInt
$LN11@SetSizeInt:
	mov	ecx, DWORD PTR _this$[ebp]
	mov	edx, DWORD PTR [ecx+8]
	mov	DWORD PTR tv85[ebp], edx
$LN12@SetSizeInt:
	mov	eax, DWORD PTR tv85[ebp]
	mov	DWORD PTR _nGrowBy$2[ebp], eax

; 693  :         nNewMaxSize = __max( nNewMaxSize, m_nMaxSize + nGrowBy );

	mov	eax, DWORD PTR _this$[ebp]
	mov	ecx, DWORD PTR [eax+8]
	add	ecx, DWORD PTR _nGrowBy$2[ebp]
	cmp	DWORD PTR _nNewMaxSize$[ebp], ecx
	jle	SHORT $LN13@SetSizeInt
	mov	edx, DWORD PTR _nNewMaxSize$[ebp]
	mov	DWORD PTR tv91[ebp], edx
	jmp	SHORT $LN14@SetSizeInt
$LN13@SetSizeInt:
	mov	eax, DWORD PTR _this$[ebp]
	mov	ecx, DWORD PTR [eax+8]
	add	ecx, DWORD PTR _nGrowBy$2[ebp]
	mov	DWORD PTR tv91[ebp], ecx
$LN14@SetSizeInt:
	mov	edx, DWORD PTR tv91[ebp]
	mov	DWORD PTR _nNewMaxSize$[ebp], edx

; 694  : 
; 695  :         TYPE* pDataNew = (TYPE*) realloc( m_pData, nNewMaxSize * sizeof(TYPE) );

	mov	eax, DWORD PTR _nNewMaxSize$[ebp]
	shl	eax, 2
	push	eax
	mov	ecx, DWORD PTR _this$[ebp]
	mov	edx, DWORD PTR [ecx]
	push	edx
	call	_realloc
	add	esp, 8
	mov	DWORD PTR _pDataNew$1[ebp], eax

; 696  :         if( pDataNew == NULL )

	cmp	DWORD PTR _pDataNew$1[ebp], 0
	jne	SHORT $LN1@SetSizeInt

; 697  :             return E_OUTOFMEMORY;

	mov	eax, -2147024882			; 8007000eH
	jmp	SHORT $LN8@SetSizeInt
$LN1@SetSizeInt:

; 698  : 
; 699  :         m_pData = pDataNew;

	mov	eax, DWORD PTR _this$[ebp]
	mov	ecx, DWORD PTR _pDataNew$1[ebp]
	mov	DWORD PTR [eax], ecx

; 700  :         m_nMaxSize = nNewMaxSize;

	mov	eax, DWORD PTR _this$[ebp]
	mov	ecx, DWORD PTR _nNewMaxSize$[ebp]
	mov	DWORD PTR [eax+8], ecx
$LN4@SetSizeInt:

; 701  :     }
; 702  : 
; 703  :     return S_OK;

	xor	eax, eax
$LN8@SetSizeInt:

; 704  : }

	pop	edi
	pop	esi
	pop	ebx
	add	esp, 232				; 000000e8H
	cmp	ebp, esp
	call	__RTC_CheckEsp
	mov	esp, ebp
	pop	ebp
	ret	4
?SetSizeInternal@?$CGrowableArray@I@@IAEJH@Z ENDP	; CGrowableArray<unsigned int>::SetSizeInternal
_TEXT	ENDS
; Function compile flags: /Odtp /RTCsu /ZI
; File z:\sampsrc\02xu1\saco\d3d9\common\dxutmisc.h
;	COMDAT ?RemoveAll@?$CGrowableArray@I@@QAEXXZ
_TEXT	SEGMENT
_this$ = -8						; size = 4
?RemoveAll@?$CGrowableArray@I@@QAEXXZ PROC		; CGrowableArray<unsigned int>::RemoveAll, COMDAT
; _this$ = ecx

; 47   :     void    RemoveAll() { SetSize(0); }

	push	ebp
	mov	ebp, esp
	sub	esp, 204				; 000000ccH
	push	ebx
	push	esi
	push	edi
	push	ecx
	lea	edi, DWORD PTR [ebp-204]
	mov	ecx, 51					; 00000033H
	mov	eax, -858993460				; ccccccccH
	rep stosd
	pop	ecx
	mov	DWORD PTR _this$[ebp], ecx
	push	0
	mov	ecx, DWORD PTR _this$[ebp]
	call	?SetSize@?$CGrowableArray@I@@QAEJH@Z	; CGrowableArray<unsigned int>::SetSize
	pop	edi
	pop	esi
	pop	ebx
	add	esp, 204				; 000000ccH
	cmp	ebp, esp
	call	__RTC_CheckEsp
	mov	esp, ebp
	pop	ebp
	ret	0
?RemoveAll@?$CGrowableArray@I@@QAEXXZ ENDP		; CGrowableArray<unsigned int>::RemoveAll
_TEXT	ENDS
; Function compile flags: /Odtp /RTCsu /ZI
; File z:\sampsrc\02xu1\saco\d3d9\common\dxutmisc.h
;	COMDAT ?GetSize@?$CGrowableArray@I@@QBEHXZ
_TEXT	SEGMENT
_this$ = -8						; size = 4
?GetSize@?$CGrowableArray@I@@QBEHXZ PROC		; CGrowableArray<unsigned int>::GetSize, COMDAT
; _this$ = ecx

; 34   :     int     GetSize() const { return m_nSize; }

	push	ebp
	mov	ebp, esp
	sub	esp, 204				; 000000ccH
	push	ebx
	push	esi
	push	edi
	push	ecx
	lea	edi, DWORD PTR [ebp-204]
	mov	ecx, 51					; 00000033H
	mov	eax, -858993460				; ccccccccH
	rep stosd
	pop	ecx
	mov	DWORD PTR _this$[ebp], ecx
	mov	eax, DWORD PTR _this$[ebp]
	mov	eax, DWORD PTR [eax+4]
	pop	edi
	pop	esi
	pop	ebx
	mov	esp, ebp
	pop	ebp
	ret	0
?GetSize@?$CGrowableArray@I@@QBEHXZ ENDP		; CGrowableArray<unsigned int>::GetSize
_TEXT	ENDS
; Function compile flags: /Odtp /RTCsu /ZI
; File z:\sampsrc\02xu1\saco\d3d9\common\dxutmisc.h
;	COMDAT ?GetAt@?$CGrowableArray@I@@QAEAAIH@Z
_TEXT	SEGMENT
_this$ = -8						; size = 4
_nIndex$ = 8						; size = 4
?GetAt@?$CGrowableArray@I@@QAEAAIH@Z PROC		; CGrowableArray<unsigned int>::GetAt, COMDAT
; _this$ = ecx

; 33   :     TYPE&   GetAt( int nIndex ) { assert( nIndex >= 0 && nIndex < m_nSize ); return m_pData[nIndex]; }

	push	ebp
	mov	ebp, esp
	sub	esp, 204				; 000000ccH
	push	ebx
	push	esi
	push	edi
	push	ecx
	lea	edi, DWORD PTR [ebp-204]
	mov	ecx, 51					; 00000033H
	mov	eax, -858993460				; ccccccccH
	rep stosd
	pop	ecx
	mov	DWORD PTR _this$[ebp], ecx
	cmp	DWORD PTR _nIndex$[ebp], 0
	jl	SHORT $LN3@GetAt
	mov	eax, DWORD PTR _this$[ebp]
	mov	ecx, DWORD PTR _nIndex$[ebp]
	cmp	ecx, DWORD PTR [eax+4]
	jl	SHORT $LN4@GetAt
$LN3@GetAt:
	push	33					; 00000021H
	push	OFFSET ??_C@_1FK@FIMIDMPE@?$AAz?$AA?3?$AA?2?$AAs?$AAa?$AAm?$AAp?$AAs?$AAr?$AAc?$AA?2?$AA0?$AA2?$AAx?$AAu?$AA1?$AA?2?$AAs?$AAa?$AAc?$AAo?$AA?2?$AAd?$AA3?$AAd?$AA9?$AA?2?$AAc?$AAo?$AAm?$AAm?$AAo@
	push	OFFSET ??_C@_1EA@JHMKKLFC@?$AAn?$AAI?$AAn?$AAd?$AAe?$AAx?$AA?5?$AA?$DO?$AA?$DN?$AA?5?$AA0?$AA?5?$AA?$CG?$AA?$CG?$AA?5?$AAn?$AAI?$AAn?$AAd?$AAe?$AAx?$AA?5?$AA?$DM?$AA?5?$AAm?$AA_?$AAn?$AAS?$AAi?$AAz?$AAe?$AA?$AA@
	call	__wassert
	add	esp, 12					; 0000000cH
$LN4@GetAt:
	mov	eax, DWORD PTR _this$[ebp]
	mov	ecx, DWORD PTR [eax]
	mov	edx, DWORD PTR _nIndex$[ebp]
	lea	eax, DWORD PTR [ecx+edx*4]
	pop	edi
	pop	esi
	pop	ebx
	add	esp, 204				; 000000ccH
	cmp	ebp, esp
	call	__RTC_CheckEsp
	mov	esp, ebp
	pop	ebp
	ret	4
?GetAt@?$CGrowableArray@I@@QAEAAIH@Z ENDP		; CGrowableArray<unsigned int>::GetAt
_TEXT	ENDS
; Function compile flags: /Odtp /RTCsu /ZI
; File z:\sampsrc\02xu1\saco\d3d9\common\dxutmisc.h
;	COMDAT ?Add@?$CGrowableArray@I@@QAEJABI@Z
_TEXT	SEGMENT
$T1 = -224						; size = 4
_hr$ = -20						; size = 4
_this$ = -8						; size = 4
_value$ = 8						; size = 4
?Add@?$CGrowableArray@I@@QAEJABI@Z PROC			; CGrowableArray<unsigned int>::Add, COMDAT
; _this$ = ecx

; 740  : {

	push	ebp
	mov	ebp, esp
	sub	esp, 228				; 000000e4H
	push	ebx
	push	esi
	push	edi
	push	ecx
	lea	edi, DWORD PTR [ebp-228]
	mov	ecx, 57					; 00000039H
	mov	eax, -858993460				; ccccccccH
	rep stosd
	pop	ecx
	mov	DWORD PTR _this$[ebp], ecx

; 741  :     HRESULT hr;
; 742  :     if( FAILED( hr = SetSizeInternal( m_nSize + 1 ) ) )

	mov	eax, DWORD PTR _this$[ebp]
	mov	ecx, DWORD PTR [eax+4]
	add	ecx, 1
	push	ecx
	mov	ecx, DWORD PTR _this$[ebp]
	call	?SetSizeInternal@?$CGrowableArray@I@@IAEJH@Z ; CGrowableArray<unsigned int>::SetSizeInternal
	mov	DWORD PTR _hr$[ebp], eax
	cmp	DWORD PTR _hr$[ebp], 0
	jge	SHORT $LN1@Add

; 743  :         return hr;

	mov	eax, DWORD PTR _hr$[ebp]
	jmp	SHORT $LN2@Add
$LN1@Add:

; 744  : 
; 745  :     // Construct the new element
; 746  :     ::new (&m_pData[m_nSize]) TYPE;

	mov	eax, DWORD PTR _this$[ebp]
	mov	ecx, DWORD PTR [eax+4]
	mov	edx, DWORD PTR _this$[ebp]
	mov	eax, DWORD PTR [edx]
	lea	ecx, DWORD PTR [eax+ecx*4]
	push	ecx
	push	4
	call	??2@YAPAXIPAX@Z				; operator new
	add	esp, 8
	mov	DWORD PTR $T1[ebp], eax

; 747  : 
; 748  :     // Assign
; 749  :     m_pData[m_nSize] = value;

	mov	eax, DWORD PTR _this$[ebp]
	mov	ecx, DWORD PTR [eax+4]
	mov	edx, DWORD PTR _this$[ebp]
	mov	eax, DWORD PTR [edx]
	mov	edx, DWORD PTR _value$[ebp]
	mov	edx, DWORD PTR [edx]
	mov	DWORD PTR [eax+ecx*4], edx

; 750  :     ++m_nSize;

	mov	eax, DWORD PTR _this$[ebp]
	mov	ecx, DWORD PTR [eax+4]
	add	ecx, 1
	mov	edx, DWORD PTR _this$[ebp]
	mov	DWORD PTR [edx+4], ecx

; 751  : 
; 752  :     return S_OK;

	xor	eax, eax
$LN2@Add:

; 753  : }

	pop	edi
	pop	esi
	pop	ebx
	add	esp, 228				; 000000e4H
	cmp	ebp, esp
	call	__RTC_CheckEsp
	mov	esp, ebp
	pop	ebp
	ret	4
?Add@?$CGrowableArray@I@@QAEJABI@Z ENDP			; CGrowableArray<unsigned int>::Add
_TEXT	ENDS
; Function compile flags: /Odtp /RTCsu /ZI
; File z:\sampsrc\02xu1\saco\d3d9\common\dxutmisc.h
;	COMDAT ?SetSize@?$CGrowableArray@I@@QAEJH@Z
_TEXT	SEGMENT
$T1 = -260						; size = 4
_i$2 = -56						; size = 4
_hr$ = -44						; size = 4
_i$3 = -32						; size = 4
_nOldSize$ = -20					; size = 4
_this$ = -8						; size = 4
_nNewMaxSize$ = 8					; size = 4
?SetSize@?$CGrowableArray@I@@QAEJH@Z PROC		; CGrowableArray<unsigned int>::SetSize, COMDAT
; _this$ = ecx

; 710  : {

	push	ebp
	mov	ebp, esp
	sub	esp, 264				; 00000108H
	push	ebx
	push	esi
	push	edi
	push	ecx
	lea	edi, DWORD PTR [ebp-264]
	mov	ecx, 66					; 00000042H
	mov	eax, -858993460				; ccccccccH
	rep stosd
	pop	ecx
	mov	DWORD PTR _this$[ebp], ecx

; 711  :     int nOldSize = m_nSize;

	mov	eax, DWORD PTR _this$[ebp]
	mov	ecx, DWORD PTR [eax+4]
	mov	DWORD PTR _nOldSize$[ebp], ecx

; 712  : 
; 713  :     if( nOldSize > nNewMaxSize )

	mov	eax, DWORD PTR _nOldSize$[ebp]
	cmp	eax, DWORD PTR _nNewMaxSize$[ebp]
	jle	SHORT $LN8@SetSize

; 714  :     {
; 715  :         // Removing elements. Call dtor.
; 716  : 
; 717  :         for( int i = nNewMaxSize; i < nOldSize; ++i )

	mov	eax, DWORD PTR _nNewMaxSize$[ebp]
	mov	DWORD PTR _i$3[ebp], eax
	jmp	SHORT $LN7@SetSize
$LN6@SetSize:
	mov	eax, DWORD PTR _i$3[ebp]
	add	eax, 1
	mov	DWORD PTR _i$3[ebp], eax
$LN7@SetSize:
	mov	eax, DWORD PTR _i$3[ebp]
	cmp	eax, DWORD PTR _nOldSize$[ebp]
	jge	SHORT $LN8@SetSize

; 718  :             m_pData[i].~TYPE();

	jmp	SHORT $LN6@SetSize
$LN8@SetSize:

; 719  :     }
; 720  : 
; 721  :     // Adjust buffer.  Note that there's no need to check for error
; 722  :     // since if it happens, nOldSize == nNewMaxSize will be true.)
; 723  :     HRESULT hr = SetSizeInternal( nNewMaxSize );

	mov	eax, DWORD PTR _nNewMaxSize$[ebp]
	push	eax
	mov	ecx, DWORD PTR _this$[ebp]
	call	?SetSizeInternal@?$CGrowableArray@I@@IAEJH@Z ; CGrowableArray<unsigned int>::SetSizeInternal
	mov	DWORD PTR _hr$[ebp], eax

; 724  : 
; 725  :     if( nOldSize < nNewMaxSize )

	mov	eax, DWORD PTR _nOldSize$[ebp]
	cmp	eax, DWORD PTR _nNewMaxSize$[ebp]
	jge	SHORT $LN4@SetSize

; 726  :     {
; 727  :         // Adding elements. Call ctor.
; 728  : 
; 729  :         for( int i = nOldSize; i < nNewMaxSize; ++i )

	mov	eax, DWORD PTR _nOldSize$[ebp]
	mov	DWORD PTR _i$2[ebp], eax
	jmp	SHORT $LN3@SetSize
$LN2@SetSize:
	mov	eax, DWORD PTR _i$2[ebp]
	add	eax, 1
	mov	DWORD PTR _i$2[ebp], eax
$LN3@SetSize:
	mov	eax, DWORD PTR _i$2[ebp]
	cmp	eax, DWORD PTR _nNewMaxSize$[ebp]
	jge	SHORT $LN4@SetSize

; 730  :             ::new (&m_pData[i]) TYPE;

	mov	eax, DWORD PTR _this$[ebp]
	mov	ecx, DWORD PTR [eax]
	mov	edx, DWORD PTR _i$2[ebp]
	lea	eax, DWORD PTR [ecx+edx*4]
	push	eax
	push	4
	call	??2@YAPAXIPAX@Z				; operator new
	add	esp, 8
	mov	DWORD PTR $T1[ebp], eax
	jmp	SHORT $LN2@SetSize
$LN4@SetSize:

; 731  :     }
; 732  : 
; 733  :     return hr;

	mov	eax, DWORD PTR _hr$[ebp]

; 734  : }

	pop	edi
	pop	esi
	pop	ebx
	add	esp, 264				; 00000108H
	cmp	ebp, esp
	call	__RTC_CheckEsp
	mov	esp, ebp
	pop	ebp
	ret	4
?SetSize@?$CGrowableArray@I@@QAEJH@Z ENDP		; CGrowableArray<unsigned int>::SetSize
_TEXT	ENDS
; Function compile flags: /Odtp /RTCsu /ZI
; File z:\sampsrc\02xu1\saco\d3d9\common\dxutmisc.h
;	COMDAT ??1?$CGrowableArray@I@@QAE@XZ
_TEXT	SEGMENT
_this$ = -8						; size = 4
??1?$CGrowableArray@I@@QAE@XZ PROC			; CGrowableArray<unsigned int>::~CGrowableArray<unsigned int>, COMDAT
; _this$ = ecx

; 22   :     ~CGrowableArray() { RemoveAll(); }

	push	ebp
	mov	ebp, esp
	sub	esp, 204				; 000000ccH
	push	ebx
	push	esi
	push	edi
	push	ecx
	lea	edi, DWORD PTR [ebp-204]
	mov	ecx, 51					; 00000033H
	mov	eax, -858993460				; ccccccccH
	rep stosd
	pop	ecx
	mov	DWORD PTR _this$[ebp], ecx
	mov	ecx, DWORD PTR _this$[ebp]
	call	?RemoveAll@?$CGrowableArray@I@@QAEXXZ	; CGrowableArray<unsigned int>::RemoveAll
	pop	edi
	pop	esi
	pop	ebx
	add	esp, 204				; 000000ccH
	cmp	ebp, esp
	call	__RTC_CheckEsp
	mov	esp, ebp
	pop	ebp
	ret	0
??1?$CGrowableArray@I@@QAE@XZ ENDP			; CGrowableArray<unsigned int>::~CGrowableArray<unsigned int>
_TEXT	ENDS
; Function compile flags: /Odtp /RTCsu /ZI
; File z:\sampsrc\02xu1\saco\d3d9\common\dxutmisc.h
;	COMDAT ??0?$CGrowableArray@I@@QAE@XZ
_TEXT	SEGMENT
_this$ = -8						; size = 4
??0?$CGrowableArray@I@@QAE@XZ PROC			; CGrowableArray<unsigned int>::CGrowableArray<unsigned int>, COMDAT
; _this$ = ecx

; 20   :     CGrowableArray()  { m_pData = NULL; m_nSize = 0; m_nMaxSize = 0; }

	push	ebp
	mov	ebp, esp
	sub	esp, 204				; 000000ccH
	push	ebx
	push	esi
	push	edi
	push	ecx
	lea	edi, DWORD PTR [ebp-204]
	mov	ecx, 51					; 00000033H
	mov	eax, -858993460				; ccccccccH
	rep stosd
	pop	ecx
	mov	DWORD PTR _this$[ebp], ecx
	mov	eax, DWORD PTR _this$[ebp]
	mov	DWORD PTR [eax], 0
	mov	eax, DWORD PTR _this$[ebp]
	mov	DWORD PTR [eax+4], 0
	mov	eax, DWORD PTR _this$[ebp]
	mov	DWORD PTR [eax+8], 0
	mov	eax, DWORD PTR _this$[ebp]
	pop	edi
	pop	esi
	pop	ebx
	mov	esp, ebp
	pop	ebp
	ret	0
??0?$CGrowableArray@I@@QAE@XZ ENDP			; CGrowableArray<unsigned int>::CGrowableArray<unsigned int>
_TEXT	ENDS
; Function compile flags: /Odtp /RTCsu /ZI
; File z:\sampsrc\02xu1\saco\d3d9\common\dxutmisc.h
;	COMDAT ?SetSizeInternal@?$CGrowableArray@W4_D3DMULTISAMPLE_TYPE@@@@IAEJH@Z
_TEXT	SEGMENT
tv91 = -232						; size = 4
tv85 = -232						; size = 4
_pDataNew$1 = -32					; size = 4
_nGrowBy$2 = -20					; size = 4
_this$ = -8						; size = 4
_nNewMaxSize$ = 8					; size = 4
?SetSizeInternal@?$CGrowableArray@W4_D3DMULTISAMPLE_TYPE@@@@IAEJH@Z PROC ; CGrowableArray<enum _D3DMULTISAMPLE_TYPE>::SetSizeInternal, COMDAT
; _this$ = ecx

; 670  : {

	push	ebp
	mov	ebp, esp
	sub	esp, 232				; 000000e8H
	push	ebx
	push	esi
	push	edi
	push	ecx
	lea	edi, DWORD PTR [ebp-232]
	mov	ecx, 58					; 0000003aH
	mov	eax, -858993460				; ccccccccH
	rep stosd
	pop	ecx
	mov	DWORD PTR _this$[ebp], ecx

; 671  :     if( nNewMaxSize < 0 )

	cmp	DWORD PTR _nNewMaxSize$[ebp], 0
	jge	SHORT $LN7@SetSizeInt

; 672  :     {
; 673  :         assert( false );

	xor	eax, eax
	jne	SHORT $LN10@SetSizeInt
	push	673					; 000002a1H
	push	OFFSET ??_C@_1FK@FIMIDMPE@?$AAz?$AA?3?$AA?2?$AAs?$AAa?$AAm?$AAp?$AAs?$AAr?$AAc?$AA?2?$AA0?$AA2?$AAx?$AAu?$AA1?$AA?2?$AAs?$AAa?$AAc?$AAo?$AA?2?$AAd?$AA3?$AAd?$AA9?$AA?2?$AAc?$AAo?$AAm?$AAm?$AAo@
	push	OFFSET ??_C@_1M@HLGKFCJM@?$AAf?$AAa?$AAl?$AAs?$AAe?$AA?$AA@
	call	__wassert
	add	esp, 12					; 0000000cH
$LN10@SetSizeInt:

; 674  :         return E_INVALIDARG;

	mov	eax, -2147024809			; 80070057H
	jmp	$LN8@SetSizeInt
$LN7@SetSizeInt:

; 675  :     }
; 676  : 
; 677  :     if( nNewMaxSize == 0 )

	cmp	DWORD PTR _nNewMaxSize$[ebp], 0
	jne	SHORT $LN6@SetSizeInt

; 678  :     {
; 679  :         // Shrink to 0 size & cleanup
; 680  :         if( m_pData )

	mov	eax, DWORD PTR _this$[ebp]
	cmp	DWORD PTR [eax], 0
	je	SHORT $LN5@SetSizeInt

; 681  :         {
; 682  :             free( m_pData );

	mov	eax, DWORD PTR _this$[ebp]
	mov	ecx, DWORD PTR [eax]
	push	ecx
	call	_free
	add	esp, 4

; 683  :             m_pData = NULL;

	mov	eax, DWORD PTR _this$[ebp]
	mov	DWORD PTR [eax], 0
$LN5@SetSizeInt:

; 684  :         }
; 685  : 
; 686  :         m_nMaxSize = 0;

	mov	eax, DWORD PTR _this$[ebp]
	mov	DWORD PTR [eax+8], 0

; 687  :         m_nSize = 0;

	mov	eax, DWORD PTR _this$[ebp]
	mov	DWORD PTR [eax+4], 0
	jmp	$LN4@SetSizeInt
$LN6@SetSizeInt:

; 688  :     }
; 689  :     else if( m_pData == NULL || nNewMaxSize > m_nMaxSize )

	mov	eax, DWORD PTR _this$[ebp]
	cmp	DWORD PTR [eax], 0
	je	SHORT $LN2@SetSizeInt
	mov	eax, DWORD PTR _this$[ebp]
	mov	ecx, DWORD PTR _nNewMaxSize$[ebp]
	cmp	ecx, DWORD PTR [eax+8]
	jle	$LN4@SetSizeInt
$LN2@SetSizeInt:

; 690  :     {
; 691  :         // Grow array
; 692  :         int nGrowBy = ( m_nMaxSize == 0 ) ? 16 : m_nMaxSize;

	mov	eax, DWORD PTR _this$[ebp]
	cmp	DWORD PTR [eax+8], 0
	jne	SHORT $LN11@SetSizeInt
	mov	DWORD PTR tv85[ebp], 16			; 00000010H
	jmp	SHORT $LN12@SetSizeInt
$LN11@SetSizeInt:
	mov	ecx, DWORD PTR _this$[ebp]
	mov	edx, DWORD PTR [ecx+8]
	mov	DWORD PTR tv85[ebp], edx
$LN12@SetSizeInt:
	mov	eax, DWORD PTR tv85[ebp]
	mov	DWORD PTR _nGrowBy$2[ebp], eax

; 693  :         nNewMaxSize = __max( nNewMaxSize, m_nMaxSize + nGrowBy );

	mov	eax, DWORD PTR _this$[ebp]
	mov	ecx, DWORD PTR [eax+8]
	add	ecx, DWORD PTR _nGrowBy$2[ebp]
	cmp	DWORD PTR _nNewMaxSize$[ebp], ecx
	jle	SHORT $LN13@SetSizeInt
	mov	edx, DWORD PTR _nNewMaxSize$[ebp]
	mov	DWORD PTR tv91[ebp], edx
	jmp	SHORT $LN14@SetSizeInt
$LN13@SetSizeInt:
	mov	eax, DWORD PTR _this$[ebp]
	mov	ecx, DWORD PTR [eax+8]
	add	ecx, DWORD PTR _nGrowBy$2[ebp]
	mov	DWORD PTR tv91[ebp], ecx
$LN14@SetSizeInt:
	mov	edx, DWORD PTR tv91[ebp]
	mov	DWORD PTR _nNewMaxSize$[ebp], edx

; 694  : 
; 695  :         TYPE* pDataNew = (TYPE*) realloc( m_pData, nNewMaxSize * sizeof(TYPE) );

	mov	eax, DWORD PTR _nNewMaxSize$[ebp]
	shl	eax, 2
	push	eax
	mov	ecx, DWORD PTR _this$[ebp]
	mov	edx, DWORD PTR [ecx]
	push	edx
	call	_realloc
	add	esp, 8
	mov	DWORD PTR _pDataNew$1[ebp], eax

; 696  :         if( pDataNew == NULL )

	cmp	DWORD PTR _pDataNew$1[ebp], 0
	jne	SHORT $LN1@SetSizeInt

; 697  :             return E_OUTOFMEMORY;

	mov	eax, -2147024882			; 8007000eH
	jmp	SHORT $LN8@SetSizeInt
$LN1@SetSizeInt:

; 698  : 
; 699  :         m_pData = pDataNew;

	mov	eax, DWORD PTR _this$[ebp]
	mov	ecx, DWORD PTR _pDataNew$1[ebp]
	mov	DWORD PTR [eax], ecx

; 700  :         m_nMaxSize = nNewMaxSize;

	mov	eax, DWORD PTR _this$[ebp]
	mov	ecx, DWORD PTR _nNewMaxSize$[ebp]
	mov	DWORD PTR [eax+8], ecx
$LN4@SetSizeInt:

; 701  :     }
; 702  : 
; 703  :     return S_OK;

	xor	eax, eax
$LN8@SetSizeInt:

; 704  : }

	pop	edi
	pop	esi
	pop	ebx
	add	esp, 232				; 000000e8H
	cmp	ebp, esp
	call	__RTC_CheckEsp
	mov	esp, ebp
	pop	ebp
	ret	4
?SetSizeInternal@?$CGrowableArray@W4_D3DMULTISAMPLE_TYPE@@@@IAEJH@Z ENDP ; CGrowableArray<enum _D3DMULTISAMPLE_TYPE>::SetSizeInternal
_TEXT	ENDS
; Function compile flags: /Odtp /RTCsu /ZI
; File z:\sampsrc\02xu1\saco\d3d9\common\dxutmisc.h
;	COMDAT ?RemoveAll@?$CGrowableArray@W4_D3DMULTISAMPLE_TYPE@@@@QAEXXZ
_TEXT	SEGMENT
_this$ = -8						; size = 4
?RemoveAll@?$CGrowableArray@W4_D3DMULTISAMPLE_TYPE@@@@QAEXXZ PROC ; CGrowableArray<enum _D3DMULTISAMPLE_TYPE>::RemoveAll, COMDAT
; _this$ = ecx

; 47   :     void    RemoveAll() { SetSize(0); }

	push	ebp
	mov	ebp, esp
	sub	esp, 204				; 000000ccH
	push	ebx
	push	esi
	push	edi
	push	ecx
	lea	edi, DWORD PTR [ebp-204]
	mov	ecx, 51					; 00000033H
	mov	eax, -858993460				; ccccccccH
	rep stosd
	pop	ecx
	mov	DWORD PTR _this$[ebp], ecx
	push	0
	mov	ecx, DWORD PTR _this$[ebp]
	call	?SetSize@?$CGrowableArray@W4_D3DMULTISAMPLE_TYPE@@@@QAEJH@Z ; CGrowableArray<enum _D3DMULTISAMPLE_TYPE>::SetSize
	pop	edi
	pop	esi
	pop	ebx
	add	esp, 204				; 000000ccH
	cmp	ebp, esp
	call	__RTC_CheckEsp
	mov	esp, ebp
	pop	ebp
	ret	0
?RemoveAll@?$CGrowableArray@W4_D3DMULTISAMPLE_TYPE@@@@QAEXXZ ENDP ; CGrowableArray<enum _D3DMULTISAMPLE_TYPE>::RemoveAll
_TEXT	ENDS
; Function compile flags: /Odtp /RTCsu /ZI
; File z:\sampsrc\02xu1\saco\d3d9\common\dxutmisc.h
;	COMDAT ?GetSize@?$CGrowableArray@W4_D3DMULTISAMPLE_TYPE@@@@QBEHXZ
_TEXT	SEGMENT
_this$ = -8						; size = 4
?GetSize@?$CGrowableArray@W4_D3DMULTISAMPLE_TYPE@@@@QBEHXZ PROC ; CGrowableArray<enum _D3DMULTISAMPLE_TYPE>::GetSize, COMDAT
; _this$ = ecx

; 34   :     int     GetSize() const { return m_nSize; }

	push	ebp
	mov	ebp, esp
	sub	esp, 204				; 000000ccH
	push	ebx
	push	esi
	push	edi
	push	ecx
	lea	edi, DWORD PTR [ebp-204]
	mov	ecx, 51					; 00000033H
	mov	eax, -858993460				; ccccccccH
	rep stosd
	pop	ecx
	mov	DWORD PTR _this$[ebp], ecx
	mov	eax, DWORD PTR _this$[ebp]
	mov	eax, DWORD PTR [eax+4]
	pop	edi
	pop	esi
	pop	ebx
	mov	esp, ebp
	pop	ebp
	ret	0
?GetSize@?$CGrowableArray@W4_D3DMULTISAMPLE_TYPE@@@@QBEHXZ ENDP ; CGrowableArray<enum _D3DMULTISAMPLE_TYPE>::GetSize
_TEXT	ENDS
; Function compile flags: /Odtp /RTCsu /ZI
; File z:\sampsrc\02xu1\saco\d3d9\common\dxutmisc.h
;	COMDAT ?GetAt@?$CGrowableArray@W4_D3DMULTISAMPLE_TYPE@@@@QAEAAW4_D3DMULTISAMPLE_TYPE@@H@Z
_TEXT	SEGMENT
_this$ = -8						; size = 4
_nIndex$ = 8						; size = 4
?GetAt@?$CGrowableArray@W4_D3DMULTISAMPLE_TYPE@@@@QAEAAW4_D3DMULTISAMPLE_TYPE@@H@Z PROC ; CGrowableArray<enum _D3DMULTISAMPLE_TYPE>::GetAt, COMDAT
; _this$ = ecx

; 33   :     TYPE&   GetAt( int nIndex ) { assert( nIndex >= 0 && nIndex < m_nSize ); return m_pData[nIndex]; }

	push	ebp
	mov	ebp, esp
	sub	esp, 204				; 000000ccH
	push	ebx
	push	esi
	push	edi
	push	ecx
	lea	edi, DWORD PTR [ebp-204]
	mov	ecx, 51					; 00000033H
	mov	eax, -858993460				; ccccccccH
	rep stosd
	pop	ecx
	mov	DWORD PTR _this$[ebp], ecx
	cmp	DWORD PTR _nIndex$[ebp], 0
	jl	SHORT $LN3@GetAt
	mov	eax, DWORD PTR _this$[ebp]
	mov	ecx, DWORD PTR _nIndex$[ebp]
	cmp	ecx, DWORD PTR [eax+4]
	jl	SHORT $LN4@GetAt
$LN3@GetAt:
	push	33					; 00000021H
	push	OFFSET ??_C@_1FK@FIMIDMPE@?$AAz?$AA?3?$AA?2?$AAs?$AAa?$AAm?$AAp?$AAs?$AAr?$AAc?$AA?2?$AA0?$AA2?$AAx?$AAu?$AA1?$AA?2?$AAs?$AAa?$AAc?$AAo?$AA?2?$AAd?$AA3?$AAd?$AA9?$AA?2?$AAc?$AAo?$AAm?$AAm?$AAo@
	push	OFFSET ??_C@_1EA@JHMKKLFC@?$AAn?$AAI?$AAn?$AAd?$AAe?$AAx?$AA?5?$AA?$DO?$AA?$DN?$AA?5?$AA0?$AA?5?$AA?$CG?$AA?$CG?$AA?5?$AAn?$AAI?$AAn?$AAd?$AAe?$AAx?$AA?5?$AA?$DM?$AA?5?$AAm?$AA_?$AAn?$AAS?$AAi?$AAz?$AAe?$AA?$AA@
	call	__wassert
	add	esp, 12					; 0000000cH
$LN4@GetAt:
	mov	eax, DWORD PTR _this$[ebp]
	mov	ecx, DWORD PTR [eax]
	mov	edx, DWORD PTR _nIndex$[ebp]
	lea	eax, DWORD PTR [ecx+edx*4]
	pop	edi
	pop	esi
	pop	ebx
	add	esp, 204				; 000000ccH
	cmp	ebp, esp
	call	__RTC_CheckEsp
	mov	esp, ebp
	pop	ebp
	ret	4
?GetAt@?$CGrowableArray@W4_D3DMULTISAMPLE_TYPE@@@@QAEAAW4_D3DMULTISAMPLE_TYPE@@H@Z ENDP ; CGrowableArray<enum _D3DMULTISAMPLE_TYPE>::GetAt
_TEXT	ENDS
; Function compile flags: /Odtp /RTCsu /ZI
; File z:\sampsrc\02xu1\saco\d3d9\common\dxutmisc.h
;	COMDAT ?Add@?$CGrowableArray@W4_D3DMULTISAMPLE_TYPE@@@@QAEJABW4_D3DMULTISAMPLE_TYPE@@@Z
_TEXT	SEGMENT
$T1 = -224						; size = 4
_hr$ = -20						; size = 4
_this$ = -8						; size = 4
_value$ = 8						; size = 4
?Add@?$CGrowableArray@W4_D3DMULTISAMPLE_TYPE@@@@QAEJABW4_D3DMULTISAMPLE_TYPE@@@Z PROC ; CGrowableArray<enum _D3DMULTISAMPLE_TYPE>::Add, COMDAT
; _this$ = ecx

; 740  : {

	push	ebp
	mov	ebp, esp
	sub	esp, 228				; 000000e4H
	push	ebx
	push	esi
	push	edi
	push	ecx
	lea	edi, DWORD PTR [ebp-228]
	mov	ecx, 57					; 00000039H
	mov	eax, -858993460				; ccccccccH
	rep stosd
	pop	ecx
	mov	DWORD PTR _this$[ebp], ecx

; 741  :     HRESULT hr;
; 742  :     if( FAILED( hr = SetSizeInternal( m_nSize + 1 ) ) )

	mov	eax, DWORD PTR _this$[ebp]
	mov	ecx, DWORD PTR [eax+4]
	add	ecx, 1
	push	ecx
	mov	ecx, DWORD PTR _this$[ebp]
	call	?SetSizeInternal@?$CGrowableArray@W4_D3DMULTISAMPLE_TYPE@@@@IAEJH@Z ; CGrowableArray<enum _D3DMULTISAMPLE_TYPE>::SetSizeInternal
	mov	DWORD PTR _hr$[ebp], eax
	cmp	DWORD PTR _hr$[ebp], 0
	jge	SHORT $LN1@Add

; 743  :         return hr;

	mov	eax, DWORD PTR _hr$[ebp]
	jmp	SHORT $LN2@Add
$LN1@Add:

; 744  : 
; 745  :     // Construct the new element
; 746  :     ::new (&m_pData[m_nSize]) TYPE;

	mov	eax, DWORD PTR _this$[ebp]
	mov	ecx, DWORD PTR [eax+4]
	mov	edx, DWORD PTR _this$[ebp]
	mov	eax, DWORD PTR [edx]
	lea	ecx, DWORD PTR [eax+ecx*4]
	push	ecx
	push	4
	call	??2@YAPAXIPAX@Z				; operator new
	add	esp, 8
	mov	DWORD PTR $T1[ebp], eax

; 747  : 
; 748  :     // Assign
; 749  :     m_pData[m_nSize] = value;

	mov	eax, DWORD PTR _this$[ebp]
	mov	ecx, DWORD PTR [eax+4]
	mov	edx, DWORD PTR _this$[ebp]
	mov	eax, DWORD PTR [edx]
	mov	edx, DWORD PTR _value$[ebp]
	mov	edx, DWORD PTR [edx]
	mov	DWORD PTR [eax+ecx*4], edx

; 750  :     ++m_nSize;

	mov	eax, DWORD PTR _this$[ebp]
	mov	ecx, DWORD PTR [eax+4]
	add	ecx, 1
	mov	edx, DWORD PTR _this$[ebp]
	mov	DWORD PTR [edx+4], ecx

; 751  : 
; 752  :     return S_OK;

	xor	eax, eax
$LN2@Add:

; 753  : }

	pop	edi
	pop	esi
	pop	ebx
	add	esp, 228				; 000000e4H
	cmp	ebp, esp
	call	__RTC_CheckEsp
	mov	esp, ebp
	pop	ebp
	ret	4
?Add@?$CGrowableArray@W4_D3DMULTISAMPLE_TYPE@@@@QAEJABW4_D3DMULTISAMPLE_TYPE@@@Z ENDP ; CGrowableArray<enum _D3DMULTISAMPLE_TYPE>::Add
_TEXT	ENDS
; Function compile flags: /Odtp /RTCsu /ZI
; File z:\sampsrc\02xu1\saco\d3d9\common\dxutmisc.h
;	COMDAT ?SetSize@?$CGrowableArray@W4_D3DMULTISAMPLE_TYPE@@@@QAEJH@Z
_TEXT	SEGMENT
$T1 = -260						; size = 4
_i$2 = -56						; size = 4
_hr$ = -44						; size = 4
_i$3 = -32						; size = 4
_nOldSize$ = -20					; size = 4
_this$ = -8						; size = 4
_nNewMaxSize$ = 8					; size = 4
?SetSize@?$CGrowableArray@W4_D3DMULTISAMPLE_TYPE@@@@QAEJH@Z PROC ; CGrowableArray<enum _D3DMULTISAMPLE_TYPE>::SetSize, COMDAT
; _this$ = ecx

; 710  : {

	push	ebp
	mov	ebp, esp
	sub	esp, 264				; 00000108H
	push	ebx
	push	esi
	push	edi
	push	ecx
	lea	edi, DWORD PTR [ebp-264]
	mov	ecx, 66					; 00000042H
	mov	eax, -858993460				; ccccccccH
	rep stosd
	pop	ecx
	mov	DWORD PTR _this$[ebp], ecx

; 711  :     int nOldSize = m_nSize;

	mov	eax, DWORD PTR _this$[ebp]
	mov	ecx, DWORD PTR [eax+4]
	mov	DWORD PTR _nOldSize$[ebp], ecx

; 712  : 
; 713  :     if( nOldSize > nNewMaxSize )

	mov	eax, DWORD PTR _nOldSize$[ebp]
	cmp	eax, DWORD PTR _nNewMaxSize$[ebp]
	jle	SHORT $LN8@SetSize

; 714  :     {
; 715  :         // Removing elements. Call dtor.
; 716  : 
; 717  :         for( int i = nNewMaxSize; i < nOldSize; ++i )

	mov	eax, DWORD PTR _nNewMaxSize$[ebp]
	mov	DWORD PTR _i$3[ebp], eax
	jmp	SHORT $LN7@SetSize
$LN6@SetSize:
	mov	eax, DWORD PTR _i$3[ebp]
	add	eax, 1
	mov	DWORD PTR _i$3[ebp], eax
$LN7@SetSize:
	mov	eax, DWORD PTR _i$3[ebp]
	cmp	eax, DWORD PTR _nOldSize$[ebp]
	jge	SHORT $LN8@SetSize

; 718  :             m_pData[i].~TYPE();

	jmp	SHORT $LN6@SetSize
$LN8@SetSize:

; 719  :     }
; 720  : 
; 721  :     // Adjust buffer.  Note that there's no need to check for error
; 722  :     // since if it happens, nOldSize == nNewMaxSize will be true.)
; 723  :     HRESULT hr = SetSizeInternal( nNewMaxSize );

	mov	eax, DWORD PTR _nNewMaxSize$[ebp]
	push	eax
	mov	ecx, DWORD PTR _this$[ebp]
	call	?SetSizeInternal@?$CGrowableArray@W4_D3DMULTISAMPLE_TYPE@@@@IAEJH@Z ; CGrowableArray<enum _D3DMULTISAMPLE_TYPE>::SetSizeInternal
	mov	DWORD PTR _hr$[ebp], eax

; 724  : 
; 725  :     if( nOldSize < nNewMaxSize )

	mov	eax, DWORD PTR _nOldSize$[ebp]
	cmp	eax, DWORD PTR _nNewMaxSize$[ebp]
	jge	SHORT $LN4@SetSize

; 726  :     {
; 727  :         // Adding elements. Call ctor.
; 728  : 
; 729  :         for( int i = nOldSize; i < nNewMaxSize; ++i )

	mov	eax, DWORD PTR _nOldSize$[ebp]
	mov	DWORD PTR _i$2[ebp], eax
	jmp	SHORT $LN3@SetSize
$LN2@SetSize:
	mov	eax, DWORD PTR _i$2[ebp]
	add	eax, 1
	mov	DWORD PTR _i$2[ebp], eax
$LN3@SetSize:
	mov	eax, DWORD PTR _i$2[ebp]
	cmp	eax, DWORD PTR _nNewMaxSize$[ebp]
	jge	SHORT $LN4@SetSize

; 730  :             ::new (&m_pData[i]) TYPE;

	mov	eax, DWORD PTR _this$[ebp]
	mov	ecx, DWORD PTR [eax]
	mov	edx, DWORD PTR _i$2[ebp]
	lea	eax, DWORD PTR [ecx+edx*4]
	push	eax
	push	4
	call	??2@YAPAXIPAX@Z				; operator new
	add	esp, 8
	mov	DWORD PTR $T1[ebp], eax
	jmp	SHORT $LN2@SetSize
$LN4@SetSize:

; 731  :     }
; 732  : 
; 733  :     return hr;

	mov	eax, DWORD PTR _hr$[ebp]

; 734  : }

	pop	edi
	pop	esi
	pop	ebx
	add	esp, 264				; 00000108H
	cmp	ebp, esp
	call	__RTC_CheckEsp
	mov	esp, ebp
	pop	ebp
	ret	4
?SetSize@?$CGrowableArray@W4_D3DMULTISAMPLE_TYPE@@@@QAEJH@Z ENDP ; CGrowableArray<enum _D3DMULTISAMPLE_TYPE>::SetSize
_TEXT	ENDS
; Function compile flags: /Odtp /RTCsu /ZI
; File z:\sampsrc\02xu1\saco\d3d9\common\dxutmisc.h
;	COMDAT ??1?$CGrowableArray@W4_D3DMULTISAMPLE_TYPE@@@@QAE@XZ
_TEXT	SEGMENT
_this$ = -8						; size = 4
??1?$CGrowableArray@W4_D3DMULTISAMPLE_TYPE@@@@QAE@XZ PROC ; CGrowableArray<enum _D3DMULTISAMPLE_TYPE>::~CGrowableArray<enum _D3DMULTISAMPLE_TYPE>, COMDAT
; _this$ = ecx

; 22   :     ~CGrowableArray() { RemoveAll(); }

	push	ebp
	mov	ebp, esp
	sub	esp, 204				; 000000ccH
	push	ebx
	push	esi
	push	edi
	push	ecx
	lea	edi, DWORD PTR [ebp-204]
	mov	ecx, 51					; 00000033H
	mov	eax, -858993460				; ccccccccH
	rep stosd
	pop	ecx
	mov	DWORD PTR _this$[ebp], ecx
	mov	ecx, DWORD PTR _this$[ebp]
	call	?RemoveAll@?$CGrowableArray@W4_D3DMULTISAMPLE_TYPE@@@@QAEXXZ ; CGrowableArray<enum _D3DMULTISAMPLE_TYPE>::RemoveAll
	pop	edi
	pop	esi
	pop	ebx
	add	esp, 204				; 000000ccH
	cmp	ebp, esp
	call	__RTC_CheckEsp
	mov	esp, ebp
	pop	ebp
	ret	0
??1?$CGrowableArray@W4_D3DMULTISAMPLE_TYPE@@@@QAE@XZ ENDP ; CGrowableArray<enum _D3DMULTISAMPLE_TYPE>::~CGrowableArray<enum _D3DMULTISAMPLE_TYPE>
_TEXT	ENDS
; Function compile flags: /Odtp /RTCsu /ZI
; File z:\sampsrc\02xu1\saco\d3d9\common\dxutmisc.h
;	COMDAT ??0?$CGrowableArray@W4_D3DMULTISAMPLE_TYPE@@@@QAE@XZ
_TEXT	SEGMENT
_this$ = -8						; size = 4
??0?$CGrowableArray@W4_D3DMULTISAMPLE_TYPE@@@@QAE@XZ PROC ; CGrowableArray<enum _D3DMULTISAMPLE_TYPE>::CGrowableArray<enum _D3DMULTISAMPLE_TYPE>, COMDAT
; _this$ = ecx

; 20   :     CGrowableArray()  { m_pData = NULL; m_nSize = 0; m_nMaxSize = 0; }

	push	ebp
	mov	ebp, esp
	sub	esp, 204				; 000000ccH
	push	ebx
	push	esi
	push	edi
	push	ecx
	lea	edi, DWORD PTR [ebp-204]
	mov	ecx, 51					; 00000033H
	mov	eax, -858993460				; ccccccccH
	rep stosd
	pop	ecx
	mov	DWORD PTR _this$[ebp], ecx
	mov	eax, DWORD PTR _this$[ebp]
	mov	DWORD PTR [eax], 0
	mov	eax, DWORD PTR _this$[ebp]
	mov	DWORD PTR [eax+4], 0
	mov	eax, DWORD PTR _this$[ebp]
	mov	DWORD PTR [eax+8], 0
	mov	eax, DWORD PTR _this$[ebp]
	pop	edi
	pop	esi
	pop	ebx
	mov	esp, ebp
	pop	ebp
	ret	0
??0?$CGrowableArray@W4_D3DMULTISAMPLE_TYPE@@@@QAE@XZ ENDP ; CGrowableArray<enum _D3DMULTISAMPLE_TYPE>::CGrowableArray<enum _D3DMULTISAMPLE_TYPE>
_TEXT	ENDS
; Function compile flags: /Odtp /RTCsu /ZI
; File z:\sampsrc\02xu1\saco\d3d9\common\dxutmisc.h
;	COMDAT ?SetSizeInternal@?$CGrowableArray@W4_D3DFORMAT@@@@IAEJH@Z
_TEXT	SEGMENT
tv91 = -232						; size = 4
tv85 = -232						; size = 4
_pDataNew$1 = -32					; size = 4
_nGrowBy$2 = -20					; size = 4
_this$ = -8						; size = 4
_nNewMaxSize$ = 8					; size = 4
?SetSizeInternal@?$CGrowableArray@W4_D3DFORMAT@@@@IAEJH@Z PROC ; CGrowableArray<enum _D3DFORMAT>::SetSizeInternal, COMDAT
; _this$ = ecx

; 670  : {

	push	ebp
	mov	ebp, esp
	sub	esp, 232				; 000000e8H
	push	ebx
	push	esi
	push	edi
	push	ecx
	lea	edi, DWORD PTR [ebp-232]
	mov	ecx, 58					; 0000003aH
	mov	eax, -858993460				; ccccccccH
	rep stosd
	pop	ecx
	mov	DWORD PTR _this$[ebp], ecx

; 671  :     if( nNewMaxSize < 0 )

	cmp	DWORD PTR _nNewMaxSize$[ebp], 0
	jge	SHORT $LN7@SetSizeInt

; 672  :     {
; 673  :         assert( false );

	xor	eax, eax
	jne	SHORT $LN10@SetSizeInt
	push	673					; 000002a1H
	push	OFFSET ??_C@_1FK@FIMIDMPE@?$AAz?$AA?3?$AA?2?$AAs?$AAa?$AAm?$AAp?$AAs?$AAr?$AAc?$AA?2?$AA0?$AA2?$AAx?$AAu?$AA1?$AA?2?$AAs?$AAa?$AAc?$AAo?$AA?2?$AAd?$AA3?$AAd?$AA9?$AA?2?$AAc?$AAo?$AAm?$AAm?$AAo@
	push	OFFSET ??_C@_1M@HLGKFCJM@?$AAf?$AAa?$AAl?$AAs?$AAe?$AA?$AA@
	call	__wassert
	add	esp, 12					; 0000000cH
$LN10@SetSizeInt:

; 674  :         return E_INVALIDARG;

	mov	eax, -2147024809			; 80070057H
	jmp	$LN8@SetSizeInt
$LN7@SetSizeInt:

; 675  :     }
; 676  : 
; 677  :     if( nNewMaxSize == 0 )

	cmp	DWORD PTR _nNewMaxSize$[ebp], 0
	jne	SHORT $LN6@SetSizeInt

; 678  :     {
; 679  :         // Shrink to 0 size & cleanup
; 680  :         if( m_pData )

	mov	eax, DWORD PTR _this$[ebp]
	cmp	DWORD PTR [eax], 0
	je	SHORT $LN5@SetSizeInt

; 681  :         {
; 682  :             free( m_pData );

	mov	eax, DWORD PTR _this$[ebp]
	mov	ecx, DWORD PTR [eax]
	push	ecx
	call	_free
	add	esp, 4

; 683  :             m_pData = NULL;

	mov	eax, DWORD PTR _this$[ebp]
	mov	DWORD PTR [eax], 0
$LN5@SetSizeInt:

; 684  :         }
; 685  : 
; 686  :         m_nMaxSize = 0;

	mov	eax, DWORD PTR _this$[ebp]
	mov	DWORD PTR [eax+8], 0

; 687  :         m_nSize = 0;

	mov	eax, DWORD PTR _this$[ebp]
	mov	DWORD PTR [eax+4], 0
	jmp	$LN4@SetSizeInt
$LN6@SetSizeInt:

; 688  :     }
; 689  :     else if( m_pData == NULL || nNewMaxSize > m_nMaxSize )

	mov	eax, DWORD PTR _this$[ebp]
	cmp	DWORD PTR [eax], 0
	je	SHORT $LN2@SetSizeInt
	mov	eax, DWORD PTR _this$[ebp]
	mov	ecx, DWORD PTR _nNewMaxSize$[ebp]
	cmp	ecx, DWORD PTR [eax+8]
	jle	$LN4@SetSizeInt
$LN2@SetSizeInt:

; 690  :     {
; 691  :         // Grow array
; 692  :         int nGrowBy = ( m_nMaxSize == 0 ) ? 16 : m_nMaxSize;

	mov	eax, DWORD PTR _this$[ebp]
	cmp	DWORD PTR [eax+8], 0
	jne	SHORT $LN11@SetSizeInt
	mov	DWORD PTR tv85[ebp], 16			; 00000010H
	jmp	SHORT $LN12@SetSizeInt
$LN11@SetSizeInt:
	mov	ecx, DWORD PTR _this$[ebp]
	mov	edx, DWORD PTR [ecx+8]
	mov	DWORD PTR tv85[ebp], edx
$LN12@SetSizeInt:
	mov	eax, DWORD PTR tv85[ebp]
	mov	DWORD PTR _nGrowBy$2[ebp], eax

; 693  :         nNewMaxSize = __max( nNewMaxSize, m_nMaxSize + nGrowBy );

	mov	eax, DWORD PTR _this$[ebp]
	mov	ecx, DWORD PTR [eax+8]
	add	ecx, DWORD PTR _nGrowBy$2[ebp]
	cmp	DWORD PTR _nNewMaxSize$[ebp], ecx
	jle	SHORT $LN13@SetSizeInt
	mov	edx, DWORD PTR _nNewMaxSize$[ebp]
	mov	DWORD PTR tv91[ebp], edx
	jmp	SHORT $LN14@SetSizeInt
$LN13@SetSizeInt:
	mov	eax, DWORD PTR _this$[ebp]
	mov	ecx, DWORD PTR [eax+8]
	add	ecx, DWORD PTR _nGrowBy$2[ebp]
	mov	DWORD PTR tv91[ebp], ecx
$LN14@SetSizeInt:
	mov	edx, DWORD PTR tv91[ebp]
	mov	DWORD PTR _nNewMaxSize$[ebp], edx

; 694  : 
; 695  :         TYPE* pDataNew = (TYPE*) realloc( m_pData, nNewMaxSize * sizeof(TYPE) );

	mov	eax, DWORD PTR _nNewMaxSize$[ebp]
	shl	eax, 2
	push	eax
	mov	ecx, DWORD PTR _this$[ebp]
	mov	edx, DWORD PTR [ecx]
	push	edx
	call	_realloc
	add	esp, 8
	mov	DWORD PTR _pDataNew$1[ebp], eax

; 696  :         if( pDataNew == NULL )

	cmp	DWORD PTR _pDataNew$1[ebp], 0
	jne	SHORT $LN1@SetSizeInt

; 697  :             return E_OUTOFMEMORY;

	mov	eax, -2147024882			; 8007000eH
	jmp	SHORT $LN8@SetSizeInt
$LN1@SetSizeInt:

; 698  : 
; 699  :         m_pData = pDataNew;

	mov	eax, DWORD PTR _this$[ebp]
	mov	ecx, DWORD PTR _pDataNew$1[ebp]
	mov	DWORD PTR [eax], ecx

; 700  :         m_nMaxSize = nNewMaxSize;

	mov	eax, DWORD PTR _this$[ebp]
	mov	ecx, DWORD PTR _nNewMaxSize$[ebp]
	mov	DWORD PTR [eax+8], ecx
$LN4@SetSizeInt:

; 701  :     }
; 702  : 
; 703  :     return S_OK;

	xor	eax, eax
$LN8@SetSizeInt:

; 704  : }

	pop	edi
	pop	esi
	pop	ebx
	add	esp, 232				; 000000e8H
	cmp	ebp, esp
	call	__RTC_CheckEsp
	mov	esp, ebp
	pop	ebp
	ret	4
?SetSizeInternal@?$CGrowableArray@W4_D3DFORMAT@@@@IAEJH@Z ENDP ; CGrowableArray<enum _D3DFORMAT>::SetSizeInternal
_TEXT	ENDS
; Function compile flags: /Odtp /RTCsu /ZI
; File z:\sampsrc\02xu1\saco\d3d9\common\dxutmisc.h
;	COMDAT ?RemoveAll@?$CGrowableArray@W4_D3DFORMAT@@@@QAEXXZ
_TEXT	SEGMENT
_this$ = -8						; size = 4
?RemoveAll@?$CGrowableArray@W4_D3DFORMAT@@@@QAEXXZ PROC	; CGrowableArray<enum _D3DFORMAT>::RemoveAll, COMDAT
; _this$ = ecx

; 47   :     void    RemoveAll() { SetSize(0); }

	push	ebp
	mov	ebp, esp
	sub	esp, 204				; 000000ccH
	push	ebx
	push	esi
	push	edi
	push	ecx
	lea	edi, DWORD PTR [ebp-204]
	mov	ecx, 51					; 00000033H
	mov	eax, -858993460				; ccccccccH
	rep stosd
	pop	ecx
	mov	DWORD PTR _this$[ebp], ecx
	push	0
	mov	ecx, DWORD PTR _this$[ebp]
	call	?SetSize@?$CGrowableArray@W4_D3DFORMAT@@@@QAEJH@Z ; CGrowableArray<enum _D3DFORMAT>::SetSize
	pop	edi
	pop	esi
	pop	ebx
	add	esp, 204				; 000000ccH
	cmp	ebp, esp
	call	__RTC_CheckEsp
	mov	esp, ebp
	pop	ebp
	ret	0
?RemoveAll@?$CGrowableArray@W4_D3DFORMAT@@@@QAEXXZ ENDP	; CGrowableArray<enum _D3DFORMAT>::RemoveAll
_TEXT	ENDS
; Function compile flags: /Odtp /RTCsu /ZI
; File z:\sampsrc\02xu1\saco\d3d9\common\dxutmisc.h
;	COMDAT ?IndexOf@?$CGrowableArray@W4_D3DFORMAT@@@@QAEHABW4_D3DFORMAT@@HH@Z
_TEXT	SEGMENT
_i$1 = -20						; size = 4
_this$ = -8						; size = 4
_value$ = 8						; size = 4
_iStart$ = 12						; size = 4
_nNumElements$ = 16					; size = 4
?IndexOf@?$CGrowableArray@W4_D3DFORMAT@@@@QAEHABW4_D3DFORMAT@@HH@Z PROC ; CGrowableArray<enum _D3DFORMAT>::IndexOf, COMDAT
; _this$ = ecx

; 813  : {

	push	ebp
	mov	ebp, esp
	sub	esp, 216				; 000000d8H
	push	ebx
	push	esi
	push	edi
	push	ecx
	lea	edi, DWORD PTR [ebp-216]
	mov	ecx, 54					; 00000036H
	mov	eax, -858993460				; ccccccccH
	rep stosd
	pop	ecx
	mov	DWORD PTR _this$[ebp], ecx

; 814  :     // Validate arguments
; 815  :     if( iStart < 0 || 
; 816  :         iStart >= m_nSize ||
; 817  :         nNumElements < 0 ||
; 818  :         iStart + nNumElements > m_nSize )

	cmp	DWORD PTR _iStart$[ebp], 0
	jl	SHORT $LN5@IndexOf
	mov	eax, DWORD PTR _this$[ebp]
	mov	ecx, DWORD PTR _iStart$[ebp]
	cmp	ecx, DWORD PTR [eax+4]
	jge	SHORT $LN5@IndexOf
	cmp	DWORD PTR _nNumElements$[ebp], 0
	jl	SHORT $LN5@IndexOf
	mov	eax, DWORD PTR _iStart$[ebp]
	add	eax, DWORD PTR _nNumElements$[ebp]
	mov	ecx, DWORD PTR _this$[ebp]
	cmp	eax, DWORD PTR [ecx+4]
	jle	SHORT $LN6@IndexOf
$LN5@IndexOf:

; 819  :     {
; 820  :         assert( false );

	xor	eax, eax
	jne	SHORT $LN9@IndexOf
	push	820					; 00000334H
	push	OFFSET ??_C@_1FK@FIMIDMPE@?$AAz?$AA?3?$AA?2?$AAs?$AAa?$AAm?$AAp?$AAs?$AAr?$AAc?$AA?2?$AA0?$AA2?$AAx?$AAu?$AA1?$AA?2?$AAs?$AAa?$AAc?$AAo?$AA?2?$AAd?$AA3?$AAd?$AA9?$AA?2?$AAc?$AAo?$AAm?$AAm?$AAo@
	push	OFFSET ??_C@_1M@HLGKFCJM@?$AAf?$AAa?$AAl?$AAs?$AAe?$AA?$AA@
	call	__wassert
	add	esp, 12					; 0000000cH
$LN9@IndexOf:

; 821  :         return -1;

	or	eax, -1
	jmp	SHORT $LN7@IndexOf
$LN6@IndexOf:

; 822  :     }
; 823  : 
; 824  :     // Search
; 825  :     for( int i = iStart; i < (iStart + nNumElements); i++ )

	mov	eax, DWORD PTR _iStart$[ebp]
	mov	DWORD PTR _i$1[ebp], eax
	jmp	SHORT $LN4@IndexOf
$LN3@IndexOf:
	mov	eax, DWORD PTR _i$1[ebp]
	add	eax, 1
	mov	DWORD PTR _i$1[ebp], eax
$LN4@IndexOf:
	mov	eax, DWORD PTR _iStart$[ebp]
	add	eax, DWORD PTR _nNumElements$[ebp]
	cmp	DWORD PTR _i$1[ebp], eax
	jge	SHORT $LN2@IndexOf

; 826  :     {
; 827  :         if( value == m_pData[i] )

	mov	eax, DWORD PTR _this$[ebp]
	mov	ecx, DWORD PTR [eax]
	mov	edx, DWORD PTR _value$[ebp]
	mov	eax, DWORD PTR _i$1[ebp]
	mov	edx, DWORD PTR [edx]
	cmp	edx, DWORD PTR [ecx+eax*4]
	jne	SHORT $LN1@IndexOf

; 828  :             return i;

	mov	eax, DWORD PTR _i$1[ebp]
	jmp	SHORT $LN7@IndexOf
$LN1@IndexOf:

; 829  :     }

	jmp	SHORT $LN3@IndexOf
$LN2@IndexOf:

; 830  : 
; 831  :     // Not found
; 832  :     return -1;

	or	eax, -1
$LN7@IndexOf:

; 833  : }

	pop	edi
	pop	esi
	pop	ebx
	add	esp, 216				; 000000d8H
	cmp	ebp, esp
	call	__RTC_CheckEsp
	mov	esp, ebp
	pop	ebp
	ret	12					; 0000000cH
?IndexOf@?$CGrowableArray@W4_D3DFORMAT@@@@QAEHABW4_D3DFORMAT@@HH@Z ENDP ; CGrowableArray<enum _D3DFORMAT>::IndexOf
_TEXT	ENDS
; Function compile flags: /Odtp /RTCsu /ZI
; File z:\sampsrc\02xu1\saco\d3d9\common\dxutmisc.h
;	COMDAT ?IndexOf@?$CGrowableArray@W4_D3DFORMAT@@@@QAEHABW4_D3DFORMAT@@@Z
_TEXT	SEGMENT
tv72 = -208						; size = 4
_this$ = -8						; size = 4
_value$ = 8						; size = 4
?IndexOf@?$CGrowableArray@W4_D3DFORMAT@@@@QAEHABW4_D3DFORMAT@@@Z PROC ; CGrowableArray<enum _D3DFORMAT>::IndexOf, COMDAT
; _this$ = ecx

; 38   :     int     IndexOf( const TYPE& value ) { return ( m_nSize > 0 ) ? IndexOf( value, 0, m_nSize ) : -1; }

	push	ebp
	mov	ebp, esp
	sub	esp, 208				; 000000d0H
	push	ebx
	push	esi
	push	edi
	push	ecx
	lea	edi, DWORD PTR [ebp-208]
	mov	ecx, 52					; 00000034H
	mov	eax, -858993460				; ccccccccH
	rep stosd
	pop	ecx
	mov	DWORD PTR _this$[ebp], ecx
	mov	eax, DWORD PTR _this$[ebp]
	cmp	DWORD PTR [eax+4], 0
	jle	SHORT $LN3@IndexOf
	mov	ecx, DWORD PTR _this$[ebp]
	mov	edx, DWORD PTR [ecx+4]
	push	edx
	push	0
	mov	eax, DWORD PTR _value$[ebp]
	push	eax
	mov	ecx, DWORD PTR _this$[ebp]
	call	?IndexOf@?$CGrowableArray@W4_D3DFORMAT@@@@QAEHABW4_D3DFORMAT@@HH@Z ; CGrowableArray<enum _D3DFORMAT>::IndexOf
	mov	DWORD PTR tv72[ebp], eax
	jmp	SHORT $LN4@IndexOf
$LN3@IndexOf:
	mov	DWORD PTR tv72[ebp], -1
$LN4@IndexOf:
	mov	eax, DWORD PTR tv72[ebp]
	pop	edi
	pop	esi
	pop	ebx
	add	esp, 208				; 000000d0H
	cmp	ebp, esp
	call	__RTC_CheckEsp
	mov	esp, ebp
	pop	ebp
	ret	4
?IndexOf@?$CGrowableArray@W4_D3DFORMAT@@@@QAEHABW4_D3DFORMAT@@@Z ENDP ; CGrowableArray<enum _D3DFORMAT>::IndexOf
_TEXT	ENDS
; Function compile flags: /Odtp /RTCsu /ZI
; File z:\sampsrc\02xu1\saco\d3d9\common\dxutmisc.h
;	COMDAT ?Contains@?$CGrowableArray@W4_D3DFORMAT@@@@QAE_NABW4_D3DFORMAT@@@Z
_TEXT	SEGMENT
tv68 = -208						; size = 4
_this$ = -8						; size = 4
_value$ = 8						; size = 4
?Contains@?$CGrowableArray@W4_D3DFORMAT@@@@QAE_NABW4_D3DFORMAT@@@Z PROC ; CGrowableArray<enum _D3DFORMAT>::Contains, COMDAT
; _this$ = ecx

; 36   :     bool    Contains( const TYPE& value ){ return ( -1 != IndexOf( value ) ); }

	push	ebp
	mov	ebp, esp
	sub	esp, 208				; 000000d0H
	push	ebx
	push	esi
	push	edi
	push	ecx
	lea	edi, DWORD PTR [ebp-208]
	mov	ecx, 52					; 00000034H
	mov	eax, -858993460				; ccccccccH
	rep stosd
	pop	ecx
	mov	DWORD PTR _this$[ebp], ecx
	mov	eax, DWORD PTR _value$[ebp]
	push	eax
	mov	ecx, DWORD PTR _this$[ebp]
	call	?IndexOf@?$CGrowableArray@W4_D3DFORMAT@@@@QAEHABW4_D3DFORMAT@@@Z ; CGrowableArray<enum _D3DFORMAT>::IndexOf
	cmp	eax, -1
	je	SHORT $LN3@Contains
	mov	DWORD PTR tv68[ebp], 1
	jmp	SHORT $LN4@Contains
$LN3@Contains:
	mov	DWORD PTR tv68[ebp], 0
$LN4@Contains:
	mov	al, BYTE PTR tv68[ebp]
	pop	edi
	pop	esi
	pop	ebx
	add	esp, 208				; 000000d0H
	cmp	ebp, esp
	call	__RTC_CheckEsp
	mov	esp, ebp
	pop	ebp
	ret	4
?Contains@?$CGrowableArray@W4_D3DFORMAT@@@@QAE_NABW4_D3DFORMAT@@@Z ENDP ; CGrowableArray<enum _D3DFORMAT>::Contains
_TEXT	ENDS
; Function compile flags: /Odtp /RTCsu /ZI
; File z:\sampsrc\02xu1\saco\d3d9\common\dxutmisc.h
;	COMDAT ?GetSize@?$CGrowableArray@W4_D3DFORMAT@@@@QBEHXZ
_TEXT	SEGMENT
_this$ = -8						; size = 4
?GetSize@?$CGrowableArray@W4_D3DFORMAT@@@@QBEHXZ PROC	; CGrowableArray<enum _D3DFORMAT>::GetSize, COMDAT
; _this$ = ecx

; 34   :     int     GetSize() const { return m_nSize; }

	push	ebp
	mov	ebp, esp
	sub	esp, 204				; 000000ccH
	push	ebx
	push	esi
	push	edi
	push	ecx
	lea	edi, DWORD PTR [ebp-204]
	mov	ecx, 51					; 00000033H
	mov	eax, -858993460				; ccccccccH
	rep stosd
	pop	ecx
	mov	DWORD PTR _this$[ebp], ecx
	mov	eax, DWORD PTR _this$[ebp]
	mov	eax, DWORD PTR [eax+4]
	pop	edi
	pop	esi
	pop	ebx
	mov	esp, ebp
	pop	ebp
	ret	0
?GetSize@?$CGrowableArray@W4_D3DFORMAT@@@@QBEHXZ ENDP	; CGrowableArray<enum _D3DFORMAT>::GetSize
_TEXT	ENDS
; Function compile flags: /Odtp /RTCsu /ZI
; File z:\sampsrc\02xu1\saco\d3d9\common\dxutmisc.h
;	COMDAT ?GetAt@?$CGrowableArray@W4_D3DFORMAT@@@@QAEAAW4_D3DFORMAT@@H@Z
_TEXT	SEGMENT
_this$ = -8						; size = 4
_nIndex$ = 8						; size = 4
?GetAt@?$CGrowableArray@W4_D3DFORMAT@@@@QAEAAW4_D3DFORMAT@@H@Z PROC ; CGrowableArray<enum _D3DFORMAT>::GetAt, COMDAT
; _this$ = ecx

; 33   :     TYPE&   GetAt( int nIndex ) { assert( nIndex >= 0 && nIndex < m_nSize ); return m_pData[nIndex]; }

	push	ebp
	mov	ebp, esp
	sub	esp, 204				; 000000ccH
	push	ebx
	push	esi
	push	edi
	push	ecx
	lea	edi, DWORD PTR [ebp-204]
	mov	ecx, 51					; 00000033H
	mov	eax, -858993460				; ccccccccH
	rep stosd
	pop	ecx
	mov	DWORD PTR _this$[ebp], ecx
	cmp	DWORD PTR _nIndex$[ebp], 0
	jl	SHORT $LN3@GetAt
	mov	eax, DWORD PTR _this$[ebp]
	mov	ecx, DWORD PTR _nIndex$[ebp]
	cmp	ecx, DWORD PTR [eax+4]
	jl	SHORT $LN4@GetAt
$LN3@GetAt:
	push	33					; 00000021H
	push	OFFSET ??_C@_1FK@FIMIDMPE@?$AAz?$AA?3?$AA?2?$AAs?$AAa?$AAm?$AAp?$AAs?$AAr?$AAc?$AA?2?$AA0?$AA2?$AAx?$AAu?$AA1?$AA?2?$AAs?$AAa?$AAc?$AAo?$AA?2?$AAd?$AA3?$AAd?$AA9?$AA?2?$AAc?$AAo?$AAm?$AAm?$AAo@
	push	OFFSET ??_C@_1EA@JHMKKLFC@?$AAn?$AAI?$AAn?$AAd?$AAe?$AAx?$AA?5?$AA?$DO?$AA?$DN?$AA?5?$AA0?$AA?5?$AA?$CG?$AA?$CG?$AA?5?$AAn?$AAI?$AAn?$AAd?$AAe?$AAx?$AA?5?$AA?$DM?$AA?5?$AAm?$AA_?$AAn?$AAS?$AAi?$AAz?$AAe?$AA?$AA@
	call	__wassert
	add	esp, 12					; 0000000cH
$LN4@GetAt:
	mov	eax, DWORD PTR _this$[ebp]
	mov	ecx, DWORD PTR [eax]
	mov	edx, DWORD PTR _nIndex$[ebp]
	lea	eax, DWORD PTR [ecx+edx*4]
	pop	edi
	pop	esi
	pop	ebx
	add	esp, 204				; 000000ccH
	cmp	ebp, esp
	call	__RTC_CheckEsp
	mov	esp, ebp
	pop	ebp
	ret	4
?GetAt@?$CGrowableArray@W4_D3DFORMAT@@@@QAEAAW4_D3DFORMAT@@H@Z ENDP ; CGrowableArray<enum _D3DFORMAT>::GetAt
_TEXT	ENDS
; Function compile flags: /Odtp /RTCsu /ZI
; File z:\sampsrc\02xu1\saco\d3d9\common\dxutmisc.h
;	COMDAT ?Add@?$CGrowableArray@W4_D3DFORMAT@@@@QAEJABW4_D3DFORMAT@@@Z
_TEXT	SEGMENT
$T1 = -224						; size = 4
_hr$ = -20						; size = 4
_this$ = -8						; size = 4
_value$ = 8						; size = 4
?Add@?$CGrowableArray@W4_D3DFORMAT@@@@QAEJABW4_D3DFORMAT@@@Z PROC ; CGrowableArray<enum _D3DFORMAT>::Add, COMDAT
; _this$ = ecx

; 740  : {

	push	ebp
	mov	ebp, esp
	sub	esp, 228				; 000000e4H
	push	ebx
	push	esi
	push	edi
	push	ecx
	lea	edi, DWORD PTR [ebp-228]
	mov	ecx, 57					; 00000039H
	mov	eax, -858993460				; ccccccccH
	rep stosd
	pop	ecx
	mov	DWORD PTR _this$[ebp], ecx

; 741  :     HRESULT hr;
; 742  :     if( FAILED( hr = SetSizeInternal( m_nSize + 1 ) ) )

	mov	eax, DWORD PTR _this$[ebp]
	mov	ecx, DWORD PTR [eax+4]
	add	ecx, 1
	push	ecx
	mov	ecx, DWORD PTR _this$[ebp]
	call	?SetSizeInternal@?$CGrowableArray@W4_D3DFORMAT@@@@IAEJH@Z ; CGrowableArray<enum _D3DFORMAT>::SetSizeInternal
	mov	DWORD PTR _hr$[ebp], eax
	cmp	DWORD PTR _hr$[ebp], 0
	jge	SHORT $LN1@Add

; 743  :         return hr;

	mov	eax, DWORD PTR _hr$[ebp]
	jmp	SHORT $LN2@Add
$LN1@Add:

; 744  : 
; 745  :     // Construct the new element
; 746  :     ::new (&m_pData[m_nSize]) TYPE;

	mov	eax, DWORD PTR _this$[ebp]
	mov	ecx, DWORD PTR [eax+4]
	mov	edx, DWORD PTR _this$[ebp]
	mov	eax, DWORD PTR [edx]
	lea	ecx, DWORD PTR [eax+ecx*4]
	push	ecx
	push	4
	call	??2@YAPAXIPAX@Z				; operator new
	add	esp, 8
	mov	DWORD PTR $T1[ebp], eax

; 747  : 
; 748  :     // Assign
; 749  :     m_pData[m_nSize] = value;

	mov	eax, DWORD PTR _this$[ebp]
	mov	ecx, DWORD PTR [eax+4]
	mov	edx, DWORD PTR _this$[ebp]
	mov	eax, DWORD PTR [edx]
	mov	edx, DWORD PTR _value$[ebp]
	mov	edx, DWORD PTR [edx]
	mov	DWORD PTR [eax+ecx*4], edx

; 750  :     ++m_nSize;

	mov	eax, DWORD PTR _this$[ebp]
	mov	ecx, DWORD PTR [eax+4]
	add	ecx, 1
	mov	edx, DWORD PTR _this$[ebp]
	mov	DWORD PTR [edx+4], ecx

; 751  : 
; 752  :     return S_OK;

	xor	eax, eax
$LN2@Add:

; 753  : }

	pop	edi
	pop	esi
	pop	ebx
	add	esp, 228				; 000000e4H
	cmp	ebp, esp
	call	__RTC_CheckEsp
	mov	esp, ebp
	pop	ebp
	ret	4
?Add@?$CGrowableArray@W4_D3DFORMAT@@@@QAEJABW4_D3DFORMAT@@@Z ENDP ; CGrowableArray<enum _D3DFORMAT>::Add
_TEXT	ENDS
; Function compile flags: /Odtp /RTCsu /ZI
; File z:\sampsrc\02xu1\saco\d3d9\common\dxutmisc.h
;	COMDAT ?SetSize@?$CGrowableArray@W4_D3DFORMAT@@@@QAEJH@Z
_TEXT	SEGMENT
$T1 = -260						; size = 4
_i$2 = -56						; size = 4
_hr$ = -44						; size = 4
_i$3 = -32						; size = 4
_nOldSize$ = -20					; size = 4
_this$ = -8						; size = 4
_nNewMaxSize$ = 8					; size = 4
?SetSize@?$CGrowableArray@W4_D3DFORMAT@@@@QAEJH@Z PROC	; CGrowableArray<enum _D3DFORMAT>::SetSize, COMDAT
; _this$ = ecx

; 710  : {

	push	ebp
	mov	ebp, esp
	sub	esp, 264				; 00000108H
	push	ebx
	push	esi
	push	edi
	push	ecx
	lea	edi, DWORD PTR [ebp-264]
	mov	ecx, 66					; 00000042H
	mov	eax, -858993460				; ccccccccH
	rep stosd
	pop	ecx
	mov	DWORD PTR _this$[ebp], ecx

; 711  :     int nOldSize = m_nSize;

	mov	eax, DWORD PTR _this$[ebp]
	mov	ecx, DWORD PTR [eax+4]
	mov	DWORD PTR _nOldSize$[ebp], ecx

; 712  : 
; 713  :     if( nOldSize > nNewMaxSize )

	mov	eax, DWORD PTR _nOldSize$[ebp]
	cmp	eax, DWORD PTR _nNewMaxSize$[ebp]
	jle	SHORT $LN8@SetSize

; 714  :     {
; 715  :         // Removing elements. Call dtor.
; 716  : 
; 717  :         for( int i = nNewMaxSize; i < nOldSize; ++i )

	mov	eax, DWORD PTR _nNewMaxSize$[ebp]
	mov	DWORD PTR _i$3[ebp], eax
	jmp	SHORT $LN7@SetSize
$LN6@SetSize:
	mov	eax, DWORD PTR _i$3[ebp]
	add	eax, 1
	mov	DWORD PTR _i$3[ebp], eax
$LN7@SetSize:
	mov	eax, DWORD PTR _i$3[ebp]
	cmp	eax, DWORD PTR _nOldSize$[ebp]
	jge	SHORT $LN8@SetSize

; 718  :             m_pData[i].~TYPE();

	jmp	SHORT $LN6@SetSize
$LN8@SetSize:

; 719  :     }
; 720  : 
; 721  :     // Adjust buffer.  Note that there's no need to check for error
; 722  :     // since if it happens, nOldSize == nNewMaxSize will be true.)
; 723  :     HRESULT hr = SetSizeInternal( nNewMaxSize );

	mov	eax, DWORD PTR _nNewMaxSize$[ebp]
	push	eax
	mov	ecx, DWORD PTR _this$[ebp]
	call	?SetSizeInternal@?$CGrowableArray@W4_D3DFORMAT@@@@IAEJH@Z ; CGrowableArray<enum _D3DFORMAT>::SetSizeInternal
	mov	DWORD PTR _hr$[ebp], eax

; 724  : 
; 725  :     if( nOldSize < nNewMaxSize )

	mov	eax, DWORD PTR _nOldSize$[ebp]
	cmp	eax, DWORD PTR _nNewMaxSize$[ebp]
	jge	SHORT $LN4@SetSize

; 726  :     {
; 727  :         // Adding elements. Call ctor.
; 728  : 
; 729  :         for( int i = nOldSize; i < nNewMaxSize; ++i )

	mov	eax, DWORD PTR _nOldSize$[ebp]
	mov	DWORD PTR _i$2[ebp], eax
	jmp	SHORT $LN3@SetSize
$LN2@SetSize:
	mov	eax, DWORD PTR _i$2[ebp]
	add	eax, 1
	mov	DWORD PTR _i$2[ebp], eax
$LN3@SetSize:
	mov	eax, DWORD PTR _i$2[ebp]
	cmp	eax, DWORD PTR _nNewMaxSize$[ebp]
	jge	SHORT $LN4@SetSize

; 730  :             ::new (&m_pData[i]) TYPE;

	mov	eax, DWORD PTR _this$[ebp]
	mov	ecx, DWORD PTR [eax]
	mov	edx, DWORD PTR _i$2[ebp]
	lea	eax, DWORD PTR [ecx+edx*4]
	push	eax
	push	4
	call	??2@YAPAXIPAX@Z				; operator new
	add	esp, 8
	mov	DWORD PTR $T1[ebp], eax
	jmp	SHORT $LN2@SetSize
$LN4@SetSize:

; 731  :     }
; 732  : 
; 733  :     return hr;

	mov	eax, DWORD PTR _hr$[ebp]

; 734  : }

	pop	edi
	pop	esi
	pop	ebx
	add	esp, 264				; 00000108H
	cmp	ebp, esp
	call	__RTC_CheckEsp
	mov	esp, ebp
	pop	ebp
	ret	4
?SetSize@?$CGrowableArray@W4_D3DFORMAT@@@@QAEJH@Z ENDP	; CGrowableArray<enum _D3DFORMAT>::SetSize
_TEXT	ENDS
; Function compile flags: /Odtp /RTCsu /ZI
; File z:\sampsrc\02xu1\saco\d3d9\common\dxutmisc.h
;	COMDAT ??1?$CGrowableArray@W4_D3DFORMAT@@@@QAE@XZ
_TEXT	SEGMENT
_this$ = -8						; size = 4
??1?$CGrowableArray@W4_D3DFORMAT@@@@QAE@XZ PROC		; CGrowableArray<enum _D3DFORMAT>::~CGrowableArray<enum _D3DFORMAT>, COMDAT
; _this$ = ecx

; 22   :     ~CGrowableArray() { RemoveAll(); }

	push	ebp
	mov	ebp, esp
	sub	esp, 204				; 000000ccH
	push	ebx
	push	esi
	push	edi
	push	ecx
	lea	edi, DWORD PTR [ebp-204]
	mov	ecx, 51					; 00000033H
	mov	eax, -858993460				; ccccccccH
	rep stosd
	pop	ecx
	mov	DWORD PTR _this$[ebp], ecx
	mov	ecx, DWORD PTR _this$[ebp]
	call	?RemoveAll@?$CGrowableArray@W4_D3DFORMAT@@@@QAEXXZ ; CGrowableArray<enum _D3DFORMAT>::RemoveAll
	pop	edi
	pop	esi
	pop	ebx
	add	esp, 204				; 000000ccH
	cmp	ebp, esp
	call	__RTC_CheckEsp
	mov	esp, ebp
	pop	ebp
	ret	0
??1?$CGrowableArray@W4_D3DFORMAT@@@@QAE@XZ ENDP		; CGrowableArray<enum _D3DFORMAT>::~CGrowableArray<enum _D3DFORMAT>
_TEXT	ENDS
; Function compile flags: /Odtp /RTCsu /ZI
; File z:\sampsrc\02xu1\saco\d3d9\common\dxutmisc.h
;	COMDAT ??0?$CGrowableArray@W4_D3DFORMAT@@@@QAE@XZ
_TEXT	SEGMENT
_this$ = -8						; size = 4
??0?$CGrowableArray@W4_D3DFORMAT@@@@QAE@XZ PROC		; CGrowableArray<enum _D3DFORMAT>::CGrowableArray<enum _D3DFORMAT>, COMDAT
; _this$ = ecx

; 20   :     CGrowableArray()  { m_pData = NULL; m_nSize = 0; m_nMaxSize = 0; }

	push	ebp
	mov	ebp, esp
	sub	esp, 204				; 000000ccH
