 exceptbox

 Timestamp is 597ecdc2 (Mon Jul 31 07:27:14 2017)

 Preferred load address is 10000000

 Start         Length     Name                   Class
 0001:00000000 00006264H .text                   CODE
 0001:00006270 00000a3dH .text$di                CODE
 0001:00006cb0 00175518H .text$mn                CODE
 0001:0017c1d0 000072e3H .text$x                 CODE
 0001:001834c0 000004efH .text$yd                CODE
 0002:00000000 000004bcH .idata$5                DATA
 0002:000004bc 00000004H .CRT$XCA                DATA
 0002:000004c0 00000004H .CRT$XCC                DATA
 0002:000004c4 00000070H .CRT$XCU                DATA
 0002:00000534 00000004H .CRT$XCZ                DATA
 0002:00000538 00000004H .CRT$XIA                DATA
 0002:0000053c 00000014H .CRT$XIC                DATA
 0002:00000550 00000004H .CRT$XIZ                DATA
 0002:00000554 00000004H .CRT$XPA                DATA
 0002:00000558 00000008H .CRT$XPX                DATA
 0002:00000560 00000004H .CRT$XPXA               DATA
 0002:00000564 00000004H .CRT$XPZ                DATA
 0002:00000568 00000004H .CRT$XTA                DATA
 0002:0000056c 00000004H .CRT$XTZ                DATA
 0002:00000570 0002bd38H .rdata                  DATA
 0002:0002c2a8 00000050H .rdata$debug            DATA
 0002:0002c2f8 00001af4H .rdata$r                DATA
 0002:0002ddec 00000004H .rtc$IAA                DATA
 0002:0002ddf0 000001e8H .rtc$IMZ                DATA
 0002:0002dfd8 00000004H .rtc$IZZ                DATA
 0002:0002dfdc 00000004H .rtc$TAA                DATA
 0002:0002dfe0 000001e8H .rtc$TMZ                DATA
 0002:0002e1c8 00000004H .rtc$TZZ                DATA
 0002:0002e1d0 00006d8cH .xdata$x                DATA
 0002:00034f5c 00000000H .edata                  DATA
 0002:00034f5c 000000b4H .idata$2                DATA
 0002:00035010 00000014H .idata$3                DATA
 0002:00035024 000004bcH .idata$4                DATA
 0002:000354e0 00001458H .idata$6                DATA
 0003:00000000 00007d60H .data                   DATA
 0003:00007d60 00000b3eH .data$r                 DATA
 0003:000088a0 0005e3acH .bss                    DATA
 0004:00000000 000000a0H .rsrc$01                DATA
 0004:000000a0 00000408H .rsrc$02                DATA

  Address         Publics by Value              Rva+Base       Lib:Object

 0000:00000000       __except_list              00000000     <absolute>
 0000:00000000       ___safe_se_handler_count   00000000     <absolute>
 0000:00000000       ___guard_fids_count        00000000     <absolute>
 0000:00000000       ___safe_se_handler_table   00000000     <absolute>
 0000:00000000       ___guard_flags             00000000     <absolute>
 0000:00000000       ___guard_fids_table        00000000     <absolute>
 0000:00000000       ___ImageBase               10000000     <linker-defined>
 0001:00000000       _compress2                 10001000 f   zlib:compress.obj
 0001:000000b0       _compress                  100010b0 f   zlib:compress.obj
 0001:000000d0       _compressBound             100010d0 f   zlib:compress.obj
 0001:000000f0       _deflateSetDictionary      100010f0 f   zlib:deflate.obj
 0001:00000200       _deflateSetHeader          10001200 f   zlib:deflate.obj
 0001:00000230       _deflatePrime              10001230 f   zlib:deflate.obj
 0001:00000270       _deflateTune               10001270 f   zlib:deflate.obj
 0001:000002b0       _deflateBound              100012b0 f   zlib:deflate.obj
 0001:000003a0       _deflate                   100013a0 f   zlib:deflate.obj
 0001:00000c00       _deflateEnd                10001c00 f   zlib:deflate.obj
 0001:00000cc0       _deflateCopy               10001cc0 f   zlib:deflate.obj
 0001:00001b50       _deflateReset              10002b50 f   zlib:deflate.obj
 0001:00001bf0       _deflateParams             10002bf0 f   zlib:deflate.obj
 0001:00001cd0       _deflateInit2_             10002cd0 f   zlib:deflate.obj
 0001:00001f10       _deflateInit_              10002f10 f   zlib:deflate.obj
 0001:00001f40       _adler32                   10002f40 f   zlib:adler32.obj
 0001:00002190       _adler32_combine           10003190 f   zlib:adler32.obj
 0001:00002de0       __tr_tally                 10003de0 f   zlib:trees.obj
 0001:00003570       __tr_init                  10004570 f   zlib:trees.obj
 0001:000038b0       __tr_stored_block          100048b0 f   zlib:trees.obj
 0001:00003950       __tr_align                 10004950 f   zlib:trees.obj
 0001:00003b50       __tr_flush_block           10004b50 f   zlib:trees.obj
 0001:00003d60       _zlibVersion               10004d60 f   zlib:zutil.obj
 0001:00003d70       _zlibCompileFlags          10004d70 f   zlib:zutil.obj
 0001:00003d80       _zError                    10004d80 f   zlib:zutil.obj
 0001:00003da0       _zcalloc                   10004da0 f   zlib:zutil.obj
 0001:00003dc0       _zcfree                    10004dc0 f   zlib:zutil.obj
 0001:00003dd0       _get_crc_table             10004dd0 f   zlib:crc32.obj
 0001:00004430       _crc32_combine             10005430 f   zlib:crc32.obj
 0001:00004510       _crc32                     10005510 f   zlib:crc32.obj
 0001:00004530       _DetourRemove@8            10005530 f   detours:detours.obj
 0001:000046a0       ??0CDetourEnableWriteOnCodePage@@QAE@PAEJ@Z 100056a0 f i detours:detours.obj
 0001:00004720       ??1CDetourEnableWriteOnCodePage@@QAE@XZ 10005720 f i detours:detours.obj
 0001:00004790       _DetourFunction@8          10005790 f   detours:detours.obj
 0001:00004ac0       ?SetPermission@CDetourEnableWriteOnCodePage@@QAEHK@Z 10005ac0 f i detours:detours.obj
 0001:00004b00       ?IsValid@CDetourEnableWriteOnCodePage@@QAEHXZ 10005b00 f i detours:detours.obj
 0001:00004ba0       ?DetourGenJmp@@YAPAEPAE00@Z 10005ba0 f i detours:detours.obj
 0001:00004be0       ?DetourGenBreak@@YAPAEPAE@Z 10005be0 f i detours:detours.obj
 0001:00004c00       _DetourFunctionWithEmptyTrampoline@12 10005c00 f   detours:detours.obj
 0001:00004c20       _DetourFunctionWithEmptyTrampolineEx@24 10005c20 f   detours:detours.obj
 0001:00004cd0       _DetourFunctionWithTrampoline@8 10005cd0 f   detours:detours.obj
 0001:00004cf0       _DetourFunctionWithTrampolineEx@16 10005cf0 f   detours:detours.obj
 0001:00004de0       ?DetourLoadImageHlp@@YAPAU_DETOUR_SYM_INFO@@XZ 10005de0 f   detours:detours.obj
 0001:00004fa0       _DetourGetFinalCode@8      10005fa0 f   detours:detours.obj
 0001:00005010       _DetourFindFunction@8      10006010 f   detours:detours.obj
 0001:00005180       _DetourEnumerateModules@4  10006180 f   detours:detours.obj
 0001:00005290       _DetourGetEntryPoint@4     10006290 f   detours:detours.obj
 0001:000053c0       _DetourEnumerateExports@12 100063c0 f   detours:detours.obj
 0001:00005630       _DetourGetSizeOfPayloads@4 10006630 f   detours:detours.obj
 0001:000058e0       _DetourFindPayload@12      100068e0 f   detours:detours.obj
 0001:00005a40       ??8@YAHABU_GUID@@0@Z       10006a40 f i detours:detours.obj
 0001:00005a60       _DetourCopyInstructionEx@16 10006a60 f   detours:disasm.obj
 0001:00005a90       _DetourCopyInstruction@12  10006a90 f   detours:disasm.obj
 0001:00005ac0       ??0CDetourDis@@QAE@PAPAEPAJ@Z 10006ac0 f   detours:disasm.obj
 0001:00005b40       ?Set16BitOperand@CDetourDis@@IAEXXZ 10006b40 f   detours:disasm.obj
 0001:00005b60       ?Set32BitOperand@CDetourDis@@IAEXXZ 10006b60 f   detours:disasm.obj
 0001:00005b80       ?Set16BitAddress@CDetourDis@@IAEXXZ 10006b80 f   detours:disasm.obj
 0001:00005ba0       ?Set32BitAddress@CDetourDis@@IAEXXZ 10006ba0 f   detours:disasm.obj
 0001:00005bc0       ?CopyInstruction@CDetourDis@@QAEPAEPAE0@Z 10006bc0 f   detours:disasm.obj
 0001:00005c20       ?CopyBytes@CDetourDis@@IAEPAEPBUCOPYENTRY@1@PAE1@Z 10006c20 f   detours:disasm.obj
 0001:00005e20       ?CopyBytesPrefix@CDetourDis@@IAEPAEPBUCOPYENTRY@1@PAE1@Z 10006e20 f   detours:disasm.obj
 0001:00005e70       ?AdjustTarget@CDetourDis@@IAEPAEPAE0JJ@Z 10006e70 f   detours:disasm.obj
 0001:00005f50       ?Invalid@CDetourDis@@IAEPAEPBUCOPYENTRY@1@PAE1@Z 10006f50 f   detours:disasm.obj
 0001:00005f70       ?Copy0F@CDetourDis@@IAEPAEPBUCOPYENTRY@1@PAE1@Z 10006f70 f   detours:disasm.obj
 0001:00005fc0       ?Copy66@CDetourDis@@IAEPAEPBUCOPYENTRY@1@PAE1@Z 10006fc0 f   detours:disasm.obj
 0001:00005ff0       ?Copy67@CDetourDis@@IAEPAEPBUCOPYENTRY@1@PAE1@Z 10006ff0 f   detours:disasm.obj
 0001:00006020       ?CopyF6@CDetourDis@@IAEPAEPBUCOPYENTRY@1@PAE1@Z 10007020 f   detours:disasm.obj
 0001:00006090       ?CopyF7@CDetourDis@@IAEPAEPBUCOPYENTRY@1@PAE1@Z 10007090 f   detours:disasm.obj
 0001:00006100       ?CopyFF@CDetourDis@@IAEPAEPBUCOPYENTRY@1@PAE1@Z 10007100 f   detours:disasm.obj
 0001:000061c0       ?SanityCheckSystem@CDetourDis@@SAHXZ 100071c0 f   detours:disasm.obj
 0001:00006cb0       ??$Write@H@BitStream@RakNet@@QAEXH@Z 10007cb0 f i events.obj
 0001:00006d10       ??$Write@K@BitStream@RakNet@@QAEXK@Z 10007d10 f i events.obj
 0001:00006d70       ?FindPlayerPed@CGame@@QAEPAVCPlayerPed@@XZ 10007d70 f i events.obj
 0001:00006e40       ?GetAt@CPlayerPool@@QAEPAVCRemotePlayer@@E@Z 10007e40 f i events.obj
 0001:00006e90       ?GetAt@CVehiclePool@@QAEPAVCVehicle@@G@Z 10007e90 f i events.obj
 0001:00006ef0       ?GetPlayerPool@CNetGame@@QAEPAVCPlayerPool@@XZ 10007ef0 f i events.obj
 0001:00006f20       ?GetRakClient@CNetGame@@QAEPAVRakClientInterface@@XZ 10007f20 f i events.obj
 0001:00006f50       ?GetVehiclePool@CNetGame@@QAEPAVCVehiclePool@@XZ 10007f50 f i events.obj
 0001:00006f80       ?InstallSCMEventsProcessor@@YAXXZ 10007f80 f   events.obj
 0001:00006fc0       ?PlayerDriverCustomOpcode@@YAXXZ 10007fc0 f   events.obj
 0001:00007030       ?ProcessIncommingEvent@@YAXEHKKK@Z 10008030 f   events.obj
 0001:00007250       ?ProcessOutgoingEvent@@YAXHKKK@Z 10008250 f   events.obj
 0001:000073c0       ?SendScmEvent@@YAXHKKK@Z   100083c0 f   events.obj
 0001:00007500       ?SetEventCustomOpcode@@YAXXZ 10008500 f   events.obj
 0001:000075b0       ??0CGangZonePool@@QAE@XZ   100085b0 f   gangzonepool.obj
 0001:00007620       ??1CGangZonePool@@QAE@XZ   10008620 f   gangzonepool.obj
 0001:000076c0       ?Delete@CGangZonePool@@QAEXG@Z 100086c0 f   gangzonepool.obj
 0001:00007750       ?Draw@CGangZonePool@@QAEXXZ 10008750 f   gangzonepool.obj
 0001:00007850       ?Flash@CGangZonePool@@QAEXGK@Z 10008850 f   gangzonepool.obj
 0001:000078a0       ?New@CGangZonePool@@QAEXGMMMMK@Z 100088a0 f   gangzonepool.obj
 0001:000079c0       ?StopFlash@CGangZonePool@@QAEXG@Z 100089c0 f   gangzonepool.obj
 0001:00007a20       ??0CHttpClient@@QAE@XZ     10008a20 f   httpclient.obj
 0001:00007af0       ??1CHttpClient@@QAE@XZ     10008af0 f   httpclient.obj
 0001:00007bd0       ?CloseConnection@CHttpClient@@AAEXXZ 10008bd0 f   httpclient.obj
 0001:00007c20       ?Connect@CHttpClient@@AAE_NPADH@Z 10008c20 f   httpclient.obj
 0001:00007d70       ?GetHeaderValue@CHttpClient@@QAE_NPAD0H@Z 10008d70 f   httpclient.obj
 0001:00007e50       ?HandleEntity@CHttpClient@@AAEXXZ 10008e50 f   httpclient.obj
 0001:000083e0       ?InitRequest@CHttpClient@@AAEXHPAD00@Z 100093e0 f   httpclient.obj
 0001:00008600       ?Process@CHttpClient@@AAEXXZ 10009600 f   httpclient.obj
 0001:00008960       ?ProcessURL@CHttpClient@@QAEHHPAD00@Z 10009960 f   httpclient.obj
 0001:000089c0       ?Recv@CHttpClient@@AAEHPADH@Z 100099c0 f   httpclient.obj
 0001:00008a10       ?Send@CHttpClient@@AAE_NPAD@Z 10009a10 f   httpclient.obj
 0001:00008a80       ?strchr@@YAPADPADH@Z       10009a80 f i httpclient.obj
 0001:00008ad0       ?strstr@@YAPADPADPBD@Z     10009ad0 f i httpclient.obj
 0001:00008b20       ??$Write@E@BitStream@RakNet@@QAEXE@Z 10009b20 f i localplayer.obj
 0001:00008b90       ??$Write@G@BitStream@RakNet@@QAEXG@Z 10009b90 f i localplayer.obj
 0001:00008bf0       ??0CLocalPlayer@@QAE@XZ    10009bf0 f   localplayer.obj
 0001:00008db0       ?ApplySpecialAction@CLocalPlayer@@QAEXE@Z 10009db0 f   localplayer.obj
 0001:00008f50       ?CheckWeapons@CLocalPlayer@@QAEXXZ 10009f50 f   localplayer.obj
 0001:000091c0       ?DestroyPlayer@CLocalPlayer@@QAEHXZ 1000a1c0 f   localplayer.obj
 0001:000091f0       ?DetermineNumberOfPlayersInLocalRange@CLocalPlayer@@QAEHXZ 1000a1f0 f   localplayer.obj
 0001:000092e0       ?GetCamera@CGame@@QAEPAVCCamera@@XZ 1000a2e0 f i localplayer.obj
 0001:00009310       ?GetCameraExtendedZoom@CPlayerPed@@QAEMXZ 1000a310 f i localplayer.obj
 0001:00009350       ?GetCameraMode@CPlayerPed@@QAEEXZ 1000a350 f i localplayer.obj
 0001:00009390       ?GetGameState@CNetGame@@QAEHXZ 1000a390 f i localplayer.obj
 0001:000093c0       ?GetLocalPlayerID@CPlayerPool@@QAEEXZ 1000a3c0 f i localplayer.obj
 0001:000093f0       ?GetOptimumInCarSendRate@CLocalPlayer@@QAEHH@Z 1000a3f0 f   localplayer.obj
 0001:00009560       ?GetOptimumOnFootSendRate@CLocalPlayer@@QAEHH@Z 1000a560 f   localplayer.obj
 0001:000096e0       ?GetPlayerColorAsARGB@CLocalPlayer@@QAEKXZ 1000a6e0 f   localplayer.obj
 0001:00009740       ?GetPlayerColorAsRGBA@CLocalPlayer@@QAEKXZ 1000a740 f   localplayer.obj
 0001:000097a0       ?GetPlayerPed@CLocalPlayer@@QAEPAVCPlayerPed@@XZ 1000a7a0 f i localplayer.obj
 0001:000097d0       ?GetPlayerPed@CRemotePlayer@@QAEPAVCPlayerPed@@XZ 1000a7d0 f i localplayer.obj
 0001:00009800       ?GetSlotState@CPlayerPool@@QAEHE@Z 1000a800 f i localplayer.obj
 0001:00009850       ?GetSlotState@CVehiclePool@@QAEHG@Z 1000a850 f i localplayer.obj
 0001:000098a0       ?GetSpecialAction@CLocalPlayer@@QAEEXZ 1000a8a0 f   localplayer.obj
 0001:00009980       ?GetState@CRemotePlayer@@QAEEXZ 1000a980 f i localplayer.obj
 0001:000099c0       ?HandleClassSelection@CLocalPlayer@@QAEXXZ 1000a9c0 f   localplayer.obj
 0001:00009a80       ?HandleClassSelectionOutcome@CLocalPlayer@@QAEXH@Z 1000aa80 f   localplayer.obj
 0001:00009af0       ?HandlePassengerEntry@CLocalPlayer@@QAEXXZ 1000aaf0 f   localplayer.obj
 0001:00009c10       ?IsActive@CRemotePlayer@@QAEHXZ 1000ac10 f i localplayer.obj
 0001:00009c60       ?IsClearedToSpawn@CLocalPlayer@@QAEHXZ 1000ac60 f i localplayer.obj
 0001:00009ca0       ?IsLanMode@CNetGame@@QAEHXZ 1000aca0 f i localplayer.obj
 0001:00009cd0       ?Msg@CLocalPlayer@@QAEXEPAD@Z 1000acd0 f   localplayer.obj
 0001:00009e90       ?Process@CLocalPlayer@@QAEHXZ 1000ae90 f   localplayer.obj
 0001:0000a9c0       ?ProcessClassSelection@CLocalPlayer@@QAEXXZ 1000b9c0 f   localplayer.obj
 0001:0000adc0       ?ProcessInCarWorldBounds@CLocalPlayer@@QAEXXZ 1000bdc0 f   localplayer.obj
 0001:0000aef0       ?ProcessOnFootWorldBounds@CLocalPlayer@@QAEXXZ 1000bef0 f   localplayer.obj
 0001:0000afe0       ?ProcessSpectating@CLocalPlayer@@QAEXXZ 1000bfe0 f   localplayer.obj
 0001:0000b5d0       ?RequestClass@CLocalPlayer@@QAEXH@Z 1000c5d0 f   localplayer.obj
 0001:0000b6f0       ?RequestSpawn@CLocalPlayer@@QAEXXZ 1000c6f0 f   localplayer.obj
 0001:0000b800       ?ResetAllSyncAttributes@CLocalPlayer@@QAEXXZ 1000c800 f   localplayer.obj
 0001:0000b850       ?Say@CLocalPlayer@@QAEXPAD@Z 1000c850 f   localplayer.obj
 0001:0000b990       ?SendAimSyncData@CLocalPlayer@@QAEXXZ 1000c990 f   localplayer.obj
 0001:0000bc50       ?SendEnterVehicleNotification@CLocalPlayer@@QAEXGH@Z 1000cc50 f   localplayer.obj
 0001:0000be10       ?SendExitVehicleNotification@CLocalPlayer@@QAEXG@Z 1000ce10 f   localplayer.obj
 0001:0000bfa0       ?SendInCarFullSyncData@CLocalPlayer@@QAEXXZ 1000cfa0 f   localplayer.obj
 0001:0000c780       ?SendOnFootFullSyncData@CLocalPlayer@@QAEXXZ 1000d780 f   localplayer.obj
 0001:0000cb40       ?SendPassengerFullSyncData@CLocalPlayer@@QAEXXZ 1000db40 f   localplayer.obj
 0001:0000ce80       ?SendStatsUpdate@CLocalPlayer@@QAEXXZ 1000de80 f   localplayer.obj
 0001:0000cfd0       ?SendWastedNotification@CLocalPlayer@@QAEXXZ 1000dfd0 f   localplayer.obj
 0001:0000d140       ?SetPlayerColor@CLocalPlayer@@QAEXK@Z 1000e140 f   localplayer.obj
 0001:0000d1a0       ?SetSpawnInfo@CLocalPlayer@@QAEXPAU_PLAYER_SPAWN_INFO@@@Z 1000e1a0 f   localplayer.obj
 0001:0000d200       ?Spawn@CLocalPlayer@@QAEHXZ 1000e200 f   localplayer.obj
 0001:0000d590       ?SpectatePlayer@CLocalPlayer@@QAEXE@Z 1000e590 f   localplayer.obj
 0001:0000d640       ?SpectateVehicle@CLocalPlayer@@QAEXG@Z 1000e640 f   localplayer.obj
 0001:0000d6c0       ?TeamMsg@CLocalPlayer@@QAEXPAD@Z 1000e6c0 f   localplayer.obj
 0001:0000d800       ?ToggleSpectating@CLocalPlayer@@QAEXH@Z 1000e800 f   localplayer.obj
 0001:0000d880       ?UpdateRemoteInterior@CLocalPlayer@@QAEXE@Z 1000e880 f   localplayer.obj
 0001:0000d9b0       ?UpdateSurfing@CLocalPlayer@@QAEXXZ 1000e9b0 f   localplayer.obj
 0001:0000dd70       ?isEnabled@CCmdWindow@@QAEHXZ 1000ed70 f i localplayer.obj
 0001:0000ddb0       ??0CMenuPool@@QAE@XZ       1000edb0 f   menupool.obj
 0001:0000de30       ??1CMenu@@QAE@XZ           1000ee30 f i menupool.obj
 0001:0000de60       ??1CMenuPool@@QAE@XZ       1000ee60 f   menupool.obj
 0001:0000df40       ??_GCMenu@@QAEPAXI@Z       1000ef40 f i menupool.obj
 0001:0000dfa0       ?Delete@CMenuPool@@QAEHE@Z 1000efa0 f   menupool.obj
 0001:0000e070       ?GetTextPointer@CMenuPool@@QAEPADPAD@Z 1000f070 f   menupool.obj
 0001:0000e1e0       ?HideMenu@CMenuPool@@QAEXE@Z 1000f1e0 f   menupool.obj
 0001:0000e280       ?New@CMenuPool@@QAEPAVCMenu@@EPADMMEMMPAUMENU_INT@@@Z 1000f280 f   menupool.obj
 0001:0000e420       ?Process@CMenuPool@@QAEXXZ 1000f420 f   menupool.obj
 0001:0000e630       ?ShowMenu@CMenuPool@@QAEXE@Z 1000f630 f   menupool.obj
 0001:0000e6f0       ??$Read@E@BitStream@RakNet@@QAE_NAAE@Z 1000f6f0 f i netgame.obj
 0001:0000e760       ??$Read@G@BitStream@RakNet@@QAE_NAAG@Z 1000f760 f i netgame.obj
 0001:0000e7d0       ??$Read@I@BitStream@RakNet@@QAE_NAAI@Z 1000f7d0 f i netgame.obj
 0001:0000e840       ??$Read@K@BitStream@RakNet@@QAE_NAAK@Z 1000f840 f i netgame.obj
 0001:0000e8b0       ??$Read@M@BitStream@RakNet@@QAE_NAAM@Z 1000f8b0 f i netgame.obj
 0001:0000e920       ??$Read@_N@BitStream@RakNet@@QAE_NAA_N@Z 1000f920 f i netgame.obj
 0001:0000e9c0       ??$Write@I@BitStream@RakNet@@QAEXI@Z 1000f9c0 f i netgame.obj
 0001:0000ea20       ??0CNetGame@@QAE@PADH00@Z  1000fa20 f   netgame.obj
 0001:0000eec0       ??0CPickupPool@@QAE@XZ     1000fec0 f i netgame.obj
 0001:0000ef70       ??1CNetGame@@QAE@XZ        1000ff70 f   netgame.obj
 0001:0000f240       ??_GCGangZonePool@@QAEPAXI@Z 10010240 f i netgame.obj
 0001:0000f2a0       ??_GCMenuPool@@QAEPAXI@Z   100102a0 f i netgame.obj
 0001:0000f300       ??_GCObjectPool@@QAEPAXI@Z 10010300 f i netgame.obj
 0001:0000f360       ??_GCPickupPool@@QAEPAXI@Z 10010360 f i netgame.obj
 0001:0000f3c0       ??_GCPlayerPool@@QAEPAXI@Z 100103c0 f i netgame.obj
 0001:0000f420       ??_GCTextDrawPool@@QAEPAXI@Z 10010420 f i netgame.obj
 0001:0000f480       ??_GCVehiclePool@@QAEPAXI@Z 10010480 f i netgame.obj
 0001:0000f4e0       ?DisableMapIcon@CNetGame@@QAEXE@Z 100104e0 f   netgame.obj
 0001:0000f560       ?GetLocalPlayer@CPlayerPool@@QAEPAVCLocalPlayer@@XZ 10010560 f i netgame.obj
 0001:0000f590       ?GetLocalPlayerName@CPlayerPool@@QAEPADXZ 10010590 f i netgame.obj
 0001:0000f5d0       ?GetPacketID@@YAEPAUPacket@@@Z 100105d0 f   netgame.obj
 0001:0000f670       ?InitGameLogic@CNetGame@@QAEXXZ 10010670 f   netgame.obj
 0001:0000f700       ?Packet_AimSync@CNetGame@@AAEXPAUPacket@@@Z 10010700 f   netgame.obj
 0001:0000f8b0       ?Packet_ConnectAttemptFailed@CNetGame@@AAEXPAUPacket@@@Z 100108b0 f   netgame.obj
 0001:0000f910       ?Packet_ConnectionBanned@CNetGame@@AAEXPAUPacket@@@Z 10010910 f   netgame.obj
 0001:0000f960       ?Packet_ConnectionLost@CNetGame@@AAEXPAUPacket@@@Z 10010960 f   netgame.obj
 0001:0000f9c0       ?Packet_ConnectionRequestAccepted@CNetGame@@AAEXPAUPacket@@@Z 100109c0 f   netgame.obj
 0001:0000fa10       ?Packet_ConnectionSucceeded@CNetGame@@AAEXPAUPacket@@@Z 10010a10 f   netgame.obj
 0001:0000fd10       ?Packet_DisconnectionNotification@CNetGame@@AAEXPAUPacket@@@Z 10010d10 f   netgame.obj
 0001:0000fd80       ?Packet_InvalidPassword@CNetGame@@AAEXPAUPacket@@@Z 10010d80 f   netgame.obj
 0001:0000fdf0       ?Packet_ModifiedPacket@CNetGame@@AAEXPAUPacket@@@Z 10010df0 f   netgame.obj
 0001:0000feb0       ?Packet_NoFreeIncomingConnections@CNetGame@@AAEXPAUPacket@@@Z 10010eb0 f   netgame.obj
 0001:0000ff10       ?Packet_PassengerSync@CNetGame@@AAEXPAUPacket@@@Z 10010f10 f   netgame.obj
 0001:000100d0       ?Packet_PlayerSync@CNetGame@@AAEXPAUPacket@@@Z 100110d0 f   netgame.obj
 0001:000105e0       ?Packet_RSAPublicKeyMismatch@CNetGame@@AAEXPAUPacket@@@Z 100115e0 f   netgame.obj
 0001:00010630       ?Packet_TrailerSync@CNetGame@@AAEXPAUPacket@@@Z 10011630 f   netgame.obj
 0001:000107f0       ?Packet_VehicleSync@CNetGame@@AAEXPAUPacket@@@Z 100117f0 f   netgame.obj
 0001:00010d70       ?Process@CNetGame@@QAEXXZ  10011d70 f   netgame.obj
 0001:000114a0       ?ResetGangZonePool@CNetGame@@QAEXXZ 100124a0 f   netgame.obj
 0001:000115b0       ?ResetMapIcons@CNetGame@@QAEXXZ 100125b0 f   netgame.obj
 0001:00011620       ?ResetMenuPool@CNetGame@@QAEXXZ 10012620 f   netgame.obj
 0001:00011730       ?ResetObjectPool@CNetGame@@QAEXXZ 10012730 f   netgame.obj
 0001:00011840       ?ResetPickupPool@CNetGame@@QAEXXZ 10012840 f   netgame.obj
 0001:00011950       ?ResetPlayerPool@CNetGame@@QAEXXZ 10012950 f   netgame.obj
 0001:00011a60       ?ResetTextDrawPool@CNetGame@@QAEXXZ 10012a60 f   netgame.obj
 0001:00011b70       ?ResetVehiclePool@CNetGame@@QAEXXZ 10012b70 f   netgame.obj
 0001:00011c80       ?SetGameState@CNetGame@@QAEXH@Z 10012c80 f i netgame.obj
 0001:00011cc0       ?SetLocalPlayerName@CPlayerPool@@QAEXPAD@Z 10012cc0 f i netgame.obj
 0001:00011d10       ?SetMapIcon@CNetGame@@QAEXEMMMEK@Z 10012d10 f   netgame.obj
 0001:00011dc0       ?SetTeam@CRemotePlayer@@QAEXE@Z 10012dc0 f i netgame.obj
 0001:00011e00       ?SetVirtualWorld@CLocalPlayer@@QAEXE@Z 10012e00 f i netgame.obj
 0001:00011e40       ?SetVirtualWorld@CRemotePlayer@@QAEXE@Z 10012e40 f i netgame.obj
 0001:00011e80       ?ShutdownForGameModeRestart@CNetGame@@QAEXXZ 10012e80 f   netgame.obj
 0001:000120c0       ?ToggleCheckpoints@CGame@@QAEXH@Z 100130c0 f i netgame.obj
 0001:00012100       ?ToggleRaceCheckpoints@CGame@@QAEXH@Z 10013100 f i netgame.obj
 0001:00012140       ?UpdateNetwork@CNetGame@@AAEXXZ 10013140 f   netgame.obj
 0001:00012380       ?UpdatePlayerScoresAndPings@CNetGame@@QAEXXZ 10013380 f   netgame.obj
 0001:000124b0       ??$Read@H@BitStream@RakNet@@QAE_NAAH@Z 100134b0 f i netrpc.obj
 0001:00012520       ?ACServerProtected@@YAXPAURPCParameters@@@Z 10013520 f   netrpc.obj
 0001:00012550       ?Chat@@YAXPAURPCParameters@@@Z 10013550 f   netrpc.obj
 0001:00012810       ?ClientMessage@@YAXPAURPCParameters@@@Z 10013810 f   netrpc.obj
 0001:000129b0       ?ConnectionRejected@@YAXPAURPCParameters@@@Z 100139b0 f   netrpc.obj
 0001:00012be0       ?Death@@YAXPAURPCParameters@@@Z 10013be0 f   netrpc.obj
 0001:00012d60       ?DestroyPickup@@YAXPAURPCParameters@@@Z 10013d60 f   netrpc.obj
 0001:00012e80       ?DestroyWeaponPickup@@YAXPAURPCParameters@@@Z 10013e80 f   netrpc.obj
 0001:00012fb0       ?DisableCheckpoint@@YAXPAURPCParameters@@@Z 10013fb0 f   netrpc.obj
 0001:00012ff0       ?DisableRaceCheckpoint@@YAXPAURPCParameters@@@Z 10013ff0 f   netrpc.obj
 0001:00013030       ?EnterVehicle@@YAXPAURPCParameters@@@Z 10014030 f   netrpc.obj
 0001:00013240       ?ExitVehicle@@YAXPAURPCParameters@@@Z 10014240 f   netrpc.obj
 0001:00013400       ?GameModeRestart@@YAXPAURPCParameters@@@Z 10014400 f   netrpc.obj
 0001:00013440       ?GetPickupPool@CNetGame@@QAEPAVCPickupPool@@XZ 10014440 f i netrpc.obj
 0001:00013470       ?GetPlayerName@CPlayerPool@@QAEPADE@Z 10014470 f i netrpc.obj
 0001:000134b0       ?InitGame@@YAXPAURPCParameters@@@Z 100144b0 f   netrpc.obj
 0001:000138c0       ?Instagib@@YAXPAURPCParameters@@@Z 100148c0 f   netrpc.obj
 0001:000139e0       ?Pickup@@YAXPAURPCParameters@@@Z 100149e0 f   netrpc.obj
 0001:00013b30       ?Privmsg@@YAXPAURPCParameters@@@Z 10014b30 f   netrpc.obj
 0001:00013e20       ?RegisterRPCs@@YAXPAVRakClientInterface@@@Z 10014e20 f   netrpc.obj
 0001:00014280       ?RequestClass@@YAXPAURPCParameters@@@Z 10015280 f   netrpc.obj
 0001:00014440       ?RequestSpawn@@YAXPAURPCParameters@@@Z 10015440 f   netrpc.obj
 0001:000145d0       ?ScmEvent@@YAXPAURPCParameters@@@Z 100155d0 f   netrpc.obj
 0001:000147b0       ?ServerJoin@@YAXPAURPCParameters@@@Z 100157b0 f   netrpc.obj
 0001:00014980       ?ServerQuit@@YAXPAURPCParameters@@@Z 10015980 f   netrpc.obj
 0001:00014b10       ?SetCheckpoint@@YAXPAURPCParameters@@@Z 10015b10 f   netrpc.obj
 0001:00014d30       ?SetLanMode@CNetGame@@QAEXH@Z 10015d30 f i netrpc.obj
 0001:00014d70       ?SetLocalPlayerID@CPlayerPool@@QAEXE@Z 10015d70 f i netrpc.obj
 0001:00014de0       ?SetRaceCheckpoint@@YAXPAURPCParameters@@@Z 10015de0 f   netrpc.obj
 0001:00015060       ?SetTimeEx@@YAXPAURPCParameters@@@Z 10016060 f   netrpc.obj
 0001:000151d0       ?Spawn@@YAXPAURPCParameters@@@Z 100161d0 f   netrpc.obj
 0001:00015480       ?SvrStats@@YAXPAURPCParameters@@@Z 10016480 f   netrpc.obj
 0001:00015580       ?TeamPrivmsg@@YAXPAURPCParameters@@@Z 10016580 f   netrpc.obj
 0001:00015840       ?ToggleClock@@YAXPAURPCParameters@@@Z 10016840 f   netrpc.obj
 0001:000159a0       ?UnRegisterRPCs@@YAXPAVRakClientInterface@@@Z 100169a0 f   netrpc.obj
 0001:00015d50       ?UpdatePing@CPlayerPool@@QAEXEK@Z 10016d50 f i netrpc.obj
 0001:00015dc0       ?UpdateScore@CPlayerPool@@QAEXEH@Z 10016dc0 f i netrpc.obj
 0001:00015e30       ?UpdateScoresPingsIPs@@YAXPAURPCParameters@@@Z 10016e30 f   netrpc.obj
 0001:00016020       ?VehicleDestroy@@YAXPAURPCParameters@@@Z 10017020 f   netrpc.obj
 0001:000162e0       ?VehicleSpawn@@YAXPAURPCParameters@@@Z 100172e0 f   netrpc.obj
 0001:00016920       ?Weather@@YAXPAURPCParameters@@@Z 10017920 f   netrpc.obj
 0001:00016a40       ?WorldTime@@YAXPAURPCParameters@@@Z 10017a40 f   netrpc.obj
 0001:00016b60       ??0CObjectPool@@QAE@XZ     10017b60 f   objectpool.obj
 0001:00016bd0       ??1CObjectPool@@QAE@XZ     10017bd0 f   objectpool.obj
 0001:00016c40       ?Delete@CObjectPool@@QAEHE@Z 10017c40 f   objectpool.obj
 0001:00016d20       ?FindIDFromGtaPtr@CObjectPool@@QAEHPAU_ENTITY_TYPE@@@Z 10017d20 f   objectpool.obj
 0001:00016d90       ?GetSlotState@CObjectPool@@QAEHE@Z 10017d90 f i objectpool.obj
 0001:00016de0       ?New@CObjectPool@@QAEHEHU_VECTOR@@0@Z 10017de0 f   objectpool.obj
 0001:00016ec0       ?Process@CObjectPool@@QAEXXZ 10017ec0 f   objectpool.obj
 0001:00016fc0       ??1CPickupPool@@QAE@XZ     10017fc0 f   pickuppool.obj
 0001:00017040       ?Destroy@CPickupPool@@QAEXH@Z 10018040 f   pickuppool.obj
 0001:00017100       ?DestroyDropped@CPickupPool@@QAEXE@Z 10018100 f   pickuppool.obj
 0001:000171f0       ?New@CPickupPool@@QAEXHMMMKE@Z 100181f0 f   pickuppool.obj
 0001:00017360       ?New@CPickupPool@@QAEXPAU_PICKUP@@H@Z 10018360 f   pickuppool.obj
 0001:00017470       ?PickedUp@CPickupPool@@QAEXH@Z 10018470 f   pickuppool.obj
 0001:000175f0       ?Process@CPickupPool@@QAEXXZ 100185f0 f   pickuppool.obj
 0001:000177d0       ??0CPlayerPool@@QAE@XZ     100187d0 f   playerpool.obj
 0001:00017910       ??1CLocalPlayer@@QAE@XZ    10018910 f i playerpool.obj
 0001:00017940       ??1CPlayerPool@@QAE@XZ     10018940 f   playerpool.obj
 0001:000179f0       ??_GCLocalPlayer@@QAEPAXI@Z 100189f0 f i playerpool.obj
 0001:00017a50       ??_GCRemotePlayer@@QAEPAXI@Z 10018a50 f i playerpool.obj
 0001:00017ab0       ?Deactivate@CRemotePlayer@@QAEXXZ 10018ab0 f i playerpool.obj
 0001:00017b00       ?DeactivateAll@CPlayerPool@@QAEXXZ 10018b00 f   playerpool.obj
 0001:00017b90       ?Delete@CPlayerPool@@QAEHEE@Z 10018b90 f   playerpool.obj
 0001:00017c90       ?FindRemotePlayerIDFromGtaPtr@CPlayerPool@@QAEEPAU_PED_TYPE@@@Z 10018c90 f   playerpool.obj
 0001:00017d40       ?GetCount@CPlayerPool@@QAEEXZ 10018d40 f   playerpool.obj
 0001:00017db0       ?GetGtaActor@CPlayerPed@@QAEPAU_PED_TYPE@@XZ 10018db0 f i playerpool.obj
 0001:00017de0       ?GetID@CRemotePlayer@@QAEEXZ 10018de0 f i playerpool.obj
 0001:00017e10       ?GetVirtualWorld@CLocalPlayer@@QAEEXZ 10018e10 f i playerpool.obj
 0001:00017e40       ?IsSpectating@CLocalPlayer@@QAEHXZ 10018e40 f i playerpool.obj
 0001:00017e80       ?New@CPlayerPool@@QAEHEPAD@Z 10018e80 f   playerpool.obj
 0001:00017fb0       ?Process@CPlayerPool@@QAEHXZ 10018fb0 f   playerpool.obj
 0001:00018120       ?SetID@CRemotePlayer@@QAEXE@Z 10019120 f i playerpool.obj
 0001:00018160       ??0CRemotePlayer@@QAE@XZ   10019160 f   remoteplayer.obj
 0001:00018250       ??1CRemotePlayer@@QAE@XZ   10019250 f   remoteplayer.obj
 0001:00018300       ?EnterVehicle@CRemotePlayer@@QAEXGH@Z 10019300 f   remoteplayer.obj
 0001:00018410       ?ExitVehicle@CRemotePlayer@@QAEXXZ 10019410 f   remoteplayer.obj
 0001:000184d0       ?ForceOutOfCurrentVehicle@CRemotePlayer@@QAEXXZ 100194d0 f   remoteplayer.obj
 0001:000185a0       ?GetDistanceFromLocalPlayer@CRemotePlayer@@QAEMXZ 100195a0 f   remoteplayer.obj
 0001:00018630       ?GetDistanceFromRemotePlayer@CRemotePlayer@@QAEMPAV1@@Z 10019630 f   remoteplayer.obj
 0001:00018790       ?GetPlayerColorAsARGB@CRemotePlayer@@QAEKXZ 10019790 f   remoteplayer.obj
 0001:000187e0       ?GetPlayerColorAsRGBA@CRemotePlayer@@QAEKXZ 100197e0 f   remoteplayer.obj
 0001:00018830       ?HandleDeath@CRemotePlayer@@QAEXXZ 10019830 f   remoteplayer.obj
 0001:000188c0       ?HandlePlayerPedStreaming@CRemotePlayer@@QAEXXZ 100198c0 f   remoteplayer.obj
 0001:00018a80       ?HandleVehicleEntryExit@CRemotePlayer@@QAEXXZ 10019a80 f   remoteplayer.obj
 0001:00018bf0       ?IsSurfingOrTurretMode@CRemotePlayer@@QAEHXZ 10019bf0 f   remoteplayer.obj
 0001:00018c70       ?Privmsg@CRemotePlayer@@QAEXPAD@Z 10019c70 f   remoteplayer.obj
 0001:00018d40       ?Process@CRemotePlayer@@QAEXE@Z 10019d40 f   remoteplayer.obj
 0001:00019820       ?ProcessSpecialActions@CRemotePlayer@@QAEXE@Z 1001a820 f   remoteplayer.obj
 0001:00019be0       ?ResetAllSyncAttributes@CRemotePlayer@@QAEXXZ 1001abe0 f   remoteplayer.obj
 0001:00019cf0       ?Say@CRemotePlayer@@QAEXPAE@Z 1001acf0 f   remoteplayer.obj
 0001:00019d70       ?SetCameraExtendedZoom@CPlayerPed@@QAEXM@Z 1001ad70 f i remoteplayer.obj
 0001:00019dd0       ?SetCameraMode@CPlayerPed@@QAEXE@Z 1001add0 f i remoteplayer.obj
 0001:00019e20       ?SetPlayerColor@CRemotePlayer@@QAEXK@Z 1001ae20 f   remoteplayer.obj
 0001:00019e70       ?SetState@CRemotePlayer@@QAEXE@Z 1001ae70 f i remoteplayer.obj
 0001:00019ee0       ?Spawn@CRemotePlayer@@QAEHEHPAU_VECTOR@@MK@Z 1001aee0 f   remoteplayer.obj
 0001:0001a060       ?StateChange@CRemotePlayer@@QAEXEE@Z 1001b060 f   remoteplayer.obj
 0001:0001a1c0       ?StoreInCarFullSyncData@CRemotePlayer@@QAEXPAU_INCAR_SYNC_DATA@@@Z 1001b1c0 f   remoteplayer.obj
 0001:0001a2b0       ?StoreOnFootFullSyncData@CRemotePlayer@@QAEXPAU_ONFOOT_SYNC_DATA@@@Z 1001b2b0 f   remoteplayer.obj
 0001:0001a370       ?StorePassengerFullSyncData@CRemotePlayer@@QAEXPAU_PASSENGER_SYNC_DATA@@@Z 1001b370 f   remoteplayer.obj
 0001:0001a470       ?StoreTrailerFullSyncData@CRemotePlayer@@QAEXPAU_TRAILER_SYNC_DATA@@@Z 1001b470 f   remoteplayer.obj
 0001:0001a5a0       ?TeamPrivmsg@CRemotePlayer@@QAEXPAD@Z 1001b5a0 f   remoteplayer.obj
 0001:0001a670       ?UpdateAimFromSyncData@CRemotePlayer@@QAEXPAU_AIM_SYNC_DATA@@@Z 1001b670 f   remoteplayer.obj
 0001:0001a870       ?UpdateInCarMatrixAndSpeed@CRemotePlayer@@QAEXU_MATRIX4X4@@U_VECTOR@@@Z 1001b870 f   remoteplayer.obj
 0001:0001a9e0       ?UpdateIncarTargetPosition@CRemotePlayer@@QAEXXZ 1001b9e0 f   remoteplayer.obj
 0001:0001ae60       ?UpdateOnFootPositionAndSpeed@CRemotePlayer@@QAEXPAU_VECTOR@@0@Z 1001be60 f   remoteplayer.obj
 0001:0001af20       ?UpdateOnfootTargetPosition@CRemotePlayer@@QAEXXZ 1001bf20 f   remoteplayer.obj
 0001:0001b2a0       ?UpdateSurfing@CRemotePlayer@@QAEXXZ 1001c2a0 f   remoteplayer.obj
 0001:0001b450       ?UpdateTrainDriverMatrixAndSpeed@CRemotePlayer@@QAEXPAU_MATRIX4X4@@PAU_VECTOR@@M@Z 1001c450 f   remoteplayer.obj
 0001:0001b670       ?sqrt@@YAMM@Z              1001c670 f i remoteplayer.obj
 0001:0001b6c0       _sqrtf                     1001c6c0 f i remoteplayer.obj
 0001:0001b720       ?K_DecodeString@@YAPADPAE@Z 1001c720 f   runutil.obj
 0001:0001b790       ?K_EncodeString@@YAXPAD0@Z 1001c790 f   runutil.obj
 0001:0001b800       ?Util_Base64Encode@@YAXPAD0@Z 1001c800 f   runutil.obj
 0001:0001ba10       ?Util_UrlUnencode@@YAXPAD@Z 1001ca10 f   runutil.obj
 0001:0001bb40       ?Util_itoa@@YAPADHPADH@Z   1001cb40 f   runutil.obj
 0001:0001bc80       ?Util_stristr@@YAPADPBD0@Z 1001cc80 f   runutil.obj
 0001:0001bd70       ?Util_strnicmp@@YAHPBD0I@Z 1001cd70 f   runutil.obj
 0001:0001be70       ?Util_strrev@@YAPADPAD@Z   1001ce70 f   runutil.obj
 0001:0001bf30       ?Util_strupr@@YAXPAD@Z     1001cf30 f   runutil.obj
 0001:0001bfa0       ?Util_toupper@@YADD@Z      1001cfa0 f   runutil.obj
 0001:0001c000       ?Util_wildcmp@@YAHPAD0@Z   1001d000 f   runutil.obj
 0001:0001c1c0       ?GetAt@CObjectPool@@QAEPAVCObject@@E@Z 1001d1c0 f i scriptrpc.obj
 0001:0001c220       ?GetAt@CTextDrawPool@@QAEPAVCTextDraw@@G@Z 1001d220 f i scriptrpc.obj
 0001:0001c280       ?GetGangZonePool@CNetGame@@QAEPAVCGangZonePool@@XZ 1001d280 f i scriptrpc.obj
 0001:0001c2b0       ?GetMenuPool@CNetGame@@QAEPAVCMenuPool@@XZ 1001d2b0 f i scriptrpc.obj
 0001:0001c2e0       ?GetObjectPool@CNetGame@@QAEPAVCObjectPool@@XZ 1001d2e0 f i scriptrpc.obj
 0001:0001c310       ?GetSlotState@CMenuPool@@QAEHE@Z 1001d310 f i scriptrpc.obj
 0001:0001c360       ?GetTextDrawPool@CNetGame@@QAEPAVCTextDrawPool@@XZ 1001d360 f i scriptrpc.obj
 0001:0001c390       ?RegisterScriptRPCs@@YAXPAVRakClientInterface@@@Z 1001d390 f   scriptrpc.obj
 0001:0001cc90       ?ReturnToClassSelection@CLocalPlayer@@QAEXXZ 1001dc90 f i scriptrpc.obj
 0001:0001ccd0       ?ScrAddGangZone@@YAXPAURPCParameters@@@Z 1001dcd0 f   scriptrpc.obj
 0001:0001cf20       ?ScrApplyAnimation@@YAXPAURPCParameters@@@Z 1001df20 f   scriptrpc.obj
 0001:0001d380       ?ScrAttachObjectToPlayer@@YAXPAURPCParameters@@@Z 1001e380 f   scriptrpc.obj
 0001:0001d810       ?ScrAttachTrailerToVehicle@@YAXPAURPCParameters@@@Z 1001e810 f   scriptrpc.obj
 0001:0001d9c0       ?ScrClearAnimations@@YAXPAURPCParameters@@@Z 1001e9c0 f   scriptrpc.obj
 0001:0001dc10       ?ScrCreateExplosion@@YAXPAURPCParameters@@@Z 1001ec10 f   scriptrpc.obj
 0001:0001de20       ?ScrCreateObject@@YAXPAURPCParameters@@@Z 1001ee20 f   scriptrpc.obj
 0001:0001e050       ?ScrDeathMessage@@YAXPAURPCParameters@@@Z 1001f050 f   scriptrpc.obj
 0001:0001e3c0       ?ScrDestroyObject@@YAXPAURPCParameters@@@Z 1001f3c0 f   scriptrpc.obj
 0001:0001e530       ?ScrDetachTrailerFromVehicle@@YAXPAURPCParameters@@@Z 1001f530 f   scriptrpc.obj
 0001:0001e690       ?ScrDisableMapIcon@@YAXPAURPCParameters@@@Z 1001f690 f   scriptrpc.obj
 0001:0001e7e0       ?ScrDisplayGameText@@YAXPAURPCParameters@@@Z 1001f7e0 f   scriptrpc.obj
 0001:0001e9f0       ?ScrEditTextDraw@@YAXPAURPCParameters@@@Z 1001f9f0 f   scriptrpc.obj
 0001:0001eba0       ?ScrEnableStuntBonus@@YAXPAURPCParameters@@@Z 1001fba0 f   scriptrpc.obj
 0001:0001ecf0       ?ScrFlashGangZone@@YAXPAURPCParameters@@@Z 1001fcf0 f   scriptrpc.obj
 0001:0001ee80       ?ScrForceSpawnSelection@@YAXPAURPCParameters@@@Z 1001fe80 f   scriptrpc.obj
 0001:0001eed0       ?ScrGivePlayerWeapon@@YAXPAURPCParameters@@@Z 1001fed0 f   scriptrpc.obj
 0001:0001f050       ?ScrHaveSomeMoney@@YAXPAURPCParameters@@@Z 10020050 f   scriptrpc.obj
 0001:0001f190       ?ScrHideMenu@@YAXPAURPCParameters@@@Z 10020190 f   scriptrpc.obj
 0001:0001f310       ?ScrHideTextDraw@@YAXPAURPCParameters@@@Z 10020310 f   scriptrpc.obj
 0001:0001f470       ?ScrInitMenu@@YAXPAURPCParameters@@@Z 10020470 f   scriptrpc.obj
 0001:0001f940       ?ScrLinkVehicle@@YAXPAURPCParameters@@@Z 10020940 f   scriptrpc.obj
 0001:0001fad0       ?ScrMoveObject@@YAXPAURPCParameters@@@Z 10020ad0 f   scriptrpc.obj
 0001:0001fda0       ?ScrNumberPlate@@YAXPAURPCParameters@@@Z 10020da0 f   scriptrpc.obj
 0001:0001ff30       ?ScrPlaySound@@YAXPAURPCParameters@@@Z 10020f30 f   scriptrpc.obj
 0001:00020100       ?ScrPlayerSpectatePlayer@@YAXPAURPCParameters@@@Z 10021100 f   scriptrpc.obj
 0001:000202d0       ?ScrPlayerSpectateVehicle@@YAXPAURPCParameters@@@Z 100212d0 f   scriptrpc.obj
 0001:000204a0       ?ScrPutPlayerInVehicle@@YAXPAURPCParameters@@@Z 100214a0 f   scriptrpc.obj
 0001:000206a0       ?ScrRemoveComponent@@YAXPAURPCParameters@@@Z 100216a0 f   scriptrpc.obj
 0001:00020860       ?ScrRemoveGangZone@@YAXPAURPCParameters@@@Z 10021860 f   scriptrpc.obj
 0001:000209c0       ?ScrRemovePlayerFromVehicle@@YAXPAURPCParameters@@@Z 100219c0 f   scriptrpc.obj
 0001:00020b00       ?ScrResetMoney@@YAXPAURPCParameters@@@Z 10021b00 f   scriptrpc.obj
 0001:00020b90       ?ScrResetPlayerWeapons@@YAXPAURPCParameters@@@Z 10021b90 f   scriptrpc.obj
 0001:00020c40       ?ScrRespawnVehicle@@YAXPAURPCParameters@@@Z 10021c40 f   scriptrpc.obj
 0001:00020e60       ?ScrSetCameraBehindPlayer@@YAXPAURPCParameters@@@Z 10021e60 f   scriptrpc.obj
 0001:00020f00       ?ScrSetCameraLookAt@@YAXPAURPCParameters@@@Z 10021f00 f   scriptrpc.obj
 0001:00021090       ?ScrSetCameraPos@@YAXPAURPCParameters@@@Z 10022090 f   scriptrpc.obj
 0001:00021250       ?ScrSetGravity@@YAXPAURPCParameters@@@Z 10022250 f   scriptrpc.obj
 0001:000213a0       ?ScrSetInterior@@YAXPAURPCParameters@@@Z 100223a0 f   scriptrpc.obj
 0001:000214f0       ?ScrSetMapIcon@@YAXPAURPCParameters@@@Z 100224f0 f   scriptrpc.obj
 0001:00021740       ?ScrSetObjectPos@@YAXPAURPCParameters@@@Z 10022740 f   scriptrpc.obj
 0001:00021950       ?ScrSetObjectRotation@@YAXPAURPCParameters@@@Z 10022950 f   scriptrpc.obj
 0001:00021b40       ?ScrSetPlayerArmour@@YAXPAURPCParameters@@@Z 10022b40 f   scriptrpc.obj
 0001:00021ca0       ?ScrSetPlayerColor@@YAXPAURPCParameters@@@Z 10022ca0 f   scriptrpc.obj
 0001:00021e80       ?ScrSetPlayerFacingAngle@@YAXPAURPCParameters@@@Z 10022e80 f   scriptrpc.obj
 0001:00021fd0       ?ScrSetPlayerHealth@@YAXPAURPCParameters@@@Z 10022fd0 f   scriptrpc.obj
 0001:00022130       ?ScrSetPlayerName@@YAXPAURPCParameters@@@Z 10023130 f   scriptrpc.obj
 0001:00022380       ?ScrSetPlayerPos@@YAXPAURPCParameters@@@Z 10023380 f   scriptrpc.obj
 0001:00022530       ?ScrSetPlayerPosFindZ@@YAXPAURPCParameters@@@Z 10023530 f   scriptrpc.obj
 0001:00022730       ?ScrSetPlayerSkin@@YAXPAURPCParameters@@@Z 10023730 f   scriptrpc.obj
 0001:00022920       ?ScrSetPlayerSpectating@@YAXPAURPCParameters@@@Z 10023920 f   scriptrpc.obj
 0001:00022a90       ?ScrSetPlayerTeam@@YAXPAURPCParameters@@@Z 10023a90 f   scriptrpc.obj
 0001:00022c60       ?ScrSetPlayerVirtualWorld@@YAXPAURPCParameters@@@Z 10023c60 f   scriptrpc.obj
 0001:00022e60       ?ScrSetPlayerWantedLevel@@YAXPAURPCParameters@@@Z 10023e60 f   scriptrpc.obj
 0001:00022fc0       ?ScrSetSpawnInfo@@YAXPAURPCParameters@@@Z 10023fc0 f   scriptrpc.obj
 0001:00023120       ?ScrSetSpecialAction@@YAXPAURPCParameters@@@Z 10024120 f   scriptrpc.obj
 0001:00023290       ?ScrSetVehicleHealth@@YAXPAURPCParameters@@@Z 10024290 f   scriptrpc.obj
 0001:00023430       ?ScrSetVehiclePos@@YAXPAURPCParameters@@@Z 10024430 f   scriptrpc.obj
 0001:00023640       ?ScrSetVehicleVirtualWorld@@YAXPAURPCParameters@@@Z 10024640 f   scriptrpc.obj
 0001:000237d0       ?ScrSetVehicleZAngle@@YAXPAURPCParameters@@@Z 100247d0 f   scriptrpc.obj
 0001:00023960       ?ScrSetWeaponAmmo@@YAXPAURPCParameters@@@Z 10024960 f   scriptrpc.obj
 0001:00023ae0       ?ScrSetWorldBounds@@YAXPAURPCParameters@@@Z 10024ae0 f   scriptrpc.obj
 0001:00023c60       ?ScrShowMenu@@YAXPAURPCParameters@@@Z 10024c60 f   scriptrpc.obj
 0001:00023de0       ?ScrShowNameTag@@YAXPAURPCParameters@@@Z 10024de0 f   scriptrpc.obj
 0001:00023f80       ?ScrShowTextDraw@@YAXPAURPCParameters@@@Z 10024f80 f   scriptrpc.obj
 0001:00024150       ?ScrStopFlashGangZone@@YAXPAURPCParameters@@@Z 10025150 f   scriptrpc.obj
 0001:000242b0       ?ScrStopObject@@YAXPAURPCParameters@@@Z 100252b0 f   scriptrpc.obj
 0001:000244c0       ?ScrTogglePlayerControllable@@YAXPAURPCParameters@@@Z 100254c0 f   scriptrpc.obj
 0001:00024620       ?ScrTogglePlayerSpectating@@YAXPAURPCParameters@@@Z 10025620 f   scriptrpc.obj
 0001:00024780       ?ScrVehicleParams@@YAXPAURPCParameters@@@Z 10025780 f   scriptrpc.obj
 0001:00024950       ?SetPlayerName@CPlayerPool@@QAEXEPAD@Z 10025950 f i scriptrpc.obj
 0001:000249b0       ?SetTeam@CLocalPlayer@@QAEXE@Z 100259b0 f i scriptrpc.obj
 0001:000249f0       ?SetVehicleVirtualWorld@CVehiclePool@@QAEXGE@Z 100259f0 f i scriptrpc.obj
 0001:00024a40       ?ShowNameTag@CRemotePlayer@@QAEXE@Z 10025a40 f i scriptrpc.obj
 0001:00024a90       ?UnRegisterScriptRPCs@@YAXPAVRakClientInterface@@@Z 10025a90 f   scriptrpc.obj
 0001:00025210       ??0CTextDrawPool@@QAE@XZ   10026210 f   textdrawpool.obj
 0001:00025280       ??1CTextDraw@@QAE@XZ       10026280 f i textdrawpool.obj
 0001:000252b0       ??1CTextDrawPool@@QAE@XZ   100262b0 f   textdrawpool.obj
 0001:00025380       ??_GCTextDraw@@QAEPAXI@Z   10026380 f i textdrawpool.obj
 0001:000253e0       ?Delete@CTextDrawPool@@QAEXG@Z 100263e0 f   textdrawpool.obj
 0001:00025490       ?Draw@CTextDrawPool@@QAEXXZ 10026490 f   textdrawpool.obj
 0001:00025520       ?New@CTextDrawPool@@QAEPAVCTextDraw@@GPAU_TEXT_DRAW_TRANSMIT@@PAD@Z 10026520 f   textdrawpool.obj
 0001:00025630       ??0CVehiclePool@@QAE@XZ    10026630 f   vehiclepool.obj
 0001:000256c0       ??1CVehiclePool@@QAE@XZ    100266c0 f   vehiclepool.obj
 0001:00025730       ?AssignSpecialParamsToVehicle@CVehiclePool@@QAEXGEE@Z 10026730 f   vehiclepool.obj
 0001:00025800       ?Delete@CVehiclePool@@QAEHG@Z 10026800 f   vehiclepool.obj
 0001:000258e0       ?FindGtaIDFromGtaPtr@CVehiclePool@@QAEHPAU_VEHICLE_TYPE@@@Z 100268e0 f   vehiclepool.obj
 0001:00025930       ?FindGtaIDFromID@CVehiclePool@@QAEHH@Z 10026930 f   vehiclepool.obj
 0001:00025980       ?FindIDFromGtaPtr@CVehiclePool@@QAEGPAU_VEHICLE_TYPE@@@Z 10026980 f   vehiclepool.obj
 0001:000259f0       ?FindNearestToLocalPlayerPed@CVehiclePool@@QAEHXZ 100269f0 f   vehiclepool.obj
 0001:00025ac0       ?LinkToInterior@CVehiclePool@@QAEXGH@Z 10026ac0 f   vehiclepool.obj
 0001:00025b40       ?New@CVehiclePool@@QAEHGHPAU_VECTOR@@MHH0MHPAD@Z 10026b40 f   vehiclepool.obj
 0001:00025c80       ?NotifyVehicleDeath@CVehiclePool@@QAEXG@Z 10026c80 f   vehiclepool.obj
 0001:00025db0       ?Process@CVehiclePool@@QAEXXZ 10026db0 f   vehiclepool.obj
 0001:00026200       ?ProcessForVirtualWorld@CVehiclePool@@QAEXGE@Z 10027200 f   vehiclepool.obj
 0001:000262a0       ?SetForRespawn@CVehiclePool@@QAEXGH@Z 100272a0 f   vehiclepool.obj
 0001:00026320       ?Spawn@CVehiclePool@@QAEHGHPAU_VECTOR@@MHHHPADHH@Z 10027320 f   vehiclepool.obj
 0001:000264d0       ??$Write@_N@BitStream@RakNet@@QAEX_N@Z 100274d0 f i BitStream.obj
 0001:00026530       ??0BitStream@RakNet@@QAE@H@Z 10027530 f   BitStream.obj
 0001:000265f0       ??0BitStream@RakNet@@QAE@PADI_N@Z 100275f0 f   BitStream.obj
 0001:00026700       ??0BitStream@RakNet@@QAE@PAEI_N@Z 10027700 f   BitStream.obj
 0001:00026810       ??0BitStream@RakNet@@QAE@XZ 10027810 f   BitStream.obj
 0001:00026870       ??1BitStream@RakNet@@QAE@XZ 10027870 f   BitStream.obj
 0001:000268d0       ?AddBitsAndReallocate@BitStream@RakNet@@QAEXH@Z 100278d0 f   BitStream.obj
 0001:00026a30       ?AlignReadToByteBoundary@BitStream@RakNet@@QAEXXZ 10027a30 f   BitStream.obj
 0001:00026a90       ?AlignWriteToByteBoundary@BitStream@RakNet@@QAEXXZ 10027a90 f   BitStream.obj
 0001:00026af0       ?AssertCopyData@BitStream@RakNet@@QAEXXZ 10027af0 f   BitStream.obj
 0001:00026bc0       ?AssertStreamEmpty@BitStream@RakNet@@QAEXXZ 10027bc0 f   BitStream.obj
 0001:00026c20       ?CopyData@BitStream@RakNet@@QBEHPAPAE@Z 10027c20 f   BitStream.obj
 0001:00026cd0       ?DoEndianSwap@BitStream@RakNet@@ABE_NXZ 10027cd0 f   BitStream.obj
 0001:00026d00       ?GetNumberOfBitsUsed@BitStream@RakNet@@QBEHXZ 10027d00 f i BitStream.obj
 0001:00026d40       ?GetWriteOffset@BitStream@RakNet@@QBEHXZ 10027d40 f i BitStream.obj
 0001:00026d70       ?IgnoreBits@BitStream@RakNet@@QAEXH@Z 10027d70 f   BitStream.obj
 0001:00026db0       ?PrintBits@BitStream@RakNet@@QBEXXZ 10027db0 f   BitStream.obj
 0001:00026ec0       ?Read@BitStream@RakNet@@QAE_NPADH@Z 10027ec0 f   BitStream.obj
 0001:00026f70       ?ReadAlignedBytes@BitStream@RakNet@@QAE_NPAEH@Z 10027f70 f   BitStream.obj
 0001:00027030       ?ReadBit@BitStream@RakNet@@QAE_NXZ 10028030 f   BitStream.obj
 0001:000270c0       ?ReadBits@BitStream@RakNet@@QAE_NPAEH_N@Z 100280c0 f   BitStream.obj
 0001:00027240       ?ReadCompressed@BitStream@RakNet@@AAE_NPAEH_N@Z 10028240 f   BitStream.obj
 0001:000273d0       ?Reset@BitStream@RakNet@@QAEXXZ 100283d0 f   BitStream.obj
 0001:00027410       ?ResetReadPointer@BitStream@RakNet@@QAEXXZ 10028410 f   BitStream.obj
 0001:00027450       ?ResetWritePointer@BitStream@RakNet@@QAEXXZ 10028450 f   BitStream.obj
 0001:00027490       ?ReverseBytes@BitStream@RakNet@@AAEXPAE0H@Z 10028490 f   BitStream.obj
 0001:000274f0       ?SetData@BitStream@RakNet@@QAEXPAE@Z 100284f0 f   BitStream.obj
 0001:00027530       ?SetNumberOfBitsAllocated@BitStream@RakNet@@QAEXI@Z 10028530 f   BitStream.obj
 0001:000275a0       ?SetWriteOffset@BitStream@RakNet@@QAEXH@Z 100285a0 f   BitStream.obj
 0001:000275e0       ?Write0@BitStream@RakNet@@QAEXXZ 100285e0 f   BitStream.obj
 0001:00027650       ?Write1@BitStream@RakNet@@QAEXXZ 10028650 f   BitStream.obj
 0001:000276f0       ?Write@BitStream@RakNet@@QAEXPAV12@@Z 100286f0 f   BitStream.obj
 0001:00027740       ?Write@BitStream@RakNet@@QAEXPAV12@H@Z 10028740 f   BitStream.obj
 0001:000278f0       ?Write@BitStream@RakNet@@QAEXPBDH@Z 100288f0 f   BitStream.obj
 0001:000279a0       ?WriteAlignedBytes@BitStream@RakNet@@QAEXPBEH@Z 100289a0 f   BitStream.obj
 0001:00027a20       ?WriteBits@BitStream@RakNet@@QAEXPBEH_N@Z 10028a20 f   BitStream.obj
 0001:00027b80       ?WriteCompressed@BitStream@RakNet@@AAEXPBEH_N@Z 10028b80 f   BitStream.obj
 0001:00027cc0       ?Add@CheckSum@@QAEXE@Z     10028cc0 f   CheckSum.obj
 0001:00027d40       ?Add@CheckSum@@QAEXG@Z     10028d40 f   CheckSum.obj
 0001:00027de0       ?Add@CheckSum@@QAEXI@Z     10028de0 f   CheckSum.obj
 0001:00027e80       ?Add@CheckSum@@QAEXPAEI@Z  10028e80 f   CheckSum.obj
 0001:00027ef0       ??0?$List@URegisteredCommand@@@DataStructures@@QAE@XZ 10028ef0 f i CommandParserInterface.obj
 0001:00027f40       ??0?$OrderedList@PBDURegisteredCommand@@$1?RegisteredCommandComp@@YAHABQBDABU1@@Z@DataStructures@@QAE@XZ 10028f40 f i CommandParserInterface.obj
 0001:00027f90       ??0CommandParserInterface@@QAE@XZ 10028f90 f   CommandParserInterface.obj
 0001:00027fe0       ??1?$List@URegisteredCommand@@@DataStructures@@QAE@XZ 10028fe0 f i CommandParserInterface.obj
 0001:00028040       ??1?$OrderedList@PBDURegisteredCommand@@$1?RegisteredCommandComp@@YAHABQBDABU1@@Z@DataStructures@@QAE@XZ 10029040 f i CommandParserInterface.obj
 0001:000280c0       ??1CommandParserInterface@@UAE@XZ 100290c0 f   CommandParserInterface.obj
 0001:00028110       ??A?$List@URegisteredCommand@@@DataStructures@@QBEAAURegisteredCommand@@I@Z 10029110 f i CommandParserInterface.obj
 0001:00028180       ??A?$OrderedList@PBDURegisteredCommand@@$1?RegisteredCommandComp@@YAHABQBDABU1@@Z@DataStructures@@QBEAAURegisteredCommand@@I@Z 10029180 f i CommandParserInterface.obj
 0001:000281d0       ??_GCommandParserInterface@@UAEPAXI@Z 100291d0 f i CommandParserInterface.obj
 0001:000281d0       ??_ECommandParserInterface@@UAEPAXI@Z 100291d0 f i CommandParserInterface.obj
 0001:00028230       ?Clear@?$List@URegisteredCommand@@@DataStructures@@QAEX_N@Z 10029230 f i CommandParserInterface.obj
 0001:000282c0       ?Clear@?$OrderedList@PBDURegisteredCommand@@$1?RegisteredCommandComp@@YAHABQBDABU1@@Z@DataStructures@@QAEXXZ 100292c0 f i CommandParserInterface.obj
 0001:00028310       ?GetIndexFromKey@?$OrderedList@PBDURegisteredCommand@@$1?RegisteredCommandComp@@YAHABQBDABU1@@Z@DataStructures@@QBEIABQBDPA_N@Z 10029310 f i CommandParserInterface.obj
 0001:00028400       ?GetRegisteredCommand@CommandParserInterface@@UAE_NPBDPAURegisteredCommand@@@Z 10029400 f   CommandParserInterface.obj
 0001:000284c0       ?Insert@?$List@URegisteredCommand@@@DataStructures@@QAEXURegisteredCommand@@@Z 100294c0 f i CommandParserInterface.obj
 0001:000285d0       ?Insert@?$List@URegisteredCommand@@@DataStructures@@QAEXURegisteredCommand@@I@Z 100295d0 f i CommandParserInterface.obj
 0001:00028730       ?Insert@?$OrderedList@PBDURegisteredCommand@@$1?RegisteredCommandComp@@YAHABQBDABU1@@Z@DataStructures@@QAEIABQBDABURegisteredCommand@@@Z 10029730 f i CommandParserInterface.obj
 0001:00028830       ?IntegersToPlayerID@CommandParserInterface@@IAE?AUPlayerID@@HH@Z 10029830 f   CommandParserInterface.obj
 0001:000288b0       ?OnConnectionLost@CommandParserInterface@@UAEXUPlayerID@@PAVTransportInterface@@@Z 100298b0 f   CommandParserInterface.obj
 0001:000288e0       ?OnNewIncomingConnection@CommandParserInterface@@UAEXUPlayerID@@PAVTransportInterface@@@Z 100298e0 f   CommandParserInterface.obj
 0001:00028910       ?OnTransportChange@CommandParserInterface@@UAEXPAVTransportInterface@@@Z 10029910 f   CommandParserInterface.obj
 0001:00028940       ?ParseConsoleString@CommandParserInterface@@SAXPADDEPAIPAPADI@Z 10029940 f   CommandParserInterface.obj
 0001:00028af0       ?RegisterCommand@CommandParserInterface@@MAEXEPBD0@Z 10029af0 f   CommandParserInterface.obj
 0001:00028b80       ?RegisteredCommandComp@@YAHABQBDABURegisteredCommand@@@Z 10029b80 f   CommandParserInterface.obj
 0001:00028bd0       ?ReturnResult@CommandParserInterface@@MAEXHPBDPAVTransportInterface@@UPlayerID@@@Z 10029bd0 f   CommandParserInterface.obj
 0001:00028c50       ?ReturnResult@CommandParserInterface@@MAEXPADPBDPAVTransportInterface@@UPlayerID@@@Z 10029c50 f   CommandParserInterface.obj
 0001:00028cd0       ?ReturnResult@CommandParserInterface@@MAEXPBDPAVTransportInterface@@UPlayerID@@@Z 10029cd0 f   CommandParserInterface.obj
 0001:00028d40       ?ReturnResult@CommandParserInterface@@MAEXUPlayerID@@PBDPAVTransportInterface@@0@Z 10029d40 f   CommandParserInterface.obj
 0001:00028e10       ?ReturnResult@CommandParserInterface@@MAEX_NPBDPAVTransportInterface@@UPlayerID@@@Z 10029e10 f   CommandParserInterface.obj
 0001:00028ec0       ?SendCommandList@CommandParserInterface@@UAEXPAVTransportInterface@@UPlayerID@@@Z 10029ec0 f   CommandParserInterface.obj
 0001:00029030       ?Size@?$List@URegisteredCommand@@@DataStructures@@QBEIXZ 1002a030 f i CommandParserInterface.obj
 0001:00029060       ?Size@?$OrderedList@PBDURegisteredCommand@@$1?RegisteredCommandComp@@YAHABQBDABU1@@Z@DataStructures@@QBEIXZ 1002a060 f i CommandParserInterface.obj
 0001:000290a0       ??$Read@UPlayerID@@@BitStream@RakNet@@QAE_NAAUPlayerID@@@Z 1002a0a0 f i ConnectionGraph.obj
 0001:00029100       ??$ReadCompressed@I@BitStream@RakNet@@QAE_NAAI@Z 1002a100 f i ConnectionGraph.obj
 0001:00029170       ??$Write@UPlayerID@@@BitStream@RakNet@@QAEXUPlayerID@@@Z 1002a170 f i ConnectionGraph.obj
 0001:000291d0       ??$WriteCompressed@I@BitStream@RakNet@@QAEXI@Z 1002a1d0 f i ConnectionGraph.obj
 0001:00029230       ??$defaultMapKeyComparison@UPlayerIdAndGroupId@ConnectionGraph@@@DataStructures@@YAHABUPlayerIdAndGroupId@ConnectionGraph@@0@Z 1002a230 f i ConnectionGraph.obj
 0001:000292a0       ??$defaultOrderedListComparison@EE@DataStructures@@YAHABE0@Z 1002a2a0 f i ConnectionGraph.obj
 0001:00029300       ??$defaultOrderedListComparison@UPlayerID@@U1@@DataStructures@@YAHABUPlayerID@@0@Z 1002a300 f i ConnectionGraph.obj
 0001:00029370       ??$defaultOrderedListComparison@UPlayerIdAndGroupId@ConnectionGraph@@U12@@DataStructures@@YAHABUPlayerIdAndGroupId@ConnectionGraph@@0@Z 1002a370 f i ConnectionGraph.obj
 0001:000293e0       ??0?$List@E@DataStructures@@QAE@XZ 1002a3e0 f i ConnectionGraph.obj
 0001:00029430       ??0?$List@UMapNode@?$Map@UPlayerIdAndGroupId@ConnectionGraph@@G$1??$defaultMapKeyComparison@UPlayerIdAndGroupId@ConnectionGraph@@@DataStructures@@YAHABU12@0@Z@DataStructures@@@DataStructures@@QAE@XZ 1002a430 f i ConnectionGraph.obj
 0001:00029480       ??0?$List@UMapNode@?$Map@UPlayerIdAndGroupId@ConnectionGraph@@PAV?$Map@UPlayerIdAndGroupId@ConnectionGraph@@G$1??$defaultMapKeyComparison@UPlayerIdAndGroupId@ConnectionGraph@@@DataStructures@@YAHABU12@0@Z@DataStructures@@$1??$defaultMapKeyComparison@UPlayerIdAndGroupId@ConnectionGraph@@@4@YAHABU12@0@Z@DataStructures@@@DataStructures@@QAE@XZ 1002a480 f i ConnectionGraph.obj
 0001:000294d0       ??0?$List@UPlayerID@@@DataStructures@@QAE@XZ 1002a4d0 f i ConnectionGraph.obj
 0001:00029520       ??0?$List@UPlayerIdAndGroupId@ConnectionGraph@@@DataStructures@@QAE@XZ 1002a520 f i ConnectionGraph.obj
 0001:00029570       ??0?$Map@UPlayerIdAndGroupId@ConnectionGraph@@G$1??$defaultMapKeyComparison@UPlayerIdAndGroupId@ConnectionGraph@@@DataStructures@@YAHABU12@0@Z@DataStructures@@QAE@XZ 1002a570 f i ConnectionGraph.obj
 0001:00029600       ??0?$Map@UPlayerIdAndGroupId@ConnectionGraph@@PAV?$Map@UPlayerIdAndGroupId@ConnectionGraph@@G$1??$defaultMapKeyComparison@UPlayerIdAndGroupId@ConnectionGraph@@@DataStructures@@YAHABU12@0@Z@DataStructures@@$1??$defaultMapKeyComparison@UPlayerIdAndGroupId@ConnectionGraph@@@4@YAHABU12@0@Z@DataStructures@@QAE@XZ 1002a600 f i ConnectionGraph.obj
 0001:00029690       ??0?$OrderedList@EE$1??$defaultOrderedListComparison@EE@DataStructures@@YAHABE0@Z@DataStructures@@QAE@XZ 1002a690 f i ConnectionGraph.obj
 0001:000296e0       ??0?$OrderedList@UPlayerID@@U1@$1??$defaultOrderedListComparison@UPlayerID@@U1@@DataStructures@@YAHABU1@0@Z@DataStructures@@QAE@XZ 1002a6e0 f i ConnectionGraph.obj
 0001:00029730       ??0?$OrderedList@UPlayerIdAndGroupId@ConnectionGraph@@U12@$1??$defaultOrderedListComparison@UPlayerIdAndGroupId@ConnectionGraph@@U12@@DataStructures@@YAHABU12@0@Z@DataStructures@@QAE@XZ 1002a730 f i ConnectionGraph.obj
 0001:00029780       ??0?$OrderedList@UPlayerIdAndGroupId@ConnectionGraph@@UMapNode@?$Map@UPlayerIdAndGroupId@ConnectionGraph@@G$1??$defaultMapKeyComparison@UPlayerIdAndGroupId@ConnectionGraph@@@DataStructures@@YAHABU12@0@Z@DataStructures@@$1?NodeComparisonFunc@45@SAHABU12@ABU345@@Z@DataStructures@@QAE@XZ 1002a780 f i ConnectionGraph.obj
 0001:000297d0       ??0?$OrderedList@UPlayerIdAndGroupId@ConnectionGraph@@UMapNode@?$Map@UPlayerIdAndGroupId@ConnectionGraph@@PAV?$Map@UPlayerIdAndGroupId@ConnectionGraph@@G$1??$defaultMapKeyComparison@UPlayerIdAndGroupId@ConnectionGraph@@@DataStructures@@YAHABU12@0@Z@DataStructures@@$1??$defaultMapKeyComparison@UPlayerIdAndGroupId@ConnectionGraph@@@4@YAHABU12@0@Z@DataStructures@@$1?NodeComparisonFunc@45@SAHABU12@ABU345@@Z@DataStructures@@QAE@XZ 1002a7d0 f i ConnectionGraph.obj
 0001:00029820       ??0?$Queue@UPlayerIdAndGroupId@ConnectionGraph@@@DataStructures@@QAE@XZ 1002a820 f i ConnectionGraph.obj
 0001:00029960       ??0?$WeightedGraph@UPlayerIdAndGroupId@ConnectionGraph@@G$0A@@DataStructures@@QAE@XZ 1002a960 f i ConnectionGraph.obj
 0001:00029a10       ??0ConnectionGraph@@QAE@XZ 1002aa10 f   ConnectionGraph.obj
 0001:00029b10       ??0MapNode@?$Map@UPlayerIdAndGroupId@ConnectionGraph@@G$1??$defaultMapKeyComparison@UPlayerIdAndGroupId@ConnectionGraph@@@DataStructures@@YAHABU12@0@Z@DataStructures@@QAE@UPlayerIdAndGroupId@ConnectionGraph@@G@Z 1002ab10 f i ConnectionGraph.obj
 0001:00029b80       ??0MapNode@?$Map@UPlayerIdAndGroupId@ConnectionGraph@@G$1??$defaultMapKeyComparison@UPlayerIdAndGroupId@ConnectionGraph@@@DataStructures@@YAHABU12@0@Z@DataStructures@@QAE@XZ 1002ab80 f i ConnectionGraph.obj
 0001:00029bd0       ??0MapNode@?$Map@UPlayerIdAndGroupId@ConnectionGraph@@PAV?$Map@UPlayerIdAndGroupId@ConnectionGraph@@G$1??$defaultMapKeyComparison@UPlayerIdAndGroupId@ConnectionGraph@@@DataStructures@@YAHABU12@0@Z@DataStructures@@$1??$defaultMapKeyComparison@UPlayerIdAndGroupId@ConnectionGraph@@@4@YAHABU12@0@Z@DataStructures@@QAE@UPlayerIdAndGroupId@ConnectionGraph@@PAV?$Map@UPlayerIdAndGroupId@ConnectionGraph@@G$1??$defaultMapKeyComparison@UPlayerIdAndGroupId@ConnectionGraph@@@DataStructures@@YAHABU12@0@Z@2@@Z 1002abd0 f i ConnectionGraph.obj
 0001:00029c40       ??0MapNode@?$Map@UPlayerIdAndGroupId@ConnectionGraph@@PAV?$Map@UPlayerIdAndGroupId@ConnectionGraph@@G$1??$defaultMapKeyComparison@UPlayerIdAndGroupId@ConnectionGraph@@@DataStructures@@YAHABU12@0@Z@DataStructures@@$1??$defaultMapKeyComparison@UPlayerIdAndGroupId@ConnectionGraph@@@4@YAHABU12@0@Z@DataStructures@@QAE@XZ 1002ac40 f i ConnectionGraph.obj
 0001:00029c90       ??0PlayerIdAndGroupId@ConnectionGraph@@QAE@UPlayerID@@E@Z 1002ac90 f   ConnectionGraph.obj
 0001:00029cf0       ??0PlayerIdAndGroupId@ConnectionGraph@@QAE@XZ 1002acf0 f   ConnectionGraph.obj
 0001:00029d20       ??0PluginInterface@@QAE@XZ 1002ad20 f i ConnectionGraph.obj
 0001:00029d60       ??1?$List@E@DataStructures@@QAE@XZ 1002ad60 f i ConnectionGraph.obj
 0001:00029dc0       ??1?$List@UMapNode@?$Map@UPlayerIdAndGroupId@ConnectionGraph@@G$1??$defaultMapKeyComparison@UPlayerIdAndGroupId@ConnectionGraph@@@DataStructures@@YAHABU12@0@Z@DataStructures@@@DataStructures@@QAE@XZ 1002adc0 f i ConnectionGraph.obj
 0001:00029e40       ??1?$List@UMapNode@?$Map@UPlayerIdAndGroupId@ConnectionGraph@@PAV?$Map@UPlayerIdAndGroupId@ConnectionGraph@@G$1??$defaultMapKeyComparison@UPlayerIdAndGroupId@ConnectionGraph@@@DataStructures@@YAHABU12@0@Z@DataStructures@@$1??$defaultMapKeyComparison@UPlayerIdAndGroupId@ConnectionGraph@@@4@YAHABU12@0@Z@DataStructures@@@DataStructures@@QAE@XZ 1002ae40 f i ConnectionGraph.obj
 0001:00029ec0       ??1?$List@UPlayerID@@@DataStructures@@QAE@XZ 1002aec0 f i ConnectionGraph.obj
 0001:00029f20       ??1?$List@UPlayerIdAndGroupId@ConnectionGraph@@@DataStructures@@QAE@XZ 1002af20 f i ConnectionGraph.obj
 0001:00029fa0       ??1?$Map@UPlayerIdAndGroupId@ConnectionGraph@@G$1??$defaultMapKeyComparison@UPlayerIdAndGroupId@ConnectionGraph@@@DataStructures@@YAHABU12@0@Z@DataStructures@@QAE@XZ 1002afa0 f i ConnectionGraph.obj
 0001:0002a030       ??1?$Map@UPlayerIdAndGroupId@ConnectionGraph@@PAV?$Map@UPlayerIdAndGroupId@ConnectionGraph@@G$1??$defaultMapKeyComparison@UPlayerIdAndGroupId@ConnectionGraph@@@DataStructures@@YAHABU12@0@Z@DataStructures@@$1??$defaultMapKeyComparison@UPlayerIdAndGroupId@ConnectionGraph@@@4@YAHABU12@0@Z@DataStructures@@QAE@XZ 1002b030 f i ConnectionGraph.obj
 0001:0002a0c0       ??1?$OrderedList@EE$1??$defaultOrderedListComparison@EE@DataStructures@@YAHABE0@Z@DataStructures@@QAE@XZ 1002b0c0 f i ConnectionGraph.obj
 0001:0002a140       ??1?$OrderedList@UPlayerID@@U1@$1??$defaultOrderedListComparison@UPlayerID@@U1@@DataStructures@@YAHABU1@0@Z@DataStructures@@QAE@XZ 1002b140 f i ConnectionGraph.obj
 0001:0002a1c0       ??1?$OrderedList@UPlayerIdAndGroupId@ConnectionGraph@@U12@$1??$defaultOrderedListComparison@UPlayerIdAndGroupId@ConnectionGraph@@U12@@DataStructures@@YAHABU12@0@Z@DataStructures@@QAE@XZ 1002b1c0 f i ConnectionGraph.obj
 0001:0002a240       ??1?$OrderedList@UPlayerIdAndGroupId@ConnectionGraph@@UMapNode@?$Map@UPlayerIdAndGroupId@ConnectionGraph@@G$1??$defaultMapKeyComparison@UPlayerIdAndGroupId@ConnectionGraph@@@DataStructures@@YAHABU12@0@Z@DataStructures@@$1?NodeComparisonFunc@45@SAHABU12@ABU345@@Z@DataStructures@@QAE@XZ 1002b240 f i ConnectionGraph.obj
 0001:0002a2c0       ??1?$OrderedList@UPlayerIdAndGroupId@ConnectionGraph@@UMapNode@?$Map@UPlayerIdAndGroupId@ConnectionGraph@@PAV?$Map@UPlayerIdAndGroupId@ConnectionGraph@@G$1??$defaultMapKeyComparison@UPlayerIdAndGroupId@ConnectionGraph@@@DataStructures@@YAHABU12@0@Z@DataStructures@@$1??$defaultMapKeyComparison@UPlayerIdAndGroupId@ConnectionGraph@@@4@YAHABU12@0@Z@DataStructures@@$1?NodeComparisonFunc@45@SAHABU12@ABU345@@Z@DataStructures@@QAE@XZ 1002b2c0 f i ConnectionGraph.obj
 0001:0002a340       ??1?$Queue@UPlayerIdAndGroupId@ConnectionGraph@@@DataStructures@@QAE@XZ 1002b340 f i ConnectionGraph.obj
 0001:0002a3c0       ??1?$WeightedGraph@UPlayerIdAndGroupId@ConnectionGraph@@G$0A@@DataStructures@@QAE@XZ 1002b3c0 f i ConnectionGraph.obj
 0001:0002a460       ??1ConnectionGraph@@QAE@XZ 1002b460 f   ConnectionGraph.obj
 0001:0002a530       ??1MapNode@?$Map@UPlayerIdAndGroupId@ConnectionGraph@@G$1??$defaultMapKeyComparison@UPlayerIdAndGroupId@ConnectionGraph@@@DataStructures@@YAHABU12@0@Z@DataStructures@@QAE@XZ 1002b530 f i ConnectionGraph.obj
 0001:0002a570       ??1MapNode@?$Map@UPlayerIdAndGroupId@ConnectionGraph@@PAV?$Map@UPlayerIdAndGroupId@ConnectionGraph@@G$1??$defaultMapKeyComparison@UPlayerIdAndGroupId@ConnectionGraph@@@DataStructures@@YAHABU12@0@Z@DataStructures@@$1??$defaultMapKeyComparison@UPlayerIdAndGroupId@ConnectionGraph@@@4@YAHABU12@0@Z@DataStructures@@QAE@XZ 1002b570 f i ConnectionGraph.obj
 0001:0002a5b0       ??1PlayerIdAndGroupId@ConnectionGraph@@QAE@XZ 1002b5b0 f   ConnectionGraph.obj
 0001:0002a5e0       ??4MapNode@?$Map@UPlayerIdAndGroupId@ConnectionGraph@@G$1??$defaultMapKeyComparison@UPlayerIdAndGroupId@ConnectionGraph@@@DataStructures@@YAHABU12@0@Z@DataStructures@@QAEAAU012@ABU012@@Z 1002b5e0 f i ConnectionGraph.obj
 0001:0002a640       ??4MapNode@?$Map@UPlayerIdAndGroupId@ConnectionGraph@@PAV?$Map@UPlayerIdAndGroupId@ConnectionGraph@@G$1??$defaultMapKeyComparison@UPlayerIdAndGroupId@ConnectionGraph@@@DataStructures@@YAHABU12@0@Z@DataStructures@@$1??$defaultMapKeyComparison@UPlayerIdAndGroupId@ConnectionGraph@@@4@YAHABU12@0@Z@DataStructures@@QAEAAU012@ABU012@@Z 1002b640 f i ConnectionGraph.obj
 0001:0002a6a0       ??4PlayerID@@QAEAAU0@ABU0@@Z 1002b6a0 f i ConnectionGraph.obj
 0001:0002a6f0       ??4PlayerIdAndGroupId@ConnectionGraph@@QAEAAU01@ABU01@@Z 1002b6f0 f i ConnectionGraph.obj
 0001:0002a750       ??8PlayerIdAndGroupId@ConnectionGraph@@QBE_NABU01@@Z 1002b750 f   ConnectionGraph.obj
 0001:0002a7a0       ??9PlayerIdAndGroupId@ConnectionGraph@@QBE_NABU01@@Z 1002b7a0 f   ConnectionGraph.obj
 0001:0002a7f0       ??A?$List@E@DataStructures@@QBEAAEI@Z 1002b7f0 f i ConnectionGraph.obj
 0001:0002a860       ??A?$List@UMapNode@?$Map@UPlayerIdAndGroupId@ConnectionGraph@@G$1??$defaultMapKeyComparison@UPlayerIdAndGroupId@ConnectionGraph@@@DataStructures@@YAHABU12@0@Z@DataStructures@@@DataStructures@@QBEAAUMapNode@?$Map@UPlayerIdAndGroupId@ConnectionGraph@@G$1??$defaultMapKeyComparison@UPlayerIdAndGroupId@ConnectionGraph@@@DataStructures@@YAHABU12@0@Z@1@I@Z 1002b860 f i ConnectionGraph.obj
 0001:0002a8d0       ??A?$List@UMapNode@?$Map@UPlayerIdAndGroupId@ConnectionGraph@@PAV?$Map@UPlayerIdAndGroupId@ConnectionGraph@@G$1??$defaultMapKeyComparison@UPlayerIdAndGroupId@ConnectionGraph@@@DataStructures@@YAHABU12@0@Z@DataStructures@@$1??$defaultMapKeyComparison@UPlayerIdAndGroupId@ConnectionGraph@@@4@YAHABU12@0@Z@DataStructures@@@DataStructures@@QBEAAUMapNode@?$Map@UPlayerIdAndGroupId@ConnectionGraph@@PAV?$Map@UPlayerIdAndGroupId@ConnectionGraph@@G$1??$defaultMapKeyComparison@UPlayerIdAndGroupId@ConnectionGraph@@@DataStructures@@YAHABU12@0@Z@DataStructures@@$1??$defaultMapKeyComparison@UPlayerIdAndGroupId@ConnectionGraph@@@4@YAHABU12@0@Z@1@I@Z 1002b8d0 f i ConnectionGraph.obj
 0001:0002a940       ??A?$List@UPlayerID@@@DataStructures@@QBEAAUPlayerID@@I@Z 1002b940 f i ConnectionGraph.obj
 0001:0002a9b0       ??A?$Map@UPlayerIdAndGroupId@ConnectionGraph@@G$1??$defaultMapKeyComparison@UPlayerIdAndGroupId@ConnectionGraph@@@DataStructures@@YAHABU12@0@Z@DataStructures@@QBEAAGI@Z 1002b9b0 f i ConnectionGraph.obj
 0001:0002aa00       ??A?$Map@UPlayerIdAndGroupId@ConnectionGraph@@PAV?$Map@UPlayerIdAndGroupId@ConnectionGraph@@G$1??$defaultMapKeyComparison@UPlayerIdAndGroupId@ConnectionGraph@@@DataStructures@@YAHABU12@0@Z@DataStructures@@$1??$defaultMapKeyComparison@UPlayerIdAndGroupId@ConnectionGraph@@@4@YAHABU12@0@Z@DataStructures@@QBEAAPAV?$Map@UPlayerIdAndGroupId@ConnectionGraph@@G$1??$defaultMapKeyComparison@UPlayerIdAndGroupId@ConnectionGraph@@@DataStructures@@YAHABU12@0@Z@1@I@Z 1002ba00 f i ConnectionGraph.obj
 0001:0002aa50       ??A?$OrderedList@UPlayerID@@U1@$1??$defaultOrderedListComparison@UPlayerID@@U1@@DataStructures@@YAHABU1@0@Z@DataStructures@@QBEAAUPlayerID@@I@Z 1002ba50 f i ConnectionGraph.obj
 0001:0002aaa0       ??A?$OrderedList@UPlayerIdAndGroupId@ConnectionGraph@@UMapNode@?$Map@UPlayerIdAndGroupId@ConnectionGraph@@G$1??$defaultMapKeyComparison@UPlayerIdAndGroupId@ConnectionGraph@@@DataStructures@@YAHABU12@0@Z@DataStructures@@$1?NodeComparisonFunc@45@SAHABU12@ABU345@@Z@DataStructures@@QBEAAUMapNode@?$Map@UPlayerIdAndGroupId@ConnectionGraph@@G$1??$defaultMapKeyComparison@UPlayerIdAndGroupId@ConnectionGraph@@@DataStructures@@YAHABU12@0@Z@1@I@Z 1002baa0 f i ConnectionGraph.obj
 0001:0002aaf0       ??A?$OrderedList@UPlayerIdAndGroupId@ConnectionGraph@@UMapNode@?$Map@UPlayerIdAndGroupId@ConnectionGraph@@PAV?$Map@UPlayerIdAndGroupId@ConnectionGraph@@G$1??$defaultMapKeyComparison@UPlayerIdAndGroupId@ConnectionGraph@@@DataStructures@@YAHABU12@0@Z@DataStructures@@$1??$defaultMapKeyComparison@UPlayerIdAndGroupId@ConnectionGraph@@@4@YAHABU12@0@Z@DataStructures@@$1?NodeComparisonFunc@45@SAHABU12@ABU345@@Z@DataStructures@@QBEAAUMapNode@?$Map@UPlayerIdAndGroupId@ConnectionGraph@@PAV?$Map@UPlayerIdAndGroupId@ConnectionGraph@@G$1??$defaultMapKeyComparison@UPlayerIdAndGroupId@ConnectionGraph@@@DataStructures@@YAHABU12@0@Z@DataStructures@@$1??$defaultMapKeyComparison@UPlayerIdAndGroupId@ConnectionGraph@@@4@YAHABU12@0@Z@1@I@Z 1002baf0 f i ConnectionGraph.obj
 0001:0002ab40       ??MPlayerIdAndGroupId@ConnectionGraph@@QBE_NABU01@@Z 1002bb40 f   ConnectionGraph.obj
 0001:0002ab90       ??OPlayerIdAndGroupId@ConnectionGraph@@QBE_NABU01@@Z 1002bb90 f   ConnectionGraph.obj
 0001:0002abe0       ??_EMapNode@?$Map@UPlayerIdAndGroupId@ConnectionGraph@@G$1??$defaultMapKeyComparison@UPlayerIdAndGroupId@ConnectionGraph@@@DataStructures@@YAHABU12@0@Z@DataStructures@@QAEPAXI@Z 1002bbe0 f i ConnectionGraph.obj
 0001:0002ac80       ??_EMapNode@?$Map@UPlayerIdAndGroupId@ConnectionGraph@@PAV?$Map@UPlayerIdAndGroupId@ConnectionGraph@@G$1??$defaultMapKeyComparison@UPlayerIdAndGroupId@ConnectionGraph@@@DataStructures@@YAHABU12@0@Z@DataStructures@@$1??$defaultMapKeyComparison@UPlayerIdAndGroupId@ConnectionGraph@@@4@YAHABU12@0@Z@DataStructures@@QAEPAXI@Z 1002bc80 f i ConnectionGraph.obj
 0001:0002ad20       ??_EPlayerIdAndGroupId@ConnectionGraph@@QAEPAXI@Z 1002bd20 f i ConnectionGraph.obj
 0001:0002adc0       ??_G?$Map@UPlayerIdAndGroupId@ConnectionGraph@@G$1??$defaultMapKeyComparison@UPlayerIdAndGroupId@ConnectionGraph@@@DataStructures@@YAHABU12@0@Z@DataStructures@@QAEPAXI@Z 1002bdc0 f i ConnectionGraph.obj
 0001:0002ae20       ?AddAndRelayConnection@ConnectionGraph@@IAEXAAV?$OrderedList@UPlayerID@@U1@$1??$defaultOrderedListComparison@UPlayerID@@U1@@DataStructures@@YAHABU1@0@Z@DataStructures@@ABUPlayerIdAndGroupId@1@1GPAVRakPeerInterface@@@Z 1002be20 f   ConnectionGraph.obj
 0001:0002b0b0       ?AddConnection@?$WeightedGraph@UPlayerIdAndGroupId@ConnectionGraph@@G$0A@@DataStructures@@QAEXABUPlayerIdAndGroupId@ConnectionGraph@@0G@Z 1002c0b0 f i ConnectionGraph.obj
 0001:0002b180       ?AddNewConnection@ConnectionGraph@@QAEXPAVRakPeerInterface@@UPlayerID@@E@Z 1002c180 f   ConnectionGraph.obj
 0001:0002b350       ?AddNode@?$WeightedGraph@UPlayerIdAndGroupId@ConnectionGraph@@G$0A@@DataStructures@@QAEXABUPlayerIdAndGroupId@ConnectionGraph@@@Z 1002c350 f i ConnectionGraph.obj
 0001:0002b430       ?AddParticipant@ConnectionGraph@@IAEXUPlayerID@@@Z 1002c430 f   ConnectionGraph.obj
 0001:0002b4a0       ?BroadcastGraphUpdate@ConnectionGraph@@IAEXAAV?$OrderedList@UPlayerID@@U1@$1??$defaultOrderedListComparison@UPlayerID@@U1@@DataStructures@@YAHABU1@0@Z@DataStructures@@PAVRakPeerInterface@@@Z 1002c4a0 f   ConnectionGraph.obj
 0001:0002b5b0       ?Clear@?$List@E@DataStructures@@QAEX_N@Z 1002c5b0 f i ConnectionGraph.obj
 0001:0002b640       ?Clear@?$List@UMapNode@?$Map@UPlayerIdAndGroupId@ConnectionGraph@@G$1??$defaultMapKeyComparison@UPlayerIdAndGroupId@ConnectionGraph@@@DataStructures@@YAHABU12@0@Z@DataStructures@@@DataStructures@@QAEX_N@Z 1002c640 f i ConnectionGraph.obj
 0001:0002b700       ?Clear@?$List@UMapNode@?$Map@UPlayerIdAndGroupId@ConnectionGraph@@PAV?$Map@UPlayerIdAndGroupId@ConnectionGraph@@G$1??$defaultMapKeyComparison@UPlayerIdAndGroupId@ConnectionGraph@@@DataStructures@@YAHABU12@0@Z@DataStructures@@$1??$defaultMapKeyComparison@UPlayerIdAndGroupId@ConnectionGraph@@@4@YAHABU12@0@Z@DataStructures@@@DataStructures@@QAEX_N@Z 1002c700 f i ConnectionGraph.obj
 0001:0002b7c0       ?Clear@?$List@UPlayerID@@@DataStructures@@QAEX_N@Z 1002c7c0 f i ConnectionGraph.obj
 0001:0002b850       ?Clear@?$List@UPlayerIdAndGroupId@ConnectionGraph@@@DataStructures@@QAEX_N@Z 1002c850 f i ConnectionGraph.obj
 0001:0002b910       ?Clear@?$Map@UPlayerIdAndGroupId@ConnectionGraph@@G$1??$defaultMapKeyComparison@UPlayerIdAndGroupId@ConnectionGraph@@@DataStructures@@YAHABU12@0@Z@DataStructures@@QAEXXZ 1002c910 f i ConnectionGraph.obj
 0001:0002b960       ?Clear@?$Map@UPlayerIdAndGroupId@ConnectionGraph@@PAV?$Map@UPlayerIdAndGroupId@ConnectionGraph@@G$1??$defaultMapKeyComparison@UPlayerIdAndGroupId@ConnectionGraph@@@DataStructures@@YAHABU12@0@Z@DataStructures@@$1??$defaultMapKeyComparison@UPlayerIdAndGroupId@ConnectionGraph@@@4@YAHABU12@0@Z@DataStructures@@QAEXXZ 1002c960 f i ConnectionGraph.obj
 0001:0002b9b0       ?Clear@?$OrderedList@EE$1??$defaultOrderedListComparison@EE@DataStructures@@YAHABE0@Z@DataStructures@@QAEXXZ 1002c9b0 f i ConnectionGraph.obj
 0001:0002ba00       ?Clear@?$OrderedList@UPlayerID@@U1@$1??$defaultOrderedListComparison@UPlayerID@@U1@@DataStructures@@YAHABU1@0@Z@DataStructures@@QAEXXZ 1002ca00 f i ConnectionGraph.obj
 0001:0002ba50       ?Clear@?$OrderedList@UPlayerIdAndGroupId@ConnectionGraph@@U12@$1??$defaultOrderedListComparison@UPlayerIdAndGroupId@ConnectionGraph@@U12@@DataStructures@@YAHABU12@0@Z@DataStructures@@QAEXXZ 1002ca50 f i ConnectionGraph.obj
 0001:0002baa0       ?Clear@?$OrderedList@UPlayerIdAndGroupId@ConnectionGraph@@UMapNode@?$Map@UPlayerIdAndGroupId@ConnectionGraph@@G$1??$defaultMapKeyComparison@UPlayerIdAndGroupId@ConnectionGraph@@@DataStructures@@YAHABU12@0@Z@DataStructures@@$1?NodeComparisonFunc@45@SAHABU12@ABU345@@Z@DataStructures@@QAEXXZ 1002caa0 f i ConnectionGraph.obj
 0001:0002baf0       ?Clear@?$OrderedList@UPlayerIdAndGroupId@ConnectionGraph@@UMapNode@?$Map@UPlayerIdAndGroupId@ConnectionGraph@@PAV?$Map@UPlayerIdAndGroupId@ConnectionGraph@@G$1??$defaultMapKeyComparison@UPlayerIdAndGroupId@ConnectionGraph@@@DataStructures@@YAHABU12@0@Z@DataStructures@@$1??$defaultMapKeyComparison@UPlayerIdAndGroupId@ConnectionGraph@@@4@YAHABU12@0@Z@DataStructures@@$1?NodeComparisonFunc@45@SAHABU12@ABU345@@Z@DataStructures@@QAEXXZ 1002caf0 f i ConnectionGraph.obj
 0001:0002bb40       ?Clear@?$WeightedGraph@UPlayerIdAndGroupId@ConnectionGraph@@G$0A@@DataStructures@@QAEXXZ 1002cb40 f i ConnectionGraph.obj
 0001:0002bbf0       ?ClearDijkstra@?$WeightedGraph@UPlayerIdAndGroupId@ConnectionGraph@@G$0A@@DataStructures@@IAEXXZ 1002cbf0 f i ConnectionGraph.obj
 0001:0002bca0       ?Del@?$List@E@DataStructures@@QAEXI@Z 1002cca0 f i ConnectionGraph.obj
 0001:0002bd10       ?Del@?$List@UMapNode@?$Map@UPlayerIdAndGroupId@ConnectionGraph@@G$1??$defaultMapKeyComparison@UPlayerIdAndGroupId@ConnectionGraph@@@DataStructures@@YAHABU12@0@Z@DataStructures@@@DataStructures@@QAEXI@Z 1002cd10 f i ConnectionGraph.obj
 0001:0002bd80       ?Del@?$List@UMapNode@?$Map@UPlayerIdAndGroupId@ConnectionGraph@@PAV?$Map@UPlayerIdAndGroupId@ConnectionGraph@@G$1??$defaultMapKeyComparison@UPlayerIdAndGroupId@ConnectionGraph@@@DataStructures@@YAHABU12@0@Z@DataStructures@@$1??$defaultMapKeyComparison@UPlayerIdAndGroupId@ConnectionGraph@@@4@YAHABU12@0@Z@DataStructures@@@DataStructures@@QAEXI@Z 1002cd80 f i ConnectionGraph.obj
 0001:0002bdf0       ?Del@?$List@UPlayerID@@@DataStructures@@QAEXI@Z 1002cdf0 f i ConnectionGraph.obj
 0001:0002be60       ?Delete@?$Map@UPlayerIdAndGroupId@ConnectionGraph@@G$1??$defaultMapKeyComparison@UPlayerIdAndGroupId@ConnectionGraph@@@DataStructures@@YAHABU12@0@Z@DataStructures@@QAE_NABUPlayerIdAndGroupId@ConnectionGraph@@@Z 1002ce60 f i ConnectionGraph.obj
 0001:0002bf40       ?DeserializeIgnoreList@ConnectionGraph@@IAE_NAAV?$OrderedList@UPlayerID@@U1@$1??$defaultOrderedListComparison@UPlayerID@@U1@@DataStructures@@YAHABU1@0@Z@DataStructures@@PAVBitStream@RakNet@@@Z 1002cf40 f   ConnectionGraph.obj
 0001:0002c030       ?DeserializeWeightedGraph@ConnectionGraph@@IAE_NPAVBitStream@RakNet@@PAVRakPeerInterface@@@Z 1002d030 f   ConnectionGraph.obj
 0001:0002c3b0       ?Get@?$Map@UPlayerIdAndGroupId@ConnectionGraph@@PAV?$Map@UPlayerIdAndGroupId@ConnectionGraph@@G$1??$defaultMapKeyComparison@UPlayerIdAndGroupId@ConnectionGraph@@@DataStructures@@YAHABU12@0@Z@DataStructures@@$1??$defaultMapKeyComparison@UPlayerIdAndGroupId@ConnectionGraph@@@4@YAHABU12@0@Z@DataStructures@@QAEAAPAV?$Map@UPlayerIdAndGroupId@ConnectionGraph@@G$1??$defaultMapKeyComparison@UPlayerIdAndGroupId@ConnectionGraph@@@DataStructures@@YAHABU12@0@Z@2@ABUPlayerIdAndGroupId@ConnectionGraph@@@Z 1002d3b0 f i ConnectionGraph.obj
 0001:0002c4a0       ?GetConnectionAtIndex@?$WeightedGraph@UPlayerIdAndGroupId@ConnectionGraph@@G$0A@@DataStructures@@QBEXIIAAUPlayerIdAndGroupId@ConnectionGraph@@AAG@Z 1002d4a0 f i ConnectionGraph.obj
 0001:0002c580       ?GetConnectionCount@?$WeightedGraph@UPlayerIdAndGroupId@ConnectionGraph@@G$0A@@DataStructures@@QBEII@Z 1002d580 f i ConnectionGraph.obj
 0001:0002c5d0       ?GetGraph@ConnectionGraph@@QAEPAV?$WeightedGraph@UPlayerIdAndGroupId@ConnectionGraph@@G$0A@@DataStructures@@XZ 1002d5d0 f   ConnectionGraph.obj
 0001:0002c600       ?GetIndexFromKey@?$OrderedList@EE$1??$defaultOrderedListComparison@EE@DataStructures@@YAHABE0@Z@DataStructures@@QBEIABEPA_N@Z 1002d600 f i ConnectionGraph.obj
 0001:0002c6f0       ?GetIndexFromKey@?$OrderedList@UPlayerID@@U1@$1??$defaultOrderedListComparison@UPlayerID@@U1@@DataStructures@@YAHABU1@0@Z@DataStructures@@QBEIABUPlayerID@@PA_N@Z 1002d6f0 f i ConnectionGraph.obj
 0001:0002c7e0       ?GetIndexFromKey@?$OrderedList@UPlayerIdAndGroupId@ConnectionGraph@@UMapNode@?$Map@UPlayerIdAndGroupId@ConnectionGraph@@G$1??$defaultMapKeyComparison@UPlayerIdAndGroupId@ConnectionGraph@@@DataStructures@@YAHABU12@0@Z@DataStructures@@$1?NodeComparisonFunc@45@SAHABU12@ABU345@@Z@DataStructures@@QBEIABUPlayerIdAndGroupId@ConnectionGraph@@PA_N@Z 1002d7e0 f i ConnectionGraph.obj
 0001:0002c8d0       ?GetIndexFromKey@?$OrderedList@UPlayerIdAndGroupId@ConnectionGraph@@UMapNode@?$Map@UPlayerIdAndGroupId@ConnectionGraph@@PAV?$Map@UPlayerIdAndGroupId@ConnectionGraph@@G$1??$defaultMapKeyComparison@UPlayerIdAndGroupId@ConnectionGraph@@@DataStructures@@YAHABU12@0@Z@DataStructures@@$1??$defaultMapKeyComparison@UPlayerIdAndGroupId@ConnectionGraph@@@4@YAHABU12@0@Z@DataStructures@@$1?NodeComparisonFunc@45@SAHABU12@ABU345@@Z@DataStructures@@QBEIABUPlayerIdAndGroupId@ConnectionGraph@@PA_N@Z 1002d8d0 f i ConnectionGraph.obj
 0001:0002c9c0       ?GetKeyAtIndex@?$Map@UPlayerIdAndGroupId@ConnectionGraph@@G$1??$defaultMapKeyComparison@UPlayerIdAndGroupId@ConnectionGraph@@@DataStructures@@YAHABU12@0@Z@DataStructures@@QBE?AUPlayerIdAndGroupId@ConnectionGraph@@I@Z 1002d9c0 f i ConnectionGraph.obj
 0001:0002ca40       ?GetKeyAtIndex@?$Map@UPlayerIdAndGroupId@ConnectionGraph@@PAV?$Map@UPlayerIdAndGroupId@ConnectionGraph@@G$1??$defaultMapKeyComparison@UPlayerIdAndGroupId@ConnectionGraph@@@DataStructures@@YAHABU12@0@Z@DataStructures@@$1??$defaultMapKeyComparison@UPlayerIdAndGroupId@ConnectionGraph@@@4@YAHABU12@0@Z@DataStructures@@QBE?AUPlayerIdAndGroupId@ConnectionGraph@@I@Z 1002da40 f i ConnectionGraph.obj
 0001:0002cac0       ?GetNodeAtIndex@?$WeightedGraph@UPlayerIdAndGroupId@ConnectionGraph@@G$0A@@DataStructures@@QBE?AUPlayerIdAndGroupId@ConnectionGraph@@I@Z 1002dac0 f i ConnectionGraph.obj
 0001:0002cb30       ?GetNodeCount@?$WeightedGraph@UPlayerIdAndGroupId@ConnectionGraph@@G$0A@@DataStructures@@QBEIXZ 1002db30 f i ConnectionGraph.obj
 0001:0002cb70       ?HandleDroppedConnection@ConnectionGraph@@IAEXPAVRakPeerInterface@@UPlayerID@@E@Z 1002db70 f   ConnectionGraph.obj
 0001:0002ccd0       ?Has@?$Map@UPlayerIdAndGroupId@ConnectionGraph@@G$1??$defaultMapKeyComparison@UPlayerIdAndGroupId@ConnectionGraph@@@DataStructures@@YAHABU12@0@Z@DataStructures@@QAE_NABUPlayerIdAndGroupId@ConnectionGraph@@@Z 1002dcd0 f i ConnectionGraph.obj
 0001:0002cd90       ?Has@?$Map@UPlayerIdAndGroupId@ConnectionGraph@@PAV?$Map@UPlayerIdAndGroupId@ConnectionGraph@@G$1??$defaultMapKeyComparison@UPlayerIdAndGroupId@ConnectionGraph@@@DataStructures@@YAHABU12@0@Z@DataStructures@@$1??$defaultMapKeyComparison@UPlayerIdAndGroupId@ConnectionGraph@@@4@YAHABU12@0@Z@DataStructures@@QAE_NABUPlayerIdAndGroupId@ConnectionGraph@@@Z 1002dd90 f i ConnectionGraph.obj
 0001:0002ce50       ?HasConnection@?$WeightedGraph@UPlayerIdAndGroupId@ConnectionGraph@@G$0A@@DataStructures@@QAE_NABUPlayerIdAndGroupId@ConnectionGraph@@0@Z 1002de50 f i ConnectionGraph.obj
 0001:0002ced0       ?HasData@?$OrderedList@EE$1??$defaultOrderedListComparison@EE@DataStructures@@YAHABE0@Z@DataStructures@@QBE_NABE@Z 1002ded0 f i ConnectionGraph.obj
 0001:0002cf60       ?HasData@?$OrderedList@UPlayerID@@U1@$1??$defaultOrderedListComparison@UPlayerID@@U1@@DataStructures@@YAHABU1@0@Z@DataStructures@@QBE_NABUPlayerID@@@Z 1002df60 f i ConnectionGraph.obj
 0001:0002cff0       ?HasSavedSearchResult@?$Map@UPlayerIdAndGroupId@ConnectionGraph@@G$1??$defaultMapKeyComparison@UPlayerIdAndGroupId@ConnectionGraph@@@DataStructures@@YAHABU12@0@Z@DataStructures@@IBE_NABUPlayerIdAndGroupId@ConnectionGraph@@@Z 1002dff0 f i ConnectionGraph.obj
 0001:0002d070       ?HasSavedSearchResult@?$Map@UPlayerIdAndGroupId@ConnectionGraph@@PAV?$Map@UPlayerIdAndGroupId@ConnectionGraph@@G$1??$defaultMapKeyComparison@UPlayerIdAndGroupId@ConnectionGraph@@@DataStructures@@YAHABU12@0@Z@DataStructures@@$1??$defaultMapKeyComparison@UPlayerIdAndGroupId@ConnectionGraph@@@4@YAHABU12@0@Z@DataStructures@@IBE_NABUPlayerIdAndGroupId@ConnectionGraph@@@Z 1002e070 f i ConnectionGraph.obj
 0001:0002d0f0       ?IMPLEMENT_DEFAULT_COMPARISON@?$OrderedList@EE$1??$defaultOrderedListComparison@EE@DataStructures@@YAHABE0@Z@DataStructures@@SAXXZ 1002e0f0 f i ConnectionGraph.obj
 0001:0002d150       ?IMPLEMENT_DEFAULT_COMPARISON@?$OrderedList@UPlayerID@@U1@$1??$defaultOrderedListComparison@UPlayerID@@U1@@DataStructures@@YAHABU1@0@Z@DataStructures@@SAXXZ 1002e150 f i ConnectionGraph.obj
 0001:0002d1a0       ?IMPLEMENT_DEFAULT_COMPARISON@?$OrderedList@UPlayerIdAndGroupId@ConnectionGraph@@U12@$1??$defaultOrderedListComparison@UPlayerIdAndGroupId@ConnectionGraph@@U12@@DataStructures@@YAHABU12@0@Z@DataStructures@@SAXXZ 1002e1a0 f i ConnectionGraph.obj
 0001:0002d280       ?IMPLEMENT_DEFAULT_COMPARISON@?$WeightedGraph@UPlayerIdAndGroupId@ConnectionGraph@@G$0A@@DataStructures@@SAXXZ 1002e280 f i ConnectionGraph.obj
 0001:0002d360       ?Insert@?$List@E@DataStructures@@QAEXE@Z 1002e360 f i ConnectionGraph.obj
 0001:0002d450       ?Insert@?$List@E@DataStructures@@QAEXEI@Z 1002e450 f i ConnectionGraph.obj
 0001:0002d580       ?Insert@?$List@UMapNode@?$Map@UPlayerIdAndGroupId@ConnectionGraph@@G$1??$defaultMapKeyComparison@UPlayerIdAndGroupId@ConnectionGraph@@@DataStructures@@YAHABU12@0@Z@DataStructures@@@DataStructures@@QAEXUMapNode@?$Map@UPlayerIdAndGroupId@ConnectionGraph@@G$1??$defaultMapKeyComparison@UPlayerIdAndGroupId@ConnectionGraph@@@DataStructures@@YAHABU12@0@Z@2@@Z 1002e580 f i ConnectionGraph.obj
 0001:0002d770       ?Insert@?$List@UMapNode@?$Map@UPlayerIdAndGroupId@ConnectionGraph@@G$1??$defaultMapKeyComparison@UPlayerIdAndGroupId@ConnectionGraph@@@DataStructures@@YAHABU12@0@Z@DataStructures@@@DataStructures@@QAEXUMapNode@?$Map@UPlayerIdAndGroupId@ConnectionGraph@@G$1??$defaultMapKeyComparison@UPlayerIdAndGroupId@ConnectionGraph@@@DataStructures@@YAHABU12@0@Z@2@I@Z 1002e770 f i ConnectionGraph.obj
 0001:0002d9a0       ?Insert@?$List@UMapNode@?$Map@UPlayerIdAndGroupId@ConnectionGraph@@PAV?$Map@UPlayerIdAndGroupId@ConnectionGraph@@G$1??$defaultMapKeyComparison@UPlayerIdAndGroupId@ConnectionGraph@@@DataStructures@@YAHABU12@0@Z@DataStructures@@$1??$defaultMapKeyComparison@UPlayerIdAndGroupId@ConnectionGraph@@@4@YAHABU12@0@Z@DataStructures@@@DataStructures@@QAEXUMapNode@?$Map@UPlayerIdAndGroupId@ConnectionGraph@@PAV?$Map@UPlayerIdAndGroupId@ConnectionGraph@@G$1??$defaultMapKeyComparison@UPlayerIdAndGroupId@ConnectionGraph@@@DataStructures@@YAHABU12@0@Z@DataStructures@@$1??$defaultMapKeyComparison@UPlayerIdAndGroupId@ConnectionGraph@@@4@YAHABU12@0@Z@2@@Z 1002e9a0 f i ConnectionGraph.obj
 0001:0002db90       ?Insert@?$List@UMapNode@?$Map@UPlayerIdAndGroupId@ConnectionGraph@@PAV?$Map@UPlayerIdAndGroupId@ConnectionGraph@@G$1??$defaultMapKeyComparison@UPlayerIdAndGroupId@ConnectionGraph@@@DataStructures@@YAHABU12@0@Z@DataStructures@@$1??$defaultMapKeyComparison@UPlayerIdAndGroupId@ConnectionGraph@@@4@YAHABU12@0@Z@DataStructures@@@DataStructures@@QAEXUMapNode@?$Map@UPlayerIdAndGroupId@ConnectionGraph@@PAV?$Map@UPlayerIdAndGroupId@ConnectionGraph@@G$1??$defaultMapKeyComparison@UPlayerIdAndGroupId@ConnectionGraph@@@DataStructures@@YAHABU12@0@Z@DataStructures@@$1??$defaultMapKeyComparison@UPlayerIdAndGroupId@ConnectionGraph@@@4@YAHABU12@0@Z@2@I@Z 1002eb90 f i ConnectionGraph.obj
 0001:0002ddc0       ?Insert@?$List@UPlayerID@@@DataStructures@@QAEXUPlayerID@@@Z 1002edc0 f i ConnectionGraph.obj
 0001:0002dec0       ?Insert@?$List@UPlayerID@@@DataStructures@@QAEXUPlayerID@@I@Z 1002eec0 f i ConnectionGraph.obj
 0001:0002e010       ?Insert@?$OrderedList@EE$1??$defaultOrderedListComparison@EE@DataStructures@@YAHABE0@Z@DataStructures@@QAEIABE0@Z 1002f010 f i ConnectionGraph.obj
 0001:0002e0e0       ?Insert@?$OrderedList@UPlayerID@@U1@$1??$defaultOrderedListComparison@UPlayerID@@U1@@DataStructures@@YAHABU1@0@Z@DataStructures@@QAEIABUPlayerID@@0@Z 1002f0e0 f i ConnectionGraph.obj
 0001:0002e1d0       ?Insert@?$OrderedList@UPlayerIdAndGroupId@ConnectionGraph@@UMapNode@?$Map@UPlayerIdAndGroupId@ConnectionGraph@@G$1??$defaultMapKeyComparison@UPlayerIdAndGroupId@ConnectionGraph@@@DataStructures@@YAHABU12@0@Z@DataStructures@@$1?NodeComparisonFunc@45@SAHABU12@ABU345@@Z@DataStructures@@QAEIABUPlayerIdAndGroupId@ConnectionGraph@@ABUMapNode@?$Map@UPlayerIdAndGroupId@ConnectionGraph@@G$1??$defaultMapKeyComparison@UPlayerIdAndGroupId@ConnectionGraph@@@DataStructures@@YAHABU12@0@Z@2@@Z 1002f1d0 f i ConnectionGraph.obj
 0001:0002e2d0       ?Insert@?$OrderedList@UPlayerIdAndGroupId@ConnectionGraph@@UMapNode@?$Map@UPlayerIdAndGroupId@ConnectionGraph@@PAV?$Map@UPlayerIdAndGroupId@ConnectionGraph@@G$1??$defaultMapKeyComparison@UPlayerIdAndGroupId@ConnectionGraph@@@DataStructures@@YAHABU12@0@Z@DataStructures@@$1??$defaultMapKeyComparison@UPlayerIdAndGroupId@ConnectionGraph@@@4@YAHABU12@0@Z@DataStructures@@$1?NodeComparisonFunc@45@SAHABU12@ABU345@@Z@DataStructures@@QAEIABUPlayerIdAndGroupId@ConnectionGraph@@ABUMapNode@?$Map@UPlayerIdAndGroupId@ConnectionGraph@@PAV?$Map@UPlayerIdAndGroupId@ConnectionGraph@@G$1??$defaultMapKeyComparison@UPlayerIdAndGroupId@ConnectionGraph@@@DataStructures@@YAHABU12@0@Z@DataStructures@@$1??$defaultMapKeyComparison@UPlayerIdAndGroupId@ConnectionGraph@@@4@YAHABU12@0@Z@2@@Z 1002f2d0 f i ConnectionGraph.obj
 0001:0002e3e0       ?IsNewRemoteConnection@ConnectionGraph@@IAE_NABUPlayerIdAndGroupId@1@0PAVRakPeerInterface@@@Z 1002f3e0 f   ConnectionGraph.obj
 0001:0002e610       ?NodeComparisonFunc@?$Map@UPlayerIdAndGroupId@ConnectionGraph@@G$1??$defaultMapKeyComparison@UPlayerIdAndGroupId@ConnectionGraph@@@DataStructures@@YAHABU12@0@Z@DataStructures@@SAHABUPlayerIdAndGroupId@ConnectionGraph@@ABUMapNode@12@@Z 1002f610 f i ConnectionGraph.obj
 0001:0002e660       ?NodeComparisonFunc@?$Map@UPlayerIdAndGroupId@ConnectionGraph@@PAV?$Map@UPlayerIdAndGroupId@ConnectionGraph@@G$1??$defaultMapKeyComparison@UPlayerIdAndGroupId@ConnectionGraph@@@DataStructures@@YAHABU12@0@Z@DataStructures@@$1??$defaultMapKeyComparison@UPlayerIdAndGroupId@ConnectionGraph@@@4@YAHABU12@0@Z@DataStructures@@SAHABUPlayerIdAndGroupId@ConnectionGraph@@ABUMapNode@12@@Z 1002f660 f i ConnectionGraph.obj
 0001:0002e6b0       ?NotifyUserOfRemoteConnection@ConnectionGraph@@IAEXABUPlayerIdAndGroupId@1@0GPAVRakPeerInterface@@@Z 1002f6b0 f   ConnectionGraph.obj
 0001:0002e850       ?OnCloseConnection@ConnectionGraph@@UAEXPAVRakPeerInterface@@UPlayerID@@@Z 1002f850 f   ConnectionGraph.obj
 0001:0002e8b0       ?OnConnectionGraphReply@ConnectionGraph@@IAEXPAVRakPeerInterface@@PAUPacket@@@Z 1002f8b0 f   ConnectionGraph.obj
 0001:0002ebd0       ?OnConnectionGraphRequest@ConnectionGraph@@IAEXPAVRakPeerInterface@@PAUPacket@@@Z 1002fbd0 f   ConnectionGraph.obj
 0001:0002ee10       ?OnConnectionGraphUpdate@ConnectionGraph@@IAEXPAVRakPeerInterface@@PAUPacket@@@Z 1002fe10 f   ConnectionGraph.obj
 0001:0002efe0       ?OnConnectionLost@ConnectionGraph@@IAE_NPAVRakPeerInterface@@PAUPacket@@E@Z 1002ffe0 f   ConnectionGraph.obj
 0001:0002f220       ?OnConnectionRequestAccepted@ConnectionGraph@@IAEXPAVRakPeerInterface@@PAUPacket@@@Z 10030220 f   ConnectionGraph.obj
 0001:0002f2b0       ?OnDisconnect@ConnectionGraph@@UAEXPAVRakPeerInterface@@@Z 100302b0 f   ConnectionGraph.obj
 0001:0002f300       ?OnNewConnection@ConnectionGraph@@IAEXPAVRakPeerInterface@@PAUPacket@@@Z 10030300 f   ConnectionGraph.obj
 0001:0002f590       ?OnNewIncomingConnection@ConnectionGraph@@IAEXPAVRakPeerInterface@@PAUPacket@@@Z 10030590 f   ConnectionGraph.obj
 0001:0002f600       ?OnReceive@ConnectionGraph@@UAE?AW4PluginReceiveResult@@PAVRakPeerInterface@@PAUPacket@@@Z 10030600 f   ConnectionGraph.obj
 0001:0002f830       ?Pop@?$Map@UPlayerIdAndGroupId@ConnectionGraph@@PAV?$Map@UPlayerIdAndGroupId@ConnectionGraph@@G$1??$defaultMapKeyComparison@UPlayerIdAndGroupId@ConnectionGraph@@@DataStructures@@YAHABU12@0@Z@DataStructures@@$1??$defaultMapKeyComparison@UPlayerIdAndGroupId@ConnectionGraph@@@4@YAHABU12@0@Z@DataStructures@@QAEPAV?$Map@UPlayerIdAndGroupId@ConnectionGraph@@G$1??$defaultMapKeyComparison@UPlayerIdAndGroupId@ConnectionGraph@@@DataStructures@@YAHABU12@0@Z@2@ABUPlayerIdAndGroupId@ConnectionGraph@@@Z 10030830 f i ConnectionGraph.obj
 0001:0002f920       ?Pop@?$Queue@UPlayerIdAndGroupId@ConnectionGraph@@@DataStructures@@QAE?AUPlayerIdAndGroupId@ConnectionGraph@@XZ 10030920 f i ConnectionGraph.obj
 0001:0002fb00       ?Push@?$Queue@UPlayerIdAndGroupId@ConnectionGraph@@@DataStructures@@QAEXABUPlayerIdAndGroupId@ConnectionGraph@@@Z 10030b00 f i ConnectionGraph.obj
 0001:0002fe10       ?Remove@?$OrderedList@EE$1??$defaultOrderedListComparison@EE@DataStructures@@YAHABE0@Z@DataStructures@@QAEIABE@Z 10030e10 f i ConnectionGraph.obj
 0001:0002fed0       ?RemoveAndRelayConnection@ConnectionGraph@@IAE_NAAV?$OrderedList@UPlayerID@@U1@$1??$defaultOrderedListComparison@UPlayerID@@U1@@DataStructures@@YAHABU1@0@Z@DataStructures@@EUPlayerID@@1PAVRakPeerInterface@@@Z 10030ed0 f   ConnectionGraph.obj
 0001:00030110       ?RemoveAtIndex@?$List@E@DataStructures@@QAEXI@Z 10031110 f i ConnectionGraph.obj
 0001:000301b0       ?RemoveAtIndex@?$List@UMapNode@?$Map@UPlayerIdAndGroupId@ConnectionGraph@@G$1??$defaultMapKeyComparison@UPlayerIdAndGroupId@ConnectionGraph@@@DataStructures@@YAHABU12@0@Z@DataStructures@@@DataStructures@@QAEXI@Z 100311b0 f i ConnectionGraph.obj
 0001:00030250       ?RemoveAtIndex@?$List@UMapNode@?$Map@UPlayerIdAndGroupId@ConnectionGraph@@PAV?$Map@UPlayerIdAndGroupId@ConnectionGraph@@G$1??$defaultMapKeyComparison@UPlayerIdAndGroupId@ConnectionGraph@@@DataStructures@@YAHABU12@0@Z@DataStructures@@$1??$defaultMapKeyComparison@UPlayerIdAndGroupId@ConnectionGraph@@@4@YAHABU12@0@Z@DataStructures@@@DataStructures@@QAEXI@Z 10031250 f i ConnectionGraph.obj
 0001:000302f0       ?RemoveAtIndex@?$List@UPlayerID@@@DataStructures@@QAEXI@Z 100312f0 f i ConnectionGraph.obj
 0001:00030390       ?RemoveAtIndex@?$OrderedList@UPlayerID@@U1@$1??$defaultOrderedListComparison@UPlayerID@@U1@@DataStructures@@YAHABU1@0@Z@DataStructures@@QAEXI@Z 10031390 f i ConnectionGraph.obj
 0001:000303e0       ?RemoveAtIndex@?$OrderedList@UPlayerIdAndGroupId@ConnectionGraph@@UMapNode@?$Map@UPlayerIdAndGroupId@ConnectionGraph@@G$1??$defaultMapKeyComparison@UPlayerIdAndGroupId@ConnectionGraph@@@DataStructures@@YAHABU12@0@Z@DataStructures@@$1?NodeComparisonFunc@45@SAHABU12@ABU345@@Z@DataStructures@@QAEXI@Z 100313e0 f i ConnectionGraph.obj
 0001:00030430       ?RemoveAtIndex@?$OrderedList@UPlayerIdAndGroupId@ConnectionGraph@@UMapNode@?$Map@UPlayerIdAndGroupId@ConnectionGraph@@PAV?$Map@UPlayerIdAndGroupId@ConnectionGraph@@G$1??$defaultMapKeyComparison@UPlayerIdAndGroupId@ConnectionGraph@@@DataStructures@@YAHABU12@0@Z@DataStructures@@$1??$defaultMapKeyComparison@UPlayerIdAndGroupId@ConnectionGraph@@@4@YAHABU12@0@Z@DataStructures@@$1?NodeComparisonFunc@45@SAHABU12@ABU345@@Z@DataStructures@@QAEXI@Z 10031430 f i ConnectionGraph.obj
 0001:00030480       ?RemoveConnection@?$WeightedGraph@UPlayerIdAndGroupId@ConnectionGraph@@G$0A@@DataStructures@@QAEXABUPlayerIdAndGroupId@ConnectionGraph@@0@Z 10031480 f i ConnectionGraph.obj
 0001:00030560       ?RemoveNode@?$WeightedGraph@UPlayerIdAndGroupId@ConnectionGraph@@G$0A@@DataStructures@@QAEXABUPlayerIdAndGroupId@ConnectionGraph@@@Z 10031560 f i ConnectionGraph.obj
 0001:00030770       ?RemoveParticipant@ConnectionGraph@@IAEXUPlayerID@@@Z 10031770 f   ConnectionGraph.obj
 0001:00030810       ?RequestConnectionGraph@ConnectionGraph@@QAEXPAVRakPeerInterface@@UPlayerID@@@Z 10031810 f   ConnectionGraph.obj
 0001:00030940       ?SaveLastSearch@?$Map@UPlayerIdAndGroupId@ConnectionGraph@@G$1??$defaultMapKeyComparison@UPlayerIdAndGroupId@ConnectionGraph@@@DataStructures@@YAHABU12@0@Z@DataStructures@@IAEXABUPlayerIdAndGroupId@ConnectionGraph@@I@Z 10031940 f i ConnectionGraph.obj
 0001:000309a0       ?SaveLastSearch@?$Map@UPlayerIdAndGroupId@ConnectionGraph@@PAV?$Map@UPlayerIdAndGroupId@ConnectionGraph@@G$1??$defaultMapKeyComparison@UPlayerIdAndGroupId@ConnectionGraph@@@DataStructures@@YAHABU12@0@Z@DataStructures@@$1??$defaultMapKeyComparison@UPlayerIdAndGroupId@ConnectionGraph@@@4@YAHABU12@0@Z@DataStructures@@IAEXABUPlayerIdAndGroupId@ConnectionGraph@@I@Z 100319a0 f i ConnectionGraph.obj
 0001:00030a00       ?SerializeIgnoreListAndBroadcast@ConnectionGraph@@IAEXPAVBitStream@RakNet@@AAV?$OrderedList@UPlayerID@@U1@$1??$defaultOrderedListComparison@UPlayerID@@U1@@DataStructures@@YAHABU1@0@Z@DataStructures@@PAVRakPeerInterface@@@Z 10031a00 f   ConnectionGraph.obj
 0001:00030cc0       ?SerializeWeightedGraph@ConnectionGraph@@IBEXPAVBitStream@RakNet@@ABV?$WeightedGraph@UPlayerIdAndGroupId@ConnectionGraph@@G$0A@@DataStructures@@@Z 10031cc0 f   ConnectionGraph.obj
 0001:00030f50       ?Set@?$Map@UPlayerIdAndGroupId@ConnectionGraph@@G$1??$defaultMapKeyComparison@UPlayerIdAndGroupId@ConnectionGraph@@@DataStructures@@YAHABU12@0@Z@DataStructures@@QAEXABUPlayerIdAndGroupId@ConnectionGraph@@ABG@Z 10031f50 f i ConnectionGraph.obj
 0001:000310e0       ?SetAutoAddNewConnections@ConnectionGraph@@QAEX_N@Z 100320e0 f   ConnectionGraph.obj
 0001:00031120       ?SetGroupId@ConnectionGraph@@QAEXE@Z 10032120 f   ConnectionGraph.obj
 0001:00031160       ?SetNew@?$Map@UPlayerIdAndGroupId@ConnectionGraph@@PAV?$Map@UPlayerIdAndGroupId@ConnectionGraph@@G$1??$defaultMapKeyComparison@UPlayerIdAndGroupId@ConnectionGraph@@@DataStructures@@YAHABU12@0@Z@DataStructures@@$1??$defaultMapKeyComparison@UPlayerIdAndGroupId@ConnectionGraph@@@4@YAHABU12@0@Z@DataStructures@@QAEXABUPlayerIdAndGroupId@ConnectionGraph@@ABQAV?$Map@UPlayerIdAndGroupId@ConnectionGraph@@G$1??$defaultMapKeyComparison@UPlayerIdAndGroupId@ConnectionGraph@@@DataStructures@@YAHABU12@0@Z@2@@Z 10032160 f i ConnectionGraph.obj
 0001:000312a0       ?SetPassword@ConnectionGraph@@QAEXPBD@Z 100322a0 f   ConnectionGraph.obj
 0001:00031390       ?Size@?$List@E@DataStructures@@QBEIXZ 10032390 f i ConnectionGraph.obj
 0001:000313c0       ?Size@?$List@UMapNode@?$Map@UPlayerIdAndGroupId@ConnectionGraph@@G$1??$defaultMapKeyComparison@UPlayerIdAndGroupId@ConnectionGraph@@@DataStructures@@YAHABU12@0@Z@DataStructures@@@DataStructures@@QBEIXZ 100323c0 f i ConnectionGraph.obj
 0001:000313f0       ?Size@?$List@UMapNode@?$Map@UPlayerIdAndGroupId@ConnectionGraph@@PAV?$Map@UPlayerIdAndGroupId@ConnectionGraph@@G$1??$defaultMapKeyComparison@UPlayerIdAndGroupId@ConnectionGraph@@@DataStructures@@YAHABU12@0@Z@DataStructures@@$1??$defaultMapKeyComparison@UPlayerIdAndGroupId@ConnectionGraph@@@4@YAHABU12@0@Z@DataStructures@@@DataStructures@@QBEIXZ 100323f0 f i ConnectionGraph.obj
 0001:00031420       ?Size@?$List@UPlayerID@@@DataStructures@@QBEIXZ 10032420 f i ConnectionGraph.obj
 0001:00031450       ?Size@?$Map@UPlayerIdAndGroupId@ConnectionGraph@@G$1??$defaultMapKeyComparison@UPlayerIdAndGroupId@ConnectionGraph@@@DataStructures@@YAHABU12@0@Z@DataStructures@@QBEIXZ 10032450 f i ConnectionGraph.obj
 0001:00031490       ?Size@?$Map@UPlayerIdAndGroupId@ConnectionGraph@@PAV?$Map@UPlayerIdAndGroupId@ConnectionGraph@@G$1??$defaultMapKeyComparison@UPlayerIdAndGroupId@ConnectionGraph@@@DataStructures@@YAHABU12@0@Z@DataStructures@@$1??$defaultMapKeyComparison@UPlayerIdAndGroupId@ConnectionGraph@@@4@YAHABU12@0@Z@DataStructures@@QBEIXZ 10032490 f i ConnectionGraph.obj
 0001:000314d0       ?Size@?$OrderedList@UPlayerID@@U1@$1??$defaultOrderedListComparison@UPlayerID@@U1@@DataStructures@@YAHABU1@0@Z@DataStructures@@QBEIXZ 100324d0 f i ConnectionGraph.obj
 0001:00031510       ?Size@?$OrderedList@UPlayerIdAndGroupId@ConnectionGraph@@UMapNode@?$Map@UPlayerIdAndGroupId@ConnectionGraph@@G$1??$defaultMapKeyComparison@UPlayerIdAndGroupId@ConnectionGraph@@@DataStructures@@YAHABU12@0@Z@DataStructures@@$1?NodeComparisonFunc@45@SAHABU12@ABU345@@Z@DataStructures@@QBEIXZ 10032510 f i ConnectionGraph.obj
 0001:00031550       ?Size@?$OrderedList@UPlayerIdAndGroupId@ConnectionGraph@@UMapNode@?$Map@UPlayerIdAndGroupId@ConnectionGraph@@PAV?$Map@UPlayerIdAndGroupId@ConnectionGraph@@G$1??$defaultMapKeyComparison@UPlayerIdAndGroupId@ConnectionGraph@@@DataStructures@@YAHABU12@0@Z@DataStructures@@$1??$defaultMapKeyComparison@UPlayerIdAndGroupId@ConnectionGraph@@@4@YAHABU12@0@Z@DataStructures@@$1?NodeComparisonFunc@45@SAHABU12@ABU345@@Z@DataStructures@@QBEIXZ 10032550 f i ConnectionGraph.obj
 0001:00031590       ?Size@?$Queue@UPlayerIdAndGroupId@ConnectionGraph@@@DataStructures@@QBEIXZ 10032590 f i ConnectionGraph.obj
 0001:000315f0       ?SubscribeToGroup@ConnectionGraph@@QAEXE@Z 100325f0 f   ConnectionGraph.obj
 0001:00031640       ?UnsubscribeFromGroup@ConnectionGraph@@QAEXE@Z 10032640 f   ConnectionGraph.obj
 0001:00031690       ?Update@ConnectionGraph@@UAEXPAVRakPeerInterface@@@Z 10032690 f   ConnectionGraph.obj
 0001:000316c0       ??0?$List@PAVCommandParserInterface@@@DataStructures@@QAE@XZ 100326c0 f i ConsoleServer.obj
 0001:00031710       ??0ConsoleServer@@QAE@XZ   10032710 f   ConsoleServer.obj
 0001:00031780       ??1?$List@PAVCommandParserInterface@@@DataStructures@@QAE@XZ 10032780 f i ConsoleServer.obj
 0001:000317e0       ??1ConsoleServer@@QAE@XZ   100327e0 f   ConsoleServer.obj
 0001:00031830       ??A?$List@PAVCommandParserInterface@@@DataStructures@@QBEAAPAVCommandParserInterface@@I@Z 10032830 f i ConsoleServer.obj
 0001:000318a0       ?AddCommandParser@ConsoleServer@@QAEXPAVCommandParserInterface@@@Z 100328a0 f   ConsoleServer.obj
 0001:000319e0       ?Del@?$List@PAVCommandParserInterface@@@DataStructures@@QAEXI@Z 100329e0 f i ConsoleServer.obj
 0001:00031a50       ?Insert@?$List@PAVCommandParserInterface@@@DataStructures@@QAEXQAVCommandParserInterface@@@Z 10032a50 f i ConsoleServer.obj
 0001:00031b50       ?ListParsers@ConsoleServer@@IAEXUPlayerID@@@Z 10032b50 f   ConsoleServer.obj
 0001:00031c60       ?RemoveCommandParser@ConsoleServer@@QAEXPAVCommandParserInterface@@@Z 10032c60 f   ConsoleServer.obj
 0001:00031d20       ?SetTransportProvider@ConsoleServer@@QAEXPAVTransportInterface@@G@Z 10032d20 f   ConsoleServer.obj
 0001:00031e50       ?Size@?$List@PAVCommandParserInterface@@@DataStructures@@QBEIXZ 10032e50 f i ConsoleServer.obj
 0001:00031e80       ?Update@ConsoleServer@@QAEXXZ 10032e80 f   ConsoleServer.obj
 0001:00032de0       ??0CheckSum@@QAE@XZ        10033de0 f i DataBlockEncryptor.obj
 0001:00032e30       ??0DataBlockEncryptor@@QAE@XZ 10033e30 f   DataBlockEncryptor.obj
 0001:00032e70       ??1DataBlockEncryptor@@QAE@XZ 10033e70 f   DataBlockEncryptor.obj
 0001:00032ea0       ?Clear@CheckSum@@QAEXXZ    10033ea0 f i DataBlockEncryptor.obj
 0001:00032f00       ?Decrypt@DataBlockEncryptor@@QAE_NPAEH0PAH@Z 10033f00 f   DataBlockEncryptor.obj
 0001:000331b0       ?Encrypt@DataBlockEncryptor@@QAEXPAEH0PAH@Z 100341b0 f   DataBlockEncryptor.obj
 0001:000334a0       ?Get@CheckSum@@QAEIXZ      100344a0 f i DataBlockEncryptor.obj
 0001:000334d0       ?IsKeySet@DataBlockEncryptor@@QBE_NXZ 100344d0 f   DataBlockEncryptor.obj
 0001:00033510       ?SetKey@DataBlockEncryptor@@QAEXQBE@Z 10034510 f   DataBlockEncryptor.obj
 0001:000335a0       ?UnsetKey@DataBlockEncryptor@@QAEXXZ 100345a0 f   DataBlockEncryptor.obj
 0001:000335e0       ?Compress@DataCompressor@@SAXPAEIPAVBitStream@RakNet@@@Z 100345e0 f   DataCompressor.obj
 0001:00033830       ?DecompressAndAllocate@DataCompressor@@SAIPAVBitStream@RakNet@@PAPAE@Z 10034830 f   DataCompressor.obj
 0001:00033a90       ??0DDTCallback@@QAE@XZ     10034a90 f i DirectoryDeltaTransfer.obj
 0001:00033ae0       ??0DirectoryDeltaTransfer@@QAE@XZ 10034ae0 f   DirectoryDeltaTransfer.obj
 0001:00033c00       ??0FileListTransferCBInterface@@QAE@XZ 10034c00 f i DirectoryDeltaTransfer.obj
 0001:00033c40       ??1DirectoryDeltaTransfer@@QAE@XZ 10034c40 f   DirectoryDeltaTransfer.obj
 0001:00033cd0       ??_GFileList@@QAEPAXI@Z    10034cd0 f i DirectoryDeltaTransfer.obj
 0001:00033d30       ?AddUploadsFromSubdirectory@DirectoryDeltaTransfer@@QAEXPBD@Z 10034d30 f   DirectoryDeltaTransfer.obj
 0001:00033d90       ?ClearUploads@DirectoryDeltaTransfer@@QAEXXZ 10034d90 f   DirectoryDeltaTransfer.obj
 0001:00033de0       ?DownloadFromSubdirectory@DirectoryDeltaTransfer@@QAEGPBD0_NUPlayerID@@PAVFileListTransferCBInterface@@W4PacketPriority@@D@Z 10034de0 f   DirectoryDeltaTransfer.obj
 0001:00034190       ?GetNumberOfFilesForUpload@DirectoryDeltaTransfer@@QBEIXZ 10035190 f   DirectoryDeltaTransfer.obj
 0001:000341e0       ?OnAttach@DirectoryDeltaTransfer@@UAEXPAVRakPeerInterface@@@Z 100351e0 f   DirectoryDeltaTransfer.obj
 0001:00034220       ?OnDisconnect@DirectoryDeltaTransfer@@UAEXPAVRakPeerInterface@@@Z 10035220 f   DirectoryDeltaTransfer.obj
 0001:00034250       ?OnDownloadRequest@DirectoryDeltaTransfer@@IAEXPAVRakPeerInterface@@PAUPacket@@@Z 10035250 f   DirectoryDeltaTransfer.obj
 0001:00034540       ?OnFile@DDTCallback@@UAEXIPAD0IIGIIIE@Z 10035540 f i DirectoryDeltaTransfer.obj
 0001:000346b0       ?OnFileProgress@DDTCallback@@UAEXIPADIIGIIIEIII@Z 100356b0 f i DirectoryDeltaTransfer.obj
 0001:00034810       ?OnFileProgress@FileListTransferCBInterface@@UAEXIPADIIGIIIEIII@Z 10035810 f i DirectoryDeltaTransfer.obj
 0001:00034840       ?OnReceive@DirectoryDeltaTransfer@@UAE?AW4PluginReceiveResult@@PAVRakPeerInterface@@PAUPacket@@@Z 10035840 f   DirectoryDeltaTransfer.obj
 0001:000348c0       ?SetApplicationDirectory@DirectoryDeltaTransfer@@QAEXPBD@Z 100358c0 f   DirectoryDeltaTransfer.obj
 0001:000349a0       ?SetFileListTransferPlugin@DirectoryDeltaTransfer@@QAEXPAVFileListTransfer@@@Z 100359a0 f   DirectoryDeltaTransfer.obj
 0001:000349e0       ?SetUploadSendParameters@DirectoryDeltaTransfer@@QAEXW4PacketPriority@@D@Z 100359e0 f   DirectoryDeltaTransfer.obj
 0001:00034a30       ?Size@?$List@UFileListNode@@@DataStructures@@QBEIXZ 10035a30 f i DirectoryDeltaTransfer.obj
 0001:00034a60       ?Update@DirectoryDeltaTransfer@@UAEXPAVRakPeerInterface@@@Z 10035a60 f   DirectoryDeltaTransfer.obj
 0001:00034a90       ??0ByteQueue@DataStructures@@QAE@XZ 10035a90 f   DS_ByteQueue.obj
 0001:00034af0       ??1ByteQueue@DataStructures@@QAE@XZ 10035af0 f   DS_ByteQueue.obj
 0001:00034b30       ?Clear@ByteQueue@DataStructures@@QAEXXZ 10035b30 f   DS_ByteQueue.obj
 0001:00034bb0       ?GetBytesWritten@ByteQueue@DataStructures@@QBEIXZ 10035bb0 f   DS_ByteQueue.obj
 0001:00034c10       ?IncrementReadOffset@ByteQueue@DataStructures@@QAEXI@Z 10035c10 f   DS_ByteQueue.obj
 0001:00034c60       ?Print@ByteQueue@DataStructures@@QAEXXZ 10035c60 f   DS_ByteQueue.obj
 0001:00034ce0       ?ReadBytes@ByteQueue@DataStructures@@QAE_NPADI_N@Z 10035ce0 f   DS_ByteQueue.obj
 0001:00034dd0       ?WriteBytes@ByteQueue@DataStructures@@QAEXPBDI@Z 10035dd0 f   DS_ByteQueue.obj
 0001:00034fb0       ??0?$CircularLinkedList@PAUHuffmanEncodingTreeNode@@@DataStructures@@QAE@XZ 10035fb0 f i DS_HuffmanEncodingTree.obj
 0001:00035000       ??0?$LinkedList@PAUHuffmanEncodingTreeNode@@@DataStructures@@QAE@XZ 10036000 f i DS_HuffmanEncodingTree.obj
 0001:00035050       ??0?$Queue@PAUHuffmanEncodingTreeNode@@@DataStructures@@QAE@XZ 10036050 f i DS_HuffmanEncodingTree.obj
 0001:000350e0       ??0HuffmanEncodingTree@@QAE@XZ 100360e0 f   DS_HuffmanEncodingTree.obj
 0001:00035120       ??1?$CircularLinkedList@PAUHuffmanEncodingTreeNode@@@DataStructures@@QAE@XZ 10036120 f i DS_HuffmanEncodingTree.obj
 0001:00035160       ??1?$LinkedList@PAUHuffmanEncodingTreeNode@@@DataStructures@@QAE@XZ 10036160 f i DS_HuffmanEncodingTree.obj
 0001:000351e0       ??1?$Queue@PAUHuffmanEncodingTreeNode@@@DataStructures@@QAE@XZ 100361e0 f i DS_HuffmanEncodingTree.obj
 0001:00035240       ??1HuffmanEncodingTree@@QAE@XZ 10036240 f   DS_HuffmanEncodingTree.obj
 0001:00035280       ??E?$LinkedList@PAUHuffmanEncodingTreeNode@@@DataStructures@@QAEAAV01@XZ 10036280 f i DS_HuffmanEncodingTree.obj
 0001:000352e0       ?Add@?$CircularLinkedList@PAUHuffmanEncodingTreeNode@@@DataStructures@@QAEAAPAUHuffmanEncodingTreeNode@@ABQAU3@@Z 100362e0 f i DS_HuffmanEncodingTree.obj
 0001:00035490       ?Beginning@?$CircularLinkedList@PAUHuffmanEncodingTreeNode@@@DataStructures@@QAEXXZ 10036490 f i DS_HuffmanEncodingTree.obj
 0001:000354d0       ?Clear@?$CircularLinkedList@PAUHuffmanEncodingTreeNode@@@DataStructures@@QAEXXZ 100364d0 f i DS_HuffmanEncodingTree.obj
 0001:00035590       ?DecodeArray@HuffmanEncodingTree@@QAEIPAVBitStream@RakNet@@IIPAE@Z 10036590 f   DS_HuffmanEncodingTree.obj
 0001:00035660       ?DecodeArray@HuffmanEncodingTree@@QAEXPAEIPAVBitStream@RakNet@@@Z 10036660 f   DS_HuffmanEncodingTree.obj
 0001:000357c0       ?Del@?$CircularLinkedList@PAUHuffmanEncodingTreeNode@@@DataStructures@@QAEXXZ 100367c0 f i DS_HuffmanEncodingTree.obj
 0001:000358d0       ?EncodeArray@HuffmanEncodingTree@@QAEXPAEIPAVBitStream@RakNet@@@Z 100368d0 f   DS_HuffmanEncodingTree.obj
 0001:00035a10       ?End@?$CircularLinkedList@PAUHuffmanEncodingTreeNode@@@DataStructures@@QAEXXZ 10036a10 f i DS_HuffmanEncodingTree.obj
 0001:00035a60       ?FreeMemory@HuffmanEncodingTree@@QAEXXZ 10036a60 f   DS_HuffmanEncodingTree.obj
 0001:00035bd0       ?GenerateFromFrequencyTable@HuffmanEncodingTree@@QAEXQAI@Z 10036bd0 f   DS_HuffmanEncodingTree.obj
 0001:00036000       ?Insert@?$CircularLinkedList@PAUHuffmanEncodingTreeNode@@@DataStructures@@QAEXABQAUHuffmanEncodingTreeNode@@@Z 10037000 f i DS_HuffmanEncodingTree.obj
 0001:000361c0       ?InsertNodeIntoSortedList@HuffmanEncodingTree@@ABEXPAUHuffmanEncodingTreeNode@@PAV?$LinkedList@PAUHuffmanEncodingTreeNode@@@DataStructures@@@Z 100371c0 f   DS_HuffmanEncodingTree.obj
 0001:00036290       ?Peek@?$CircularLinkedList@PAUHuffmanEncodingTreeNode@@@DataStructures@@QAEAAPAUHuffmanEncodingTreeNode@@XZ 10037290 f i DS_HuffmanEncodingTree.obj
 0001:000362c0       ?Pop@?$CircularLinkedList@PAUHuffmanEncodingTreeNode@@@DataStructures@@QAEPAUHuffmanEncodingTreeNode@@XZ 100372c0 f i DS_HuffmanEncodingTree.obj
 0001:00036310       ?Pop@?$Queue@PAUHuffmanEncodingTreeNode@@@DataStructures@@QAEPAUHuffmanEncodingTreeNode@@XZ 10037310 f i DS_HuffmanEncodingTree.obj
 0001:000363e0       ?Push@?$Queue@PAUHuffmanEncodingTreeNode@@@DataStructures@@QAEXABQAUHuffmanEncodingTreeNode@@@Z 100373e0 f i DS_HuffmanEncodingTree.obj
 0001:000365a0       ?Size@?$CircularLinkedList@PAUHuffmanEncodingTreeNode@@@DataStructures@@QAEIXZ 100375a0 f i DS_HuffmanEncodingTree.obj
 0001:000365d0       ?Size@?$Queue@PAUHuffmanEncodingTreeNode@@@DataStructures@@QBEIXZ 100375d0 f i DS_HuffmanEncodingTree.obj
 0001:00036630       ??0?$BPlusTree@IPAURow@Table@DataStructures@@$0BA@@DataStructures@@QAE@XZ 10037630 f i DS_Table.obj
 0001:00036690       ??0?$List@I@DataStructures@@QAE@ABV01@@Z 10037690 f i DS_Table.obj
 0001:00036760       ??0?$List@I@DataStructures@@QAE@XZ 10037760 f i DS_Table.obj
 0001:000367b0       ??0?$List@PAU?$Page@IPAURow@Table@DataStructures@@$0BA@@DataStructures@@@DataStructures@@QAE@XZ 100377b0 f i DS_Table.obj
 0001:00036800       ??0?$List@PAUCell@Table@DataStructures@@@DataStructures@@QAE@XZ 10037800 f i DS_Table.obj
 0001:00036850       ??0?$List@PAURow@Table@DataStructures@@@DataStructures@@QAE@XZ 10037850 f i DS_Table.obj
 0001:000368a0       ??0?$List@UColumnDescriptor@Table@DataStructures@@@DataStructures@@QAE@XZ 100378a0 f i DS_Table.obj
 0001:000368f0       ??0?$MemoryPool@U?$Page@IPAURow@Table@DataStructures@@$0BA@@DataStructures@@@DataStructures@@QAE@XZ 100378f0 f i DS_Table.obj
 0001:00036940       ??0?$OrderedList@PAURow@Table@DataStructures@@PAU123@$1?RowSort@@YAHABQAU123@0@Z@DataStructures@@QAE@XZ 10037940 f i DS_Table.obj
 0001:00036990       ??0?$Queue@PAU?$Page@IPAURow@Table@DataStructures@@$0BA@@DataStructures@@@DataStructures@@QAE@XZ 10037990 f i DS_Table.obj
 0001:00036a20       ??0Cell@Table@DataStructures@@QAE@ABU012@@Z 10037a20 f   DS_Table.obj
 0001:00036ae0       ??0Cell@Table@DataStructures@@QAE@HPADW4ColumnType@12@@Z 10037ae0 f   DS_Table.obj
 0001:00036b60       ??0Cell@Table@DataStructures@@QAE@XZ 10037b60 f   DS_Table.obj
 0001:00036ba0       ??0ColumnDescriptor@Table@DataStructures@@QAE@QADW4ColumnType@12@@Z 10037ba0 f   DS_Table.obj
 0001:00036c00       ??0ColumnDescriptor@Table@DataStructures@@QAE@XZ 10037c00 f   DS_Table.obj
 0001:00036c30       ??0FilterQuery@Table@DataStructures@@QAE@IPAUCell@12@W4FilterQueryType@12@@Z 10037c30 f   DS_Table.obj
 0001:00036c80       ??0FilterQuery@Table@DataStructures@@QAE@XZ 10037c80 f   DS_Table.obj
 0001:00036cb0       ??0Row@Table@DataStructures@@QAE@XZ 10037cb0 f i DS_Table.obj
 0001:00036d00       ??0Table@DataStructures@@QAE@XZ 10037d00 f   DS_Table.obj
 0001:00036d90       ??1?$BPlusTree@IPAURow@Table@DataStructures@@$0BA@@DataStructures@@QAE@XZ 10037d90 f i DS_Table.obj
 0001:00036e10       ??1?$List@I@DataStructures@@QAE@XZ 10037e10 f i DS_Table.obj
 0001:00036e70       ??1?$List@PAU?$Page@IPAURow@Table@DataStructures@@$0BA@@DataStructures@@@DataStructures@@QAE@XZ 10037e70 f i DS_Table.obj
 0001:00036ed0       ??1?$List@PAUCell@Table@DataStructures@@@DataStructures@@QAE@XZ 10037ed0 f i DS_Table.obj
 0001:00036f30       ??1?$List@PAURow@Table@DataStructures@@@DataStructures@@QAE@XZ 10037f30 f i DS_Table.obj
 0001:00036f90       ??1?$List@UColumnDescriptor@Table@DataStructures@@@DataStructures@@QAE@XZ 10037f90 f i DS_Table.obj
 0001:00037010       ??1?$MemoryPool@U?$Page@IPAURow@Table@DataStructures@@$0BA@@DataStructures@@@DataStructures@@QAE@XZ 10038010 f i DS_Table.obj
 0001:000370f0       ??1?$OrderedList@PAURow@Table@DataStructures@@PAU123@$1?RowSort@@YAHABQAU123@0@Z@DataStructures@@QAE@XZ 100380f0 f i DS_Table.obj
 0001:00037170       ??1?$Queue@PAU?$Page@IPAURow@Table@DataStructures@@$0BA@@DataStructures@@@DataStructures@@QAE@XZ 10038170 f i DS_Table.obj
 0001:000371d0       ??1Cell@Table@DataStructures@@QAE@XZ 100381d0 f   DS_Table.obj
 0001:00037210       ??1ColumnDescriptor@Table@DataStructures@@QAE@XZ 10038210 f   DS_Table.obj
 0001:00037240       ??1FilterQuery@Table@DataStructures@@QAE@XZ 10038240 f   DS_Table.obj
 0001:00037270       ??1Row@Table@DataStructures@@QAE@XZ 10038270 f i DS_Table.obj
 0001:000372b0       ??1Table@DataStructures@@QAE@XZ 100382b0 f   DS_Table.obj
 0001:00037340       ??4Cell@Table@DataStructures@@QAEAAU012@ABU012@@Z 10038340 f   DS_Table.obj
 0001:00037400       ??A?$List@I@DataStructures@@QBEAAII@Z 10038400 f i DS_Table.obj
 0001:00037470       ??A?$List@PAU?$Page@IPAURow@Table@DataStructures@@$0BA@@DataStructures@@@DataStructures@@QBEAAPAU?$Page@IPAURow@Table@DataStructures@@$0BA@@1@I@Z 10038470 f i DS_Table.obj
 0001:000374e0       ??A?$List@PAUCell@Table@DataStructures@@@DataStructures@@QBEAAPAUCell@Table@1@I@Z 100384e0 f i DS_Table.obj
 0001:00037550       ??A?$List@PAURow@Table@DataStructures@@@DataStructures@@QBEAAPAURow@Table@1@I@Z 10038550 f i DS_Table.obj
 0001:000375c0       ??A?$List@UCell@Table@DataStructures@@@DataStructures@@QBEAAUCell@Table@1@I@Z 100385c0 f i DS_Table.obj
 0001:00037630       ??A?$List@UColumnDescriptor@Table@DataStructures@@@DataStructures@@QBEAAUColumnDescriptor@Table@1@I@Z 10038630 f i DS_Table.obj
 0001:000376a0       ??A?$OrderedList@PAURow@Table@DataStructures@@PAU123@$1?RowSort@@YAHABQAU123@0@Z@DataStructures@@QBEAAPAURow@Table@1@I@Z 100386a0 f i DS_Table.obj
 0001:000376f0       ??_EColumnDescriptor@Table@DataStructures@@QAEPAXI@Z 100386f0 f i DS_Table.obj
 0001:00037790       ??_GCell@Table@DataStructures@@QAEPAXI@Z 10038790 f i DS_Table.obj
 0001:000377f0       ??_GRow@Table@DataStructures@@QAEPAXI@Z 100387f0 f i DS_Table.obj
 0001:00037850       ?AddColumn@Table@DataStructures@@QAEIQADW4ColumnType@12@@Z 10038850 f   DS_Table.obj
 0001:00037950       ?AddRow@Table@DataStructures@@QAEPAURow@12@I@Z 10038950 f   DS_Table.obj
 0001:00037b20       ?AddRow@Table@DataStructures@@QAEPAURow@12@IAAV?$List@UCell@Table@DataStructures@@@2@@Z 10038b20 f   DS_Table.obj
 0001:00037d70       ?AddRowColumns@Table@DataStructures@@IAEPAURow@12@IPAU312@V?$List@I@2@@Z 10038d70 f   DS_Table.obj
 0001:00037fe0       ?Allocate@?$MemoryPool@U?$Page@IPAURow@Table@DataStructures@@$0BA@@DataStructures@@@DataStructures@@QAEPAU?$Page@IPAURow@Table@DataStructures@@$0BA@@2@XZ 10038fe0 f i DS_Table.obj
 0001:00038080       ?CanRotateLeft@?$BPlusTree@IPAURow@Table@DataStructures@@$0BA@@DataStructures@@IAE_NPAU?$Page@IPAURow@Table@DataStructures@@$0BA@@2@H@Z 10039080 f i DS_Table.obj
 0001:000380f0       ?CanRotateRight@?$BPlusTree@IPAURow@Table@DataStructures@@$0BA@@DataStructures@@IAE_NPAU?$Page@IPAURow@Table@DataStructures@@$0BA@@2@H@Z 100390f0 f i DS_Table.obj
 0001:00038160       ?Clear@?$BPlusTree@IPAURow@Table@DataStructures@@$0BA@@DataStructures@@QAEXXZ 10039160 f i DS_Table.obj
 0001:000381c0       ?Clear@?$List@PAURow@Table@DataStructures@@@DataStructures@@QAEX_N@Z 100391c0 f i DS_Table.obj
 0001:00038250       ?Clear@?$List@UColumnDescriptor@Table@DataStructures@@@DataStructures@@QAEX_N@Z 10039250 f i DS_Table.obj
 0001:00038310       ?Clear@?$OrderedList@PAURow@Table@DataStructures@@PAU123@$1?RowSort@@YAHABQAU123@0@Z@DataStructures@@QAEXXZ 10039310 f i DS_Table.obj
 0001:00038360       ?Clear@Cell@Table@DataStructures@@QAEXXZ 10039360 f   DS_Table.obj
 0001:000383d0       ?Clear@Table@DataStructures@@QAEXXZ 100393d0 f   DS_Table.obj
 0001:00038430       ?ColumnIndex@Table@DataStructures@@QAEIQAD@Z 10039430 f   DS_Table.obj
 0001:000384c0       ?ColumnName@Table@DataStructures@@QAEPADI@Z 100394c0 f   DS_Table.obj
 0001:00038520       ?Del@?$List@PAU?$Page@IPAURow@Table@DataStructures@@$0BA@@DataStructures@@@DataStructures@@QAEXI@Z 10039520 f i DS_Table.obj
 0001:00038590       ?Del@?$List@PAUCell@Table@DataStructures@@@DataStructures@@QAEXI@Z 10039590 f i DS_Table.obj
 0001:00038600       ?Del@?$List@UColumnDescriptor@Table@DataStructures@@@DataStructures@@QAEXI@Z 10039600 f i DS_Table.obj
 0001:00038670       ?Delete@?$BPlusTree@IPAURow@Table@DataStructures@@$0BA@@DataStructures@@QAE_NI@Z 10039670 f i DS_Table.obj
 0001:000386f0       ?Delete@?$BPlusTree@IPAURow@Table@DataStructures@@$0BA@@DataStructures@@QAE_NIAAPAURow@Table@2@@Z 100396f0 f i DS_Table.obj
 0001:00038900       ?DeleteFromPageAtIndex@?$BPlusTree@IPAURow@Table@DataStructures@@$0BA@@DataStructures@@IAEXHPAU?$Page@IPAURow@Table@DataStructures@@$0BA@@2@@Z 10039900 f i DS_Table.obj
 0001:000389f0       ?DeleteRow@Table@DataStructures@@IAEXPAURow@12@@Z 100399f0 f   DS_Table.obj
 0001:00038ad0       ?ExtendRows@@YAXPAURow@Table@DataStructures@@H@Z 10039ad0 f   DS_Table.obj
 0001:00038b90       ?FindDeleteRebalance@?$BPlusTree@IPAURow@Table@DataStructures@@$0BA@@DataStructures@@IAE_NIPAU?$Page@IPAURow@Table@DataStructures@@$0BA@@2@PA_NIPAUReturnAction@12@AAPAURow@Table@2@@Z 10039b90 f i DS_Table.obj
 0001:00038e30       ?FixUnderflow@?$BPlusTree@IPAURow@Table@DataStructures@@$0BA@@DataStructures@@IAE_NHPAU?$Page@IPAURow@Table@DataStructures@@$0BA@@2@IPAUReturnAction@12@@Z 10039e30 f i DS_Table.obj
 0001:00039390       ?ForEachData@?$BPlusTree@IPAURow@Table@DataStructures@@$0BA@@DataStructures@@QAEXP6AXPAURow@Table@2@H@Z@Z 1003a390 f i DS_Table.obj
 0001:00039450       ?FreePages@?$BPlusTree@IPAURow@Table@DataStructures@@$0BA@@DataStructures@@IAEXXZ 1003a450 f i DS_Table.obj
 0001:00039590       ?FreeRow@@YAXPAURow@Table@DataStructures@@H@Z 1003a590 f   DS_Table.obj
 0001:00039670       ?Get@?$BPlusTree@IPAURow@Table@DataStructures@@$0BA@@DataStructures@@QBE_NIAAPAURow@Table@2@@Z 1003a670 f i DS_Table.obj
 0001:00039730       ?Get@Cell@Table@DataStructures@@QAEXPAD@Z 1003a730 f   DS_Table.obj
 0001:000397b0       ?Get@Cell@Table@DataStructures@@QAEXPADPAH@Z 1003a7b0 f   DS_Table.obj
 0001:00039840       ?Get@Cell@Table@DataStructures@@QAEXPAH@Z 1003a840 f   DS_Table.obj
 0001:000398b0       ?GetColumnCount@Table@DataStructures@@QBEIXZ 1003a8b0 f   DS_Table.obj
 0001:00039900       ?GetColumnType@Table@DataStructures@@QAE?AW4ColumnType@12@I@Z 1003a900 f   DS_Table.obj
 0001:00039970       ?GetColumns@Table@DataStructures@@QAEAAV?$List@UColumnDescriptor@Table@DataStructures@@@2@XZ 1003a970 f   DS_Table.obj
 0001:000399a0       ?GetIndexFromKey@?$OrderedList@PAURow@Table@DataStructures@@PAU123@$1?RowSort@@YAHABQAU123@0@Z@DataStructures@@QBEIABQAURow@Table@2@PA_N@Z 1003a9a0 f i DS_Table.obj
 0001:00039a90       ?GetIndexOf@?$BPlusTree@IPAURow@Table@DataStructures@@$0BA@@DataStructures@@IBE_NIPAU?$Page@IPAURow@Table@DataStructures@@$0BA@@2@PAH@Z 1003aa90 f i DS_Table.obj
 0001:00039b80       ?GetLeafFromKey@?$BPlusTree@IPAURow@Table@DataStructures@@$0BA@@DataStructures@@IBEPAU?$Page@IPAURow@Table@DataStructures@@$0BA@@2@I@Z 1003ab80 f i DS_Table.obj
 0001:00039c40       ?GetListHead@?$BPlusTree@IPAURow@Table@DataStructures@@$0BA@@DataStructures@@QBEPAU?$Page@IPAURow@Table@DataStructures@@$0BA@@2@XZ 1003ac40 f i DS_Table.obj
 0001:00039c70       ?GetListHead@Table@DataStructures@@QAEPAU?$Page@IPAURow@Table@DataStructures@@$0BA@@2@XZ 1003ac70 f   DS_Table.obj
 0001:00039cb0       ?GetRowByID@Table@DataStructures@@QAEPAURow@12@I@Z 1003acb0 f   DS_Table.obj
 0001:00039d30       ?GetRowByIndex@Table@DataStructures@@QAEPAURow@12@I@Z 1003ad30 f   DS_Table.obj
 0001:00039dc0       ?GetRowCount@Table@DataStructures@@QBEIXZ 1003adc0 f   DS_Table.obj
 0001:00039e00       ?GetRows@Table@DataStructures@@QAEAAV?$BPlusTree@IPAURow@Table@DataStructures@@$0BA@@2@XZ 1003ae00 f   DS_Table.obj
 0001:00039e30       ?Insert@?$BPlusTree@IPAURow@Table@DataStructures@@$0BA@@DataStructures@@QAE_NIABQAURow@Table@2@@Z 1003ae30 f i DS_Table.obj
 0001:0003a050       ?Insert@?$List@I@DataStructures@@QAEXI@Z 1003b050 f i DS_Table.obj
 0001:0003a150       ?Insert@?$List@PAU?$Page@IPAURow@Table@DataStructures@@$0BA@@DataStructures@@@DataStructures@@QAEXQAU?$Page@IPAURow@Table@DataStructures@@$0BA@@2@@Z 1003b150 f i DS_Table.obj
 0001:0003a250       ?Insert@?$List@PAUCell@Table@DataStructures@@@DataStructures@@QAEXQAUCell@Table@2@@Z 1003b250 f i DS_Table.obj
 0001:0003a350       ?Insert@?$List@PAURow@Table@DataStructures@@@DataStructures@@QAEXQAURow@Table@2@@Z 1003b350 f i DS_Table.obj
 0001:0003a450       ?Insert@?$List@PAURow@Table@DataStructures@@@DataStructures@@QAEXQAURow@Table@2@I@Z 1003b450 f i DS_Table.obj
 0001:0003a5a0       ?Insert@?$List@UColumnDescriptor@Table@DataStructures@@@DataStructures@@QAEXUColumnDescriptor@Table@2@@Z 1003b5a0 f i DS_Table.obj
 0001:0003a790       ?Insert@?$OrderedList@PAURow@Table@DataStructures@@PAU123@$1?RowSort@@YAHABQAU123@0@Z@DataStructures@@QAEIABQAURow@Table@2@0@Z 1003b790 f i DS_Table.obj
 0001:0003a860       ?InsertBranchDown@?$BPlusTree@IPAURow@Table@DataStructures@@$0BA@@DataStructures@@IAEPAU?$Page@IPAURow@Table@DataStructures@@$0BA@@2@IABQAURow@Table@2@PAU32@PAUReturnAction@12@PA_N@Z 1003b860 f i DS_Table.obj
 0001:0003ad50       ?InsertIntoNode@?$BPlusTree@IPAURow@Table@DataStructures@@$0BA@@DataStructures@@IAEPAU?$Page@IPAURow@Table@DataStructures@@$0BA@@2@IABQAURow@Table@2@HPAU32@1PAUReturnAction@12@@Z 1003bd50 f i DS_Table.obj
 0001:0003b2b0       ?Pop@?$Queue@PAU?$Page@IPAURow@Table@DataStructures@@$0BA@@DataStructures@@@DataStructures@@QAEPAU?$Page@IPAURow@Table@DataStructures@@$0BA@@2@XZ 1003c2b0 f i DS_Table.obj
 0001:0003b380       ?PrintRow@Table@DataStructures@@QAEXPADHD_NPAURow@12@@Z 1003c380 f   DS_Table.obj
 0001:0003b7a0       ?Push@?$Queue@PAU?$Page@IPAURow@Table@DataStructures@@$0BA@@DataStructures@@@DataStructures@@QAEXABQAU?$Page@IPAURow@Table@DataStructures@@$0BA@@2@@Z 1003c7a0 f i DS_Table.obj
 0001:0003b960       ?QueryRow@Table@DataStructures@@IAEXAAV?$List@I@2@0IPAURow@12@PAUFilterQuery@12@PAV12@@Z 1003c960 f   DS_Table.obj
 0001:0003bfd0       ?QueryTable@Table@DataStructures@@QAEXPAIIPAUFilterQuery@12@I0IPAV12@@Z 1003cfd0 f   DS_Table.obj
 0001:0003c340       ?Release@?$MemoryPool@U?$Page@IPAURow@Table@DataStructures@@$0BA@@DataStructures@@@DataStructures@@QAEXPAU?$Page@IPAURow@Table@DataStructures@@$0BA@@2@@Z 1003d340 f i DS_Table.obj
 0001:0003c3c0       ?RemoveAtIndex@?$List@PAUCell@Table@DataStructures@@@DataStructures@@QAEXI@Z 1003d3c0 f i DS_Table.obj
 0001:0003c470       ?RemoveAtIndex@?$List@UColumnDescriptor@Table@DataStructures@@@DataStructures@@QAEXI@Z 1003d470 f i DS_Table.obj
 0001:0003c510       ?RemoveColumn@Table@DataStructures@@QAEXI@Z 1003d510 f   DS_Table.obj
 0001:0003c620       ?RemoveRow@Table@DataStructures@@QAEXI@Z 1003d620 f   DS_Table.obj
 0001:0003c6b0       ?RemoveRows@Table@DataStructures@@QAEXPAV12@@Z 1003d6b0 f   DS_Table.obj
 0001:0003c750       ?RotateLeft@?$BPlusTree@IPAURow@Table@DataStructures@@$0BA@@DataStructures@@IAEXPAU?$Page@IPAURow@Table@DataStructures@@$0BA@@2@HPAUReturnAction@12@@Z 1003d750 f i DS_Table.obj
 0001:0003c880       ?RotateRight@?$BPlusTree@IPAURow@Table@DataStructures@@$0BA@@DataStructures@@IAEXPAU?$Page@IPAURow@Table@DataStructures@@$0BA@@2@HPAUReturnAction@12@@Z 1003d880 f i DS_Table.obj
 0001:0003c9b0       ?RowSort@@YAHABQAURow@Table@DataStructures@@0@Z 1003d9b0 f   DS_Table.obj
 0001:0003cc90       ?Set@Cell@Table@DataStructures@@QAEXH@Z 1003dc90 f   DS_Table.obj
 0001:0003cd10       ?Set@Cell@Table@DataStructures@@QAEXPAD@Z 1003dd10 f   DS_Table.obj
 0001:0003cdf0       ?Set@Cell@Table@DataStructures@@QAEXPADH@Z 1003ddf0 f   DS_Table.obj
 0001:0003ceb0       ?ShiftNodeLeft@?$BPlusTree@IPAURow@Table@DataStructures@@$0BA@@DataStructures@@IAEXPAU?$Page@IPAURow@Table@DataStructures@@$0BA@@2@@Z 1003deb0 f i DS_Table.obj
 0001:0003cfa0       ?ShiftNodeRight@?$BPlusTree@IPAURow@Table@DataStructures@@$0BA@@DataStructures@@IAEXPAU?$Page@IPAURow@Table@DataStructures@@$0BA@@2@@Z 1003dfa0 f i DS_Table.obj
 0001:0003d080       ?Size@?$BPlusTree@IPAURow@Table@DataStructures@@$0BA@@DataStructures@@QBEIXZ 1003e080 f i DS_Table.obj
 0001:0003d0f0       ?Size@?$List@I@DataStructures@@QBEIXZ 1003e0f0 f i DS_Table.obj
 0001:0003d120       ?Size@?$List@PAU?$Page@IPAURow@Table@DataStructures@@$0BA@@DataStructures@@@DataStructures@@QBEIXZ 1003e120 f i DS_Table.obj
 0001:0003d150       ?Size@?$List@PAUCell@Table@DataStructures@@@DataStructures@@QBEIXZ 1003e150 f i DS_Table.obj
 0001:0003d180       ?Size@?$List@PAURow@Table@DataStructures@@@DataStructures@@QBEIXZ 1003e180 f i DS_Table.obj
 0001:0003d1b0       ?Size@?$List@UCell@Table@DataStructures@@@DataStructures@@QBEIXZ 1003e1b0 f i DS_Table.obj
 0001:0003d1e0       ?Size@?$List@UColumnDescriptor@Table@DataStructures@@@DataStructures@@QBEIXZ 1003e1e0 f i DS_Table.obj
 0001:0003d210       ?Size@?$OrderedList@PAURow@Table@DataStructures@@PAU123@$1?RowSort@@YAHABQAU123@0@Z@DataStructures@@QBEIXZ 1003e210 f i DS_Table.obj
 0001:0003d250       ?Size@?$Queue@PAU?$Page@IPAURow@Table@DataStructures@@$0BA@@DataStructures@@@DataStructures@@QBEIXZ 1003e250 f i DS_Table.obj
 0001:0003d2b0       ?SortTable@Table@DataStructures@@QAEXPAUSortQuery@12@IPAPAURow@12@@Z 1003e2b0 f   DS_Table.obj
 0001:0003d550       ?UpdateCell@Row@Table@DataStructures@@QAEXIH@Z 1003e550 f   DS_Table.obj
 0001:0003d5c0       ?UpdateCell@Row@Table@DataStructures@@QAEXIHPAD@Z 1003e5c0 f   DS_Table.obj
 0001:0003d630       ?UpdateCell@Row@Table@DataStructures@@QAEXIPAD@Z 1003e630 f   DS_Table.obj
 0001:0003d6a0       ?UpdateCell@Table@DataStructures@@QAE_NIIH@Z 1003e6a0 f   DS_Table.obj
 0001:0003d740       ?UpdateCell@Table@DataStructures@@QAE_NIIHPAD@Z 1003e740 f   DS_Table.obj
 0001:0003d7e0       ?UpdateCell@Table@DataStructures@@QAE_NIIPAD@Z 1003e7e0 f   DS_Table.obj
 0001:0003d880       ??A?$List@UFileListNode@@@DataStructures@@QBEAAUFileListNode@@I@Z 1003e880 f i EmailSender.obj
 0001:0003d8f0       ?Base64Encoding@EmailSender@@QAEHPBDHPAD0@Z 1003e8f0 f   EmailSender.obj
 0001:0003dd70       ?GetResponse@EmailSender@@IAEPADPAVTCPInterface@@ABUPlayerID@@_N@Z 1003ed70 f   EmailSender.obj
 0001:0003dec0       ?Send@EmailSender@@QAEPADPBDG000000PAVFileList@@_N@Z 1003eec0 f   EmailSender.obj
 0001:0003efa0       ??$ReadCompressed@E@BitStream@RakNet@@QAE_NAAE@Z 1003ffa0 f i FileList.obj
 0001:0003f010       ??$WriteCompressed@E@BitStream@RakNet@@QAEXE@Z 10040010 f i FileList.obj
 0001:0003f080       ??0?$List@UFileListNode@@@DataStructures@@QAE@XZ 10040080 f i FileList.obj
 0001:0003f0d0       ??0?$Queue@PAD@DataStructures@@QAE@XZ 100400d0 f i FileList.obj
 0001:0003f160       ??0FileList@@QAE@XZ        10040160 f   FileList.obj
 0001:0003f1b0       ??1?$List@UFileListNode@@@DataStructures@@QAE@XZ 100401b0 f i FileList.obj
 0001:0003f210       ??1?$Queue@PAD@DataStructures@@QAE@XZ 10040210 f i FileList.obj
 0001:0003f270       ??1FileList@@QAE@XZ        10040270 f   FileList.obj
 0001:0003f2f0       ??A?$Queue@PAD@DataStructures@@QBEAAPADI@Z 100402f0 f i FileList.obj
 0001:0003f390       ?AddFile@FileList@@QAEXPBD0E@Z 10040390 f   FileList.obj
 0001:0003f530       ?AddFile@FileList@@QAEXPBD0IIE@Z 10040530 f   FileList.obj
 0001:0003f750       ?AddFilesFromDirectory@FileList@@QAEXPBD0_N11E@Z 10040750 f   FileList.obj
 0001:0003ff00       ?Clear@?$List@UFileListNode@@@DataStructures@@QAEX_N@Z 10040f00 f i FileList.obj
 0001:0003ff90       ?Clear@FileList@@QAEXXZ    10040f90 f   FileList.obj
 0001:00040040       ?Del@?$List@UFileListNode@@@DataStructures@@QAEXI@Z 10041040 f i FileList.obj
 0001:000400b0       ?DeleteFiles@FileList@@QAEXPBD@Z 100410b0 f   FileList.obj
 0001:00040250       ?Deserialize@FileList@@QAE_NPAVBitStream@RakNet@@@Z 10041250 f   FileList.obj
 0001:000405b0       ?GetDeltaToCurrent@FileList@@QAEXPAV1@0PBD1@Z 100415b0 f   FileList.obj
 0001:00040890       ?Insert@?$List@UFileListNode@@@DataStructures@@QAEXUFileListNode@@@Z 10041890 f i FileList.obj
 0001:000409b0       ?ListMissingOrChangedFiles@FileList@@QAEXPBDPAV1@_N2@Z 100419b0 f   FileList.obj
 0001:00040d40       ?Pop@?$Queue@PAD@DataStructures@@QAEPADXZ 10041d40 f i FileList.obj
 0001:00040e10       ?PopulateDataFromDisk@FileList@@QAEXPBD_N11@Z 10041e10 f   FileList.obj
 0001:00041390       ?Push@?$Queue@PAD@DataStructures@@QAEXABQAD@Z 10042390 f i FileList.obj
 0001:00041550       ?RemoveAtIndex@?$List@UFileListNode@@@DataStructures@@QAEXI@Z 10042550 f i FileList.obj
 0001:000415f0       ?Serialize@FileList@@QAEXPAVBitStream@RakNet@@@Z 100425f0 f   FileList.obj
 0001:000417d0       ?Size@?$Queue@PAD@DataStructures@@QBEIXZ 100427d0 f i FileList.obj
 0001:00041830       ?WriteDataToDisk@FileList@@QAEXPBD@Z 10042830 f   FileList.obj
 0001:00041a40       ??$defaultMapKeyComparison@G@DataStructures@@YAHABG0@Z 10042a40 f i FileListTransfer.obj
 0001:00041aa0       ??0?$List@UMapNode@?$Map@GPAUFileListReceiver@FileListTransfer@@$1??$defaultMapKeyComparison@G@DataStructures@@YAHABG0@Z@DataStructures@@@DataStructures@@QAE@XZ 10042aa0 f i FileListTransfer.obj
 0001:00041af0       ??0?$Map@GPAUFileListReceiver@FileListTransfer@@$1??$defaultMapKeyComparison@G@DataStructures@@YAHABG0@Z@DataStructures@@QAE@XZ 10042af0 f i FileListTransfer.obj
 0001:00041b40       ??0?$OrderedList@GUMapNode@?$Map@GPAUFileListReceiver@FileListTransfer@@$1??$defaultMapKeyComparison@G@DataStructures@@YAHABG0@Z@DataStructures@@$1?NodeComparisonFunc@23@SAHABGABU123@@Z@DataStructures@@QAE@XZ 10042b40 f i FileListTransfer.obj
 0001:00041b90       ??0?$Queue@UFileListNode@@@DataStructures@@QAE@XZ 10042b90 f i FileListTransfer.obj
 0001:00041c20       ??0FileListReceiver@FileListTransfer@@QAE@XZ 10042c20 f i FileListTransfer.obj
 0001:00041c70       ??0FileListTransfer@@QAE@XZ 10042c70 f   FileListTransfer.obj
 0001:00041d20       ??0MapNode@?$Map@GPAUFileListReceiver@FileListTransfer@@$1??$defaultMapKeyComparison@G@DataStructures@@YAHABG0@Z@DataStructures@@QAE@GPAUFileListReceiver@FileListTransfer@@@Z 10042d20 f i FileListTransfer.obj
 0001:00041d70       ??0MapNode@?$Map@GPAUFileListReceiver@FileListTransfer@@$1??$defaultMapKeyComparison@G@DataStructures@@YAHABG0@Z@DataStructures@@QAE@XZ 10042d70 f i FileListTransfer.obj
 0001:00041da0       ??1?$List@UMapNode@?$Map@GPAUFileListReceiver@FileListTransfer@@$1??$defaultMapKeyComparison@G@DataStructures@@YAHABG0@Z@DataStructures@@@DataStructures@@QAE@XZ 10042da0 f i FileListTransfer.obj
 0001:00041e00       ??1?$Map@GPAUFileListReceiver@FileListTransfer@@$1??$defaultMapKeyComparison@G@DataStructures@@YAHABG0@Z@DataStructures@@QAE@XZ 10042e00 f i FileListTransfer.obj
 0001:00041e80       ??1?$OrderedList@GUMapNode@?$Map@GPAUFileListReceiver@FileListTransfer@@$1??$defaultMapKeyComparison@G@DataStructures@@YAHABG0@Z@DataStructures@@$1?NodeComparisonFunc@23@SAHABGABU123@@Z@DataStructures@@QAE@XZ 10042e80 f i FileListTransfer.obj
 0001:00041f00       ??1?$Queue@UFileListNode@@@DataStructures@@QAE@XZ 10042f00 f i FileListTransfer.obj
 0001:00041f60       ??1FileListReceiver@FileListTransfer@@QAE@XZ 10042f60 f i FileListTransfer.obj
 0001:00041fb0       ??1FileListTransfer@@QAE@XZ 10042fb0 f   FileListTransfer.obj
 0001:00042040       ??A?$List@UMapNode@?$Map@GPAUFileListReceiver@FileListTransfer@@$1??$defaultMapKeyComparison@G@DataStructures@@YAHABG0@Z@DataStructures@@@DataStructures@@QBEAAUMapNode@?$Map@GPAUFileListReceiver@FileListTransfer@@$1??$defaultMapKeyComparison@G@DataStructures@@YAHABG0@Z@1@I@Z 10043040 f i FileListTransfer.obj
 0001:000420b0       ??A?$Map@GPAUFileListReceiver@FileListTransfer@@$1??$defaultMapKeyComparison@G@DataStructures@@YAHABG0@Z@DataStructures@@QBEAAPAUFileListReceiver@FileListTransfer@@I@Z 100430b0 f i FileListTransfer.obj
 0001:00042100       ??A?$OrderedList@GUMapNode@?$Map@GPAUFileListReceiver@FileListTransfer@@$1??$defaultMapKeyComparison@G@DataStructures@@YAHABG0@Z@DataStructures@@$1?NodeComparisonFunc@23@SAHABGABU123@@Z@DataStructures@@QBEAAUMapNode@?$Map@GPAUFileListReceiver@FileListTransfer@@$1??$defaultMapKeyComparison@G@DataStructures@@YAHABG0@Z@1@I@Z 10043100 f i FileListTransfer.obj
 0001:00042150       ??A?$Queue@UFileListNode@@@DataStructures@@QBEAAUFileListNode@@I@Z 10043150 f i FileListTransfer.obj
 0001:000421f0       ??_GFileListReceiver@FileListTransfer@@QAEPAXI@Z 100431f0 f i FileListTransfer.obj
 0001:00042250       ??_H@YGXPAXIHP6EPAX0@Z@Z   10043250 f i FileListTransfer.obj
 0001:000422b0       ?Clear@?$List@UMapNode@?$Map@GPAUFileListReceiver@FileListTransfer@@$1??$defaultMapKeyComparison@G@DataStructures@@YAHABG0@Z@DataStructures@@@DataStructures@@QAEX_N@Z 100432b0 f i FileListTransfer.obj
 0001:00042340       ?Clear@?$Map@GPAUFileListReceiver@FileListTransfer@@$1??$defaultMapKeyComparison@G@DataStructures@@YAHABG0@Z@DataStructures@@QAEXXZ 10043340 f i FileListTransfer.obj
 0001:00042390       ?Clear@?$OrderedList@GUMapNode@?$Map@GPAUFileListReceiver@FileListTransfer@@$1??$defaultMapKeyComparison@G@DataStructures@@YAHABG0@Z@DataStructures@@$1?NodeComparisonFunc@23@SAHABGABU123@@Z@DataStructures@@QAEXXZ 10043390 f i FileListTransfer.obj
 0001:000423e0       ?Clear@FileListTransfer@@IAEXXZ 100433e0 f   FileListTransfer.obj
 0001:000424e0       ?DecodeFile@FileListTransfer@@IAE_NPAUPacket@@_N@Z 100434e0 f   FileListTransfer.obj
 0001:00042b80       ?DecodeSetHeader@FileListTransfer@@IAE_NPAUPacket@@@Z 10043b80 f   FileListTransfer.obj
 0001:00042f90       ?Del@?$List@UMapNode@?$Map@GPAUFileListReceiver@FileListTransfer@@$1??$defaultMapKeyComparison@G@DataStructures@@YAHABG0@Z@DataStructures@@@DataStructures@@QAEXI@Z 10043f90 f i FileListTransfer.obj
 0001:00043000       ?Delete@?$Map@GPAUFileListReceiver@FileListTransfer@@$1??$defaultMapKeyComparison@G@DataStructures@@YAHABG0@Z@DataStructures@@QAE_NABG@Z 10044000 f i FileListTransfer.obj
 0001:000430e0       ?Get@?$Map@GPAUFileListReceiver@FileListTransfer@@$1??$defaultMapKeyComparison@G@DataStructures@@YAHABG0@Z@DataStructures@@QAEAAPAUFileListReceiver@FileListTransfer@@ABG@Z 100440e0 f i FileListTransfer.obj
 0001:000431d0       ?GetData@BitStream@RakNet@@QBEPAEXZ 100441d0 f i FileListTransfer.obj
 0001:00043200       ?GetIndexFromKey@?$OrderedList@GUMapNode@?$Map@GPAUFileListReceiver@FileListTransfer@@$1??$defaultMapKeyComparison@G@DataStructures@@YAHABG0@Z@DataStructures@@$1?NodeComparisonFunc@23@SAHABGABU123@@Z@DataStructures@@QBEIABGPA_N@Z 10044200 f i FileListTransfer.obj
 0001:000432f0       ?Has@?$Map@GPAUFileListReceiver@FileListTransfer@@$1??$defaultMapKeyComparison@G@DataStructures@@YAHABG0@Z@DataStructures@@QAE_NABG@Z 100442f0 f i FileListTransfer.obj
 0001:000433b0       ?HasSavedSearchResult@?$Map@GPAUFileListReceiver@FileListTransfer@@$1??$defaultMapKeyComparison@G@DataStructures@@YAHABG0@Z@DataStructures@@IBE_NABG@Z 100443b0 f i FileListTransfer.obj
 0001:00043430       ?IMPLEMENT_DEFAULT_COMPARISON@?$Map@GPAUFileListReceiver@FileListTransfer@@$1??$defaultMapKeyComparison@G@DataStructures@@YAHABG0@Z@DataStructures@@SAXXZ 10044430 f i FileListTransfer.obj
 0001:00043490       ?Insert@?$List@UMapNode@?$Map@GPAUFileListReceiver@FileListTransfer@@$1??$defaultMapKeyComparison@G@DataStructures@@YAHABG0@Z@DataStructures@@@DataStructures@@QAEXUMapNode@?$Map@GPAUFileListReceiver@FileListTransfer@@$1??$defaultMapKeyComparison@G@DataStructures@@YAHABG0@Z@2@@Z 10044490 f i FileListTransfer.obj
 0001:00043620       ?Insert@?$List@UMapNode@?$Map@GPAUFileListReceiver@FileListTransfer@@$1??$defaultMapKeyComparison@G@DataStructures@@YAHABG0@Z@DataStructures@@@DataStructures@@QAEXUMapNode@?$Map@GPAUFileListReceiver@FileListTransfer@@$1??$defaultMapKeyComparison@G@DataStructures@@YAHABG0@Z@2@I@Z 10044620 f i FileListTransfer.obj
 0001:00043800       ?Insert@?$OrderedList@GUMapNode@?$Map@GPAUFileListReceiver@FileListTransfer@@$1??$defaultMapKeyComparison@G@DataStructures@@YAHABG0@Z@DataStructures@@$1?NodeComparisonFunc@23@SAHABGABU123@@Z@DataStructures@@QAEIABGABUMapNode@?$Map@GPAUFileListReceiver@FileListTransfer@@$1??$defaultMapKeyComparison@G@DataStructures@@YAHABG0@Z@2@@Z 10044800 f i FileListTransfer.obj
 0001:000438f0       ?NodeComparisonFunc@?$Map@GPAUFileListReceiver@FileListTransfer@@$1??$defaultMapKeyComparison@G@DataStructures@@YAHABG0@Z@DataStructures@@SAHABGABUMapNode@12@@Z 100448f0 f i FileListTransfer.obj
 0001:00043940       ?OnAttach@FileListTransfer@@UAEXPAVRakPeerInterface@@@Z 10044940 f   FileListTransfer.obj
 0001:00043980       ?OnCloseConnection@FileListTransfer@@UAEXPAVRakPeerInterface@@UPlayerID@@@Z 10044980 f   FileListTransfer.obj
 0001:000439e0       ?OnDisconnect@FileListTransfer@@UAEXPAVRakPeerInterface@@@Z 100449e0 f   FileListTransfer.obj
 0001:00043a30       ?OnReceive@FileListTransfer@@UAE?AW4PluginReceiveResult@@PAVRakPeerInterface@@PAUPacket@@@Z 10044a30 f   FileListTransfer.obj
 0001:00043b80       ?Push@?$Queue@UFileListNode@@@DataStructures@@QAEXABUFileListNode@@@Z 10044b80 f i FileListTransfer.obj
 0001:00043d90       ?RemoveAtIndex@?$List@UMapNode@?$Map@GPAUFileListReceiver@FileListTransfer@@$1??$defaultMapKeyComparison@G@DataStructures@@YAHABG0@Z@DataStructures@@@DataStructures@@QAEXI@Z 10044d90 f i FileListTransfer.obj
 0001:00043e30       ?RemoveAtIndex@?$Map@GPAUFileListReceiver@FileListTransfer@@$1??$defaultMapKeyComparison@G@DataStructures@@YAHABG0@Z@DataStructures@@QAEXI@Z 10044e30 f i FileListTransfer.obj
 0001:00043e80       ?RemoveAtIndex@?$OrderedList@GUMapNode@?$Map@GPAUFileListReceiver@FileListTransfer@@$1??$defaultMapKeyComparison@G@DataStructures@@YAHABG0@Z@DataStructures@@$1?NodeComparisonFunc@23@SAHABGABU123@@Z@DataStructures@@QAEXI@Z 10044e80 f i FileListTransfer.obj
 0001:00043ed0       ?RemoveReceiver@FileListTransfer@@QAEXUPlayerID@@@Z 10044ed0 f   FileListTransfer.obj
 0001:00044000       ?SaveLastSearch@?$Map@GPAUFileListReceiver@FileListTransfer@@$1??$defaultMapKeyComparison@G@DataStructures@@YAHABG0@Z@DataStructures@@IAEXABGI@Z 10045000 f i FileListTransfer.obj
 0001:00044050       ?Send@FileListTransfer@@QAEXPAVFileList@@PAVRakPeerInterface@@UPlayerID@@GW4PacketPriority@@D_N@Z 10045050 f   FileListTransfer.obj
 0001:000447c0       ?Set@?$Map@GPAUFileListReceiver@FileListTransfer@@$1??$defaultMapKeyComparison@G@DataStructures@@YAHABG0@Z@DataStructures@@QAEXABGABQAUFileListReceiver@FileListTransfer@@@Z 100457c0 f i FileListTransfer.obj
 0001:000448d0       ?SetupReceive@FileListTransfer@@QAEGPAVFileListTransferCBInterface@@_NUPlayerID@@@Z 100458d0 f   FileListTransfer.obj
 0001:00044b40       ?Size@?$List@UMapNode@?$Map@GPAUFileListReceiver@FileListTransfer@@$1??$defaultMapKeyComparison@G@DataStructures@@YAHABG0@Z@DataStructures@@@DataStructures@@QBEIXZ 10045b40 f i FileListTransfer.obj
 0001:00044b70       ?Size@?$Map@GPAUFileListReceiver@FileListTransfer@@$1??$defaultMapKeyComparison@G@DataStructures@@YAHABG0@Z@DataStructures@@QBEIXZ 10045b70 f i FileListTransfer.obj
 0001:00044bb0       ?Size@?$OrderedList@GUMapNode@?$Map@GPAUFileListReceiver@FileListTransfer@@$1??$defaultMapKeyComparison@G@DataStructures@@YAHABG0@Z@DataStructures@@$1?NodeComparisonFunc@23@SAHABGABU123@@Z@DataStructures@@QBEIXZ 10045bb0 f i FileListTransfer.obj
 0001:00044bf0       ?Size@?$Queue@UFileListNode@@@DataStructures@@QBEIXZ 10045bf0 f i FileListTransfer.obj
 0001:00044c50       ?AddSlash@@YAXPAD@Z        10045c50 f   FileOperations.obj
 0001:00044cf0       ?DirectoryExists@@YA_NPBD@Z 10045cf0 f   FileOperations.obj
 0001:00044e00       ?IsSlash@@YA_NE@Z          10045e00 f   FileOperations.obj
 0001:00044e60       ?QuoteIfSpaces@@YAXPAD@Z   10045e60 f   FileOperations.obj
 0001:00044f20       ?WriteFileWithDirectories@@YA_NPBDPADI@Z 10045f20 f   FileOperations.obj
 0001:00045090       ??0FullyConnectedMesh@@QAE@XZ 10046090 f   FullyConnectedMesh.obj
 0001:000450f0       ??1FullyConnectedMesh@@UAE@XZ 100460f0 f   FullyConnectedMesh.obj
 0001:00045160       ??_EFullyConnectedMesh@@UAEPAXI@Z 10046160 f i FullyConnectedMesh.obj
 0001:00045160       ??_GFullyConnectedMesh@@UAEPAXI@Z 10046160 f i FullyConnectedMesh.obj
 0001:000451c0       ?Initialize@FullyConnectedMesh@@QAEXPBD@Z 100461c0 f   FullyConnectedMesh.obj
 0001:00045280       ?OnDisconnect@FullyConnectedMesh@@UAEXPAVRakPeerInterface@@@Z 10046280 f   FullyConnectedMesh.obj
 0001:000452b0       ?OnReceive@FullyConnectedMesh@@UAE?AW4PluginReceiveResult@@PAVRakPeerInterface@@PAUPacket@@@Z 100462b0 f   FullyConnectedMesh.obj
 0001:00045610       ?Update@FullyConnectedMesh@@UAEXPAVRakPeerInterface@@@Z 10046610 f   FullyConnectedMesh.obj
 0001:00045640       ?GetTime@RakNet@@YAIXZ     10046640 f   GetTime.obj
 0001:00045710       ?GetTimeNS@RakNet@@YA_JXZ  10046710 f   GetTime.obj
 0001:00045850       ??0?$Queue@PAUInternalPacket@@@DataStructures@@QAE@XZ 10046850 f i InternalPacketPool.obj
 0001:000458e0       ??0InternalPacketPool@@QAE@XZ 100468e0 f   InternalPacketPool.obj
 0001:000459b0       ??1?$Queue@PAUInternalPacket@@@DataStructures@@QAE@XZ 100469b0 f i InternalPacketPool.obj
 0001:00045a10       ??1InternalPacketPool@@QAE@XZ 10046a10 f   InternalPacketPool.obj
 0001:00045a90       ?ClearAndForceAllocation@?$Queue@PAUInternalPacket@@@DataStructures@@QAEXH@Z 10046a90 f i InternalPacketPool.obj
 0001:00045b30       ?ClearPool@InternalPacketPool@@QAEXXZ 10046b30 f   InternalPacketPool.obj
 0001:00045ba0       ?Pop@?$Queue@PAUInternalPacket@@@DataStructures@@QAEPAUInternalPacket@@XZ 10046ba0 f i InternalPacketPool.obj
 0001:00045c70       ?Push@?$Queue@PAUInternalPacket@@@DataStructures@@QAEXABQAUInternalPacket@@@Z 10046c70 f i InternalPacketPool.obj
 0001:00045e30       ?ReleasePointer@InternalPacketPool@@QAEXPAUInternalPacket@@@Z 10046e30 f   InternalPacketPool.obj
 0001:00045eb0       ?Size@?$Queue@PAUInternalPacket@@@DataStructures@@QBEIXZ 10046eb0 f i InternalPacketPool.obj
 0001:00045f10       ??$Write@PBD@BitStream@RakNet@@QAEXPBD@Z 10046f10 f i LightweightDatabaseClient.obj
 0001:00045f70       ??0LightweightDatabaseClient@@QAE@XZ 10046f70 f   LightweightDatabaseClient.obj
 0001:00045fd0       ??1LightweightDatabaseClient@@QAE@XZ 10046fd0 f   LightweightDatabaseClient.obj
 0001:00046010       ?OnAttach@LightweightDatabaseClient@@UAEXPAVRakPeerInterface@@@Z 10047010 f   LightweightDatabaseClient.obj
 0001:00046050       ?OnReceive@LightweightDatabaseClient@@UAE?AW4PluginReceiveResult@@PAVRakPeerInterface@@PAUPacket@@@Z 10047050 f   LightweightDatabaseClient.obj
 0001:00046090       ?QueryTable@LightweightDatabaseClient@@QAEXPBD0PAPBDEPAUDatabaseFilter@@EPAIEUPlayerID@@_N@Z 10047090 f   LightweightDatabaseClient.obj
 0001:00046330       ?RemoveRow@LightweightDatabaseClient@@QAEXPBD0IUPlayerID@@_N@Z 10047330 f   LightweightDatabaseClient.obj
 0001:000464e0       ?UpdateRow@LightweightDatabaseClient@@QAEXPBD0W4RowUpdateMode@@_NIPAUDatabaseCellUpdate@@EUPlayerID@@2@Z 100474e0 f   LightweightDatabaseClient.obj
 0001:00046720       ?Deserialize@DatabaseCellUpdate@@QAE_NPAVBitStream@RakNet@@@Z 10047720 f   LightweightDatabaseCommon.obj
 0001:000467d0       ?Deserialize@DatabaseFilter@@QAE_NPAVBitStream@RakNet@@@Z 100477d0 f   LightweightDatabaseCommon.obj
 0001:000468c0       ?Serialize@DatabaseCellUpdate@@QAEXPAVBitStream@RakNet@@@Z 100478c0 f   LightweightDatabaseCommon.obj
 0001:00046940       ?Serialize@DatabaseFilter@@QAEXPAVBitStream@RakNet@@@Z 10047940 f   LightweightDatabaseCommon.obj
 0001:00046a10       ??0?$List@UMapNode@?$Map@PADPAUDatabaseTable@LightweightDatabaseServer@@$1?DatabaseTableComp@2@SAHABQAD0@Z@DataStructures@@@DataStructures@@QAE@XZ 10047a10 f i LightweightDatabaseServer.obj
 0001:00046a60       ??0?$Map@PADPAUDatabaseTable@LightweightDatabaseServer@@$1?DatabaseTableComp@2@SAHABQAD0@Z@DataStructures@@QAE@XZ 10047a60 f i LightweightDatabaseServer.obj
 0001:00046ab0       ??0?$OrderedList@PADUMapNode@?$Map@PADPAUDatabaseTable@LightweightDatabaseServer@@$1?DatabaseTableComp@2@SAHABQAD0@Z@DataStructures@@$1?NodeComparisonFunc@23@SAHABQADABU123@@Z@DataStructures@@QAE@XZ 10047ab0 f i LightweightDatabaseServer.obj
 0001:00046b00       ??0DatabaseCellUpdate@@QAE@XZ 10047b00 f i LightweightDatabaseServer.obj
 0001:00046b50       ??0DatabaseFilter@@QAE@XZ  10047b50 f i LightweightDatabaseServer.obj
 0001:00046ba0       ??0DatabaseTable@LightweightDatabaseServer@@QAE@XZ 10047ba0 f i LightweightDatabaseServer.obj
 0001:00046bf0       ??0LightweightDatabaseServer@@QAE@XZ 10047bf0 f   LightweightDatabaseServer.obj
 0001:00046c50       ??0MapNode@?$Map@PADPAUDatabaseTable@LightweightDatabaseServer@@$1?DatabaseTableComp@2@SAHABQAD0@Z@DataStructures@@QAE@PADPAUDatabaseTable@LightweightDatabaseServer@@@Z 10047c50 f i LightweightDatabaseServer.obj
 0001:00046c90       ??0MapNode@?$Map@PADPAUDatabaseTable@LightweightDatabaseServer@@$1?DatabaseTableComp@2@SAHABQAD0@Z@DataStructures@@QAE@XZ 10047c90 f i LightweightDatabaseServer.obj
 0001:00046cc0       ??1?$List@UMapNode@?$Map@PADPAUDatabaseTable@LightweightDatabaseServer@@$1?DatabaseTableComp@2@SAHABQAD0@Z@DataStructures@@@DataStructures@@QAE@XZ 10047cc0 f i LightweightDatabaseServer.obj
 0001:00046d20       ??1?$Map@PADPAUDatabaseTable@LightweightDatabaseServer@@$1?DatabaseTableComp@2@SAHABQAD0@Z@DataStructures@@QAE@XZ 10047d20 f i LightweightDatabaseServer.obj
 0001:00046da0       ??1?$OrderedList@PADUMapNode@?$Map@PADPAUDatabaseTable@LightweightDatabaseServer@@$1?DatabaseTableComp@2@SAHABQAD0@Z@DataStructures@@$1?NodeComparisonFunc@23@SAHABQADABU123@@Z@DataStructures@@QAE@XZ 10047da0 f i LightweightDatabaseServer.obj
 0001:00046e20       ??1DatabaseCellUpdate@@QAE@XZ 10047e20 f i LightweightDatabaseServer.obj
 0001:00046e60       ??1DatabaseFilter@@QAE@XZ  10047e60 f i LightweightDatabaseServer.obj
 0001:00046ea0       ??1DatabaseTable@LightweightDatabaseServer@@QAE@XZ 10047ea0 f i LightweightDatabaseServer.obj
 0001:00046ef0       ??1LightweightDatabaseServer@@QAE@XZ 10047ef0 f   LightweightDatabaseServer.obj
 0001:00046f80       ??A?$List@UMapNode@?$Map@PADPAUDatabaseTable@LightweightDatabaseServer@@$1?DatabaseTableComp@2@SAHABQAD0@Z@DataStructures@@@DataStructures@@QBEAAUMapNode@?$Map@PADPAUDatabaseTable@LightweightDatabaseServer@@$1?DatabaseTableComp@2@SAHABQAD0@Z@1@I@Z 10047f80 f i LightweightDatabaseServer.obj
 0001:00046ff0       ??A?$Map@PADPAUDatabaseTable@LightweightDatabaseServer@@$1?DatabaseTableComp@2@SAHABQAD0@Z@DataStructures@@QBEAAPAUDatabaseTable@LightweightDatabaseServer@@I@Z 10047ff0 f i LightweightDatabaseServer.obj
 0001:00047040       ??A?$OrderedList@PADUMapNode@?$Map@PADPAUDatabaseTable@LightweightDatabaseServer@@$1?DatabaseTableComp@2@SAHABQAD0@Z@DataStructures@@$1?NodeComparisonFunc@23@SAHABQADABU123@@Z@DataStructures@@QBEAAUMapNode@?$Map@PADPAUDatabaseTable@LightweightDatabaseServer@@$1?DatabaseTableComp@2@SAHABQAD0@Z@1@I@Z 10048040 f i LightweightDatabaseServer.obj
 0001:00047090       ??_GDatabaseTable@LightweightDatabaseServer@@QAEPAXI@Z 10048090 f i LightweightDatabaseServer.obj
 0001:000470f0       ?AddRow@LightweightDatabaseServer@@IAEPAURow@Table@DataStructures@@PAUDatabaseTable@1@UPlayerID@@_NI@Z 100480f0 f   LightweightDatabaseServer.obj
 0001:00047270       ?AddTable@LightweightDatabaseServer@@QAEPAVTable@DataStructures@@PAD_N11QAD2211111@Z 10048270 f   LightweightDatabaseServer.obj
 0001:000475f0       ?Clear@?$List@I@DataStructures@@QAEX_N@Z 100485f0 f i LightweightDatabaseServer.obj
 0001:00047680       ?Clear@?$List@UMapNode@?$Map@PADPAUDatabaseTable@LightweightDatabaseServer@@$1?DatabaseTableComp@2@SAHABQAD0@Z@DataStructures@@@DataStructures@@QAEX_N@Z 10048680 f i LightweightDatabaseServer.obj
 0001:00047710       ?Clear@?$Map@PADPAUDatabaseTable@LightweightDatabaseServer@@$1?DatabaseTableComp@2@SAHABQAD0@Z@DataStructures@@QAEXXZ 10048710 f i LightweightDatabaseServer.obj
 0001:00047760       ?Clear@?$OrderedList@PADUMapNode@?$Map@PADPAUDatabaseTable@LightweightDatabaseServer@@$1?DatabaseTableComp@2@SAHABQAD0@Z@DataStructures@@$1?NodeComparisonFunc@23@SAHABQADABU123@@Z@DataStructures@@QAEXXZ 10048760 f i LightweightDatabaseServer.obj
 0001:000477b0       ?Clear@LightweightDatabaseServer@@QAEXXZ 100487b0 f   LightweightDatabaseServer.obj
 0001:00047880       ?DatabaseTableComp@LightweightDatabaseServer@@SAHABQAD0@Z 10048880 f   LightweightDatabaseServer.obj
 0001:000478d0       ?Del@?$List@UMapNode@?$Map@PADPAUDatabaseTable@LightweightDatabaseServer@@$1?DatabaseTableComp@2@SAHABQAD0@Z@DataStructures@@@DataStructures@@QAEXI@Z 100488d0 f i LightweightDatabaseServer.obj
 0001:00047940       ?Delete@?$Map@PADPAUDatabaseTable@LightweightDatabaseServer@@$1?DatabaseTableComp@2@SAHABQAD0@Z@DataStructures@@QAE_NABQAD@Z 10048940 f i LightweightDatabaseServer.obj
 0001:00047a20       ?DeserializeClientHeader@LightweightDatabaseServer@@IAEPAUDatabaseTable@1@PAVBitStream@RakNet@@PAVRakPeerInterface@@PAUPacket@@H@Z 10048a20 f   LightweightDatabaseServer.obj
 0001:00047e30       ?Get@?$Map@PADPAUDatabaseTable@LightweightDatabaseServer@@$1?DatabaseTableComp@2@SAHABQAD0@Z@DataStructures@@QAEAAPAUDatabaseTable@LightweightDatabaseServer@@ABQAD@Z 10048e30 f i LightweightDatabaseServer.obj
 0001:00047f20       ?GetAndIncrementRowID@LightweightDatabaseServer@@QAEIPAD@Z 10048f20 f   LightweightDatabaseServer.obj
 0001:00047fe0       ?GetIndexFromKey@?$OrderedList@PADUMapNode@?$Map@PADPAUDatabaseTable@LightweightDatabaseServer@@$1?DatabaseTableComp@2@SAHABQAD0@Z@DataStructures@@$1?NodeComparisonFunc@23@SAHABQADABU123@@Z@DataStructures@@QBEIABQADPA_N@Z 10048fe0 f i LightweightDatabaseServer.obj
 0001:000480d0       ?GetRowFromIP@LightweightDatabaseServer@@IAEPAURow@Table@DataStructures@@PAUDatabaseTable@1@UPlayerID@@PAI@Z 100490d0 f   LightweightDatabaseServer.obj
 0001:000481c0       ?GetTable@LightweightDatabaseServer@@QAEPAVTable@DataStructures@@PAD@Z 100491c0 f   LightweightDatabaseServer.obj
 0001:00048230       ?GetTableRows@LightweightDatabaseServer@@QAEPAU?$Page@IPAURow@Table@DataStructures@@$0BA@@DataStructures@@PAD@Z 10049230 f   LightweightDatabaseServer.obj
 0001:000482b0       ?Has@?$Map@PADPAUDatabaseTable@LightweightDatabaseServer@@$1?DatabaseTableComp@2@SAHABQAD0@Z@DataStructures@@QAE_NABQAD@Z 100492b0 f i LightweightDatabaseServer.obj
 0001:00048370       ?HasSavedSearchResult@?$Map@PADPAUDatabaseTable@LightweightDatabaseServer@@$1?DatabaseTableComp@2@SAHABQAD0@Z@DataStructures@@IBE_NABQAD@Z 10049370 f i LightweightDatabaseServer.obj
 0001:000483f0       ?Insert@?$List@UMapNode@?$Map@PADPAUDatabaseTable@LightweightDatabaseServer@@$1?DatabaseTableComp@2@SAHABQAD0@Z@DataStructures@@@DataStructures@@QAEXUMapNode@?$Map@PADPAUDatabaseTable@LightweightDatabaseServer@@$1?DatabaseTableComp@2@SAHABQAD0@Z@2@@Z 100493f0 f i LightweightDatabaseServer.obj
 0001:00048580       ?Insert@?$List@UMapNode@?$Map@PADPAUDatabaseTable@LightweightDatabaseServer@@$1?DatabaseTableComp@2@SAHABQAD0@Z@DataStructures@@@DataStructures@@QAEXUMapNode@?$Map@PADPAUDatabaseTable@LightweightDatabaseServer@@$1?DatabaseTableComp@2@SAHABQAD0@Z@2@I@Z 10049580 f i LightweightDatabaseServer.obj
 0001:00048760       ?Insert@?$OrderedList@PADUMapNode@?$Map@PADPAUDatabaseTable@LightweightDatabaseServer@@$1?DatabaseTableComp@2@SAHABQAD0@Z@DataStructures@@$1?NodeComparisonFunc@23@SAHABQADABU123@@Z@DataStructures@@QAEIABQADABUMapNode@?$Map@PADPAUDatabaseTable@LightweightDatabaseServer@@$1?DatabaseTableComp@2@SAHABQAD0@Z@2@@Z 10049760 f i LightweightDatabaseServer.obj
 0001:00048840       ?NodeComparisonFunc@?$Map@PADPAUDatabaseTable@LightweightDatabaseServer@@$1?DatabaseTableComp@2@SAHABQAD0@Z@DataStructures@@SAHABQADABUMapNode@12@@Z 10049840 f i LightweightDatabaseServer.obj
 0001:00048890       ?OnAttach@LightweightDatabaseServer@@UAEXPAVRakPeerInterface@@@Z 10049890 f   LightweightDatabaseServer.obj
 0001:000488c0       ?OnCloseConnection@LightweightDatabaseServer@@UAEXPAVRakPeerInterface@@UPlayerID@@@Z 100498c0 f   LightweightDatabaseServer.obj
 0001:00048920       ?OnDisconnect@LightweightDatabaseServer@@UAEXPAVRakPeerInterface@@@Z 10049920 f   LightweightDatabaseServer.obj
 0001:00048950       ?OnPong@LightweightDatabaseServer@@IAEXPAVRakPeerInterface@@PAUPacket@@@Z 10049950 f   LightweightDatabaseServer.obj
 0001:00048ad0       ?OnQueryRequest@LightweightDatabaseServer@@IAEXPAVRakPeerInterface@@PAUPacket@@@Z 10049ad0 f   LightweightDatabaseServer.obj
 0001:00049150       ?OnReceive@LightweightDatabaseServer@@UAE?AW4PluginReceiveResult@@PAVRakPeerInterface@@PAUPacket@@@Z 1004a150 f   LightweightDatabaseServer.obj
 0001:000492b0       ?OnRemoveRow@LightweightDatabaseServer@@IAEXPAVRakPeerInterface@@PAUPacket@@@Z 1004a2b0 f   LightweightDatabaseServer.obj
 0001:00049430       ?OnUpdateRow@LightweightDatabaseServer@@IAEXPAVRakPeerInterface@@PAUPacket@@@Z 1004a430 f   LightweightDatabaseServer.obj
 0001:00049bd0       ?RemoveAtIndex@?$List@UMapNode@?$Map@PADPAUDatabaseTable@LightweightDatabaseServer@@$1?DatabaseTableComp@2@SAHABQAD0@Z@DataStructures@@@DataStructures@@QAEXI@Z 1004abd0 f i LightweightDatabaseServer.obj
 0001:00049c80       ?RemoveAtIndex@?$OrderedList@PADUMapNode@?$Map@PADPAUDatabaseTable@LightweightDatabaseServer@@$1?DatabaseTableComp@2@SAHABQAD0@Z@DataStructures@@$1?NodeComparisonFunc@23@SAHABQADABU123@@Z@DataStructures@@QAEXI@Z 1004ac80 f i LightweightDatabaseServer.obj
 0001:00049cd0       ?RemoveRowsFromIP@LightweightDatabaseServer@@IAEXUPlayerID@@@Z 1004acd0 f   LightweightDatabaseServer.obj
 0001:00049eb0       ?RemoveTable@LightweightDatabaseServer@@QAE_NPAD@Z 1004aeb0 f   LightweightDatabaseServer.obj
 0001:00049f70       ?RowHasIP@LightweightDatabaseServer@@IAE_NPAURow@Table@DataStructures@@UPlayerID@@I@Z 1004af70 f   LightweightDatabaseServer.obj
 0001:0004a010       ?SaveLastSearch@?$Map@PADPAUDatabaseTable@LightweightDatabaseServer@@$1?DatabaseTableComp@2@SAHABQAD0@Z@DataStructures@@IAEXABQADI@Z 1004b010 f i LightweightDatabaseServer.obj
 0001:0004a060       ?SetNew@?$Map@PADPAUDatabaseTable@LightweightDatabaseServer@@$1?DatabaseTableComp@2@SAHABQAD0@Z@DataStructures@@QAEXABQADABQAUDatabaseTable@LightweightDatabaseServer@@@Z 1004b060 f i LightweightDatabaseServer.obj
 0001:0004a140       ?Size@?$List@UMapNode@?$Map@PADPAUDatabaseTable@LightweightDatabaseServer@@$1?DatabaseTableComp@2@SAHABQAD0@Z@DataStructures@@@DataStructures@@QBEIXZ 1004b140 f i LightweightDatabaseServer.obj
 0001:0004a170       ?Size@?$Map@PADPAUDatabaseTable@LightweightDatabaseServer@@$1?DatabaseTableComp@2@SAHABQAD0@Z@DataStructures@@QBEIXZ 1004b170 f i LightweightDatabaseServer.obj
 0001:0004a1b0       ?Size@?$OrderedList@PADUMapNode@?$Map@PADPAUDatabaseTable@LightweightDatabaseServer@@$1?DatabaseTableComp@2@SAHABQAD0@Z@DataStructures@@$1?NodeComparisonFunc@23@SAHABQADABU123@@Z@DataStructures@@QBEIXZ 1004b1b0 f i LightweightDatabaseServer.obj
 0001:0004a1f0       ?Update@LightweightDatabaseServer@@UAEXPAVRakPeerInterface@@@Z 1004b1f0 f   LightweightDatabaseServer.obj
 0001:0004a570       ??0?$List@UPlayerIDAndChannel@LogCommandParser@@@DataStructures@@QAE@XZ 1004b570 f i LogCommandParser.obj
 0001:0004a5c0       ??0LogCommandParser@@QAE@XZ 1004b5c0 f   LogCommandParser.obj
 0001:0004a6a0       ??1?$List@UPlayerIDAndChannel@LogCommandParser@@@DataStructures@@QAE@XZ 1004b6a0 f i LogCommandParser.obj
 0001:0004a700       ??1LogCommandParser@@UAE@XZ 1004b700 f   LogCommandParser.obj
 0001:0004a790       ??4PlayerIDAndChannel@LogCommandParser@@QAEAAU01@ABU01@@Z 1004b790 f i LogCommandParser.obj
 0001:0004a7f0       ??A?$List@UPlayerIDAndChannel@LogCommandParser@@@DataStructures@@QBEAAUPlayerIDAndChannel@LogCommandParser@@I@Z 1004b7f0 f i LogCommandParser.obj
 0001:0004a860       ??_ELogCommandParser@@UAEPAXI@Z 1004b860 f i LogCommandParser.obj
 0001:0004a860       ??_GLogCommandParser@@UAEPAXI@Z 1004b860 f i LogCommandParser.obj
 0001:0004a8c0       ?AddChannel@LogCommandParser@@QAEXPBD@Z 1004b8c0 f   LogCommandParser.obj
 0001:0004a980       ?Del@?$List@UPlayerIDAndChannel@LogCommandParser@@@DataStructures@@QAEXI@Z 1004b980 f i LogCommandParser.obj
 0001:0004a9f0       ?GetChannelIndexFromName@LogCommandParser@@IAEIPBD@Z 1004b9f0 f   LogCommandParser.obj
 0001:0004aa80       ?GetName@LogCommandParser@@UBEPADXZ 1004ba80 f   LogCommandParser.obj
 0001:0004aab0       ?Insert@?$List@UPlayerIDAndChannel@LogCommandParser@@@DataStructures@@QAEXUPlayerIDAndChannel@LogCommandParser@@@Z 1004bab0 f i LogCommandParser.obj
 0001:0004abb0       ?OnCommand@LogCommandParser@@UAE_NPBDIPAPADPAVTransportInterface@@UPlayerID@@0@Z 1004bbb0 f   LogCommandParser.obj
 0001:0004aef0       ?OnConnectionLost@LogCommandParser@@UAEXUPlayerID@@PAVTransportInterface@@@Z 1004bef0 f   LogCommandParser.obj
 0001:0004af50       ?OnNewIncomingConnection@LogCommandParser@@UAEXUPlayerID@@PAVTransportInterface@@@Z 1004bf50 f   LogCommandParser.obj
 0001:0004af80       ?OnTransportChange@LogCommandParser@@UAEXPAVTransportInterface@@@Z 1004bf80 f   LogCommandParser.obj
 0001:0004afc0       ?PrintChannels@LogCommandParser@@IBEXUPlayerID@@PAVTransportInterface@@@Z 1004bfc0 f   LogCommandParser.obj
 0001:0004b0e0       ?SendHelp@LogCommandParser@@UAEXPAVTransportInterface@@UPlayerID@@@Z 1004c0e0 f   LogCommandParser.obj
 0001:0004b1d0       ?Size@?$List@UPlayerIDAndChannel@LogCommandParser@@@DataStructures@@QBEIXZ 1004c1d0 f i LogCommandParser.obj
 0001:0004b200       ?Subscribe@LogCommandParser@@IAEIUPlayerID@@PBD@Z 1004c200 f   LogCommandParser.obj
 0001:0004b380       ?Unsubscribe@LogCommandParser@@IAEIUPlayerID@@PBD@Z 1004c380 f   LogCommandParser.obj
 0001:0004b4b0       ?WriteLog@LogCommandParser@@QAAXPBD0ZZ 1004c4b0 f   LogCommandParser.obj
 0001:0004b740       ??0?$List@PAUConnectionRequest@NatPunchthrough@@@DataStructures@@QAE@XZ 1004c740 f i NatPunchthrough.obj
 0001:0004b790       ??0NatPunchthrough@@QAE@XZ 1004c790 f   NatPunchthrough.obj
 0001:0004b800       ??1?$List@PAUConnectionRequest@NatPunchthrough@@@DataStructures@@QAE@XZ 1004c800 f i NatPunchthrough.obj
 0001:0004b860       ??1NatPunchthrough@@QAE@XZ 1004c860 f   NatPunchthrough.obj
 0001:0004b8f0       ??A?$List@PAUConnectionRequest@NatPunchthrough@@@DataStructures@@QBEAAPAUConnectionRequest@NatPunchthrough@@I@Z 1004c8f0 f i NatPunchthrough.obj
 0001:0004b960       ?Clear@?$List@PAUConnectionRequest@NatPunchthrough@@@DataStructures@@QAEX_N@Z 1004c960 f i NatPunchthrough.obj
 0001:0004b9f0       ?Clear@NatPunchthrough@@QAEXXZ 1004c9f0 f   NatPunchthrough.obj
 0001:0004bab0       ?Connect@NatPunchthrough@@QAE_NPBDGPADHUPlayerID@@@Z 1004cab0 f   NatPunchthrough.obj
 0001:0004bb80       ?Connect@NatPunchthrough@@QAE_NUPlayerID@@PADH0@Z 1004cb80 f   NatPunchthrough.obj
 0001:0004be00       ?Del@?$List@PAUConnectionRequest@NatPunchthrough@@@DataStructures@@QAEXI@Z 1004ce00 f i NatPunchthrough.obj
 0001:0004be70       ?FacilitateConnections@NatPunchthrough@@QAEX_N@Z 1004ce70 f   NatPunchthrough.obj
 0001:0004beb0       ?Insert@?$List@PAUConnectionRequest@NatPunchthrough@@@DataStructures@@QAEXQAUConnectionRequest@NatPunchthrough@@@Z 1004ceb0 f i NatPunchthrough.obj
 0001:0004bfb0       ?OnAttach@NatPunchthrough@@UAEXPAVRakPeerInterface@@@Z 1004cfb0 f   NatPunchthrough.obj
 0001:0004bff0       ?OnCloseConnection@NatPunchthrough@@UAEXPAVRakPeerInterface@@UPlayerID@@@Z 1004cff0 f   NatPunchthrough.obj
 0001:0004c2c0       ?OnConnectAtTime@NatPunchthrough@@IAEXPAVRakPeerInterface@@PAUPacket@@@Z 1004d2c0 f   NatPunchthrough.obj
 0001:0004c450       ?OnDisconnect@NatPunchthrough@@UAEXPAVRakPeerInterface@@@Z 1004d450 f   NatPunchthrough.obj
 0001:0004c480       ?OnPunchthroughRequest@NatPunchthrough@@IAEXPAVRakPeerInterface@@PAUPacket@@@Z 1004d480 f   NatPunchthrough.obj
 0001:0004c7d0       ?OnReceive@NatPunchthrough@@UAE?AW4PluginReceiveResult@@PAVRakPeerInterface@@PAUPacket@@@Z 1004d7d0 f   NatPunchthrough.obj
 0001:0004c980       ?OnSendOfflineMessageAtTime@NatPunchthrough@@IAEXPAVRakPeerInterface@@PAUPacket@@@Z 1004d980 f   NatPunchthrough.obj
 0001:0004cba0       ?RemoveAtIndex@?$List@PAUConnectionRequest@NatPunchthrough@@@DataStructures@@QAEXI@Z 1004dba0 f i NatPunchthrough.obj
 0001:0004cc50       ?RemoveRequestByFacilitator@NatPunchthrough@@IAE?AW4PluginReceiveResult@@UPlayerID@@@Z 1004dc50 f   NatPunchthrough.obj
 0001:0004cd40       ?Size@?$List@PAUConnectionRequest@NatPunchthrough@@@DataStructures@@QBEIXZ 1004dd40 f i NatPunchthrough.obj
 0001:0004cd70       ?Update@NatPunchthrough@@UAEXPAVRakPeerInterface@@@Z 1004dd70 f   NatPunchthrough.obj
 0001:0004d680       ??0?$AVLBalancedBinarySearchTree@UNetworkIDNode@@@DataStructures@@QAE@XZ 1004e680 f i NetworkIDGenerator.obj
 0001:0004d6d0       ??0?$BinarySearchTree@UNetworkIDNode@@@DataStructures@@QAE@XZ 1004e6d0 f i NetworkIDGenerator.obj
 0001:0004d720       ??0?$CircularLinkedList@PAUnode@?$BinarySearchTree@UNetworkIDNode@@@DataStructures@@@DataStructures@@QAE@XZ 1004e720 f i NetworkIDGenerator.obj
 0001:0004d770       ??0?$LinkedList@PAUnode@?$BinarySearchTree@UNetworkIDNode@@@DataStructures@@@DataStructures@@QAE@XZ 1004e770 f i NetworkIDGenerator.obj
 0001:0004d7c0       ??0?$QueueLinkedList@PAUnode@?$BinarySearchTree@UNetworkIDNode@@@DataStructures@@@DataStructures@@QAE@XZ 1004e7c0 f i NetworkIDGenerator.obj
 0001:0004d810       ??0NetworkIDGenerator@@QAE@XZ 1004e810 f   NetworkIDGenerator.obj
 0001:0004d880       ??0NetworkIDNode@@QAE@UNetworkID@@PAVNetworkIDGenerator@@@Z 1004e880 f   NetworkIDGenerator.obj
 0001:0004d8e0       ??0NetworkIDNode@@QAE@XZ   1004e8e0 f   NetworkIDGenerator.obj
 0001:0004d920       ??1?$AVLBalancedBinarySearchTree@UNetworkIDNode@@@DataStructures@@UAE@XZ 1004e920 f i NetworkIDGenerator.obj
 0001:0004d9b0       ??1?$BinarySearchTree@UNetworkIDNode@@@DataStructures@@UAE@XZ 1004e9b0 f i NetworkIDGenerator.obj
 0001:0004da00       ??1?$CircularLinkedList@PAUnode@?$BinarySearchTree@UNetworkIDNode@@@DataStructures@@@DataStructures@@QAE@XZ 1004ea00 f i NetworkIDGenerator.obj
 0001:0004da40       ??1?$LinkedList@PAUnode@?$BinarySearchTree@UNetworkIDNode@@@DataStructures@@@DataStructures@@QAE@XZ 1004ea40 f i NetworkIDGenerator.obj
 0001:0004dac0       ??1?$QueueLinkedList@PAUnode@?$BinarySearchTree@UNetworkIDNode@@@DataStructures@@@DataStructures@@QAE@XZ 1004eac0 f i NetworkIDGenerator.obj
 0001:0004db00       ??1NetworkIDGenerator@@UAE@XZ 1004eb00 f   NetworkIDGenerator.obj
 0001:0004dbb0       ??4NetworkIDNode@@QAEAAU0@ABU0@@Z 1004ebb0 f i NetworkIDGenerator.obj
 0001:0004dc10       ??8NetworkIDNode@@QBE_NABU0@@Z 1004ec10 f   NetworkIDGenerator.obj
 0001:0004dc70       ??MNetworkIDNode@@QBE_NABU0@@Z 1004ec70 f   NetworkIDGenerator.obj
 0001:0004dcd0       ??ONetworkIDNode@@QBE_NABU0@@Z 1004ecd0 f   NetworkIDGenerator.obj
 0001:0004dd30       ??_E?$AVLBalancedBinarySearchTree@UNetworkIDNode@@@DataStructures@@UAEPAXI@Z 1004ed30 f i NetworkIDGenerator.obj
 0001:0004dd30       ??_G?$AVLBalancedBinarySearchTree@UNetworkIDNode@@@DataStructures@@UAEPAXI@Z 1004ed30 f i NetworkIDGenerator.obj
 0001:0004dd90       ??_G?$BinarySearchTree@UNetworkIDNode@@@DataStructures@@UAEPAXI@Z 1004ed90 f i NetworkIDGenerator.obj
 0001:0004dd90       ??_E?$BinarySearchTree@UNetworkIDNode@@@DataStructures@@UAEPAXI@Z 1004ed90 f i NetworkIDGenerator.obj
 0001:0004ddf0       ??_GNetworkIDGenerator@@UAEPAXI@Z 1004edf0 f i NetworkIDGenerator.obj
 0001:0004ddf0       ??_ENetworkIDGenerator@@UAEPAXI@Z 1004edf0 f i NetworkIDGenerator.obj
 0001:0004de50       ?Add@?$AVLBalancedBinarySearchTree@UNetworkIDNode@@@DataStructures@@QAEXABUNetworkIDNode@@@Z 1004ee50 f i NetworkIDGenerator.obj
 0001:0004deb0       ?Add@?$BinarySearchTree@UNetworkIDNode@@@DataStructures@@QAEPAUnode@12@ABUNetworkIDNode@@@Z 1004eeb0 f i NetworkIDGenerator.obj
 0001:0004e1f0       ?Add@?$CircularLinkedList@PAUnode@?$BinarySearchTree@UNetworkIDNode@@@DataStructures@@@DataStructures@@QAEAAPAUnode@?$BinarySearchTree@UNetworkIDNode@@@2@ABQAU342@@Z 1004f1f0 f i NetworkIDGenerator.obj
 0001:0004e3a0       ?BalanceTree@?$AVLBalancedBinarySearchTree@UNetworkIDNode@@@DataStructures@@AAEXPAUnode@?$BinarySearchTree@UNetworkIDNode@@@2@_N@Z 1004f3a0 f i NetworkIDGenerator.obj
 0001:0004e4f0       ?Beginning@?$CircularLinkedList@PAUnode@?$BinarySearchTree@UNetworkIDNode@@@DataStructures@@@DataStructures@@QAEXXZ 1004f4f0 f i NetworkIDGenerator.obj
 0001:0004e530       ?Clear@?$BinarySearchTree@UNetworkIDNode@@@DataStructures@@QAEXXZ 1004f530 f i NetworkIDGenerator.obj
 0001:0004e690       ?Clear@?$CircularLinkedList@PAUnode@?$BinarySearchTree@UNetworkIDNode@@@DataStructures@@@DataStructures@@QAEXXZ 1004f690 f i NetworkIDGenerator.obj
 0001:0004e750       ?Del@?$AVLBalancedBinarySearchTree@UNetworkIDNode@@@DataStructures@@QAEXABUNetworkIDNode@@@Z 1004f750 f i NetworkIDGenerator.obj
 0001:0004e7b0       ?Del@?$BinarySearchTree@UNetworkIDNode@@@DataStructures@@QAEPAUnode@12@ABUNetworkIDNode@@@Z 1004f7b0 f i NetworkIDGenerator.obj
 0001:0004eb50       ?Del@?$CircularLinkedList@PAUnode@?$BinarySearchTree@UNetworkIDNode@@@DataStructures@@@DataStructures@@QAEXXZ 1004fb50 f i NetworkIDGenerator.obj
 0001:0004ec60       ?DisplayBreadthFirstSearch@?$BinarySearchTree@UNetworkIDNode@@@DataStructures@@QAEXPAUNetworkIDNode@@@Z 1004fc60 f i NetworkIDGenerator.obj
 0001:0004ede0       ?DoubleRotateLeft@?$AVLBalancedBinarySearchTree@UNetworkIDNode@@@DataStructures@@AAEXPAUnode@?$BinarySearchTree@UNetworkIDNode@@@2@@Z 1004fde0 f i NetworkIDGenerator.obj
 0001:0004ee40       ?DoubleRotateRight@?$AVLBalancedBinarySearchTree@UNetworkIDNode@@@DataStructures@@AAEXPAUnode@?$BinarySearchTree@UNetworkIDNode@@@2@@Z 1004fe40 f i NetworkIDGenerator.obj
 0001:0004eea0       ?End@?$CircularLinkedList@PAUnode@?$BinarySearchTree@UNetworkIDNode@@@DataStructures@@@DataStructures@@QAEXXZ 1004fea0 f i NetworkIDGenerator.obj
 0001:0004eef0       ?Find@?$BinarySearchTree@UNetworkIDNode@@@DataStructures@@IAEAAPAUnode@12@ABUNetworkIDNode@@PAPAU312@@Z 1004fef0 f i NetworkIDGenerator.obj
 0001:0004f070       ?FindParent@?$BinarySearchTree@UNetworkIDNode@@@DataStructures@@IAEAAPAUnode@12@ABUNetworkIDNode@@@Z 10050070 f i NetworkIDGenerator.obj
 0001:0004f0c0       ?GET_BASE_OBJECT_FROM_ID@NetworkIDGenerator@@SAPAXUNetworkID@@@Z 100500c0 f   NetworkIDGenerator.obj
 0001:0004f140       ?GET_OBJECT_FROM_ID@@YAPAXUNetworkID@@@Z 10050140 f   NetworkIDGenerator.obj
 0001:0004f190       ?GET_OBJECT_FROM_ID@NetworkIDGenerator@@SAPAXUNetworkID@@@Z 10050190 f   NetworkIDGenerator.obj
 0001:0004f250       ?GenerateID@NetworkIDGenerator@@IAEXXZ 10050250 f   NetworkIDGenerator.obj
 0001:0004f390       ?GetExternalPlayerID@NetworkIDGenerator@@SA?AUPlayerID@@XZ 10050390 f   NetworkIDGenerator.obj
 0001:0004f3d0       ?GetNetworkID@NetworkIDGenerator@@UAE?AUNetworkID@@XZ 100503d0 f   NetworkIDGenerator.obj
 0001:0004f460       ?GetParent@NetworkIDGenerator@@UBEPAXXZ 10050460 f   NetworkIDGenerator.obj
 0001:0004f490       ?GetPointerToNode@?$BinarySearchTree@UNetworkIDNode@@@DataStructures@@QAEAAPAUNetworkIDNode@@ABU3@@Z 10050490 f i NetworkIDGenerator.obj
 0001:0004f500       ?GetStaticNetworkID@NetworkIDGenerator@@SAGXZ 10050500 f   NetworkIDGenerator.obj
 0001:0004f530       ?Height@?$BinarySearchTree@UNetworkIDNode@@@DataStructures@@QAEIPAUnode@12@@Z 10050530 f i NetworkIDGenerator.obj
 0001:0004f590       ?HeightRecursive@?$BinarySearchTree@UNetworkIDNode@@@DataStructures@@IAEIPAUnode@12@@Z 10050590 f i NetworkIDGenerator.obj
 0001:0004f640       ?LeftHigher@?$AVLBalancedBinarySearchTree@UNetworkIDNode@@@DataStructures@@AAE_NPAUnode@?$BinarySearchTree@UNetworkIDNode@@@2@@Z 10050640 f i NetworkIDGenerator.obj
 0001:0004f6d0       ?Peek@?$CircularLinkedList@PAUnode@?$BinarySearchTree@UNetworkIDNode@@@DataStructures@@@DataStructures@@QAEAAPAUnode@?$BinarySearchTree@UNetworkIDNode@@@2@XZ 100506d0 f i NetworkIDGenerator.obj
 0001:0004f700       ?Pop@?$CircularLinkedList@PAUnode@?$BinarySearchTree@UNetworkIDNode@@@DataStructures@@@DataStructures@@QAEPAUnode@?$BinarySearchTree@UNetworkIDNode@@@2@XZ 10050700 f i NetworkIDGenerator.obj
 0001:0004f750       ?Pop@?$QueueLinkedList@PAUnode@?$BinarySearchTree@UNetworkIDNode@@@DataStructures@@@DataStructures@@QAEPAUnode@?$BinarySearchTree@UNetworkIDNode@@@2@XZ 10050750 f i NetworkIDGenerator.obj
 0001:0004f7a0       ?Push@?$QueueLinkedList@PAUnode@?$BinarySearchTree@UNetworkIDNode@@@DataStructures@@@DataStructures@@QAEXABQAUnode@?$BinarySearchTree@UNetworkIDNode@@@2@@Z 100507a0 f i NetworkIDGenerator.obj
 0001:0004f7f0       ?RequiresSetParent@NetworkIDGenerator@@UBE_NXZ 100507f0 f   NetworkIDGenerator.obj
 0001:0004f820       ?RightHigher@?$AVLBalancedBinarySearchTree@UNetworkIDNode@@@DataStructures@@AAE_NPAUnode@?$BinarySearchTree@UNetworkIDNode@@@2@@Z 10050820 f i NetworkIDGenerator.obj
 0001:0004f8b0       ?RotateLeft@?$AVLBalancedBinarySearchTree@UNetworkIDNode@@@DataStructures@@AAEXPAUnode@?$BinarySearchTree@UNetworkIDNode@@@2@@Z 100508b0 f i NetworkIDGenerator.obj
 0001:0004f960       ?RotateRight@?$AVLBalancedBinarySearchTree@UNetworkIDNode@@@DataStructures@@AAEXPAUnode@?$BinarySearchTree@UNetworkIDNode@@@2@@Z 10050960 f i NetworkIDGenerator.obj
 0001:0004fa10       ?SetExternalPlayerID@NetworkIDGenerator@@SAXUPlayerID@@@Z 10050a10 f   NetworkIDGenerator.obj
 0001:0004fa80       ?SetNetworkID@NetworkIDGenerator@@UAEXUNetworkID@@@Z 10050a80 f   NetworkIDGenerator.obj
 0001:0004fbf0       ?SetParent@NetworkIDGenerator@@UAEXPAX@Z 10050bf0 f   NetworkIDGenerator.obj
 0001:0004fe20       ?SetStaticNetworkID@NetworkIDGenerator@@SAXG@Z 10050e20 f   NetworkIDGenerator.obj
 0001:0004fe50       ?Size@?$BinarySearchTree@UNetworkIDNode@@@DataStructures@@QAEIXZ 10050e50 f i NetworkIDGenerator.obj
 0001:0004fe80       ?Size@?$CircularLinkedList@PAUnode@?$BinarySearchTree@UNetworkIDNode@@@DataStructures@@@DataStructures@@QAEIXZ 10050e80 f i NetworkIDGenerator.obj
 0001:0004feb0       ?Size@?$QueueLinkedList@PAUnode@?$BinarySearchTree@UNetworkIDNode@@@DataStructures@@@DataStructures@@QAEIXZ 10050eb0 f i NetworkIDGenerator.obj
 0001:0004fef0       ??4NetworkID@@QAEAAU0@ABU0@@Z 10050ef0 f   NetworkTypes.obj
 0001:0004ff50       ??8NetworkID@@QBE_NABU0@@Z 10050f50 f   NetworkTypes.obj
 0001:00050010       ??8PlayerID@@QBE_NABU0@@Z  10051010 f   NetworkTypes.obj
 0001:00050080       ??9NetworkID@@QBE_NABU0@@Z 10051080 f   NetworkTypes.obj
 0001:00050140       ??9PlayerID@@QBE_NABU0@@Z  10051140 f   NetworkTypes.obj
 0001:000501b0       ??MNetworkID@@QBE_NABU0@@Z 100511b0 f   NetworkTypes.obj
 0001:00050280       ??MPlayerID@@QBE_NABU0@@Z  10051280 f   NetworkTypes.obj
 0001:00050300       ??ONetworkID@@QBE_NABU0@@Z 10051300 f   NetworkTypes.obj
 0001:000503d0       ??OPlayerID@@QBE_NABU0@@Z  100513d0 f   NetworkTypes.obj
 0001:00050450       ?IsPeerToPeerMode@NetworkID@@SA_NXZ 10051450 f   NetworkTypes.obj
 0001:00050480       ?SetBinaryAddress@PlayerID@@QAEXPBD@Z 10051480 f   NetworkTypes.obj
 0001:000504e0       ?SetPeerToPeerMode@NetworkID@@SAX_N@Z 100514e0 f   NetworkTypes.obj
 0001:00050510       ?ToString@PlayerID@@QBEPAD_N@Z 10051510 f   NetworkTypes.obj
 0001:000505e0       ?my_itoa@@YAPADHPADH@Z     100515e0 f   NetworkTypes.obj
 0001:000506e0       ??0PacketConsoleLogger@@QAE@XZ 100516e0 f   PacketConsoleLogger.obj
 0001:00050740       ??1PacketConsoleLogger@@UAE@XZ 10051740 f i PacketConsoleLogger.obj
 0001:00050780       ??_GPacketConsoleLogger@@UAEPAXI@Z 10051780 f i PacketConsoleLogger.obj
 0001:00050780       ??_EPacketConsoleLogger@@UAEPAXI@Z 10051780 f i PacketConsoleLogger.obj
 0001:000507e0       ?SetLogCommandParser@PacketConsoleLogger@@UAEXPAVLogCommandParser@@@Z 100517e0 f   PacketConsoleLogger.obj
 0001:00050840       ?WriteLog@PacketConsoleLogger@@UAEXPBD@Z 10051840 f   PacketConsoleLogger.obj
 0001:000508a0       ??1PacketFileLogger@@UAE@XZ 100518a0 f   PacketFileLogger.obj
 0001:00050900       ??_EPacketFileLogger@@UAEPAXI@Z 10051900 f i PacketFileLogger.obj
 0001:00050900       ??_GPacketFileLogger@@UAEPAXI@Z 10051900 f i PacketFileLogger.obj
 0001:00050960       ?OnAttach@PacketFileLogger@@UAEXPAVRakPeerInterface@@@Z 10051960 f   PacketFileLogger.obj
 0001:00050a40       ?WriteLog@PacketFileLogger@@UAEXPBD@Z 10051a40 f   PacketFileLogger.obj
 0001:00050a90       ??0PacketLogger@@QAE@XZ    10051a90 f   PacketLogger.obj
 0001:00050b00       ??1PacketLogger@@UAE@XZ    10051b00 f   PacketLogger.obj
 0001:00050b40       ??_EPacketLogger@@UAEPAXI@Z 10051b40 f i PacketLogger.obj
 0001:00050b40       ??_GPacketLogger@@UAEPAXI@Z 10051b40 f i PacketLogger.obj
 0001:00050ba0       ?BaseIDTOString@PacketLogger@@IAEPADE@Z 10051ba0 f   PacketLogger.obj
 0001:00050f40       ?IDTOString@PacketLogger@@IAEPADE@Z 10051f40 f   PacketLogger.obj
 0001:00050fb0       ?LogHeader@PacketLogger@@UAEXXZ 10051fb0 f   PacketLogger.obj
 0001:00051010       ?OnAttach@PacketLogger@@UAEXPAVRakPeerInterface@@@Z 10052010 f   PacketLogger.obj
 0001:00051050       ?OnDirectSocketReceive@PacketLogger@@UAEXPBDIUPlayerID@@@Z 10052050 f   PacketLogger.obj
 0001:000511e0       ?OnDirectSocketSend@PacketLogger@@UAEXPBDIUPlayerID@@@Z 100521e0 f   PacketLogger.obj
 0001:00051370       ?OnInternalPacket@PacketLogger@@UAEXPAUInternalPacket@@IUPlayerID@@I_N@Z 10052370 f   PacketLogger.obj
 0001:000519e0       ?SetPrintAcks@PacketLogger@@UAEX_N@Z 100529e0 f   PacketLogger.obj
 0001:00051a20       ?SetPrintID@PacketLogger@@UAEX_N@Z 10052a20 f   PacketLogger.obj
 0001:00051a60       ?UserIDTOString@PacketLogger@@MAEPADE@Z 10052a60 f   PacketLogger.obj
 0001:00051aa0       ?WriteLog@PacketLogger@@UAEXPBD@Z 10052aa0 f   PacketLogger.obj
 0001:00051af0       ?OnAttach@PluginInterface@@UAEXPAVRakPeerInterface@@@Z 10052af0 f   PluginInterface.obj
 0001:00051b20       ?OnCloseConnection@PluginInterface@@UAEXPAVRakPeerInterface@@UPlayerID@@@Z 10052b20 f   PluginInterface.obj
 0001:00051b50       ?OnDetach@PluginInterface@@UAEXPAVRakPeerInterface@@@Z 10052b50 f   PluginInterface.obj
 0001:00051b80       ?OnDirectSocketReceive@PluginInterface@@UAEXPBDIUPlayerID@@@Z 10052b80 f   PluginInterface.obj
 0001:00051bb0       ?OnDirectSocketSend@PluginInterface@@UAEXPBDIUPlayerID@@@Z 10052bb0 f   PluginInterface.obj
 0001:00051be0       ?OnDisconnect@PluginInterface@@UAEXPAVRakPeerInterface@@@Z 10052be0 f   PluginInterface.obj
 0001:00051c10       ?OnInitialize@PluginInterface@@UAEXPAVRakPeerInterface@@@Z 10052c10 f   PluginInterface.obj
 0001:00051c40       ?OnInternalPacket@PluginInterface@@UAEXPAUInternalPacket@@IUPlayerID@@I_N@Z 10052c40 f   PluginInterface.obj
 0001:00051c70       ?OnReceive@PluginInterface@@UAE?AW4PluginReceiveResult@@PAVRakPeerInterface@@PAUPacket@@@Z 10052c70 f   PluginInterface.obj
 0001:00051cb0       ?Update@PluginInterface@@UAEXPAVRakPeerInterface@@@Z 10052cb0 f   PluginInterface.obj
 0001:00051ce0       ??$Read@F@BitStream@RakNet@@QAE_NAAF@Z 10052ce0 f i RakClient.obj
 0001:00051d50       ??0OtherClientsStruct@RakClient@@QAE@XZ 10052d50 f i RakClient.obj
 0001:00051da0       ??0RakClient@@QAE@XZ       10052da0 f   RakClient.obj
 0001:00051eb0       ??0RakClientInterface@@QAE@XZ 10052eb0 f i RakClient.obj
 0001:00051ef0       ??1OtherClientsStruct@RakClient@@QAE@XZ 10052ef0 f i RakClient.obj
 0001:00051f40       ??1RakClient@@UAE@XZ       10052f40 f   RakClient.obj
 0001:00052010       ??1RakClientInterface@@UAE@XZ 10053010 f i RakClient.obj
 0001:00052043       ??_ERakClient@@WJOK@AEPAXI@Z 10053043 f i RakClient.obj
 0001:00052050       ??_ERakClient@@UAEPAXI@Z   10053050 f i RakClient.obj
 0001:00052050       ??_GRakClient@@UAEPAXI@Z   10053050 f i RakClient.obj
 0001:000520b0       ??_GRakClientInterface@@UAEPAXI@Z 100530b0 f i RakClient.obj
 0001:000520b0       ??_ERakClientInterface@@UAEPAXI@Z 100530b0 f i RakClient.obj
 0001:00052110       ?AdvertiseSystem@RakClient@@UAEXPBDG0H@Z 10053110 f   RakClient.obj
 0001:00052162       ?AdvertiseSystem@RakClient@@WJOK@AEXPBDG0H@Z 10053162 f i RakClient.obj
 0001:00052170       ?AllowConnectionResponseIPMigration@RakClient@@UAEX_N@Z 10053170 f   RakClient.obj
 0001:000521b6       ?AllowConnectionResponseIPMigration@RakClient@@WJOK@AEX_N@Z 100531b6 f i RakClient.obj
 0001:000521d0       ?ApplyNetworkSimulator@RakClient@@UAEXNGG@Z 100531d0 f   RakClient.obj
 0001:00052228       ?ApplyNetworkSimulator@RakClient@@WJOK@AEXNGG@Z 10053228 f i RakClient.obj
 0001:00052240       ?AttachPlugin@RakClient@@UAEXPAVPluginInterface@@@Z 10053240 f   RakClient.obj
 0001:00052285       ?AttachPlugin@RakClient@@WJOK@AEXPAVPluginInterface@@@Z 10053285 f i RakClient.obj
 0001:00052290       ?Connect@RakClient@@UAE_NPBDGGIH@Z 10053290 f   RakClient.obj
 0001:000523c0       ?DeallocatePacket@RakClient@@UAEXPAUPacket@@@Z 100533c0 f   RakClient.obj
 0001:00052405       ?DeallocatePacket@RakClient@@WJOK@AEXPAUPacket@@@Z 10053405 f i RakClient.obj
 0001:00052410       ?DeleteCompressionLayer@RakClient@@UAE_N_N@Z 10053410 f   RakClient.obj
 0001:00052456       ?DeleteCompressionLayer@RakClient@@WJOK@AE_N_N@Z 10053456 f i RakClient.obj
 0001:00052470       ?DetachPlugin@RakClient@@UAEXPAVPluginInterface@@@Z 10053470 f   RakClient.obj
 0001:000524b5       ?DetachPlugin@RakClient@@WJOK@AEXPAVPluginInterface@@@Z 100534b5 f i RakClient.obj
 0001:000524c0       ?Disconnect@RakClient@@UAEXIE@Z 100534c0 f   RakClient.obj
 0001:0005250a       ?Disconnect@RakClient@@WJOK@AEXIE@Z 1005350a f i RakClient.obj
 0001:00052520       ?GenerateCompressionLayer@RakClient@@UAE_NQAI_N@Z 10053520 f   RakClient.obj
 0001:0005256a       ?GenerateCompressionLayer@RakClient@@WJOK@AE_NQAI_N@Z 1005356a f i RakClient.obj
 0001:00052580       ?GetAveragePing@RakClient@@UAEHXZ 10053580 f   RakClient.obj
 0001:00052600       ?GetCompressionRatio@RakClient@@UBEMXZ 10053600 f   RakClient.obj
 0001:0005263f       ?GetCompressionRatio@RakClient@@WJOK@BEMXZ 1005363f f i RakClient.obj
 0001:00052650       ?GetDecompressionRatio@RakClient@@UBEMXZ 10053650 f   RakClient.obj
 0001:0005268f       ?GetDecompressionRatio@RakClient@@WJOK@BEMXZ 1005368f f i RakClient.obj
 0001:000526a0       ?GetFreeOtherClientIndex@RakClient@@AAEHXZ 100536a0 f   RakClient.obj
 0001:00052710       ?GetInternalID@RakClient@@UBE?AUPlayerID@@XZ 10053710 f   RakClient.obj
 0001:00052758       ?GetInternalID@RakClient@@WJOK@BE?AUPlayerID@@XZ 10053758 f i RakClient.obj
 0001:00052770       ?GetLastPing@RakClient@@UBEHXZ 10053770 f   RakClient.obj
 0001:000527f0       ?GetLowestPing@RakClient@@UBEHXZ 100537f0 f   RakClient.obj
 0001:00052870       ?GetMTUSize@RakClient@@UBEHXZ 10053870 f   RakClient.obj
 0001:000528af       ?GetMTUSize@RakClient@@WJOK@BEHXZ 100538af f i RakClient.obj
 0001:000528c0       ?GetNumberOfBytesUsed@BitStream@RakNet@@QBEHXZ 100538c0 f i RakClient.obj
 0001:00052900       ?GetOtherClientIndexByPlayerID@RakClient@@AAEHUPlayerID@@@Z 10053900 f   RakClient.obj
 0001:00052980       ?GetPlayerID@RakClient@@UBE?AUPlayerID@@XZ 10053980 f   RakClient.obj
 0001:00052a90       ?GetPlayerIndex@RakClient@@UAEGXZ 10053a90 f   RakClient.obj
 0001:00052ad0       ?GetPlayerPing@RakClient@@UAEHUPlayerID@@@Z 10053ad0 f   RakClient.obj
 0001:00052b60       ?GetReadOffset@BitStream@RakNet@@QBEHXZ 10053b60 f i RakClient.obj
 0001:00052b90       ?GetSendFrequencyTable@RakClient@@UAE_NQAI@Z 10053b90 f   RakClient.obj
 0001:00052be0       ?GetServerID@RakClient@@UBE?AUPlayerID@@XZ 10053be0 f   RakClient.obj
 0001:00052c60       ?GetStaticClientData@RakClient@@UAEPAVBitStream@RakNet@@UPlayerID@@@Z 10053c60 f   RakClient.obj
 0001:00052d00       ?GetStaticServerData@RakClient@@UAEPAVBitStream@RakNet@@XZ 10053d00 f   RakClient.obj
 0001:00052d80       ?GetStatistics@RakClient@@UAEQAURakNetStatisticsStruct@@XZ 10053d80 f   RakClient.obj
 0001:00052df0       ?GetSynchronizedRandomInteger@RakClient@@UBEIXZ 10053df0 f   RakClient.obj
 0001:00052e50       ?HasPassword@RakClient@@UBE_NXZ 10053e50 f   RakClient.obj
 0001:00052ec0       ?InitializeSecurity@RakClient@@UAEXPBD0@Z 10053ec0 f   RakClient.obj
 0001:00052f20       ?Instance@SocketLayer@@SAPAV1@XZ 10053f20 f i RakClient.obj
 0001:00052f50       ?IsConnected@RakClient@@UBE_NXZ 10053f50 f   RakClient.obj
 0001:00053000       ?IsNetworkSimulatorActive@RakClient@@UAE_NXZ 10054000 f   RakClient.obj
 0001:0005303f       ?IsNetworkSimulatorActive@RakClient@@WJOK@AE_NXZ 1005403f f i RakClient.obj
 0001:00053050       ?PingServer@RakClient@@UAEXPBDGG_N@Z 10054050 f   RakClient.obj
 0001:000530c0       ?PingServer@RakClient@@UAEXXZ 100540c0 f   RakClient.obj
 0001:00053140       ?PlayerIDToDottedIP@RakClient@@UBEPBDUPlayerID@@@Z 10054140 f   RakClient.obj
 0001:00053193       ?PlayerIDToDottedIP@RakClient@@WJOK@BEPBDUPlayerID@@@Z 10054193 f i RakClient.obj
 0001:000531a0       ?PushBackPacket@RakClient@@UAEXPAUPacket@@_N@Z 100541a0 f   RakClient.obj
 0001:000531ea       ?PushBackPacket@RakClient@@WJOK@AEXPAUPacket@@_N@Z 100541ea f i RakClient.obj
 0001:00053200       ?RPC@RakClient@@UAE_NPADPAVBitStream@RakNet@@W4PacketPriority@@W4PacketReliability@@D_N@Z 10054200 f   RakClient.obj
 0001:000532b0       ?RPC@RakClient@@UAE_NPADPAVBitStream@RakNet@@W4PacketPriority@@W4PacketReliability@@D_NUNetworkID@@1@Z 100542b0 f   RakClient.obj
 0001:00053360       ?RPC@RakClient@@UAE_NPADPBDIW4PacketPriority@@W4PacketReliability@@D_NUNetworkID@@PAVBitStream@RakNet@@@Z 10054360 f   RakClient.obj
 0001:00053410       ?Receive@RakClient@@UAEPAUPacket@@XZ 10054410 f   RakClient.obj
 0001:00053c1c       ?Receive@RakClient@@WJOK@AEPAUPacket@@XZ 10054c1c f i RakClient.obj
 0001:00053c30       ?RegisterAsRemoteProcedureCall@RakClient@@UAEXPADP6AXPAURPCParameters@@@Z@Z 10054c30 f   RakClient.obj
 0001:00053c79       ?RegisterAsRemoteProcedureCall@RakClient@@WJOK@AEXPADP6AXPAURPCParameters@@@Z@Z 10054c79 f i RakClient.obj
 0001:00053c90       ?RegisterClassMemberRPC@RakClient@@UAEXPADPAX@Z 10054c90 f   RakClient.obj
 0001:00053cd9       ?RegisterClassMemberRPC@RakClient@@WJOK@AEXPADPAX@Z 10054cd9 f i RakClient.obj
 0001:00053cf0       ?RemoveRouterInterface@RakClient@@UAEXPAVRouterInterface@@@Z 10054cf0 f   RakClient.obj
 0001:00053d35       ?RemoveRouterInterface@RakClient@@WJOK@AEXPAVRouterInterface@@@Z 10054d35 f i RakClient.obj
 0001:00053d40       ?Send@RakClient@@UAE_NPAVBitStream@RakNet@@W4PacketPriority@@W4PacketReliability@@D@Z 10054d40 f   RakClient.obj
 0001:00053dd0       ?Send@RakClient@@UAE_NPBDHW4PacketPriority@@W4PacketReliability@@D@Z 10054dd0 f   RakClient.obj
 0001:00053e70       ?SendStaticClientDataToServer@RakClient@@UAEXXZ 10054e70 f   RakClient.obj
 0001:00053ef0       ?SetMTUSize@RakClient@@UAE_NH@Z 10054ef0 f   RakClient.obj
 0001:00053f35       ?SetMTUSize@RakClient@@WJOK@AE_NH@Z 10054f35 f i RakClient.obj
 0001:00053f40       ?SetPassword@RakClient@@UAEXPBD@Z 10054f40 f   RakClient.obj
 0001:00053fd0       ?SetRouterInterface@RakClient@@UAEXPAVRouterInterface@@@Z 10054fd0 f   RakClient.obj
 0001:00054015       ?SetRouterInterface@RakClient@@WJOK@AEXPAVRouterInterface@@@Z 10055015 f i RakClient.obj
 0001:00054020       ?SetStaticClientData@RakClient@@UAEXUPlayerID@@PBDH@Z 10055020 f   RakClient.obj
 0001:00054120       ?SetStaticServerData@RakClient@@UAEXPBDH@Z 10055120 f   RakClient.obj
 0001:000541b0       ?SetTimeoutTime@RakClient@@UAEXI@Z 100551b0 f   RakClient.obj
 0001:00054230       ?SetTrackFrequencyTable@RakClient@@UAEX_N@Z 10055230 f   RakClient.obj
 0001:00054280       ?StartOccasionalPing@RakClient@@UAEXXZ 10055280 f   RakClient.obj
 0001:000542d0       ?StopOccasionalPing@RakClient@@UAEXXZ 100552d0 f   RakClient.obj
 0001:00054320       ?UnregisterAsRemoteProcedureCall@RakClient@@UAEXPAD@Z 10055320 f   RakClient.obj
 0001:00054365       ?UnregisterAsRemoteProcedureCall@RakClient@@WJOK@AEXPAD@Z 10055365 f i RakClient.obj
 0001:00054370       ??0RakNetCommandParser@@QAE@XZ 10055370 f   RakNetCommandParser.obj
 0001:000546f0       ??1RakNetCommandParser@@UAE@XZ 100556f0 f   RakNetCommandParser.obj
 0001:00054740       ??_GRakNetCommandParser@@UAEPAXI@Z 10055740 f i RakNetCommandParser.obj
 0001:00054740       ??_ERakNetCommandParser@@UAEPAXI@Z 10055740 f i RakNetCommandParser.obj
 0001:000547a0       ?GetName@RakNetCommandParser@@UBEPADXZ 100557a0 f   RakNetCommandParser.obj
 0001:000547d0       ?OnCommand@RakNetCommandParser@@UAE_NPBDIPAPADPAVTransportInterface@@UPlayerID@@0@Z 100557d0 f   RakNetCommandParser.obj
 0001:000561a0       ?SendHelp@RakNetCommandParser@@UAEXPAVTransportInterface@@UPlayerID@@@Z 100571a0 f   RakNetCommandParser.obj
 0001:000562b0       ?SetRakPeerInterface@RakNetCommandParser@@QAEXPAVRakPeerInterface@@@Z 100572b0 f   RakNetCommandParser.obj
 0001:000562f0       ?StatisticsToString@@YAXPAURakNetStatisticsStruct@@PADH@Z 100572f0 f   RakNetStatistics.obj
 0001:00056b90       ??0?$Queue@UPlayerID@@@DataStructures@@QAE@XZ 10057b90 f i RakNetTransport.obj
 0001:00056c20       ??0RakNetTransport@@QAE@XZ 10057c20 f   RakNetTransport.obj
 0001:00056ce0       ??0RakNetTransportCommandParser@@QAE@XZ 10057ce0 f   RakNetTransport.obj
 0001:00056da0       ??0TransportInterface@@QAE@XZ 10057da0 f i RakNetTransport.obj
 0001:00056de0       ??1?$Queue@UPlayerID@@@DataStructures@@QAE@XZ 10057de0 f i RakNetTransport.obj
 0001:00056e40       ??1RakNetTransport@@QAE@XZ 10057e40 f   RakNetTransport.obj
 0001:00056f00       ??1RakNetTransportCommandParser@@UAE@XZ 10057f00 f   RakNetTransport.obj
 0001:00056f50       ??_GRakNetTransportCommandParser@@UAEPAXI@Z 10057f50 f i RakNetTransport.obj
 0001:00056f50       ??_ERakNetTransportCommandParser@@UAEPAXI@Z 10057f50 f i RakNetTransport.obj
 0001:00056fb0       ?AutoAllocate@RakNetTransport@@IAEXXZ 10057fb0 f   RakNetTransport.obj
 0001:00057000       ?Clear@?$Queue@UPlayerID@@@DataStructures@@QAEXXZ 10058000 f i RakNetTransport.obj
 0001:00057090       ?CloseConnection@RakNetTransport@@UAEXUPlayerID@@@Z 10058090 f   RakNetTransport.obj
 0001:00057100       ?DeallocatePacket@RakNetTransport@@UAEXPAUPacket@@@Z 10058100 f   RakNetTransport.obj
 0001:00057180       ?GetCommandParser@RakNetTransport@@UAEPAVCommandParserInterface@@XZ 10058180 f   RakNetTransport.obj
 0001:000571b0       ?GetIncomingPassword@RakNetTransport@@QAEPADXZ 100581b0 f   RakNetTransport.obj
 0001:00057280       ?GetName@RakNetTransportCommandParser@@UBEPADXZ 10058280 f   RakNetTransport.obj
 0001:000572b0       ?HasLostConnection@RakNetTransport@@UAE?AUPlayerID@@XZ 100582b0 f   RakNetTransport.obj
 0001:00057330       ?HasNewConnection@RakNetTransport@@UAE?AUPlayerID@@XZ 10058330 f   RakNetTransport.obj
 0001:000573b0       ?OnCommand@RakNetTransportCommandParser@@UAE_NPBDIPAPADPAVTransportInterface@@UPlayerID@@0@Z 100583b0 f   RakNetTransport.obj
 0001:00057560       ?Pop@?$Queue@UPlayerID@@@DataStructures@@QAE?AUPlayerID@@XZ 10058560 f i RakNetTransport.obj
 0001:00057690       ?Push@?$Queue@UPlayerID@@@DataStructures@@QAEXABUPlayerID@@@Z 10058690 f i RakNetTransport.obj
 0001:00057860       ?Receive@RakNetTransport@@UAEPAUPacket@@XZ 10058860 f   RakNetTransport.obj
 0001:00057990       ?Send@RakNetTransport@@UAAXUPlayerID@@PBDZZ 10058990 f   RakNetTransport.obj
 0001:00057b90       ?SendHelp@RakNetTransportCommandParser@@UAEXPAVTransportInterface@@UPlayerID@@@Z 10058b90 f   RakNetTransport.obj
 0001:00057c30       ?SetIncomingPassword@RakNetTransport@@QAEXPBD@Z 10058c30 f   RakNetTransport.obj
 0001:00057cd0       ?Size@?$Queue@UPlayerID@@@DataStructures@@QBEIXZ 10058cd0 f i RakNetTransport.obj
 0001:00057d30       ?Start@RakNetTransport@@UAE_NG_N@Z 10058d30 f   RakNetTransport.obj
 0001:00057df0       ?Stop@RakNetTransport@@UAEXXZ 10058df0 f   RakNetTransport.obj
 0001:00057e70       ??0PacketFileLogger@@QAE@XZ 10058e70 f i RakNetworkFactory.obj
 0001:00057ec0       ??_GConnectionGraph@@QAEPAXI@Z 10058ec0 f i RakNetworkFactory.obj
 0001:00057f20       ??_GConsoleServer@@QAEPAXI@Z 10058f20 f i RakNetworkFactory.obj
 0001:00057f80       ??_GRakNetTransport@@QAEPAXI@Z 10058f80 f i RakNetworkFactory.obj
 0001:00057fe0       ??_GReplicaManager@@QAEPAXI@Z 10058fe0 f i RakNetworkFactory.obj
 0001:00058040       ??_GRouter@@QAEPAXI@Z      10059040 f i RakNetworkFactory.obj
 0001:000580a0       ??_GTelnetTransport@@QAEPAXI@Z 100590a0 f i RakNetworkFactory.obj
 0001:00058100       ?DestroyConnectionGraph@RakNetworkFactory@@SAXPAVConnectionGraph@@@Z 10059100 f   RakNetworkFactory.obj
 0001:00058170       ?DestroyConsoleServer@RakNetworkFactory@@SAXPAVConsoleServer@@@Z 10059170 f   RakNetworkFactory.obj
 0001:000581e0       ?DestroyLogCommandParser@RakNetworkFactory@@SAXPAVLogCommandParser@@@Z 100591e0 f   RakNetworkFactory.obj
 0001:00058260       ?DestroyPacketConsoleLogger@RakNetworkFactory@@SAXPAVPacketConsoleLogger@@@Z 10059260 f   RakNetworkFactory.obj
 0001:000582e0       ?DestroyPacketFileLogger@RakNetworkFactory@@SAXPAVPacketFileLogger@@@Z 100592e0 f   RakNetworkFactory.obj
 0001:00058360       ?DestroyPacketLogger@RakNetworkFactory@@SAXPAVPacketLogger@@@Z 10059360 f   RakNetworkFactory.obj
 0001:000583e0       ?DestroyRakClientInterface@RakNetworkFactory@@SAXPAVRakClientInterface@@@Z 100593e0 f   RakNetworkFactory.obj
 0001:00058490       ?DestroyRakNetCommandParser@RakNetworkFactory@@SAXPAVRakNetCommandParser@@@Z 10059490 f   RakNetworkFactory.obj
 0001:00058510       ?DestroyRakNetTransport@RakNetworkFactory@@SAXPAVRakNetTransport@@@Z 10059510 f   RakNetworkFactory.obj
 0001:00058580       ?DestroyRakPeerInterface@RakNetworkFactory@@SAXPAVRakPeerInterface@@@Z 10059580 f   RakNetworkFactory.obj
 0001:00058600       ?DestroyRakServerInterface@RakNetworkFactory@@SAXPAVRakServerInterface@@@Z 10059600 f   RakNetworkFactory.obj
 0001:00058680       ?DestroyReplicaManager@RakNetworkFactory@@SAXPAVReplicaManager@@@Z 10059680 f   RakNetworkFactory.obj
 0001:000586f0       ?DestroyRouter@RakNetworkFactory@@SAXPAVRouter@@@Z 100596f0 f   RakNetworkFactory.obj
 0001:00058760       ?DestroyTelnetTransport@RakNetworkFactory@@SAXPAVTelnetTransport@@@Z 10059760 f   RakNetworkFactory.obj
 0001:000587d0       ?GetConnectionGraph@RakNetworkFactory@@SAPAVConnectionGraph@@XZ 100597d0 f   RakNetworkFactory.obj
 0001:00058890       ?GetConsoleServer@RakNetworkFactory@@SAPAVConsoleServer@@XZ 10059890 f   RakNetworkFactory.obj
 0001:00058950       ?GetLogCommandParser@RakNetworkFactory@@SAPAVLogCommandParser@@XZ 10059950 f   RakNetworkFactory.obj
 0001:00058a10       ?GetPacketConsoleLogger@RakNetworkFactory@@SAPAVPacketConsoleLogger@@XZ 10059a10 f   RakNetworkFactory.obj
 0001:00058ad0       ?GetPacketFileLogger@RakNetworkFactory@@SAPAVPacketFileLogger@@XZ 10059ad0 f   RakNetworkFactory.obj
 0001:00058b90       ?GetPacketLogger@RakNetworkFactory@@SAPAVPacketLogger@@XZ 10059b90 f   RakNetworkFactory.obj
 0001:00058c50       ?GetRakClientInterface@RakNetworkFactory@@SAPAVRakClientInterface@@XZ 10059c50 f   RakNetworkFactory.obj
 0001:00058d30       ?GetRakNetCommandParser@RakNetworkFactory@@SAPAVRakNetCommandParser@@XZ 10059d30 f   RakNetworkFactory.obj
 0001:00058df0       ?GetRakNetTransport@RakNetworkFactory@@SAPAVRakNetTransport@@XZ 10059df0 f   RakNetworkFactory.obj
 0001:00058eb0       ?GetRakPeerInterface@RakNetworkFactory@@SAPAVRakPeerInterface@@XZ 10059eb0 f   RakNetworkFactory.obj
 0001:00058f70       ?GetRakServerInterface@RakNetworkFactory@@SAPAVRakServerInterface@@XZ 10059f70 f   RakNetworkFactory.obj
 0001:00059030       ?GetReplicaManager@RakNetworkFactory@@SAPAVReplicaManager@@XZ 1005a030 f   RakNetworkFactory.obj
 0001:000590f0       ?GetRouter@RakNetworkFactory@@SAPAVRouter@@XZ 1005a0f0 f   RakNetworkFactory.obj
 0001:000591b0       ?GetTelnetTransport@RakNetworkFactory@@SAPAVTelnetTransport@@XZ 1005a1b0 f   RakNetworkFactory.obj
 0001:00059270       ??$CRTModExp@$$BY03I$$BY07I@big@@YAXAAY07I00AAY03I111111@Z 1005a270 f i RakPeer.obj
 0001:000595b0       ??$GCD@$$BY07I@big@@YAXAAY07I00@Z 1005a5b0 f i RakPeer.obj
 0001:00059700       ??$RabinMillerPrimalityTest@$$BY03I@big@@YA_NAAY03II@Z 1005a700 f i RakPeer.obj
 0001:00059aa0       ??$Read@UNetworkID@@@BitStream@RakNet@@QAE_NAAUNetworkID@@@Z 1005aaa0 f i RakPeer.obj
 0001:00059b00       ??$SubMulMod@$$BY03I@big@@YAXAAY03I0000@Z 1005ab00 f i RakPeer.obj
 0001:00059c40       ??$SubMulMod@$$BY07I@big@@YAXAAY07I0000@Z 1005ac40 f i RakPeer.obj
 0001:00059d90       ??$Write@UNetworkID@@@BitStream@RakNet@@QAEXUNetworkID@@@Z 1005ad90 f i RakPeer.obj
 0001:00059e00       ??$add@$$BY03I@big@@YAXAAY03I0@Z 1005ae00 f i RakPeer.obj
 0001:00059e80       ??$add@$$BY07I@big@@YAXAAY07I0@Z 1005ae80 f i RakPeer.obj
 0001:00059f00       ??$add@$$BY0BA@I@big@@YAXAAY0BA@I0@Z 1005af00 f i RakPeer.obj
 0001:00059f80       ??$computeModularInverse@$$BY03I@big@@YAXAAY03I00@Z 1005af80 f i RakPeer.obj
 0001:0005a2f0       ??$computeModularInverse@$$BY07I@big@@YAXAAY07I00@Z 1005b2f0 f i RakPeer.obj
 0001:0005a6b0       ??$computeNRinverse@$$BY03I@big@@YAXAAY03I0@Z 1005b6b0 f i RakPeer.obj
 0001:0005a790       ??$computeNRinverse@$$BY07I@big@@YAXAAY07I0@Z 1005b790 f i RakPeer.obj
 0001:0005a880       ??$computePrivateExponent@$$BY07I@big@@YAXAAY07I00@Z 1005b880 f i RakPeer.obj
 0001:0005a8d0       ??$computePublicExponent@$$BY07I@big@@YAXAAY07I0@Z 1005b8d0 f i RakPeer.obj
 0001:0005a9f0       ??$computeRinverse@$$BY03I@big@@YAXAAY03I0@Z 1005b9f0 f i RakPeer.obj
 0001:0005add0       ??$computeRinverse@$$BY07I@big@@YAXAAY07I0@Z 1005bdd0 f i RakPeer.obj
 0001:0005b210       ??$decrement@$$BY03I@big@@YAXAAY03I@Z 1005c210 f i RakPeer.obj
 0001:0005b280       ??$decrement@$$BY07I@big@@YAXAAY07I@Z 1005c280 f i RakPeer.obj
 0001:0005b2f0       ??$decrement@$$BY0BA@I@big@@YAXAAY0BA@I@Z 1005c2f0 f i RakPeer.obj
 0001:0005b360       ??$equal@$$BY03I@big@@YA_NAAY03I0@Z 1005c360 f i RakPeer.obj
 0001:0005b3d0       ??$equal@$$BY07I@big@@YA_NAAY07I0@Z 1005c3d0 f i RakPeer.obj
 0001:0005b440       ??$generateStrongPseudoPrime@$$BY03I@big@@YAXAAY03I@Z 1005c440 f i RakPeer.obj
 0001:0005b4f0       ??$isZero@$$BY03I@big@@YA_NAAY03I@Z 1005c4f0 f i RakPeer.obj
 0001:0005b550       ??$isZero@$$BY07I@big@@YA_NAAY07I@Z 1005c550 f i RakPeer.obj
 0001:0005b5b0       ??$rModn@$$BY03I@big@@YAXAAY03I0@Z 1005c5b0 f i RakPeer.obj
 0001:0005b6b0       ??$rModn@$$BY07I@big@@YAXAAY07I0@Z 1005c6b0 f i RakPeer.obj
 0001:0005b7c0       ??$set@$$BY03I@big@@YAXAAY03I0@Z 1005c7c0 f i RakPeer.obj
 0001:0005b810       ??$set@$$BY07I@big@@YAXAAY07I0@Z 1005c810 f i RakPeer.obj
 0001:0005b860       ??$set@$$BY0BA@I@big@@YAXAAY0BA@I0@Z 1005c860 f i RakPeer.obj
 0001:0005b8b0       ??$setPrivateKey@$$BY03I@?$RSACrypt@$$BY07I@big@@QAEXAAY03I0@Z 1005c8b0 f i RakPeer.obj
 0001:0005bb30       ??$sethigh@$$BY03I$$BY07I@big@@YAXAAY07IAAY03I@Z 1005cb30 f i RakPeer.obj
 0001:0005bb90       ??$sethigh@$$BY07I$$BY0BA@I@big@@YAXAAY0BA@IAAY07I@Z 1005cb90 f i RakPeer.obj
 0001:0005bbf0       ??$shiftLeft1@$$BY03I@big@@YAXAAY03I@Z 1005cbf0 f i RakPeer.obj
 0001:0005bc60       ??$shiftLeft1@$$BY07I@big@@YAXAAY07I@Z 1005cc60 f i RakPeer.obj
 0001:0005bcd0       ??$shiftLeft1@$$BY0BA@I@big@@YAXAAY0BA@I@Z 1005ccd0 f i RakPeer.obj
 0001:0005bd40       ??$shiftLeft@$$BY03I@big@@YAXAAY03II@Z 1005cd40 f i RakPeer.obj
 0001:0005be30       ??$shiftLeft@$$BY07I@big@@YAXAAY07II@Z 1005ce30 f i RakPeer.obj
 0001:0005bf20       ??$shiftLeft@$$BY0BA@I@big@@YAXAAY0BA@II@Z 1005cf20 f i RakPeer.obj
 0001:0005c010       ??$simpleModExp@$$BY03I@big@@YAXAAY03I000@Z 1005d010 f i RakPeer.obj
 0001:0005c230       ??$simpleModExp@$$BY07I@big@@YAXAAY07I000@Z 1005d230 f i RakPeer.obj
 0001:0005c460       ??$subtract@$$BY03I@big@@YAXAAY03I0@Z 1005d460 f i RakPeer.obj
 0001:0005c4e0       ??$subtract@$$BY07I@big@@YAXAAY07I0@Z 1005d4e0 f i RakPeer.obj
 0001:0005c560       ??$subtract@$$BY0BA@I@big@@YAXAAY0BA@I0@Z 1005d560 f i RakPeer.obj
 0001:0005c5e0       ??$takelow@$$BY03I$$BY07I@big@@YAXAAY03IAAY07I@Z 1005d5e0 f i RakPeer.obj
 0001:0005c630       ??$takelow@$$BY07I$$BY0BA@I@big@@YAXAAY07IAAY0BA@I@Z 1005d630 f i RakPeer.obj
 0001:0005c680       ??$udivide@$$BY03I@big@@YAXAAY03I000@Z 1005d680 f i RakPeer.obj
 0001:0005c920       ??$udivide@$$BY07I@big@@YAXAAY07I000@Z 1005d920 f i RakPeer.obj
 0001:0005cbc0       ??$udivide@$$BY0BA@I@big@@YAXAAY0BA@I000@Z 1005dbc0 f i RakPeer.obj
 0001:0005ce60       ??$ugreater@$$BY03I@big@@YA_NAAY03I0@Z 1005de60 f i RakPeer.obj
 0001:0005cee0       ??$ugreater@$$BY07I@big@@YA_NAAY07I0@Z 1005dee0 f i RakPeer.obj
 0001:0005cf60       ??$ugreater@$$BY0BA@I@big@@YA_NAAY0BA@I0@Z 1005df60 f i RakPeer.obj
 0001:0005cfe0       ??$umodulo@$$BY03I@big@@YAXAAY03I00@Z 1005dfe0 f i RakPeer.obj
 0001:0005d220       ??$umodulo@$$BY07I@big@@YAXAAY07I00@Z 1005e220 f i RakPeer.obj
 0001:0005d460       ??$umodulo@$$BY0BA@I@big@@YAXAAY0BA@I00@Z 1005e460 f i RakPeer.obj
 0001:0005d6a0       ??$umultiply@$$BY03I$$BY07I@big@@YAXAAY03I0AAY07I@Z 1005e6a0 f i RakPeer.obj
 0001:0005d7d0       ??$umultiply@$$BY03I$$BY07I@big@@YAXAAY07IAAY03I@Z 1005e7d0 f i RakPeer.obj
 0001:0005d900       ??$umultiply@$$BY07I$$BY07I@big@@YAXAAY07I00@Z 1005e900 f i RakPeer.obj
 0001:0005da30       ??$umultiply@$$BY07I$$BY07I@big@@YAXAAY07I0@Z 1005ea30 f i RakPeer.obj
 0001:0005db60       ??$umultiply@$$BY07I$$BY0BA@I@big@@YAXAAY0BA@IAAY07I@Z 1005eb60 f i RakPeer.obj
 0001:0005dc90       ??$umultiply@$$BY0BA@I$$BY0BA@I@big@@YAXAAY0BA@I00@Z 1005ec90 f i RakPeer.obj
 0001:0005ddc0       ??$usetlow@$$BY03I$$BY07I@big@@YAXAAY07IAAY03I@Z 1005edc0 f i RakPeer.obj
 0001:0005de20       ??$usetlow@$$BY07I$$BY07I@big@@YAXAAY07I0@Z 1005ee20 f i RakPeer.obj
 0001:0005de80       ??$usetlow@$$BY07I$$BY0BA@I@big@@YAXAAY0BA@IAAY07I@Z 1005ee80 f i RakPeer.obj
 0001:0005dee0       ??$usetlow@$$BY0BA@I$$BY0BA@I@big@@YAXAAY0BA@I0@Z 1005eee0 f i RakPeer.obj
 0001:0005df40       ??$usetw@$$BY03I@big@@YAXAAY03II@Z 1005ef40 f i RakPeer.obj
 0001:0005dfa0       ??$usetw@$$BY07I@big@@YAXAAY07II@Z 1005efa0 f i RakPeer.obj
 0001:0005e000       ??$usetw@$$BY0BA@I@big@@YAXAAY0BA@II@Z 1005f000 f i RakPeer.obj
 0001:0005e060       ??$ushiftRight1@$$BY03I@big@@YAXAAY03I@Z 1005f060 f i RakPeer.obj
 0001:0005e0d0       ??$ushiftRight1@$$BY07I@big@@YAXAAY07I@Z 1005f0d0 f i RakPeer.obj
 0001:0005e140       ??$ushiftRight1@$$BY0BA@I@big@@YAXAAY0BA@I@Z 1005f140 f i RakPeer.obj
 0001:0005e1b0       ??$usquare@$$BY07I@big@@YAXAAY07I@Z 1005f1b0 f i RakPeer.obj
 0001:0005e300       ??$usquare@$$BY0BA@I@big@@YAXAAY0BA@I@Z 1005f300 f i RakPeer.obj
 0001:0005e4a0       ??$zero@$$BY03I@big@@YAXAAY03I@Z 1005f4a0 f i RakPeer.obj
 0001:0005e4f0       ??$zero@$$BY07I@big@@YAXAAY07I@Z 1005f4f0 f i RakPeer.obj
 0001:0005e540       ??$zero@$$BY0BA@I@big@@YAXAAY0BA@I@Z 1005f540 f i RakPeer.obj
 0001:0005e590       ??0?$List@PAUBanStruct@RakPeer@@@DataStructures@@QAE@XZ 1005f590 f i RakPeer.obj
 0001:0005e5e0       ??0?$List@PAVPluginInterface@@@DataStructures@@QAE@XZ 1005f5e0 f i RakPeer.obj
 0001:0005e630       ??0?$List@UPlayerIDAndIndex@@@DataStructures@@QAE@XZ 1005f630 f i RakPeer.obj
 0001:0005e680       ??0?$OrderedList@UPlayerID@@UPlayerIDAndIndex@@$1?PlayerIDAndIndexComp@@YAHABU1@ABU2@@Z@DataStructures@@QAE@XZ 1005f680 f i RakPeer.obj
 0001:0005e6d0       ??0?$Queue@PAUPacket@@@DataStructures@@QAE@XZ 1005f6d0 f i RakPeer.obj
 0001:0005e760       ??0?$RSACrypt@$$BY07I@big@@QAE@XZ 1005f760 f i RakPeer.obj
 0001:0005e7b0       ??0?$SingleProducerConsumer@PAUPacket@@@DataStructures@@QAE@XZ 1005f7b0 f i RakPeer.obj
 0001:0005e8d0       ??0?$SingleProducerConsumer@UBufferedCommandStruct@RakPeer@@@DataStructures@@QAE@XZ 1005f8d0 f i RakPeer.obj
 0001:0005e9f0       ??0?$SingleProducerConsumer@URequestedConnectionStruct@RakPeer@@@DataStructures@@QAE@XZ 1005f9f0 f i RakPeer.obj
 0001:0005eb20       ??0RakPeer@@QAE@XZ         1005fb20 f   RakPeer.obj
 0001:0005ee30       ??0RakPeerInterface@@QAE@XZ 1005fe30 f i RakPeer.obj
 0001:0005ee70       ??0RemoteSystemStruct@RakPeer@@QAE@XZ 1005fe70 f i RakPeer.obj
 0001:0005ef10       ??1?$List@PAUBanStruct@RakPeer@@@DataStructures@@QAE@XZ 1005ff10 f i RakPeer.obj
 0001:0005ef70       ??1?$List@PAVPluginInterface@@@DataStructures@@QAE@XZ 1005ff70 f i RakPeer.obj
 0001:0005efd0       ??1?$List@UPlayerIDAndIndex@@@DataStructures@@QAE@XZ 1005ffd0 f i RakPeer.obj
 0001:0005f030       ??1?$OrderedList@UPlayerID@@UPlayerIDAndIndex@@$1?PlayerIDAndIndexComp@@YAHABU1@ABU2@@Z@DataStructures@@QAE@XZ 10060030 f i RakPeer.obj
 0001:0005f0b0       ??1?$Queue@PAUPacket@@@DataStructures@@QAE@XZ 100600b0 f i RakPeer.obj
 0001:0005f110       ??1?$RSACrypt@$$BY07I@big@@QAE@XZ 10060110 f i RakPeer.obj
 0001:0005f150       ??1?$SingleProducerConsumer@PAUPacket@@@DataStructures@@QAE@XZ 10060150 f i RakPeer.obj
 0001:0005f200       ??1?$SingleProducerConsumer@UBufferedCommandStruct@RakPeer@@@DataStructures@@QAE@XZ 10060200 f i RakPeer.obj
 0001:0005f2b0       ??1?$SingleProducerConsumer@URequestedConnectionStruct@RakPeer@@@DataStructures@@QAE@XZ 100602b0 f i RakPeer.obj
 0001:0005f360       ??1RakPeer@@UAE@XZ         10060360 f   RakPeer.obj
 0001:0005f500       ??1RakPeerInterface@@UAE@XZ 10060500 f i RakPeer.obj
 0001:0005f540       ??1RemoteSystemStruct@RakPeer@@QAE@XZ 10060540 f i RakPeer.obj
 0001:0005f5e0       ??4PlayerIDAndIndex@@QAEAAU0@ABU0@@Z 100605e0 f i RakPeer.obj
 0001:0005f640       ??A?$List@PAUBanStruct@RakPeer@@@DataStructures@@QBEAAPAUBanStruct@RakPeer@@I@Z 10060640 f i RakPeer.obj
 0001:0005f6b0       ??A?$List@PAVPluginInterface@@@DataStructures@@QBEAAPAVPluginInterface@@I@Z 100606b0 f i RakPeer.obj
 0001:0005f720       ??A?$List@UPlayerIDAndIndex@@@DataStructures@@QBEAAUPlayerIDAndIndex@@I@Z 10060720 f i RakPeer.obj
 0001:0005f790       ??A?$OrderedList@UPlayerID@@UPlayerIDAndIndex@@$1?PlayerIDAndIndexComp@@YAHABU1@ABU2@@Z@DataStructures@@QBEAAUPlayerIDAndIndex@@I@Z 10060790 f i RakPeer.obj
 0001:0005f7e0       ??A?$Queue@PAUPacket@@@DataStructures@@QBEAAPAUPacket@@I@Z 100607e0 f i RakPeer.obj
 0001:0005f880       ??YRakNetStatisticsStruct@@QAE?AU0@ABU0@@Z 10060880 f i RakPeer.obj
 0001:0005fbf0       ??_ERemoteSystemStruct@RakPeer@@QAEPAXI@Z 10060bf0 f i RakPeer.obj
 0001:0005fc90       ??_GHuffmanEncodingTree@@QAEPAXI@Z 10060c90 f i RakPeer.obj
 0001:0005fcf0       ??_ERakPeer@@UAEPAXI@Z     10060cf0 f i RakPeer.obj
 0001:0005fcf0       ??_GRakPeer@@UAEPAXI@Z     10060cf0 f i RakPeer.obj
 0001:0005fd50       ??_GRakPeerInterface@@UAEPAXI@Z 10060d50 f i RakPeer.obj
 0001:0005fd50       ??_ERakPeerInterface@@UAEPAXI@Z 10060d50 f i RakPeer.obj
 0001:0005fdb0       ?AddPacketToProducer@RakPeer@@IAEXPAUPacket@@@Z 10060db0 f i RakPeer.obj
 0001:0005fe10       ?AddToBanList@RakPeer@@UAEXPBDI@Z 10060e10 f   RakPeer.obj
 0001:0005ffe0       ?AdvertiseSystem@RakPeer@@UAEXPBDG0H@Z 10060fe0 f   RakPeer.obj
 0001:000602a0       ?AllocPacket@@YAPAUPacket@@I@Z 100612a0 f   RakPeer.obj
 0001:00060310       ?AllocPacket@@YAPAUPacket@@IPAE@Z 10061310 f   RakPeer.obj
 0001:00060370       ?AllowConnectionResponseIPMigration@RakPeer@@UAEX_N@Z 10061370 f   RakPeer.obj
 0001:000603b0       ?AllowIncomingConnections@RakPeer@@IBE_NXZ 100613b0 f   RakPeer.obj
 0001:00060430       ?ApplyNetworkSimulator@RakPeer@@UAEXNGG@Z 10061430 f   RakPeer.obj
 0001:00060500       ?AssignPlayerIDToRemoteSystemList@RakPeer@@IAEPAURemoteSystemStruct@1@UPlayerID@@W4ConnectMode@21@@Z 10061500 f   RakPeer.obj
 0001:00060760       ?AttachPlugin@RakPeer@@UAEXPAVPluginInterface@@@Z 10061760 f   RakPeer.obj
 0001:000607e0       ?CancelReadLock@?$SingleProducerConsumer@URequestedConnectionStruct@RakPeer@@@DataStructures@@QAEXPAURequestedConnectionStruct@RakPeer@@@Z 100617e0 f i RakPeer.obj
 0001:00060850       ?Clear@?$List@PAUBanStruct@RakPeer@@@DataStructures@@QAEX_N@Z 10061850 f i RakPeer.obj
 0001:000608e0       ?Clear@?$List@UPlayerIDAndIndex@@@DataStructures@@QAEX_N@Z 100618e0 f i RakPeer.obj
 0001:00060970       ?Clear@?$OrderedList@UPlayerID@@UPlayerIDAndIndex@@$1?PlayerIDAndIndexComp@@YAHABU1@ABU2@@Z@DataStructures@@QAEXXZ 10061970 f i RakPeer.obj
 0001:000609c0       ?Clear@?$Queue@PAUPacket@@@DataStructures@@QAEXXZ 100619c0 f i RakPeer.obj
 0001:00060a50       ?Clear@?$SingleProducerConsumer@PAUPacket@@@DataStructures@@QAEXXZ 10061a50 f i RakPeer.obj
 0001:00060bb0       ?Clear@?$SingleProducerConsumer@UBufferedCommandStruct@RakPeer@@@DataStructures@@QAEXXZ 10061bb0 f i RakPeer.obj
 0001:00060d10       ?Clear@?$SingleProducerConsumer@URequestedConnectionStruct@RakPeer@@@DataStructures@@QAEXXZ 10061d10 f i RakPeer.obj
 0001:00060e80       ?ClearBanList@RakPeer@@UAEXXZ 10061e80 f   RakPeer.obj
 0001:00060f60       ?ClearBufferedCommands@RakPeer@@IAEXXZ 10061f60 f   RakPeer.obj
 0001:00060ff0       ?ClearRequestedConnectionList@RakPeer@@IAEXXZ 10061ff0 f   RakPeer.obj
 0001:00061080       ?CloseConnection@RakPeer@@UAEXUPlayerID@@_NE@Z 10062080 f   RakPeer.obj
 0001:000610e0       ?CloseConnectionInternal@RakPeer@@IAEXUPlayerID@@_N1E@Z 100620e0 f   RakPeer.obj
 0001:00061330       ?Connect@RakPeer@@UAE_NPBDGPADH@Z 10062330 f   RakPeer.obj
 0001:00061450       ?DeallocatePacket@RakPeer@@UAEXPAUPacket@@@Z 10062450 f   RakPeer.obj
 0001:000614d0       ?Del@?$List@PAUBanStruct@RakPeer@@@DataStructures@@QAEXI@Z 100624d0 f i RakPeer.obj
 0001:00061540       ?Del@?$List@PAVPluginInterface@@@DataStructures@@QAEXI@Z 10062540 f i RakPeer.obj
 0001:000615b0       ?Del@?$List@UPlayerIDAndIndex@@@DataStructures@@QAEXI@Z 100625b0 f i RakPeer.obj
 0001:00061620       ?DeleteCompressionLayer@RakPeer@@UAE_N_N@Z 10062620 f   RakPeer.obj
 0001:00061750       ?DetachPlugin@RakPeer@@UAEXPAVPluginInterface@@@Z 10062750 f   RakPeer.obj
 0001:00061840       ?DisableSecurity@RakPeer@@UAEXXZ 10062840 f   RakPeer.obj
 0001:00061890       ?Disconnect@RakPeer@@UAEXIE@Z 10062890 f   RakPeer.obj
 0001:00061c10       ?GenerateCompressionLayer@RakPeer@@UAE_NQAI_N@Z 10062c10 f   RakPeer.obj
 0001:00061db0       ?GenerateSYNCookieRandomNumber@RakPeer@@IAEXXZ 10062db0 f   RakPeer.obj
 0001:00061e90       ?GetAveragePing@RakPeer@@UAEHUPlayerID@@@Z 10062e90 f   RakPeer.obj
 0001:00061f60       ?GetBestClockDifferential@RakPeer@@IBEIUPlayerID@@@Z 10062f60 f   RakPeer.obj
 0001:00062040       ?GetCompressionRatio@RakPeer@@UBEMXZ 10063040 f   RakPeer.obj
 0001:00062110       ?GetConnectionList@RakPeer@@UBE_NPAUPlayerID@@PAG@Z 10063110 f   RakPeer.obj
 0001:00062280       ?GetDecompressionRatio@RakPeer@@UBEMXZ 10063280 f   RakPeer.obj
 0001:00062350       ?GetExternalID@RakPeer@@UBE?AUPlayerID@@U2@@Z 10063350 f   RakPeer.obj
 0001:000624a0       ?GetIncomingPassword@RakPeer@@UAEXPADPAH@Z 100634a0 f   RakPeer.obj
 0001:00062540       ?GetIndexFromKey@?$OrderedList@UPlayerID@@UPlayerIDAndIndex@@$1?PlayerIDAndIndexComp@@YAHABU1@ABU2@@Z@DataStructures@@QBEIABUPlayerID@@PA_N@Z 10063540 f i RakPeer.obj
 0001:00062630       ?GetIndexFromPlayerID@RakPeer@@IAEHUPlayerID@@_N@Z 10063630 f   RakPeer.obj
 0001:000627c0       ?GetIndexFromPlayerID@RakPeer@@UAEHUPlayerID@@@Z 100637c0 f   RakPeer.obj
 0001:00062820       ?GetIndexOf@?$List@PAVPluginInterface@@@DataStructures@@QAEIQAVPluginInterface@@@Z 10063820 f i RakPeer.obj
 0001:00062890       ?GetInternalID@RakPeer@@UBE?AUPlayerID@@XZ 10063890 f   RakPeer.obj
 0001:000628e0       ?GetLastPing@RakPeer@@UBEHUPlayerID@@@Z 100638e0 f   RakPeer.obj
 0001:00062990       ?GetLocalIP@RakPeer@@UAEPBDI@Z 10063990 f   RakPeer.obj
 0001:00062a10       ?GetLowestPing@RakPeer@@UBEHUPlayerID@@@Z 10063a10 f   RakPeer.obj
 0001:00062a80       ?GetMTUSize@RakPeer@@UBEHXZ 10063a80 f   RakPeer.obj
 0001:00062ac0       ?GetMaximumIncomingConnections@RakPeer@@UBEGXZ 10063ac0 f   RakPeer.obj
 0001:00062b00       ?GetMaximumNumberOfPeers@RakPeer@@UBEGXZ 10063b00 f   RakPeer.obj
 0001:00062b40       ?GetNumberOfAddresses@RakPeer@@UAEIXZ 10063b40 f   RakPeer.obj
 0001:00062c30       ?GetNumberOfRemoteInitiatedConnections@RakPeer@@IBEGXZ 10063c30 f   RakPeer.obj
 0001:00062d10       ?GetNumberOfUnreadBits@BitStream@RakNet@@QBEHXZ 10063d10 f i RakPeer.obj
 0001:00062d50       ?GetOutgoingFrequencyTable@RakPeer@@UAE_NQAI@Z 10063d50 f   RakPeer.obj
 0001:00062de0       ?GetPlayerIDFromIndex@RakPeer@@UAE?AUPlayerID@@H@Z 10063de0 f   RakPeer.obj
 0001:00062e80       ?GetRPCMap@RakPeer@@UAEPAURPCMap@@UPlayerID@@@Z 10063e80 f   RakPeer.obj
 0001:00062f10       ?GetRemoteStaticData@RakPeer@@UAEPAVBitStream@RakNet@@UPlayerID@@@Z 10063f10 f   RakPeer.obj
 0001:00062fa0       ?GetRemoteSystemFromPlayerID@RakPeer@@IBEPAURemoteSystemStruct@1@UPlayerID@@_N1@Z 10063fa0 f   RakPeer.obj
 0001:00063180       ?GetStatistics@RakPeer@@UAEQAURakNetStatisticsStruct@@UPlayerID@@@Z 10064180 f   RakPeer.obj
 0001:000632d0       ?HandleRPCPacket@RakPeer@@IAE_NPBDHUPlayerID@@@Z 100642d0 f   RakPeer.obj
 0001:00063e60       ?HandleRPCReplyPacket@RakPeer@@IAEXPBDHUPlayerID@@@Z 10064e60 f   RakPeer.obj
 0001:00063f20       ?IPToPlayerID@RakPeer@@UAEXPBDGPAUPlayerID@@@Z 10064f20 f   RakPeer.obj
 0001:00063f90       ?Initialize@RakPeer@@UAE_NGGHPBD@Z 10064f90 f   RakPeer.obj
 0001:000644a0       ?InitializeSecurity@RakPeer@@UAEXPBD000@Z 100654a0 f   RakPeer.obj
 0001:00064670       ?Insert@?$List@PAUBanStruct@RakPeer@@@DataStructures@@QAEXQAUBanStruct@RakPeer@@@Z 10065670 f i RakPeer.obj
 0001:00064770       ?Insert@?$List@PAVPluginInterface@@@DataStructures@@QAEXQAVPluginInterface@@@Z 10065770 f i RakPeer.obj
 0001:00064870       ?Insert@?$List@UPlayerIDAndIndex@@@DataStructures@@QAEXUPlayerIDAndIndex@@@Z 10065870 f i RakPeer.obj
 0001:00064970       ?Insert@?$List@UPlayerIDAndIndex@@@DataStructures@@QAEXUPlayerIDAndIndex@@I@Z 10065970 f i RakPeer.obj
 0001:00064ac0       ?Insert@?$OrderedList@UPlayerID@@UPlayerIDAndIndex@@$1?PlayerIDAndIndexComp@@YAHABU1@ABU2@@Z@DataStructures@@QAEIABUPlayerID@@ABUPlayerIDAndIndex@@@Z 10065ac0 f i RakPeer.obj
 0001:00064bc0       ?IsActive@RakPeer@@UBE_NXZ 10065bc0 f i RakPeer.obj
 0001:00064c20       ?IsBanned@RakPeer@@UAE_NPBD@Z 10065c20 f   RakPeer.obj
 0001:00064eb0       ?IsNetworkSimulatorActive@RakPeer@@UAE_NXZ 10065eb0 f   RakPeer.obj
 0001:00064f30       ?NotifyAndFlagForDisconnect@RakPeer@@IAEXUPlayerID@@_NE@Z 10065f30 f   RakPeer.obj
 0001:000650d0       ?OnConnectionRequest@RakPeer@@IAEXPAURemoteSystemStruct@1@PAE_N@Z 100660d0 f   RakPeer.obj
 0001:00065290       ?ParseConnectionRequestPacket@RakPeer@@IAEXPAURemoteSystemStruct@1@UPlayerID@@PBDH@Z 10066290 f   RakPeer.obj
 0001:00065430       ?Ping@RakPeer@@UAEXPBDG_N@Z 10066430 f   RakPeer.obj
 0001:00065680       ?Ping@RakPeer@@UAEXUPlayerID@@@Z 10066680 f   RakPeer.obj
 0001:000656e0       ?PingInternal@RakPeer@@IAEXUPlayerID@@_N@Z 100666e0 f   RakPeer.obj
 0001:00065890       ?PlayerIDAndIndexComp@@YAHABUPlayerID@@ABUPlayerIDAndIndex@@@Z 10066890 f   RakPeer.obj
 0001:00065900       ?PlayerIDToDottedIP@RakPeer@@UBEPBDUPlayerID@@@Z 10066900 f   RakPeer.obj
 0001:00065980       ?Pop@?$Queue@PAUPacket@@@DataStructures@@QAEPAUPacket@@XZ 10066980 f i RakPeer.obj
 0001:00065a50       ?ProcessNetworkPacket@@YGXIGPBDHPAVRakPeer@@@Z 10066a50 f   RakPeer.obj
 0001:00066ab0       ?ProcessPortUnreachable@@YGXIGPAVRakPeer@@@Z 10067ab0 f   RakPeer.obj
 0001:00066ae0       ?Push@?$Queue@PAUPacket@@@DataStructures@@QAEXABQAUPacket@@@Z 10067ae0 f i RakPeer.obj
 0001:00066ca0       ?PushAtHead@?$Queue@PAUPacket@@@DataStructures@@QAEXABQAUPacket@@I@Z 10067ca0 f i RakPeer.obj
 0001:00066ea0       ?PushBackPacket@RakPeer@@UAEXPAUPacket@@_N@Z 10067ea0 f   RakPeer.obj
 0001:00066f30       ?RPC@RakPeer@@UAE_NPADPAVBitStream@RakNet@@W4PacketPriority@@W4PacketReliability@@DUPlayerID@@_N5UNetworkID@@1@Z 10067f30 f   RakPeer.obj
 0001:00067030       ?RPC@RakPeer@@UAE_NPADPBDIW4PacketPriority@@W4PacketReliability@@DUPlayerID@@_N5UNetworkID@@PAVBitStream@RakNet@@@Z 10068030 f   RakPeer.obj
 0001:000677c0       ?ReadLock@?$SingleProducerConsumer@PAUPacket@@@DataStructures@@QAEPAPAUPacket@@XZ 100687c0 f i RakPeer.obj
 0001:00067820       ?ReadLock@?$SingleProducerConsumer@UBufferedCommandStruct@RakPeer@@@DataStructures@@QAEPAUBufferedCommandStruct@RakPeer@@XZ 10068820 f i RakPeer.obj
 0001:00067880       ?ReadLock@?$SingleProducerConsumer@URequestedConnectionStruct@RakPeer@@@DataStructures@@QAEPAURequestedConnectionStruct@RakPeer@@XZ 10068880 f i RakPeer.obj
 0001:000678f0       ?ReadUnlock@?$SingleProducerConsumer@PAUPacket@@@DataStructures@@QAEXXZ 100688f0 f i RakPeer.obj
 0001:000679a0       ?ReadUnlock@?$SingleProducerConsumer@UBufferedCommandStruct@RakPeer@@@DataStructures@@QAEXXZ 100689a0 f i RakPeer.obj
 0001:00067a50       ?ReadUnlock@?$SingleProducerConsumer@URequestedConnectionStruct@RakPeer@@@DataStructures@@QAEXXZ 10068a50 f i RakPeer.obj
 0001:00067b00       ?Receive@RakPeer@@UAEPAUPacket@@XZ 10068b00 f   RakPeer.obj
 0001:00067c00       ?ReceiveIgnoreRPC@RakPeer@@IAEPAUPacket@@XZ 10068c00 f   RakPeer.obj
 0001:00067f00       ?RegisterAsRemoteProcedureCall@RakPeer@@UAEXPADP6AXPAURPCParameters@@@Z@Z 10068f00 f   RakPeer.obj
 0001:00067f80       ?RegisterClassMemberRPC@RakPeer@@UAEXPADPAX@Z 10068f80 f   RakPeer.obj
 0001:00068000       ?Remove@?$OrderedList@UPlayerID@@UPlayerIDAndIndex@@$1?PlayerIDAndIndexComp@@YAHABU1@ABU2@@Z@DataStructures@@QAEIABUPlayerID@@@Z 10069000 f i RakPeer.obj
 0001:000680c0       ?RemoveAtIndex@?$List@PAUBanStruct@RakPeer@@@DataStructures@@QAEXI@Z 100690c0 f i RakPeer.obj
 0001:00068170       ?RemoveAtIndex@?$List@UPlayerIDAndIndex@@@DataStructures@@QAEXI@Z 10069170 f i RakPeer.obj
 0001:00068210       ?RemoveFromBanList@RakPeer@@UAEXPBD@Z 10069210 f   RakPeer.obj
 0001:000683a0       ?RemoveRouterInterface@RakPeer@@UAEXPAVRouterInterface@@@Z 100693a0 f   RakPeer.obj
 0001:000683f0       ?RunUpdateCycle@RakPeer@@IAE_NXZ 100693f0 f   RakPeer.obj
 0001:0006a1e0       ?SecuredConnectionConfirmation@RakPeer@@IAEXPAURemoteSystemStruct@1@PAD@Z 1006b1e0 f   RakPeer.obj
 0001:0006a5d0       ?SecuredConnectionResponse@RakPeer@@IAEXUPlayerID@@@Z 1006b5d0 f   RakPeer.obj
 0001:0006a7f0       ?Send@RakPeer@@UAE_NPAVBitStream@RakNet@@W4PacketPriority@@W4PacketReliability@@DUPlayerID@@_N@Z 1006b7f0 f   RakPeer.obj
 0001:0006a990       ?Send@RakPeer@@UAE_NPBDHW4PacketPriority@@W4PacketReliability@@DUPlayerID@@_N@Z 1006b990 f   RakPeer.obj
 0001:0006ab20       ?SendBuffered@RakPeer@@IAEXPBDHW4PacketPriority@@W4PacketReliability@@DUPlayerID@@_NW4ConnectMode@RemoteSystemStruct@1@@Z 1006bb20 f   RakPeer.obj
 0001:0006ac60       ?SendConnectionRequest@RakPeer@@IAE_NPBDGPADH@Z 1006bc60 f   RakPeer.obj
 0001:0006adc0       ?SendImmediate@RakPeer@@IAE_NPADHW4PacketPriority@@W4PacketReliability@@DUPlayerID@@_N4_J@Z 1006bdc0 f   RakPeer.obj
 0001:0006b2d0       ?SendStaticData@RakPeer@@UAEXUPlayerID@@@Z 1006c2d0 f   RakPeer.obj
 0001:0006b330       ?SendStaticDataInternal@RakPeer@@IAEXUPlayerID@@_N@Z 1006c330 f   RakPeer.obj
 0001:0006b570       ?SetCompileFrequencyTable@RakPeer@@UAEX_N@Z 1006c570 f   RakPeer.obj
 0001:0006b5b0       ?SetIncomingPassword@RakPeer@@UAEXPBDH@Z 1006c5b0 f   RakPeer.obj
 0001:0006b640       ?SetMTUSize@RakPeer@@UAE_NH@Z 1006c640 f   RakPeer.obj
 0001:0006b6d0       ?SetMaximumIncomingConnections@RakPeer@@UAEXG@Z 1006c6d0 f   RakPeer.obj
 0001:0006b710       ?SetOccasionalPing@RakPeer@@UAEX_N@Z 1006c710 f   RakPeer.obj
 0001:0006b750       ?SetOfflinePingResponse@RakPeer@@UAEXPBDI@Z 1006c750 f   RakPeer.obj
 0001:0006b810       ?SetRemoteStaticData@RakPeer@@UAEXUPlayerID@@PBDH@Z 1006c810 f   RakPeer.obj
 0001:0006b8e0       ?SetRouterInterface@RakPeer@@UAEXPAVRouterInterface@@@Z 1006c8e0 f   RakPeer.obj
 0001:0006b920       ?SetSplitMessageProgressInterval@RakPeer@@UAEXH@Z 1006c920 f   RakPeer.obj
 0001:0006b9e0       ?SetTimeoutTime@RakPeer@@UAEXIUPlayerID@@@Z 1006c9e0 f   RakPeer.obj
 0001:0006ba50       ?SetUnreliableTimeout@RakPeer@@UAEXI@Z 1006ca50 f   RakPeer.obj
 0001:0006bb10       ?ShiftIncomingTimestamp@RakPeer@@IBEXPAEUPlayerID@@@Z 1006cb10 f   RakPeer.obj
 0001:0006bcb0       ?Size@?$List@PAUBanStruct@RakPeer@@@DataStructures@@QBEIXZ 1006ccb0 f i RakPeer.obj
 0001:0006bce0       ?Size@?$List@PAVPluginInterface@@@DataStructures@@QBEIXZ 1006cce0 f i RakPeer.obj
 0001:0006bd10       ?Size@?$List@UPlayerIDAndIndex@@@DataStructures@@QBEIXZ 1006cd10 f i RakPeer.obj
 0001:0006bd40       ?Size@?$Queue@PAUPacket@@@DataStructures@@QBEIXZ 1006cd40 f i RakPeer.obj
 0001:0006bda0       ?UnregisterAsRemoteProcedureCall@RakPeer@@UAEXPAD@Z 1006cda0 f   RakPeer.obj
 0001:0006be40       ?UpdateNetworkLoop@@YGIPAX@Z 1006ce40 f   RakPeer.obj
 0001:0006bfa0       ?ValidSendTarget@RakPeer@@IAE_NUPlayerID@@_N@Z 1006cfa0 f   RakPeer.obj
 0001:0006c0a0       ?WriteLock@?$SingleProducerConsumer@PAUPacket@@@DataStructures@@QAEPAPAUPacket@@XZ 1006d0a0 f i RakPeer.obj
 0001:0006c180       ?WriteLock@?$SingleProducerConsumer@UBufferedCommandStruct@RakPeer@@@DataStructures@@QAEPAUBufferedCommandStruct@RakPeer@@XZ 1006d180 f i RakPeer.obj
 0001:0006c260       ?WriteLock@?$SingleProducerConsumer@URequestedConnectionStruct@RakPeer@@@DataStructures@@QAEPAURequestedConnectionStruct@RakPeer@@XZ 1006d260 f i RakPeer.obj
 0001:0006c350       ?WriteUnlock@?$SingleProducerConsumer@PAUPacket@@@DataStructures@@QAEXXZ 1006d350 f i RakPeer.obj
 0001:0006c400       ?WriteUnlock@?$SingleProducerConsumer@UBufferedCommandStruct@RakPeer@@@DataStructures@@QAEXXZ 1006d400 f i RakPeer.obj
 0001:0006c4b0       ?WriteUnlock@?$SingleProducerConsumer@URequestedConnectionStruct@RakPeer@@@DataStructures@@QAEXXZ 1006d4b0 f i RakPeer.obj
 0001:0006c570       ?decrypt@?$RSACrypt@$$BY07I@big@@QAEXAAY07I0@Z 1006d570 f i RakPeer.obj
 0001:0006c620       ?encrypt@?$RSACrypt@$$BY07I@big@@QAEXAAY07I0@Z 1006d620 f i RakPeer.obj
 0001:0006c6e0       ?generateKeys@?$RSACrypt@$$BY07I@big@@QAEXXZ 1006d6e0 f i RakPeer.obj
 0001:0006c790       ?getPublicKey@?$RSACrypt@$$BY07I@big@@QAEXAAIAAY07I@Z 1006d790 f i RakPeer.obj
 0001:0006c7f0       ?reset@?$RSACrypt@$$BY07I@big@@QAEXXZ 1006d7f0 f i RakPeer.obj
 0001:0006c880       ?setPublicKey@?$RSACrypt@$$BY07I@big@@QAEXIAAY07I@Z 1006d880 f i RakPeer.obj
 0001:0006c910       ??0RakServer@@QAE@XZ       1006d910 f   RakServer.obj
 0001:0006c9e0       ??0RakServerInterface@@QAE@XZ 1006d9e0 f i RakServer.obj
 0001:0006ca20       ??1RakServer@@UAE@XZ       1006da20 f   RakServer.obj
 0001:0006cac0       ??1RakServerInterface@@UAE@XZ 1006dac0 f i RakServer.obj
 0001:0006caf3       ??_ERakServer@@W3AEPAXI@Z  1006daf3 f i RakServer.obj
 0001:0006cb00       ??_ERakServer@@UAEPAXI@Z   1006db00 f i RakServer.obj
 0001:0006cb00       ??_GRakServer@@UAEPAXI@Z   1006db00 f i RakServer.obj
 0001:0006cb60       ??_GRakServerInterface@@UAEPAXI@Z 1006db60 f i RakServer.obj
 0001:0006cb60       ??_ERakServerInterface@@UAEPAXI@Z 1006db60 f i RakServer.obj
 0001:0006cbc0       ?AddToBanList@RakServer@@UAEXPBD@Z 1006dbc0 f   RakServer.obj
 0001:0006cc10       ?AdvertiseSystem@RakServer@@UAEXPBDG0H@Z 1006dc10 f   RakServer.obj
 0001:0006cc65       ?AdvertiseSystem@RakServer@@W3AEXPBDG0H@Z 1006dc65 f i RakServer.obj
 0001:0006cc70       ?ApplyNetworkSimulator@RakServer@@UAEXNGG@Z 1006dc70 f   RakServer.obj
 0001:0006cccb       ?ApplyNetworkSimulator@RakServer@@W3AEXNGG@Z 1006dccb f i RakServer.obj
 0001:0006cce0       ?AttachPlugin@RakServer@@UAEXPAVPluginInterface@@@Z 1006dce0 f   RakServer.obj
 0001:0006cd28       ?AttachPlugin@RakServer@@W3AEXPAVPluginInterface@@@Z 1006dd28 f i RakServer.obj
 0001:0006cd30       ?ChangeStaticClientData@RakServer@@UAEXUPlayerID@@U2@@Z 1006dd30 f   RakServer.obj
 0001:0006cec0       ?ClearBanList@RakServer@@UAEXXZ 1006dec0 f   RakServer.obj
 0001:0006cf02       ?ClearBanList@RakServer@@W3AEXXZ 1006df02 f i RakServer.obj
 0001:0006cf10       ?DeallocatePacket@RakServer@@UAEXPAUPacket@@@Z 1006df10 f   RakServer.obj
 0001:0006cf58       ?DeallocatePacket@RakServer@@W3AEXPAUPacket@@@Z 1006df58 f i RakServer.obj
 0001:0006cf60       ?DeleteCompressionLayer@RakServer@@UAE_N_N@Z 1006df60 f   RakServer.obj
 0001:0006cfa9       ?DeleteCompressionLayer@RakServer@@W3AE_N_N@Z 1006dfa9 f i RakServer.obj
 0001:0006cfc0       ?DetachPlugin@RakServer@@UAEXPAVPluginInterface@@@Z 1006dfc0 f   RakServer.obj
 0001:0006d008       ?DetachPlugin@RakServer@@W3AEXPAVPluginInterface@@@Z 1006e008 f i RakServer.obj
 0001:0006d010       ?DisableSecurity@RakServer@@UAEXXZ 1006e010 f   RakServer.obj
 0001:0006d052       ?DisableSecurity@RakServer@@W3AEXXZ 1006e052 f i RakServer.obj
 0001:0006d060       ?Disconnect@RakServer@@UAEXIE@Z 1006e060 f   RakServer.obj
 0001:0006d0ad       ?Disconnect@RakServer@@W3AEXIE@Z 1006e0ad f i RakServer.obj
 0001:0006d0c0       ?GenerateCompressionLayer@RakServer@@UAE_NQAI_N@Z 1006e0c0 f   RakServer.obj
 0001:0006d10d       ?GenerateCompressionLayer@RakServer@@W3AE_NQAI_N@Z 1006e10d f i RakServer.obj
 0001:0006d120       ?GetAllowedPlayers@RakServer@@UBEGXZ 1006e120 f   RakServer.obj
 0001:0006d170       ?GetAveragePing@RakServer@@UAEHUPlayerID@@@Z 1006e170 f   RakServer.obj
 0001:0006d1c6       ?GetAveragePing@RakServer@@W3AEHUPlayerID@@@Z 1006e1c6 f i RakServer.obj
 0001:0006d1d0       ?GetCompressionRatio@RakServer@@UBEMXZ 1006e1d0 f   RakServer.obj
 0001:0006d212       ?GetCompressionRatio@RakServer@@W3BEMXZ 1006e212 f i RakServer.obj
 0001:0006d220       ?GetConnectedPlayers@RakServer@@UAEGXZ 1006e220 f   RakServer.obj
 0001:0006d2b0       ?GetDecompressionRatio@RakServer@@UBEMXZ 1006e2b0 f   RakServer.obj
 0001:0006d2f2       ?GetDecompressionRatio@RakServer@@W3BEMXZ 1006e2f2 f i RakServer.obj
 0001:0006d300       ?GetIndexFromPlayerID@RakServer@@UAEHUPlayerID@@@Z 1006e300 f   RakServer.obj
 0001:0006d356       ?GetIndexFromPlayerID@RakServer@@W3AEHUPlayerID@@@Z 1006e356 f i RakServer.obj
 0001:0006d360       ?GetInternalID@RakServer@@UBE?AUPlayerID@@XZ 1006e360 f   RakServer.obj
 0001:0006d3ab       ?GetInternalID@RakServer@@W3BE?AUPlayerID@@XZ 1006e3ab f i RakServer.obj
 0001:0006d3c0       ?GetLastPing@RakServer@@UAEHUPlayerID@@@Z 1006e3c0 f   RakServer.obj
 0001:0006d420       ?GetLocalIP@RakServer@@UAEPBDI@Z 1006e420 f   RakServer.obj
 0001:0006d468       ?GetLocalIP@RakServer@@W3AEPBDI@Z 1006e468 f i RakServer.obj
 0001:0006d470       ?GetLowestPing@RakServer@@UAEHUPlayerID@@@Z 1006e470 f   RakServer.obj
 0001:0006d4d0       ?GetMTUSize@RakServer@@UBEHXZ 1006e4d0 f   RakServer.obj
 0001:0006d512       ?GetMTUSize@RakServer@@W3BEHXZ 1006e512 f i RakServer.obj
 0001:0006d520       ?GetNumberOfAddresses@RakServer@@UAEIXZ 1006e520 f   RakServer.obj
 0001:0006d562       ?GetNumberOfAddresses@RakServer@@W3AEIXZ 1006e562 f i RakServer.obj
 0001:0006d570       ?GetPlayerIDFromIndex@RakServer@@UAE?AUPlayerID@@H@Z 1006e570 f   RakServer.obj
 0001:0006d5bf       ?GetPlayerIDFromIndex@RakServer@@W3AE?AUPlayerID@@H@Z 1006e5bf f i RakServer.obj
 0001:0006d5d0       ?GetPlayerIPFromID@RakServer@@UAEXUPlayerID@@QADPAG@Z 1006e5d0 f   RakServer.obj
 0001:0006d640       ?GetSendFrequencyTable@RakServer@@UAE_NQAI@Z 1006e640 f   RakServer.obj
 0001:0006d690       ?GetStaticClientData@RakServer@@UAEPAVBitStream@RakNet@@UPlayerID@@@Z 1006e690 f   RakServer.obj
 0001:0006d6f0       ?GetStaticServerData@RakServer@@UAEPAVBitStream@RakNet@@XZ 1006e6f0 f   RakServer.obj
 0001:0006d750       ?GetStatistics@RakServer@@UAEQAURakNetStatisticsStruct@@UPlayerID@@@Z 1006e750 f   RakServer.obj
 0001:0006d7a6       ?GetStatistics@RakServer@@W3AEQAURakNetStatisticsStruct@@UPlayerID@@@Z 1006e7a6 f i RakServer.obj
 0001:0006d7b0       ?GetSynchronizedRandomInteger@RakServer@@UBEIXZ 1006e7b0 f   RakServer.obj
 0001:0006d7f0       ?HasPassword@RakServer@@UAE_NXZ 1006e7f0 f   RakServer.obj
 0001:0006d8a0       ?InitializeSecurity@RakServer@@UAEXPBD0@Z 1006e8a0 f   RakServer.obj
 0001:0006d8f0       ?IsActive@RakServer@@UBE_NXZ 1006e8f0 f   RakServer.obj
 0001:0006d932       ?IsActive@RakServer@@W3BE_NXZ 1006e932 f i RakServer.obj
 0001:0006d940       ?IsActivePlayerID@RakServer@@UAE_NUPlayerID@@@Z 1006e940 f   RakServer.obj
 0001:0006d9c0       ?IsBanned@RakServer@@UAE_NPBD@Z 1006e9c0 f   RakServer.obj
 0001:0006da08       ?IsBanned@RakServer@@W3AE_NPBD@Z 1006ea08 f i RakServer.obj
 0001:0006da10       ?IsNetworkSimulatorActive@RakServer@@UAE_NXZ 1006ea10 f   RakServer.obj
 0001:0006da52       ?IsNetworkSimulatorActive@RakServer@@W3AE_NXZ 1006ea52 f i RakServer.obj
 0001:0006da60       ?Kick@RakServer@@UAEXUPlayerID@@@Z 1006ea60 f   RakServer.obj
 0001:0006dac0       ?PingPlayer@RakServer@@UAEXUPlayerID@@@Z 1006eac0 f   RakServer.obj
 0001:0006db20       ?PushBackPacket@RakServer@@UAEXPAUPacket@@_N@Z 1006eb20 f   RakServer.obj
 0001:0006db6d       ?PushBackPacket@RakServer@@W3AEXPAUPacket@@_N@Z 1006eb6d f i RakServer.obj
 0001:0006db80       ?RPC@RakServer@@UAE_NPADPAVBitStream@RakNet@@W4PacketPriority@@W4PacketReliability@@DUPlayerID@@_N5@Z 1006eb80 f   RakServer.obj
 0001:0006dc10       ?RPC@RakServer@@UAE_NPADPAVBitStream@RakNet@@W4PacketPriority@@W4PacketReliability@@DUPlayerID@@_N5UNetworkID@@1@Z 1006ec10 f   RakServer.obj
 0001:0006dca0       ?RPC@RakServer@@UAE_NPADPBDIW4PacketPriority@@W4PacketReliability@@DUPlayerID@@_N5UNetworkID@@PAVBitStream@RakNet@@@Z 1006eca0 f   RakServer.obj
 0001:0006dd25       ?RPC@RakServer@@W3AE_NPADPAVBitStream@RakNet@@W4PacketPriority@@W4PacketReliability@@DUPlayerID@@_N5UNetworkID@@1@Z 1006ed25 f i RakServer.obj
 0001:0006dd2d       ?RPC@RakServer@@W3AE_NPADPBDIW4PacketPriority@@W4PacketReliability@@DUPlayerID@@_N5UNetworkID@@PAVBitStream@RakNet@@@Z 1006ed2d f i RakServer.obj
 0001:0006dd40       ?Receive@RakServer@@UAEPAUPacket@@XZ 1006ed40 f   RakServer.obj
 0001:0006e733       ?Receive@RakServer@@W3AEPAUPacket@@XZ 1006f733 f i RakServer.obj
 0001:0006e740       ?RegisterAsRemoteProcedureCall@RakServer@@UAEXPADP6AXPAURPCParameters@@@Z@Z 1006f740 f   RakServer.obj
 0001:0006e78c       ?RegisterAsRemoteProcedureCall@RakServer@@W3AEXPADP6AXPAURPCParameters@@@Z@Z 1006f78c f i RakServer.obj
 0001:0006e7a0       ?RegisterClassMemberRPC@RakServer@@UAEXPADPAX@Z 1006f7a0 f   RakServer.obj
 0001:0006e7ec       ?RegisterClassMemberRPC@RakServer@@W3AEXPADPAX@Z 1006f7ec f i RakServer.obj
 0001:0006e800       ?RemoveFromBanList@RakServer@@UAEXPBD@Z 1006f800 f   RakServer.obj
 0001:0006e848       ?RemoveFromBanList@RakServer@@W3AEXPBD@Z 1006f848 f i RakServer.obj
 0001:0006e850       ?RemoveRouterInterface@RakServer@@UAEXPAVRouterInterface@@@Z 1006f850 f   RakServer.obj
 0001:0006e898       ?RemoveRouterInterface@RakServer@@W3AEXPAVRouterInterface@@@Z 1006f898 f i RakServer.obj
 0001:0006e8a0       ?Send@RakServer@@UAE_NPAVBitStream@RakNet@@W4PacketPriority@@W4PacketReliability@@DUPlayerID@@_N@Z 1006f8a0 f   RakServer.obj
 0001:0006e910       ?Send@RakServer@@UAE_NPBDHW4PacketPriority@@W4PacketReliability@@DUPlayerID@@_N@Z 1006f910 f   RakServer.obj
 0001:0006e980       ?Send@RakServer@@W3AE_NPAVBitStream@RakNet@@W4PacketPriority@@W4PacketReliability@@DUPlayerID@@_N@Z 1006f980 f i RakServer.obj
 0001:0006e988       ?Send@RakServer@@W3AE_NPBDHW4PacketPriority@@W4PacketReliability@@DUPlayerID@@_N@Z 1006f988 f i RakServer.obj
 0001:0006e990       ?SendStaticServerDataToClient@RakServer@@UAEXUPlayerID@@@Z 1006f990 f   RakServer.obj
 0001:0006e9f0       ?SetAllowedPlayers@RakServer@@UAEXG@Z 1006f9f0 f   RakServer.obj
 0001:0006ea40       ?SetMTUSize@RakServer@@UAE_NH@Z 1006fa40 f   RakServer.obj
 0001:0006ea88       ?SetMTUSize@RakServer@@W3AE_NH@Z 1006fa88 f i RakServer.obj
 0001:0006ea90       ?SetOfflinePingResponse@RakServer@@UAEXPBDI@Z 1006fa90 f   RakServer.obj
 0001:0006eadc       ?SetOfflinePingResponse@RakServer@@W3AEXPBDI@Z 1006fadc f i RakServer.obj
 0001:0006eaf0       ?SetPassword@RakServer@@UAEXPBD@Z 1006faf0 f   RakServer.obj
 0001:0006eb60       ?SetRelayStaticClientData@RakServer@@UAEX_N@Z 1006fb60 f   RakServer.obj
 0001:0006eba0       ?SetRouterInterface@RakServer@@UAEXPAVRouterInterface@@@Z 1006fba0 f   RakServer.obj
 0001:0006ebe8       ?SetRouterInterface@RakServer@@W3AEXPAVRouterInterface@@@Z 1006fbe8 f i RakServer.obj
 0001:0006ebf0       ?SetStaticClientData@RakServer@@UAEXUPlayerID@@PBDH@Z 1006fbf0 f   RakServer.obj
 0001:0006ec50       ?SetStaticServerData@RakServer@@UAEXPBDH@Z 1006fc50 f   RakServer.obj
 0001:0006ecc0       ?SetTimeoutTime@RakServer@@UAEXIUPlayerID@@@Z 1006fcc0 f   RakServer.obj
 0001:0006ed1a       ?SetTimeoutTime@RakServer@@W3AEXIUPlayerID@@@Z 1006fd1a f i RakServer.obj
 0001:0006ed30       ?SetTrackFrequencyTable@RakServer@@UAEX_N@Z 1006fd30 f   RakServer.obj
 0001:0006ed80       ?Start@RakServer@@UAE_NGIHGPBD@Z 1006fd80 f   RakServer.obj
 0001:0006ee90       ?StartOccasionalPing@RakServer@@UAEXXZ 1006fe90 f   RakServer.obj
 0001:0006eee0       ?StartSynchronizedRandomInteger@RakServer@@UAEXXZ 1006fee0 f   RakServer.obj
 0001:0006ef20       ?StopOccasionalPing@RakServer@@UAEXXZ 1006ff20 f   RakServer.obj
 0001:0006ef70       ?StopSynchronizedRandomInteger@RakServer@@UAEXXZ 1006ff70 f   RakServer.obj
 0001:0006efb0       ?UnregisterAsRemoteProcedureCall@RakServer@@UAEXPAD@Z 1006ffb0 f   RakServer.obj
 0001:0006eff8       ?UnregisterAsRemoteProcedureCall@RakServer@@W3AEXPAD@Z 1006fff8 f i RakServer.obj
 0001:0006f000       ?RakSleep@@YAXI@Z          10070000 f   RakSleep.obj
 0001:0006f050       ?frandomMT@@YAMXZ          10070050 f   Rand.obj
 0001:0006f0d0       ?randomMT@@YAIXZ           100700d0 f   Rand.obj
 0001:0006f170       ?reloadMT@@YAIXZ           10070170 f   Rand.obj
 0001:0006f3a0       ?seedMT@@YAXI@Z            100703a0 f   Rand.obj
 0001:0006f430       ??$RangeNodeComp@G@DataStructures@@YAHABGABU?$RangeNode@G@0@@Z 10070430 f i ReliabilityLayer.obj
 0001:0006f490       ??$ReadCompressed@G@BitStream@RakNet@@QAE_NAAG@Z 10070490 f i ReliabilityLayer.obj
 0001:0006f500       ??$WriteCompressed@G@BitStream@RakNet@@QAEXG@Z 10070500 f i ReliabilityLayer.obj
 0001:0006f560       ??0?$BPlusTree@GPAUInternalPacket@@$0CA@@DataStructures@@QAE@XZ 10070560 f i ReliabilityLayer.obj
 0001:0006f5c0       ??0?$CircularLinkedList@PAUInternalPacket@@@DataStructures@@QAE@XZ 100705c0 f i ReliabilityLayer.obj
 0001:0006f610       ??0?$LinkedList@PAUInternalPacket@@@DataStructures@@QAE@XZ 10070610 f i ReliabilityLayer.obj
 0001:0006f660       ??0?$List@PAU?$Page@GPAUInternalPacket@@$0CA@@DataStructures@@@DataStructures@@QAE@XZ 10070660 f i ReliabilityLayer.obj
 0001:0006f6b0       ??0?$List@PAUDataAndTime@ReliabilityLayer@@@DataStructures@@QAE@XZ 100706b0 f i ReliabilityLayer.obj
 0001:0006f700       ??0?$List@PAUInternalPacket@@@DataStructures@@QAE@XZ 10070700 f i ReliabilityLayer.obj
 0001:0006f750       ??0?$List@PAUSplitPacketChannel@@@DataStructures@@QAE@XZ 10070750 f i ReliabilityLayer.obj
 0001:0006f7a0       ??0?$List@PAV?$LinkedList@PAUInternalPacket@@@DataStructures@@@DataStructures@@QAE@XZ 100707a0 f i ReliabilityLayer.obj
 0001:0006f7f0       ??0?$List@U?$RangeNode@G@DataStructures@@@DataStructures@@QAE@XZ 100707f0 f i ReliabilityLayer.obj
 0001:0006f840       ??0?$MemoryPool@U?$Page@GPAUInternalPacket@@$0CA@@DataStructures@@@DataStructures@@QAE@XZ 10070840 f i ReliabilityLayer.obj
 0001:0006f890       ??0?$OrderedList@GPAUSplitPacketChannel@@$1?SplitPacketChannelComp@@YAHABGABQAU1@@Z@DataStructures@@QAE@XZ 10070890 f i ReliabilityLayer.obj
 0001:0006f8e0       ??0?$OrderedList@GU?$RangeNode@G@DataStructures@@$1??$RangeNodeComp@G@2@YAHABGABU12@@Z@DataStructures@@QAE@XZ 100708e0 f i ReliabilityLayer.obj
 0001:0006f930       ??0?$OrderedList@IPAUInternalPacket@@$1?SplitPacketIndexComp@@YAHABIABQAU1@@Z@DataStructures@@QAE@XZ 10070930 f i ReliabilityLayer.obj
 0001:0006f980       ??0?$Queue@PAU?$Page@GPAUInternalPacket@@$0CA@@DataStructures@@@DataStructures@@QAE@XZ 10070980 f i ReliabilityLayer.obj
 0001:0006fa10       ??0?$Queue@_J@DataStructures@@QAE@XZ 10070a10 f i ReliabilityLayer.obj
 0001:0006faa0       ??0?$RangeList@G@DataStructures@@QAE@XZ 10070aa0 f i ReliabilityLayer.obj
 0001:0006fb70       ??0?$RangeNode@G@DataStructures@@QAE@GG@Z 10070b70 f i ReliabilityLayer.obj
 0001:0006fbc0       ??0?$RangeNode@G@DataStructures@@QAE@XZ 10070bc0 f i ReliabilityLayer.obj
 0001:0006fbf0       ??0ReliabilityLayer@@QAE@XZ 10070bf0 f   ReliabilityLayer.obj
 0001:0006fd90       ??0SplitPacketChannel@@QAE@XZ 10070d90 f i ReliabilityLayer.obj
 0001:0006fde0       ??1?$BPlusTree@GPAUInternalPacket@@$0CA@@DataStructures@@QAE@XZ 10070de0 f i ReliabilityLayer.obj
 0001:0006fe60       ??1?$CircularLinkedList@PAUInternalPacket@@@DataStructures@@QAE@XZ 10070e60 f i ReliabilityLayer.obj
 0001:0006fea0       ??1?$LinkedList@PAUInternalPacket@@@DataStructures@@QAE@XZ 10070ea0 f i ReliabilityLayer.obj
 0001:0006ff20       ??1?$List@PAU?$Page@GPAUInternalPacket@@$0CA@@DataStructures@@@DataStructures@@QAE@XZ 10070f20 f i ReliabilityLayer.obj
 0001:0006ff80       ??1?$List@PAUDataAndTime@ReliabilityLayer@@@DataStructures@@QAE@XZ 10070f80 f i ReliabilityLayer.obj
 0001:0006ffe0       ??1?$List@PAUInternalPacket@@@DataStructures@@QAE@XZ 10070fe0 f i ReliabilityLayer.obj
 0001:00070040       ??1?$List@PAUSplitPacketChannel@@@DataStructures@@QAE@XZ 10071040 f i ReliabilityLayer.obj
 0001:000700a0       ??1?$List@PAV?$LinkedList@PAUInternalPacket@@@DataStructures@@@DataStructures@@QAE@XZ 100710a0 f i ReliabilityLayer.obj
 0001:00070100       ??1?$List@U?$RangeNode@G@DataStructures@@@DataStructures@@QAE@XZ 10071100 f i ReliabilityLayer.obj
 0001:00070180       ??1?$MemoryPool@U?$Page@GPAUInternalPacket@@$0CA@@DataStructures@@@DataStructures@@QAE@XZ 10071180 f i ReliabilityLayer.obj
 0001:00070260       ??1?$OrderedList@GPAUSplitPacketChannel@@$1?SplitPacketChannelComp@@YAHABGABQAU1@@Z@DataStructures@@QAE@XZ 10071260 f i ReliabilityLayer.obj
 0001:000702e0       ??1?$OrderedList@GU?$RangeNode@G@DataStructures@@$1??$RangeNodeComp@G@2@YAHABGABU12@@Z@DataStructures@@QAE@XZ 100712e0 f i ReliabilityLayer.obj
 0001:00070360       ??1?$OrderedList@IPAUInternalPacket@@$1?SplitPacketIndexComp@@YAHABIABQAU1@@Z@DataStructures@@QAE@XZ 10071360 f i ReliabilityLayer.obj
 0001:000703e0       ??1?$Queue@PAU?$Page@GPAUInternalPacket@@$0CA@@DataStructures@@@DataStructures@@QAE@XZ 100713e0 f i ReliabilityLayer.obj
 0001:00070440       ??1?$Queue@_J@DataStructures@@QAE@XZ 10071440 f i ReliabilityLayer.obj
 0001:000704a0       ??1?$RangeList@G@DataStructures@@QAE@XZ 100714a0 f i ReliabilityLayer.obj
 0001:00070520       ??1?$RangeNode@G@DataStructures@@QAE@XZ 10071520 f i ReliabilityLayer.obj
 0001:00070550       ??1ReliabilityLayer@@QAE@XZ 10071550 f   ReliabilityLayer.obj
 0001:000706a0       ??1SplitPacketChannel@@QAE@XZ 100716a0 f i ReliabilityLayer.obj
 0001:000706f0       ??A?$List@PAU?$Page@GPAUInternalPacket@@$0CA@@DataStructures@@@DataStructures@@QBEAAPAU?$Page@GPAUInternalPacket@@$0CA@@1@I@Z 100716f0 f i ReliabilityLayer.obj
 0001:00070760       ??A?$List@PAUDataAndTime@ReliabilityLayer@@@DataStructures@@QBEAAPAUDataAndTime@ReliabilityLayer@@I@Z 10071760 f i ReliabilityLayer.obj
 0001:000707d0       ??A?$List@PAUInternalPacket@@@DataStructures@@QBEAAPAUInternalPacket@@I@Z 100717d0 f i ReliabilityLayer.obj
 0001:00070840       ??A?$List@PAUSplitPacketChannel@@@DataStructures@@QBEAAPAUSplitPacketChannel@@I@Z 10071840 f i ReliabilityLayer.obj
 0001:000708b0       ??A?$List@PAV?$LinkedList@PAUInternalPacket@@@DataStructures@@@DataStructures@@QBEAAPAV?$LinkedList@PAUInternalPacket@@@1@I@Z 100718b0 f i ReliabilityLayer.obj
 0001:00070920       ??A?$List@U?$RangeNode@G@DataStructures@@@DataStructures@@QBEAAU?$RangeNode@G@1@I@Z 10071920 f i ReliabilityLayer.obj
 0001:00070990       ??A?$OrderedList@GPAUSplitPacketChannel@@$1?SplitPacketChannelComp@@YAHABGABQAU1@@Z@DataStructures@@QBEAAPAUSplitPacketChannel@@I@Z 10071990 f i ReliabilityLayer.obj
 0001:000709e0       ??A?$OrderedList@GU?$RangeNode@G@DataStructures@@$1??$RangeNodeComp@G@2@YAHABGABU12@@Z@DataStructures@@QBEAAU?$RangeNode@G@1@I@Z 100719e0 f i ReliabilityLayer.obj
 0001:00070a30       ??A?$OrderedList@IPAUInternalPacket@@$1?SplitPacketIndexComp@@YAHABIABQAU1@@Z@DataStructures@@QBEAAPAUInternalPacket@@I@Z 10071a30 f i ReliabilityLayer.obj
 0001:00070a80       ??A?$Queue@PAUInternalPacket@@@DataStructures@@QBEAAPAUInternalPacket@@I@Z 10071a80 f i ReliabilityLayer.obj
 0001:00070b20       ??A?$Queue@_J@DataStructures@@QBEAA_JI@Z 10071b20 f i ReliabilityLayer.obj
 0001:00070bc0       ??E?$LinkedList@PAUInternalPacket@@@DataStructures@@QAEAAV01@H@Z 10071bc0 f i ReliabilityLayer.obj
 0001:00070c10       ??E?$LinkedList@PAUInternalPacket@@@DataStructures@@QAEAAV01@XZ 10071c10 f i ReliabilityLayer.obj
 0001:00070c70       ??_E?$RangeNode@G@DataStructures@@QAEPAXI@Z 10071c70 f i ReliabilityLayer.obj
 0001:00070d10       ??_G?$LinkedList@PAUInternalPacket@@@DataStructures@@QAEPAXI@Z 10071d10 f i ReliabilityLayer.obj
 0001:00070d70       ??_GSplitPacketChannel@@QAEPAXI@Z 10071d70 f i ReliabilityLayer.obj
 0001:00070dd0       ?Add@?$CircularLinkedList@PAUInternalPacket@@@DataStructures@@QAEAAPAUInternalPacket@@ABQAU3@@Z 10071dd0 f i ReliabilityLayer.obj
 0001:00070f80       ?AddToOrderingList@ReliabilityLayer@@AAEXPAUInternalPacket@@@Z 10071f80 f   ReliabilityLayer.obj
 0001:00071130       ?Allocate@?$MemoryPool@U?$Page@GPAUInternalPacket@@$0CA@@DataStructures@@@DataStructures@@QAEPAU?$Page@GPAUInternalPacket@@$0CA@@2@XZ 10072130 f i ReliabilityLayer.obj
 0001:000711d0       ?AllocationSize@?$Queue@_J@DataStructures@@QBEIXZ 100721d0 f i ReliabilityLayer.obj
 0001:00071200       ?ApplyNetworkSimulator@ReliabilityLayer@@QAEXNII@Z 10072200 f   ReliabilityLayer.obj
 0001:00071290       ?AreAcksWaiting@ReliabilityLayer@@QAE_NXZ 10072290 f   ReliabilityLayer.obj
 0001:00071300       ?Beginning@?$CircularLinkedList@PAUInternalPacket@@@DataStructures@@QAEXXZ 10072300 f i ReliabilityLayer.obj
 0001:00071340       ?BuildPacketFromSplitPacketList@ReliabilityLayer@@AAEPAUInternalPacket@@G_J@Z 10072340 f   ReliabilityLayer.obj
 0001:000716f0       ?CanRotateLeft@?$BPlusTree@GPAUInternalPacket@@$0CA@@DataStructures@@IAE_NPAU?$Page@GPAUInternalPacket@@$0CA@@2@H@Z 100726f0 f i ReliabilityLayer.obj
 0001:00071760       ?CanRotateRight@?$BPlusTree@GPAUInternalPacket@@$0CA@@DataStructures@@IAE_NPAU?$Page@GPAUInternalPacket@@$0CA@@2@H@Z 10072760 f i ReliabilityLayer.obj
 0001:000717d0       ?CheckSHA1@ReliabilityLayer@@AAE_NQADQAEI@Z 100727d0 f   ReliabilityLayer.obj
 0001:000718a0       ?Clear@?$BPlusTree@GPAUInternalPacket@@$0CA@@DataStructures@@QAEXXZ 100728a0 f i ReliabilityLayer.obj
 0001:00071900       ?Clear@?$CircularLinkedList@PAUInternalPacket@@@DataStructures@@QAEXXZ 10072900 f i ReliabilityLayer.obj
 0001:000719c0       ?Clear@?$List@PAUDataAndTime@ReliabilityLayer@@@DataStructures@@QAEX_N@Z 100729c0 f i ReliabilityLayer.obj
 0001:00071a50       ?Clear@?$List@PAUInternalPacket@@@DataStructures@@QAEX_N@Z 10072a50 f i ReliabilityLayer.obj
 0001:00071ae0       ?Clear@?$List@PAUSplitPacketChannel@@@DataStructures@@QAEX_N@Z 10072ae0 f i ReliabilityLayer.obj
 0001:00071b70       ?Clear@?$List@PAV?$LinkedList@PAUInternalPacket@@@DataStructures@@@DataStructures@@QAEX_N@Z 10072b70 f i ReliabilityLayer.obj
 0001:00071c00       ?Clear@?$List@U?$RangeNode@G@DataStructures@@@DataStructures@@QAEX_N@Z 10072c00 f i ReliabilityLayer.obj
 0001:00071cc0       ?Clear@?$OrderedList@GPAUSplitPacketChannel@@$1?SplitPacketChannelComp@@YAHABGABQAU1@@Z@DataStructures@@QAEXXZ 10072cc0 f i ReliabilityLayer.obj
 0001:00071d10       ?Clear@?$OrderedList@GU?$RangeNode@G@DataStructures@@$1??$RangeNodeComp@G@2@YAHABGABU12@@Z@DataStructures@@QAEXXZ 10072d10 f i ReliabilityLayer.obj
 0001:00071d60       ?Clear@?$OrderedList@IPAUInternalPacket@@$1?SplitPacketIndexComp@@YAHABIABQAU1@@Z@DataStructures@@QAEXXZ 10072d60 f i ReliabilityLayer.obj
 0001:00071db0       ?Clear@?$RangeList@G@DataStructures@@QAEXXZ 10072db0 f i ReliabilityLayer.obj
 0001:00071df0       ?ClearAndForceAllocation@?$Queue@_J@DataStructures@@QAEXH@Z 10072df0 f i ReliabilityLayer.obj
 0001:00071e90       ?Compress@?$Queue@_J@DataStructures@@QAEXXZ 10072e90 f i ReliabilityLayer.obj
 0001:00071fb0       ?CreateInternalPacketCopy@ReliabilityLayer@@AAEPAUInternalPacket@@PAU2@HH_J@Z 10072fb0 f   ReliabilityLayer.obj
 0001:000720d0       ?CreateInternalPacketFromBitStream@ReliabilityLayer@@AAEPAUInternalPacket@@PAVBitStream@RakNet@@_J@Z 100730d0 f   ReliabilityLayer.obj
 0001:000724c0       ?Del@?$CircularLinkedList@PAUInternalPacket@@@DataStructures@@QAEXXZ 100734c0 f i ReliabilityLayer.obj
 0001:000725d0       ?Del@?$List@PAU?$Page@GPAUInternalPacket@@$0CA@@DataStructures@@@DataStructures@@QAEXI@Z 100735d0 f i ReliabilityLayer.obj
 0001:00072640       ?Del@?$List@PAUDataAndTime@ReliabilityLayer@@@DataStructures@@QAEXI@Z 10073640 f i ReliabilityLayer.obj
 0001:000726b0       ?Del@?$List@PAUInternalPacket@@@DataStructures@@QAEXI@Z 100736b0 f i ReliabilityLayer.obj
 0001:00072720       ?Del@?$List@PAUSplitPacketChannel@@@DataStructures@@QAEXI@Z 10073720 f i ReliabilityLayer.obj
 0001:00072790       ?Del@?$List@U?$RangeNode@G@DataStructures@@@DataStructures@@QAEXI@Z 10073790 f i ReliabilityLayer.obj
 0001:00072800       ?Del@?$OrderedList@GU?$RangeNode@G@DataStructures@@$1??$RangeNodeComp@G@2@YAHABGABU12@@Z@DataStructures@@QAEXI@Z 10073800 f i ReliabilityLayer.obj
 0001:00072850       ?Del@?$Queue@PAUInternalPacket@@@DataStructures@@QAEXI@Z 10073850 f i ReliabilityLayer.obj
 0001:000729b0       ?Delete@?$BPlusTree@GPAUInternalPacket@@$0CA@@DataStructures@@QAE_NGAAPAUInternalPacket@@@Z 100739b0 f i ReliabilityLayer.obj
 0001:00072bb0       ?DeleteFromPageAtIndex@?$BPlusTree@GPAUInternalPacket@@$0CA@@DataStructures@@IAEXHPAU?$Page@GPAUInternalPacket@@$0CA@@2@@Z 10073bb0 f i ReliabilityLayer.obj
 0001:00072ca0       ?DeleteOldUnreliableSplitPackets@ReliabilityLayer@@AAEX_J@Z 10073ca0 f   ReliabilityLayer.obj
 0001:00072eb0       ?DeleteSequencedPacketsInList@ReliabilityLayer@@AAEXEAAV?$List@PAUInternalPacket@@@DataStructures@@H@Z 10073eb0 f   ReliabilityLayer.obj
 0001:00072fc0       ?DeleteSequencedPacketsInList@ReliabilityLayer@@AAEXEAAV?$Queue@PAUInternalPacket@@@DataStructures@@@Z 10073fc0 f   ReliabilityLayer.obj
 0001:000730c0       ?Deserialize@?$RangeList@G@DataStructures@@QAE_NPAVBitStream@RakNet@@@Z 100740c0 f i ReliabilityLayer.obj
 0001:00073280       ?End@?$CircularLinkedList@PAUInternalPacket@@@DataStructures@@QAEXXZ 10074280 f i ReliabilityLayer.obj
 0001:000732d0       ?FindDeleteRebalance@?$BPlusTree@GPAUInternalPacket@@$0CA@@DataStructures@@IAE_NGPAU?$Page@GPAUInternalPacket@@$0CA@@2@PA_NGPAUReturnAction@12@AAPAUInternalPacket@@@Z 100742d0 f i ReliabilityLayer.obj
 0001:00073580       ?FixUnderflow@?$BPlusTree@GPAUInternalPacket@@$0CA@@DataStructures@@IAE_NHPAU?$Page@GPAUInternalPacket@@$0CA@@2@GPAUReturnAction@12@@Z 10074580 f i ReliabilityLayer.obj
 0001:00073b00       ?FreeMemory@ReliabilityLayer@@AAEX_N@Z 10074b00 f   ReliabilityLayer.obj
 0001:00073b70       ?FreePages@?$BPlusTree@GPAUInternalPacket@@$0CA@@DataStructures@@IAEXXZ 10074b70 f i ReliabilityLayer.obj
 0001:00073cb0       ?FreeThreadSafeMemory@ReliabilityLayer@@AAEXXZ 10074cb0 f   ReliabilityLayer.obj
 0001:00074100       ?FreeThreadedMemory@ReliabilityLayer@@AAEXXZ 10075100 f   ReliabilityLayer.obj
 0001:00074130       ?GenerateDatagram@ReliabilityLayer@@AAEIPAVBitStream@RakNet@@HPA_N_JUPlayerID@@AAV?$List@PAVPluginInterface@@@DataStructures@@@Z 10075130 f   ReliabilityLayer.obj
 0001:00074910       ?GetBitStreamHeaderLength@ReliabilityLayer@@AAEHQBUInternalPacket@@@Z 10075910 f   ReliabilityLayer.obj
 0001:00074a00       ?GetIndexFromKey@?$OrderedList@GPAUSplitPacketChannel@@$1?SplitPacketChannelComp@@YAHABGABQAU1@@Z@DataStructures@@QBEIABGPA_N@Z 10075a00 f i ReliabilityLayer.obj
 0001:00074af0       ?GetIndexFromKey@?$OrderedList@GU?$RangeNode@G@DataStructures@@$1??$RangeNodeComp@G@2@YAHABGABU12@@Z@DataStructures@@QBEIABGPA_N@Z 10075af0 f i ReliabilityLayer.obj
 0001:00074be0       ?GetIndexFromKey@?$OrderedList@IPAUInternalPacket@@$1?SplitPacketIndexComp@@YAHABIABQAU1@@Z@DataStructures@@QBEIABIPA_N@Z 10075be0 f i ReliabilityLayer.obj
 0001:00074cd0       ?GetIndexOf@?$BPlusTree@GPAUInternalPacket@@$0CA@@DataStructures@@IBE_NGPAU?$Page@GPAUInternalPacket@@$0CA@@2@PAH@Z 10075cd0 f i ReliabilityLayer.obj
 0001:00074dd0       ?GetListHead@?$BPlusTree@GPAUInternalPacket@@$0CA@@DataStructures@@QBEPAU?$Page@GPAUInternalPacket@@$0CA@@2@XZ 10075dd0 f i ReliabilityLayer.obj
 0001:00074e00       ?GetOrderingListAtOrderingStream@ReliabilityLayer@@AAEPAV?$LinkedList@PAUInternalPacket@@@DataStructures@@E@Z 10075e00 f   ReliabilityLayer.obj
 0001:00074e60       ?GetPointer@InternalPacketPool@@QAEPAUInternalPacket@@XZ 10075e60 f i ReliabilityLayer.obj
 0001:00074ed0       ?GetResendListDataSize@ReliabilityLayer@@ABEIXZ 10075ed0 f   ReliabilityLayer.obj
 0001:00074f20       ?GetSHA1@ReliabilityLayer@@AAEXQAEIQAD@Z 10075f20 f   ReliabilityLayer.obj
 0001:00075030       ?GetSocket@ReliabilityLayer@@QAEIXZ 10076030 f   ReliabilityLayer.obj
 0001:00075060       ?GetStatistics@ReliabilityLayer@@QAEQAURakNetStatisticsStruct@@XZ 10076060 f   ReliabilityLayer.obj
 0001:00075190       ?GetTimeoutTime@ReliabilityLayer@@QAEIXZ 10076190 f   ReliabilityLayer.obj
 0001:000751d0       ?HandleSocketReceiveFromConnectedPlayer@ReliabilityLayer@@QAE_NPBDHUPlayerID@@AAV?$List@PAVPluginInterface@@@DataStructures@@H@Z 100761d0 f   ReliabilityLayer.obj
 0001:00076050       ?InitializeVariables@ReliabilityLayer@@AAEXXZ 10077050 f   ReliabilityLayer.obj
 0001:000762b0       ?Insert@?$BPlusTree@GPAUInternalPacket@@$0CA@@DataStructures@@QAE_NGABQAUInternalPacket@@@Z 100772b0 f i ReliabilityLayer.obj
 0001:000764d0       ?Insert@?$List@PAU?$Page@GPAUInternalPacket@@$0CA@@DataStructures@@@DataStructures@@QAEXQAU?$Page@GPAUInternalPacket@@$0CA@@2@@Z 100774d0 f i ReliabilityLayer.obj
 0001:000765d0       ?Insert@?$List@PAUDataAndTime@ReliabilityLayer@@@DataStructures@@QAEXQAUDataAndTime@ReliabilityLayer@@@Z 100775d0 f i ReliabilityLayer.obj
 0001:000766d0       ?Insert@?$List@PAUInternalPacket@@@DataStructures@@QAEXQAUInternalPacket@@@Z 100776d0 f i ReliabilityLayer.obj
 0001:000767d0       ?Insert@?$List@PAUInternalPacket@@@DataStructures@@QAEXQAUInternalPacket@@I@Z 100777d0 f i ReliabilityLayer.obj
 0001:00076920       ?Insert@?$List@PAUSplitPacketChannel@@@DataStructures@@QAEXQAUSplitPacketChannel@@@Z 10077920 f i ReliabilityLayer.obj
 0001:00076a20       ?Insert@?$List@PAUSplitPacketChannel@@@DataStructures@@QAEXQAUSplitPacketChannel@@I@Z 10077a20 f i ReliabilityLayer.obj
 0001:00076b70       ?Insert@?$List@U?$RangeNode@G@DataStructures@@@DataStructures@@QAEXU?$RangeNode@G@2@@Z 10077b70 f i ReliabilityLayer.obj
 0001:00076d50       ?Insert@?$List@U?$RangeNode@G@DataStructures@@@DataStructures@@QAEXU?$RangeNode@G@2@I@Z 10077d50 f i ReliabilityLayer.obj
 0001:00076f80       ?Insert@?$OrderedList@GPAUSplitPacketChannel@@$1?SplitPacketChannelComp@@YAHABGABQAU1@@Z@DataStructures@@QAEIABGABQAUSplitPacketChannel@@@Z 10077f80 f i ReliabilityLayer.obj
 0001:00077050       ?Insert@?$OrderedList@GU?$RangeNode@G@DataStructures@@$1??$RangeNodeComp@G@2@YAHABGABU12@@Z@DataStructures@@QAEIABGABU?$RangeNode@G@2@@Z 10078050 f i ReliabilityLayer.obj
 0001:00077120       ?Insert@?$OrderedList@IPAUInternalPacket@@$1?SplitPacketIndexComp@@YAHABIABQAU1@@Z@DataStructures@@QAEIABIABQAUInternalPacket@@@Z 10078120 f i ReliabilityLayer.obj
 0001:000771f0       ?Insert@?$RangeList@G@DataStructures@@QAEXG@Z 100781f0 f i ReliabilityLayer.obj
 0001:000775f0       ?InsertAtEnd@?$OrderedList@GU?$RangeNode@G@DataStructures@@$1??$RangeNodeComp@G@2@YAHABGABU12@@Z@DataStructures@@QAEXABU?$RangeNode@G@2@@Z 100785f0 f i ReliabilityLayer.obj
 0001:00077640       ?InsertAtIndex@?$OrderedList@GU?$RangeNode@G@DataStructures@@$1??$RangeNodeComp@G@2@YAHABGABU12@@Z@DataStructures@@QAEXABU?$RangeNode@G@2@I@Z 10078640 f i ReliabilityLayer.obj
 0001:00077690       ?InsertBranchDown@?$BPlusTree@GPAUInternalPacket@@$0CA@@DataStructures@@IAEPAU?$Page@GPAUInternalPacket@@$0CA@@2@GABQAUInternalPacket@@PAU32@PAUReturnAction@12@PA_N@Z 10078690 f i ReliabilityLayer.obj
 0001:00077ba0       ?InsertIntoNode@?$BPlusTree@GPAUInternalPacket@@$0CA@@DataStructures@@IAEPAU?$Page@GPAUInternalPacket@@$0CA@@2@GABQAUInternalPacket@@HPAU32@1PAUReturnAction@12@@Z 10078ba0 f i ReliabilityLayer.obj
 0001:00078120       ?InsertIntoSplitPacketList@ReliabilityLayer@@AAEXPAUInternalPacket@@_J@Z 10079120 f   ReliabilityLayer.obj
 0001:00078510       ?InsertPacketIntoResendList@ReliabilityLayer@@AAEXPAUInternalPacket@@_J_N2@Z 10079510 f   ReliabilityLayer.obj
 0001:00078650       ?IsCheater@ReliabilityLayer@@QBE_NXZ 10079650 f   ReliabilityLayer.obj
 0001:00078690       ?IsDataWaiting@ReliabilityLayer@@QAE_NXZ 10079690 f   ReliabilityLayer.obj
 0001:00078770       ?IsDeadConnection@ReliabilityLayer@@QBE_NXZ 10079770 f   ReliabilityLayer.obj
 0001:000787b0       ?IsEmpty@?$BPlusTree@GPAUInternalPacket@@$0CA@@DataStructures@@QBE_NXZ 100797b0 f i ReliabilityLayer.obj
 0001:00078800       ?IsOlderOrderedPacket@ReliabilityLayer@@AAE_NGG@Z 10079800 f   ReliabilityLayer.obj
 0001:000788b0       ?IsSendThrottled@ReliabilityLayer@@AAE_NH@Z 100798b0 f   ReliabilityLayer.obj
 0001:000788e0       ?KillConnection@ReliabilityLayer@@QAEXXZ 100798e0 f   ReliabilityLayer.obj
 0001:00078920       ?Peek@?$CircularLinkedList@PAUInternalPacket@@@DataStructures@@QAEAAPAUInternalPacket@@XZ 10079920 f i ReliabilityLayer.obj
 0001:00078950       ?Peek@?$Queue@PAUInternalPacket@@@DataStructures@@QBEPAUInternalPacket@@XZ 10079950 f i ReliabilityLayer.obj
 0001:000789f0       ?Peek@?$Queue@_J@DataStructures@@QBE_JXZ 100799f0 f i ReliabilityLayer.obj
 0001:00078a90       ?Pop@?$CircularLinkedList@PAUInternalPacket@@@DataStructures@@QAEPAUInternalPacket@@XZ 10079a90 f i ReliabilityLayer.obj
 0001:00078ae0       ?Pop@?$Queue@PAU?$Page@GPAUInternalPacket@@$0CA@@DataStructures@@@DataStructures@@QAEPAU?$Page@GPAUInternalPacket@@$0CA@@2@XZ 10079ae0 f i ReliabilityLayer.obj
 0001:00078bb0       ?Pop@?$Queue@_J@DataStructures@@QAE_JXZ 10079bb0 f i ReliabilityLayer.obj
 0001:00078c90       ?Preallocate@?$BPlusTree@GPAUInternalPacket@@$0CA@@DataStructures@@QAEXH@Z 10079c90 f i ReliabilityLayer.obj
 0001:00078ce0       ?Preallocate@?$MemoryPool@U?$Page@GPAUInternalPacket@@$0CA@@DataStructures@@@DataStructures@@QAEXI@Z 10079ce0 f i ReliabilityLayer.obj
 0001:00078d70       ?Push@?$Queue@PAU?$Page@GPAUInternalPacket@@$0CA@@DataStructures@@@DataStructures@@QAEXABQAU?$Page@GPAUInternalPacket@@$0CA@@2@@Z 10079d70 f i ReliabilityLayer.obj
 0001:00078f30       ?Push@?$Queue@_J@DataStructures@@QAEXAB_J@Z 10079f30 f i ReliabilityLayer.obj
 0001:00079100       ?PushAtHead@?$Queue@PAUInternalPacket@@@DataStructures@@QAEXABQAUInternalPacket@@I@Z 1007a100 f i ReliabilityLayer.obj
 0001:00079300       ?Receive@ReliabilityLayer@@QAEHPAPAE@Z 1007a300 f   ReliabilityLayer.obj
 0001:000793a0       ?Release@?$MemoryPool@U?$Page@GPAUInternalPacket@@$0CA@@DataStructures@@@DataStructures@@QAEXPAU?$Page@GPAUInternalPacket@@$0CA@@2@@Z 1007a3a0 f i ReliabilityLayer.obj
 0001:00079420       ?RemoveAtIndex@?$List@PAUInternalPacket@@@DataStructures@@QAEXI@Z 1007a420 f i ReliabilityLayer.obj
 0001:000794d0       ?RemoveAtIndex@?$List@PAUSplitPacketChannel@@@DataStructures@@QAEXI@Z 1007a4d0 f i ReliabilityLayer.obj
 0001:00079580       ?RemoveAtIndex@?$List@U?$RangeNode@G@DataStructures@@@DataStructures@@QAEXI@Z 1007a580 f i ReliabilityLayer.obj
 0001:00079630       ?RemoveAtIndex@?$OrderedList@GPAUSplitPacketChannel@@$1?SplitPacketChannelComp@@YAHABGABQAU1@@Z@DataStructures@@QAEXI@Z 1007a630 f i ReliabilityLayer.obj
 0001:00079680       ?RemoveAtIndex@?$OrderedList@GU?$RangeNode@G@DataStructures@@$1??$RangeNodeComp@G@2@YAHABGABU12@@Z@DataStructures@@QAEXI@Z 1007a680 f i ReliabilityLayer.obj
 0001:000796d0       ?RemovePacketFromResendListAndDeleteOlderReliableSequenced@ReliabilityLayer@@AAEIG_J@Z 1007a6d0 f   ReliabilityLayer.obj
 0001:000797b0       ?Replace@?$List@PAV?$LinkedList@PAUInternalPacket@@@DataStructures@@@DataStructures@@QAEXQAV?$LinkedList@PAUInternalPacket@@@2@0I@Z 1007a7b0 f i ReliabilityLayer.obj
 0001:00079910       ?Reset@ReliabilityLayer@@QAEX_N@Z 1007a910 f   ReliabilityLayer.obj
 0001:00079970       ?RotateLeft@?$BPlusTree@GPAUInternalPacket@@$0CA@@DataStructures@@IAEXPAU?$Page@GPAUInternalPacket@@$0CA@@2@HPAUReturnAction@12@@Z 1007a970 f i ReliabilityLayer.obj
 0001:00079ab0       ?RotateRight@?$BPlusTree@GPAUInternalPacket@@$0CA@@DataStructures@@IAEXPAU?$Page@GPAUInternalPacket@@$0CA@@2@HPAUReturnAction@12@@Z 1007aab0 f i ReliabilityLayer.obj
 0001:00079bf0       ?Send@ReliabilityLayer@@QAE_NPADHW4PacketPriority@@W4PacketReliability@@E_NH_J@Z 1007abf0 f   ReliabilityLayer.obj
 0001:00079fa0       ?SendAcknowledgementPacket@ReliabilityLayer@@AAEXG_J@Z 1007afa0 f   ReliabilityLayer.obj
 0001:0007a000       ?SendBitStream@ReliabilityLayer@@AAEXIUPlayerID@@PAVBitStream@RakNet@@@Z 1007b000 f   ReliabilityLayer.obj
 0001:0007a1b0       ?Serialize@?$RangeList@G@DataStructures@@QAEIPAVBitStream@RakNet@@H_N@Z 1007b1b0 f i ReliabilityLayer.obj
 0001:0007a4d0       ?SetEncryptionKey@ReliabilityLayer@@QAEXPBE@Z 1007b4d0 f   ReliabilityLayer.obj
 0001:0007a540       ?SetPing@ReliabilityLayer@@QAEXI@Z 1007b540 f   ReliabilityLayer.obj
 0001:0007a600       ?SetSocket@ReliabilityLayer@@QAEXI@Z 1007b600 f   ReliabilityLayer.obj
 0001:0007a630       ?SetSplitMessageProgressInterval@ReliabilityLayer@@QAEXH@Z 1007b630 f   ReliabilityLayer.obj
 0001:0007a670       ?SetTimeoutTime@ReliabilityLayer@@QAEXI@Z 1007b670 f   ReliabilityLayer.obj
 0001:0007a6b0       ?SetUnreliableTimeout@ReliabilityLayer@@QAEXI@Z 1007b6b0 f   ReliabilityLayer.obj
 0001:0007a6f0       ?ShiftNodeLeft@?$BPlusTree@GPAUInternalPacket@@$0CA@@DataStructures@@IAEXPAU?$Page@GPAUInternalPacket@@$0CA@@2@@Z 1007b6f0 f i ReliabilityLayer.obj
 0001:0007a7e0       ?ShiftNodeRight@?$BPlusTree@GPAUInternalPacket@@$0CA@@DataStructures@@IAEXPAU?$Page@GPAUInternalPacket@@$0CA@@2@@Z 1007b7e0 f i ReliabilityLayer.obj
 0001:0007a8d0       ?Size@?$BPlusTree@GPAUInternalPacket@@$0CA@@DataStructures@@QBEIXZ 1007b8d0 f i ReliabilityLayer.obj
 0001:0007a940       ?Size@?$CircularLinkedList@PAUInternalPacket@@@DataStructures@@QAEIXZ 1007b940 f i ReliabilityLayer.obj
 0001:0007a970       ?Size@?$List@PAU?$Page@GPAUInternalPacket@@$0CA@@DataStructures@@@DataStructures@@QBEIXZ 1007b970 f i ReliabilityLayer.obj
 0001:0007a9a0       ?Size@?$List@PAUDataAndTime@ReliabilityLayer@@@DataStructures@@QBEIXZ 1007b9a0 f i ReliabilityLayer.obj
 0001:0007a9d0       ?Size@?$List@PAUInternalPacket@@@DataStructures@@QBEIXZ 1007b9d0 f i ReliabilityLayer.obj
 0001:0007aa00       ?Size@?$List@PAUSplitPacketChannel@@@DataStructures@@QBEIXZ 1007ba00 f i ReliabilityLayer.obj
 0001:0007aa30       ?Size@?$List@PAV?$LinkedList@PAUInternalPacket@@@DataStructures@@@DataStructures@@QBEIXZ 1007ba30 f i ReliabilityLayer.obj
 0001:0007aa60       ?Size@?$List@U?$RangeNode@G@DataStructures@@@DataStructures@@QBEIXZ 1007ba60 f i ReliabilityLayer.obj
 0001:0007aa90       ?Size@?$OrderedList@GPAUSplitPacketChannel@@$1?SplitPacketChannelComp@@YAHABGABQAU1@@Z@DataStructures@@QBEIXZ 1007ba90 f i ReliabilityLayer.obj
 0001:0007aad0       ?Size@?$OrderedList@GU?$RangeNode@G@DataStructures@@$1??$RangeNodeComp@G@2@YAHABGABU12@@Z@DataStructures@@QBEIXZ 1007bad0 f i ReliabilityLayer.obj
 0001:0007ab10       ?Size@?$OrderedList@IPAUInternalPacket@@$1?SplitPacketIndexComp@@YAHABIABQAU1@@Z@DataStructures@@QBEIXZ 1007bb10 f i ReliabilityLayer.obj
 0001:0007ab50       ?Size@?$Queue@PAU?$Page@GPAUInternalPacket@@$0CA@@DataStructures@@@DataStructures@@QBEIXZ 1007bb50 f i ReliabilityLayer.obj
 0001:0007abb0       ?Size@?$Queue@_J@DataStructures@@QBEIXZ 1007bbb0 f i ReliabilityLayer.obj
 0001:0007ac10       ?Size@?$RangeList@G@DataStructures@@QAEIXZ 1007bc10 f i ReliabilityLayer.obj
 0001:0007ac50       ?SplitPacket@ReliabilityLayer@@AAEXPAUInternalPacket@@H@Z 1007bc50 f   ReliabilityLayer.obj
 0001:0007b050       ?SplitPacketChannelComp@@YAHABGABQAUSplitPacketChannel@@@Z 1007c050 f   ReliabilityLayer.obj
 0001:0007b0d0       ?SplitPacketIndexComp@@YAHABIABQAUInternalPacket@@@Z 1007c0d0 f   ReliabilityLayer.obj
 0001:0007b130       ?Update@ReliabilityLayer@@QAEXIUPlayerID@@H_JAAV?$List@PAVPluginInterface@@@DataStructures@@@Z 1007c130 f   ReliabilityLayer.obj
 0001:0007bd00       ?UpdateNextActionTime@ReliabilityLayer@@AAEXXZ 1007cd00 f   ReliabilityLayer.obj
 0001:0007bda0       ?UpdateThreadedMemory@ReliabilityLayer@@AAEXXZ 1007cda0 f   ReliabilityLayer.obj
 0001:0007be00       ?UpdateWindowFromAck@ReliabilityLayer@@AAEX_J@Z 1007ce00 f   ReliabilityLayer.obj
 0001:0007be30       ?UpdateWindowFromPacketloss@ReliabilityLayer@@AAEX_J@Z 1007ce30 f   ReliabilityLayer.obj
 0001:0007be60       ?WriteToBitStreamFromInternalPacket@ReliabilityLayer@@AAEHPAVBitStream@RakNet@@QBUInternalPacket@@@Z 1007ce60 f   ReliabilityLayer.obj
 0001:0007c060       ??0?$List@PAUParticipantStruct@ReplicaManager@@@DataStructures@@QAE@XZ 1007d060 f i ReplicaManager.obj
 0001:0007c0b0       ??0?$List@UCommandStruct@ReplicaManager@@@DataStructures@@QAE@XZ 1007d0b0 f i ReplicaManager.obj
 0001:0007c100       ??0?$List@URegisteredReplica@ReplicaManager@@@DataStructures@@QAE@XZ 1007d100 f i ReplicaManager.obj
 0001:0007c150       ??0?$List@URemoteObject@ReplicaManager@@@DataStructures@@QAE@XZ 1007d150 f i ReplicaManager.obj
 0001:0007c1a0       ??0?$OrderedList@PAVReplica@@UCommandStruct@ReplicaManager@@$1?CommandStructComp@3@SAHABQAV1@ABU23@@Z@DataStructures@@QAE@XZ 1007d1a0 f i ReplicaManager.obj
 0001:0007c1f0       ??0?$OrderedList@PAVReplica@@URegisteredReplica@ReplicaManager@@$1?RegisteredReplicaComp@3@SAHABQAV1@ABU23@@Z@DataStructures@@QAE@XZ 1007d1f0 f i ReplicaManager.obj
 0001:0007c240       ??0?$OrderedList@PAVReplica@@URemoteObject@ReplicaManager@@$1?RemoteObjectComp@3@SAHABQAV1@ABU23@@Z@DataStructures@@QAE@XZ 1007d240 f i ReplicaManager.obj
 0001:0007c290       ??0?$OrderedList@UPlayerID@@PAUParticipantStruct@ReplicaManager@@$1?ParticipantStructComp@3@SAHABU1@ABQAU23@@Z@DataStructures@@QAE@XZ 1007d290 f i ReplicaManager.obj
 0001:0007c2e0       ??0?$Queue@PAUReceivedCommand@ReplicaManager@@@DataStructures@@QAE@XZ 1007d2e0 f i ReplicaManager.obj
 0001:0007c370       ??0ParticipantStruct@ReplicaManager@@QAE@XZ 1007d370 f i ReplicaManager.obj
 0001:0007c410       ??0ReplicaManager@@QAE@XZ  1007d410 f   ReplicaManager.obj
 0001:0007c4f0       ??1?$List@PAUParticipantStruct@ReplicaManager@@@DataStructures@@QAE@XZ 1007d4f0 f i ReplicaManager.obj
 0001:0007c550       ??1?$List@UCommandStruct@ReplicaManager@@@DataStructures@@QAE@XZ 1007d550 f i ReplicaManager.obj
 0001:0007c5b0       ??1?$List@URegisteredReplica@ReplicaManager@@@DataStructures@@QAE@XZ 1007d5b0 f i ReplicaManager.obj
 0001:0007c610       ??1?$List@URemoteObject@ReplicaManager@@@DataStructures@@QAE@XZ 1007d610 f i ReplicaManager.obj
 0001:0007c670       ??1?$OrderedList@PAVReplica@@UCommandStruct@ReplicaManager@@$1?CommandStructComp@3@SAHABQAV1@ABU23@@Z@DataStructures@@QAE@XZ 1007d670 f i ReplicaManager.obj
 0001:0007c6f0       ??1?$OrderedList@PAVReplica@@URegisteredReplica@ReplicaManager@@$1?RegisteredReplicaComp@3@SAHABQAV1@ABU23@@Z@DataStructures@@QAE@XZ 1007d6f0 f i ReplicaManager.obj
 0001:0007c770       ??1?$OrderedList@PAVReplica@@URemoteObject@ReplicaManager@@$1?RemoteObjectComp@3@SAHABQAV1@ABU23@@Z@DataStructures@@QAE@XZ 1007d770 f i ReplicaManager.obj
 0001:0007c7f0       ??1?$OrderedList@UPlayerID@@PAUParticipantStruct@ReplicaManager@@$1?ParticipantStructComp@3@SAHABU1@ABQAU23@@Z@DataStructures@@QAE@XZ 1007d7f0 f i ReplicaManager.obj
 0001:0007c870       ??1?$Queue@PAUReceivedCommand@ReplicaManager@@@DataStructures@@QAE@XZ 1007d870 f i ReplicaManager.obj
 0001:0007c8d0       ??1ParticipantStruct@ReplicaManager@@QAE@XZ 1007d8d0 f   ReplicaManager.obj
 0001:0007c9e0       ??1ReplicaManager@@QAE@XZ  1007d9e0 f   ReplicaManager.obj
 0001:0007ca80       ??A?$List@PAUParticipantStruct@ReplicaManager@@@DataStructures@@QBEAAPAUParticipantStruct@ReplicaManager@@I@Z 1007da80 f i ReplicaManager.obj
 0001:0007caf0       ??A?$List@UCommandStruct@ReplicaManager@@@DataStructures@@QBEAAUCommandStruct@ReplicaManager@@I@Z 1007daf0 f i ReplicaManager.obj
 0001:0007cb60       ??A?$List@URegisteredReplica@ReplicaManager@@@DataStructures@@QBEAAURegisteredReplica@ReplicaManager@@I@Z 1007db60 f i ReplicaManager.obj
 0001:0007cbd0       ??A?$List@URemoteObject@ReplicaManager@@@DataStructures@@QBEAAURemoteObject@ReplicaManager@@I@Z 1007dbd0 f i ReplicaManager.obj
 0001:0007cc40       ??A?$OrderedList@PAVReplica@@UCommandStruct@ReplicaManager@@$1?CommandStructComp@3@SAHABQAV1@ABU23@@Z@DataStructures@@QBEAAUCommandStruct@ReplicaManager@@I@Z 1007dc40 f i ReplicaManager.obj
 0001:0007cc90       ??A?$OrderedList@PAVReplica@@URegisteredReplica@ReplicaManager@@$1?RegisteredReplicaComp@3@SAHABQAV1@ABU23@@Z@DataStructures@@QBEAAURegisteredReplica@ReplicaManager@@I@Z 1007dc90 f i ReplicaManager.obj
 0001:0007cce0       ??A?$OrderedList@PAVReplica@@URemoteObject@ReplicaManager@@$1?RemoteObjectComp@3@SAHABQAV1@ABU23@@Z@DataStructures@@QBEAAURemoteObject@ReplicaManager@@I@Z 1007dce0 f i ReplicaManager.obj
 0001:0007cd30       ??A?$OrderedList@UPlayerID@@PAUParticipantStruct@ReplicaManager@@$1?ParticipantStructComp@3@SAHABU1@ABQAU23@@Z@DataStructures@@QBEAAPAUParticipantStruct@ReplicaManager@@I@Z 1007dd30 f i ReplicaManager.obj
 0001:0007cd80       ??_GBitStream@RakNet@@QAEPAXI@Z 1007dd80 f i ReplicaManager.obj
 0001:0007cde0       ??_GParticipantStruct@ReplicaManager@@QAEPAXI@Z 1007dde0 f i ReplicaManager.obj
 0001:0007ce40       ?AddParticipant@ReplicaManager@@QAEXUPlayerID@@@Z 1007de40 f   ReplicaManager.obj
 0001:0007d030       ?Clear@?$List@PAUParticipantStruct@ReplicaManager@@@DataStructures@@QAEX_N@Z 1007e030 f i ReplicaManager.obj
 0001:0007d0c0       ?Clear@?$List@UCommandStruct@ReplicaManager@@@DataStructures@@QAEX_N@Z 1007e0c0 f i ReplicaManager.obj
 0001:0007d150       ?Clear@?$List@URegisteredReplica@ReplicaManager@@@DataStructures@@QAEX_N@Z 1007e150 f i ReplicaManager.obj
 0001:0007d1e0       ?Clear@?$List@URemoteObject@ReplicaManager@@@DataStructures@@QAEX_N@Z 1007e1e0 f i ReplicaManager.obj
 0001:0007d270       ?Clear@?$OrderedList@PAVReplica@@UCommandStruct@ReplicaManager@@$1?CommandStructComp@3@SAHABQAV1@ABU23@@Z@DataStructures@@QAEXXZ 1007e270 f i ReplicaManager.obj
 0001:0007d2c0       ?Clear@?$OrderedList@PAVReplica@@URegisteredReplica@ReplicaManager@@$1?RegisteredReplicaComp@3@SAHABQAV1@ABU23@@Z@DataStructures@@QAEXXZ 1007e2c0 f i ReplicaManager.obj
 0001:0007d310       ?Clear@?$OrderedList@PAVReplica@@URemoteObject@ReplicaManager@@$1?RemoteObjectComp@3@SAHABQAV1@ABU23@@Z@DataStructures@@QAEXXZ 1007e310 f i ReplicaManager.obj
 0001:0007d360       ?Clear@?$OrderedList@UPlayerID@@PAUParticipantStruct@ReplicaManager@@$1?ParticipantStructComp@3@SAHABU1@ABQAU23@@Z@DataStructures@@QAEXXZ 1007e360 f i ReplicaManager.obj
 0001:0007d3b0       ?Clear@ReplicaManager@@IAEXXZ 1007e3b0 f   ReplicaManager.obj
 0001:0007d470       ?CommandStructComp@ReplicaManager@@SAHABQAVReplica@@ABUCommandStruct@1@@Z 1007e470 f   ReplicaManager.obj
 0001:0007d4c0       ?Construct@ReplicaManager@@QAEXPAVReplica@@_NUPlayerID@@1@Z 1007e4c0 f   ReplicaManager.obj
 0001:0007d6e0       ?Del@?$List@PAUParticipantStruct@ReplicaManager@@@DataStructures@@QAEXI@Z 1007e6e0 f i ReplicaManager.obj
 0001:0007d750       ?Del@?$List@UCommandStruct@ReplicaManager@@@DataStructures@@QAEXI@Z 1007e750 f i ReplicaManager.obj
 0001:0007d7c0       ?Del@?$List@URegisteredReplica@ReplicaManager@@@DataStructures@@QAEXI@Z 1007e7c0 f i ReplicaManager.obj
 0001:0007d830       ?Del@?$List@URemoteObject@ReplicaManager@@@DataStructures@@QAEXI@Z 1007e830 f i ReplicaManager.obj
 0001:0007d8a0       ?DereferencePointer@ReplicaManager@@QAEXPAVReplica@@@Z 1007e8a0 f   ReplicaManager.obj
 0001:0007d9e0       ?Destruct@ReplicaManager@@QAEXPAVReplica@@UPlayerID@@_N@Z 1007e9e0 f   ReplicaManager.obj
 0001:0007dda0       ?DisableReplicaInterfaces@ReplicaManager@@QAEXPAVReplica@@E@Z 1007eda0 f   ReplicaManager.obj
 0001:0007de90       ?EnableReplicaInterfaces@ReplicaManager@@QAEXPAVReplica@@E@Z 1007ee90 f   ReplicaManager.obj
 0001:0007df70       ?GetIndexFromKey@?$OrderedList@PAVReplica@@UCommandStruct@ReplicaManager@@$1?CommandStructComp@3@SAHABQAV1@ABU23@@Z@DataStructures@@QBEIABQAVReplica@@PA_N@Z 1007ef70 f i ReplicaManager.obj
 0001:0007e060       ?GetIndexFromKey@?$OrderedList@PAVReplica@@URegisteredReplica@ReplicaManager@@$1?RegisteredReplicaComp@3@SAHABQAV1@ABU23@@Z@DataStructures@@QBEIABQAVReplica@@PA_N@Z 1007f060 f i ReplicaManager.obj
 0001:0007e150       ?GetIndexFromKey@?$OrderedList@PAVReplica@@URemoteObject@ReplicaManager@@$1?RemoteObjectComp@3@SAHABQAV1@ABU23@@Z@DataStructures@@QBEIABQAVReplica@@PA_N@Z 1007f150 f i ReplicaManager.obj
 0001:0007e240       ?GetIndexFromKey@?$OrderedList@UPlayerID@@PAUParticipantStruct@ReplicaManager@@$1?ParticipantStructComp@3@SAHABU1@ABQAU23@@Z@DataStructures@@QBEIABUPlayerID@@PA_N@Z 1007f240 f i ReplicaManager.obj
 0001:0007e330       ?GetParticipantByPlayerID@ReplicaManager@@IBEPAUParticipantStruct@1@UPlayerID@@@Z 1007f330 f   ReplicaManager.obj
 0001:0007e3e0       ?GetReplicaAtIndex@ReplicaManager@@QAEPAVReplica@@I@Z 1007f3e0 f   ReplicaManager.obj
 0001:0007e430       ?GetReplicaCount@ReplicaManager@@QBEIXZ 1007f430 f   ReplicaManager.obj
 0001:0007e480       ?HasData@?$OrderedList@PAVReplica@@UCommandStruct@ReplicaManager@@$1?CommandStructComp@3@SAHABQAV1@ABU23@@Z@DataStructures@@QBE_NABQAVReplica@@@Z 1007f480 f i ReplicaManager.obj
 0001:0007e510       ?HasData@?$OrderedList@PAVReplica@@URegisteredReplica@ReplicaManager@@$1?RegisteredReplicaComp@3@SAHABQAV1@ABU23@@Z@DataStructures@@QBE_NABQAVReplica@@@Z 1007f510 f i ReplicaManager.obj
 0001:0007e5a0       ?HasData@?$OrderedList@PAVReplica@@URemoteObject@ReplicaManager@@$1?RemoteObjectComp@3@SAHABQAV1@ABU23@@Z@DataStructures@@QBE_NABQAVReplica@@@Z 1007f5a0 f i ReplicaManager.obj
 0001:0007e630       ?Insert@?$List@PAUParticipantStruct@ReplicaManager@@@DataStructures@@QAEXQAUParticipantStruct@ReplicaManager@@@Z 1007f630 f i ReplicaManager.obj
 0001:0007e730       ?Insert@?$List@PAUParticipantStruct@ReplicaManager@@@DataStructures@@QAEXQAUParticipantStruct@ReplicaManager@@I@Z 1007f730 f i ReplicaManager.obj
 0001:0007e880       ?Insert@?$List@UCommandStruct@ReplicaManager@@@DataStructures@@QAEXUCommandStruct@ReplicaManager@@@Z 1007f880 f i ReplicaManager.obj
 0001:0007e980       ?Insert@?$List@UCommandStruct@ReplicaManager@@@DataStructures@@QAEXUCommandStruct@ReplicaManager@@I@Z 1007f980 f i ReplicaManager.obj
 0001:0007ead0       ?Insert@?$List@URegisteredReplica@ReplicaManager@@@DataStructures@@QAEXURegisteredReplica@ReplicaManager@@@Z 1007fad0 f i ReplicaManager.obj
 0001:0007ebe0       ?Insert@?$List@URegisteredReplica@ReplicaManager@@@DataStructures@@QAEXURegisteredReplica@ReplicaManager@@I@Z 1007fbe0 f i ReplicaManager.obj
 0001:0007ed40       ?Insert@?$List@URemoteObject@ReplicaManager@@@DataStructures@@QAEXURemoteObject@ReplicaManager@@@Z 1007fd40 f i ReplicaManager.obj
 0001:0007ee50       ?Insert@?$List@URemoteObject@ReplicaManager@@@DataStructures@@QAEXURemoteObject@ReplicaManager@@I@Z 1007fe50 f i ReplicaManager.obj
 0001:0007efb0       ?Insert@?$OrderedList@PAVReplica@@UCommandStruct@ReplicaManager@@$1?CommandStructComp@3@SAHABQAV1@ABU23@@Z@DataStructures@@QAEIABQAVReplica@@ABUCommandStruct@ReplicaManager@@@Z 1007ffb0 f i ReplicaManager.obj
 0001:0007f0a0       ?Insert@?$OrderedList@PAVReplica@@URegisteredReplica@ReplicaManager@@$1?RegisteredReplicaComp@3@SAHABQAV1@ABU23@@Z@DataStructures@@QAEIABQAVReplica@@ABURegisteredReplica@ReplicaManager@@@Z 100800a0 f i ReplicaManager.obj
 0001:0007f1a0       ?Insert@?$OrderedList@PAVReplica@@URemoteObject@ReplicaManager@@$1?RemoteObjectComp@3@SAHABQAV1@ABU23@@Z@DataStructures@@QAEIABQAVReplica@@ABURemoteObject@ReplicaManager@@@Z 100801a0 f i ReplicaManager.obj
 0001:0007f2a0       ?Insert@?$OrderedList@UPlayerID@@PAUParticipantStruct@ReplicaManager@@$1?ParticipantStructComp@3@SAHABU1@ABQAU23@@Z@DataStructures@@QAEIABUPlayerID@@ABQAUParticipantStruct@ReplicaManager@@@Z 100802a0 f i ReplicaManager.obj
 0001:0007f370       ?IsConstructed@ReplicaManager@@QAE_NPAVReplica@@UPlayerID@@@Z 10080370 f   ReplicaManager.obj
 0001:0007f420       ?IsInScope@ReplicaManager@@QAE_NPAVReplica@@UPlayerID@@@Z 10080420 f   ReplicaManager.obj
 0001:0007f4f0       ?OnAttach@ReplicaManager@@MAEXPAVRakPeerInterface@@@Z 100804f0 f   ReplicaManager.obj
 0001:0007f530       ?OnCloseConnection@ReplicaManager@@MAEXPAVRakPeerInterface@@UPlayerID@@@Z 10080530 f   ReplicaManager.obj
 0001:0007f590       ?OnDisconnect@ReplicaManager@@MAEXPAVRakPeerInterface@@@Z 10080590 f   ReplicaManager.obj
 0001:0007f5e0       ?OnReceive@ReplicaManager@@MAE?AW4PluginReceiveResult@@PAVRakPeerInterface@@PAUPacket@@@Z 100805e0 f   ReplicaManager.obj
 0001:0007faa0       ?ParticipantStructComp@ReplicaManager@@SAHABUPlayerID@@ABQAUParticipantStruct@1@@Z 10080aa0 f   ReplicaManager.obj
 0001:0007fb10       ?Pop@?$Queue@PAUReceivedCommand@ReplicaManager@@@DataStructures@@QAEPAUReceivedCommand@ReplicaManager@@XZ 10080b10 f i ReplicaManager.obj
 0001:0007fbe0       ?ProcessReceivedCommand@ReplicaManager@@IAE?AW4ReplicaReturnResult@@PAUParticipantStruct@1@PAUReceivedCommand@1@@Z 10080be0 f   ReplicaManager.obj
 0001:0007ff80       ?Push@?$Queue@PAUReceivedCommand@ReplicaManager@@@DataStructures@@QAEXABQAUReceivedCommand@ReplicaManager@@@Z 10080f80 f i ReplicaManager.obj
 0001:00080140       ?PushAtHead@?$Queue@PAUReceivedCommand@ReplicaManager@@@DataStructures@@QAEXABQAUReceivedCommand@ReplicaManager@@I@Z 10081140 f i ReplicaManager.obj
 0001:00080340       ?ReferencePointer@ReplicaManager@@QAEXPAVReplica@@@Z 10081340 f   ReplicaManager.obj
 0001:000803f0       ?RegisteredReplicaComp@ReplicaManager@@SAHABQAVReplica@@ABURegisteredReplica@1@@Z 100813f0 f   ReplicaManager.obj
 0001:00080440       ?RemoteObjectComp@ReplicaManager@@SAHABQAVReplica@@ABURemoteObject@1@@Z 10081440 f   ReplicaManager.obj
 0001:00080490       ?Remove@?$OrderedList@UPlayerID@@PAUParticipantStruct@ReplicaManager@@$1?ParticipantStructComp@3@SAHABU1@ABQAU23@@Z@DataStructures@@QAEIABUPlayerID@@@Z 10081490 f i ReplicaManager.obj
 0001:00080550       ?RemoveAtIndex@?$List@PAUParticipantStruct@ReplicaManager@@@DataStructures@@QAEXI@Z 10081550 f i ReplicaManager.obj
 0001:00080600       ?RemoveAtIndex@?$List@UCommandStruct@ReplicaManager@@@DataStructures@@QAEXI@Z 10081600 f i ReplicaManager.obj
 0001:000806a0       ?RemoveAtIndex@?$List@URegisteredReplica@ReplicaManager@@@DataStructures@@QAEXI@Z 100816a0 f i ReplicaManager.obj
 0001:00080740       ?RemoveAtIndex@?$List@URemoteObject@ReplicaManager@@@DataStructures@@QAEXI@Z 10081740 f i ReplicaManager.obj
 0001:000807e0       ?RemoveAtIndex@?$OrderedList@PAVReplica@@UCommandStruct@ReplicaManager@@$1?CommandStructComp@3@SAHABQAV1@ABU23@@Z@DataStructures@@QAEXI@Z 100817e0 f i ReplicaManager.obj
 0001:00080830       ?RemoveAtIndex@?$OrderedList@PAVReplica@@URegisteredReplica@ReplicaManager@@$1?RegisteredReplicaComp@3@SAHABQAV1@ABU23@@Z@DataStructures@@QAEXI@Z 10081830 f i ReplicaManager.obj
 0001:00080880       ?RemoveAtIndex@?$OrderedList@PAVReplica@@URemoteObject@ReplicaManager@@$1?RemoteObjectComp@3@SAHABQAV1@ABU23@@Z@DataStructures@@QAEXI@Z 10081880 f i ReplicaManager.obj
 0001:000808d0       ?RemoveParticipant@ReplicaManager@@QAEXUPlayerID@@@Z 100818d0 f   ReplicaManager.obj
 0001:000809b0       ?SetAutoConstructToNewParticipants@ReplicaManager@@QAEX_N@Z 100819b0 f   ReplicaManager.obj
 0001:000809f0       ?SetAutoParticipateNewConnections@ReplicaManager@@QAEX_N@Z 100819f0 f   ReplicaManager.obj
 0001:00080a30       ?SetDefaultScope@ReplicaManager@@QAEX_N@Z 10081a30 f   ReplicaManager.obj
 0001:00080a70       ?SetDownloadCompleteCB@ReplicaManager@@QAEXP6A?AW4ReplicaReturnResult@@PAVBitStream@RakNet@@IUPlayerID@@PAV1@@ZP6A?AW42@012@Z@Z 10081a70 f   ReplicaManager.obj
 0001:00080ab0       ?SetReceiveConstructionCB@ReplicaManager@@QAEXP6A?AW4ReplicaReturnResult@@PAVBitStream@RakNet@@IUNetworkID@@UPlayerID@@PAV1@@Z@Z 10081ab0 f   ReplicaManager.obj
 0001:00080af0       ?SetScope@ReplicaManager@@QAEXPAVReplica@@_NUPlayerID@@1@Z 10081af0 f   ReplicaManager.obj
 0001:00080d50       ?SetSendChannel@ReplicaManager@@QAEXE@Z 10081d50 f   ReplicaManager.obj
 0001:00080d90       ?SignalSerializeNeeded@ReplicaManager@@QAEXPAVReplica@@UPlayerID@@_N@Z 10081d90 f   ReplicaManager.obj
 0001:00080f40       ?Size@?$List@PAUParticipantStruct@ReplicaManager@@@DataStructures@@QBEIXZ 10081f40 f i ReplicaManager.obj
 0001:00080f70       ?Size@?$List@UCommandStruct@ReplicaManager@@@DataStructures@@QBEIXZ 10081f70 f i ReplicaManager.obj
 0001:00080fa0       ?Size@?$List@URegisteredReplica@ReplicaManager@@@DataStructures@@QBEIXZ 10081fa0 f i ReplicaManager.obj
 0001:00080fd0       ?Size@?$List@URemoteObject@ReplicaManager@@@DataStructures@@QBEIXZ 10081fd0 f i ReplicaManager.obj
 0001:00081000       ?Size@?$OrderedList@PAVReplica@@UCommandStruct@ReplicaManager@@$1?CommandStructComp@3@SAHABQAV1@ABU23@@Z@DataStructures@@QBEIXZ 10082000 f i ReplicaManager.obj
 0001:00081040       ?Size@?$OrderedList@PAVReplica@@URegisteredReplica@ReplicaManager@@$1?RegisteredReplicaComp@3@SAHABQAV1@ABU23@@Z@DataStructures@@QBEIXZ 10082040 f i ReplicaManager.obj
 0001:00081080       ?Size@?$OrderedList@UPlayerID@@PAUParticipantStruct@ReplicaManager@@$1?ParticipantStructComp@3@SAHABU1@ABQAU23@@Z@DataStructures@@QBEIXZ 10082080 f i ReplicaManager.obj
 0001:000810c0       ?Size@?$Queue@PAUReceivedCommand@ReplicaManager@@@DataStructures@@QBEIXZ 100820c0 f i ReplicaManager.obj
 0001:00081120       ?Update@ReplicaManager@@MAEXPAVRakPeerInterface@@@Z 10082120 f   ReplicaManager.obj
 0001:00082000       ?InvMixColumn@@YAXQAY03EE@Z 10083000 f   rijndael.obj
 0001:000820c0       ?KeyAddition@@YAXQAY03E0E@Z 100830c0 f   rijndael.obj
 0001:00082150       ?MixColumn@@YAXQAY03EE@Z   10083150 f   rijndael.obj
 0001:00082300       ?ShiftRow@@YAXQAY03EEE@Z   10083300 f   rijndael.obj
 0001:00082400       ?Substitution@@YAXQAY03EQAEE@Z 10083400 f   rijndael.obj
 0001:00082490       ?blockDecrypt@@YAHPAUcipherInstance@@PAUkeyInstance@@PAEH2@Z 10083490 f   rijndael.obj
 0001:00082cb0       ?blockEncrypt@@YAHPAUcipherInstance@@PAUkeyInstance@@PAEH2@Z 10083cb0 f   rijndael.obj
 0001:00083480       ?cipherInit@@YAHPAUcipherInstance@@EPAD@Z 10084480 f   rijndael.obj
 0001:00083540       ?cipherUpdateRounds@@YAHPAUcipherInstance@@PAUkeyInstance@@PAEH2H@Z 10084540 f   rijndael.obj
 0001:00083680       ?makeKey@@YAHPAUkeyInstance@@EHPAD@Z 10084680 f   rijndael.obj
 0001:00083830       ?mul@@YAEEE@Z              10084830 f   rijndael.obj
 0001:000838a0       ?rijndaelDecrypt@@YAHQAE0QAY133E@Z 100848a0 f   rijndael.obj
 0001:00084240       ?rijndaelDecryptRound@@YAHQAY03EQAY133EH@Z 10085240 f   rijndael.obj
 0001:00084350       ?rijndaelEncrypt@@YAHQAE0QAY133E@Z 10085350 f   rijndael.obj
 0001:00084d90       ?rijndaelEncryptRound@@YAHQAY03EQAY133EH@Z 10085d90 f   rijndael.obj
 0001:00085650       ?rijndaelKeyEnctoDec@@YAHHQAY133E@Z 10086650 f   rijndael.obj
 0001:000856c0       ?rijndaelKeySched@@YAHQAY03EHQAY133E@Z 100866c0 f   rijndael.obj
 0001:00085bc0       ??0?$Heap@GUPlayerIdAndGroupId@ConnectionGraph@@$0A@@DataStructures@@QAE@XZ 10086bc0 f i Router.obj
 0001:00085c10       ??0?$List@PAV?$Tree@UPlayerIdAndGroupId@ConnectionGraph@@@DataStructures@@@DataStructures@@QAE@XZ 10086c10 f i Router.obj
 0001:00085c60       ??0?$List@UHeapNode@?$Heap@GUPlayerIdAndGroupId@ConnectionGraph@@$0A@@DataStructures@@@DataStructures@@QAE@XZ 10086c60 f i Router.obj
 0001:00085cb0       ??0?$Queue@PAV?$Tree@UPlayerIdAndGroupId@ConnectionGraph@@@DataStructures@@@DataStructures@@QAE@XZ 10086cb0 f i Router.obj
 0001:00085d40       ??0?$Queue@UNodeAndParent@?$WeightedGraph@UPlayerIdAndGroupId@ConnectionGraph@@G$0A@@DataStructures@@@DataStructures@@QAE@XZ 10086d40 f i Router.obj
 0001:00085dd0       ??0?$Tree@UPlayerIdAndGroupId@ConnectionGraph@@@DataStructures@@QAE@XZ 10086dd0 f i Router.obj
 0001:00085e60       ??0HeapNode@?$Heap@GUPlayerIdAndGroupId@ConnectionGraph@@$0A@@DataStructures@@QAE@ABGABUPlayerIdAndGroupId@ConnectionGraph@@@Z 10086e60 f i Router.obj
 0001:00085ec0       ??0HeapNode@?$Heap@GUPlayerIdAndGroupId@ConnectionGraph@@$0A@@DataStructures@@QAE@XZ 10086ec0 f i Router.obj
 0001:00085f10       ??0Router@@QAE@XZ          10086f10 f   Router.obj
 0001:00085fe0       ??0RouterInterface@@QAE@XZ 10086fe0 f i Router.obj
 0001:00086020       ??1?$Heap@GUPlayerIdAndGroupId@ConnectionGraph@@$0A@@DataStructures@@QAE@XZ 10087020 f i Router.obj
 0001:000860a0       ??1?$List@PAV?$Tree@UPlayerIdAndGroupId@ConnectionGraph@@@DataStructures@@@DataStructures@@QAE@XZ 100870a0 f i Router.obj
 0001:00086100       ??1?$List@UHeapNode@?$Heap@GUPlayerIdAndGroupId@ConnectionGraph@@$0A@@DataStructures@@@DataStructures@@QAE@XZ 10087100 f i Router.obj
 0001:00086180       ??1?$Queue@PAV?$Tree@UPlayerIdAndGroupId@ConnectionGraph@@@DataStructures@@@DataStructures@@QAE@XZ 10087180 f i Router.obj
 0001:000861e0       ??1?$Queue@UNodeAndParent@?$WeightedGraph@UPlayerIdAndGroupId@ConnectionGraph@@G$0A@@DataStructures@@@DataStructures@@QAE@XZ 100871e0 f i Router.obj
 0001:00086240       ??1?$Tree@UPlayerIdAndGroupId@ConnectionGraph@@@DataStructures@@QAE@XZ 10087240 f i Router.obj
 0001:000862d0       ??1HeapNode@?$Heap@GUPlayerIdAndGroupId@ConnectionGraph@@$0A@@DataStructures@@QAE@XZ 100872d0 f i Router.obj
 0001:00086320       ??1Router@@QAE@XZ          10087320 f   Router.obj
 0001:00086380       ??1SystemAddressList@@QAE@XZ 10087380 f i Router.obj
 0001:000863c0       ??4HeapNode@?$Heap@GUPlayerIdAndGroupId@ConnectionGraph@@$0A@@DataStructures@@QAEAAU012@ABU012@@Z 100873c0 f i Router.obj
 0001:00086420       ??A?$List@PAV?$Tree@UPlayerIdAndGroupId@ConnectionGraph@@@DataStructures@@@DataStructures@@QBEAAPAV?$Tree@UPlayerIdAndGroupId@ConnectionGraph@@@1@I@Z 10087420 f i Router.obj
 0001:00086490       ??A?$List@UHeapNode@?$Heap@GUPlayerIdAndGroupId@ConnectionGraph@@$0A@@DataStructures@@@DataStructures@@QBEAAUHeapNode@?$Heap@GUPlayerIdAndGroupId@ConnectionGraph@@$0A@@1@I@Z 10087490 f i Router.obj
 0001:00086500       ??A?$List@UPlayerIdAndGroupId@ConnectionGraph@@@DataStructures@@QBEAAUPlayerIdAndGroupId@ConnectionGraph@@I@Z 10087500 f i Router.obj
 0001:00086570       ??_EHeapNode@?$Heap@GUPlayerIdAndGroupId@ConnectionGraph@@$0A@@DataStructures@@QAEPAXI@Z 10087570 f i Router.obj
 0001:00086610       ??_G?$Tree@UPlayerIdAndGroupId@ConnectionGraph@@@DataStructures@@QAEPAXI@Z 10087610 f i Router.obj
 0001:00086670       ?AddAllowedType@Router@@QAEXE@Z 10087670 f   Router.obj
 0001:000866e0       ?Clear@?$Heap@GUPlayerIdAndGroupId@ConnectionGraph@@$0A@@DataStructures@@QAEXXZ 100876e0 f i Router.obj
 0001:00086730       ?Clear@?$List@UHeapNode@?$Heap@GUPlayerIdAndGroupId@ConnectionGraph@@$0A@@DataStructures@@@DataStructures@@QAEX_N@Z 10087730 f i Router.obj
 0001:000867f0       ?Del@?$List@UHeapNode@?$Heap@GUPlayerIdAndGroupId@ConnectionGraph@@$0A@@DataStructures@@@DataStructures@@QAEXI@Z 100877f0 f i Router.obj
 0001:00086860       ?DeleteDecendants@?$Tree@UPlayerIdAndGroupId@ConnectionGraph@@@DataStructures@@QAEXXZ 10087860 f i Router.obj
 0001:00086990       ?GenerateDisjktraMatrix@?$WeightedGraph@UPlayerIdAndGroupId@ConnectionGraph@@G$0A@@DataStructures@@IAEXUPlayerIdAndGroupId@ConnectionGraph@@G@Z 10087990 f i Router.obj
 0001:00087040       ?GetIndexAtKey@?$Map@UPlayerIdAndGroupId@ConnectionGraph@@PAV?$Map@UPlayerIdAndGroupId@ConnectionGraph@@G$1??$defaultMapKeyComparison@UPlayerIdAndGroupId@ConnectionGraph@@@DataStructures@@YAHABU12@0@Z@DataStructures@@$1??$defaultMapKeyComparison@UPlayerIdAndGroupId@ConnectionGraph@@@4@YAHABU12@0@Z@DataStructures@@QAEIABUPlayerIdAndGroupId@ConnectionGraph@@@Z 10088040 f i Router.obj
 0001:00087110       ?GetIndexFromKey@?$OrderedList@UPlayerIdAndGroupId@ConnectionGraph@@U12@$1??$defaultOrderedListComparison@UPlayerIdAndGroupId@ConnectionGraph@@U12@@DataStructures@@YAHABU12@0@Z@DataStructures@@QBEIABUPlayerIdAndGroupId@ConnectionGraph@@PA_N@Z 10088110 f i Router.obj
 0001:00087200       ?GetIndexOf@?$List@UPlayerID@@@DataStructures@@QAEIUPlayerID@@@Z 10088200 f i Router.obj
 0001:00087280       ?GetShortestPath@?$WeightedGraph@UPlayerIdAndGroupId@ConnectionGraph@@G$0A@@DataStructures@@QAE_NAAV?$List@UPlayerIdAndGroupId@ConnectionGraph@@@2@UPlayerIdAndGroupId@ConnectionGraph@@1G@Z 10088280 f i Router.obj
 0001:00087870       ?GetSpanningTree@?$WeightedGraph@UPlayerIdAndGroupId@ConnectionGraph@@G$0A@@DataStructures@@QAE_NAAV?$Tree@UPlayerIdAndGroupId@ConnectionGraph@@@2@PAV?$List@UPlayerIdAndGroupId@ConnectionGraph@@@2@UPlayerIdAndGroupId@ConnectionGraph@@G@Z 10088870 f i Router.obj
 0001:00087e00       ?Insert@?$List@PAV?$Tree@UPlayerIdAndGroupId@ConnectionGraph@@@DataStructures@@@DataStructures@@QAEXQAV?$Tree@UPlayerIdAndGroupId@ConnectionGraph@@@2@@Z 10088e00 f i Router.obj
 0001:00087f00       ?Insert@?$List@UHeapNode@?$Heap@GUPlayerIdAndGroupId@ConnectionGraph@@$0A@@DataStructures@@@DataStructures@@QAEXUHeapNode@?$Heap@GUPlayerIdAndGroupId@ConnectionGraph@@$0A@@2@@Z 10088f00 f i Router.obj
 0001:000880f0       ?Insert@?$List@UPlayerIdAndGroupId@ConnectionGraph@@@DataStructures@@QAEXUPlayerIdAndGroupId@ConnectionGraph@@@Z 100890f0 f i Router.obj
 0001:000882e0       ?Insert@?$List@UPlayerIdAndGroupId@ConnectionGraph@@@DataStructures@@QAEXUPlayerIdAndGroupId@ConnectionGraph@@I@Z 100892e0 f i Router.obj
 0001:00088510       ?Insert@?$OrderedList@UPlayerIdAndGroupId@ConnectionGraph@@U12@$1??$defaultOrderedListComparison@UPlayerIdAndGroupId@ConnectionGraph@@U12@@DataStructures@@YAHABU12@0@Z@DataStructures@@QAEIABUPlayerIdAndGroupId@ConnectionGraph@@0@Z 10089510 f i Router.obj
 0001:00088610       ?LeftChild@?$Heap@GUPlayerIdAndGroupId@ConnectionGraph@@$0A@@DataStructures@@IBEII@Z 10089610 f i Router.obj
 0001:00088650       ?LevelOrderTraversal@?$Tree@UPlayerIdAndGroupId@ConnectionGraph@@@DataStructures@@QAEXAAV?$List@PAV?$Tree@UPlayerIdAndGroupId@ConnectionGraph@@@DataStructures@@@2@@Z 10089650 f i Router.obj
 0001:000887a0       ?OnAttach@Router@@UAEXPAVRakPeerInterface@@@Z 100897a0 f   Router.obj
 0001:00088820       ?OnCloseConnection@Router@@UAEXPAVRakPeerInterface@@UPlayerID@@@Z 10089820 f   Router.obj
 0001:00088850       ?OnDetach@Router@@UAEXPAVRakPeerInterface@@@Z 10089850 f   Router.obj
 0001:000888d0       ?OnDisconnect@Router@@UAEXPAVRakPeerInterface@@@Z 100898d0 f   Router.obj
 0001:00088900       ?OnReceive@Router@@UAE?AW4PluginReceiveResult@@PAVRakPeerInterface@@PAUPacket@@@Z 10089900 f   Router.obj
 0001:00089170       ?Parent@?$Heap@GUPlayerIdAndGroupId@ConnectionGraph@@$0A@@DataStructures@@IBEII@Z 1008a170 f i Router.obj
 0001:000891d0       ?PeekWeight@?$Heap@GUPlayerIdAndGroupId@ConnectionGraph@@$0A@@DataStructures@@QBEGI@Z 1008a1d0 f i Router.obj
 0001:00089220       ?Pop@?$Heap@GUPlayerIdAndGroupId@ConnectionGraph@@$0A@@DataStructures@@QAE?AUPlayerIdAndGroupId@ConnectionGraph@@I@Z 1008a220 f i Router.obj
 0001:000895b0       ?Pop@?$Queue@PAV?$Tree@UPlayerIdAndGroupId@ConnectionGraph@@@DataStructures@@@DataStructures@@QAEPAV?$Tree@UPlayerIdAndGroupId@ConnectionGraph@@@2@XZ 1008a5b0 f i Router.obj
 0001:00089680       ?Pop@?$Queue@UNodeAndParent@?$WeightedGraph@UPlayerIdAndGroupId@ConnectionGraph@@G$0A@@DataStructures@@@DataStructures@@QAE?AUNodeAndParent@?$WeightedGraph@UPlayerIdAndGroupId@ConnectionGraph@@G$0A@@2@XZ 1008a680 f i Router.obj
 0001:000897a0       ?Push@?$Heap@GUPlayerIdAndGroupId@ConnectionGraph@@$0A@@DataStructures@@QAEXABGABUPlayerIdAndGroupId@ConnectionGraph@@@Z 1008a7a0 f i Router.obj
 0001:00089900       ?Push@?$Queue@PAV?$Tree@UPlayerIdAndGroupId@ConnectionGraph@@@DataStructures@@@DataStructures@@QAEXABQAV?$Tree@UPlayerIdAndGroupId@ConnectionGraph@@@2@@Z 1008a900 f i Router.obj
 0001:00089ac0       ?Push@?$Queue@UNodeAndParent@?$WeightedGraph@UPlayerIdAndGroupId@ConnectionGraph@@G$0A@@DataStructures@@@DataStructures@@QAEXABUNodeAndParent@?$WeightedGraph@UPlayerIdAndGroupId@ConnectionGraph@@G$0A@@2@@Z 1008aac0 f i Router.obj
 0001:00089c90       ?PushAtHead@?$Queue@UPlayerIdAndGroupId@ConnectionGraph@@@DataStructures@@QAEXABUPlayerIdAndGroupId@ConnectionGraph@@I@Z 1008ac90 f i Router.obj
 0001:00089fe0       ?RemoveAllowedType@Router@@QAEXE@Z 1008afe0 f   Router.obj
 0001:0008a040       ?RightChild@?$Heap@GUPlayerIdAndGroupId@ConnectionGraph@@$0A@@DataStructures@@IBEII@Z 1008b040 f i Router.obj
 0001:0008a080       ?Send@Router@@QAE_NPADIW4PacketPriority@@W4PacketReliability@@DPAVSystemAddressList@@@Z 1008b080 f   Router.obj
 0001:0008a4a0       ?Send@Router@@UAE_NPBDIW4PacketPriority@@W4PacketReliability@@DUPlayerID@@@Z 1008b4a0 f   Router.obj
 0001:0008a620       ?SendTree@Router@@IAEXW4PacketPriority@@W4PacketReliability@@DPAV?$Tree@UPlayerIdAndGroupId@ConnectionGraph@@@DataStructures@@PBDIPAVBitStream@RakNet@@PAVSystemAddressList@@@Z 1008b620 f   Router.obj
 0001:0008a7f0       ?SerializePreorder@Router@@IBEXPAV?$Tree@UPlayerIdAndGroupId@ConnectionGraph@@@DataStructures@@PAVBitStream@RakNet@@PAVSystemAddressList@@@Z 1008b7f0 f   Router.obj
 0001:0008a8f0       ?SetConnectionGraph@Router@@QAEXPAV?$WeightedGraph@UPlayerIdAndGroupId@ConnectionGraph@@G$0A@@DataStructures@@@Z 1008b8f0 f   Router.obj
 0001:0008a930       ?SetRestrictRoutingByType@Router@@QAEX_N@Z 1008b930 f   Router.obj
 0001:0008a970       ?Size@?$Heap@GUPlayerIdAndGroupId@ConnectionGraph@@$0A@@DataStructures@@QBEIXZ 1008b970 f i Router.obj
 0001:0008a9b0       ?Size@?$List@PAV?$Tree@UPlayerIdAndGroupId@ConnectionGraph@@@DataStructures@@@DataStructures@@QBEIXZ 1008b9b0 f i Router.obj
 0001:0008a9e0       ?Size@?$List@UHeapNode@?$Heap@GUPlayerIdAndGroupId@ConnectionGraph@@$0A@@DataStructures@@@DataStructures@@QBEIXZ 1008b9e0 f i Router.obj
 0001:0008aa10       ?Size@?$List@UPlayerIdAndGroupId@ConnectionGraph@@@DataStructures@@QBEIXZ 1008ba10 f i Router.obj
 0001:0008aa40       ?Size@?$OrderedList@UPlayerIdAndGroupId@ConnectionGraph@@U12@$1??$defaultOrderedListComparison@UPlayerIdAndGroupId@ConnectionGraph@@U12@@DataStructures@@YAHABU12@0@Z@DataStructures@@QBEIXZ 1008ba40 f i Router.obj
 0001:0008aa80       ?Size@?$Queue@PAV?$Tree@UPlayerIdAndGroupId@ConnectionGraph@@@DataStructures@@@DataStructures@@QBEIXZ 1008ba80 f i Router.obj
 0001:0008aae0       ?Size@?$Queue@UNodeAndParent@?$WeightedGraph@UPlayerIdAndGroupId@ConnectionGraph@@G$0A@@DataStructures@@@DataStructures@@QBEIXZ 1008bae0 f i Router.obj
 0001:0008ab40       ?Swap@?$Heap@GUPlayerIdAndGroupId@ConnectionGraph@@$0A@@DataStructures@@IAEXII@Z 1008bb40 f i Router.obj
 0001:0008ac40       ?Update@Router@@UAEXPAVRakPeerInterface@@@Z 1008bc40 f   Router.obj
 0001:0008ac70       ??0?$List@PAURPCNode@@@DataStructures@@QAE@XZ 1008bc70 f i RPCMap.obj
 0001:0008acc0       ??0RPCMap@@QAE@XZ          1008bcc0 f   RPCMap.obj
 0001:0008ad10       ??1?$List@PAURPCNode@@@DataStructures@@QAE@XZ 1008bd10 f i RPCMap.obj
 0001:0008ad70       ??1RPCMap@@QAE@XZ          1008bd70 f   RPCMap.obj
 0001:0008adf0       ??A?$List@PAURPCNode@@@DataStructures@@QBEAAPAURPCNode@@I@Z 1008bdf0 f i RPCMap.obj
 0001:0008ae60       ?AddIdentifierAtIndex@RPCMap@@QAEXPADE@Z 1008be60 f   RPCMap.obj
 0001:0008b030       ?AddIdentifierWithFunction@RPCMap@@QAEXPADPAX_N@Z 1008c030 f   RPCMap.obj
 0001:0008b1f0       ?Clear@?$List@PAURPCNode@@@DataStructures@@QAEX_N@Z 1008c1f0 f i RPCMap.obj
 0001:0008b280       ?Clear@RPCMap@@QAEXXZ      1008c280 f   RPCMap.obj
 0001:0008b330       ?GetIndexFromFunctionName@RPCMap@@QAEEPAD@Z 1008c330 f   RPCMap.obj
 0001:0008b3d0       ?GetNodeFromFunctionName@RPCMap@@QAEPAURPCNode@@PAD@Z 1008c3d0 f   RPCMap.obj
 0001:0008b440       ?GetNodeFromIndex@RPCMap@@QAEPAURPCNode@@E@Z 1008c440 f   RPCMap.obj
 0001:0008b4a0       ?Insert@?$List@PAURPCNode@@@DataStructures@@QAEXQAURPCNode@@@Z 1008c4a0 f i RPCMap.obj
 0001:0008b5a0       ?RemoveNode@RPCMap@@QAEXPAD@Z 1008c5a0 f   RPCMap.obj
 0001:0008b670       ?Replace@?$List@PAURPCNode@@@DataStructures@@QAEXQAURPCNode@@0I@Z 1008c670 f i RPCMap.obj
 0001:0008b7d0       ?Size@?$List@PAURPCNode@@@DataStructures@@QBEIXZ 1008c7d0 f i RPCMap.obj
 0001:0008b800       ??0CSHA1@@QAE@XZ           1008c800 f   SHA1.obj
 0001:0008b850       ??1CSHA1@@UAE@XZ           1008c850 f   SHA1.obj
 0001:0008b8a0       ??_ECSHA1@@UAEPAXI@Z       1008c8a0 f i SHA1.obj
 0001:0008b8a0       ??_GCSHA1@@UAEPAXI@Z       1008c8a0 f i SHA1.obj
 0001:0008b900       ?Final@CSHA1@@QAEXXZ       1008c900 f   SHA1.obj
 0001:0008bb10       ?GetHash@CSHA1@@QAEXPAE@Z  1008cb10 f   SHA1.obj
 0001:0008bb60       ?GetHash@CSHA1@@QBEPAEXZ   1008cb60 f   SHA1.obj
 0001:0008bb90       ?HashFile@CSHA1@@QAE_NPAD@Z 1008cb90 f   SHA1.obj
 0001:0008bd90       ?ReportHash@CSHA1@@QAEXPADE@Z 1008cd90 f   SHA1.obj
 0001:0008bf20       ?Reset@CSHA1@@QAEXXZ       1008cf20 f   SHA1.obj
 0001:0008bfd0       ?Transform@CSHA1@@AAEXQAIQAE@Z 1008cfd0 f   SHA1.obj
 0001:0008ffb0       ?Update@CSHA1@@QAEXPAEI@Z  10090fb0 f   SHA1.obj
 0001:00090140       ??0SimpleMutex@@QAE@XZ     10091140 f   SimpleMutex.obj
 0001:00090190       ??1SimpleMutex@@QAE@XZ     10091190 f   SimpleMutex.obj
 0001:000901e0       ?Lock@SimpleMutex@@QAEXXZ  100911e0 f   SimpleMutex.obj
 0001:00090230       ?Unlock@SimpleMutex@@QAEXXZ 10091230 f   SimpleMutex.obj
 0001:00090280       ??0SocketLayer@@QAE@XZ     10091280 f   SocketLayer.obj
 0001:00090390       ??1SocketLayer@@QAE@XZ     10091390 f   SocketLayer.obj
 0001:000903f0       ?AssociateSocketWithCompletionPortAndRead@SocketLayer@@QAE_NIIGPAVRakPeer@@@Z 100913f0 f   SocketLayer.obj
 0001:00090420       ?Connect@SocketLayer@@QAEIIIG@Z 10091420 f   SocketLayer.obj
 0001:00090590       ?CreateBoundSocket@SocketLayer@@QAEIG_NPBD@Z 10091590 f   SocketLayer.obj
 0001:00090a00       ?DomainNameToIP@SocketLayer@@QAEPBDPBD@Z 10091a00 f   SocketLayer.obj
 0001:00090ad0       ?GetLocalPort@SocketLayer@@QAEGI@Z 10091ad0 f   SocketLayer.obj
 0001:00090ba0       ?GetMyIP@SocketLayer@@QAEXQAY0BA@D@Z 10091ba0 f   SocketLayer.obj
 0001:00090e00       ?RecvFrom@SocketLayer@@QAEHIPAVRakPeer@@PAH@Z 10091e00 f   SocketLayer.obj
 0001:000910c0       ?SendTo@SocketLayer@@QAEHIPBDHIG@Z 100920c0 f   SocketLayer.obj
 0001:00091330       ?SendTo@SocketLayer@@QAEHIPBDHQADG@Z 10092330 f   SocketLayer.obj
 0001:000913a0       ?Write@SocketLayer@@QAEXIPBDH@Z 100923a0 f   SocketLayer.obj
 0001:000914f0       ??$defaultMapKeyComparison@H@DataStructures@@YAHABH0@Z 100924f0 f i StringCompressor.obj
 0001:00091540       ??0?$List@UMapNode@?$Map@HPAVHuffmanEncodingTree@@$1??$defaultMapKeyComparison@H@DataStructures@@YAHABH0@Z@DataStructures@@@DataStructures@@QAE@XZ 10092540 f i StringCompressor.obj
 0001:00091590       ??0?$Map@HPAVHuffmanEncodingTree@@$1??$defaultMapKeyComparison@H@DataStructures@@YAHABH0@Z@DataStructures@@QAE@XZ 10092590 f i StringCompressor.obj
 0001:000915e0       ??0?$OrderedList@HUMapNode@?$Map@HPAVHuffmanEncodingTree@@$1??$defaultMapKeyComparison@H@DataStructures@@YAHABH0@Z@DataStructures@@$1?NodeComparisonFunc@23@SAHABHABU123@@Z@DataStructures@@QAE@XZ 100925e0 f i StringCompressor.obj
 0001:00091630       ??0MapNode@?$Map@HPAVHuffmanEncodingTree@@$1??$defaultMapKeyComparison@H@DataStructures@@YAHABH0@Z@DataStructures@@QAE@HPAVHuffmanEncodingTree@@@Z 10092630 f i StringCompressor.obj
 0001:00091670       ??0MapNode@?$Map@HPAVHuffmanEncodingTree@@$1??$defaultMapKeyComparison@H@DataStructures@@YAHABH0@Z@DataStructures@@QAE@XZ 10092670 f i StringCompressor.obj
 0001:000916a0       ??0StringCompressor@@AAE@XZ 100926a0 f   StringCompressor.obj
 0001:000917e0       ??1?$List@UMapNode@?$Map@HPAVHuffmanEncodingTree@@$1??$defaultMapKeyComparison@H@DataStructures@@YAHABH0@Z@DataStructures@@@DataStructures@@QAE@XZ 100927e0 f i StringCompressor.obj
 0001:00091840       ??1?$Map@HPAVHuffmanEncodingTree@@$1??$defaultMapKeyComparison@H@DataStructures@@YAHABH0@Z@DataStructures@@QAE@XZ 10092840 f i StringCompressor.obj
 0001:000918c0       ??1?$OrderedList@HUMapNode@?$Map@HPAVHuffmanEncodingTree@@$1??$defaultMapKeyComparison@H@DataStructures@@YAHABH0@Z@DataStructures@@$1?NodeComparisonFunc@23@SAHABHABU123@@Z@DataStructures@@QAE@XZ 100928c0 f i StringCompressor.obj
 0001:00091940       ??1StringCompressor@@QAE@XZ 10092940 f   StringCompressor.obj
 0001:00091a20       ??A?$List@UMapNode@?$Map@HPAVHuffmanEncodingTree@@$1??$defaultMapKeyComparison@H@DataStructures@@YAHABH0@Z@DataStructures@@@DataStructures@@QBEAAUMapNode@?$Map@HPAVHuffmanEncodingTree@@$1??$defaultMapKeyComparison@H@DataStructures@@YAHABH0@Z@1@I@Z 10092a20 f i StringCompressor.obj
 0001:00091a90       ??A?$Map@HPAVHuffmanEncodingTree@@$1??$defaultMapKeyComparison@H@DataStructures@@YAHABH0@Z@DataStructures@@QBEAAPAVHuffmanEncodingTree@@I@Z 10092a90 f i StringCompressor.obj
 0001:00091ae0       ??A?$OrderedList@HUMapNode@?$Map@HPAVHuffmanEncodingTree@@$1??$defaultMapKeyComparison@H@DataStructures@@YAHABH0@Z@DataStructures@@$1?NodeComparisonFunc@23@SAHABHABU123@@Z@DataStructures@@QBEAAUMapNode@?$Map@HPAVHuffmanEncodingTree@@$1??$defaultMapKeyComparison@H@DataStructures@@YAHABH0@Z@1@I@Z 10092ae0 f i StringCompressor.obj
 0001:00091b30       ??_GStringCompressor@@QAEPAXI@Z 10092b30 f i StringCompressor.obj
 0001:00091b90       ?AddReference@StringCompressor@@SAXXZ 10092b90 f   StringCompressor.obj
 0001:00091c60       ?Clear@?$List@UMapNode@?$Map@HPAVHuffmanEncodingTree@@$1??$defaultMapKeyComparison@H@DataStructures@@YAHABH0@Z@DataStructures@@@DataStructures@@QAEX_N@Z 10092c60 f i StringCompressor.obj
 0001:00091cf0       ?Clear@?$Map@HPAVHuffmanEncodingTree@@$1??$defaultMapKeyComparison@H@DataStructures@@YAHABH0@Z@DataStructures@@QAEXXZ 10092cf0 f i StringCompressor.obj
 0001:00091d40       ?Clear@?$OrderedList@HUMapNode@?$Map@HPAVHuffmanEncodingTree@@$1??$defaultMapKeyComparison@H@DataStructures@@YAHABH0@Z@DataStructures@@$1?NodeComparisonFunc@23@SAHABHABU123@@Z@DataStructures@@QAEXXZ 10092d40 f i StringCompressor.obj
 0001:00091d90       ?DecodeString@StringCompressor@@QAE_NPADHPAVBitStream@RakNet@@H@Z 10092d90 f   StringCompressor.obj
 0001:00091ea0       ?EncodeString@StringCompressor@@QAEXPBDHPAVBitStream@RakNet@@H@Z 10092ea0 f   StringCompressor.obj
 0001:00092040       ?GenerateTreeFromStrings@StringCompressor@@QAEXPAEIH@Z 10093040 f   StringCompressor.obj
 0001:00092250       ?Get@?$Map@HPAVHuffmanEncodingTree@@$1??$defaultMapKeyComparison@H@DataStructures@@YAHABH0@Z@DataStructures@@QAEAAPAVHuffmanEncodingTree@@ABH@Z 10093250 f i StringCompressor.obj
 0001:00092340       ?GetIndexFromKey@?$OrderedList@HUMapNode@?$Map@HPAVHuffmanEncodingTree@@$1??$defaultMapKeyComparison@H@DataStructures@@YAHABH0@Z@DataStructures@@$1?NodeComparisonFunc@23@SAHABHABU123@@Z@DataStructures@@QBEIABHPA_N@Z 10093340 f i StringCompressor.obj
 0001:00092430       ?Has@?$Map@HPAVHuffmanEncodingTree@@$1??$defaultMapKeyComparison@H@DataStructures@@YAHABH0@Z@DataStructures@@QAE_NABH@Z 10093430 f i StringCompressor.obj
 0001:000924f0       ?HasSavedSearchResult@?$Map@HPAVHuffmanEncodingTree@@$1??$defaultMapKeyComparison@H@DataStructures@@YAHABH0@Z@DataStructures@@IBE_NABH@Z 100934f0 f i StringCompressor.obj
 0001:00092570       ?IMPLEMENT_DEFAULT_COMPARISON@?$Map@HPAVHuffmanEncodingTree@@$1??$defaultMapKeyComparison@H@DataStructures@@YAHABH0@Z@DataStructures@@SAXXZ 10093570 f i StringCompressor.obj
 0001:000925d0       ?Insert@?$List@UMapNode@?$Map@HPAVHuffmanEncodingTree@@$1??$defaultMapKeyComparison@H@DataStructures@@YAHABH0@Z@DataStructures@@@DataStructures@@QAEXUMapNode@?$Map@HPAVHuffmanEncodingTree@@$1??$defaultMapKeyComparison@H@DataStructures@@YAHABH0@Z@2@@Z 100935d0 f i StringCompressor.obj
 0001:00092760       ?Insert@?$List@UMapNode@?$Map@HPAVHuffmanEncodingTree@@$1??$defaultMapKeyComparison@H@DataStructures@@YAHABH0@Z@DataStructures@@@DataStructures@@QAEXUMapNode@?$Map@HPAVHuffmanEncodingTree@@$1??$defaultMapKeyComparison@H@DataStructures@@YAHABH0@Z@2@I@Z 10093760 f i StringCompressor.obj
 0001:00092940       ?Insert@?$OrderedList@HUMapNode@?$Map@HPAVHuffmanEncodingTree@@$1??$defaultMapKeyComparison@H@DataStructures@@YAHABH0@Z@DataStructures@@$1?NodeComparisonFunc@23@SAHABHABU123@@Z@DataStructures@@QAEIABHABUMapNode@?$Map@HPAVHuffmanEncodingTree@@$1??$defaultMapKeyComparison@H@DataStructures@@YAHABH0@Z@2@@Z 10093940 f i StringCompressor.obj
 0001:00092a20       ?Instance@StringCompressor@@SAPAV1@XZ 10093a20 f   StringCompressor.obj
 0001:00092a50       ?NodeComparisonFunc@?$Map@HPAVHuffmanEncodingTree@@$1??$defaultMapKeyComparison@H@DataStructures@@YAHABH0@Z@DataStructures@@SAHABHABUMapNode@12@@Z 10093a50 f i StringCompressor.obj
 0001:00092aa0       ?RemoveReference@StringCompressor@@SAXXZ 10093aa0 f   StringCompressor.obj
 0001:00092b60       ?SaveLastSearch@?$Map@HPAVHuffmanEncodingTree@@$1??$defaultMapKeyComparison@H@DataStructures@@YAHABH0@Z@DataStructures@@IAEXABHI@Z 10093b60 f i StringCompressor.obj
 0001:00092bb0       ?Set@?$Map@HPAVHuffmanEncodingTree@@$1??$defaultMapKeyComparison@H@DataStructures@@YAHABH0@Z@DataStructures@@QAEXABHABQAVHuffmanEncodingTree@@@Z 10093bb0 f i StringCompressor.obj
 0001:00092cc0       ?Size@?$List@UMapNode@?$Map@HPAVHuffmanEncodingTree@@$1??$defaultMapKeyComparison@H@DataStructures@@YAHABH0@Z@DataStructures@@@DataStructures@@QBEIXZ 10093cc0 f i StringCompressor.obj
 0001:00092cf0       ?Size@?$Map@HPAVHuffmanEncodingTree@@$1??$defaultMapKeyComparison@H@DataStructures@@YAHABH0@Z@DataStructures@@QBEIXZ 10093cf0 f i StringCompressor.obj
 0001:00092d30       ?Size@?$OrderedList@HUMapNode@?$Map@HPAVHuffmanEncodingTree@@$1??$defaultMapKeyComparison@H@DataStructures@@YAHABH0@Z@DataStructures@@$1?NodeComparisonFunc@23@SAHABHABU123@@Z@DataStructures@@QBEIXZ 10093d30 f i StringCompressor.obj
 0001:00092d70       ??0?$List@UStrAndBool@@@DataStructures@@QAE@XZ 10093d70 f i StringTable.obj
 0001:00092dc0       ??0?$OrderedList@PADUStrAndBool@@$1?StrAndBoolComp@@YAHABQADABU1@@Z@DataStructures@@QAE@XZ 10093dc0 f i StringTable.obj
 0001:00092e10       ??0StringTable@@IAE@XZ     10093e10 f   StringTable.obj
 0001:00092e60       ??1?$List@UStrAndBool@@@DataStructures@@QAE@XZ 10093e60 f i StringTable.obj
 0001:00092ec0       ??1?$OrderedList@PADUStrAndBool@@$1?StrAndBoolComp@@YAHABQADABU1@@Z@DataStructures@@QAE@XZ 10093ec0 f i StringTable.obj
 0001:00092f40       ??1StringTable@@QAE@XZ     10093f40 f   StringTable.obj
 0001:00093010       ??A?$List@UStrAndBool@@@DataStructures@@QBEAAUStrAndBool@@I@Z 10094010 f i StringTable.obj
 0001:00093080       ??A?$OrderedList@PADUStrAndBool@@$1?StrAndBoolComp@@YAHABQADABU1@@Z@DataStructures@@QBEAAUStrAndBool@@I@Z 10094080 f i StringTable.obj
 0001:000930d0       ??_GStringTable@@QAEPAXI@Z 100940d0 f i StringTable.obj
 0001:00093130       ?AddReference@StringTable@@SAXXZ 10094130 f   StringTable.obj
 0001:00093200       ?AddString@StringTable@@QAEXPBD_N@Z 10094200 f   StringTable.obj
 0001:00093310       ?Clear@?$List@UStrAndBool@@@DataStructures@@QAEX_N@Z 10094310 f i StringTable.obj
 0001:000933a0       ?Clear@?$OrderedList@PADUStrAndBool@@$1?StrAndBoolComp@@YAHABQADABU1@@Z@DataStructures@@QAEXXZ 100943a0 f i StringTable.obj
 0001:000933f0       ?DecodeString@StringTable@@QAE_NPADHPAVBitStream@RakNet@@@Z 100943f0 f   StringTable.obj
 0001:00093550       ?EncodeString@StringTable@@QAEXPBDHPAVBitStream@RakNet@@@Z 10094550 f   StringTable.obj
 0001:00093630       ?GetIndexFromKey@?$OrderedList@PADUStrAndBool@@$1?StrAndBoolComp@@YAHABQADABU1@@Z@DataStructures@@QBEIABQADPA_N@Z 10094630 f i StringTable.obj
 0001:00093720       ?Insert@?$List@UStrAndBool@@@DataStructures@@QAEXUStrAndBool@@@Z 10094720 f i StringTable.obj
 0001:00093820       ?Insert@?$List@UStrAndBool@@@DataStructures@@QAEXUStrAndBool@@I@Z 10094820 f i StringTable.obj
 0001:00093970       ?Insert@?$OrderedList@PADUStrAndBool@@$1?StrAndBoolComp@@YAHABQADABU1@@Z@DataStructures@@QAEIABQADABUStrAndBool@@@Z 10094970 f i StringTable.obj
 0001:00093a60       ?Instance@StringTable@@SAPAV1@XZ 10094a60 f   StringTable.obj
 0001:00093a90       ?LogStringNotFound@StringTable@@IAEXPBD@Z 10094a90 f   StringTable.obj
 0001:00093ae0       ?RemoveReference@StringTable@@SAXXZ 10094ae0 f   StringTable.obj
 0001:00093ba0       ?Size@?$List@UStrAndBool@@@DataStructures@@QBEIXZ 10094ba0 f i StringTable.obj
 0001:00093bd0       ?Size@?$OrderedList@PADUStrAndBool@@$1?StrAndBoolComp@@YAHABQADABU1@@Z@DataStructures@@QBEIXZ 10094bd0 f i StringTable.obj
 0001:00093c10       ?StrAndBoolComp@@YAHABQADABUStrAndBool@@@Z 10094c10 f   StringTable.obj
 0001:00093c60       ??0SystemAddressList@@QAE@UPlayerID@@@Z 10094c60 f   SystemAddressList.obj
 0001:00093d00       ??0SystemAddressList@@QAE@XZ 10094d00 f   SystemAddressList.obj
 0001:00093d50       ??ASystemAddressList@@QBEAAUPlayerID@@I@Z 10094d50 f   SystemAddressList.obj
 0001:00093da0       ?AddSystem@SystemAddressList@@QAEXUPlayerID@@@Z 10094da0 f   SystemAddressList.obj
 0001:00093e00       ?Clear@SystemAddressList@@QAEXXZ 10094e00 f   SystemAddressList.obj
 0001:00093e50       ?Deserialize@SystemAddressList@@QAE_NPAVBitStream@RakNet@@@Z 10094e50 f   SystemAddressList.obj
 0001:00093fa0       ?GetList@SystemAddressList@@QAEPAV?$List@UPlayerID@@@DataStructures@@XZ 10094fa0 f   SystemAddressList.obj
 0001:00093fd0       ?Load@SystemAddressList@@QAE_NPBD@Z 10094fd0 f   SystemAddressList.obj
 0001:00094180       ?RandomizeOrder@SystemAddressList@@QAEXXZ 10095180 f   SystemAddressList.obj
 0001:00094280       ?RemoveSystem@SystemAddressList@@QAEXUPlayerID@@@Z 10095280 f   SystemAddressList.obj
 0001:00094310       ?Save@SystemAddressList@@QAE_NPBD@Z 10095310 f   SystemAddressList.obj
 0001:00094470       ?Serialize@SystemAddressList@@QAEXPAVBitStream@RakNet@@@Z 10095470 f   SystemAddressList.obj
 0001:00094500       ?Size@SystemAddressList@@QBEIXZ 10095500 f   SystemAddressList.obj
 0001:00094540       ?DeserializeCell@TableSerializer@@SA_NPAVBitStream@RakNet@@PAUCell@Table@DataStructures@@W4ColumnType@56@@Z 10095540 f   TableSerializer.obj
 0001:00094720       ?DeserializeRow@TableSerializer@@SA_NPAVBitStream@RakNet@@PAVTable@DataStructures@@@Z 10095720 f   TableSerializer.obj
 0001:00094820       ?DeserializeTable@TableSerializer@@SA_NPAEIPAVTable@DataStructures@@@Z 10095820 f   TableSerializer.obj
 0001:00094ac0       ?SerializeCell@TableSerializer@@SAXPAVBitStream@RakNet@@PAUCell@Table@DataStructures@@W4ColumnType@56@@Z 10095ac0 f   TableSerializer.obj
 0001:00094ba0       ?SerializeRow@TableSerializer@@SAXPAURow@Table@DataStructures@@IAAV?$List@UColumnDescriptor@Table@DataStructures@@@4@PAVBitStream@RakNet@@@Z 10095ba0 f   TableSerializer.obj
 0001:00094c30       ?SerializeTable@TableSerializer@@SAXPAVTable@DataStructures@@PAVBitStream@RakNet@@@Z 10095c30 f   TableSerializer.obj
 0001:00094d60       ??$_Allocate@D@std@@YAPADIPAD@Z 10095d60 f i TCPInterface.obj
 0001:00094dd0       ??$_Allocate@U_Container_proxy@std@@@std@@YAPAU_Container_proxy@0@IPAU10@@Z 10095dd0 f i TCPInterface.obj
 0001:00094e40       ??$_Debug_pointer@D@std@@YAXPBDPB_WI@Z 10095e40 f i TCPInterface.obj
 0001:00094e90       ??$addressof@D@std@@YAPADAAD@Z 10095e90 f i TCPInterface.obj
 0001:00094ec0       ??$construct@PADAAPAD@?$_Wrap_alloc@V?$allocator@D@std@@@std@@QAEXPAPADAAPAD@Z 10095ec0 f i TCPInterface.obj
 0001:00094f20       ??$construct@PADAAPAD@?$allocator@D@std@@QAEXPAPADAAPAD@Z 10095f20 f i TCPInterface.obj
 0001:00094ff0       ??$construct@PADAAPAD@?$allocator_traits@V?$allocator@D@std@@@std@@SAXAAV?$allocator@D@1@PAPADAAPAD@Z 10095ff0 f i TCPInterface.obj
 0001:00095040       ??$construct@U_Container_proxy@std@@U12@@?$allocator@U_Container_proxy@std@@@std@@QAEXPAU_Container_proxy@1@$$QAU21@@Z 10096040 f i TCPInterface.obj
 0001:00095110       ??$destroy@PAD@?$_Wrap_alloc@V?$allocator@D@std@@@std@@QAEXPAPAD@Z 10096110 f i TCPInterface.obj
 0001:00095160       ??$destroy@PAD@?$allocator@D@std@@QAEXPAPAD@Z 10096160 f i TCPInterface.obj
 0001:00095190       ??$destroy@PAD@?$allocator_traits@V?$allocator@D@std@@@std@@SAXAAV?$allocator@D@1@PAPAD@Z 10096190 f i TCPInterface.obj
 0001:000951d0       ??$destroy@U_Container_proxy@std@@@?$allocator@U_Container_proxy@std@@@std@@QAEXPAU_Container_proxy@1@@Z 100961d0 f i TCPInterface.obj
 0001:00095200       ??$forward@AAPAD@std@@YAAAPADAAPAD@Z 10096200 f i TCPInterface.obj
 0001:00095230       ??$forward@U_Container_proxy@std@@@std@@YA$$QAU_Container_proxy@0@AAU10@@Z 10096230 f i TCPInterface.obj
 0001:00095260       ??0?$List@PAURemoteClient@@@DataStructures@@QAE@XZ 10096260 f i TCPInterface.obj
 0001:000952b0       ??0?$SingleProducerConsumer@PAURemoteClient@@@DataStructures@@QAE@XZ 100962b0 f i TCPInterface.obj
 0001:000953d0       ??0?$SingleProducerConsumer@UPacket@@@DataStructures@@QAE@XZ 100963d0 f i TCPInterface.obj
 0001:000954f0       ??0?$SingleProducerConsumer@UPlayerID@@@DataStructures@@QAE@XZ 100964f0 f i TCPInterface.obj
 0001:00095610       ??0?$_String_alloc@$0A@U?$_String_base_types@DV?$allocator@D@std@@@std@@@std@@QAE@ABV?$allocator@D@1@@Z 10096610 f i TCPInterface.obj
 0001:000956a0       ??0?$_String_val@U?$_Simple_types@D@std@@@std@@QAE@XZ 100966a0 f i TCPInterface.obj
 0001:00095700       ??0?$_Wrap_alloc@V?$allocator@D@std@@@std@@QAE@XZ 10096700 f i TCPInterface.obj
 0001:00095750       ??0?$allocator@D@std@@QAE@XZ 10096750 f i TCPInterface.obj
 0001:00095780       ??0?$allocator@U_Container_proxy@std@@@std@@QAE@XZ 10096780 f i TCPInterface.obj
 0001:000957b0       ??0?$basic_string@DU?$char_traits@D@std@@V?$allocator@D@2@@std@@QAE@PBD@Z 100967b0 f i TCPInterface.obj
 0001:00095850       ??0TCPInterface@@QAE@XZ    10096850 f   TCPInterface.obj
 0001:00095a30       ??0_Container_base12@std@@QAE@XZ 10096a30 f i TCPInterface.obj
 0001:00095a70       ??0_Container_proxy@std@@QAE@XZ 10096a70 f i TCPInterface.obj
 0001:00095ab0       ??0_Generic_error_category@std@@QAE@XZ 10096ab0 f i TCPInterface.obj
 0001:00095b00       ??0_Iostream_error_category@std@@QAE@XZ 10096b00 f i TCPInterface.obj
 0001:00095b50       ??0_System_error_category@std@@QAE@XZ 10096b50 f i TCPInterface.obj
 0001:00095ba0       ??0error_category@std@@QAE@XZ 10096ba0 f i TCPInterface.obj
 0001:00095be0       ??0error_condition@std@@QAE@HABVerror_category@1@@Z 10096be0 f i TCPInterface.obj
 0001:00095c20       ??1?$List@PAURemoteClient@@@DataStructures@@QAE@XZ 10096c20 f i TCPInterface.obj
 0001:00095c80       ??1?$SingleProducerConsumer@PAURemoteClient@@@DataStructures@@QAE@XZ 10096c80 f i TCPInterface.obj
 0001:00095d30       ??1?$SingleProducerConsumer@UPacket@@@DataStructures@@QAE@XZ 10096d30 f i TCPInterface.obj
 0001:00095de0       ??1?$SingleProducerConsumer@UPlayerID@@@DataStructures@@QAE@XZ 10096de0 f i TCPInterface.obj
 0001:00095e90       ??1?$_String_alloc@$0A@U?$_String_base_types@DV?$allocator@D@std@@@std@@@std@@QAE@XZ 10096e90 f i TCPInterface.obj
 0001:00095ee0       ??1?$_String_val@U?$_Simple_types@D@std@@@std@@QAE@XZ 10096ee0 f i TCPInterface.obj
 0001:00095f20       ??1TCPInterface@@QAE@XZ    10096f20 f   TCPInterface.obj
 0001:00096000       ??1_Container_base12@std@@QAE@XZ 10097000 f i TCPInterface.obj
 0001:00096040       ??1_Generic_error_category@std@@UAE@XZ 10097040 f i TCPInterface.obj
 0001:00096080       ??1_Iostream_error_category@std@@UAE@XZ 10097080 f i TCPInterface.obj
 0001:000960c0       ??1_System_error_category@std@@UAE@XZ 100970c0 f i TCPInterface.obj
 0001:00096100       ??1error_category@std@@UAE@XZ 10097100 f i TCPInterface.obj
 0001:00096140       ??2@YAPAXIPAX@Z            10097140 f i TCPInterface.obj
 0001:00096170       ??3@YAXPAX0@Z              10097170 f i TCPInterface.obj
 0001:000961a0       ??8error_category@std@@QBE_NABV01@@Z 100971a0 f i TCPInterface.obj
 0001:000961f0       ??8error_condition@std@@QBE_NABV01@@Z 100971f0 f i TCPInterface.obj
 0001:00096280       ??A?$List@PAURemoteClient@@@DataStructures@@QBEAAPAURemoteClient@@I@Z 10097280 f i TCPInterface.obj
 0001:000962f0       ??_G_Generic_error_category@std@@UAEPAXI@Z 100972f0 f i TCPInterface.obj
 0001:000962f0       ??_E_Generic_error_category@std@@UAEPAXI@Z 100972f0 f i TCPInterface.obj
 0001:00096350       ??_E_Iostream_error_category@std@@UAEPAXI@Z 10097350 f i TCPInterface.obj
 0001:00096350       ??_G_Iostream_error_category@std@@UAEPAXI@Z 10097350 f i TCPInterface.obj
 0001:000963b0       ??_E_System_error_category@std@@UAEPAXI@Z 100973b0 f i TCPInterface.obj
 0001:000963b0       ??_G_System_error_category@std@@UAEPAXI@Z 100973b0 f i TCPInterface.obj
 0001:00096410       ??_Eerror_category@std@@UAEPAXI@Z 10097410 f i TCPInterface.obj
 0001:00096410       ??_Gerror_category@std@@UAEPAXI@Z 10097410 f i TCPInterface.obj
 0001:00096470       ?CheckReadUnlockOrder@?$SingleProducerConsumer@UPacket@@@DataStructures@@QBE_NPBUPacket@@@Z 10097470 f i TCPInterface.obj
 0001:000964d0       ?Clear@?$List@PAURemoteClient@@@DataStructures@@QAEX_N@Z 100974d0 f i TCPInterface.obj
 0001:00096560       ?Clear@?$SingleProducerConsumer@PAURemoteClient@@@DataStructures@@QAEXXZ 10097560 f i TCPInterface.obj
 0001:000966c0       ?Clear@?$SingleProducerConsumer@UPacket@@@DataStructures@@QAEXXZ 100976c0 f i TCPInterface.obj
 0001:00096820       ?Clear@?$SingleProducerConsumer@UPlayerID@@@DataStructures@@QAEXXZ 10097820 f i TCPInterface.obj
 0001:00096980       ?CloseConnection@TCPInterface@@QAEXUPlayerID@@@Z 10097980 f   TCPInterface.obj
 0001:00096a10       ?Connect@TCPInterface@@QAE?AUPlayerID@@PBDG@Z 10097a10 f   TCPInterface.obj
 0001:00096c50       ?DeallocatePacket@TCPInterface@@QAEXPAUPacket@@@Z 10097c50 f   TCPInterface.obj
 0001:00096cf0       ?Del@?$List@PAURemoteClient@@@DataStructures@@QAEXI@Z 10097cf0 f i TCPInterface.obj
 0001:00096d60       ?DeleteRemoteClient@TCPInterface@@IAEXPAURemoteClient@@PAUfd_set@@@Z 10097d60 f   TCPInterface.obj
 0001:00096dd0       ?HasLostConnection@TCPInterface@@QAE?AUPlayerID@@XZ 10097dd0 f   TCPInterface.obj
 0001:00096e60       ?HasNewConnection@TCPInterface@@QAE?AUPlayerID@@XZ 10097e60 f   TCPInterface.obj
 0001:00096ef0       ?Insert@?$List@PAURemoteClient@@@DataStructures@@QAEXQAURemoteClient@@@Z 10097ef0 f i TCPInterface.obj
 0001:00096ff0       ?ReadLock@?$SingleProducerConsumer@PAURemoteClient@@@DataStructures@@QAEPAPAURemoteClient@@XZ 10097ff0 f i TCPInterface.obj
 0001:00097050       ?ReadLock@?$SingleProducerConsumer@UPacket@@@DataStructures@@QAEPAUPacket@@XZ 10098050 f i TCPInterface.obj
 0001:000970b0       ?ReadLock@?$SingleProducerConsumer@UPlayerID@@@DataStructures@@QAEPAUPlayerID@@XZ 100980b0 f i TCPInterface.obj
 0001:00097110       ?ReadUnlock@?$SingleProducerConsumer@PAURemoteClient@@@DataStructures@@QAEXXZ 10098110 f i TCPInterface.obj
 0001:000971c0       ?ReadUnlock@?$SingleProducerConsumer@UPacket@@@DataStructures@@QAEXXZ 100981c0 f i TCPInterface.obj
 0001:00097270       ?ReadUnlock@?$SingleProducerConsumer@UPlayerID@@@DataStructures@@QAEXXZ 10098270 f i TCPInterface.obj
 0001:00097320       ?Receive@TCPInterface@@QAEPAUPacket@@XZ 10098320 f   TCPInterface.obj
 0001:00097380       ?RemoveAtIndex@?$List@PAURemoteClient@@@DataStructures@@QAEXI@Z 10098380 f i TCPInterface.obj
 0001:00097430       ?Send@TCPInterface@@QAEXPBDIUPlayerID@@@Z 10098430 f   TCPInterface.obj
 0001:00097500       ?Size@?$List@PAURemoteClient@@@DataStructures@@QBEIXZ 10098500 f i TCPInterface.obj
 0001:00097530       ?Start@TCPInterface@@QAE_NGG@Z 10098530 f   TCPInterface.obj
 0001:000976f0       ?Stop@TCPInterface@@QAEXXZ 100986f0 f   TCPInterface.obj
 0001:00097840       ?UpdateTCPInterfaceLoop@@YGIPAX@Z 10098840 f   TCPInterface.obj
 0001:00098390       ?WriteLock@?$SingleProducerConsumer@PAURemoteClient@@@DataStructures@@QAEPAPAURemoteClient@@XZ 10099390 f i TCPInterface.obj
 0001:00098470       ?WriteLock@?$SingleProducerConsumer@UPacket@@@DataStructures@@QAEPAUPacket@@XZ 10099470 f i TCPInterface.obj
 0001:00098550       ?WriteLock@?$SingleProducerConsumer@UPlayerID@@@DataStructures@@QAEPAUPlayerID@@XZ 10099550 f i TCPInterface.obj
 0001:00098630       ?WriteUnlock@?$SingleProducerConsumer@PAURemoteClient@@@DataStructures@@QAEXXZ 10099630 f i TCPInterface.obj
 0001:000986e0       ?WriteUnlock@?$SingleProducerConsumer@UPacket@@@DataStructures@@QAEXXZ 100996e0 f i TCPInterface.obj
 0001:00098790       ?WriteUnlock@?$SingleProducerConsumer@UPlayerID@@@DataStructures@@QAEXXZ 10099790 f i TCPInterface.obj
 0001:00098840       ?_Alloc_proxy@?$_String_alloc@$0A@U?$_String_base_types@DV?$allocator@D@std@@@std@@@std@@QAEXXZ 10099840 f i TCPInterface.obj
 0001:000988f0       ?_Copy@?$basic_string@DU?$char_traits@D@std@@V?$allocator@D@2@@std@@QAEXII@Z 100998f0 f i TCPInterface.obj
 0001:00098b20       ?_Eos@?$basic_string@DU?$char_traits@D@std@@V?$allocator@D@2@@std@@QAEXI@Z 10099b20 f i TCPInterface.obj
 0001:00098b90       ?_Free_proxy@?$_String_alloc@$0A@U?$_String_base_types@DV?$allocator@D@std@@@std@@@std@@QAEXXZ 10099b90 f i TCPInterface.obj
 0001:00098c30       ?_Getal@?$_String_alloc@$0A@U?$_String_base_types@DV?$allocator@D@std@@@std@@@std@@QBE?AU?$_Wrap_alloc@V?$allocator@D@std@@@2@XZ 10099c30 f i TCPInterface.obj
 0001:00098c80       ?_Grow@?$basic_string@DU?$char_traits@D@std@@V?$allocator@D@2@@std@@QAE_NI_N@Z 10099c80 f i TCPInterface.obj
 0001:00098d70       ?_Inside@?$basic_string@DU?$char_traits@D@std@@V?$allocator@D@2@@std@@QAE_NPBD@Z 10099d70 f i TCPInterface.obj
 0001:00098de0       ?_Myptr@?$_String_val@U?$_Simple_types@D@std@@@std@@QAEPADXZ 10099de0 f i TCPInterface.obj
 0001:00098e50       ?_Myptr@?$_String_val@U?$_Simple_types@D@std@@@std@@QBEPBDXZ 10099e50 f i TCPInterface.obj
 0001:00098ec0       ?_Orphan_all@_Container_base12@std@@QAEXXZ 10099ec0 f i TCPInterface.obj
 0001:00098f80       ?_Tidy@?$basic_string@DU?$char_traits@D@std@@V?$allocator@D@2@@std@@QAEX_NI@Z 10099f80 f i TCPInterface.obj
 0001:00099060       ?_Xlen@?$basic_string@DU?$char_traits@D@std@@V?$allocator@D@2@@std@@QBEXXZ 1009a060 f i TCPInterface.obj
 0001:000990b0       ?_Xran@?$basic_string@DU?$char_traits@D@std@@V?$allocator@D@2@@std@@QBEXXZ 1009a0b0 f i TCPInterface.obj
 0001:00099100       ?allocate@?$_Wrap_alloc@V?$allocator@D@std@@@std@@QAEPADI@Z 1009a100 f i TCPInterface.obj
 0001:00099150       ?allocate@?$allocator@D@std@@QAEPADI@Z 1009a150 f i TCPInterface.obj
 0001:000991a0       ?allocate@?$allocator@U_Container_proxy@std@@@std@@QAEPAU_Container_proxy@2@I@Z 1009a1a0 f i TCPInterface.obj
 0001:000991f0       ?assign@?$basic_string@DU?$char_traits@D@std@@V?$allocator@D@2@@std@@QAEAAV12@ABV12@II@Z 1009a1f0 f i TCPInterface.obj
 0001:000992d0       ?assign@?$basic_string@DU?$char_traits@D@std@@V?$allocator@D@2@@std@@QAEAAV12@PBD@Z 1009a2d0 f i TCPInterface.obj
 0001:00099340       ?assign@?$basic_string@DU?$char_traits@D@std@@V?$allocator@D@2@@std@@QAEAAV12@PBDI@Z 1009a340 f i TCPInterface.obj
 0001:00099410       ?assign@?$char_traits@D@std@@SAXAADABD@Z 1009a410 f i TCPInterface.obj
 0001:00099440       ?category@error_code@std@@QBEABVerror_category@2@XZ 1009a440 f i TCPInterface.obj
 0001:00099470       ?category@error_condition@std@@QBEABVerror_category@2@XZ 1009a470 f i TCPInterface.obj
 0001:000994a0       ?copy@?$char_traits@D@std@@SAPADPADPBDI@Z 1009a4a0 f i TCPInterface.obj
 0001:00099510       ?deallocate@?$_Wrap_alloc@V?$allocator@D@std@@@std@@QAEXPADI@Z 1009a510 f i TCPInterface.obj
 0001:00099560       ?deallocate@?$allocator@D@std@@QAEXPADI@Z 1009a560 f i TCPInterface.obj
 0001:000995b0       ?deallocate@?$allocator@U_Container_proxy@std@@@std@@QAEXPAU_Container_proxy@2@I@Z 1009a5b0 f i TCPInterface.obj
 0001:00099600       ?default_error_condition@_System_error_category@std@@UBE?AVerror_condition@2@H@Z 1009a600 f i TCPInterface.obj
 0001:00099680       ?default_error_condition@error_category@std@@UBE?AVerror_condition@2@H@Z 1009a680 f i TCPInterface.obj
 0001:000996d0       ?equivalent@error_category@std@@UBE_NABVerror_code@2@H@Z 1009a6d0 f i TCPInterface.obj
 0001:00099750       ?equivalent@error_category@std@@UBE_NHABVerror_condition@2@@Z 1009a750 f i TCPInterface.obj
 0001:000997c0       ?erase@?$basic_string@DU?$char_traits@D@std@@V?$allocator@D@2@@std@@QAEAAV12@I@Z 1009a7c0 f i TCPInterface.obj
 0001:00099820       ?erase@?$basic_string@DU?$char_traits@D@std@@V?$allocator@D@2@@std@@QAEAAV12@II@Z 1009a820 f i TCPInterface.obj
 0001:000998e0       ?generic_category@std@@YAABVerror_category@1@XZ 1009a8e0 f i TCPInterface.obj
 0001:00099910       ?length@?$char_traits@D@std@@SAIPBD@Z 1009a910 f i TCPInterface.obj
 0001:00099970       ?max_size@?$_Wrap_alloc@V?$allocator@D@std@@@std@@QBEIXZ 1009a970 f i TCPInterface.obj
 0001:000999c0       ?max_size@?$allocator@D@std@@QBEIXZ 1009a9c0 f i TCPInterface.obj
 0001:000999f0       ?max_size@?$allocator_traits@V?$allocator@D@std@@@std@@SAIABV?$allocator@D@2@@Z 1009a9f0 f i TCPInterface.obj
 0001:00099a30       ?max_size@?$basic_string@DU?$char_traits@D@std@@V?$allocator@D@2@@std@@QBEIXZ 1009aa30 f i TCPInterface.obj
 0001:00099ab0       ?message@_Generic_error_category@std@@UBE?AV?$basic_string@DU?$char_traits@D@std@@V?$allocator@D@2@@2@H@Z 1009aab0 f i TCPInterface.obj
 0001:00099b40       ?message@_Iostream_error_category@std@@UBE?AV?$basic_string@DU?$char_traits@D@std@@V?$allocator@D@2@@2@H@Z 1009ab40 f i TCPInterface.obj
 0001:00099bd0       ?message@_System_error_category@std@@UBE?AV?$basic_string@DU?$char_traits@D@std@@V?$allocator@D@2@@2@H@Z 1009abd0 f i TCPInterface.obj
 0001:00099c60       ?move@?$char_traits@D@std@@SAPADPADPBDI@Z 1009ac60 f i TCPInterface.obj
 0001:00099cd0       ?name@_Generic_error_category@std@@UBEPBDXZ 1009acd0 f i TCPInterface.obj
 0001:00099d00       ?name@_Iostream_error_category@std@@UBEPBDXZ 1009ad00 f i TCPInterface.obj
 0001:00099d30       ?name@_System_error_category@std@@UBEPBDXZ 1009ad30 f i TCPInterface.obj
 0001:00099d60       ?size@?$basic_string@DU?$char_traits@D@std@@V?$allocator@D@2@@std@@QBEIXZ 1009ad60 f i TCPInterface.obj
 0001:00099d90       ?system_category@std@@YAABVerror_category@1@XZ 1009ad90 f i TCPInterface.obj
 0001:00099dc0       ?value@error_code@std@@QBEHXZ 1009adc0 f i TCPInterface.obj
 0001:00099df0       ?value@error_condition@std@@QBEHXZ 1009adf0 f i TCPInterface.obj
 0001:00099e20       _hypot                     1009ae20 f i TCPInterface.obj
 0001:00099e80       ??0TEABlockEncryptor@@QAE@XZ 1009ae80 f   TEABlockEncryptor.obj
 0001:00099f00       ??1TEABlockEncryptor@@QAE@XZ 1009af00 f   TEABlockEncryptor.obj
 0001:00099f40       ?Decrypt@TEABlockEncryptor@@QAE_NPAEH0PAH@Z 1009af40 f   TEABlockEncryptor.obj
 0001:0009a140       ?DecryptBlock@TEABlockEncryptor@@IAEXAAI0@Z 1009b140 f   TEABlockEncryptor.obj
 0001:0009a220       ?DumpMemory@@YAXPBDPBEI@Z  1009b220 f   TEABlockEncryptor.obj
 0001:0009a350       ?Encrypt@TEABlockEncryptor@@QAEXPAEH0PAH@Z 1009b350 f   TEABlockEncryptor.obj
 0001:0009a5a0       ?EncryptBlock@TEABlockEncryptor@@IAEXAAI0@Z 1009b5a0 f   TEABlockEncryptor.obj
 0001:0009a680       ?IsKeySet@TEABlockEncryptor@@QBE_NXZ 1009b680 f   TEABlockEncryptor.obj
 0001:0009a6c0       ?SetKey@TEABlockEncryptor@@QAEXQBE@Z 1009b6c0 f   TEABlockEncryptor.obj
 0001:0009a730       ?UnsetKey@TEABlockEncryptor@@QAEXXZ 1009b730 f   TEABlockEncryptor.obj
 0001:0009a770       ??0?$List@PAUTelnetClient@TelnetTransport@@@DataStructures@@QAE@XZ 1009b770 f i TelnetTransport.obj
 0001:0009a7c0       ??0TelnetTransport@@QAE@XZ 1009b7c0 f   TelnetTransport.obj
 0001:0009a820       ??1?$List@PAUTelnetClient@TelnetTransport@@@DataStructures@@QAE@XZ 1009b820 f i TelnetTransport.obj
 0001:0009a880       ??1TelnetTransport@@QAE@XZ 1009b880 f   TelnetTransport.obj
 0001:0009a910       ??A?$List@PAUTelnetClient@TelnetTransport@@@DataStructures@@QBEAAPAUTelnetClient@TelnetTransport@@I@Z 1009b910 f i TelnetTransport.obj
 0001:0009a980       ?AutoAllocate@TelnetTransport@@IAEXXZ 1009b980 f   TelnetTransport.obj
 0001:0009aa50       ?Clear@?$List@PAUTelnetClient@TelnetTransport@@@DataStructures@@QAEX_N@Z 1009ba50 f i TelnetTransport.obj
 0001:0009aae0       ?CloseConnection@TelnetTransport@@UAEXUPlayerID@@@Z 1009bae0 f   TelnetTransport.obj
 0001:0009ab40       ?DeallocatePacket@TelnetTransport@@UAEXPAUPacket@@@Z 1009bb40 f   TelnetTransport.obj
 0001:0009abc0       ?Del@?$List@PAUTelnetClient@TelnetTransport@@@DataStructures@@QAEXI@Z 1009bbc0 f i TelnetTransport.obj
 0001:0009ac30       ?GetCommandParser@TelnetTransport@@UAEPAVCommandParserInterface@@XZ 1009bc30 f   TelnetTransport.obj
 0001:0009ac60       ?HasLostConnection@TelnetTransport@@UAE?AUPlayerID@@XZ 1009bc60 f   TelnetTransport.obj
 0001:0009adc0       ?HasNewConnection@TelnetTransport@@UAE?AUPlayerID@@XZ 1009bdc0 f   TelnetTransport.obj
 0001:0009afa0       ?Insert@?$List@PAUTelnetClient@TelnetTransport@@@DataStructures@@QAEXQAUTelnetClient@TelnetTransport@@@Z 1009bfa0 f i TelnetTransport.obj
 0001:0009b0a0       ?ReassembleLine@TelnetTransport@@IAE_NPAUTelnetClient@1@E@Z 1009c0a0 f   TelnetTransport.obj
 0001:0009b190       ?Receive@TelnetTransport@@UAEPAUPacket@@XZ 1009c190 f   TelnetTransport.obj
 0001:0009b570       ?Send@TelnetTransport@@UAAXUPlayerID@@PBDZZ 1009c570 f   TelnetTransport.obj
 0001:0009b690       ?Size@?$List@PAUTelnetClient@TelnetTransport@@@DataStructures@@QBEIXZ 1009c690 f i TelnetTransport.obj
 0001:0009b6c0       ?Start@TelnetTransport@@UAE_NG_N@Z 1009c6c0 f   TelnetTransport.obj
 0001:0009b740       ?Stop@TelnetTransport@@UAEXXZ 1009c740 f   TelnetTransport.obj
 0001:0009b7f0       ??0CAbstractStream@@QAE@XZ 1009c7f0 f i ArchiveFS.obj
 0001:0009b830       ??0CArchiveFS@@QAE@KK@Z    1009c830 f   ArchiveFS.obj
 0001:0009b900       ??0CArchiveFS@@QAE@XZ      1009c900 f   ArchiveFS.obj
 0001:0009b9c0       ??0CFileStream@@QAE@PBDW4eType@0@W4eMode@0@@Z 1009c9c0 f i ArchiveFS.obj
 0001:0009ba70       ??0CMemoryStream@@QAE@PAEI_N@Z 1009ca70 f i ArchiveFS.obj
 0001:0009bb20       ??0_AFS_ENTRYBT_NODE@@QAE@PAU_SAA_ENTRY@@@Z 1009cb20 f i ArchiveFS.obj
 0001:0009bb80       ??0_AFS_ENTRYBT_NODE@@QAE@XZ 1009cb80 f i ArchiveFS.obj
 0001:0009bbe0       ??0_SAA_FILE_HEADER@@QAE@XZ 1009cbe0 f i ArchiveFS.obj
 0001:0009bc20       ??1CAbstractStream@@UAE@XZ 1009cc20 f i ArchiveFS.obj
 0001:0009bc60       ??1CArchiveFS@@UAE@XZ      1009cc60 f   ArchiveFS.obj
 0001:0009bcf0       ??1CFileStream@@UAE@XZ     1009ccf0 f i ArchiveFS.obj
 0001:0009bd90       ??1CMemoryStream@@UAE@XZ   1009cd90 f i ArchiveFS.obj
 0001:0009be00       ??1_AFS_ENTRYBT_NODE@@QAE@XZ 1009ce00 f i ArchiveFS.obj
 0001:0009bef0       ??_GCAbstractStream@@UAEPAXI@Z 1009cef0 f i ArchiveFS.obj
 0001:0009bef0       ??_ECAbstractStream@@UAEPAXI@Z 1009cef0 f i ArchiveFS.obj
 0001:0009bf50       ??_GCArchiveFS@@UAEPAXI@Z  1009cf50 f i ArchiveFS.obj
 0001:0009bf50       ??_ECArchiveFS@@UAEPAXI@Z  1009cf50 f i ArchiveFS.obj
 0001:0009bfb0       ??_GCFileStream@@UAEPAXI@Z 1009cfb0 f i ArchiveFS.obj
 0001:0009bfb0       ??_ECFileStream@@UAEPAXI@Z 1009cfb0 f i ArchiveFS.obj
 0001:0009c010       ??_ECMemoryStream@@UAEPAXI@Z 1009d010 f i ArchiveFS.obj
 0001:0009c010       ??_GCMemoryStream@@UAEPAXI@Z 1009d010 f i ArchiveFS.obj
 0001:0009c070       ??_G_AFS_ENTRYBT_NODE@@QAEPAXI@Z 1009d070 f i ArchiveFS.obj
 0001:0009c0d0       ?AddEntry@_AFS_ENTRYBT_NODE@@QAEXPAU_SAA_ENTRY@@@Z 1009d0d0 f i ArchiveFS.obj
 0001:0009c250       ?Close@CFileStream@@UAEXXZ 1009d250 f i ArchiveFS.obj
 0001:0009c2b0       ?FindEntry@_AFS_ENTRYBT_NODE@@QAEPAU1@K@Z 1009d2b0 f i ArchiveFS.obj
 0001:0009c350       ?GetFileData@CArchiveFS@@UAEPAEK@Z 1009d350 f   ArchiveFS.obj
 0001:0009c6e0       ?GetFileIndex@CArchiveFS@@UAEKK@Z 1009d6e0 f   ArchiveFS.obj
 0001:0009c7f0       ?GetFileIndex@CArchiveFS@@UAEKPAD@Z 1009d7f0 f   ArchiveFS.obj
 0001:0009c940       ?GetFileSize@CArchiveFS@@UAEKK@Z 1009d940 f   ArchiveFS.obj
 0001:0009c9f0       ?HashString@CArchiveFS@@AAEKPAD@Z 1009d9f0 f   ArchiveFS.obj
 0001:0009cf20       ?IsOpen@CFileStream@@UAE_NXZ 1009df20 f i ArchiveFS.obj
 0001:0009cf70       ?Load@CArchiveFS@@UAE_NPAD@Z 1009df70 f   ArchiveFS.obj
 0001:0009d0b0       ?Load@CArchiveFS@@UAE_NPAEK@Z 1009e0b0 f   ArchiveFS.obj
 0001:0009d1f0       ?LoadEntries@CArchiveFS@@AAEXXZ 1009e1f0 f   ArchiveFS.obj
 0001:0009d6a0       ?Open@CFileStream@@UAE_NPBDW4eType@1@W4eMode@1@@Z 1009e6a0 f i ArchiveFS.obj
 0001:0009d870       ?Read@CAbstractStream@@UAEIPAXHH@Z 1009e870 f i ArchiveFS.obj
 0001:0009d8d0       ?Read@CFileStream@@UAEIPAXH@Z 1009e8d0 f i ArchiveFS.obj
 0001:0009d930       ?Read@CFileStream@@UAEIPAXHH@Z 1009e930 f i ArchiveFS.obj
 0001:0009d990       ?Read@CMemoryStream@@UAEIPAXH@Z 1009e990 f i ArchiveFS.obj
 0001:0009da20       ?Read@_SAA_FILE_HEADER@@QAEXPAVCAbstractStream@@@Z 1009ea20 f i ArchiveFS.obj
 0001:0009dab0       ?Seek@CAbstractStream@@UAEXH@Z 1009eab0 f i ArchiveFS.obj
 0001:0009db10       ?Seek@CFileStream@@UAEXHW4eSeek@CAbstractStream@@@Z 1009eb10 f i ArchiveFS.obj
 0001:0009dbb0       ?Seek@CMemoryStream@@UAEXHW4eSeek@CAbstractStream@@@Z 1009ebb0 f i ArchiveFS.obj
 0001:0009dc50       ?SizeOf@_SAA_FILE_HEADER@@QAEKXZ 1009ec50 f i ArchiveFS.obj
 0001:0009dc90       ?Tell@CFileStream@@UAEIXZ  1009ec90 f i ArchiveFS.obj
 0001:0009dce0       ?Tell@CMemoryStream@@UAEIXZ 1009ece0 f i ArchiveFS.obj
 0001:0009dd10       ?Unload@CArchiveFS@@UAEXXZ 1009ed10 f   ArchiveFS.obj
 0001:0009ddc0       ?UnloadData@CArchiveFS@@UAEXK@Z 1009edc0 f   ArchiveFS.obj
 0001:0009de30       ?VerifyIdentifier@_SAA_FILE_HEADER@@QAE_NXZ 1009ee30 f i ArchiveFS.obj
 0001:0009deb0       ?Write@CAbstractStream@@UAEIPBXHH@Z 1009eeb0 f i ArchiveFS.obj
 0001:0009df10       ?Write@CFileStream@@UAEIPBXH@Z 1009ef10 f i ArchiveFS.obj
 0001:0009df70       ?Write@CFileStream@@UAEIPBXHH@Z 1009ef70 f i ArchiveFS.obj
 0001:0009dfd0       ?Write@CMemoryStream@@UAEIPBXH@Z 1009efd0 f i ArchiveFS.obj
 0001:0009e060       ?XorV2Identifier@_SAA_FILE_HEADER@@QAEXXZ 1009f060 f i ArchiveFS.obj
 0001:0009e0b0       ??0CCryptoContext@@QAE@XZ  1009f0b0 f   CryptoContext.obj
 0001:0009e160       ??1CCryptoContext@@QAE@XZ  1009f160 f   CryptoContext.obj
 0001:0009e1e0       ?GetProvider@CCryptoContext@@QAEKXZ 1009f1e0 f   CryptoContext.obj
 0001:0009e210       ?xCryptCallAcquireContext@@YGHPAKPBD1KK@Z 1009f210 f   CryptoFns.obj
 0001:0009e240       ?xCryptCallCreateHash@@YGHKIKKPAK@Z 1009f240 f   CryptoFns.obj
 0001:0009e270       ?xCryptCallDestroyHash@@YGHK@Z 1009f270 f   CryptoFns.obj
 0001:0009e2a0       ?xCryptCallDestroyKey@@YGHK@Z 1009f2a0 f   CryptoFns.obj
 0001:0009e2d0       ?xCryptCallHashData@@YGHKPAEKK@Z 1009f2d0 f   CryptoFns.obj
 0001:0009e300       ?xCryptCallImportKey@@YGHKPAEKKKPAK@Z 1009f300 f   CryptoFns.obj
 0001:0009e330       ?xCryptCallReleaseContext@@YGHKK@Z 1009f330 f   CryptoFns.obj
 0001:0009e360       ?xCryptCallVerifySignature@@YGHKPAEKKPBDK@Z 1009f360 f   CryptoFns.obj
 0001:0009e390       ?xCryptGetFunction@@YAP6GHXZPADK@Z 1009f390 f   CryptoFns.obj
 0001:0009e4c0       ??0CHasher@@QAE@PAVCCryptoContext@@@Z 1009f4c0 f   Hasher.obj
 0001:0009e530       ??1CHasher@@QAE@XZ         1009f530 f   Hasher.obj
 0001:0009e580       ?AddData@CHasher@@QAEXKPAE@Z 1009f580 f   Hasher.obj
 0001:0009e5d0       ?GetContainer@CHasher@@QAEKXZ 1009f5d0 f   Hasher.obj
 0001:0009e600       ??0CKeyPair@@QAE@PAVCCryptoContext@@@Z 1009f600 f   KeyPair.obj
 0001:0009e650       ??1CKeyPair@@QAE@XZ        1009f650 f   KeyPair.obj
 0001:0009e6a0       ?GetContainer@CKeyPair@@QAEKXZ 1009f6a0 f   KeyPair.obj
 0001:0009e6d0       ?LoadFromMemory@CKeyPair@@QAEXKPAEE@Z 1009f6d0 f   KeyPair.obj
 0001:0009e7b0       ?ReleaseKey@CKeyPair@@QAEXXZ 1009f7b0 f   KeyPair.obj
 0001:0009e800       ??0CSigner@@QAE@XZ         1009f800 f   Signer.obj
 0001:0009e840       ??1CSigner@@QAE@XZ         1009f840 f   Signer.obj
 0001:0009e8a0       ?SetSignature@CSigner@@QAEXKPAE@Z 1009f8a0 f   Signer.obj
 0001:0009e940       ?VerifySignature@CSigner@@QAEHPAVCHasher@@PAVCKeyPair@@@Z 1009f940 f   Signer.obj
 0001:0009e9c0       ??0CTinyEncrypt@@QAE@XZ    1009f9c0 f   TinyEncrypt.obj
 0001:0009ea40       ??1CTinyEncrypt@@QAE@XZ    1009fa40 f   TinyEncrypt.obj
 0001:0009ea70       ?DecryptBlock@CTinyEncrypt@@AAEXAAK0@Z 1009fa70 f   TinyEncrypt.obj
 0001:0009ebd0       ?DecryptData@CTinyEncrypt@@QAEXKPAE@Z 1009fbd0 f   TinyEncrypt.obj
 0001:0009ec60       ?SetKey@CTinyEncrypt@@QAEXPAEE@Z 1009fc60 f   TinyEncrypt.obj
 0001:0009ecf0       ?GameAimSyncInit@@YGXXZ    1009fcf0 f   aimstuff.obj
 0001:0009ed90       ?GameGetInternalAim@@YGPAU_CAMERA_AIM@@XZ 1009fd90 f   aimstuff.obj
 0001:0009edc0       ?GameGetLocalPlayerCameraExtZoom@@YGMXZ 1009fdc0 f   aimstuff.obj
 0001:0009ee10       ?GameGetLocalPlayerCameraMode@@YGEXZ 1009fe10 f   aimstuff.obj
 0001:0009ee40       ?GameGetPlayerCameraExtZoom@@YGME@Z 1009fe40 f   aimstuff.obj
 0001:0009ee80       ?GameGetPlayerCameraMode@@YGEE@Z 1009fe80 f   aimstuff.obj
 0001:0009eec0       ?GameGetRemotePlayerAim@@YGPAU_CAMERA_AIM@@H@Z 1009fec0 f   aimstuff.obj
 0001:0009eef0       ?GameSetLocalPlayerAim@@YGXXZ 1009fef0 f   aimstuff.obj
 0001:0009ef40       ?GameSetLocalPlayerCameraExtZoom@@YGXXZ 1009ff40 f   aimstuff.obj
 0001:0009ef80       ?GameSetPlayerCameraExtZoom@@YGXEM@Z 1009ff80 f   aimstuff.obj
 0001:0009efc0       ?GameSetPlayerCameraMode@@YGXEE@Z 1009ffc0 f   aimstuff.obj
 0001:0009f000       ?GameSetRemotePlayerAim@@YGXH@Z 100a0000 f   aimstuff.obj
 0001:0009f050       ?GameSetRemotePlayerCameraExtZoom@@YGXE@Z 100a0050 f   aimstuff.obj
 0001:0009f0c0       ?GameStoreLocalPlayerAim@@YGXXZ 100a00c0 f   aimstuff.obj
 0001:0009f110       ?GameStoreLocalPlayerCameraExtZoom@@YGXXZ 100a0110 f   aimstuff.obj
 0001:0009f150       ?GameStoreRemotePlayerAim@@YGXHPAU_CAMERA_AIM@@@Z 100a0150 f   aimstuff.obj
 0001:0009f1a0       ?Fade@CCamera@@QAEXH@Z     100a01a0 f   camera.obj
 0001:0009f1f0       ?GetMatrix@CCamera@@QAEXPAU_MATRIX4X4@@@Z 100a01f0 f   camera.obj
 0001:0009f2d0       ?LookAtPoint@CCamera@@QAEXMMMH@Z 100a02d0 f   camera.obj
 0001:0009f350       ?Restore@CCamera@@QAEXXZ   100a0350 f   camera.obj
 0001:0009f3a0       ?SetBehindPlayer@CCamera@@QAEXXZ 100a03a0 f   camera.obj
 0001:0009f400       ?SetPosition@CCamera@@QAEXMMMMMM@Z 100a0400 f   camera.obj
 0001:0009f4a0       ?CheckDuplicateD3D9Dlls@@YAXXZ 100a04a0 f   cheats.obj
 0001:0009fa10       ?DoCheatDataComparing@@YAXXZ 100a0a10 f   cheats.obj
 0001:0009fbf0       ?DoCheatDataStoring@@YAXXZ 100a0bf0 f   cheats.obj
 0001:0009fd20       ?GameBuildRecreateVehicle@@YAXXZ 100a0d20 f   debug.obj
 0001:0009fe60       ?GameBuildSelectVehicle@@YAXXZ 100a0e60 f   debug.obj
 0001:000a0410       ?GameDebugAddMessage@@YAXPADZZ 100a1410 f   debug.obj
 0001:000a0540       ?GameDebugDrawActorInfo@@YAXXZ 100a1540 f   debug.obj
 0001:000a1280       ?GameDebugDrawDebugScreens@@YAXXZ 100a2280 f   debug.obj
 0001:000a1350       ?GameDebugDrawNextLine@@YAXPADK@Z 100a2350 f   debug.obj
 0001:000a1410       ?GameDebugDrawTaskInfo@@YAXXZ 100a2410 f   debug.obj
 0001:000a1720       ?GameDebugDrawVehicleInfo@@YAXXZ 100a2720 f   debug.obj
 0001:000a2090       ?GameDebugEntity@@YAXKKH@Z 100a3090 f   debug.obj
 0001:000a20d0       ?GameDebugInitTextScreen@@YAXXZ 100a30d0 f   debug.obj
 0001:000a2150       ?GameDebugScreensOff@@YAXXZ 100a3150 f   debug.obj
 0001:000a2180       ?GameDoVehicleSyncTest@@YAXXZ 100a3180 f   debug.obj
 0001:000a21b0       ?GameDrawDebugTextInfo@@YAXXZ 100a31b0 f   debug.obj
 0001:000a2210       ?GameDrawMemoryInfo@@YAXXZ 100a3210 f   debug.obj
 0001:000a24a0       ?GameDrawMemoryInfoAscii@@YAXXZ 100a34a0 f   debug.obj
 0001:000a2730       ?GetNextTaskFromTask@@YAPAKPAK@Z 100a3730 f   debug.obj
 0001:000a27a0       ?GetTaskNameFromTask@@YAPBDPAK@Z 100a37a0 f   debug.obj
 0001:000a2880       ?GetTaskTypeFromTask@@YAHPAK@Z 100a3880 f   debug.obj
 0001:000a28f0       ?PrintInfoForTask@@YAXPADPAK@Z 100a38f0 f   debug.obj
 0001:000a2a60       ?atan2@@YAMMM@Z            100a3a60 f i debug.obj
 0001:000a2ab0       _atan2f                    100a3ab0 f i debug.obj
 0001:000a2b10       ?Add@CEntity@@UAEXXZ       100a3b10 f   entity.obj
 0001:000a2ca0       ?ApplyMoveSpeed@CEntity@@QAEXXZ 100a3ca0 f   entity.obj
 0001:000a2d00       ?EnforceWorldBoundries@CEntity@@QAEHMMMM@Z 100a3d00 f   entity.obj
 0001:000a3000       ?GetDistanceFromLocalPlayerPed@CEntity@@QAEMXZ 100a4000 f   entity.obj
 0001:000a31f0       ?GetDistanceFromPoint@CEntity@@QAEMMMM@Z 100a41f0 f   entity.obj
 0001:000a32f0       ?GetMatrix@CEntity@@QAEXPAU_MATRIX4X4@@@Z 100a42f0 f   entity.obj
 0001:000a3410       ?GetModelIndex@CEntity@@QAEIXZ 100a4410 f   entity.obj
 0001:000a3450       ?GetMoveSpeedVector@CEntity@@QAEXPAU_VECTOR@@@Z 100a4450 f   entity.obj
 0001:000a34b0       ?GetTurnSpeedVector@CEntity@@QAEXPAU_VECTOR@@@Z 100a44b0 f   entity.obj
 0001:000a3510       ?HasExceededWorldBoundries@CEntity@@QAEHMMMM@Z 100a4510 f   entity.obj
 0001:000a3600       ?IsAdded@CEntity@@QAEHXZ   100a4600 f   entity.obj
 0001:000a3660       ?IsInRCMode@CLocalPlayer@@QAEHXZ 100a4660 f i entity.obj
 0001:000a36a0       ?IsStationary@CEntity@@QAEHXZ 100a46a0 f   entity.obj
 0001:000a3720       ?Remove@CEntity@@UAEXXZ    100a4720 f   entity.obj
 0001:000a37c0       ?SetMatrix@CEntity@@QAEXU_MATRIX4X4@@@Z 100a47c0 f   entity.obj
 0001:000a38f0       ?SetModelIndex@CEntity@@QAEXI@Z 100a48f0 f   entity.obj
 0001:000a39c0       ?SetMoveSpeedVector@CEntity@@QAEXU_VECTOR@@@Z 100a49c0 f   entity.obj
 0001:000a3a20       ?SetTurnSpeedVector@CEntity@@QAEXU_VECTOR@@@Z 100a4a20 f   entity.obj
 0001:000a3a80       ?TeleportTo@CEntity@@QAEXMMM@Z 100a4a80 f   entity.obj
 0001:000a3b50       ?Font_PrintString@@YAXMMPAD@Z 100a4b50 f   font.obj
 0001:000a3b60       ?Font_SetColor@@YAXK@Z     100a4b60 f   font.obj
 0001:000a3b70       ?Font_SetDropColor@@YAXK@Z 100a4b70 f   font.obj
 0001:000a3b80       ?Font_SetFontStyle@@YAXH@Z 100a4b80 f   font.obj
 0001:000a3b90       ?Font_SetJustify@@YAXH@Z   100a4b90 f   font.obj
 0001:000a3ba0       ?Font_SetLineHeight@@YAXM@Z 100a4ba0 f   font.obj
 0001:000a3bb0       ?Font_SetLineWidth@@YAXM@Z 100a4bb0 f   font.obj
 0001:000a3bc0       ?Font_SetOutline@@YAXH@Z   100a4bc0 f   font.obj
 0001:000a3bd0       ?Font_SetProportional@@YAXH@Z 100a4bd0 f   font.obj
 0001:000a3be0       ?Font_SetRightJustifyWrap@@YAXM@Z 100a4be0 f   font.obj
 0001:000a3bf0       ?Font_SetScale@@YAXMM@Z    100a4bf0 f   font.obj
 0001:000a3c00       ?Font_SetShadow@@YAXH@Z    100a4c00 f   font.obj
 0001:000a3c10       ?Font_Unk12@@YAXH@Z        100a4c10 f   font.obj
 0001:000a3c20       ?Font_UnkConv2@@YAXPAD@Z   100a4c20 f   font.obj
 0001:000a3c30       ?Font_UnkConv@@YAXPADHHHHHH0@Z 100a4c30 f   font.obj
 0001:000a3c40       ?Font_UseBox@@YAXHH@Z      100a4c40 f   font.obj
 0001:000a3c50       ?Font_UseBoxColor@@YAXK@Z  100a4c50 f   font.obj
 0001:000a3c60       ??0CCamera@@QAE@XZ         100a4c60 f i game.obj
 0001:000a3ca0       ??0CGame@@QAE@XZ           100a4ca0 f   game.obj
 0001:000a3d90       ?AddToLocalMoney@CGame@@QAEXH@Z 100a4d90 f   game.obj
 0001:000a3de0       ?CreatePickup@CGame@@QAEKHHMMM@Z 100a4de0 f   game.obj
 0001:000a3ed0       ?CreateRadarMarkerIcon@CGame@@QAEKHMMMH@Z 100a4ed0 f   game.obj
 0001:000a3fb0       ?CreateWeaponPickup@CGame@@QAEKHKMMM@Z 100a4fb0 f   game.obj
 0001:000a40a0       ?DisableEnterExits@CGame@@QAEXXZ 100a50a0 f   game.obj
 0001:000a4130       ?DisableMarker@CGame@@QAEXK@Z 100a5130 f   game.obj
 0001:000a4180       ?DisableRaceCheckpoint@CGame@@QAEXXZ 100a5180 f   game.obj
 0001:000a41f0       ?DisableTrainTraffic@CGame@@QAEXXZ 100a51f0 f   game.obj
 0001:000a4240       ?DisplayGameText@CGame@@QAEXPADHH@Z 100a5240 f   game.obj
 0001:000a42b0       ?DisplayHud@CGame@@QAEXH@Z 100a52b0 f   game.obj
 0001:000a4320       ?DrawGangZone@CGame@@QAEXPAMK@Z 100a5320 f   game.obj
 0001:000a4380       ?EnableClock@CGame@@QAEXE@Z 100a5380 f   game.obj
 0001:000a4480       ?EnableStuntBonus@CGame@@QAEX_N@Z 100a5480 f   game.obj
 0001:000a44e0       ?EnableZoneNames@CGame@@QAEXE@Z 100a54e0 f   game.obj
 0001:000a4530       ?FindGroundZForCoord@CGame@@QAEMMMM@Z 100a5530 f   game.obj
 0001:000a45e0       ?GetActiveInterior@CGame@@QAEEXZ 100a55e0 f   game.obj
 0001:000a4660       ?GetD3DDevice@CGame@@QAEKXZ 100a5660 f   game.obj
 0001:000a46d0       ?GetLocalMoney@CGame@@QAEHXZ 100a56d0 f   game.obj
 0001:000a4700       ?GetWeaponInfo@CGame@@QAEKHH@Z 100a5700 f   game.obj
 0001:000a4750       ?GetWeaponModelIDFromWeapon@CGame@@QAEHH@Z 100a5750 f   game.obj
 0001:000a47a0       ?GetWeaponName@CGame@@QAEQADH@Z 100a57a0 f   game.obj
 0001:000a4a60       ?GetWorldTime@CGame@@QAEXPAH0@Z 100a5a60 f   game.obj
 0001:000a4ab0       ?InitGame@CGame@@QAEXXZ    100a5ab0 f   game.obj
 0001:000a4b40       ?IsAnimationLoaded@CGame@@QAEHPAD@Z 100a5b40 f   game.obj
 0001:000a4b90       ?IsGameLoaded@CGame@@QAEHXZ 100a5b90 f   game.obj
 0001:000a4bd0       ?IsHudEnabled@CGame@@QAEEXZ 100a5bd0 f   game.obj
 0001:000a4c00       ?IsKeyPressed@CGame@@QAEHH@Z 100a5c00 f   game.obj
 0001:000a4c60       ?IsMenuActive@CGame@@QAEHXZ 100a5c60 f   game.obj
 0001:000a4ca0       ?IsModelLoaded@CGame@@QAEHH@Z 100a5ca0 f   game.obj
 0001:000a4cf0       ?LoadRequestedModels@CGame@@QAEXXZ 100a5cf0 f   game.obj
 0001:000a4d40       ?MakeRaceCheckpoint@CGame@@QAEXXZ 100a5d40 f   game.obj
 0001:000a4e20       ?NewObject@CGame@@QAEPAVCObject@@HMMMU_VECTOR@@@Z 100a5e20 f   game.obj
 0001:000a4f20       ?NewPlayer@CGame@@QAEPAVCPlayerPed@@HHMMMME@Z 100a5f20 f   game.obj
 0001:000a5020       ?NewVehicle@CGame@@QAEPAVCVehicle@@HMMMMPAD@Z 100a6020 f   game.obj
 0001:000a5120       ?PlaySoundA@CGame@@QAEXHMMM@Z 100a6120 f   game.obj
 0001:000a51a0       ?ProcessInputDisabling@CGame@@QAEXXZ 100a61a0 f   game.obj
 0001:000a5240       ?RefreshStreamingAt@CGame@@QAEXMM@Z 100a6240 f   game.obj
 0001:000a52a0       ?ReleaseAnimation@CGame@@QAEXPAD@Z 100a62a0 f   game.obj
 0001:000a5300       ?RemoveModel@CGame@@QAEXH@Z 100a6300 f   game.obj
 0001:000a5360       ?RequestAnimation@CGame@@QAEXPAD@Z 100a6360 f   game.obj
 0001:000a53b0       ?RequestModel@CGame@@QAEXH@Z 100a63b0 f   game.obj
 0001:000a5400       ?ResetLocalMoney@CGame@@QAEXXZ 100a6400 f   game.obj
 0001:000a5480       ?RestartEverything@CGame@@QAEXXZ 100a6480 f   game.obj
 0001:000a5520       ?SetCheckpointInformation@CGame@@QAEXPAU_VECTOR@@0@Z 100a6520 f   game.obj
 0001:000a55f0       ?SetFrameLimiterOn@CGame@@QAEXH@Z 100a65f0 f   game.obj
 0001:000a5620       ?SetGameTextCount@CGame@@QAEXG@Z 100a6620 f   game.obj
 0001:000a5660       ?SetGravity@CGame@@QAEXM@Z 100a6660 f   game.obj
 0001:000a56c0       ?SetMaxStats@CGame@@QAEXXZ 100a66c0 f   game.obj
 0001:000a5710       ?SetRaceCheckpointInformation@CGame@@QAEXEPAU_VECTOR@@0M@Z 100a6710 f   game.obj
 0001:000a5800       ?SetWantedLevel@CGame@@QAEXE@Z 100a6800 f   game.obj
 0001:000a5840       ?SetWorldTime@CGame@@QAEXHH@Z 100a6840 f   game.obj
 0001:000a5880       ?SetWorldWeather@CGame@@QAEXH@Z 100a6880 f   game.obj
 0001:000a58c0       ?StartGame@CGame@@QAEXXZ   100a68c0 f   game.obj
 0001:000a5950       ?ToggleKeyInputsDisabled@CGame@@QAEXH@Z 100a6950 f   game.obj
 0001:000a59b0       ?ToggleRadar@CGame@@QAEXH@Z 100a69b0 f   game.obj
 0001:000a5a00       ?ToggleThePassingOfTime@CGame@@QAEXE@Z 100a6a00 f   game.obj
 0001:000a5a60       ?UpdateCheckpoints@CGame@@QAEXXZ 100a6a60 f   game.obj
 0001:000a5c30       ?UpdateFarClippingPlane@CGame@@QAEXXZ 100a6c30 f   game.obj
 0001:000a5cf0       ?AddVehicleHook@@YAXXZ     100a6cf0 f   hooks.obj
 0001:000a5d10       ?AllVehicles_ProcessControl_Hook@@YAXXZ 100a6d10 f   hooks.obj
 0001:000a5fd0       ?AllVehicles_ProcessControl_TankTurret_Hook@@YAXXZ 100a6fd0 f   hooks.obj
 0001:000a60a0       ?AllVehicles_ProcessControl_WaterTurret_Hook@@YAXXZ 100a70a0 f   hooks.obj
 0001:000a6180       ?AnimCrashFixHook@@YAXXZ   100a7180 f   hooks.obj
 0001:000a61a0       ?CCameraCamShake_Sniper_Hook@@YAXXZ 100a71a0 f   hooks.obj
 0001:000a61b0       ?CGameShutdownHook@@YAXXZ  100a71b0 f   hooks.obj
 0001:000a6210       ?CPed_Render_Hook@@YAXXZ   100a7210 f   hooks.obj
 0001:000a6250       ?CPed_Say_Hook@@YAXXZ      100a7250 f   hooks.obj
 0001:000a62f0       ?CPlayerPed_ProcessCollision_Hook@@YAXXZ 100a72f0 f   hooks.obj
 0001:000a6310       ?CPlayerPed_ProcessControl_Hook@@YAXXZ 100a7310 f   hooks.obj
 0001:000a64a0       ?CTrain_ProcessControl_Derailment@@YAXXZ 100a74a0 f   hooks.obj
 0001:000a64c0       ?CheatProcessorHook@@YAXXZ 100a74c0 f   hooks.obj
 0001:000a64e0       ?GameInstallHooks@@YAXXZ   100a74e0 f   hooks.obj
 0001:000a67f0       ?GameProcessHook@@YAXXZ    100a77f0 f   hooks.obj
 0001:000a6840       ?GenTaskAlloc_Hook@@YAXXZ  100a7840 f   hooks.obj
 0001:000a68a0       ?GetTeam@CLocalPlayer@@QAEEXZ 100a78a0 f i hooks.obj
 0001:000a68e0       ?GetTeam@CRemotePlayer@@QAEEXZ 100a78e0 f i hooks.obj
 0001:000a6920       ?GetText_Hook@@YAXXZ       100a7920 f   hooks.obj
 0001:000a69d0       ?GetWalkStyle@CNetGame@@QAEHXZ 100a79d0 f i hooks.obj
 0001:000a6a10       ?InstallCallHook@@YAXKKE@Z 100a7a10 f   hooks.obj
 0001:000a6ae0       ?InstallGameAndGraphicsLoopHooks@@YAXXZ 100a7ae0 f   hooks.obj
 0001:000a6bb0       ?InstallHook@@YAXKKKPAEH@Z 100a7bb0 f   hooks.obj
 0001:000a6cc0       ?InstallMethodHook@@YAXKK@Z 100a7cc0 f   hooks.obj
 0001:000a6d80       ?IsFriendlyFire@@YGHPAU_PED_TYPE@@0@Z 100a7d80 f   hooks.obj
 0001:000a6f10       ?IsLocalPlayerFiring@@YGHXZ 100a7f10 f   hooks.obj
 0001:000a6fe0       ?NotifyEnterVehicle@@YAHXZ 100a7fe0 f   hooks.obj
 0001:000a7110       ?PedDamage_Hook@@YAXXZ     100a8110 f   hooks.obj
 0001:000a7170       ?PickUpPickup_Hook@@YAXXZ  100a8170 f   hooks.obj
 0001:000a71c0       ?PlayerWalk_Hook@@YAXXZ    100a81c0 f   hooks.obj
 0001:000a71f0       ?ProcessInstagib@@YGXPAU_PED_TYPE@@0@Z 100a81f0 f   hooks.obj
 0001:000a7290       ?RadarTranslateColor@@YAXXZ 100a8290 f   hooks.obj
 0001:000a72b0       ?SetCarColorCrashFix@@YAXXZ 100a82b0 f   hooks.obj
 0001:000a72d0       ?SetFarClipHook@@YAXXZ     100a82d0 f   hooks.obj
 0001:000a72f0       ?SetForegroundWindowCrashFixHook@@YAXXZ 100a82f0 f   hooks.obj
 0001:000a7310       ?TaskEnterVehicleDriver_Hook@@YAXXZ 100a8310 f   hooks.obj
 0001:000a7370       ?TaskExitVehicle@@YAXXZ    100a8370 f   hooks.obj
 0001:000a7450       ?TaskOnFoot1_Hook@@YAXXZ   100a8450 f   hooks.obj
 0001:000a74b0       ?TaskOnFoot2_Hook@@YAXXZ   100a84b0 f   hooks.obj
 0001:000a7510       ?TaskUseGun_Hook@@YAXXZ    100a8510 f   hooks.obj
 0001:000a7670       ?TheScripts_Process_Hook@@YAXXZ 100a8670 f   hooks.obj
 0001:000a76a0       ?VehicleHorn_Hook@@YAXXZ   100a86a0 f   hooks.obj
 0001:000a7760       ?ZoneOverlay_Hook@@YAXXZ   100a8760 f   hooks.obj
 0001:000a7790       ?GameGetInternalKeys@@YAPAU_GTA_CONTROLSET@@XZ 100a8790 f   keystuff.obj
 0001:000a77c0       ?GameGetLocalPlayerKeys@@YAPAU_GTA_CONTROLSET@@XZ 100a87c0 f   keystuff.obj
 0001:000a77f0       ?GameGetPlayerKeys@@YAPAU_GTA_CONTROLSET@@H@Z 100a87f0 f   keystuff.obj
 0001:000a7830       ?GameKeyStatesInit@@YAXXZ  100a8830 f   keystuff.obj
 0001:000a78b0       ?GameResetInternalKeys@@YAXXZ 100a88b0 f   keystuff.obj
 0001:000a7900       ?GameResetPlayerKeys@@YAXH@Z 100a8900 f   keystuff.obj
 0001:000a7950       ?GameSetLocalPlayerKeys@@YAXXZ 100a8950 f   keystuff.obj
 0001:000a79c0       ?GameSetRemotePlayerKeys@@YAXH@Z 100a89c0 f   keystuff.obj
 0001:000a7a70       ?GameStoreLocalPlayerKeys@@YAXXZ 100a8a70 f   keystuff.obj
 0001:000a7ae0       ?GameStoreRemotePlayerKeys@@YAXHPAU_GTA_CONTROLSET@@@Z 100a8ae0 f   keystuff.obj
 0001:000a7b40       ??0CMenu@@QAE@PADMMEMMPAUMENU_INT@@@Z 100a8b40 f   menu.obj
 0001:000a7cc0       ?AddMenuItem@CMenu@@QAEXEEPAD@Z 100a8cc0 f   menu.obj
 0001:000a7d20       ?GetMenuHeader@CMenu@@QAEPADE@Z 100a8d20 f   menu.obj
 0001:000a7d60       ?GetMenuItem@CMenu@@QAEPADEE@Z 100a8d60 f   menu.obj
 0001:000a7db0       ?GetMenuTitle@CMenu@@QAEPADXZ 100a8db0 f   menu.obj
 0001:000a7de0       ?GetSelectedRow@CMenu@@QAEEXZ 100a8de0 f   menu.obj
 0001:000a7e80       ?Hide@CMenu@@QAEXXZ        100a8e80 f   menu.obj
 0001:000a7ed0       ?MS@CMenu@@QAEPADEE@Z      100a8ed0 f   menu.obj
 0001:000a7f40       ?SetColumnTitle@CMenu@@QAEXEPAD@Z 100a8f40 f   menu.obj
 0001:000a7fa0       ?Show@CMenu@@QAEXXZ        100a8fa0 f   menu.obj
 0001:000a8320       ??0CEntity@@QAE@XZ         100a9320 f i object.obj
 0001:000a8360       ??0CObject@@QAE@HMMMU_VECTOR@@@Z 100a9360 f   object.obj
 0001:000a8500       ??1CEntity@@UAE@XZ         100a9500 f i object.obj
 0001:000a8540       ??1CObject@@UAE@XZ         100a9540 f   object.obj
 0001:000a85f0       ??_GCEntity@@UAEPAXI@Z     100a95f0 f i object.obj
 0001:000a85f0       ??_ECEntity@@UAEPAXI@Z     100a95f0 f i object.obj
 0001:000a8650       ??_ECObject@@UAEPAXI@Z     100a9650 f i object.obj
 0001:000a8650       ??_GCObject@@UAEPAXI@Z     100a9650 f i object.obj
 0001:000a86b0       ?DistanceRemaining@CObject@@QAEMPAU_MATRIX4X4@@@Z 100a96b0 f   object.obj
 0001:000a8790       ?InstantRotate@CObject@@QAEXMMM@Z 100a9790 f   object.obj
 0001:000a8810       ?MoveTo@CObject@@QAEXMMMM@Z 100a9810 f   object.obj
 0001:000a8880       ?Process@CObject@@QAEXM@Z  100a9880 f   object.obj
 0001:000a8a20       ?ApplyDebugLevelPatches@@YAXXZ 100a9a20 f   patches.obj
 0001:000a8a80       ?ApplyInGamePatches@@YAXXZ 100a9a80 f   patches.obj
 0001:000a9290       ?ApplyPreGamePatches@@YAHXZ 100aa290 f   patches.obj
 0001:000a9440       ?RelocatePedsListHack@@YAXXZ 100aa440 f   patches.obj
 0001:000a94e0       ?RelocateScanListHack@@YAXXZ 100aa4e0 f   patches.obj
 0001:000a9770       ?SetIPLs@@YAXHH@Z          100aa770 f   patches.obj
 0001:000a9900       ?SetTimedObjects@@YAXH@Z   100aa900 f   patches.obj
 0001:000a9ba0       ?UnFuck@@YAXKH@Z           100aaba0 f   patches.obj
 0001:000a9c20       ?UnFuckAndCheck@@YAXKHE@Z  100aac20 f   patches.obj
 0001:000a9d20       ?_patch@@YAXKPAEH@Z        100aad20 f   patches.obj
 0001:000a9df0       ??0CPlayerPed@@QAE@HHMMMME@Z 100aadf0 f   playerped.obj
 0001:000aa040       ??0CPlayerPed@@QAE@XZ      100ab040 f   playerped.obj
 0001:000aa170       ??1CPlayerPed@@UAE@XZ      100ab170 f   playerped.obj
 0001:000aa1c0       ??_ECPlayerPed@@UAEPAXI@Z  100ab1c0 f i playerped.obj
 0001:000aa1c0       ??_GCPlayerPed@@UAEPAXI@Z  100ab1c0 f i playerped.obj
 0001:000aa220       ?ApplyAnimation@CPlayerPed@@QAEXPAD0MHHHHH@Z 100ab220 f   playerped.obj
 0001:000aa360       ?ApplyCommandTask@CPlayerPed@@QAEXPADHHHPAU_VECTOR@@HMHHH@Z 100ab360 f   playerped.obj
 0001:000aa3e0       ?CheckVehicleParachute@CPlayerPed@@QAEXXZ 100ab3e0 f   playerped.obj
 0001:000aa490       ?ClearAllWeapons@CPlayerPed@@QAEXXZ 100ab490 f   playerped.obj
 0001:000aa500       ?Destroy@CPlayerPed@@QAEXXZ 100ab500 f   playerped.obj
 0001:000aa670       ?DestroyFollowPedTask@CPlayerPed@@QAEXXZ 100ab670 f   playerped.obj
 0001:000aa700       ?EnterVehicle@CPlayerPed@@QAEXHH@Z 100ab700 f   playerped.obj
 0001:000aa7d0       ?ExitCurrentVehicle@CPlayerPed@@QAEXXZ 100ab7d0 f   playerped.obj
 0001:000aa860       ?ExtinguishFire@CPlayerPed@@QAEXXZ 100ab860 f   playerped.obj
 0001:000aa910       ?FindDeathReasonAndResponsiblePlayer@CPlayerPed@@QAEEPAE@Z 100ab910 f   playerped.obj
 0001:000aab90       ?FindWeaponSlot@CPlayerPed@@QAEPAU_WEAPON_SLOT_TYPE@@K@Z 100abb90 f   playerped.obj
 0001:000aac10       ?ForceTargetRotation@CPlayerPed@@QAEXM@Z 100abc10 f   playerped.obj
 0001:000aacd0       ?GetActionTrigger@CPlayerPed@@QAEEXZ 100abcd0 f   playerped.obj
 0001:000aad10       ?GetAimZ@CPlayerPed@@QAEMXZ 100abd10 f   playerped.obj
 0001:000aad70       ?GetAmmo@CPlayerPed@@QAEGXZ 100abd70 f   playerped.obj
 0001:000aadf0       ?GetArmour@CPlayerPed@@QAEMXZ 100abdf0 f   playerped.obj
 0001:000aae40       ?GetCurrentAim@CPlayerPed@@QAEPAU_CAMERA_AIM@@XZ 100abe40 f   playerped.obj
 0001:000aae80       ?GetCurrentVehicleID@CPlayerPed@@QAEHXZ 100abe80 f   playerped.obj
 0001:000aaee0       ?GetCurrentWeapon@CPlayerPed@@QAEEXZ 100abee0 f   playerped.obj
 0001:000aaf90       ?GetCurrentWeaponSlot@CPlayerPed@@QAEPAU_WEAPON_SLOT_TYPE@@XZ 100abf90 f   playerped.obj
 0001:000aaff0       ?GetDanceAnimForMove@CPlayerPed@@QAEPADH@Z 100abff0 f   playerped.obj
 0001:000ab0a0       ?GetGtaContactEntity@CPlayerPed@@QAEPAU_ENTITY_TYPE@@XZ 100ac0a0 f   playerped.obj
 0001:000ab0f0       ?GetGtaContactVehicle@CPlayerPed@@QAEPAU_VEHICLE_TYPE@@XZ 100ac0f0 f   playerped.obj
 0001:000ab130       ?GetGtaVehicle@CPlayerPed@@QAEPAU_VEHICLE_TYPE@@XZ 100ac130 f   playerped.obj
 0001:000ab170       ?GetHealth@CPlayerPed@@QAEMXZ 100ac170 f   playerped.obj
 0001:000ab1c0       ?GetKeys@CPlayerPed@@QAEGPAG0@Z 100ac1c0 f   playerped.obj
 0001:000ab4c0       ?GetPedStat@CPlayerPed@@QAEHXZ 100ac4c0 f   playerped.obj
 0001:000ab520       ?GetStateFlags@CPlayerPed@@QAEKXZ 100ac520 f   playerped.obj
 0001:000ab570       ?GetTargetRotation@CPlayerPed@@QAEMXZ 100ac570 f   playerped.obj
 0001:000ab600       ?GetVehicleSeatID@CPlayerPed@@QAEHXZ 100ac600 f   playerped.obj
 0001:000ab770       ?GiveWeapon@CPlayerPed@@QAEXHH@Z 100ac770 f   playerped.obj
 0001:000ab860       ?HandsUp@CPlayerPed@@QAEXXZ 100ac860 f   playerped.obj
 0001:000ab900       ?HasAmmoForCurrentWeapon@CPlayerPed@@QAEHXZ 100ac900 f   playerped.obj
 0001:000ab990       ?HasHandsUp@CPlayerPed@@QAEHXZ 100ac990 f   playerped.obj
 0001:000aba60       ?HideMarker@CPlayerPed@@QAEXXZ 100aca60 f   playerped.obj
 0001:000abac0       ?HoldItem@CPlayerPed@@QAEXH@Z 100acac0 f   playerped.obj
 0001:000abb40       ?IsAPassenger@CPlayerPed@@QAEHXZ 100acb40 f   playerped.obj
 0001:000abbe0       ?IsCellphoneEnabled@CPlayerPed@@QAEHXZ 100acbe0 f   playerped.obj
 0001:000abc10       ?IsDancing@CPlayerPed@@QAEHXZ 100acc10 f   playerped.obj
 0001:000abc50       ?IsDead@CPlayerPed@@QAEHXZ 100acc50 f   playerped.obj
 0001:000abcb0       ?IsInJetpackMode@CPlayerPed@@QAEHXZ 100accb0 f   playerped.obj
 0001:000abd50       ?IsInVehicle@CPlayerPed@@QAEHXZ 100acd50 f   playerped.obj
 0001:000abdb0       ?IsOnGround@CPlayerPed@@QAEHXZ 100acdb0 f   playerped.obj
 0001:000abe00       ?IsOnScreen@CPlayerPed@@QAEHXZ 100ace00 f   playerped.obj
 0001:000abe50       ?IsPerformingAnimation@CPlayerPed@@QAEHPAD@Z 100ace50 f   playerped.obj
 0001:000abec0       ?IsPerformingCustomAnim@CPlayerPed@@QAEHXZ 100acec0 f   playerped.obj
 0001:000abf30       ?IsPissing@CPlayerPed@@QAEHXZ 100acf30 f   playerped.obj
 0001:000abf90       ?ProcessDancing@CPlayerPed@@QAEXXZ 100acf90 f   playerped.obj
 0001:000ac320       ?ProcessMarkers@CPlayerPed@@QAEXHMH@Z 100ad320 f   playerped.obj
 0001:000ac3c0       ?ProcessParachuteSkydiving@CPlayerPed@@QAEXXZ 100ad3c0 f   playerped.obj
 0001:000ac6d0       ?ProcessParachutes@CPlayerPed@@QAEXXZ 100ad6d0 f   playerped.obj
 0001:000ac980       ?ProcessParachuting@CPlayerPed@@QAEXXZ 100ad980 f   playerped.obj
 0001:000acad0       ?ProcessVehicleHorn@CPlayerPed@@QAEXXZ 100adad0 f   playerped.obj
 0001:000acbc0       ?PutDirectlyInVehicle@CPlayerPed@@QAEXHH@Z 100adbc0 f   playerped.obj
 0001:000acd90       ?RemoveFromVehicleAndPutAt@CPlayerPed@@QAEXMMM@Z 100add90 f   playerped.obj
 0001:000ace40       ?ResetDamageEntity@CPlayerPed@@QAEXXZ 100ade40 f   playerped.obj
 0001:000acea0       ?ResetForRespawn@CPlayerPed@@QAEXXZ 100adea0 f   playerped.obj
 0001:000acef0       ?ResetPointers@CPlayerPed@@QAEXXZ 100adef0 f   playerped.obj
 0001:000acf50       ?RestartIfWastedAt@CPlayerPed@@QAEXPAU_VECTOR@@M@Z 100adf50 f   playerped.obj
 0001:000acfe0       ?SetActionTrigger@CPlayerPed@@QAEXE@Z 100adfe0 f   playerped.obj
 0001:000ad030       ?SetAimZ@CPlayerPed@@QAEXM@Z 100ae030 f   playerped.obj
 0001:000ad090       ?SetAmmo@CPlayerPed@@QAEXEG@Z 100ae090 f   playerped.obj
 0001:000ad100       ?SetAnimationSet@CPlayerPed@@QAEXPAD@Z 100ae100 f   playerped.obj
 0001:000ad160       ?SetArmedWeapon@CPlayerPed@@QAEXH@Z 100ae160 f   playerped.obj
 0001:000ad1d0       ?SetArmour@CPlayerPed@@QAEXM@Z 100ae1d0 f   playerped.obj
 0001:000ad220       ?SetCollisionChecking@CPlayerPed@@QAEXH@Z 100ae220 f   playerped.obj
 0001:000ad2a0       ?SetCurrentAim@CPlayerPed@@QAEXPAU_CAMERA_AIM@@@Z 100ae2a0 f   playerped.obj
 0001:000ad2f0       ?SetDead@CPlayerPed@@QAEXXZ 100ae2f0 f   playerped.obj
 0001:000ad460       ?SetGravityProcessing@CPlayerPed@@QAEXH@Z 100ae460 f   playerped.obj
 0001:000ad4f0       ?SetHealth@CPlayerPed@@QAEXM@Z 100ae4f0 f   playerped.obj
 0001:000ad540       ?SetInitialState@CPlayerPed@@QAEXXZ 100ae540 f   playerped.obj
 0001:000ad590       ?SetInterior@CPlayerPed@@QAEXE@Z 100ae590 f   playerped.obj
 0001:000ad670       ?SetKeys@CPlayerPed@@QAEXGGG@Z 100ae670 f   playerped.obj
 0001:000ae040       ?SetModelIndex@CPlayerPed@@QAEXI@Z 100af040 f   playerped.obj
 0001:000ae0f0       ?SetMoney@CPlayerPed@@QAEXH@Z 100af0f0 f   playerped.obj
 0001:000ae160       ?SetStateFlags@CPlayerPed@@QAEXK@Z 100af160 f   playerped.obj
 0001:000ae1b0       ?SetTargetRotation@CPlayerPed@@QAEXM@Z 100af1b0 f   playerped.obj
 0001:000ae280       ?SetWeaponModelIndex@CPlayerPed@@QAEXH@Z 100af280 f   playerped.obj
 0001:000ae2f0       ?ShowMarker@CPlayerPed@@QAEXXZ 100af2f0 f   playerped.obj
 0001:000ae390       ?StartDancing@CPlayerPed@@QAEXH@Z 100af390 f   playerped.obj
 0001:000ae430       ?StartJetpack@CPlayerPed@@QAEXXZ 100af430 f   playerped.obj
 0001:000ae490       ?StartPassengerDriveByMode@CPlayerPed@@QAEHXZ 100af490 f   playerped.obj
 0001:000ae5c0       ?StartPissing@CPlayerPed@@QAEXXZ 100af5c0 f   playerped.obj
 0001:000ae700       ?StopDancing@CPlayerPed@@QAEXXZ 100af700 f   playerped.obj
 0001:000ae7c0       ?StopJetpack@CPlayerPed@@QAEXXZ 100af7c0 f   playerped.obj
 0001:000ae890       ?StopPissing@CPlayerPed@@QAEXXZ 100af890 f   playerped.obj
 0001:000ae9a0       ?ToggleCellphone@CPlayerPed@@QAEXH@Z 100af9a0 f   playerped.obj
 0001:000aea10       ?TogglePlayerControllable@CPlayerPed@@QAEXH@Z 100afa10 f   playerped.obj
 0001:000aeb40       ?ExecuteScriptBuf@@YAHXZ   100afb40 f   scripting.obj
 0001:000aeb80       ?InitScripting@@YAXXZ      100afb80 f   scripting.obj
 0001:000aebf0       ?ScriptCommand@@YAHPBUSCRIPT_COMMAND@@ZZ 100afbf0 f   scripting.obj
 0001:000af050       ??0CTask@@QAE@K@Z          100b0050 f   task.obj
 0001:000af0c0       ??0CTask@@QAE@PAE@Z        100b00c0 f   task.obj
 0001:000af130       ??0CTask@@QAE@XZ           100b0130 f   task.obj
 0001:000af180       ??0CTaskJetpack@@QAE@PAE@Z 100b0180 f   task.obj
 0001:000af220       ??0CTaskJetpack@@QAE@XZ    100b0220 f   task.obj
 0001:000af2e0       ??0CTaskTakeDamageFall@@QAE@KK@Z 100b02e0 f   task.obj
 0001:000af3a0       ??1CTask@@UAE@XZ           100b03a0 f   task.obj
 0001:000af3e0       ??1CTaskJetpack@@UAE@XZ    100b03e0 f   task.obj
 0001:000af490       ??1CTaskTakeDamageFall@@UAE@XZ 100b0490 f i task.obj
 0001:000af4d0       ??_ECTask@@UAEPAXI@Z       100b04d0 f i task.obj
 0001:000af4d0       ??_GCTask@@UAEPAXI@Z       100b04d0 f i task.obj
 0001:000af530       ??_GCTaskJetpack@@UAEPAXI@Z 100b0530 f i task.obj
 0001:000af530       ??_ECTaskJetpack@@UAEPAXI@Z 100b0530 f i task.obj
 0001:000af590       ??_ECTaskTakeDamageFall@@UAEPAXI@Z 100b0590 f i task.obj
 0001:000af590       ??_GCTaskTakeDamageFall@@UAEPAXI@Z 100b0590 f i task.obj
 0001:000af5f0       ?ApplyToPed@CTask@@UAEXPAVCPlayerPed@@@Z 100b05f0 f   task.obj
 0001:000af680       ?Create@CTask@@QAEXK@Z     100b0680 f   task.obj
 0001:000af6e0       ?Create@CTask@@QAEXPAE@Z   100b06e0 f   task.obj
 0001:000af720       ?CreateCopy@CTask@@UAEPAV1@XZ 100b0720 f   task.obj
 0001:000af800       ?Destroy@CTask@@UAEXXZ     100b0800 f   task.obj
 0001:000af890       ?GetID@CTask@@UAEKXZ       100b0890 f   task.obj
 0001:000af8e0       ?IsDestroyed@CTask@@UAEHXZ 100b08e0 f   task.obj
 0001:000af940       ?IsSimple@CTask@@UAEHXZ    100b0940 f   task.obj
 0001:000af9a0       ??0CTextDraw@@QAE@PAU_TEXT_DRAW_TRANSMIT@@PAD@Z 100b09a0 f   textdraw.obj
 0001:000afb60       ?Draw@CTextDraw@@QAEXXZ    100b0b60 f   textdraw.obj
 0001:000afeb0       ?GetHudHorizScale@CGame@@QAEMXZ 100b0eb0 f i textdraw.obj
 0001:000afee0       ?GetHudVertScale@CGame@@QAEMXZ 100b0ee0 f i textdraw.obj
 0001:000aff10       ?GetScreenHeight@CGame@@QAEHXZ 100b0f10 f i textdraw.obj
 0001:000aff40       ?GetScreenWidth@CGame@@QAEHXZ 100b0f40 f i textdraw.obj
 0001:000aff70       ?SetText@CTextDraw@@QAEXPAD@Z 100b0f70 f   textdraw.obj
 0001:000afff0       ?CompressNormalVector@@YAXPAU_VECTOR@@PAU_C_VECTOR1@@@Z 100b0ff0 f   util.obj
 0001:000b00f0       ?DecompressNormalVector@@YAXPAU_VECTOR@@PAU_C_VECTOR1@@@Z 100b10f0 f   util.obj
 0001:000b0250       ?DegToRad@@YAMM@Z          100b1250 f   util.obj
 0001:000b0320       ?DistanceBetweenHorizontalPoints@@YAMMMMM@Z 100b1320 f   util.obj
 0001:000b03b0       ?DistanceBetweenPoints@@YAMMMMMMM@Z 100b13b0 f   util.obj
 0001:000b0460       ?FindPlayerNumFromPedPtr@@YGEK@Z 100b1460 f   util.obj
 0001:000b04c0       ?FloatDifference@@YAMMM@Z  100b14c0 f   util.obj
 0001:000b0500       ?FloatOffset@@YAMMM@Z      100b1500 f   util.obj
 0001:000b0570       ?GameDisableCheatCodes@@YGXXZ 100b1570 f   util.obj
 0001:000b05a0       ?GameForcedExit@@YAXH@Z    100b15a0 f   util.obj
 0001:000b0760       ?GameForcedExitHelper@@YAXXZ 100b1760 f   util.obj
 0001:000b07a0       ?GameGetWeaponModelIDFromWeaponID@@YGHH@Z 100b17a0 f   util.obj
 0001:000b0a30       ?GameIsEntityOnScreen@@YGHPAK@Z 100b1a30 f   util.obj
 0001:000b0a60       ?GamePool_FindPlayerPed@@YGPAU_PED_TYPE@@XZ 100b1a60 f   util.obj
 0001:000b0a90       ?GamePool_Object_GetAt@@YGPAU_ENTITY_TYPE@@H@Z 100b1a90 f   util.obj
 0001:000b0ae0       ?GamePool_Ped_GetAt@@YGPAU_PED_TYPE@@H@Z 100b1ae0 f   util.obj
 0001:000b0b30       ?GamePool_Ped_GetIndex@@YGHPAU_PED_TYPE@@@Z 100b1b30 f   util.obj
 0001:000b0b80       ?GamePool_Vehicle_GetAt@@YGPAU_VEHICLE_TYPE@@H@Z 100b1b80 f   util.obj
 0001:000b0bd0       ?GamePool_Vehicle_GetIndex@@YGKPAU_VEHICLE_TYPE@@@Z 100b1bd0 f   util.obj
 0001:000b0c30       ?GamePrepareTrain@@YGXPAU_VEHICLE_TYPE@@@Z 100b1c30 f   util.obj
 0001:000b0cb0       ?GameResetRadarColors@@YAXXZ 100b1cb0 f   util.obj
 0001:000b0d10       ?Game_PedStat@@YAHH@Z      100b1d10 f   util.obj
 0001:000b0d60       ?Game_PedStatPrim@@YAHH@Z  100b1d60 f   util.obj
 0001:000b0db0       ?GetNormalisation@@YAMPAU_VECTOR@@@Z 100b1db0 f   util.obj
 0001:000b0e20       ?InitPlayerPedPtrRecords@@YGXXZ 100b1e20 f   util.obj
 0001:000b0e70       ?IsNumeric@@YA_NPAD@Z      100b1e70 f   util.obj
 0001:000b0ed0       ?IsValidModel@@YGHH@Z      100b1ed0 f   util.obj
 0001:000b0f30       ?ProcessLineOfSight@@YAXPAU_VECTOR@@00PAKHHHHHHHH@Z 100b1f30 f   util.obj
 0001:000b0f60       ?RwStateSetCall@@YAXKPAM@Z 100b1f60 f   util.obj
 0001:000b0fb0       ?SetPlayerPedPtrRecord@@YGXEK@Z 100b1fb0 f   util.obj
 0001:000b0ff0       ?SetRadarColor@@YGXEK@Z    100b1ff0 f   util.obj
 0001:000b1030       ?TranslateColorCodeToRGBA@@YGKH@Z 100b2030 f   util.obj
 0001:000b10b0       ?VectorNormalise@@YAXPAU_VECTOR@@@Z 100b20b0 f   util.obj
 0001:000b1100       ?WorldAddEntity@@YGXPAK@Z  100b2100 f   util.obj
 0001:000b1140       ?WorldRemoveEntity@@YGXPAK@Z 100b2140 f   util.obj
 0001:000b11c0       ??0CVehicle@@QAE@HMMMMPAD@Z 100b21c0 f   vehicle.obj
 0001:000b1710       ??1CVehicle@@UAE@XZ        100b2710 f   vehicle.obj
 0001:000b17f0       ??_GCVehicle@@UAEPAXI@Z    100b27f0 f i vehicle.obj
 0001:000b17f0       ??_ECVehicle@@UAEPAXI@Z    100b27f0 f i vehicle.obj
 0001:000b1850       ?Add@CVehicle@@UAEXXZ      100b2850 f   vehicle.obj
 0001:000b18d0       ?AttachTrailer@CVehicle@@QAEXXZ 100b28d0 f   vehicle.obj
 0001:000b1930       ?DetachTrailer@CVehicle@@QAEXXZ 100b2930 f   vehicle.obj
 0001:000b1990       ?GetHealth@CVehicle@@QAEMXZ 100b2990 f   vehicle.obj
 0001:000b19e0       ?GetHydraThrusters@CVehicle@@QAEKXZ 100b29e0 f   vehicle.obj
 0001:000b1a30       ?GetLandingGearState@CVehicle@@QAE?AW4eLandingGearState@@XZ 100b2a30 f   vehicle.obj
 0001:000b1ab0       ?GetPassengersMax@CVehicle@@QAEIXZ 100b2ab0 f   vehicle.obj
 0001:000b1ae0       ?GetTankRotX@CVehicle@@QAEMXZ 100b2ae0 f   vehicle.obj
 0001:000b1b20       ?GetTankRotY@CVehicle@@QAEMXZ 100b2b20 f   vehicle.obj
 0001:000b1b60       ?GetTrailer@CVehicle@@QAEPAV1@XZ 100b2b60 f   vehicle.obj
 0001:000b1c10       ?GetTrainSpeed@CVehicle@@QAEMXZ 100b2c10 f   vehicle.obj
 0001:000b1c50       ?GetVehicleSubtype@CVehicle@@QAEIXZ 100b2c50 f   vehicle.obj
 0001:000b1d30       ?GetWheelPopped@CVehicle@@QAEEK@Z 100b2d30 f   vehicle.obj
 0001:000b1db0       ?HasADriver@CVehicle@@QAEHXZ 100b2db0 f   vehicle.obj
 0001:000b1e40       ?HasSunk@CVehicle@@QAEHXZ  100b2e40 f   vehicle.obj
 0001:000b1ea0       ?HasTurret@CVehicle@@QAEHXZ 100b2ea0 f   vehicle.obj
 0001:000b1f30       ?IsATrainPart@CVehicle@@QAEHXZ 100b2f30 f   vehicle.obj
 0001:000b1fd0       ?IsDriverLocalPlayer@CVehicle@@QAEHXZ 100b2fd0 f   vehicle.obj
 0001:000b2030       ?IsOccupied@CVehicle@@QAEHXZ 100b3030 f   vehicle.obj
 0001:000b2160       ?IsRCVehicle@CVehicle@@QAEHXZ 100b3160 f   vehicle.obj
 0001:000b2210       ?IsSirenOn@CVehicle@@QAEHXZ 100b3210 f   vehicle.obj
 0001:000b2270       ?IsWrecked@CVehicle@@QAEHXZ 100b3270 f   vehicle.obj
 0001:000b22d0       ?LinkToInterior@CVehicle@@QAEXH@Z 100b32d0 f   vehicle.obj
 0001:000b2340       ?ProcessEngineAudio@CVehicle@@QAEXE@Z 100b3340 f   vehicle.obj
 0001:000b23d0       ?ProcessMarkers@CVehicle@@QAEXXZ 100b33d0 f   vehicle.obj
 0001:000b25c0       ?Recreate@CVehicle@@QAEXXZ 100b35c0 f   vehicle.obj
 0001:000b27c0       ?Remove@CVehicle@@UAEXXZ   100b37c0 f   vehicle.obj
 0001:000b2840       ?RemoveEveryoneFromVehicle@CVehicle@@QAEXXZ 100b3840 f   vehicle.obj
 0001:000b29d0       ?ResetPointers@CVehicle@@QAEXXZ 100b39d0 f   vehicle.obj
 0001:000b2a30       ?SetColor@CVehicle@@QAEXHH@Z 100b3a30 f   vehicle.obj
 0001:000b2a90       ?SetDoorState@CVehicle@@QAEXH@Z 100b3a90 f   vehicle.obj
 0001:000b2b00       ?SetEngineState@CVehicle@@QAEXH@Z 100b3b00 f   vehicle.obj
 0001:000b2b80       ?SetHealth@CVehicle@@QAEXM@Z 100b3b80 f   vehicle.obj
 0001:000b2bd0       ?SetHornState@CVehicle@@QAEXE@Z 100b3bd0 f   vehicle.obj
 0001:000b2c70       ?SetHydraThrusters@CVehicle@@QAEXK@Z 100b3c70 f   vehicle.obj
 0001:000b2cc0       ?SetInvulnerable@CVehicle@@QAEXH@Z 100b3cc0 f   vehicle.obj
 0001:000b2dc0       ?SetLandingGearState@CVehicle@@QAEXW4eLandingGearState@@@Z 100b3dc0 f   vehicle.obj
 0001:000b2e30       ?SetLockedState@CVehicle@@QAEXH@Z 100b3e30 f   vehicle.obj
 0001:000b2eb0       ?SetSirenOn@CVehicle@@QAEXH@Z 100b3eb0 f   vehicle.obj
 0001:000b2f10       ?SetTankRot@CVehicle@@QAEXMM@Z 100b3f10 f   vehicle.obj
 0001:000b2f70       ?SetTrailer@CVehicle@@QAEXPAV1@@Z 100b3f70 f   vehicle.obj
 0001:000b2fb0       ?SetTrainSpeed@CVehicle@@QAEXM@Z 100b3fb0 f   vehicle.obj
 0001:000b2ff0       ?SetWheelPopped@CVehicle@@QAEXKK@Z 100b3ff0 f   vehicle.obj
 0001:000b3070       ?UpdateLastDrivenTime@CVehicle@@QAEHXZ 100b4070 f   vehicle.obj
 0001:000b30f0       ?VerifyInstance@CVehicle@@QAEHXZ 100b40f0 f   vehicle.obj
 0001:000b3140       ??0CChatWindow@@QAE@PAUIDirect3DDevice9@@PAUID3DXFont@@@Z 100b4140 f   chatwindow.obj
 0001:000b32c0       ??1CChatWindow@@QAE@XZ     100b42c0 f   chatwindow.obj
 0001:000b32f0       ?AddChatMessage@CChatWindow@@QAEXPADK0@Z 100b42f0 f   chatwindow.obj
 0001:000b3370       ?AddClientMessage@CChatWindow@@QAEXKPAD@Z 100b4370 f   chatwindow.obj
 0001:000b33f0       ?AddDebugMessage@CChatWindow@@QAAXPADZZ 100b43f0 f   chatwindow.obj
 0001:000b3510       ?AddInfoMessage@CChatWindow@@QAAXPADZZ 100b4510 f   chatwindow.obj
 0001:000b3610       ?AddToChatWindowBuffer@CChatWindow@@AAEXW4eChatMessageType@@PAD1KK@Z 100b4610 f   chatwindow.obj
 0001:000b3920       ?Draw@CChatWindow@@QAEXXZ  100b4920 f   chatwindow.obj
 0001:000b3c90       ?FilterInvalidChars@CChatWindow@@AAEXPAD@Z 100b4c90 f   chatwindow.obj
 0001:000b3cf0       ?PageDown@CChatWindow@@QAEXXZ 100b4cf0 f   chatwindow.obj
 0001:000b3d60       ?PageUp@CChatWindow@@QAEXXZ 100b4d60 f   chatwindow.obj
 0001:000b3dd0       ?PushBack@CChatWindow@@AAEXXZ 100b4dd0 f   chatwindow.obj
 0001:000b3e50       ?RenderText@CChatWindow@@QAEXPADUtagRECT@@K@Z 100b4e50 f   chatwindow.obj
 0001:000b4030       ?ResetDialogControls@CChatWindow@@QAEXPAVCDXUTDialog@@@Z 100b5030 f   chatwindow.obj
 0001:000b41d0       ?ScrollBarPosFromCurrentPage@CChatWindow@@QAEXXZ 100b51d0 f   chatwindow.obj
 0001:000b4290       ?SetLocation@CDXUTControl@@QAEXHH@Z 100b5290 f i chatwindow.obj
 0001:000b4300       ?SetPageSize@CDXUTScrollBar@@QAEXH@Z 100b5300 f i chatwindow.obj
 0001:000b4360       ?SetSize@CDXUTControl@@QAEXHH@Z 100b5360 f i chatwindow.obj
 0001:000b43d0       ?DriveByTest@@YAXPAD@Z     100b53d0 f   cmdprocs.obj
 0001:000b44c0       ?MyCreateActor@@YAKHMMMM@Z 100b54c0 f   cmdprocs.obj
 0001:000b45e0       ?SetupCommands@@YAXXZ      100b55e0 f   cmdprocs.obj
 0001:000b4ce0       ?TestExit@@YAXPAD@Z        100b5ce0 f   cmdprocs.obj
 0001:000b4d90       ?cmdActorDebug@@YAXPAD@Z   100b5d90 f   cmdprocs.obj
 0001:000b4e10       ?cmdActorTaskDebug@@YAXPAD@Z 100b5e10 f   cmdprocs.obj
 0001:000b4e90       ?cmdAnimSet@@YAXPAD@Z      100b5e90 f   cmdprocs.obj
 0001:000b4ef0       ?cmdApplyAnimation@@YAXPAD@Z 100b5ef0 f   cmdprocs.obj
 0001:000b4fc0       ?cmdAttractAddr@@YAXPAD@Z  100b5fc0 f   cmdprocs.obj
 0001:000b5010       ?cmdBench@@YAXPAD@Z        100b6010 f   cmdprocs.obj
 0001:000b5080       ?cmdCamMode@@YAXPAD@Z      100b6080 f   cmdprocs.obj
 0001:000b5100       ?cmdCheckpointTest@@YAXPAD@Z 100b6100 f   cmdprocs.obj
 0001:000b5240       ?cmdCigar@@YAXPAD@Z        100b6240 f   cmdprocs.obj
 0001:000b5290       ?cmdClothes@@YAXPAD@Z      100b6290 f   cmdprocs.obj
 0001:000b53f0       ?cmdCmpStat@@YAXPAD@Z      100b63f0 f   cmdprocs.obj
 0001:000b5560       ?cmdCreateActor@@YAXPAD@Z  100b6560 f   cmdprocs.obj
 0001:000b5690       ?cmdCreatePlayer@@YAXPAD@Z 100b6690 f   cmdprocs.obj
 0001:000b5860       ?cmdCreateRadarMarkers@@YAXPAD@Z 100b6860 f   cmdprocs.obj
 0001:000b59a0       ?cmdCreateVehicle@@YAXPAD@Z 100b69a0 f   cmdprocs.obj
 0001:000b5b90       ?cmdDance@@YAXPAD@Z        100b6b90 f   cmdprocs.obj
 0001:000b5bf0       ?cmdDeactivatePlayers@@YAXPAD@Z 100b6bf0 f   cmdprocs.obj
 0001:000b5c40       ?cmdDebugLabels@@YAXPAD@Z  100b6c40 f   cmdprocs.obj
 0001:000b5ca0       ?cmdDebugStop@@YAXPAD@Z    100b6ca0 f   cmdprocs.obj
 0001:000b5ce0       ?cmdDefaultCmdProc@@YAXPAD@Z 100b6ce0 f   cmdprocs.obj
 0001:000b5d40       ?cmdDisableEnEx@@YAXPAD@Z  100b6d40 f   cmdprocs.obj
 0001:000b5d80       ?cmdDiscon@@YAXPAD@Z       100b6d80 f   cmdprocs.obj
 0001:000b5db0       ?cmdDisplayMemory@@YAXPAD@Z 100b6db0 f   cmdprocs.obj
 0001:000b5ea0       ?cmdDisplayMemoryAsc@@YAXPAD@Z 100b6ea0 f   cmdprocs.obj
 0001:000b5f90       ?cmdDumpFreqTable@@YAXPAD@Z 100b6f90 f   cmdprocs.obj
 0001:000b60e0       ?cmdFollowPedSA@@YAXPAD@Z  100b70e0 f   cmdprocs.obj
 0001:000b61f0       ?cmdFreeAim@@YAXPAD@Z      100b71f0 f   cmdprocs.obj
 0001:000b6250       ?cmdGiveActorWeapon@@YAXPAD@Z 100b7250 f   cmdprocs.obj
 0001:000b6310       ?cmdHandsUp@@YAXPAD@Z      100b7310 f   cmdprocs.obj
 0001:000b6360       ?cmdInAccMultiplier@@YAXPAD@Z 100b7360 f   cmdprocs.obj
 0001:000b63e0       ?cmdInCarCorrection@@YAXPAD@Z 100b73e0 f   cmdprocs.obj
 0001:000b6460       ?cmdKill@@YAXPAD@Z         100b7460 f   cmdprocs.obj
 0001:000b64c0       ?cmdKillRemotePlayer@@YAXPAD@Z 100b74c0 f   cmdprocs.obj
 0001:000b6570       ?cmdLotsOfPlayers@@YAXPAD@Z 100b7570 f   cmdprocs.obj
 0001:000b65a0       ?cmdLotsOfV@@YAXPAD@Z      100b75a0 f   cmdprocs.obj
 0001:000b66f0       ?cmdMsg@@YAXPAD@Z          100b76f0 f   cmdprocs.obj
 0001:000b67e0       ?cmdNoFire@@YAXPAD@Z       100b77e0 f   cmdprocs.obj
 0001:000b6830       ?cmdObjectDebug@@YAXPAD@Z  100b7830 f   cmdprocs.obj
 0001:000b6860       ?cmdOnfootCorrection@@YAXPAD@Z 100b7860 f   cmdprocs.obj
 0001:000b68e0       ?cmdPlaySound@@YAXPAD@Z    100b78e0 f   cmdprocs.obj
 0001:000b69e0       ?cmdPlayerAddr@@YAXPAD@Z   100b79e0 f   cmdprocs.obj
 0001:000b6aa0       ?cmdPlayerSkin@@YAXPAD@Z   100b7aa0 f   cmdprocs.obj
 0001:000b6b40       ?cmdPlayerToVehicle@@YAXPAD@Z 100b7b40 f   cmdprocs.obj
 0001:000b6c40       ?cmdPlayerVehicleDebug@@YAXPAD@Z 100b7c40 f   cmdprocs.obj
 0001:000b6c80       ?cmdPlayerVtbl@@YAXPAD@Z   100b7c80 f   cmdprocs.obj
 0001:000b6da0       ?cmdPopWheels@@YAXPAD@Z    100b7da0 f   cmdprocs.obj
 0001:000b6f20       ?cmdPutActorInVehicle@@YAXPAD@Z 100b7f20 f   cmdprocs.obj
 0001:000b6f50       ?cmdQuit@@YAXPAD@Z         100b7f50 f   cmdprocs.obj
 0001:000b6f90       ?cmdRcon@@YAXPAD@Z         100b7f90 f   cmdprocs.obj
 0001:000b70f0       ?cmdRemotePlayer@@YAXPAD@Z 100b80f0 f   cmdprocs.obj
 0001:000b72b0       ?cmdRemotePlayerRespawn@@YAXPAD@Z 100b82b0 f   cmdprocs.obj
 0001:000b7390       ?cmdResetVehiclePool@@YAXPAD@Z 100b8390 f   cmdprocs.obj
 0001:000b73e0       ?cmdSaveLocation@@YAXPAD@Z 100b83e0 f   cmdprocs.obj
 0001:000b74f0       ?cmdSavePos@@YAXPAD@Z      100b84f0 f   cmdprocs.obj
 0001:000b7710       ?cmdSay@@YAXPAD@Z          100b8710 f   cmdprocs.obj
 0001:000b7780       ?cmdSelectVehicle@@YAXPAD@Z 100b8780 f   cmdprocs.obj
 0001:000b77d0       ?cmdSetCameraPos@@YAXPAD@Z 100b87d0 f   cmdprocs.obj
 0001:000b7970       ?cmdSetFarClip@@YAXPAD@Z   100b8970 f   cmdprocs.obj
 0001:000b79f0       ?cmdSetFrameLimit@@YAXPAD@Z 100b89f0 f   cmdprocs.obj
 0001:000b7ae0       ?cmdSetInterior@@YAXPAD@Z  100b8ae0 f   cmdprocs.obj
 0001:000b7b60       ?cmdSetTime@@YAXPAD@Z      100b8b60 f   cmdprocs.obj
 0001:000b7c60       ?cmdSetWeather@@YAXPAD@Z   100b8c60 f   cmdprocs.obj
 0001:000b7ce0       ?cmdShowGameInterfaceDebug@@YAXPAD@Z 100b8ce0 f   cmdprocs.obj
 0001:000b7d20       ?cmdShowInterior@@YAXPAD@Z 100b8d20 f   cmdprocs.obj
 0001:000b7db0       ?cmdShowMyVirtualWorld@@YAXPAD@Z 100b8db0 f   cmdprocs.obj
 0001:000b7e20       ?cmdShowPlayerVirtualWorld@@YAXPAD@Z 100b8e20 f   cmdprocs.obj
 0001:000b7ec0       ?cmdSit@@YAXPAD@Z          100b8ec0 f   cmdprocs.obj
 0001:000b7f10       ?cmdSpectatep@@YAXPAD@Z    100b8f10 f   cmdprocs.obj
 0001:000b8010       ?cmdSpectatev@@YAXPAD@Z    100b9010 f   cmdprocs.obj
 0001:000b8110       ?cmdStartJetpack@@YAXPAD@Z 100b9110 f   cmdprocs.obj
 0001:000b8160       ?cmdStartPiss@@YAXPAD@Z    100b9160 f   cmdprocs.obj
 0001:000b81c0       ?cmdStopJetpack@@YAXPAD@Z  100b91c0 f   cmdprocs.obj
 0001:000b8210       ?cmdTaskSitIdle@@YAXPAD@Z  100b9210 f   cmdprocs.obj
 0001:000b8320       ?cmdTeamMsg@@YAXPAD@Z      100b9320 f   cmdprocs.obj
 0001:000b8390       ?cmdVModels@@YAXPAD@Z      100b9390 f   cmdprocs.obj
 0001:000b8510       ?cmdVehicleDebug@@YAXPAD@Z 100b9510 f   cmdprocs.obj
 0001:000b85a0       ?cmdVehicleSyncTest@@YAXPAD@Z 100b95a0 f   cmdprocs.obj
 0001:000b85e0       ?cmdWorldPlayerAdd@@YAXPAD@Z 100b95e0 f   cmdprocs.obj
 0001:000b86b0       ?cmdWorldPlayerRemove@@YAXPAD@Z 100b96b0 f   cmdprocs.obj
 0001:000b8780       ?cmdWorldVehicleAdd@@YAXPAD@Z 100b9780 f   cmdprocs.obj
 0001:000b8840       ?cmdWorldVehicleRemove@@YAXPAD@Z 100b9840 f   cmdprocs.obj
 0001:000b8900       ??0CCmdWindow@@QAE@PAUIDirect3DDevice9@@@Z 100b9900 f   cmdwindow.obj
 0001:000b89f0       ??1CCmdWindow@@QAE@XZ      100b99f0 f   cmdwindow.obj
 0001:000b8a20       ?AddCmdProc@CCmdWindow@@QAEXPADP6AX0@Z@Z 100b9a20 f   cmdwindow.obj
 0001:000b8ad0       ?AddDefaultCmdProc@CCmdWindow@@QAEXP6AXPAD@Z@Z 100b9ad0 f   cmdwindow.obj
 0001:000b8b10       ?AddToRecallBuffer@CCmdWindow@@QAEXPAD@Z 100b9b10 f   cmdwindow.obj
 0001:000b8be0       ?Disable@CCmdWindow@@QAEXXZ 100b9be0 f   cmdwindow.obj
 0001:000b8c80       ?Draw@CCmdWindow@@QAEXXZ   100b9c80 f   cmdwindow.obj
 0001:000b8cb0       ?Enable@CCmdWindow@@QAEXXZ 100b9cb0 f   cmdwindow.obj
 0001:000b8d60       ?GetAt@?$CGrowableArray@PAVCDXUTElement@@@@QAEAAPAVCDXUTElement@@H@Z 100b9d60 f i cmdwindow.obj
 0001:000b8dd0       ?GetBuffer@CUniBuffer@@QAEPBDXZ 100b9dd0 f i cmdwindow.obj
 0001:000b8e00       ?GetChatWindowBottom@CChatWindow@@QAEJXZ 100b9e00 f i cmdwindow.obj
 0001:000b8e40       ?GetCmdHandler@CCmdWindow@@QAEP6AXPAD@Z0@Z 100b9e40 f   cmdwindow.obj
 0001:000b8ed0       ?GetElement@CDXUTControl@@QAEPAVCDXUTElement@@I@Z 100b9ed0 f i cmdwindow.obj
 0001:000b8f20       ?GetText@CDXUTEditBox@@QAEPBDXZ 100b9f20 f i cmdwindow.obj
 0001:000b8f70       ?MsgProc@CCmdWindow@@QAEHIKK@Z 100b9f70 f   cmdwindow.obj
 0001:000b9010       ?ProcessInput@CCmdWindow@@QAEXXZ 100ba010 f   cmdwindow.obj
 0001:000b92a0       ?RecallDown@CCmdWindow@@QAEXXZ 100ba2a0 f   cmdwindow.obj
 0001:000b9350       ?RecallUp@CCmdWindow@@QAEXXZ 100ba350 f   cmdwindow.obj
 0001:000b9420       ?ResetDialogControls@CCmdWindow@@QAEXPAVCDXUTDialog@@@Z 100ba420 f   cmdwindow.obj
 0001:000b9640       ?SendToServer@CCmdWindow@@QAEXPAD@Z 100ba640 f   cmdwindow.obj
 0001:000b9790       ?SetCaretColor@CDXUTEditBox@@QAEXK@Z 100ba790 f i cmdwindow.obj
 0001:000b97d0       ??0CDeathWindow@@QAE@PAUIDirect3DDevice9@@@Z 100ba7d0 f   deathwindow.obj
 0001:000b9880       ??1CDeathWindow@@QAE@XZ    100ba880 f   deathwindow.obj
 0001:000b98f0       ?AddMessage@CDeathWindow@@QAEXPAD0KKE@Z 100ba8f0 f   deathwindow.obj
 0001:000b9950       ?AddToDeathWindowBuffer@CDeathWindow@@AAEXPAD0KKE@Z 100ba950 f   deathwindow.obj
 0001:000b9a40       ?CreateFonts@CDeathWindow@@QAEXXZ 100baa40 f   deathwindow.obj
 0001:000b9cb0       ?Draw@CDeathWindow@@QAEXXZ 100bacb0 f   deathwindow.obj
 0001:000ba190       ?PushBack@CDeathWindow@@AAEXXZ 100bb190 f   deathwindow.obj
 0001:000ba210       ?RenderText@CDeathWindow@@QAEXPADUtagRECT@@KK@Z 100bb210 f   deathwindow.obj
 0001:000ba300       ?RenderWeaponSprite@CDeathWindow@@QAEXPADUtagRECT@@K@Z 100bb300 f   deathwindow.obj
 0001:000ba380       ?SpriteIDForWeapon@CDeathWindow@@QAEPADE@Z 100bb380 f   deathwindow.obj
 0001:000ba710       ?DoCrashReportingStuff@@YAXXZ 100bb710 f   exceptions.obj
 0001:000ba870       ?DumpLoadedModules@@YAXPAD@Z 100bb870 f   exceptions.obj
 0001:000baa40       ?DumpMain@@YAXH@Z          100bba40 f   exceptions.obj
 0001:000baca0       ?DumpMemory@@YAXPAEKPADH@Z 100bbca0 f   exceptions.obj
 0001:000baef0       ?DumpNetworkStateInformation@@YAXPAD@Z 100bbef0 f   exceptions.obj
 0001:000bb0d0       ?GetMainWindowHwnd@CGame@@QAEPAUHWND__@@XZ 100bc0d0 f i exceptions.obj
 0001:000bb100       ?GuiDlgProcMain@@YGHPAUHWND__@@IIJ@Z 100bc100 f   exceptions.obj
 0001:000bb2f0       ?exc_handler@@YGJPAU_EXCEPTION_POINTERS@@@Z 100bc2f0 f   exceptions.obj
 0001:000bb380       ??0CFileSystem@@QAE@XZ     100bc380 f   filesystem.obj
 0001:000bb3e0       ??1CFileSystem@@UAE@XZ     100bc3e0 f   filesystem.obj
 0001:000bb440       ??_GCFileSystem@@UAEPAXI@Z 100bc440 f i filesystem.obj
 0001:000bb440       ??_ECFileSystem@@UAEPAXI@Z 100bc440 f i filesystem.obj
 0001:000bb4a0       ?DecryptData@CFileSystem@@QAEXPAEKG@Z 100bc4a0 f   filesystem.obj
 0001:000bb540       ?GetFileData@CFileSystem@@UAEPAEK@Z 100bc540 f   filesystem.obj
 0001:000bb5a0       ?GetFileIndex@CFileSystem@@UAEKPAD@Z 100bc5a0 f   filesystem.obj
 0001:000bb630       ?GetFileSize@CFileSystem@@UAEKK@Z 100bc630 f   filesystem.obj
 0001:000bb690       ?Load@CFileSystem@@UAE_NPAD@Z 100bc690 f   filesystem.obj
 0001:000bb930       ?Unload@CFileSystem@@UAEXXZ 100bc930 f   filesystem.obj
 0001:000bba00       ??0CFontRender@@QAE@PAUIDirect3DDevice9@@@Z 100bca00 f   fontrender.obj
 0001:000bba60       ??1CFontRender@@QAE@XZ     100bca60 f   fontrender.obj
 0001:000bbad0       ?CreateFonts@CFontRender@@QAEXXZ 100bcad0 f   fontrender.obj
 0001:000bbbc0       ?DeleteDeviceObjects@CFontRender@@QAEXXZ 100bcbc0 f   fontrender.obj
 0001:000bbc20       ?MeasureText@CFontRender@@QAE?AUtagSIZE@@PAD@Z 100bcc20 f   fontrender.obj
 0001:000bbd00       ?RenderText@CFontRender@@QAEXPADUtagRECT@@K@Z 100bcd00 f   fontrender.obj
 0001:000bbdc0       ?RestoreDeviceObjects@CFontRender@@QAEXXZ 100bcdc0 f   fontrender.obj
 0001:000bbe20       ??0CHelpDialog@@QAE@PAUIDirect3DDevice9@@@Z 100bce20 f   helpdialog.obj
 0001:000bbe60       ?Draw@CHelpDialog@@QAEXXZ  100bce60 f   helpdialog.obj
 0001:000bc190       ??0CLabel@@QAE@PAUIDirect3DDevice9@@PAD_N@Z 100bd190 f   label.obj
 0001:000bc220       ??0D3DXMATRIX@@QAE@XZ      100bd220 f i label.obj
 0001:000bc250       ??0D3DXVECTOR3@@QAE@XZ     100bd250 f i label.obj
 0001:000bc280       ??1CLabel@@QAE@XZ          100bd280 f   label.obj
 0001:000bc2c0       ?D3DXMatrixIdentity@@YAPAUD3DXMATRIX@@PAU1@@Z 100bd2c0 f i label.obj
 0001:000bc4e0       ?DeleteDeviceObjects@CLabel@@QAEXXZ 100bd4e0 f   label.obj
 0001:000bc550       ?Draw@CLabel@@QAEXPAUD3DXVECTOR3@@PADK@Z 100bd550 f   label.obj
 0001:000bc760       ?RestoreDeviceObjects@CLabel@@QAEXXZ 100bd760 f   label.obj
 0001:000bc800       ?MD5Final@@YAXQAEPAUMD5Context@@@Z 100bd800 f   md5.obj
 0001:000bc940       ?MD5Init@@YAXPAUMD5Context@@@Z 100bd940 f   md5.obj
 0001:000bc9e0       ?MD5Transform@@YAXQAKQBK@Z 100bd9e0 f   md5.obj
 0001:000bdac0       ?MD5Update@@YAXPAUMD5Context@@PBEI@Z 100beac0 f   md5.obj
 0001:000bdc60       ??0CNetStats@@QAE@PAUIDirect3DDevice9@@@Z 100bec60 f   netstats.obj
 0001:000bdcf0       ?Draw@CNetStats@@QAEXXZ    100becf0 f   netstats.obj
 0001:000be140       ??0CNewPlayerTags@@QAE@PAUIDirect3DDevice9@@@Z 100bf140 f   newplayertags.obj
 0001:000be1a0       ??1CNewPlayerTags@@QAE@XZ  100bf1a0 f   newplayertags.obj
 0001:000be230       ?Begin@CNewPlayerTags@@QAEXXZ 100bf230 f   newplayertags.obj
 0001:000be2d0       ?DeleteDeviceObjects@CNewPlayerTags@@QAEXXZ 100bf2d0 f   newplayertags.obj
 0001:000be370       ?Draw@CNewPlayerTags@@QAEXPAUD3DXVECTOR3@@PADKMMM@Z 100bf370 f   newplayertags.obj
 0001:000bee10       ?End@CNewPlayerTags@@QAEXXZ 100bfe10 f   newplayertags.obj
 0001:000bee80       ?RestoreDeviceObjects@CNewPlayerTags@@QAEXXZ 100bfe80 f   newplayertags.obj
 0001:000bf670       ??0CPlayerTags@@QAE@PAUIDirect3DDevice9@@@Z 100c0670 f   playertags.obj
 0001:000bf700       ??1CPlayerTags@@QAE@XZ     100c0700 f   playertags.obj
 0001:000bf7d0       ?Begin@CPlayerTags@@QAEXXZ 100c07d0 f   playertags.obj
 0001:000bf870       ?DeleteDeviceObjects@CPlayerTags@@QAEXXZ 100c0870 f   playertags.obj
 0001:000bf940       ?Draw@CPlayerTags@@QAEXPAUD3DXMATRIX@@PADKM@Z 100c0940 f   playertags.obj
 0001:000bfdc0       ?End@CPlayerTags@@QAEXXZ   100c0dc0 f   playertags.obj
 0001:000bfe30       ?InitQuad@CPlayerTags@@QAEXDMMPAUNameTextVertex_s@1@@Z 100c0e30 f i playertags.obj
 0001:000c0080       ?Initialise@NameTextVertex_s@CPlayerTags@@QAEXMMMM@Z 100c1080 f i playertags.obj
 0001:000c00f0       ?RestoreDeviceObjects@CPlayerTags@@QAEXXZ 100c10f0 f   playertags.obj
 0001:000c0950       ??0CScoreBoard@@QAE@PAUIDirect3DDevice9@@H@Z 100c1950 f   scoreboard.obj
 0001:000c0b80       ??1CScoreBoard@@QAE@XZ     100c1b80 f   scoreboard.obj
 0001:000c0c50       ?DeleteDeviceObjects@CScoreBoard@@QAEXXZ 100c1c50 f   scoreboard.obj
 0001:000c0d40       ?Draw@CScoreBoard@@QAEXXZ  100c1d40 f   scoreboard.obj
 0001:000c1c40       ?GetLocalPlayerPing@CPlayerPool@@QAEKXZ 100c2c40 f i scoreboard.obj
 0001:000c1c70       ?GetLocalPlayerScore@CPlayerPool@@QAEHXZ 100c2c70 f i scoreboard.obj
 0001:000c1ca0       ?GetPlayerPing@CPlayerPool@@QAEKE@Z 100c2ca0 f i scoreboard.obj
 0001:000c1cf0       ?GetPlayerScore@CPlayerPool@@QAEHE@Z 100c2cf0 f i scoreboard.obj
 0001:000c1d40       ?RestoreDeviceObjects@CScoreBoard@@QAEXXZ 100c2d40 f   scoreboard.obj
 0001:000c23c0       ?SwapPlayerInfo@@YAXPAU_PLAYER_SCORE_INFO@@0@Z 100c33c0 f   scoreboard.obj
 0001:000c2460       ??0CSpawnScreen@@QAE@PAUIDirect3DDevice9@@@Z 100c3460 f   spawnscreen.obj
 0001:000c24f0       ??0D3DXVECTOR3@@QAE@MMM@Z  100c34f0 f i spawnscreen.obj
 0001:000c2550       ??0_D3DTLVERTEX@@QAE@ABU_D3DVECTOR@@MKMM@Z 100c3550 f i spawnscreen.obj
 0001:000c25e0       ??0_D3DTLVERTEX@@QAE@XZ    100c35e0 f i spawnscreen.obj
 0001:000c2610       ??1CSpawnScreen@@QAE@XZ    100c3610 f   spawnscreen.obj
 0001:000c26f0       ??_GCFontRender@@QAEPAXI@Z 100c36f0 f i spawnscreen.obj
 0001:000c2750       ?DeleteDeviceObjects@CSpawnScreen@@QAEXXZ 100c3750 f   spawnscreen.obj
 0001:000c2850       ?Draw@CSpawnScreen@@QAEXXZ 100c3850 f   spawnscreen.obj
 0001:000c2dd0       ?RestoreDeviceObjects@CSpawnScreen@@QAEXXZ 100c3dd0 f   spawnscreen.obj
 0001:000c33c0       ?SetSpawnText@CSpawnScreen@@QAEXPAD@Z 100c43c0 f   spawnscreen.obj
 0001:000c3470       ??$?8DD@std@@YA_NABV?$allocator@D@0@0@Z 100c4470 f i subclass.obj
 0001:000c34a0       ??$?8V?$allocator@D@std@@V01@@std@@YA_NABU?$_Wrap_alloc@V?$allocator@D@std@@@0@0@Z 100c44a0 f i subclass.obj
 0001:000c3500       ??$?9V?$allocator@D@std@@V01@@std@@YA_NABU?$_Wrap_alloc@V?$allocator@D@std@@@0@0@Z 100c4500 f i subclass.obj
 0001:000c3570       ??$?HDU?$char_traits@D@std@@V?$allocator@D@1@@std@@YA?AV?$basic_string@DU?$char_traits@D@std@@V?$allocator@D@2@@0@ABV10@PBD@Z 100c4570 f i subclass.obj
 0001:000c3690       ??$assign@V?$_String_iterator@V?$_String_val@U?$_Simple_types@D@std@@@std@@@std@@@?$basic_string@DU?$char_traits@D@std@@V?$allocator@D@2@@std@@QAEAAV01@V?$_String_iterator@V?$_String_val@U?$_Simple_types@D@std@@@std@@@1@0@Z 100c4690 f i subclass.obj
 0001:000c3840       ??$forward@V?$basic_string@DU?$char_traits@D@std@@V?$allocator@D@2@@std@@@std@@YA$$QAV?$basic_string@DU?$char_traits@D@std@@V?$allocator@D@2@@0@AAV10@@Z 100c4840 f i subclass.obj
 0001:000c3870       ??0?$_Iterator012@Urandom_access_iterator_tag@std@@DHPBDABDU_Iterator_base12@2@@std@@QAE@ABU01@@Z 100c4870 f i subclass.obj
 0001:000c38c0       ??0?$_Iterator012@Urandom_access_iterator_tag@std@@DHPBDABDU_Iterator_base12@2@@std@@QAE@XZ 100c48c0 f i subclass.obj
 0001:000c3910       ??0?$_String_const_iterator@V?$_String_val@U?$_Simple_types@D@std@@@std@@@std@@QAE@ABV01@@Z 100c4910 f i subclass.obj
 0001:000c3970       ??0?$_String_const_iterator@V?$_String_val@U?$_Simple_types@D@std@@@std@@@std@@QAE@PBDPBU_Container_base12@1@@Z 100c4970 f i subclass.obj
 0001:000c3a10       ??0?$_String_iterator@V?$_String_val@U?$_Simple_types@D@std@@@std@@@std@@QAE@ABV01@@Z 100c4a10 f i subclass.obj
 0001:000c3a60       ??0?$_String_iterator@V?$_String_val@U?$_Simple_types@D@std@@@std@@@std@@QAE@PADPBU_Container_base12@1@@Z 100c4a60 f i subclass.obj
 0001:000c3ab0       ??0?$allocator@D@std@@QAE@ABV01@@Z 100c4ab0 f i subclass.obj
 0001:000c3ae0       ??0?$basic_string@DU?$char_traits@D@std@@V?$allocator@D@2@@std@@QAE@$$QAV01@@Z 100c4ae0 f i subclass.obj
 0001:000c3b60       ??0?$basic_string@DU?$char_traits@D@std@@V?$allocator@D@2@@std@@QAE@ABV01@IIABV?$allocator@D@1@@Z 100c4b60 f i subclass.obj
 0001:000c3c00       ??0?$basic_string@DU?$char_traits@D@std@@V?$allocator@D@2@@std@@QAE@XZ 100c4c00 f i subclass.obj
 0001:000c3ca0       ??0_Iterator_base12@std@@QAE@ABU01@@Z 100c4ca0 f i subclass.obj
 0001:000c3d00       ??0_Iterator_base12@std@@QAE@XZ 100c4d00 f i subclass.obj
 0001:000c3d40       ??0id@locale@std@@QAE@I@Z  100c4d40 f i subclass.obj
 0001:000c3d80       ??1?$_Iterator012@Urandom_access_iterator_tag@std@@DHPBDABDU_Iterator_base12@2@@std@@QAE@XZ 100c4d80 f i subclass.obj
 0001:000c3dc0       ??1?$_String_const_iterator@V?$_String_val@U?$_Simple_types@D@std@@@std@@@std@@QAE@XZ 100c4dc0 f i subclass.obj
 0001:000c3e00       ??1?$_String_iterator@V?$_String_val@U?$_Simple_types@D@std@@@std@@@std@@QAE@XZ 100c4e00 f i subclass.obj
 0001:000c3e40       ??1?$basic_string@DU?$char_traits@D@std@@V?$allocator@D@2@@std@@QAE@XZ 100c4e40 f i subclass.obj
 0001:000c3e90       ??1_Iterator_base12@std@@QAE@XZ 100c4e90 f i subclass.obj
 0001:000c3f10       ??4?$basic_string@DU?$char_traits@D@std@@V?$allocator@D@2@@std@@QAEAAV01@$$QAV01@@Z 100c4f10 f i subclass.obj
 0001:000c4000       ??4?$basic_string@DU?$char_traits@D@std@@V?$allocator@D@2@@std@@QAEAAV01@PBD@Z 100c5000 f i subclass.obj
 0001:000c4050       ??4_Iterator_base12@std@@QAEAAU01@ABU01@@Z 100c5050 f i subclass.obj
 0001:000c4140       ??8?$_String_const_iterator@V?$_String_val@U?$_Simple_types@D@std@@@std@@@std@@QBE_NABV01@@Z 100c5140 f i subclass.obj
 0001:000c41b0       ??D?$_String_const_iterator@V?$_String_val@U?$_Simple_types@D@std@@@std@@@std@@QBEABDXZ 100c51b0 f i subclass.obj
 0001:000c42a0       ??D?$_String_iterator@V?$_String_val@U?$_Simple_types@D@std@@@std@@@std@@QBEAADXZ 100c52a0 f i subclass.obj
 0001:000c42e0       ??G?$_String_const_iterator@V?$_String_val@U?$_Simple_types@D@std@@@std@@@std@@QBEHABV01@@Z 100c52e0 f i subclass.obj
 0001:000c4340       ??G?$_String_iterator@V?$_String_val@U?$_Simple_types@D@std@@@std@@@std@@QBEHABV?$_String_const_iterator@V?$_String_val@U?$_Simple_types@D@std@@@std@@@1@@Z 100c5340 f i subclass.obj
 0001:000c4400       ??Y?$basic_string@DU?$char_traits@D@std@@V?$allocator@D@2@@std@@QAEAAV01@ABV01@@Z 100c5400 f i subclass.obj
 0001:000c4450       ??Y?$basic_string@DU?$char_traits@D@std@@V?$allocator@D@2@@std@@QAEAAV01@PBD@Z 100c5450 f i subclass.obj
 0001:000c44a0       ?CycleMode@CChatWindow@@QAEXXZ 100c54a0 f i subclass.obj
 0001:000c4510       ?GetScreenshotFileName@@YAXAAV?$basic_string@DU?$char_traits@D@std@@V?$allocator@D@2@@std@@@Z 100c5510 f   subclass.obj
 0001:000c4740       ?HandleCharacterInput@@YAHK@Z 100c5740 f   subclass.obj
 0001:000c47f0       ?HandleKeyPress@@YAHK@Z    100c57f0 f   subclass.obj
 0001:000c4bd0       ?NewWndProc@@YGJPAUHWND__@@IIJ@Z 100c5bd0 f   subclass.obj
 0001:000c4ce0       ?SubclassGameWindow@@YAHXZ 100c5ce0 f   subclass.obj
 0001:000c4d80       ?SwitchWindowedMode@@YAXXZ 100c5d80 f   subclass.obj
 0001:000c4eb0       ?ToggleEnabled@CDeathWindow@@QAEXXZ 100c5eb0 f i subclass.obj
 0001:000c4f00       ?_Adopt@_Iterator_base12@std@@QAEXPBU_Container_base12@2@@Z 100c5f00 f i subclass.obj
 0001:000c5030       ?_Assign_rv@?$basic_string@DU?$char_traits@D@std@@V?$allocator@D@2@@std@@QAEX$$QAV12@@Z 100c6030 f i subclass.obj
 0001:000c50f0       ?_Change_alloc@?$_String_alloc@$0A@U?$_String_base_types@DV?$allocator@D@std@@@std@@@std@@QAEXABU?$_Wrap_alloc@V?$allocator@D@std@@@2@@Z 100c60f0 f i subclass.obj
 0001:000c5120       ?_Compat@?$_String_const_iterator@V?$_String_val@U?$_Simple_types@D@std@@@std@@@std@@QBEXABV12@@Z 100c6120 f i subclass.obj
 0001:000c51f0       ?_Getcont@_Iterator_base12@std@@QBEPBU_Container_base12@2@XZ 100c61f0 f i subclass.obj
 0001:000c5250       ?_Orphan_me@_Iterator_base12@std@@QAEXXZ 100c6250 f i subclass.obj
 0001:000c52f0       ?_Pdif@?$basic_string@DU?$char_traits@D@std@@V?$allocator@D@2@@std@@SAIV?$_String_const_iterator@V?$_String_val@U?$_Simple_types@D@std@@@std@@@2@0@Z 100c62f0 f i subclass.obj
 0001:000c53b0       ?append@?$basic_string@DU?$char_traits@D@std@@V?$allocator@D@2@@std@@QAEAAV12@ABV12@@Z 100c63b0 f i subclass.obj
 0001:000c5400       ?append@?$basic_string@DU?$char_traits@D@std@@V?$allocator@D@2@@std@@QAEAAV12@ABV12@II@Z 100c6400 f i subclass.obj
 0001:000c54e0       ?append@?$basic_string@DU?$char_traits@D@std@@V?$allocator@D@2@@std@@QAEAAV12@PBD@Z 100c64e0 f i subclass.obj
 0001:000c5550       ?append@?$basic_string@DU?$char_traits@D@std@@V?$allocator@D@2@@std@@QAEAAV12@PBDI@Z 100c6550 f i subclass.obj
 0001:000c5650       ?begin@?$basic_string@DU?$char_traits@D@std@@V?$allocator@D@2@@std@@QAE?AV?$_String_iterator@V?$_String_val@U?$_Simple_types@D@std@@@std@@@2@XZ 100c6650 f i subclass.obj
 0001:000c56b0       ?c_str@?$basic_string@DU?$char_traits@D@std@@V?$allocator@D@2@@std@@QBEPBDXZ 100c66b0 f i subclass.obj
 0001:000c56f0       ?data@?$basic_string@DU?$char_traits@D@std@@V?$allocator@D@2@@std@@QBEPBDXZ 100c66f0 f i subclass.obj
 0001:000c5730       ?end@?$basic_string@DU?$char_traits@D@std@@V?$allocator@D@2@@std@@QAE?AV?$_String_iterator@V?$_String_val@U?$_Simple_types@D@std@@@std@@@2@XZ 100c6730 f i subclass.obj
 0001:000c5790       ?find@?$char_traits@D@std@@SAPBDPBDIABD@Z 100c6790 f i subclass.obj
 0001:000c5800       ?find_last_of@?$basic_string@DU?$char_traits@D@std@@V?$allocator@D@2@@std@@QBEIPBDI@Z 100c6800 f i subclass.obj
 0001:000c5870       ?find_last_of@?$basic_string@DU?$char_traits@D@std@@V?$allocator@D@2@@std@@QBEIPBDII@Z 100c6870 f i subclass.obj
 0001:000c5960       ?get_allocator@?$basic_string@DU?$char_traits@D@std@@V?$allocator@D@2@@std@@QBE?AV?$allocator@D@2@XZ 100c6960 f i subclass.obj
 0001:000c59c0       ?replace@?$basic_string@DU?$char_traits@D@std@@V?$allocator@D@2@@std@@QAEAAV12@IIABV12@II@Z 100c69c0 f i subclass.obj
 0001:000c5ca0       ?replace@?$basic_string@DU?$char_traits@D@std@@V?$allocator@D@2@@std@@QAEAAV12@IIPBDI@Z 100c6ca0 f i subclass.obj
 0001:000c5e50       ?replace@?$basic_string@DU?$char_traits@D@std@@V?$allocator@D@2@@std@@QAEAAV12@V?$_String_const_iterator@V?$_String_val@U?$_Simple_types@D@std@@@std@@@2@0V?$_String_iterator@V?$_String_val@U?$_Simple_types@D@std@@@std@@@2@1@Z 100c6e50 f i subclass.obj
 0001:000c6120       ?reserve@?$basic_string@DU?$char_traits@D@std@@V?$allocator@D@2@@std@@QAEXI@Z 100c7120 f i subclass.obj
 0001:000c61a0       ?substr@?$basic_string@DU?$char_traits@D@std@@V?$allocator@D@2@@std@@QBE?AV12@II@Z 100c71a0 f i subclass.obj
 0001:000c6220       ??0CSvrNetStats@@QAE@PAUIDirect3DDevice9@@@Z 100c7220 f   svrnetstats.obj
 0001:000c62c0       ?Draw@CSvrNetStats@@QAEXXZ 100c72c0 f   svrnetstats.obj
 0001:000c66f0       ?CheckFileHash@@YAXHPAX@Z  100c76f0 f   filechecks.obj
 0001:000c6950       ?GetFileNameHash@@YAHPAD@Z 100c7950 f   filechecks.obj
 0001:000c6a30       ?IsCheckableFile@@YAHPAD@Z 100c7a30 f   filechecks.obj
 0001:000c6b10       ?Arch_CloseHandle@@YGHPAX@Z 100c7b10 f   filehooks.obj
 0001:000c6ba0       ?Arch_CreateFileA@@YGPAXPBDKKPAU_SECURITY_ATTRIBUTES@@KKPAX@Z 100c7ba0 f   filehooks.obj
 0001:000c6ca0       ?Arch_CreateFileW@@YGPAXPAGKKPAU_SECURITY_ATTRIBUTES@@KKPAX@Z 100c7ca0 f   filehooks.obj
 0001:000c6d50       ?Arch_GetAsyncKeyState@@YGFH@Z 100c7d50 f   filehooks.obj
 0001:000c6dd0       ?Arch_GetFileSize@@YGKPAXPAK@Z 100c7dd0 f   filehooks.obj
 0001:000c6e60       ?Arch_GetFileType@@YGKPAX@Z 100c7e60 f   filehooks.obj
 0001:000c6ee0       ?Arch_GetModuleHandleA@@YGPAUHINSTANCE__@@PBD@Z 100c7ee0 f   filehooks.obj
 0001:000c6f60       ?Arch_ReadFile@@YGHPAX0KPAKPAU_OVERLAPPED@@@Z 100c7f60 f   filehooks.obj
 0001:000c71c0       ?Arch_SetFilePointer@@YGKPAXJPAJK@Z 100c81c0 f   filehooks.obj
 0001:000c72f0       ?CreateArchRecord@@YAPAXK@Z 100c82f0 f   filehooks.obj
 0001:000c73f0       ?ExtensionOnly@@YAPADPAD@Z 100c83f0 f   filehooks.obj
 0001:000c7490       ?FileNameOnly@@YAPADPAD@Z  100c8490 f   filehooks.obj
 0001:000c7540       ?FindArchRecordIndexFromHandle@@YAHPAX@Z 100c8540 f   filehooks.obj
 0001:000c75b0       ?FindUnusedArchRecordIndex@@YAHXZ 100c85b0 f   filehooks.obj
 0001:000c7610       ?InstallFileSystemHooks@@YAXXZ 100c8610 f   filehooks.obj
 0001:000c7af0       ?IsCustomFileHandle@@YAHK@Z 100c8af0 f   filehooks.obj
 0001:000c7b30       ?UninstallFileSystemHooks@@YAXXZ 100c8b30 f   filehooks.obj
 0001:000c7bf0       ?strtolower@@YAPADPAD@Z    100c8bf0 f   filehooks.obj
 0001:000c7c60       ??$Write@M@BitStream@RakNet@@QAEXM@Z 100c8c60 f i IDirect3DDevice9Hook.obj
 0001:000c7cc0       ??0D3DXMATRIX@@QAE@ABU_D3DMATRIX@@@Z 100c8cc0 f i IDirect3DDevice9Hook.obj
 0001:000c7d10       ?AddRef@IDirect3DDevice9Hook@@UAGKXZ 100c8d10 f   IDirect3DDevice9Hook.obj
 0001:000c7d60       ?BeginScene@IDirect3DDevice9Hook@@UAGJXZ 100c8d60 f   IDirect3DDevice9Hook.obj
 0001:000c7e10       ?BeginStateBlock@IDirect3DDevice9Hook@@UAGJXZ 100c8e10 f   IDirect3DDevice9Hook.obj
 0001:000c7e70       ?Clear@IDirect3DDevice9Hook@@UAGJKPBU_D3DRECT@@KKMK@Z 100c8e70 f   IDirect3DDevice9Hook.obj
 0001:000c7ef0       ?ColorFill@IDirect3DDevice9Hook@@UAGJPAUIDirect3DSurface9@@PBUtagRECT@@K@Z 100c8ef0 f   IDirect3DDevice9Hook.obj
 0001:000c7f50       ?CreateAdditionalSwapChain@IDirect3DDevice9Hook@@UAGJPAU_D3DPRESENT_PARAMETERS_@@PAPAUIDirect3DSwapChain9@@@Z 100c8f50 f   IDirect3DDevice9Hook.obj
 0001:000c7fb0       ?CreateCubeTexture@IDirect3DDevice9Hook@@UAGJIIKW4_D3DFORMAT@@W4_D3DPOOL@@PAPAUIDirect3DCubeTexture9@@PAPAX@Z 100c8fb0 f   IDirect3DDevice9Hook.obj
 0001:000c8020       ?CreateDepthStencilSurface@IDirect3DDevice9Hook@@UAGJIIW4_D3DFORMAT@@W4_D3DMULTISAMPLE_TYPE@@KHPAPAUIDirect3DSurface9@@PAPAX@Z 100c9020 f   IDirect3DDevice9Hook.obj
 0001:000c80a0       ?CreateIndexBuffer@IDirect3DDevice9Hook@@UAGJIKW4_D3DFORMAT@@W4_D3DPOOL@@PAPAUIDirect3DIndexBuffer9@@PAPAX@Z 100c90a0 f   IDirect3DDevice9Hook.obj
 0001:000c8110       ?CreateOffscreenPlainSurface@IDirect3DDevice9Hook@@UAGJIIW4_D3DFORMAT@@W4_D3DPOOL@@PAPAUIDirect3DSurface9@@PAPAX@Z 100c9110 f   IDirect3DDevice9Hook.obj
 0001:000c8180       ?CreatePixelShader@IDirect3DDevice9Hook@@UAGJPBKPAPAUIDirect3DPixelShader9@@@Z 100c9180 f   IDirect3DDevice9Hook.obj
 0001:000c81e0       ?CreateQuery@IDirect3DDevice9Hook@@UAGJW4_D3DQUERYTYPE@@PAPAUIDirect3DQuery9@@@Z 100c91e0 f   IDirect3DDevice9Hook.obj
 0001:000c8240       ?CreateRenderTarget@IDirect3DDevice9Hook@@UAGJIIW4_D3DFORMAT@@W4_D3DMULTISAMPLE_TYPE@@KHPAPAUIDirect3DSurface9@@PAPAX@Z 100c9240 f   IDirect3DDevice9Hook.obj
 0001:000c82c0       ?CreateStateBlock@IDirect3DDevice9Hook@@UAGJW4_D3DSTATEBLOCKTYPE@@PAPAUIDirect3DStateBlock9@@@Z 100c92c0 f   IDirect3DDevice9Hook.obj
 0001:000c8320       ?CreateTexture@IDirect3DDevice9Hook@@UAGJIIIKW4_D3DFORMAT@@W4_D3DPOOL@@PAPAUIDirect3DTexture9@@PAPAX@Z 100c9320 f   IDirect3DDevice9Hook.obj
 0001:000c83a0       ?CreateVertexBuffer@IDirect3DDevice9Hook@@UAGJIKKW4_D3DPOOL@@PAPAUIDirect3DVertexBuffer9@@PAPAX@Z 100c93a0 f   IDirect3DDevice9Hook.obj
 0001:000c8410       ?CreateVertexDeclaration@IDirect3DDevice9Hook@@UAGJPBU_D3DVERTEXELEMENT9@@PAPAUIDirect3DVertexDeclaration9@@@Z 100c9410 f   IDirect3DDevice9Hook.obj
 0001:000c8470       ?CreateVertexShader@IDirect3DDevice9Hook@@UAGJPBKPAPAUIDirect3DVertexShader9@@@Z 100c9470 f   IDirect3DDevice9Hook.obj
 0001:000c84d0       ?CreateVolumeTexture@IDirect3DDevice9Hook@@UAGJIIIIKW4_D3DFORMAT@@W4_D3DPOOL@@PAPAUIDirect3DVolumeTexture9@@PAPAX@Z 100c94d0 f   IDirect3DDevice9Hook.obj
 0001:000c8550       ?DeletePatch@IDirect3DDevice9Hook@@UAGJI@Z 100c9550 f   IDirect3DDevice9Hook.obj
 0001:000c85b0       ?DrawIndexedPrimitive@IDirect3DDevice9Hook@@UAGJW4_D3DPRIMITIVETYPE@@HIIII@Z 100c95b0 f   IDirect3DDevice9Hook.obj
 0001:000c8620       ?DrawIndexedPrimitiveUP@IDirect3DDevice9Hook@@UAGJW4_D3DPRIMITIVETYPE@@IIIPBXW4_D3DFORMAT@@1I@Z 100c9620 f   IDirect3DDevice9Hook.obj
 0001:000c86a0       ?DrawPrimitive@IDirect3DDevice9Hook@@UAGJW4_D3DPRIMITIVETYPE@@II@Z 100c96a0 f   IDirect3DDevice9Hook.obj
 0001:000c8700       ?DrawPrimitiveUP@IDirect3DDevice9Hook@@UAGJW4_D3DPRIMITIVETYPE@@IPBXI@Z 100c9700 f   IDirect3DDevice9Hook.obj
 0001:000c8770       ?DrawRectPatch@IDirect3DDevice9Hook@@UAGJIPBMPBU_D3DRECTPATCH_INFO@@@Z 100c9770 f   IDirect3DDevice9Hook.obj
 0001:000c87d0       ?DrawTriPatch@IDirect3DDevice9Hook@@UAGJIPBMPBU_D3DTRIPATCH_INFO@@@Z 100c97d0 f   IDirect3DDevice9Hook.obj
 0001:000c8830       ?EndScene@IDirect3DDevice9Hook@@UAGJXZ 100c9830 f   IDirect3DDevice9Hook.obj
 0001:000c88e0       ?EndStateBlock@IDirect3DDevice9Hook@@UAGJPAPAUIDirect3DStateBlock9@@@Z 100c98e0 f   IDirect3DDevice9Hook.obj
 0001:000c8940       ?EvictManagedResources@IDirect3DDevice9Hook@@UAGJXZ 100c9940 f   IDirect3DDevice9Hook.obj
 0001:000c8990       ?GetAvailableTextureMem@IDirect3DDevice9Hook@@UAGIXZ 100c9990 f   IDirect3DDevice9Hook.obj
 0001:000c89e0       ?GetBackBuffer@IDirect3DDevice9Hook@@UAGJIIW4_D3DBACKBUFFER_TYPE@@PAPAUIDirect3DSurface9@@@Z 100c99e0 f   IDirect3DDevice9Hook.obj
 0001:000c8a40       ?GetClipPlane@IDirect3DDevice9Hook@@UAGJKPAM@Z 100c9a40 f   IDirect3DDevice9Hook.obj
 0001:000c8aa0       ?GetClipStatus@IDirect3DDevice9Hook@@UAGJPAU_D3DCLIPSTATUS9@@@Z 100c9aa0 f   IDirect3DDevice9Hook.obj
 0001:000c8b00       ?GetCreationParameters@IDirect3DDevice9Hook@@UAGJPAU_D3DDEVICE_CREATION_PARAMETERS@@@Z 100c9b00 f   IDirect3DDevice9Hook.obj
 0001:000c8b60       ?GetCurrentTexturePalette@IDirect3DDevice9Hook@@UAGJPAI@Z 100c9b60 f   IDirect3DDevice9Hook.obj
 0001:000c8bc0       ?GetDepthStencilSurface@IDirect3DDevice9Hook@@UAGJPAPAUIDirect3DSurface9@@@Z 100c9bc0 f   IDirect3DDevice9Hook.obj
 0001:000c8c20       ?GetDeviceCaps@IDirect3DDevice9Hook@@UAGJPAU_D3DCAPS9@@@Z 100c9c20 f   IDirect3DDevice9Hook.obj
 0001:000c8c80       ?GetDirect3D@IDirect3DDevice9Hook@@UAGJPAPAUIDirect3D9@@@Z 100c9c80 f   IDirect3DDevice9Hook.obj
 0001:000c8ce0       ?GetDisplayMode@IDirect3DDevice9Hook@@UAGJIPAU_D3DDISPLAYMODE@@@Z 100c9ce0 f   IDirect3DDevice9Hook.obj
 0001:000c8d40       ?GetFVF@IDirect3DDevice9Hook@@UAGJPAK@Z 100c9d40 f   IDirect3DDevice9Hook.obj
 0001:000c8da0       ?GetFrontBufferData@IDirect3DDevice9Hook@@UAGJIPAUIDirect3DSurface9@@@Z 100c9da0 f   IDirect3DDevice9Hook.obj
 0001:000c8e00       ?GetGammaRamp@IDirect3DDevice9Hook@@UAGXIPAU_D3DGAMMARAMP@@@Z 100c9e00 f   IDirect3DDevice9Hook.obj
 0001:000c8e60       ?GetIndices@IDirect3DDevice9Hook@@UAGJPAPAUIDirect3DIndexBuffer9@@@Z 100c9e60 f   IDirect3DDevice9Hook.obj
 0001:000c8ec0       ?GetLight@IDirect3DDevice9Hook@@UAGJKPAU_D3DLIGHT9@@@Z 100c9ec0 f   IDirect3DDevice9Hook.obj
 0001:000c8f20       ?GetLightEnable@IDirect3DDevice9Hook@@UAGJKPAH@Z 100c9f20 f   IDirect3DDevice9Hook.obj
 0001:000c8f80       ?GetMaterial@IDirect3DDevice9Hook@@UAGJPAU_D3DMATERIAL9@@@Z 100c9f80 f   IDirect3DDevice9Hook.obj
 0001:000c8fe0       ?GetNPatchMode@IDirect3DDevice9Hook@@UAGMXZ 100c9fe0 f   IDirect3DDevice9Hook.obj
 0001:000c9040       ?GetNumberOfSwapChains@IDirect3DDevice9Hook@@UAGIXZ 100ca040 f   IDirect3DDevice9Hook.obj
 0001:000c9090       ?GetPaletteEntries@IDirect3DDevice9Hook@@UAGJIPAUtagPALETTEENTRY@@@Z 100ca090 f   IDirect3DDevice9Hook.obj
 0001:000c90f0       ?GetPixelShader@IDirect3DDevice9Hook@@UAGJPAPAUIDirect3DPixelShader9@@@Z 100ca0f0 f   IDirect3DDevice9Hook.obj
 0001:000c9150       ?GetPixelShaderConstantB@IDirect3DDevice9Hook@@UAGJIPAHI@Z 100ca150 f   IDirect3DDevice9Hook.obj
 0001:000c91b0       ?GetPixelShaderConstantF@IDirect3DDevice9Hook@@UAGJIPAMI@Z 100ca1b0 f   IDirect3DDevice9Hook.obj
 0001:000c9210       ?GetPixelShaderConstantI@IDirect3DDevice9Hook@@UAGJIPAHI@Z 100ca210 f   IDirect3DDevice9Hook.obj
 0001:000c9270       ?GetRasterStatus@IDirect3DDevice9Hook@@UAGJIPAU_D3DRASTER_STATUS@@@Z 100ca270 f   IDirect3DDevice9Hook.obj
 0001:000c92d0       ?GetRenderState@IDirect3DDevice9Hook@@UAGJW4_D3DRENDERSTATETYPE@@PAK@Z 100ca2d0 f   IDirect3DDevice9Hook.obj
 0001:000c9330       ?GetRenderTarget@IDirect3DDevice9Hook@@UAGJKPAPAUIDirect3DSurface9@@@Z 100ca330 f   IDirect3DDevice9Hook.obj
 0001:000c9390       ?GetRenderTargetData@IDirect3DDevice9Hook@@UAGJPAUIDirect3DSurface9@@0@Z 100ca390 f   IDirect3DDevice9Hook.obj
 0001:000c93f0       ?GetReportedArmour@CRemotePlayer@@QAEMXZ 100ca3f0 f i IDirect3DDevice9Hook.obj
 0001:000c9430       ?GetReportedHealth@CRemotePlayer@@QAEMXZ 100ca430 f i IDirect3DDevice9Hook.obj
 0001:000c9470       ?GetSamplerState@IDirect3DDevice9Hook@@UAGJKW4_D3DSAMPLERSTATETYPE@@PAK@Z 100ca470 f   IDirect3DDevice9Hook.obj
 0001:000c94d0       ?GetScissorRect@IDirect3DDevice9Hook@@UAGJPAUtagRECT@@@Z 100ca4d0 f   IDirect3DDevice9Hook.obj
 0001:000c9530       ?GetSoftwareVertexProcessing@IDirect3DDevice9Hook@@UAGHXZ 100ca530 f   IDirect3DDevice9Hook.obj
 0001:000c9590       ?GetStreamSource@IDirect3DDevice9Hook@@UAGJIPAPAUIDirect3DVertexBuffer9@@PAI1@Z 100ca590 f   IDirect3DDevice9Hook.obj
 0001:000c9600       ?GetStreamSourceFreq@IDirect3DDevice9Hook@@UAGJIPAI@Z 100ca600 f   IDirect3DDevice9Hook.obj
 0001:000c9660       ?GetSwapChain@IDirect3DDevice9Hook@@UAGJIPAPAUIDirect3DSwapChain9@@@Z 100ca660 f   IDirect3DDevice9Hook.obj
 0001:000c96c0       ?GetTexture@IDirect3DDevice9Hook@@UAGJKPAPAUIDirect3DBaseTexture9@@@Z 100ca6c0 f   IDirect3DDevice9Hook.obj
 0001:000c9720       ?GetTextureStageState@IDirect3DDevice9Hook@@UAGJKW4_D3DTEXTURESTAGESTATETYPE@@PAK@Z 100ca720 f   IDirect3DDevice9Hook.obj
 0001:000c9780       ?GetTransform@IDirect3DDevice9Hook@@UAGJW4_D3DTRANSFORMSTATETYPE@@PAU_D3DMATRIX@@@Z 100ca780 f   IDirect3DDevice9Hook.obj
 0001:000c97e0       ?GetVehicleVirtualWorld@CVehiclePool@@QAEEG@Z 100ca7e0 f i IDirect3DDevice9Hook.obj
 0001:000c9830       ?GetVertexDeclaration@IDirect3DDevice9Hook@@UAGJPAPAUIDirect3DVertexDeclaration9@@@Z 100ca830 f   IDirect3DDevice9Hook.obj
 0001:000c9890       ?GetVertexShader@IDirect3DDevice9Hook@@UAGJPAPAUIDirect3DVertexShader9@@@Z 100ca890 f   IDirect3DDevice9Hook.obj
 0001:000c98f0       ?GetVertexShaderConstantB@IDirect3DDevice9Hook@@UAGJIPAHI@Z 100ca8f0 f   IDirect3DDevice9Hook.obj
 0001:000c9950       ?GetVertexShaderConstantF@IDirect3DDevice9Hook@@UAGJIPAMI@Z 100ca950 f   IDirect3DDevice9Hook.obj
 0001:000c99b0       ?GetVertexShaderConstantI@IDirect3DDevice9Hook@@UAGJIPAHI@Z 100ca9b0 f   IDirect3DDevice9Hook.obj
 0001:000c9a10       ?GetViewport@IDirect3DDevice9Hook@@UAGJPAU_D3DVIEWPORT9@@@Z 100caa10 f   IDirect3DDevice9Hook.obj
 0001:000c9a70       ?LightEnable@IDirect3DDevice9Hook@@UAGJKH@Z 100caa70 f   IDirect3DDevice9Hook.obj
 0001:000c9ad0       ?MultiplyTransform@IDirect3DDevice9Hook@@UAGJW4_D3DTRANSFORMSTATETYPE@@PBU_D3DMATRIX@@@Z 100caad0 f   IDirect3DDevice9Hook.obj
 0001:000c9b30       ?Present@IDirect3DDevice9Hook@@UAGJPBUtagRECT@@0PAUHWND__@@PBU_RGNDATA@@@Z 100cab30 f   IDirect3DDevice9Hook.obj
 0001:000ca600       ?ProcessVertices@IDirect3DDevice9Hook@@UAGJIIIPAUIDirect3DVertexBuffer9@@PAUIDirect3DVertexDeclaration9@@K@Z 100cb600 f   IDirect3DDevice9Hook.obj
 0001:000ca670       ?QueryInterface@IDirect3DDevice9Hook@@UAGJABU_GUID@@PAPAX@Z 100cb670 f   IDirect3DDevice9Hook.obj
 0001:000ca6d0       ?Release@IDirect3DDevice9Hook@@UAGKXZ 100cb6d0 f   IDirect3DDevice9Hook.obj
 0001:000ca720       ?RenderPlayerTags@@YGXXZ   100cb720 f   IDirect3DDevice9Hook.obj
 0001:000ca9a0       ?Reset@IDirect3DDevice9Hook@@UAGJPAU_D3DPRESENT_PARAMETERS_@@@Z 100cb9a0 f   IDirect3DDevice9Hook.obj
 0001:000caa10       ?SetClipPlane@IDirect3DDevice9Hook@@UAGJKPBM@Z 100cba10 f   IDirect3DDevice9Hook.obj
 0001:000caa70       ?SetClipStatus@IDirect3DDevice9Hook@@UAGJPBU_D3DCLIPSTATUS9@@@Z 100cba70 f   IDirect3DDevice9Hook.obj
 0001:000caad0       ?SetCurrentTexturePalette@IDirect3DDevice9Hook@@UAGJI@Z 100cbad0 f   IDirect3DDevice9Hook.obj
 0001:000cab30       ?SetCursorPosition@IDirect3DDevice9Hook@@UAGXHHK@Z 100cbb30 f   IDirect3DDevice9Hook.obj
 0001:000cab90       ?SetCursorProperties@IDirect3DDevice9Hook@@UAGJIIPAUIDirect3DSurface9@@@Z 100cbb90 f   IDirect3DDevice9Hook.obj
 0001:000cabf0       ?SetDepthStencilSurface@IDirect3DDevice9Hook@@UAGJPAUIDirect3DSurface9@@@Z 100cbbf0 f   IDirect3DDevice9Hook.obj
 0001:000cac50       ?SetDialogBoxMode@IDirect3DDevice9Hook@@UAGJH@Z 100cbc50 f   IDirect3DDevice9Hook.obj
 0001:000cacb0       ?SetFVF@IDirect3DDevice9Hook@@UAGJK@Z 100cbcb0 f   IDirect3DDevice9Hook.obj
 0001:000cad10       ?SetGammaRamp@IDirect3DDevice9Hook@@UAGXIKPBU_D3DGAMMARAMP@@@Z 100cbd10 f   IDirect3DDevice9Hook.obj
 0001:000cad70       ?SetIndices@IDirect3DDevice9Hook@@UAGJPAUIDirect3DIndexBuffer9@@@Z 100cbd70 f   IDirect3DDevice9Hook.obj
 0001:000cadd0       ?SetLight@IDirect3DDevice9Hook@@UAGJKPBU_D3DLIGHT9@@@Z 100cbdd0 f   IDirect3DDevice9Hook.obj
 0001:000cae30       ?SetMaterial@IDirect3DDevice9Hook@@UAGJPBU_D3DMATERIAL9@@@Z 100cbe30 f   IDirect3DDevice9Hook.obj
 0001:000cae90       ?SetNPatchMode@IDirect3DDevice9Hook@@UAGJM@Z 100cbe90 f   IDirect3DDevice9Hook.obj
 0001:000caef0       ?SetPaletteEntries@IDirect3DDevice9Hook@@UAGJIPBUtagPALETTEENTRY@@@Z 100cbef0 f   IDirect3DDevice9Hook.obj
 0001:000caf50       ?SetPixelShader@IDirect3DDevice9Hook@@UAGJPAUIDirect3DPixelShader9@@@Z 100cbf50 f   IDirect3DDevice9Hook.obj
 0001:000cafb0       ?SetPixelShaderConstantB@IDirect3DDevice9Hook@@UAGJIPBHI@Z 100cbfb0 f   IDirect3DDevice9Hook.obj
 0001:000cb010       ?SetPixelShaderConstantF@IDirect3DDevice9Hook@@UAGJIPBMI@Z 100cc010 f   IDirect3DDevice9Hook.obj
 0001:000cb070       ?SetPixelShaderConstantI@IDirect3DDevice9Hook@@UAGJIPBHI@Z 100cc070 f   IDirect3DDevice9Hook.obj
 0001:000cb0d0       ?SetRenderState@IDirect3DDevice9Hook@@UAGJW4_D3DRENDERSTATETYPE@@K@Z 100cc0d0 f   IDirect3DDevice9Hook.obj
 0001:000cb130       ?SetRenderTarget@IDirect3DDevice9Hook@@UAGJKPAUIDirect3DSurface9@@@Z 100cc130 f   IDirect3DDevice9Hook.obj
 0001:000cb190       ?SetSamplerState@IDirect3DDevice9Hook@@UAGJKW4_D3DSAMPLERSTATETYPE@@K@Z 100cc190 f   IDirect3DDevice9Hook.obj
 0001:000cb1f0       ?SetScissorRect@IDirect3DDevice9Hook@@UAGJPBUtagRECT@@@Z 100cc1f0 f   IDirect3DDevice9Hook.obj
 0001:000cb250       ?SetSoftwareVertexProcessing@IDirect3DDevice9Hook@@UAGJH@Z 100cc250 f   IDirect3DDevice9Hook.obj
 0001:000cb2b0       ?SetStreamSource@IDirect3DDevice9Hook@@UAGJIPAUIDirect3DVertexBuffer9@@II@Z 100cc2b0 f   IDirect3DDevice9Hook.obj
 0001:000cb320       ?SetStreamSourceFreq@IDirect3DDevice9Hook@@UAGJII@Z 100cc320 f   IDirect3DDevice9Hook.obj
 0001:000cb380       ?SetTexture@IDirect3DDevice9Hook@@UAGJKPAUIDirect3DBaseTexture9@@@Z 100cc380 f   IDirect3DDevice9Hook.obj
 0001:000cb3e0       ?SetTextureStageState@IDirect3DDevice9Hook@@UAGJKW4_D3DTEXTURESTAGESTATETYPE@@K@Z 100cc3e0 f   IDirect3DDevice9Hook.obj
 0001:000cb440       ?SetTransform@IDirect3DDevice9Hook@@UAGJW4_D3DTRANSFORMSTATETYPE@@PBU_D3DMATRIX@@@Z 100cc440 f   IDirect3DDevice9Hook.obj
 0001:000cb570       ?SetVertexDeclaration@IDirect3DDevice9Hook@@UAGJPAUIDirect3DVertexDeclaration9@@@Z 100cc570 f   IDirect3DDevice9Hook.obj
 0001:000cb5d0       ?SetVertexShader@IDirect3DDevice9Hook@@UAGJPAUIDirect3DVertexShader9@@@Z 100cc5d0 f   IDirect3DDevice9Hook.obj
 0001:000cb630       ?SetVertexShaderConstantB@IDirect3DDevice9Hook@@UAGJIPBHI@Z 100cc630 f   IDirect3DDevice9Hook.obj
 0001:000cb690       ?SetVertexShaderConstantF@IDirect3DDevice9Hook@@UAGJIPBMI@Z 100cc690 f   IDirect3DDevice9Hook.obj
 0001:000cb6f0       ?SetVertexShaderConstantI@IDirect3DDevice9Hook@@UAGJIPBHI@Z 100cc6f0 f   IDirect3DDevice9Hook.obj
 0001:000cb750       ?SetViewport@IDirect3DDevice9Hook@@UAGJPBU_D3DVIEWPORT9@@@Z 100cc750 f   IDirect3DDevice9Hook.obj
 0001:000cb7b0       ?ShowCursor@IDirect3DDevice9Hook@@UAGHH@Z 100cc7b0 f   IDirect3DDevice9Hook.obj
 0001:000cb810       ?StretchRect@IDirect3DDevice9Hook@@UAGJPAUIDirect3DSurface9@@PBUtagRECT@@01W4_D3DTEXTUREFILTERTYPE@@@Z 100cc810 f   IDirect3DDevice9Hook.obj
 0001:000cb880       ?TestCooperativeLevel@IDirect3DDevice9Hook@@UAGJXZ 100cc880 f   IDirect3DDevice9Hook.obj
 0001:000cb8d0       ?UpdateSurface@IDirect3DDevice9Hook@@UAGJPAUIDirect3DSurface9@@PBUtagRECT@@0PBUtagPOINT@@@Z 100cc8d0 f   IDirect3DDevice9Hook.obj
 0001:000cb930       ?UpdateTexture@IDirect3DDevice9Hook@@UAGJPAUIDirect3DBaseTexture9@@0@Z 100cc930 f   IDirect3DDevice9Hook.obj
 0001:000cb990       ?ValidateDevice@IDirect3DDevice9Hook@@UAGJPAK@Z 100cc990 f   IDirect3DDevice9Hook.obj
 0001:000cb9f0       ??0_D3DVECTOR@@QAE@MMM@Z   100cc9f0 f i d3dutil.obj
 0001:000cba50       ??0_D3DVECTOR@@QAE@XZ      100cca50 f i d3dutil.obj
 0001:000cba80       ??A_D3DVECTOR@@QAEAAMH@Z   100cca80 f i d3dutil.obj
 0001:000cbac0       ??A_D3DVECTOR@@QBEABMH@Z   100ccac0 f i d3dutil.obj
 0001:000cbb00       ??D@YA?AU_D3DVECTOR@@MABU0@@Z 100ccb00 f i d3dutil.obj
 0001:000cbb80       ??G@YA?AU_D3DVECTOR@@ABU0@0@Z 100ccb80 f i d3dutil.obj
 0001:000cbc00       ??K@YA?AU_D3DVECTOR@@ABU0@M@Z 100ccc00 f i d3dutil.obj
 0001:000cbc80       ??_0_D3DVECTOR@@QAEAAU0@M@Z 100ccc80 f i d3dutil.obj
 0001:000cbcf0       ?CrossProduct@@YA?AU_D3DVECTOR@@ABU1@0@Z 100cccf0 f i d3dutil.obj
 0001:000cbec0       ?D3DUtil_GetDXSDKMediaPath@@YAPBDXZ 100ccec0 f   d3dutil.obj
 0001:000cc060       ?D3DUtil_InitLight@@YAXAAU_D3DLIGHT7@@W4_D3DLIGHTTYPE@@MMM@Z 100cd060 f   d3dutil.obj
 0001:000cc180       ?D3DUtil_InitMaterial@@YAXAAU_D3DMATERIAL7@@MMMM@Z 100cd180 f   d3dutil.obj
 0001:000cc230       ?D3DUtil_InitSurfaceDesc@@YAXAAU_DDSURFACEDESC2@@KK@Z 100cd230 f   d3dutil.obj
 0001:000cc2a0       ?D3DUtil_SetIdentityMatrix@@YAXAAU_D3DMATRIX@@@Z 100cd2a0 f i d3dutil.obj
 0001:000cc3d0       ?D3DUtil_SetProjectionMatrix@@YAJAAU_D3DMATRIX@@MMMM@Z 100cd3d0 f   d3dutil.obj
 0001:000cc5e0       ?D3DUtil_SetRotateXMatrix@@YAXAAU_D3DMATRIX@@M@Z 100cd5e0 f   d3dutil.obj
 0001:000cc6a0       ?D3DUtil_SetRotateYMatrix@@YAXAAU_D3DMATRIX@@M@Z 100cd6a0 f   d3dutil.obj
 0001:000cc760       ?D3DUtil_SetRotateZMatrix@@YAXAAU_D3DMATRIX@@M@Z 100cd760 f   d3dutil.obj
 0001:000cc820       ?D3DUtil_SetRotationMatrix@@YAXAAU_D3DMATRIX@@AAU_D3DVECTOR@@M@Z 100cd820 f   d3dutil.obj
 0001:000ccad0       ?D3DUtil_SetViewMatrix@@YAJAAU_D3DMATRIX@@AAU_D3DVECTOR@@11@Z 100cdad0 f   d3dutil.obj
 0001:000cce70       ?DotProduct@@YAMABU_D3DVECTOR@@0@Z 100cde70 f i d3dutil.obj
 0001:000ccee0       ?Magnitude@@YAMABU_D3DVECTOR@@@Z 100cdee0 f i d3dutil.obj
 0001:000ccf30       ?Normalize@@YA?AU_D3DVECTOR@@ABU1@@Z 100cdf30 f i d3dutil.obj
 0001:000ccf90       ?SquareMagnitude@@YAMABU_D3DVECTOR@@@Z 100cdf90 f i d3dutil.obj
 0001:000cd000       ?_DbgOut@@YAJPADKJ0@Z      100ce000 f   d3dutil.obj
 0001:000cd120       ?fabs@@YAMM@Z              100ce120 f i d3dutil.obj
 0001:000cd170       ?sin@@YAMM@Z               100ce170 f i d3dutil.obj
 0001:000cd1c0       _cosf                      100ce1c0 f i d3dutil.obj
 0001:000cd220       _fabsf                     100ce220 f i d3dutil.obj
 0001:000cd280       _sinf                      100ce280 f i d3dutil.obj
 0001:000cd2e0       ??0CArrayList@@QAE@W4ArrayListType@@I@Z 100ce2e0 f   dxutil.obj
 0001:000cd350       ??1CArrayList@@QAE@XZ      100ce350 f   dxutil.obj
 0001:000cd3b0       ?Add@CArrayList@@QAEJPAX@Z 100ce3b0 f   dxutil.obj
 0001:000cd520       ?Contains@CArrayList@@QAE_NPAX@Z 100ce520 f   dxutil.obj
 0001:000cd5d0       ?DXUtil_ConvertAnsiStringToGenericCb@@YAJPADPBDH@Z 100ce5d0 f   dxutil.obj
 0001:000cd620       ?DXUtil_ConvertAnsiStringToGenericCch@@YAJPADPBDH@Z 100ce620 f   dxutil.obj
 0001:000cd690       ?DXUtil_ConvertAnsiStringToWideCb@@YAJPA_WPBDH@Z 100ce690 f   dxutil.obj
 0001:000cd6e0       ?DXUtil_ConvertAnsiStringToWideCch@@YAJPA_WPBDH@Z 100ce6e0 f   dxutil.obj
 0001:000cd770       ?DXUtil_ConvertGUIDToStringCb@@YAJPBU_GUID@@PADH@Z 100ce770 f   dxutil.obj
 0001:000cd7c0       ?DXUtil_ConvertGUIDToStringCch@@YAJPBU_GUID@@PADH@Z 100ce7c0 f   dxutil.obj
 0001:000cd8c0       ?DXUtil_ConvertGenericStringToAnsiCb@@YAJPADPBDH@Z 100ce8c0 f   dxutil.obj
 0001:000cd910       ?DXUtil_ConvertGenericStringToAnsiCch@@YAJPADPBDH@Z 100ce910 f   dxutil.obj
 0001:000cd980       ?DXUtil_ConvertGenericStringToWideCb@@YAJPA_WPBDH@Z 100ce980 f   dxutil.obj
 0001:000cd9d0       ?DXUtil_ConvertGenericStringToWideCch@@YAJPA_WPBDH@Z 100ce9d0 f   dxutil.obj
 0001:000cda30       ?DXUtil_ConvertStringToGUID@@YAJPBDPAU_GUID@@@Z 100cea30 f   dxutil.obj
 0001:000cdc60       ?DXUtil_ConvertWideStringToAnsiCb@@YAJPADPB_WH@Z 100cec60 f   dxutil.obj
 0001:000cdcb0       ?DXUtil_ConvertWideStringToAnsiCch@@YAJPADPB_WH@Z 100cecb0 f   dxutil.obj
 0001:000cdd40       ?DXUtil_ConvertWideStringToGenericCb@@YAJPADPB_WH@Z 100ced40 f   dxutil.obj
 0001:000cdd90       ?DXUtil_ConvertWideStringToGenericCch@@YAJPADPB_WH@Z 100ced90 f   dxutil.obj
 0001:000cddf0       ?DXUtil_FindMediaFileCb@@YAJPADHPBD@Z 100cedf0 f   dxutil.obj
 0001:000cde40       ?DXUtil_FindMediaFileCch@@YAJPADHPBD@Z 100cee40 f   dxutil.obj
 0001:000ce2e0       ?DXUtil_FindMediaSearchParentDirs@@YA_NPADH00@Z 100cf2e0 f   dxutil.obj
 0001:000ce570       ?DXUtil_FindMediaSearchTypicalDirs@@YA_NPADHPBD000@Z 100cf570 f   dxutil.obj
 0001:000ce850       ?DXUtil_GetDXSDKMediaPathCb@@YAJPADH@Z 100cf850 f   dxutil.obj
 0001:000ce8a0       ?DXUtil_GetDXSDKMediaPathCch@@YAJPADH@Z 100cf8a0 f   dxutil.obj
 0001:000cea40       ?DXUtil_LaunchReadme@@YAXPAUHWND__@@PBD@Z 100cfa40 f   dxutil.obj
 0001:000cf5b0       ?DXUtil_ReadBoolRegKey@@YAJPAUHKEY__@@PBDPAHH@Z 100d05b0 f   dxutil.obj
 0001:000cf680       ?DXUtil_ReadFloatRegKey@@YAJPAUHKEY__@@PBDPAMM@Z 100d0680 f   dxutil.obj
 0001:000cf800       ?DXUtil_ReadGuidRegKey@@YAJPAUHKEY__@@PBDPAU_GUID@@AAU2@@Z 100d0800 f   dxutil.obj
 0001:000cf900       ?DXUtil_ReadIntRegKey@@YAJPAUHKEY__@@PBDPAKK@Z 100d0900 f   dxutil.obj
 0001:000cf9d0       ?DXUtil_ReadStringRegKeyCb@@YAJPAUHKEY__@@PBDPADK1@Z 100d09d0 f   dxutil.obj
 0001:000cfa20       ?DXUtil_ReadStringRegKeyCch@@YAJPAUHKEY__@@PBDPADK1@Z 100d0a20 f   dxutil.obj
 0001:000cfb20       ?DXUtil_Timer@@YGMW4TIMER_COMMAND@@@Z 100d0b20 f   dxutil.obj
 0001:000d0070       ?DXUtil_Trace@@YAXPBDZZ    100d1070 f   dxutil.obj
 0001:000d0130       ?DXUtil_WriteBoolRegKey@@YAJPAUHKEY__@@PBDH@Z 100d1130 f   dxutil.obj
 0001:000d0190       ?DXUtil_WriteFloatRegKey@@YAJPAUHKEY__@@PBDM@Z 100d1190 f   dxutil.obj
 0001:000d0280       ?DXUtil_WriteGuidRegKey@@YAJPAUHKEY__@@PBDU_GUID@@@Z 100d1280 f   dxutil.obj
 0001:000d02e0       ?DXUtil_WriteIntRegKey@@YAJPAUHKEY__@@PBDK@Z 100d12e0 f   dxutil.obj
 0001:000d0340       ?DXUtil_WriteStringRegKey@@YAJPAUHKEY__@@PBD1@Z 100d1340 f   dxutil.obj
 0001:000d03d0       ?GetPtr@CArrayList@@QAEPAXI@Z 100d13d0 f   dxutil.obj
 0001:000d0430       ?Remove@CArrayList@@QAEXI@Z 100d1430 f   dxutil.obj
 0001:000d04c0       ?strrchr@@YAPADPADH@Z      100d14c0 f i dxutil.obj
 0001:000d0510       ??0?$CGrowableArray@H@@QAE@XZ 100d1510 f i DXUT.obj
 0001:000d0560       ??0?$CGrowableArray@UDXUT_TIMER@@@@QAE@XZ 100d1560 f i DXUT.obj
 0001:000d05b0       ??0DXUTLock@@QAE@XZ        100d15b0 f i DXUT.obj
 0001:000d0610       ??0DXUTState@@QAE@XZ       100d1610 f i DXUT.obj
 0001:000d0660       ??1?$CGrowableArray@H@@QAE@XZ 100d1660 f i DXUT.obj
 0001:000d06a0       ??1DXUTLock@@QAE@XZ        100d16a0 f i DXUT.obj
 0001:000d0700       ??1DXUTState@@QAE@XZ       100d1700 f i DXUT.obj
 0001:000d0740       ?Add@?$CGrowableArray@H@@QAEJABH@Z 100d1740 f i DXUT.obj
 0001:000d07e0       ?Add@?$CGrowableArray@UDXUT_TIMER@@@@QAEJABUDXUT_TIMER@@@Z 100d17e0 f i DXUT.obj
 0001:000d08a0       ?Contains@?$CGrowableArray@I@@QAE_NABI@Z 100d18a0 f i DXUT.obj
 0001:000d0910       ?Contains@?$CGrowableArray@W4_D3DFORMAT@@@@QAE_NABW4_D3DFORMAT@@@Z 100d1910 f i DXUT.obj
 0001:000d0980       ?Create@DXUTState@@QAEXXZ  100d1980 f i DXUT.obj
 0001:000d0a40       ?DXUTAllowShortcutKeys@@YAX_N@Z 100d1a40 f   DXUT.obj
 0001:000d0a90       ?DXUTBuildOptimalDeviceSettings@@YAXPAUDXUTDeviceSettings@@0PAUDXUTMatchOptions@@@Z 100d1a90 f   DXUT.obj
 0001:000d0df0       ?DXUTBuildValidDeviceSettings@@YAXPAUDXUTDeviceSettings@@PAUCD3DEnumDeviceSettingsCombo@@0PAUDXUTMatchOptions@@@Z 100d1df0 f   DXUT.obj
 0001:000d1990       ?DXUTChangeDevice@@YAJPAUDXUTDeviceSettings@@PAUIDirect3DDevice9@@_N2@Z 100d2990 f   DXUT.obj
 0001:000d2bc0       ?DXUTCheckForWindowChangingMonitors@@YAXXZ 100d3bc0 f   DXUT.obj
 0001:000d2e40       ?DXUTCheckForWindowSizeChange@@YAXXZ 100d3e40 f   DXUT.obj
 0001:000d2fb0       ?DXUTCleanup3DEnvironment@@YAX_N@Z 100d3fb0 f   DXUT.obj
 0001:000d31c0       ?DXUTCreate3DEnvironment@@YAJPAUIDirect3DDevice9@@@Z 100d41c0 f   DXUT.obj
 0001:000d35c0       ?DXUTCreateDevice@@YAJI_NHHP6G_NPAU_D3DCAPS9@@W4_D3DFORMAT@@20PAX@ZP6G_NPAUDXUTDeviceSettings@@PBU1@3@Z3@Z 100d45c0 f   DXUT.obj
 0001:000d39d0       ?DXUTCreateDeviceFromSettings@@YAJPAUDXUTDeviceSettings@@_N1@Z 100d49d0 f   DXUT.obj
 0001:000d3ba0       ?DXUTCreateWindow@@YAJPBDPAUHINSTANCE__@@PAUHICON__@@PAUHMENU__@@HH@Z 100d4ba0 f   DXUT.obj
 0001:000d4080       ?DXUTDisplayErrorMessage@@YAXJ@Z 100d5080 f   DXUT.obj
 0001:000d4380       ?DXUTDoesDeviceComboMatchPreserveOptions@@YA_NPAUCD3DEnumDeviceSettingsCombo@@PAUDXUTDeviceSettings@@PAUDXUTMatchOptions@@@Z 100d5380 f   DXUT.obj
 0001:000d4880       ?DXUTFindAdapterFormat@@YAJIW4_D3DDEVTYPE@@W4_D3DFORMAT@@HPAW42@@Z 100d5880 f   DXUT.obj
 0001:000d4950       ?DXUTFindValidDeviceSettings@@YAJPAUDXUTDeviceSettings@@0PAUDXUTMatchOptions@@@Z 100d5950 f   DXUT.obj
 0001:000d4ce0       ?DXUTFindValidResolution@@YAJPAUCD3DEnumDeviceSettingsCombo@@U_D3DDISPLAYMODE@@PAU2@@Z 100d5ce0 f   DXUT.obj
 0001:000d4eb0       ?DXUTGetAdapterOrdinalFromMonitor@@YAJPAUHMONITOR__@@PAI@Z 100d5eb0 f   DXUT.obj
 0001:000d4f80       ?DXUTGetAutomation@@YA_NXZ 100d5f80 f   DXUT.obj
 0001:000d4fc0       ?DXUTGetBackBufferSurfaceDesc@@YAPBU_D3DSURFACE_DESC@@XZ 100d5fc0 f   DXUT.obj
 0001:000d5000       ?DXUTGetCmdParam@@YA_NAAPADPADH@Z 100d6000 f   DXUT.obj
 0001:000d50d0       ?DXUTGetD3DDevice@@YAPAUIDirect3DDevice9@@XZ 100d60d0 f   DXUT.obj
 0001:000d5110       ?DXUTGetD3DObject@@YAPAUIDirect3D9@@XZ 100d6110 f   DXUT.obj
 0001:000d5150       ?DXUTGetDesktopResolution@@YAXIPAK0@Z 100d6150 f   DXUT.obj
 0001:000d52a0       ?DXUTGetDeviceCaps@@YAPBU_D3DCAPS9@@XZ 100d62a0 f   DXUT.obj
 0001:000d52e0       ?DXUTGetDeviceSettings@@YA?AUDXUTDeviceSettings@@XZ 100d62e0 f   DXUT.obj
 0001:000d5390       ?DXUTGetDeviceStats@@YAPBDXZ 100d6390 f   DXUT.obj
 0001:000d53d0       ?DXUTGetElapsedTime@@YAMXZ 100d63d0 f   DXUT.obj
 0001:000d5410       ?DXUTGetExitCode@@YAHXZ    100d6410 f   DXUT.obj
 0001:000d5450       ?DXUTGetFPS@@YAMXZ         100d6450 f   DXUT.obj
 0001:000d5490       ?DXUTGetFrameStats@@YAPBDXZ 100d6490 f   DXUT.obj
 0001:000d54d0       ?DXUTGetFullsceenClientRectAtModeChange@@YA?AUtagRECT@@XZ 100d64d0 f   DXUT.obj
 0001:000d5590       ?DXUTGetHINSTANCE@@YAPAUHINSTANCE__@@XZ 100d6590 f   DXUT.obj
 0001:000d55d0       ?DXUTGetHWND@@YAPAUHWND__@@XZ 100d65d0 f   DXUT.obj
 0001:000d5640       ?DXUTGetHWNDDeviceFullScreen@@YAPAUHWND__@@XZ 100d6640 f   DXUT.obj
 0001:000d5680       ?DXUTGetHWNDDeviceWindowed@@YAPAUHWND__@@XZ 100d6680 f   DXUT.obj
 0001:000d56c0       ?DXUTGetHWNDFocus@@YAPAUHWND__@@XZ 100d66c0 f   DXUT.obj
 0001:000d5700       ?DXUTGetPresentParameters@@YA?AU_D3DPRESENT_PARAMETERS_@@XZ 100d6700 f   DXUT.obj
 0001:000d57b0       ?DXUTGetShowMsgBoxOnError@@YA_NXZ 100d67b0 f   DXUT.obj
 0001:000d57f0       ?DXUTGetTime@@YANXZ        100d67f0 f   DXUT.obj
 0001:000d5830       ?DXUTGetWindowClientRect@@YA?AUtagRECT@@XZ 100d6830 f   DXUT.obj
 0001:000d58e0       ?DXUTGetWindowClientRectAtModeChange@@YA?AUtagRECT@@XZ 100d68e0 f   DXUT.obj
 0001:000d59a0       ?DXUTGetWindowTitle@@YAPBDXZ 100d69a0 f   DXUT.obj
 0001:000d59e0       ?DXUTHandleTimers@@YAXXZ   100d69e0 f   DXUT.obj
 0001:000d5b10       ?DXUTInit@@YAJ_N00@Z       100d6b10 f   DXUT.obj
 0001:000d5e60       ?DXUTInitHWCursor@@YAXXZ   100d6e60 f   DXUT.obj
 0001:000d5f90       ?DXUTIsKeyDown@@YA_NE@Z    100d6f90 f   DXUT.obj
 0001:000d6060       ?DXUTIsMouseButtonDown@@YA_NE@Z 100d7060 f   DXUT.obj
 0001:000d60c0       ?DXUTIsRenderingPaused@@YA_NXZ 100d70c0 f   DXUT.obj
 0001:000d6120       ?DXUTIsTimePaused@@YA_NXZ  100d7120 f   DXUT.obj
 0001:000d6180       ?DXUTIsWindowed@@YA_NXZ    100d7180 f   DXUT.obj
 0001:000d6200       ?DXUTKillTimer@@YAJI@Z     100d7200 f   DXUT.obj
 0001:000d62f0       ?DXUTMainLoop@@YAJPAUHACCEL__@@@Z 100d72f0 f   DXUT.obj
 0001:000d6620       ?DXUTMapButtonToArrayIndex@@YAHE@Z 100d7620 f   DXUT.obj
 0001:000d6680       ?DXUTParseCommandLine@@YAXXZ 100d7680 f   DXUT.obj
 0001:000d7070       ?DXUTPause@@YAX_N0@Z       100d8070 f   DXUT.obj
 0001:000d71c0       ?DXUTPrepareEnumerationObject@@YAPAVCD3DEnumeration@@_N@Z 100d81c0 f   DXUT.obj
 0001:000d7260       ?DXUTRankDeviceCombo@@YAMPAUCD3DEnumDeviceSettingsCombo@@PAUDXUTDeviceSettings@@PAU_D3DDISPLAYMODE@@@Z 100d8260 f   DXUT.obj
 0001:000d7980       ?DXUTRender3DEnvironment@@YAXXZ 100d8980 f   DXUT.obj
 0001:000d8020       ?DXUTReset3DEnvironment@@YAJXZ 100d9020 f   DXUT.obj
 0001:000d82b0       ?DXUTResetFrameworkState@@YAXXZ 100d92b0 f   DXUT.obj
 0001:000d8300       ?DXUTSetCallbackDeviceChanging@@YAXP6G_NPAUDXUTDeviceSettings@@PBU_D3DCAPS9@@PAX@Z2@Z 100d9300 f   DXUT.obj
 0001:000d8360       ?DXUTSetCallbackDeviceCreated@@YAXP6GJPAUIDirect3DDevice9@@PBU_D3DSURFACE_DESC@@PAX@Z2@Z 100d9360 f   DXUT.obj
 0001:000d83c0       ?DXUTSetCallbackDeviceDestroyed@@YAXP6GXPAX@Z0@Z 100d93c0 f   DXUT.obj
 0001:000d8420       ?DXUTSetCallbackDeviceLost@@YAXP6GXPAX@Z0@Z 100d9420 f   DXUT.obj
 0001:000d8480       ?DXUTSetCallbackDeviceReset@@YAXP6GJPAUIDirect3DDevice9@@PBU_D3DSURFACE_DESC@@PAX@Z2@Z 100d9480 f   DXUT.obj
 0001:000d84e0       ?DXUTSetCallbackFrameMove@@YAXP6GXPAUIDirect3DDevice9@@NMPAX@Z1@Z 100d94e0 f   DXUT.obj
 0001:000d8540       ?DXUTSetCallbackFrameRender@@YAXP6GXPAUIDirect3DDevice9@@NMPAX@Z1@Z 100d9540 f   DXUT.obj
 0001:000d85a0       ?DXUTSetCallbackKeyboard@@YAXP6GXI_N0PAX@Z1@Z 100d95a0 f   DXUT.obj
 0001:000d8600       ?DXUTSetCallbackMouse@@YAXP6GX_N0000HHHPAX@Z01@Z 100d9600 f   DXUT.obj
 0001:000d8670       ?DXUTSetCallbackMsgProc@@YAXP6GJPAUHWND__@@IIJPA_NPAX@Z2@Z 100d9670 f   DXUT.obj
 0001:000d86d0       ?DXUTSetConstantFrameTime@@YAX_NM@Z 100d96d0 f   DXUT.obj
 0001:000d8760       ?DXUTSetCursorSettings@@YAX_N0@Z 100d9760 f   DXUT.obj
 0001:000d87c0       ?DXUTSetDevice@@YAJPAUIDirect3DDevice9@@@Z 100d97c0 f   DXUT.obj
 0001:000d8ab0       ?DXUTSetDeviceCursor@@YAJPAUIDirect3DDevice9@@PAUHICON__@@_N@Z 100d9ab0 f   DXUT.obj
 0001:000d9240       ?DXUTSetMultimonSettings@@YAX_N@Z 100da240 f   DXUT.obj
 0001:000d9290       ?DXUTSetShortcutKeySettings@@YAX_N0@Z 100da290 f   DXUT.obj
 0001:000d9340       ?DXUTSetTimer@@YAJP6GXIPAX@ZMPAI0@Z 100da340 f   DXUT.obj
 0001:000d94e0       ?DXUTSetWindow@@YAJPAUHWND__@@00_N@Z 100da4e0 f   DXUT.obj
 0001:000d9700       ?DXUTShutdown@@YAXH@Z      100da700 f   DXUT.obj
 0001:000d97d0       ?DXUTStaticWndProc@@YGJPAUHWND__@@IIJ@Z 100da7d0 f   DXUT.obj
 0001:000da710       ?DXUTToggleFullScreen@@YAJXZ 100db710 f   DXUT.obj
 0001:000daa80       ?DXUTToggleREF@@YAJXZ      100dba80 f   DXUT.obj
 0001:000dac90       ?DXUTTrace@@YGJPBDKJ0_N@Z  100dbc90 f   DXUT.obj
 0001:000dad10       ?DXUTUpdateBackBufferDesc@@YAXXZ 100dbd10 f   DXUT.obj
 0001:000dae20       ?DXUTUpdateDeviceSettingsWithOverrides@@YAXPAUDXUTDeviceSettings@@@Z 100dbe20 f   DXUT.obj
 0001:000db000       ?DXUTUpdateDeviceStats@@YAXW4_D3DDEVTYPE@@KPAU_D3DADAPTER_IDENTIFIER9@@@Z 100dc000 f   DXUT.obj
 0001:000db2a0       ?DXUTUpdateFrameStats@@YAXXZ 100dc2a0 f   DXUT.obj
 0001:000db400       ?DXUTUpdateStaticFrameStats@@YAXXZ 100dc400 f   DXUT.obj
 0001:000db6b0       ?Destroy@DXUTState@@QAEXXZ 100dc6b0 f i DXUT.obj
 0001:000db710       ?GetActive@DXUTState@@QAE_NXZ 100dc710 f i DXUT.obj
 0001:000db7a0       ?GetAdapterMonitor@DXUTState@@QAEPAUHMONITOR__@@XZ 100dc7a0 f i DXUT.obj
 0001:000db830       ?GetAllowShortcutKeysWhenFullscreen@DXUTState@@QAE_NXZ 100dc830 f i DXUT.obj
 0001:000db8c0       ?GetAllowShortcutKeysWhenWindowed@DXUTState@@QAE_NXZ 100dc8c0 f i DXUT.obj
 0001:000db950       ?GetAt@?$CGrowableArray@H@@QAEAAHH@Z 100dc950 f i DXUT.obj
 0001:000db9c0       ?GetAt@?$CGrowableArray@K@@QAEAAKH@Z 100dc9c0 f i DXUT.obj
 0001:000dba30       ?GetAt@?$CGrowableArray@PAUCD3DEnumDeviceSettingsCombo@@@@QAEAAPAUCD3DEnumDeviceSettingsCombo@@H@Z 100dca30 f i DXUT.obj
 0001:000dbaa0       ?GetAt@?$CGrowableArray@PAVCD3DEnumAdapterInfo@@@@QAEAAPAVCD3DEnumAdapterInfo@@H@Z 100dcaa0 f i DXUT.obj
 0001:000dbb10       ?GetAt@?$CGrowableArray@PAVCD3DEnumDeviceInfo@@@@QAEAAPAVCD3DEnumDeviceInfo@@H@Z 100dcb10 f i DXUT.obj
 0001:000dbb80       ?GetAt@?$CGrowableArray@UDXUT_TIMER@@@@QAEAAUDXUT_TIMER@@H@Z 100dcb80 f i DXUT.obj
 0001:000dbbf0       ?GetAt@?$CGrowableArray@U_D3DDISPLAYMODE@@@@QAEAAU_D3DDISPLAYMODE@@H@Z 100dcbf0 f i DXUT.obj
 0001:000dbc60       ?GetAt@?$CGrowableArray@W4_D3DFORMAT@@@@QAEAAW4_D3DFORMAT@@H@Z 100dcc60 f i DXUT.obj
 0001:000dbcd0       ?GetAt@?$CGrowableArray@W4_D3DMULTISAMPLE_TYPE@@@@QAEAAW4_D3DMULTISAMPLE_TYPE@@H@Z 100dccd0 f i DXUT.obj
 0001:000dbd40       ?GetAutoChangeAdapter@DXUTState@@QAE_NXZ 100dcd40 f i DXUT.obj
 0001:000dbdd0       ?GetAutomation@DXUTState@@QAE_NXZ 100dcdd0 f i DXUT.obj
 0001:000dbe60       ?GetBackBufferSurfaceDesc@DXUTState@@QAEPAU_D3DSURFACE_DESC@@XZ 100dce60 f i DXUT.obj
 0001:000dbef0       ?GetCaps@DXUTState@@QAEPAU_D3DCAPS9@@XZ 100dcef0 f i DXUT.obj
 0001:000dbf80       ?GetClipCursorWhenFullScreen@DXUTState@@QAE_NXZ 100dcf80 f i DXUT.obj
 0001:000dc010       ?GetConstantFrameTime@DXUTState@@QAE_NXZ 100dd010 f i DXUT.obj
 0001:000dc0a0       ?GetCurrentDeviceSettings@DXUTState@@QAEPAUDXUTDeviceSettings@@XZ 100dd0a0 f i DXUT.obj
 0001:000dc130       ?GetCurrentFrameNumber@DXUTState@@QAEHXZ 100dd130 f i DXUT.obj
 0001:000dc1c0       ?GetD3D@DXUTState@@QAEPAUIDirect3D9@@XZ 100dd1c0 f i DXUT.obj
 0001:000dc250       ?GetD3DDevice@DXUTState@@QAEPAUIDirect3DDevice9@@XZ 100dd250 f i DXUT.obj
 0001:000dc2e0       ?GetD3DEnumeration@DXUTState@@QAEPAVCD3DEnumeration@@XZ 100dd2e0 f i DXUT.obj
 0001:000dc370       ?GetDXUTInitCalled@DXUTState@@QAE_NXZ 100dd370 f i DXUT.obj
 0001:000dc400       ?GetDXUTInited@DXUTState@@QAE_NXZ 100dd400 f i DXUT.obj
 0001:000dc490       ?GetDXUTState@@YAAAVDXUTState@@XZ 100dd490 f   DXUT.obj
 0001:000dc530       ?GetDeviceCreateCalled@DXUTState@@QAE_NXZ 100dd530 f i DXUT.obj
 0001:000dc5c0       ?GetDeviceCreated@DXUTState@@QAE_NXZ 100dd5c0 f i DXUT.obj
 0001:000dc650       ?GetDeviceCreatedFunc@DXUTState@@QAEP6GJPAUIDirect3DDevice9@@PBU_D3DSURFACE_DESC@@PAX@ZXZ 100dd650 f i DXUT.obj
 0001:000dc6e0       ?GetDeviceCreatedFuncUserContext@DXUTState@@QAEPAXXZ 100dd6e0 f i DXUT.obj
 0001:000dc770       ?GetDeviceDestroyedFunc@DXUTState@@QAEP6GXPAX@ZXZ 100dd770 f i DXUT.obj
 0001:000dc800       ?GetDeviceDestroyedFuncUserContext@DXUTState@@QAEPAXXZ 100dd800 f i DXUT.obj
 0001:000dc890       ?GetDeviceLost@DXUTState@@QAE_NXZ 100dd890 f i DXUT.obj
 0001:000dc920       ?GetDeviceLostFunc@DXUTState@@QAEP6GXPAX@ZXZ 100dd920 f i DXUT.obj
 0001:000dc9b0       ?GetDeviceLostFuncUserContext@DXUTState@@QAEPAXXZ 100dd9b0 f i DXUT.obj
 0001:000dca40       ?GetDeviceObjectsCreated@DXUTState@@QAE_NXZ 100dda40 f i DXUT.obj
 0001:000dcad0       ?GetDeviceObjectsReset@DXUTState@@QAE_NXZ 100ddad0 f i DXUT.obj
 0001:000dcb60       ?GetDeviceResetFunc@DXUTState@@QAEP6GJPAUIDirect3DDevice9@@PBU_D3DSURFACE_DESC@@PAX@ZXZ 100ddb60 f i DXUT.obj
 0001:000dcbf0       ?GetDeviceResetFuncUserContext@DXUTState@@QAEPAXXZ 100ddbf0 f i DXUT.obj
 0001:000dcc80       ?GetDeviceStats@DXUTState@@QAEPADXZ 100ddc80 f i DXUT.obj
 0001:000dcd10       ?GetElapsedTime@DXUTState@@QAEMXZ 100ddd10 f i DXUT.obj
 0001:000dcda0       ?GetExitCode@DXUTState@@QAEHXZ 100ddda0 f i DXUT.obj
 0001:000dce30       ?GetFPS@DXUTState@@QAEMXZ  100dde30 f i DXUT.obj
 0001:000dcec0       ?GetFrameMoveFunc@DXUTState@@QAEP6GXPAUIDirect3DDevice9@@NMPAX@ZXZ 100ddec0 f i DXUT.obj
 0001:000dcf50       ?GetFrameMoveFuncUserContext@DXUTState@@QAEPAXXZ 100ddf50 f i DXUT.obj
 0001:000dcfe0       ?GetFrameRenderFunc@DXUTState@@QAEP6GXPAUIDirect3DDevice9@@NMPAX@ZXZ 100ddfe0 f i DXUT.obj
 0001:000dd070       ?GetFrameRenderFuncUserContext@DXUTState@@QAEPAXXZ 100de070 f i DXUT.obj
 0001:000dd100       ?GetFrameStats@DXUTState@@QAEPADXZ 100de100 f i DXUT.obj
 0001:000dd190       ?GetFullScreenBackBufferHeightAtModeChange@DXUTState@@QAEIXZ 100de190 f i DXUT.obj
 0001:000dd220       ?GetFullScreenBackBufferWidthAtModeChange@DXUTState@@QAEIXZ 100de220 f i DXUT.obj
 0001:000dd2b0       ?GetHInstance@DXUTState@@QAEPAUHINSTANCE__@@XZ 100de2b0 f i DXUT.obj
 0001:000dd340       ?GetHWNDDeviceFullScreen@DXUTState@@QAEPAUHWND__@@XZ 100de340 f i DXUT.obj
 0001:000dd3d0       ?GetHWNDDeviceWindowed@DXUTState@@QAEPAUHWND__@@XZ 100de3d0 f i DXUT.obj
 0001:000dd460       ?GetHWNDFocus@DXUTState@@QAEPAUHWND__@@XZ 100de460 f i DXUT.obj
 0001:000dd4f0       ?GetHandleDefaultHotkeys@DXUTState@@QAE_NXZ 100de4f0 f i DXUT.obj
 0001:000dd580       ?GetIgnoreSizeChange@DXUTState@@QAE_NXZ 100de580 f i DXUT.obj
 0001:000dd610       ?GetInSizeMove@DXUTState@@QAE_NXZ 100de610 f i DXUT.obj
 0001:000dd6a0       ?GetInsideDeviceCallback@DXUTState@@QAE_NXZ 100de6a0 f i DXUT.obj
 0001:000dd730       ?GetInsideMainloop@DXUTState@@QAE_NXZ 100de730 f i DXUT.obj
 0001:000dd7c0       ?GetIsDeviceAcceptableFunc@DXUTState@@QAEP6G_NPAU_D3DCAPS9@@W4_D3DFORMAT@@1_NPAX@ZXZ 100de7c0 f i DXUT.obj
 0001:000dd850       ?GetIsDeviceAcceptableFuncUserContext@DXUTState@@QAEPAXXZ 100de850 f i DXUT.obj
 0001:000dd8e0       ?GetKeyboardFunc@DXUTState@@QAEP6GXI_N0PAX@ZXZ 100de8e0 f i DXUT.obj
 0001:000dd970       ?GetKeyboardFuncUserContext@DXUTState@@QAEPAXXZ 100de970 f i DXUT.obj
 0001:000dda00       ?GetKeyboardHook@DXUTState@@QAEPAUHHOOK__@@XZ 100dea00 f i DXUT.obj
 0001:000dda90       ?GetKeys@DXUTState@@QAEPA_NXZ 100dea90 f i DXUT.obj
 0001:000ddb20       ?GetLastStatsUpdateFrames@DXUTState@@QAEKXZ 100deb20 f i DXUT.obj
 0001:000ddbb0       ?GetLastStatsUpdateTime@DXUTState@@QAENXZ 100debb0 f i DXUT.obj
 0001:000ddc40       ?GetMaximized@DXUTState@@QAE_NXZ 100dec40 f i DXUT.obj
 0001:000ddcd0       ?GetMenu@DXUTState@@QAEPAUHMENU__@@XZ 100decd0 f i DXUT.obj
 0001:000ddd60       ?GetMinimized@DXUTState@@QAE_NXZ 100ded60 f i DXUT.obj
 0001:000dddf0       ?GetMinimizedWhileFullscreen@DXUTState@@QAE_NXZ 100dedf0 f i DXUT.obj
 0001:000dde80       ?GetModifyDeviceSettingsFunc@DXUTState@@QAEP6G_NPAUDXUTDeviceSettings@@PBU_D3DCAPS9@@PAX@ZXZ 100dee80 f i DXUT.obj
 0001:000ddf10       ?GetModifyDeviceSettingsFuncUserContext@DXUTState@@QAEPAXXZ 100def10 f i DXUT.obj
 0001:000ddfa0       ?GetMouseButtons@DXUTState@@QAEPA_NXZ 100defa0 f i DXUT.obj
 0001:000de030       ?GetMouseFunc@DXUTState@@QAEP6GX_N0000HHHPAX@ZXZ 100df030 f i DXUT.obj
 0001:000de0c0       ?GetMouseFuncUserContext@DXUTState@@QAEPAXXZ 100df0c0 f i DXUT.obj
 0001:000de150       ?GetNotifyOnMouseMove@DXUTState@@QAE_NXZ 100df150 f i DXUT.obj
 0001:000de1e0       ?GetOverrideAdapterOrdinal@DXUTState@@QAEHXZ 100df1e0 f i DXUT.obj
 0001:000de270       ?GetOverrideConstantFrameTime@DXUTState@@QAE_NXZ 100df270 f i DXUT.obj
 0001:000de300       ?GetOverrideConstantTimePerFrame@DXUTState@@QAEMXZ 100df300 f i DXUT.obj
 0001:000de390       ?GetOverrideForceHAL@DXUTState@@QAE_NXZ 100df390 f i DXUT.obj
 0001:000de420       ?GetOverrideForceHWVP@DXUTState@@QAE_NXZ 100df420 f i DXUT.obj
 0001:000de4b0       ?GetOverrideForcePureHWVP@DXUTState@@QAE_NXZ 100df4b0 f i DXUT.obj
 0001:000de540       ?GetOverrideForceREF@DXUTState@@QAE_NXZ 100df540 f i DXUT.obj
 0001:000de5d0       ?GetOverrideForceSWVP@DXUTState@@QAE_NXZ 100df5d0 f i DXUT.obj
 0001:000de660       ?GetOverrideFullScreen@DXUTState@@QAE_NXZ 100df660 f i DXUT.obj
 0001:000de6f0       ?GetOverrideHeight@DXUTState@@QAEHXZ 100df6f0 f i DXUT.obj
 0001:000de780       ?GetOverrideQuitAfterFrame@DXUTState@@QAEHXZ 100df780 f i DXUT.obj
 0001:000de810       ?GetOverrideStartX@DXUTState@@QAEHXZ 100df810 f i DXUT.obj
 0001:000de8a0       ?GetOverrideStartY@DXUTState@@QAEHXZ 100df8a0 f i DXUT.obj
 0001:000de930       ?GetOverrideWidth@DXUTState@@QAEHXZ 100df930 f i DXUT.obj
 0001:000de9c0       ?GetOverrideWindowed@DXUTState@@QAE_NXZ 100df9c0 f i DXUT.obj
 0001:000dea50       ?GetPauseRenderingCount@DXUTState@@QAEHXZ 100dfa50 f i DXUT.obj
 0001:000deae0       ?GetPauseTimeCount@DXUTState@@QAEHXZ 100dfae0 f i DXUT.obj
 0001:000deb70       ?GetRenderingPaused@DXUTState@@QAE_NXZ 100dfb70 f i DXUT.obj
 0001:000dec00       ?GetShowCursorWhenFullScreen@DXUTState@@QAE_NXZ 100dfc00 f i DXUT.obj
 0001:000dec90       ?GetShowMsgBoxOnError@DXUTState@@QAE_NXZ 100dfc90 f i DXUT.obj
 0001:000ded20       ?GetSize@?$CGrowableArray@PAUCD3DEnumDeviceSettingsCombo@@@@QBEHXZ 100dfd20 f i DXUT.obj
 0001:000ded50       ?GetSize@?$CGrowableArray@PAVCD3DEnumAdapterInfo@@@@QBEHXZ 100dfd50 f i DXUT.obj
 0001:000ded80       ?GetSize@?$CGrowableArray@PAVCD3DEnumDeviceInfo@@@@QBEHXZ 100dfd80 f i DXUT.obj
 0001:000dedb0       ?GetSize@?$CGrowableArray@UDXUT_TIMER@@@@QBEHXZ 100dfdb0 f i DXUT.obj
 0001:000dede0       ?GetSize@?$CGrowableArray@U_D3DDISPLAYMODE@@@@QBEHXZ 100dfde0 f i DXUT.obj
 0001:000dee10       ?GetSize@?$CGrowableArray@W4_D3DFORMAT@@@@QBEHXZ 100dfe10 f i DXUT.obj
 0001:000dee40       ?GetSize@?$CGrowableArray@W4_D3DMULTISAMPLE_TYPE@@@@QBEHXZ 100dfe40 f i DXUT.obj
 0001:000dee70       ?GetStaticFrameStats@DXUTState@@QAEPADXZ 100dfe70 f i DXUT.obj
 0001:000def00       ?GetTime@DXUTState@@QAENXZ 100dff00 f i DXUT.obj
 0001:000def90       ?GetTimePerFrame@DXUTState@@QAEMXZ 100dff90 f i DXUT.obj
 0001:000df020       ?GetTimerList@DXUTState@@QAEPAV?$CGrowableArray@UDXUT_TIMER@@@@XZ 100e0020 f i DXUT.obj
 0001:000df0b0       ?GetWindowBackBufferHeightAtModeChange@DXUTState@@QAEIXZ 100e00b0 f i DXUT.obj
 0001:000df140       ?GetWindowBackBufferWidthAtModeChange@DXUTState@@QAEIXZ 100e0140 f i DXUT.obj
 0001:000df1d0       ?GetWindowCreateCalled@DXUTState@@QAE_NXZ 100e01d0 f i DXUT.obj
 0001:000df260       ?GetWindowCreated@DXUTState@@QAE_NXZ 100e0260 f i DXUT.obj
 0001:000df2f0       ?GetWindowTitle@DXUTState@@QAEPADXZ 100e02f0 f i DXUT.obj
 0001:000df380       ?GetWindowedPlacement@DXUTState@@QAEPAUtagWINDOWPLACEMENT@@XZ 100e0380 f i DXUT.obj
 0001:000df410       ?GetWindowedStyleAtModeChange@DXUTState@@QAEKXZ 100e0410 f i DXUT.obj
 0001:000df4a0       ?GetWireframeMode@DXUTState@@QAE_NXZ 100e04a0 f i DXUT.obj
 0001:000df530       ?IndexOf@?$CGrowableArray@I@@QAEHABI@Z 100e0530 f i DXUT.obj
 0001:000df5a0       ?IndexOf@?$CGrowableArray@I@@QAEHABIHH@Z 100e05a0 f i DXUT.obj
 0001:000df660       ?IndexOf@?$CGrowableArray@W4_D3DFORMAT@@@@QAEHABW4_D3DFORMAT@@@Z 100e0660 f i DXUT.obj
 0001:000df6d0       ?IndexOf@?$CGrowableArray@W4_D3DFORMAT@@@@QAEHABW4_D3DFORMAT@@HH@Z 100e06d0 f i DXUT.obj
 0001:000df790       ?LowLevelKeyboardProc@@YGJHIJ@Z 100e0790 f   DXUT.obj
 0001:000df830       ?RemoveAll@?$CGrowableArray@H@@QAEXXZ 100e0830 f i DXUT.obj
 0001:000df880       ?SetActive@DXUTState@@QAEX_N@Z 100e0880 f i DXUT.obj
 0001:000df900       ?SetAdapterMonitor@DXUTState@@QAEXPAUHMONITOR__@@@Z 100e0900 f i DXUT.obj
 0001:000df980       ?SetAllowShortcutKeys@DXUTState@@QAEX_N@Z 100e0980 f i DXUT.obj
 0001:000dfa00       ?SetAllowShortcutKeysWhenFullscreen@DXUTState@@QAEX_N@Z 100e0a00 f i DXUT.obj
 0001:000dfa80       ?SetAllowShortcutKeysWhenWindowed@DXUTState@@QAEX_N@Z 100e0a80 f i DXUT.obj
 0001:000dfb00       ?SetAt@?$CGrowableArray@H@@QAEJHABH@Z 100e0b00 f i DXUT.obj
 0001:000dfb80       ?SetAt@?$CGrowableArray@UDXUT_TIMER@@@@QAEJHABUDXUT_TIMER@@@Z 100e0b80 f i DXUT.obj
 0001:000dfc20       ?SetAutoChangeAdapter@DXUTState@@QAEX_N@Z 100e0c20 f i DXUT.obj
 0001:000dfca0       ?SetAutomation@DXUTState@@QAEX_N@Z 100e0ca0 f i DXUT.obj
 0001:000dfd20       ?SetClipCursorWhenFullScreen@DXUTState@@QAEX_N@Z 100e0d20 f i DXUT.obj
 0001:000dfda0       ?SetConstantFrameTime@DXUTState@@QAEX_N@Z 100e0da0 f i DXUT.obj
 0001:000dfe20       ?SetCurrentDeviceSettings@DXUTState@@QAEXPAUDXUTDeviceSettings@@@Z 100e0e20 f i DXUT.obj
 0001:000dfea0       ?SetCurrentFrameNumber@DXUTState@@QAEXH@Z 100e0ea0 f i DXUT.obj
 0001:000dff20       ?SetD3D@DXUTState@@QAEXPAUIDirect3D9@@@Z 100e0f20 f i DXUT.obj
 0001:000dffa0       ?SetD3DDevice@DXUTState@@QAEXPAUIDirect3DDevice9@@@Z 100e0fa0 f i DXUT.obj
 0001:000e0020       ?SetD3DEnumeration@DXUTState@@QAEXPAVCD3DEnumeration@@@Z 100e1020 f i DXUT.obj
 0001:000e00a0       ?SetDXUTInitCalled@DXUTState@@QAEX_N@Z 100e10a0 f i DXUT.obj
 0001:000e0120       ?SetDXUTInited@DXUTState@@QAEX_N@Z 100e1120 f i DXUT.obj
 0001:000e01a0       ?SetDeviceCreateCalled@DXUTState@@QAEX_N@Z 100e11a0 f i DXUT.obj
 0001:000e0220       ?SetDeviceCreated@DXUTState@@QAEX_N@Z 100e1220 f i DXUT.obj
 0001:000e02a0       ?SetDeviceCreatedFunc@DXUTState@@QAEXP6GJPAUIDirect3DDevice9@@PBU_D3DSURFACE_DESC@@PAX@Z@Z 100e12a0 f i DXUT.obj
 0001:000e0320       ?SetDeviceCreatedFuncUserContext@DXUTState@@QAEXPAX@Z 100e1320 f i DXUT.obj
 0001:000e03a0       ?SetDeviceDestroyedFunc@DXUTState@@QAEXP6GXPAX@Z@Z 100e13a0 f i DXUT.obj
 0001:000e0420       ?SetDeviceDestroyedFuncUserContext@DXUTState@@QAEXPAX@Z 100e1420 f i DXUT.obj
 0001:000e04a0       ?SetDeviceLost@DXUTState@@QAEX_N@Z 100e14a0 f i DXUT.obj
 0001:000e0520       ?SetDeviceLostFunc@DXUTState@@QAEXP6GXPAX@Z@Z 100e1520 f i DXUT.obj
 0001:000e05a0       ?SetDeviceLostFuncUserContext@DXUTState@@QAEXPAX@Z 100e15a0 f i DXUT.obj
 0001:000e0620       ?SetDeviceObjectsCreated@DXUTState@@QAEX_N@Z 100e1620 f i DXUT.obj
 0001:000e06a0       ?SetDeviceObjectsReset@DXUTState@@QAEX_N@Z 100e16a0 f i DXUT.obj
 0001:000e0720       ?SetDeviceResetFunc@DXUTState@@QAEXP6GJPAUIDirect3DDevice9@@PBU_D3DSURFACE_DESC@@PAX@Z@Z 100e1720 f i DXUT.obj
 0001:000e07a0       ?SetDeviceResetFuncUserContext@DXUTState@@QAEXPAX@Z 100e17a0 f i DXUT.obj
 0001:000e0820       ?SetElapsedTime@DXUTState@@QAEXM@Z 100e1820 f i DXUT.obj
 0001:000e08b0       ?SetExitCode@DXUTState@@QAEXH@Z 100e18b0 f i DXUT.obj
 0001:000e0930       ?SetFPS@DXUTState@@QAEXM@Z 100e1930 f i DXUT.obj
 0001:000e09c0       ?SetFrameMoveFunc@DXUTState@@QAEXP6GXPAUIDirect3DDevice9@@NMPAX@Z@Z 100e19c0 f i DXUT.obj
 0001:000e0a40       ?SetFrameMoveFuncUserContext@DXUTState@@QAEXPAX@Z 100e1a40 f i DXUT.obj
 0001:000e0ac0       ?SetFrameRenderFunc@DXUTState@@QAEXP6GXPAUIDirect3DDevice9@@NMPAX@Z@Z 100e1ac0 f i DXUT.obj
 0001:000e0b40       ?SetFrameRenderFuncUserContext@DXUTState@@QAEXPAX@Z 100e1b40 f i DXUT.obj
 0001:000e0bc0       ?SetFullScreenBackBufferHeightAtModeChange@DXUTState@@QAEXI@Z 100e1bc0 f i DXUT.obj
 0001:000e0c40       ?SetFullScreenBackBufferWidthAtModeChange@DXUTState@@QAEXI@Z 100e1c40 f i DXUT.obj
 0001:000e0cc0       ?SetHInstance@DXUTState@@QAEXPAUHINSTANCE__@@@Z 100e1cc0 f i DXUT.obj
 0001:000e0d40       ?SetHWNDDeviceFullScreen@DXUTState@@QAEXPAUHWND__@@@Z 100e1d40 f i DXUT.obj
 0001:000e0dc0       ?SetHWNDDeviceWindowed@DXUTState@@QAEXPAUHWND__@@@Z 100e1dc0 f i DXUT.obj
 0001:000e0e40       ?SetHWNDFocus@DXUTState@@QAEXPAUHWND__@@@Z 100e1e40 f i DXUT.obj
 0001:000e0ec0       ?SetHandleDefaultHotkeys@DXUTState@@QAEX_N@Z 100e1ec0 f i DXUT.obj
 0001:000e0f40       ?SetIgnoreSizeChange@DXUTState@@QAEX_N@Z 100e1f40 f i DXUT.obj
 0001:000e0fc0       ?SetInSizeMove@DXUTState@@QAEX_N@Z 100e1fc0 f i DXUT.obj
 0001:000e1040       ?SetInsideDeviceCallback@DXUTState@@QAEX_N@Z 100e2040 f i DXUT.obj
 0001:000e10c0       ?SetInsideMainloop@DXUTState@@QAEX_N@Z 100e20c0 f i DXUT.obj
 0001:000e1140       ?SetIsDeviceAcceptableFunc@DXUTState@@QAEXP6G_NPAU_D3DCAPS9@@W4_D3DFORMAT@@1_NPAX@Z@Z 100e2140 f i DXUT.obj
 0001:000e11c0       ?SetIsDeviceAcceptableFuncUserContext@DXUTState@@QAEXPAX@Z 100e21c0 f i DXUT.obj
 0001:000e1240       ?SetKeyboardFunc@DXUTState@@QAEXP6GXI_N0PAX@Z@Z 100e2240 f i DXUT.obj
 0001:000e12c0       ?SetKeyboardFuncUserContext@DXUTState@@QAEXPAX@Z 100e22c0 f i DXUT.obj
 0001:000e1340       ?SetLastStatsUpdateFrames@DXUTState@@QAEXK@Z 100e2340 f i DXUT.obj
 0001:000e13c0       ?SetLastStatsUpdateTime@DXUTState@@QAEXN@Z 100e23c0 f i DXUT.obj
 0001:000e1450       ?SetMaximized@DXUTState@@QAEX_N@Z 100e2450 f i DXUT.obj
 0001:000e14d0       ?SetMenu@DXUTState@@QAEXPAUHMENU__@@@Z 100e24d0 f i DXUT.obj
 0001:000e1550       ?SetMinimized@DXUTState@@QAEX_N@Z 100e2550 f i DXUT.obj
 0001:000e15d0       ?SetMinimizedWhileFullscreen@DXUTState@@QAEX_N@Z 100e25d0 f i DXUT.obj
 0001:000e1650       ?SetModifyDeviceSettingsFunc@DXUTState@@QAEXP6G_NPAUDXUTDeviceSettings@@PBU_D3DCAPS9@@PAX@Z@Z 100e2650 f i DXUT.obj
 0001:000e16d0       ?SetModifyDeviceSettingsFuncUserContext@DXUTState@@QAEXPAX@Z 100e26d0 f i DXUT.obj
 0001:000e1750       ?SetMouseFunc@DXUTState@@QAEXP6GX_N0000HHHPAX@Z@Z 100e2750 f i DXUT.obj
 0001:000e17d0       ?SetMouseFuncUserContext@DXUTState@@QAEXPAX@Z 100e27d0 f i DXUT.obj
 0001:000e1850       ?SetNotifyOnMouseMove@DXUTState@@QAEX_N@Z 100e2850 f i DXUT.obj
 0001:000e18d0       ?SetOverrideAdapterOrdinal@DXUTState@@QAEXH@Z 100e28d0 f i DXUT.obj
 0001:000e1950       ?SetOverrideConstantFrameTime@DXUTState@@QAEX_N@Z 100e2950 f i DXUT.obj
 0001:000e19d0       ?SetOverrideConstantTimePerFrame@DXUTState@@QAEXM@Z 100e29d0 f i DXUT.obj
 0001:000e1a60       ?SetOverrideForceHAL@DXUTState@@QAEX_N@Z 100e2a60 f i DXUT.obj
 0001:000e1ae0       ?SetOverrideForceHWVP@DXUTState@@QAEX_N@Z 100e2ae0 f i DXUT.obj
 0001:000e1b60       ?SetOverrideForcePureHWVP@DXUTState@@QAEX_N@Z 100e2b60 f i DXUT.obj
 0001:000e1be0       ?SetOverrideForceREF@DXUTState@@QAEX_N@Z 100e2be0 f i DXUT.obj
 0001:000e1c60       ?SetOverrideForceSWVP@DXUTState@@QAEX_N@Z 100e2c60 f i DXUT.obj
 0001:000e1ce0       ?SetOverrideFullScreen@DXUTState@@QAEX_N@Z 100e2ce0 f i DXUT.obj
 0001:000e1d60       ?SetOverrideHeight@DXUTState@@QAEXH@Z 100e2d60 f i DXUT.obj
 0001:000e1de0       ?SetOverrideQuitAfterFrame@DXUTState@@QAEXH@Z 100e2de0 f i DXUT.obj
 0001:000e1e60       ?SetOverrideStartX@DXUTState@@QAEXH@Z 100e2e60 f i DXUT.obj
 0001:000e1ee0       ?SetOverrideStartY@DXUTState@@QAEXH@Z 100e2ee0 f i DXUT.obj
 0001:000e1f60       ?SetOverrideWidth@DXUTState@@QAEXH@Z 100e2f60 f i DXUT.obj
 0001:000e1fe0       ?SetOverrideWindowed@DXUTState@@QAEX_N@Z 100e2fe0 f i DXUT.obj
 0001:000e2060       ?SetPauseRenderingCount@DXUTState@@QAEXH@Z 100e3060 f i DXUT.obj
 0001:000e20e0       ?SetPauseTimeCount@DXUTState@@QAEXH@Z 100e30e0 f i DXUT.obj
 0001:000e2160       ?SetRenderingPaused@DXUTState@@QAEX_N@Z 100e3160 f i DXUT.obj
 0001:000e21e0       ?SetShowCursorWhenFullScreen@DXUTState@@QAEX_N@Z 100e31e0 f i DXUT.obj
 0001:000e2260       ?SetShowMsgBoxOnError@DXUTState@@QAEX_N@Z 100e3260 f i DXUT.obj
 0001:000e22e0       ?SetSize@?$CGrowableArray@H@@QAEJH@Z 100e32e0 f i DXUT.obj
 0001:000e23a0       ?SetSizeInternal@?$CGrowableArray@H@@IAEJH@Z 100e33a0 f i DXUT.obj
 0001:000e24f0       ?SetSizeInternal@?$CGrowableArray@UDXUT_TIMER@@@@IAEJH@Z 100e34f0 f i DXUT.obj
 0001:000e2640       ?SetStartupFilterKeys@DXUTState@@QAEXUtagFILTERKEYS@@@Z 100e3640 f i DXUT.obj
 0001:000e26e0       ?SetStartupStickyKeys@DXUTState@@QAEXUtagSTICKYKEYS@@@Z 100e36e0 f i DXUT.obj
 0001:000e2770       ?SetStartupToggleKeys@DXUTState@@QAEXUtagTOGGLEKEYS@@@Z 100e3770 f i DXUT.obj
 0001:000e2800       ?SetTime@DXUTState@@QAEXN@Z 100e3800 f i DXUT.obj
 0001:000e2890       ?SetTimePaused@DXUTState@@QAEX_N@Z 100e3890 f i DXUT.obj
 0001:000e2910       ?SetTimePerFrame@DXUTState@@QAEXM@Z 100e3910 f i DXUT.obj
 0001:000e29a0       ?SetTimerList@DXUTState@@QAEXPAV?$CGrowableArray@UDXUT_TIMER@@@@@Z 100e39a0 f i DXUT.obj
 0001:000e2a20       ?SetWindowBackBufferHeightAtModeChange@DXUTState@@QAEXI@Z 100e3a20 f i DXUT.obj
 0001:000e2aa0       ?SetWindowBackBufferWidthAtModeChange@DXUTState@@QAEXI@Z 100e3aa0 f i DXUT.obj
 0001:000e2b20       ?SetWindowCreateCalled@DXUTState@@QAEX_N@Z 100e3b20 f i DXUT.obj
 0001:000e2ba0       ?SetWindowCreated@DXUTState@@QAEX_N@Z 100e3ba0 f i DXUT.obj
 0001:000e2c20       ?SetWindowCreatedWithDefaultPositions@DXUTState@@QAEX_N@Z 100e3c20 f i DXUT.obj
 0001:000e2ca0       ?SetWindowMsgFunc@DXUTState@@QAEXP6GJPAUHWND__@@IIJPA_NPAX@Z@Z 100e3ca0 f i DXUT.obj
 0001:000e2d20       ?SetWindowMsgFuncUserContext@DXUTState@@QAEXPAX@Z 100e3d20 f i DXUT.obj
 0001:000e2da0       ?SetWindowedStyleAtModeChange@DXUTState@@QAEXK@Z 100e3da0 f i DXUT.obj
 0001:000e2e20       ?SetWireframeMode@DXUTState@@QAEX_N@Z 100e3e20 f i DXUT.obj
 0001:000e2ea0       ?StringCatWorkerA@@YGJPADIPBD@Z 100e3ea0 f i DXUT.obj
 0001:000e2f40       ?StringCchCatA@@YGJPADIPBD@Z 100e3f40 f i DXUT.obj
 0001:000e2fa0       ?StringCchCopyA@@YGJPADIPBD@Z 100e3fa0 f i DXUT.obj
 0001:000e3000       ?StringCchPrintfA@@YAJPADIPBDZZ 100e4000 f i DXUT.obj
 0001:000e3070       ?StringCopyWorkerA@@YGJPADIPBD@Z 100e4070 f i DXUT.obj
 0001:000e3110       ?StringLengthWorkerA@@YGJPBDIPAI@Z 100e4110 f i DXUT.obj
 0001:000e3190       ?StringVPrintfWorkerA@@YGJPADIPBD0@Z 100e4190 f i DXUT.obj
 0001:000e3240       ?abs@@YAJJ@Z               100e4240 f i DXUT.obj
 0001:000e3280       _HRESULT_FROM_WIN32        100e4280 f i DXUT.obj
 0001:000e32e0       _InitMultipleMonitorStubs  100e42e0 f   DXUT.obj
 0001:000e34f0       _IsPlatformNT              100e44f0 f   DXUT.obj
 0001:000e35d0       _xEnumDisplayDevices@16    100e45d0 f   DXUT.obj
 0001:000e36a0       _xEnumDisplayMonitors@16   100e46a0 f   DXUT.obj
 0001:000e38d0       _xGetMonitorInfo@8         100e48d0 f   DXUT.obj
 0001:000e3a50       _xGetSystemMetrics@4       100e4a50 f   DXUT.obj
 0001:000e3b20       _xMonitorFromPoint@12      100e4b20 f   DXUT.obj
 0001:000e3bd0       _xMonitorFromRect@8        100e4bd0 f   DXUT.obj
 0001:000e3c80       _xMonitorFromWindow@8      100e4c80 f   DXUT.obj
 0001:000e3d90       ??0?$CGrowableArray@I@@QAE@XZ 100e4d90 f i DXUTenum.obj
 0001:000e3de0       ??0?$CGrowableArray@K@@QAE@XZ 100e4de0 f i DXUTenum.obj
 0001:000e3e30       ??0?$CGrowableArray@PAUCD3DEnumDeviceSettingsCombo@@@@QAE@XZ 100e4e30 f i DXUTenum.obj
 0001:000e3e80       ??0?$CGrowableArray@PAVCD3DEnumAdapterInfo@@@@QAE@XZ 100e4e80 f i DXUTenum.obj
 0001:000e3ed0       ??0?$CGrowableArray@PAVCD3DEnumDeviceInfo@@@@QAE@XZ 100e4ed0 f i DXUTenum.obj
 0001:000e3f20       ??0?$CGrowableArray@UCD3DEnumDSMSConflict@@@@QAE@XZ 100e4f20 f i DXUTenum.obj
 0001:000e3f70       ??0?$CGrowableArray@U_D3DDISPLAYMODE@@@@QAE@XZ 100e4f70 f i DXUTenum.obj
 0001:000e3fc0       ??0?$CGrowableArray@W4_D3DFORMAT@@@@QAE@XZ 100e4fc0 f i DXUTenum.obj
 0001:000e4010       ??0?$CGrowableArray@W4_D3DMULTISAMPLE_TYPE@@@@QAE@XZ 100e5010 f i DXUTenum.obj
 0001:000e4060       ??0CD3DEnumAdapterInfo@@QAE@XZ 100e5060 f i DXUTenum.obj
 0001:000e40f0       ??0CD3DEnumDeviceInfo@@QAE@XZ 100e50f0 f i DXUTenum.obj
 0001:000e4140       ??0CD3DEnumDeviceSettingsCombo@@QAE@XZ 100e5140 f i DXUTenum.obj
 0001:000e4200       ??0CD3DEnumeration@@AAE@XZ 100e5200 f   DXUTenum.obj
 0001:000e4340       ??1?$CGrowableArray@I@@QAE@XZ 100e5340 f i DXUTenum.obj
 0001:000e4380       ??1?$CGrowableArray@K@@QAE@XZ 100e5380 f i DXUTenum.obj
 0001:000e43c0       ??1?$CGrowableArray@PAUCD3DEnumDeviceSettingsCombo@@@@QAE@XZ 100e53c0 f i DXUTenum.obj
 0001:000e4400       ??1?$CGrowableArray@PAVCD3DEnumAdapterInfo@@@@QAE@XZ 100e5400 f i DXUTenum.obj
 0001:000e4440       ??1?$CGrowableArray@PAVCD3DEnumDeviceInfo@@@@QAE@XZ 100e5440 f i DXUTenum.obj
 0001:000e4480       ??1?$CGrowableArray@UCD3DEnumDSMSConflict@@@@QAE@XZ 100e5480 f i DXUTenum.obj
 0001:000e44c0       ??1?$CGrowableArray@U_D3DDISPLAYMODE@@@@QAE@XZ 100e54c0 f i DXUTenum.obj
 0001:000e4500       ??1?$CGrowableArray@W4_D3DFORMAT@@@@QAE@XZ 100e5500 f i DXUTenum.obj
 0001:000e4540       ??1?$CGrowableArray@W4_D3DMULTISAMPLE_TYPE@@@@QAE@XZ 100e5540 f i DXUTenum.obj
 0001:000e4580       ??1CD3DEnumAdapterInfo@@QAE@XZ 100e5580 f   DXUTenum.obj
 0001:000e46a0       ??1CD3DEnumDeviceInfo@@QAE@XZ 100e56a0 f   DXUTenum.obj
 0001:000e47b0       ??1CD3DEnumDeviceSettingsCombo@@QAE@XZ 100e57b0 f i DXUTenum.obj
 0001:000e4870       ??1CD3DEnumeration@@QAE@XZ 100e5870 f   DXUTenum.obj
 0001:000e4920       ??_GCD3DEnumAdapterInfo@@QAEPAXI@Z 100e5920 f i DXUTenum.obj
 0001:000e4980       ??_GCD3DEnumDeviceInfo@@QAEPAXI@Z 100e5980 f i DXUTenum.obj
 0001:000e49e0       ??_GCD3DEnumDeviceSettingsCombo@@QAEPAXI@Z 100e59e0 f i DXUTenum.obj
 0001:000e4a40       ?Add@?$CGrowableArray@I@@QAEJABI@Z 100e5a40 f i DXUTenum.obj
 0001:000e4ae0       ?Add@?$CGrowableArray@K@@QAEJABK@Z 100e5ae0 f i DXUTenum.obj
 0001:000e4b80       ?Add@?$CGrowableArray@PAUCD3DEnumDeviceSettingsCombo@@@@QAEJABQAUCD3DEnumDeviceSettingsCombo@@@Z 100e5b80 f i DXUTenum.obj
 0001:000e4c20       ?Add@?$CGrowableArray@PAVCD3DEnumAdapterInfo@@@@QAEJABQAVCD3DEnumAdapterInfo@@@Z 100e5c20 f i DXUTenum.obj
 0001:000e4cc0       ?Add@?$CGrowableArray@PAVCD3DEnumDeviceInfo@@@@QAEJABQAVCD3DEnumDeviceInfo@@@Z 100e5cc0 f i DXUTenum.obj
 0001:000e4d60       ?Add@?$CGrowableArray@UCD3DEnumDSMSConflict@@@@QAEJABUCD3DEnumDSMSConflict@@@Z 100e5d60 f i DXUTenum.obj
 0001:000e4e10       ?Add@?$CGrowableArray@U_D3DDISPLAYMODE@@@@QAEJABU_D3DDISPLAYMODE@@@Z 100e5e10 f i DXUTenum.obj
 0001:000e4ed0       ?Add@?$CGrowableArray@W4_D3DFORMAT@@@@QAEJABW4_D3DFORMAT@@@Z 100e5ed0 f i DXUTenum.obj
 0001:000e4f70       ?Add@?$CGrowableArray@W4_D3DMULTISAMPLE_TYPE@@@@QAEJABW4_D3DMULTISAMPLE_TYPE@@@Z 100e5f70 f i DXUTenum.obj
 0001:000e5010       ?BuildDSMSConflictList@CD3DEnumeration@@AAEXPAUCD3DEnumDeviceSettingsCombo@@@Z 100e6010 f   DXUTenum.obj
 0001:000e5150       ?BuildDepthStencilFormatList@CD3DEnumeration@@AAEXPAUCD3DEnumDeviceSettingsCombo@@@Z 100e6150 f   DXUTenum.obj
 0001:000e5290       ?BuildMultiSampleTypeList@CD3DEnumeration@@AAEXPAUCD3DEnumDeviceSettingsCombo@@@Z 100e6290 f   DXUTenum.obj
 0001:000e53d0       ?BuildPresentIntervalList@CD3DEnumeration@@AAEXPAVCD3DEnumDeviceInfo@@PAUCD3DEnumDeviceSettingsCombo@@@Z 100e63d0 f   DXUTenum.obj
 0001:000e54b0       ?ClearAdapterInfoList@CD3DEnumeration@@AAEXXZ 100e64b0 f   DXUTenum.obj
 0001:000e5570       ?DXUTAlphaChannelBits@@YAIW4_D3DFORMAT@@@Z 100e6570 f   DXUTenum.obj
 0001:000e5660       ?DXUTColorChannelBits@@YAIW4_D3DFORMAT@@@Z 100e6660 f   DXUTenum.obj
 0001:000e5760       ?DXUTDepthBits@@YAIW4_D3DFORMAT@@@Z 100e6760 f   DXUTenum.obj
 0001:000e5800       ?DXUTGetEnumeration@@YAPAVCD3DEnumeration@@XZ 100e6800 f   DXUTenum.obj
 0001:000e58a0       ?DXUTStencilBits@@YAIW4_D3DFORMAT@@@Z 100e68a0 f   DXUTenum.obj
 0001:000e5940       ?Enumerate@CD3DEnumeration@@QAEJPAUIDirect3D9@@P6G_NPAU_D3DCAPS9@@W4_D3DFORMAT@@2_NPAX@Z4@Z 100e6940 f   DXUTenum.obj
 0001:000e6050       ?EnumerateDeviceCombos@CD3DEnumeration@@AAEJPAVCD3DEnumAdapterInfo@@PAVCD3DEnumDeviceInfo@@PAV?$CGrowableArray@W4_D3DFORMAT@@@@@Z 100e7050 f   DXUTenum.obj
 0001:000e6460       ?EnumerateDevices@CD3DEnumeration@@AAEJPAVCD3DEnumAdapterInfo@@PAV?$CGrowableArray@W4_D3DFORMAT@@@@@Z 100e7460 f   DXUTenum.obj
 0001:000e6720       ?GetAdapterInfo@CD3DEnumeration@@QAEPAVCD3DEnumAdapterInfo@@I@Z 100e7720 f   DXUTenum.obj
 0001:000e67b0       ?GetAdapterInfoList@CD3DEnumeration@@QAEPAV?$CGrowableArray@PAVCD3DEnumAdapterInfo@@@@XZ 100e77b0 f   DXUTenum.obj
 0001:000e67e0       ?GetAt@?$CGrowableArray@I@@QAEAAIH@Z 100e77e0 f i DXUTenum.obj
 0001:000e6850       ?GetData@?$CGrowableArray@U_D3DDISPLAYMODE@@@@QAEPAU_D3DDISPLAYMODE@@XZ 100e7850 f i DXUTenum.obj
 0001:000e6880       ?GetDeviceInfo@CD3DEnumeration@@QAEPAVCD3DEnumDeviceInfo@@IW4_D3DDEVTYPE@@@Z 100e7880 f   DXUTenum.obj
 0001:000e6920       ?GetDeviceSettingsCombo@CD3DEnumeration@@QAEPAUCD3DEnumDeviceSettingsCombo@@IW4_D3DDEVTYPE@@W4_D3DFORMAT@@1H@Z 100e7920 f   DXUTenum.obj
 0001:000e69e0       ?GetPossibleDepthStencilFormatList@CD3DEnumeration@@QAEPAV?$CGrowableArray@W4_D3DFORMAT@@@@XZ 100e79e0 f   DXUTenum.obj
 0001:000e6a10       ?GetPossibleMultisampleTypeList@CD3DEnumeration@@QAEPAV?$CGrowableArray@W4_D3DMULTISAMPLE_TYPE@@@@XZ 100e7a10 f   DXUTenum.obj
 0001:000e6a40       ?GetPossiblePresentIntervalList@CD3DEnumeration@@QAEPAV?$CGrowableArray@I@@XZ 100e7a40 f   DXUTenum.obj
 0001:000e6a70       ?GetPossibleVertexProcessingList@CD3DEnumeration@@QAEXPA_N000@Z 100e7a70 f   DXUTenum.obj
 0001:000e6ad0       ?GetSize@?$CGrowableArray@I@@QBEHXZ 100e7ad0 f i DXUTenum.obj
 0001:000e6b00       ?RemoveAll@?$CGrowableArray@I@@QAEXXZ 100e7b00 f i DXUTenum.obj
 0001:000e6b50       ?RemoveAll@?$CGrowableArray@K@@QAEXXZ 100e7b50 f i DXUTenum.obj
 0001:000e6ba0       ?RemoveAll@?$CGrowableArray@PAUCD3DEnumDeviceSettingsCombo@@@@QAEXXZ 100e7ba0 f i DXUTenum.obj
 0001:000e6bf0       ?RemoveAll@?$CGrowableArray@PAVCD3DEnumAdapterInfo@@@@QAEXXZ 100e7bf0 f i DXUTenum.obj
 0001:000e6c40       ?RemoveAll@?$CGrowableArray@PAVCD3DEnumDeviceInfo@@@@QAEXXZ 100e7c40 f i DXUTenum.obj
 0001:000e6c90       ?RemoveAll@?$CGrowableArray@UCD3DEnumDSMSConflict@@@@QAEXXZ 100e7c90 f i DXUTenum.obj
 0001:000e6ce0       ?RemoveAll@?$CGrowableArray@U_D3DDISPLAYMODE@@@@QAEXXZ 100e7ce0 f i DXUTenum.obj
 0001:000e6d30       ?RemoveAll@?$CGrowableArray@W4_D3DFORMAT@@@@QAEXXZ 100e7d30 f i DXUTenum.obj
 0001:000e6d80       ?RemoveAll@?$CGrowableArray@W4_D3DMULTISAMPLE_TYPE@@@@QAEXXZ 100e7d80 f i DXUTenum.obj
 0001:000e6dd0       ?ResetPossibleDepthStencilFormats@CD3DEnumeration@@QAEXXZ 100e7dd0 f   DXUTenum.obj
 0001:000e6ec0       ?ResetPossibleMultisampleTypeList@CD3DEnumeration@@QAEXXZ 100e7ec0 f   DXUTenum.obj
 0001:000e70e0       ?ResetPossiblePresentIntervalList@CD3DEnumeration@@QAEXXZ 100e80e0 f   DXUTenum.obj
 0001:000e71d0       ?SetMultisampleQualityMax@CD3DEnumeration@@QAEXI@Z 100e81d0 f   DXUTenum.obj
 0001:000e7220       ?SetPossibleVertexProcessingList@CD3DEnumeration@@QAEX_N000@Z 100e8220 f   DXUTenum.obj
 0001:000e7270       ?SetRefreshMinMax@CD3DEnumeration@@QAEXII@Z 100e8270 f   DXUTenum.obj
 0001:000e72b0       ?SetResolutionMinMax@CD3DEnumeration@@QAEXIIII@Z 100e82b0 f   DXUTenum.obj
 0001:000e7300       ?SetSize@?$CGrowableArray@I@@QAEJH@Z 100e8300 f i DXUTenum.obj
 0001:000e73c0       ?SetSize@?$CGrowableArray@K@@QAEJH@Z 100e83c0 f i DXUTenum.obj
 0001:000e7480       ?SetSize@?$CGrowableArray@PAUCD3DEnumDeviceSettingsCombo@@@@QAEJH@Z 100e8480 f i DXUTenum.obj
 0001:000e7540       ?SetSize@?$CGrowableArray@PAVCD3DEnumAdapterInfo@@@@QAEJH@Z 100e8540 f i DXUTenum.obj
 0001:000e7600       ?SetSize@?$CGrowableArray@PAVCD3DEnumDeviceInfo@@@@QAEJH@Z 100e8600 f i DXUTenum.obj
 0001:000e76c0       ?SetSize@?$CGrowableArray@UCD3DEnumDSMSConflict@@@@QAEJH@Z 100e86c0 f i DXUTenum.obj
 0001:000e7780       ?SetSize@?$CGrowableArray@U_D3DDISPLAYMODE@@@@QAEJH@Z 100e8780 f i DXUTenum.obj
 0001:000e7840       ?SetSize@?$CGrowableArray@W4_D3DFORMAT@@@@QAEJH@Z 100e8840 f i DXUTenum.obj
 0001:000e7900       ?SetSize@?$CGrowableArray@W4_D3DMULTISAMPLE_TYPE@@@@QAEJH@Z 100e8900 f i DXUTenum.obj
 0001:000e79c0       ?SetSizeInternal@?$CGrowableArray@I@@IAEJH@Z 100e89c0 f i DXUTenum.obj
 0001:000e7b10       ?SetSizeInternal@?$CGrowableArray@K@@IAEJH@Z 100e8b10 f i DXUTenum.obj
 0001:000e7c60       ?SetSizeInternal@?$CGrowableArray@PAUCD3DEnumDeviceSettingsCombo@@@@IAEJH@Z 100e8c60 f i DXUTenum.obj
 0001:000e7db0       ?SetSizeInternal@?$CGrowableArray@PAVCD3DEnumAdapterInfo@@@@IAEJH@Z 100e8db0 f i DXUTenum.obj
 0001:000e7f00       ?SetSizeInternal@?$CGrowableArray@PAVCD3DEnumDeviceInfo@@@@IAEJH@Z 100e8f00 f i DXUTenum.obj
 0001:000e8050       ?SetSizeInternal@?$CGrowableArray@UCD3DEnumDSMSConflict@@@@IAEJH@Z 100e9050 f i DXUTenum.obj
 0001:000e81a0       ?SetSizeInternal@?$CGrowableArray@U_D3DDISPLAYMODE@@@@IAEJH@Z 100e91a0 f i DXUTenum.obj
 0001:000e82f0       ?SetSizeInternal@?$CGrowableArray@W4_D3DFORMAT@@@@IAEJH@Z 100e92f0 f i DXUTenum.obj
 0001:000e8440       ?SetSizeInternal@?$CGrowableArray@W4_D3DMULTISAMPLE_TYPE@@@@IAEJH@Z 100e9440 f i DXUTenum.obj
 0001:000e8670       ?Dummy_ScriptApplyDigitSubstitution@CUniBuffer@@CGJPBUtag_SCRIPT_DIGITSUBSTITUTE@@PAUtag_SCRIPT_CONTROL@@PAUtag_SCRIPT_STATE@@@Z 100e9670 f i DXUTgui.obj
 0001:000e86a0       ?Dummy_ScriptStringAnalyse@CUniBuffer@@CGJPAUHDC__@@PBXHHHKHPAUtag_SCRIPT_CONTROL@@PAUtag_SCRIPT_STATE@@PBHPAUtag_SCRIPT_TABDEF@@PBEPAPAX@Z 100e96a0 f i DXUTgui.obj
 0001:000e86d0       ?Dummy_ScriptStringCPtoX@CUniBuffer@@CGJPAXHHPAH@Z 100e96d0 f i DXUTgui.obj
 0001:000e8700       ?Dummy_ScriptStringXtoCP@CUniBuffer@@CGJPAXHPAH1@Z 100e9700 f i DXUTgui.obj
 0001:000e8730       ?Dummy_ScriptStringFree@CUniBuffer@@CGJPAPAX@Z 100e9730 f i DXUTgui.obj
 0001:000e8760       ?Dummy_ScriptString_pLogAttr@CUniBuffer@@CGPBUtag_SCRIPT_LOGATTR@@PAX@Z 100e9760 f i DXUTgui.obj
 0001:000e8790       ?Dummy_ScriptString_pcOutChars@CUniBuffer@@CGPBHPAX@Z 100e9790 f i DXUTgui.obj
 0001:000e87c0       ?Dummy_ImmLockIMC@CDXUTIMEEditBox@@KGPAU__MIDL___MIDL_itf_dimm_0000_0000_0012@@PAUHIMC__@@@Z 100e97c0 f i DXUTgui.obj
 0001:000e87f0       ?Dummy_ImmUnlockIMC@CDXUTIMEEditBox@@KGHPAUHIMC__@@@Z 100e97f0 f i DXUTgui.obj
 0001:000e8820       ?Dummy_ImmLockIMCC@CDXUTIMEEditBox@@KGPAXPAUHIMCC__@@@Z 100e9820 f i DXUTgui.obj
 0001:000e8850       ?Dummy_ImmUnlockIMCC@CDXUTIMEEditBox@@KGHPAUHIMCC__@@@Z 100e9850 f i DXUTgui.obj
 0001:000e8880       ?Dummy_ImmDisableTextFrameService@CDXUTIMEEditBox@@KGHK@Z 100e9880 f i DXUTgui.obj
 0001:000e88b0       ?Dummy_ImmGetCompositionStringW@CDXUTIMEEditBox@@KGJPAUHIMC__@@KPAXK@Z 100e98b0 f i DXUTgui.obj
 0001:000e88e0       ?Dummy_ImmGetCandidateListW@CDXUTIMEEditBox@@KGKPAUHIMC__@@KPAUtagCANDIDATELIST@@K@Z 100e98e0 f i DXUTgui.obj
 0001:000e8910       ?Dummy_ImmGetContext@CDXUTIMEEditBox@@KGPAUHIMC__@@PAUHWND__@@@Z 100e9910 f i DXUTgui.obj
 0001:000e8940       ?Dummy_ImmReleaseContext@CDXUTIMEEditBox@@KGHPAUHWND__@@PAUHIMC__@@@Z 100e9940 f i DXUTgui.obj
 0001:000e8970       ?Dummy_ImmAssociateContext@CDXUTIMEEditBox@@KGPAUHIMC__@@PAUHWND__@@PAU2@@Z 100e9970 f i DXUTgui.obj
 0001:000e89a0       ?Dummy_ImmGetOpenStatus@CDXUTIMEEditBox@@KGHPAUHIMC__@@@Z 100e99a0 f i DXUTgui.obj
 0001:000e89d0       ?Dummy_ImmSetOpenStatus@CDXUTIMEEditBox@@KGHPAUHIMC__@@H@Z 100e99d0 f i DXUTgui.obj
 0001:000e8a00       ?Dummy_ImmGetConversionStatus@CDXUTIMEEditBox@@KGHPAUHIMC__@@PAK1@Z 100e9a00 f i DXUTgui.obj
 0001:000e8a30       ?Dummy_ImmGetDefaultIMEWnd@CDXUTIMEEditBox@@KGPAUHWND__@@PAU2@@Z 100e9a30 f i DXUTgui.obj
 0001:000e8a60       ?Dummy_ImmGetIMEFileNameA@CDXUTIMEEditBox@@KGIPAUHKL__@@PADI@Z 100e9a60 f i DXUTgui.obj
 0001:000e8a90       ?Dummy_ImmGetVirtualKey@CDXUTIMEEditBox@@KGIPAUHWND__@@@Z 100e9a90 f i DXUTgui.obj
 0001:000e8ac0       ?Dummy_ImmNotifyIME@CDXUTIMEEditBox@@KGHPAUHIMC__@@KKK@Z 100e9ac0 f i DXUTgui.obj
 0001:000e8af0       ?Dummy_ImmSetConversionStatus@CDXUTIMEEditBox@@KGHPAUHIMC__@@KK@Z 100e9af0 f i DXUTgui.obj
 0001:000e8b20       ?Dummy_ImmSimulateHotKey@CDXUTIMEEditBox@@KGHPAUHWND__@@K@Z 100e9b20 f i DXUTgui.obj
 0001:000e8b50       ?Dummy_ImmIsIME@CDXUTIMEEditBox@@KGHPAUHKL__@@@Z 100e9b50 f i DXUTgui.obj
 0001:000e8b80       ?Dummy_GetReadingString@CDXUTIMEEditBox@@KGIPAUHIMC__@@IPADPAH2PAI@Z 100e9b80 f i DXUTgui.obj
 0001:000e8bb0       ?Dummy_ShowReadingWindow@CDXUTIMEEditBox@@KGHPAUHIMC__@@H@Z 100e9bb0 f i DXUTgui.obj
 0001:000e8be0       ?Dummy_VerQueryValueA@CDXUTIMEEditBox@@KGHQAXPADPAPAXPAI@Z 100e9be0 f i DXUTgui.obj
 0001:000e8c10       ?Dummy_GetFileVersionInfoA@CDXUTIMEEditBox@@KGHPADKKPAX@Z 100e9c10 f i DXUTgui.obj
 0001:000e8c40       ?Dummy_GetFileVersionInfoSizeA@CDXUTIMEEditBox@@KGKPADPAK@Z 100e9c40 f i DXUTgui.obj
 0001:000e8c70       ??0?$CGrowableArray@PAUDXUTComboBoxItem@@@@QAE@XZ 100e9c70 f i DXUTgui.obj
 0001:000e8cc0       ??0?$CGrowableArray@PAUDXUTElementHolder@@@@QAE@XZ 100e9cc0 f i DXUTgui.obj
 0001:000e8d10       ??0?$CGrowableArray@PAUDXUTFontNode@@@@QAE@XZ 100e9d10 f i DXUTgui.obj
 0001:000e8d60       ??0?$CGrowableArray@PAUDXUTListBoxItem@@@@QAE@XZ 100e9d60 f i DXUTgui.obj
 0001:000e8db0       ??0?$CGrowableArray@PAUDXUTTextureNode@@@@QAE@XZ 100e9db0 f i DXUTgui.obj
 0001:000e8e00       ??0?$CGrowableArray@PAVCDXUTControl@@@@QAE@XZ 100e9e00 f i DXUTgui.obj
 0001:000e8e50       ??0?$CGrowableArray@PAVCDXUTElement@@@@QAE@XZ 100e9e50 f i DXUTgui.obj
 0001:000e8ea0       ??0?$CGrowableArray@UCInputLocale@CDXUTIMEEditBox@@@@QAE@XZ 100e9ea0 f i DXUTgui.obj
 0001:000e8ef0       ??0CCandList@CDXUTIMEEditBox@@QAE@XZ 100e9ef0 f i DXUTgui.obj
 0001:000e8f40       ??0CDXUTButton@@QAE@PAVCDXUTDialog@@@Z 100e9f40 f   DXUTgui.obj
 0001:000e8fc0       ??0CDXUTCheckBox@@QAE@PAVCDXUTDialog@@@Z 100e9fc0 f   DXUTgui.obj
 0001:000e9030       ??0CDXUTComboBox@@QAE@PAVCDXUTDialog@@@Z 100ea030 f   DXUTgui.obj
 0001:000e9130       ??0CDXUTControl@@QAE@PAVCDXUTDialog@@@Z 100ea130 f   DXUTgui.obj
 0001:000e9220       ??0CDXUTDialog@@QAE@XZ     100ea220 f   DXUTgui.obj
 0001:000e9400       ??0CDXUTDialogResourceManager@@QAE@XZ 100ea400 f   DXUTgui.obj
 0001:000e94b0       ??0CDXUTEditBox@@QAE@PAVCDXUTDialog@@@Z 100ea4b0 f   DXUTgui.obj
 0001:000e9660       ??0CDXUTElement@@QAE@XZ    100ea660 f i DXUTgui.obj
 0001:000e96b0       ??0CDXUTIMEEditBox@@QAE@PAVCDXUTDialog@@@Z 100ea6b0 f   DXUTgui.obj
 0001:000e9850       ??0CDXUTListBox@@QAE@PAVCDXUTDialog@@@Z 100ea850 f   DXUTgui.obj
 0001:000e9970       ??0CDXUTRadioButton@@QAE@PAVCDXUTDialog@@@Z 100ea970 f   DXUTgui.obj
 0001:000e99e0       ??0CDXUTScrollBar@@QAE@PAVCDXUTDialog@@@Z 100ea9e0 f   DXUTgui.obj
 0001:000e9b20       ??0CDXUTSlider@@QAE@PAVCDXUTDialog@@@Z 100eab20 f   DXUTgui.obj
 0001:000e9bb0       ??0CDXUTStatic@@QAE@PAVCDXUTDialog@@@Z 100eabb0 f   DXUTgui.obj
 0001:000e9cd0       ??0CUniBuffer@@QAE@H@Z     100eacd0 f   DXUTgui.obj
 0001:000e9d60       ??0D3DXCOLOR@@QAE@K@Z      100ead60 f i DXUTgui.obj
 0001:000e9e00       ??0D3DXCOLOR@@QAE@XZ       100eae00 f i DXUTgui.obj
 0001:000e9e30       ??0DXUTBlendColor@@QAE@XZ  100eae30 f i DXUTgui.obj
 0001:000e9e80       ??0DXUTElementHolder@@QAE@XZ 100eae80 f i DXUTgui.obj
 0001:000e9ed0       ??0_D3DXMATRIXA16@@QAE@XZ  100eaed0 f i DXUTgui.obj
 0001:000e9f20       ??1?$CGrowableArray@PAUDXUTComboBoxItem@@@@QAE@XZ 100eaf20 f i DXUTgui.obj
 0001:000e9f60       ??1?$CGrowableArray@PAUDXUTElementHolder@@@@QAE@XZ 100eaf60 f i DXUTgui.obj
 0001:000e9fa0       ??1?$CGrowableArray@PAUDXUTFontNode@@@@QAE@XZ 100eafa0 f i DXUTgui.obj
 0001:000e9fe0       ??1?$CGrowableArray@PAUDXUTListBoxItem@@@@QAE@XZ 100eafe0 f i DXUTgui.obj
 0001:000ea020       ??1?$CGrowableArray@PAUDXUTTextureNode@@@@QAE@XZ 100eb020 f i DXUTgui.obj
 0001:000ea060       ??1?$CGrowableArray@PAVCDXUTControl@@@@QAE@XZ 100eb060 f i DXUTgui.obj
 0001:000ea0a0       ??1?$CGrowableArray@PAVCDXUTElement@@@@QAE@XZ 100eb0a0 f i DXUTgui.obj
 0001:000ea0e0       ??1?$CGrowableArray@UCInputLocale@CDXUTIMEEditBox@@@@QAE@XZ 100eb0e0 f i DXUTgui.obj
 0001:000ea120       ??1CCandList@CDXUTIMEEditBox@@QAE@XZ 100eb120 f i DXUTgui.obj
 0001:000ea170       ??1CDXUTButton@@UAE@XZ     100eb170 f i DXUTgui.obj
 0001:000ea1b0       ??1CDXUTCheckBox@@UAE@XZ   100eb1b0 f i DXUTgui.obj
 0001:000ea1f0       ??1CDXUTComboBox@@UAE@XZ   100eb1f0 f   DXUTgui.obj
 0001:000ea2a0       ??1CDXUTControl@@UAE@XZ    100eb2a0 f   DXUTgui.obj
 0001:000ea380       ??1CDXUTDialog@@QAE@XZ     100eb380 f   DXUTgui.obj
 0001:000ea4d0       ??1CDXUTDialogResourceManager@@QAE@XZ 100eb4d0 f   DXUTgui.obj
 0001:000ea640       ??1CDXUTEditBox@@UAE@XZ    100eb640 f   DXUTgui.obj
 0001:000ea6d0       ??1CDXUTIMEEditBox@@UAE@XZ 100eb6d0 f   DXUTgui.obj
 0001:000ea720       ??1CDXUTListBox@@UAE@XZ    100eb720 f   DXUTgui.obj
 0001:000ea7d0       ??1CDXUTRadioButton@@UAE@XZ 100eb7d0 f i DXUTgui.obj
 0001:000ea810       ??1CDXUTScrollBar@@UAE@XZ  100eb810 f   DXUTgui.obj
 0001:000ea860       ??1CDXUTSlider@@UAE@XZ     100eb860 f i DXUTgui.obj
 0001:000ea8a0       ??1CDXUTStatic@@UAE@XZ     100eb8a0 f i DXUTgui.obj
 0001:000ea8e0       ??1CUniBuffer@@QAE@XZ      100eb8e0 f   DXUTgui.obj
 0001:000ea950       ??A?$CGrowableArray@PAUDXUTListBoxItem@@@@QAEAAPAUDXUTListBoxItem@@H@Z 100eb950 f i DXUTgui.obj
 0001:000ea9a0       ??A?$CGrowableArray@PAVCDXUTElement@@@@QAEAAPAVCDXUTElement@@H@Z 100eb9a0 f i DXUTgui.obj
 0001:000ea9f0       ??ACUniBuffer@@QAEAADH@Z   100eb9f0 f   DXUTgui.obj
 0001:000eaa30       ??BD3DXCOLOR@@QBEKXZ       100eba30 f i DXUTgui.obj
 0001:000eac50       ??_GCDXUTButton@@UAEPAXI@Z 100ebc50 f i DXUTgui.obj
 0001:000eac50       ??_ECDXUTButton@@UAEPAXI@Z 100ebc50 f i DXUTgui.obj
 0001:000eacb0       ??_ECDXUTCheckBox@@UAEPAXI@Z 100ebcb0 f i DXUTgui.obj
 0001:000eacb0       ??_GCDXUTCheckBox@@UAEPAXI@Z 100ebcb0 f i DXUTgui.obj
 0001:000ead10       ??_ECDXUTComboBox@@UAEPAXI@Z 100ebd10 f i DXUTgui.obj
 0001:000ead10       ??_GCDXUTComboBox@@UAEPAXI@Z 100ebd10 f i DXUTgui.obj
 0001:000ead70       ??_GCDXUTControl@@UAEPAXI@Z 100ebd70 f i DXUTgui.obj
 0001:000ead70       ??_ECDXUTControl@@UAEPAXI@Z 100ebd70 f i DXUTgui.obj
 0001:000eadd0       ??_GCDXUTEditBox@@UAEPAXI@Z 100ebdd0 f i DXUTgui.obj
 0001:000eadd0       ??_ECDXUTEditBox@@UAEPAXI@Z 100ebdd0 f i DXUTgui.obj
 0001:000eae30       ??_ECDXUTIMEEditBox@@UAEPAXI@Z 100ebe30 f i DXUTgui.obj
 0001:000eae30       ??_GCDXUTIMEEditBox@@UAEPAXI@Z 100ebe30 f i DXUTgui.obj
 0001:000eae90       ??_ECDXUTListBox@@UAEPAXI@Z 100ebe90 f i DXUTgui.obj
 0001:000eae90       ??_GCDXUTListBox@@UAEPAXI@Z 100ebe90 f i DXUTgui.obj
 0001:000eaef0       ??_ECDXUTRadioButton@@UAEPAXI@Z 100ebef0 f i DXUTgui.obj
 0001:000eaef0       ??_GCDXUTRadioButton@@UAEPAXI@Z 100ebef0 f i DXUTgui.obj
 0001:000eaf50       ??_GCDXUTScrollBar@@UAEPAXI@Z 100ebf50 f i DXUTgui.obj
 0001:000eaf50       ??_ECDXUTScrollBar@@UAEPAXI@Z 100ebf50 f i DXUTgui.obj
 0001:000eafb0       ??_ECDXUTSlider@@UAEPAXI@Z 100ebfb0 f i DXUTgui.obj
 0001:000eafb0       ??_GCDXUTSlider@@UAEPAXI@Z 100ebfb0 f i DXUTgui.obj
 0001:000eb010       ??_GCDXUTStatic@@UAEPAXI@Z 100ec010 f i DXUTgui.obj
 0001:000eb010       ??_ECDXUTStatic@@UAEPAXI@Z 100ec010 f i DXUTgui.obj
 0001:000eb070       ?Add@?$CGrowableArray@PAUDXUTComboBoxItem@@@@QAEJABQAUDXUTComboBoxItem@@@Z 100ec070 f i DXUTgui.obj
 0001:000eb110       ?Add@?$CGrowableArray@PAUDXUTElementHolder@@@@QAEJABQAUDXUTElementHolder@@@Z 100ec110 f i DXUTgui.obj
 0001:000eb1b0       ?Add@?$CGrowableArray@PAUDXUTFontNode@@@@QAEJABQAUDXUTFontNode@@@Z 100ec1b0 f i DXUTgui.obj
 0001:000eb250       ?Add@?$CGrowableArray@PAUDXUTListBoxItem@@@@QAEJABQAUDXUTListBoxItem@@@Z 100ec250 f i DXUTgui.obj
 0001:000eb2f0       ?Add@?$CGrowableArray@PAUDXUTTextureNode@@@@QAEJABQAUDXUTTextureNode@@@Z 100ec2f0 f i DXUTgui.obj
 0001:000eb390       ?Add@?$CGrowableArray@PAVCDXUTControl@@@@QAEJABQAVCDXUTControl@@@Z 100ec390 f i DXUTgui.obj
 0001:000eb430       ?Add@?$CGrowableArray@PAVCDXUTElement@@@@QAEJABQAVCDXUTElement@@@Z 100ec430 f i DXUTgui.obj
 0001:000eb4d0       ?Add@?$CGrowableArray@UCInputLocale@CDXUTIMEEditBox@@@@QAEJABUCInputLocale@CDXUTIMEEditBox@@@Z 100ec4d0 f i DXUTgui.obj
 0001:000eb580       ?AddButton@CDXUTDialog@@QAEJHPBDHHHHI_NPAPAVCDXUTButton@@@Z 100ec580 f   DXUTgui.obj
 0001:000eb6d0       ?AddCheckBox@CDXUTDialog@@QAEJHPBDHHHH_NI1PAPAVCDXUTCheckBox@@@Z 100ec6d0 f   DXUTgui.obj
 0001:000eb830       ?AddComboBox@CDXUTDialog@@QAEJHHHHHI_NPAPAVCDXUTComboBox@@@Z 100ec830 f   DXUTgui.obj
 0001:000eb980       ?AddControl@CDXUTDialog@@QAEJPAVCDXUTControl@@@Z 100ec980 f   DXUTgui.obj
 0001:000eba40       ?AddEditBox@CDXUTDialog@@QAEJHPBDHHHH_NPAPAVCDXUTEditBox@@@Z 100eca40 f   DXUTgui.obj
 0001:000ebb90       ?AddFont@CDXUTDialogResourceManager@@QAEHPBDJJ@Z 100ecb90 f   DXUTgui.obj
 0001:000ebd60       ?AddIMEEditBox@CDXUTDialog@@QAEJHPBDHHHH_NPAPAVCDXUTIMEEditBox@@@Z 100ecd60 f   DXUTgui.obj
 0001:000ebeb0       ?AddItem@CDXUTComboBox@@QAEJPBDPAX@Z 100eceb0 f   DXUTgui.obj
 0001:000ec010       ?AddItem@CDXUTListBox@@QAEJPBDPAX@Z 100ed010 f   DXUTgui.obj
 0001:000ec150       ?AddListBox@CDXUTDialog@@QAEJHHHHHKPAPAVCDXUTListBox@@@Z 100ed150 f   DXUTgui.obj
 0001:000ec290       ?AddRadioButton@CDXUTDialog@@QAEJHIPBDHHHH_NI1PAPAVCDXUTRadioButton@@@Z 100ed290 f   DXUTgui.obj
 0001:000ec410       ?AddSlider@CDXUTDialog@@QAEJHHHHHHHH_NPAPAVCDXUTSlider@@@Z 100ed410 f   DXUTgui.obj
 0001:000ec560       ?AddStatic@CDXUTDialog@@QAEJHPBDHHHH_NPAPAVCDXUTStatic@@@Z 100ed560 f   DXUTgui.obj
 0001:000ec6b0       ?AddTexture@CDXUTDialogResourceManager@@QAEHPBD@Z 100ed6b0 f   DXUTgui.obj
 0001:000ec840       ?Analyse@CUniBuffer@@AAEJXZ 100ed840 f   DXUTgui.obj
 0001:000eca00       ?Blend@DXUTBlendColor@@QAEXIMM@Z 100eda00 f   DXUTgui.obj
 0001:000ecae0       ?CPtoX@CUniBuffer@@QAEJHHPAH@Z 100edae0 f   DXUTgui.obj
 0001:000ecb90       ?CalcTextRect@CDXUTDialog@@QAEJPBDPAVCDXUTElement@@PAUtagRECT@@H@Z 100edb90 f   DXUTgui.obj
 0001:000ecc50       ?CanHaveFocus@CDXUTButton@@UAE_NXZ 100edc50 f i DXUTgui.obj
 0001:000eccb0       ?CanHaveFocus@CDXUTComboBox@@UAE_NXZ 100edcb0 f i DXUTgui.obj
 0001:000ecd10       ?CanHaveFocus@CDXUTControl@@UAE_NXZ 100edd10 f i DXUTgui.obj
 0001:000ecd40       ?CanHaveFocus@CDXUTEditBox@@UAE_NXZ 100edd40 f i DXUTgui.obj
 0001:000ecda0       ?CanHaveFocus@CDXUTListBox@@UAE_NXZ 100edda0 f i DXUTgui.obj
 0001:000ece00       ?CanHaveFocus@CDXUTSlider@@UAE_NXZ 100ede00 f i DXUTgui.obj
 0001:000ece60       ?Cap@CDXUTScrollBar@@IAEXXZ 100ede60 f   DXUTgui.obj
 0001:000ecf10       ?CheckInputLocale@CDXUTIMEEditBox@@KAXXZ 100edf10 f   DXUTgui.obj
 0001:000ed150       ?CheckToggleState@CDXUTIMEEditBox@@KAXXZ 100ee150 f   DXUTgui.obj
 0001:000ed320       ?Clear@CUniBuffer@@QAEXXZ  100ee320 f   DXUTgui.obj
 0001:000ed360       ?ClearComboBox@CDXUTDialog@@QAEXH@Z 100ee360 f   DXUTgui.obj
 0001:000ed3c0       ?ClearFocus@CDXUTDialog@@SAXXZ 100ee3c0 f   DXUTgui.obj
 0001:000ed430       ?ClearRadioButtonGroup@CDXUTDialog@@QAEXI@Z 100ee430 f   DXUTgui.obj
 0001:000ed4e0       ?ClearText@CDXUTEditBox@@QAEXXZ 100ee4e0 f   DXUTgui.obj
 0001:000ed550       ?ContainsItem@CDXUTComboBox@@QAE_NPBDI@Z 100ee550 f   DXUTgui.obj
 0001:000ed5c0       ?ContainsPoint@CDXUTButton@@UAEHUtagPOINT@@@Z 100ee5c0 f i DXUTgui.obj
 0001:000ed620       ?ContainsPoint@CDXUTCheckBox@@UAEHUtagPOINT@@@Z 100ee620 f   DXUTgui.obj
 0001:000ed6c0       ?ContainsPoint@CDXUTControl@@UAEHUtagPOINT@@@Z 100ee6c0 f i DXUTgui.obj
 0001:000ed720       ?ContainsPoint@CDXUTSlider@@UAEHUtagPOINT@@@Z 100ee720 f   DXUTgui.obj
 0001:000ed7c0       ?ContainsPoint@CDXUTStatic@@UAEHUtagPOINT@@@Z 100ee7c0 f i DXUTgui.obj
 0001:000ed7f0       ?CopyToClipboard@CDXUTEditBox@@IAEXXZ 100ee7f0 f   DXUTgui.obj
 0001:000ed9c0       ?CreateFontA@CDXUTDialogResourceManager@@QAEJI@Z 100ee9c0 f   DXUTgui.obj
 0001:000eda90       ?CreateTexture@CDXUTDialogResourceManager@@QAEJI@Z 100eea90 f   DXUTgui.obj
 0001:000edc30       ?D3DXColorLerp@@YAPAUD3DXCOLOR@@PAU1@PBU1@1M@Z 100eec30 f i DXUTgui.obj
 0001:000edcf0       ?DeleteSelectionText@CDXUTEditBox@@IAEXXZ 100eecf0 f   DXUTgui.obj
 0001:000eddf0       ?DrawPolyLine@CDXUTDialog@@QAEJPAUtagPOINT@@IK@Z 100eedf0 f   DXUTgui.obj
 0001:000ee0e0       ?DrawRect@CDXUTDialog@@QAEJPAUtagRECT@@K@Z 100ef0e0 f   DXUTgui.obj
 0001:000ee520       ?DrawSprite@CDXUTDialog@@QAEJPAVCDXUTElement@@PAUtagRECT@@@Z 100ef520 f   DXUTgui.obj
 0001:000ee830       ?DrawTextA@CDXUTDialog@@QAEJPBDPAVCDXUTElement@@PAUtagRECT@@_NH@Z 100ef830 f   DXUTgui.obj
 0001:000eeb40       ?EnableImeSystem@CDXUTIMEEditBox@@SAX_N@Z 100efb40 f   DXUTgui.obj
 0001:000eeb70       ?FinalizeString@CDXUTIMEEditBox@@IAEX_N@Z 100efb70 f   DXUTgui.obj
 0001:000eece0       ?FindItem@CDXUTComboBox@@QAEHPBDI@Z 100efce0 f   DXUTgui.obj
 0001:000eed80       ?FocusDefaultControl@CDXUTDialog@@QAEXXZ 100efd80 f   DXUTgui.obj
 0001:000eee30       ?GetAt@?$CGrowableArray@PAUDXUTComboBoxItem@@@@QAEAAPAUDXUTComboBoxItem@@H@Z 100efe30 f i DXUTgui.obj
 0001:000eeea0       ?GetAt@?$CGrowableArray@PAUDXUTElementHolder@@@@QAEAAPAUDXUTElementHolder@@H@Z 100efea0 f i DXUTgui.obj
 0001:000eef10       ?GetAt@?$CGrowableArray@PAUDXUTFontNode@@@@QAEAAPAUDXUTFontNode@@H@Z 100eff10 f i DXUTgui.obj
 0001:000eef80       ?GetAt@?$CGrowableArray@PAUDXUTListBoxItem@@@@QAEAAPAUDXUTListBoxItem@@H@Z 100eff80 f i DXUTgui.obj
 0001:000eeff0       ?GetAt@?$CGrowableArray@PAUDXUTTextureNode@@@@QAEAAPAUDXUTTextureNode@@H@Z 100efff0 f i DXUTgui.obj
 0001:000ef060       ?GetAt@?$CGrowableArray@PAVCDXUTControl@@@@QAEAAPAVCDXUTControl@@H@Z 100f0060 f i DXUTgui.obj
 0001:000ef0d0       ?GetAt@?$CGrowableArray@UCInputLocale@CDXUTIMEEditBox@@@@QAEAAUCInputLocale@CDXUTIMEEditBox@@H@Z 100f00d0 f i DXUTgui.obj
 0001:000ef140       ?GetBufferSize@CUniBuffer@@QAEHXZ 100f0140 f i DXUTgui.obj
 0001:000ef170       ?GetButtonGroup@CDXUTRadioButton@@QAEIXZ 100f0170 f i DXUTgui.obj
 0001:000ef1b0       ?GetComboBox@CDXUTDialog@@QAEPAVCDXUTComboBox@@H@Z 100f01b0 f i DXUTgui.obj
 0001:000ef200       ?GetControl@CDXUTDialog@@QAEPAVCDXUTControl@@H@Z 100f0200 f   DXUTgui.obj
 0001:000ef290       ?GetControl@CDXUTDialog@@QAEPAVCDXUTControl@@HI@Z 100f0290 f   DXUTgui.obj
 0001:000ef330       ?GetControlAtPoint@CDXUTDialog@@QAEPAVCDXUTControl@@UtagPOINT@@@Z 100f0330 f   DXUTgui.obj
 0001:000ef420       ?GetControlEnabled@CDXUTDialog@@QAE_NH@Z 100f0420 f   DXUTgui.obj
 0001:000ef490       ?GetD3DDevice@CDXUTDialogResourceManager@@QAEPAUIDirect3DDevice9@@XZ 100f0490 f i DXUTgui.obj
 0001:000ef4c0       ?GetDefaultElement@CDXUTDialog@@QAEPAVCDXUTElement@@II@Z 100f04c0 f   DXUTgui.obj
 0001:000ef560       ?GetEnabled@CDXUTControl@@UAE_NXZ 100f0560 f i DXUTgui.obj
 0001:000ef590       ?GetFont@CDXUTDialog@@QAEPAUDXUTFontNode@@I@Z 100f0590 f   DXUTgui.obj
 0001:000ef600       ?GetFontNode@CDXUTDialogResourceManager@@QAEPAUDXUTFontNode@@H@Z 100f0600 f i DXUTgui.obj
 0001:000ef650       ?GetHeight@CDXUTDialog@@QAEHXZ 100f0650 f i DXUTgui.obj
 0001:000ef690       ?GetHotkey@CDXUTControl@@QAEIXZ 100f0690 f i DXUTgui.obj
 0001:000ef6c0       ?GetID@CDXUTControl@@QBEHXZ 100f06c0 f i DXUTgui.obj
 0001:000ef6f0       ?GetImeId@CDXUTIMEEditBox@@KAKI@Z 100f06f0 f   DXUTgui.obj
 0001:000efb90       ?GetItem@CDXUTListBox@@QAEPAUDXUTListBoxItem@@H@Z 100f0b90 f   DXUTgui.obj
 0001:000efc00       ?GetItemData@CDXUTComboBox@@QAEPAXH@Z 100f0c00 f   DXUTgui.obj
 0001:000efc70       ?GetItemData@CDXUTComboBox@@QAEPAXPBD@Z 100f0c70 f   DXUTgui.obj
 0001:000efd10       ?GetLanguage@CDXUTIMEEditBox@@KAGXZ 100f0d10 f i DXUTgui.obj
 0001:000efd40       ?GetManager@CDXUTDialog@@QAEPAVCDXUTDialogResourceManager@@XZ 100f0d40 f i DXUTgui.obj
 0001:000efd80       ?GetNextControl@CDXUTDialog@@SAPAVCDXUTControl@@PAV2@@Z 100f0d80 f   DXUTgui.obj
 0001:000efe10       ?GetNextItemPos@CUniBuffer@@QAEXHPAH@Z 100f0e10 f   DXUTgui.obj
 0001:000effa0       ?GetNumItems@CDXUTComboBox@@QAEIXZ 100f0fa0 f i DXUTgui.obj
 0001:000efff0       ?GetPageSize@CDXUTScrollBar@@QAEHXZ 100f0ff0 f i DXUTgui.obj
 0001:000f0030       ?GetPrevControl@CDXUTDialog@@SAPAVCDXUTControl@@PAV2@@Z 100f1030 f   DXUTgui.obj
 0001:000f00d0       ?GetPrimaryLanguage@CDXUTIMEEditBox@@KAGXZ 100f10d0 f i DXUTgui.obj
 0001:000f0110       ?GetPriorItemPos@CUniBuffer@@QAEXHPAH@Z 100f1110 f   DXUTgui.obj
 0001:000f0250       ?GetPrivateReadingString@CDXUTIMEEditBox@@KAXXZ 100f1250 f   DXUTgui.obj
 0001:000f0280       ?GetReadingWindowOrientation@CDXUTIMEEditBox@@KAXK@Z 100f1280 f   DXUTgui.obj
 0001:000f0500       ?GetSelectedData@CDXUTComboBox@@QAEPAXXZ 100f1500 f   DXUTgui.obj
 0001:000f0570       ?GetSelectedIndex@CDXUTListBox@@QAEHH@Z 100f1570 f   DXUTgui.obj
 0001:000f0630       ?GetSelectedItem@CDXUTComboBox@@QAEPAUDXUTComboBoxItem@@XZ 100f1630 f   DXUTgui.obj
 0001:000f06a0       ?GetSize@?$CGrowableArray@H@@QBEHXZ 100f16a0 f i DXUTgui.obj
 0001:000f06d0       ?GetSize@?$CGrowableArray@PAUDXUTComboBoxItem@@@@QBEHXZ 100f16d0 f i DXUTgui.obj
 0001:000f0700       ?GetSize@?$CGrowableArray@PAUDXUTElementHolder@@@@QBEHXZ 100f1700 f i DXUTgui.obj
 0001:000f0730       ?GetSize@?$CGrowableArray@PAUDXUTFontNode@@@@QBEHXZ 100f1730 f i DXUTgui.obj
 0001:000f0760       ?GetSize@?$CGrowableArray@PAUDXUTListBoxItem@@@@QBEHXZ 100f1760 f i DXUTgui.obj
 0001:000f0790       ?GetSize@?$CGrowableArray@PAUDXUTTextureNode@@@@QBEHXZ 100f1790 f i DXUTgui.obj
 0001:000f07c0       ?GetSize@?$CGrowableArray@PAVCDXUTControl@@@@QBEHXZ 100f17c0 f i DXUTgui.obj
 0001:000f07f0       ?GetSize@?$CGrowableArray@PAVCDXUTElement@@@@QBEHXZ 100f17f0 f i DXUTgui.obj
 0001:000f0820       ?GetSize@?$CGrowableArray@UCInputLocale@CDXUTIMEEditBox@@@@QBEHXZ 100f1820 f i DXUTgui.obj
 0001:000f0850       ?GetSubLanguage@CDXUTIMEEditBox@@KAGXZ 100f1850 f i DXUTgui.obj
 0001:000f0890       ?GetTextCopy@CDXUTEditBox@@QAEJPADI@Z 100f1890 f   DXUTgui.obj
 0001:000f0910       ?GetTextCopy@CDXUTStatic@@QAEJPADI@Z 100f1910 f   DXUTgui.obj
 0001:000f0980       ?GetTextSize@CUniBuffer@@QAEHXZ 100f1980 f i DXUTgui.obj
 0001:000f09d0       ?GetTexture@CDXUTDialog@@QAEPAUDXUTTextureNode@@I@Z 100f19d0 f   DXUTgui.obj
 0001:000f0a40       ?GetTextureNode@CDXUTDialogResourceManager@@QAEPAUDXUTTextureNode@@H@Z 100f1a40 f i DXUTgui.obj
 0001:000f0a90       ?GetTrackPos@CDXUTScrollBar@@QAEHXZ 100f1a90 f i DXUTgui.obj
 0001:000f0ad0       ?GetType@CDXUTControl@@QBEIXZ 100f1ad0 f i DXUTgui.obj
 0001:000f0b00       ?GetVisible@CDXUTControl@@UAE_NXZ 100f1b00 f i DXUTgui.obj
 0001:000f0b30       ?GetWidth@CDXUTDialog@@QAEHXZ 100f1b30 f i DXUTgui.obj
 0001:000f0b70       ?HandleKeyboard@CDXUTButton@@UAE_NIIJ@Z 100f1b70 f   DXUTgui.obj
 0001:000f0c60       ?HandleKeyboard@CDXUTCheckBox@@UAE_NIIJ@Z 100f1c60 f   DXUTgui.obj
 0001:000f0d70       ?HandleKeyboard@CDXUTComboBox@@UAE_NIIJ@Z 100f1d70 f   DXUTgui.obj
 0001:000f1090       ?HandleKeyboard@CDXUTControl@@UAE_NIIJ@Z 100f2090 f i DXUTgui.obj
 0001:000f10c0       ?HandleKeyboard@CDXUTEditBox@@UAE_NIIJ@Z 100f20c0 f   DXUTgui.obj
 0001:000f14c0       ?HandleKeyboard@CDXUTListBox@@UAE_NIIJ@Z 100f24c0 f   DXUTgui.obj
 0001:000f18c0       ?HandleKeyboard@CDXUTRadioButton@@UAE_NIIJ@Z 100f28c0 f   DXUTgui.obj
 0001:000f1a00       ?HandleKeyboard@CDXUTScrollBar@@UAE_NIIJ@Z 100f2a00 f   DXUTgui.obj
 0001:000f1a30       ?HandleKeyboard@CDXUTSlider@@UAE_NIIJ@Z 100f2a30 f   DXUTgui.obj
 0001:000f1b50       ?HandleMouse@CDXUTButton@@UAE_NIUtagPOINT@@IJ@Z 100f2b50 f   DXUTgui.obj
 0001:000f1cd0       ?HandleMouse@CDXUTCheckBox@@UAE_NIUtagPOINT@@IJ@Z 100f2cd0 f   DXUTgui.obj
 0001:000f1e50       ?HandleMouse@CDXUTComboBox@@UAE_NIUtagPOINT@@IJ@Z 100f2e50 f   DXUTgui.obj
 0001:000f23f0       ?HandleMouse@CDXUTControl@@UAE_NIUtagPOINT@@IJ@Z 100f33f0 f i DXUTgui.obj
 0001:000f2420       ?HandleMouse@CDXUTEditBox@@UAE_NIUtagPOINT@@IJ@Z 100f3420 f   DXUTgui.obj
 0001:000f26e0       ?HandleMouse@CDXUTIMEEditBox@@UAE_NIUtagPOINT@@IJ@Z 100f36e0 f   DXUTgui.obj
 0001:000f2cf0       ?HandleMouse@CDXUTListBox@@UAE_NIUtagPOINT@@IJ@Z 100f3cf0 f   DXUTgui.obj
 0001:000f3690       ?HandleMouse@CDXUTRadioButton@@UAE_NIUtagPOINT@@IJ@Z 100f4690 f   DXUTgui.obj
 0001:000f3830       ?HandleMouse@CDXUTScrollBar@@UAE_NIUtagPOINT@@IJ@Z 100f4830 f   DXUTgui.obj
 0001:000f3c50       ?HandleMouse@CDXUTSlider@@UAE_NIUtagPOINT@@IJ@Z 100f4c50 f   DXUTgui.obj
 0001:000f3e90       ?Init@CDXUTDialog@@QAEXPAVCDXUTDialogResourceManager@@@Z 100f4e90 f   DXUTgui.obj
 0001:000f3ee0       ?Init@DXUTBlendColor@@QAEXKKK@Z 100f4ee0 f   DXUTgui.obj
 0001:000f3fa0       ?InitControl@CDXUTDialog@@QAEJPAVCDXUTControl@@@Z 100f4fa0 f   DXUTgui.obj
 0001:000f4060       ?InitDefaultElements@CDXUTDialog@@AAEXXZ 100f5060 f   DXUTgui.obj
 0001:000f4ef0       ?Initialize@CDXUTIMEEditBox@@SAXXZ 100f5ef0 f   DXUTgui.obj
 0001:000f5430       ?Initialize@CUniBuffer@@SAXXZ 100f6430 f   DXUTgui.obj
 0001:000f56d0       ?Insert@?$CGrowableArray@PAUDXUTListBoxItem@@@@QAEJHABQAUDXUTListBoxItem@@@Z 100f66d0 f i DXUTgui.obj
 0001:000f57d0       ?InsertChar@CUniBuffer@@QAE_NHD@Z 100f67d0 f   DXUTgui.obj
 0001:000f5940       ?InsertItem@CDXUTListBox@@QAEJHPBDPAX@Z 100f6940 f   DXUTgui.obj
 0001:000f5a90       ?InsertString@CUniBuffer@@QAE_NHPBDH@Z 100f6a90 f   DXUTgui.obj
 0001:000f5bf0       ?MsgProc@CDXUTControl@@UAE_NIIJ@Z 100f6bf0 f i DXUTgui.obj
 0001:000f5c20       ?MsgProc@CDXUTDialog@@QAE_NPAUHWND__@@IIJ@Z 100f6c20 f   DXUTgui.obj
 0001:000f6470       ?MsgProc@CDXUTDialogResourceManager@@QAE_NPAUHWND__@@IIJ@Z 100f7470 f   DXUTgui.obj
 0001:000f64d0       ?MsgProc@CDXUTEditBox@@UAE_NIIJ@Z 100f74d0 f   DXUTgui.obj
 0001:000f6830       ?MsgProc@CDXUTIMEEditBox@@UAE_NIIJ@Z 100f7830 f   DXUTgui.obj
 0001:000f7820       ?OnCreateDevice@CDXUTDialogResourceManager@@QAEJPAUIDirect3DDevice9@@@Z 100f8820 f   DXUTgui.obj
 0001:000f7930       ?OnCycleFocus@CDXUTDialog@@AAE_N_N@Z 100f8930 f   DXUTgui.obj
 0001:000f7a90       ?OnDestroyDevice@CDXUTDialogResourceManager@@QAEXXZ 100f8a90 f   DXUTgui.obj
 0001:000f7bf0       ?OnFocusIn@CDXUTControl@@UAEXXZ 100f8bf0 f i DXUTgui.obj
 0001:000f7c30       ?OnFocusIn@CDXUTEditBox@@UAEXXZ 100f8c30 f   DXUTgui.obj
 0001:000f7c80       ?OnFocusIn@CDXUTIMEEditBox@@UAEXXZ 100f8c80 f   DXUTgui.obj
 0001:000f7d60       ?OnFocusOut@CDXUTComboBox@@UAEXXZ 100f8d60 f   DXUTgui.obj
 0001:000f7db0       ?OnFocusOut@CDXUTControl@@UAEXXZ 100f8db0 f i DXUTgui.obj
 0001:000f7df0       ?OnFocusOut@CDXUTIMEEditBox@@UAEXXZ 100f8df0 f   DXUTgui.obj
 0001:000f7e50       ?OnHotkey@CDXUTButton@@UAEXXZ 100f8e50 f i DXUTgui.obj
 0001:000f7eb0       ?OnHotkey@CDXUTCheckBox@@UAEXXZ 100f8eb0 f i DXUTgui.obj
 0001:000f7f40       ?OnHotkey@CDXUTComboBox@@UAEXXZ 100f8f40 f   DXUTgui.obj
 0001:000f8010       ?OnHotkey@CDXUTControl@@UAEXXZ 100f9010 f i DXUTgui.obj
 0001:000f8040       ?OnHotkey@CDXUTRadioButton@@UAEXXZ 100f9040 f i DXUTgui.obj
 0001:000f80b0       ?OnInit@CDXUTComboBox@@UAEJXZ 100f90b0 f i DXUTgui.obj
 0001:000f8100       ?OnInit@CDXUTControl@@UAEJXZ 100f9100 f i DXUTgui.obj
 0001:000f8130       ?OnInit@CDXUTListBox@@UAEJXZ 100f9130 f i DXUTgui.obj
 0001:000f8180       ?OnLostDevice@CDXUTDialogResourceManager@@QAEXXZ 100f9180 f   DXUTgui.obj
 0001:000f8270       ?OnMouseEnter@CDXUTControl@@UAEXXZ 100f9270 f i DXUTgui.obj
 0001:000f82b0       ?OnMouseLeave@CDXUTControl@@UAEXXZ 100f92b0 f i DXUTgui.obj
 0001:000f82f0       ?OnMouseMove@CDXUTDialog@@AAEXUtagPOINT@@@Z 100f92f0 f   DXUTgui.obj
 0001:000f83a0       ?OnMouseUp@CDXUTDialog@@AAEXUtagPOINT@@@Z 100f93a0 f   DXUTgui.obj
 0001:000f83e0       ?OnRender@CDXUTDialog@@QAEJM@Z 100f93e0 f   DXUTgui.obj
 0001:000f8c60       ?OnResetDevice@CDXUTDialogResourceManager@@QAEJXZ 100f9c60 f   DXUTgui.obj
 0001:000f8d60       ?ParseFloatArray@CDXUTEditBox@@QAEXPAMH@Z 100f9d60 f   DXUTgui.obj
 0001:000f8ee0       ?PasteFromClipboard@CDXUTEditBox@@IAEXXZ 100f9ee0 f   DXUTgui.obj
 0001:000f8ff0       ?PlaceCaret@CDXUTEditBox@@IAEXH@Z 100f9ff0 f   DXUTgui.obj
 0001:000f91e0       ?RectHeight@@YAHAAUtagRECT@@@Z 100fa1e0 f i DXUTgui.obj
 0001:000f9220       ?RectWidth@@YAHAAUtagRECT@@@Z 100fa220 f i DXUTgui.obj
 0001:000f9250       ?Refresh@CDXUTControl@@UAEXXZ 100fa250 f   DXUTgui.obj
 0001:000f92e0       ?Refresh@CDXUTDialog@@QAEXXZ 100fa2e0 f   DXUTgui.obj
 0001:000f93f0       ?Refresh@CDXUTElement@@QAEXXZ 100fa3f0 f   DXUTgui.obj
 0001:000f94b0       ?Remove@?$CGrowableArray@PAUDXUTComboBoxItem@@@@QAEJH@Z 100fa4b0 f i DXUTgui.obj
 0001:000f9560       ?Remove@?$CGrowableArray@PAUDXUTListBoxItem@@@@QAEJH@Z 100fa560 f i DXUTgui.obj
 0001:000f9610       ?Remove@?$CGrowableArray@PAVCDXUTControl@@@@QAEJH@Z 100fa610 f i DXUTgui.obj
 0001:000f96c0       ?RemoveAll@?$CGrowableArray@PAUDXUTComboBoxItem@@@@QAEXXZ 100fa6c0 f i DXUTgui.obj
 0001:000f9710       ?RemoveAll@?$CGrowableArray@PAUDXUTElementHolder@@@@QAEXXZ 100fa710 f i DXUTgui.obj
 0001:000f9760       ?RemoveAll@?$CGrowableArray@PAUDXUTFontNode@@@@QAEXXZ 100fa760 f i DXUTgui.obj
 0001:000f97b0       ?RemoveAll@?$CGrowableArray@PAUDXUTListBoxItem@@@@QAEXXZ 100fa7b0 f i DXUTgui.obj
 0001:000f9800       ?RemoveAll@?$CGrowableArray@PAUDXUTTextureNode@@@@QAEXXZ 100fa800 f i DXUTgui.obj
 0001:000f9850       ?RemoveAll@?$CGrowableArray@PAVCDXUTControl@@@@QAEXXZ 100fa850 f i DXUTgui.obj
 0001:000f98a0       ?RemoveAll@?$CGrowableArray@PAVCDXUTElement@@@@QAEXXZ 100fa8a0 f i DXUTgui.obj
 0001:000f98f0       ?RemoveAll@?$CGrowableArray@UCInputLocale@CDXUTIMEEditBox@@@@QAEXXZ 100fa8f0 f i DXUTgui.obj
 0001:000f9940       ?RemoveAllControls@CDXUTDialog@@QAEXXZ 100fa940 f   DXUTgui.obj
 0001:000f9a70       ?RemoveAllItems@CDXUTComboBox@@QAEXXZ 100faa70 f   DXUTgui.obj
 0001:000f9b50       ?RemoveAllItems@CDXUTListBox@@QAEXXZ 100fab50 f   DXUTgui.obj
 0001:000f9c00       ?RemoveChar@CUniBuffer@@QAE_NH@Z 100fac00 f   DXUTgui.obj
 0001:000f9cc0       ?RemoveControl@CDXUTDialog@@QAEXH@Z 100facc0 f   DXUTgui.obj
 0001:000f9e00       ?RemoveItem@CDXUTComboBox@@QAEXI@Z 100fae00 f   DXUTgui.obj
 0001:000f9ee0       ?RemoveItem@CDXUTListBox@@QAEXH@Z 100faee0 f   DXUTgui.obj
 0001:000f9fe0       ?RemoveItemByData@CDXUTListBox@@QAEXPAX@Z 100fafe0 f   DXUTgui.obj
 0001:000fa010       ?RemoveItemByText@CDXUTListBox@@QAEXPAD@Z 100fb010 f   DXUTgui.obj
 0001:000fa040       ?Render@CDXUTButton@@UAEXPAUIDirect3DDevice9@@M@Z 100fb040 f   DXUTgui.obj
 0001:000fa2e0       ?Render@CDXUTCheckBox@@UAEXPAUIDirect3DDevice9@@M@Z 100fb2e0 f   DXUTgui.obj
 0001:000fa4c0       ?Render@CDXUTComboBox@@UAEXPAUIDirect3DDevice9@@M@Z 100fb4c0 f   DXUTgui.obj
 0001:000fab80       ?Render@CDXUTControl@@UAEXPAUIDirect3DDevice9@@M@Z 100fbb80 f i DXUTgui.obj
 0001:000fabb0       ?Render@CDXUTEditBox@@UAEXPAUIDirect3DDevice9@@M@Z 100fbbb0 f   DXUTgui.obj
 0001:000fb180       ?Render@CDXUTIMEEditBox@@UAEXPAUIDirect3DDevice9@@M@Z 100fc180 f   DXUTgui.obj
 0001:000fb400       ?Render@CDXUTListBox@@UAEXPAUIDirect3DDevice9@@M@Z 100fc400 f   DXUTgui.obj
 0001:000fb810       ?Render@CDXUTScrollBar@@UAEXPAUIDirect3DDevice9@@M@Z 100fc810 f   DXUTgui.obj
 0001:000fbbd0       ?Render@CDXUTSlider@@UAEXPAUIDirect3DDevice9@@M@Z 100fcbd0 f   DXUTgui.obj
 0001:000fbd70       ?Render@CDXUTStatic@@UAEXPAUIDirect3DDevice9@@M@Z 100fcd70 f   DXUTgui.obj
 0001:000fbe30       ?RenderCandidateReadingWindow@CDXUTIMEEditBox@@UAEXPAUIDirect3DDevice9@@M_N@Z 100fce30 f   DXUTgui.obj
 0001:000fc7b0       ?RenderComposition@CDXUTIMEEditBox@@UAEXPAUIDirect3DDevice9@@M@Z 100fd7b0 f   DXUTgui.obj
 0001:000fcf40       ?RenderIndicator@CDXUTIMEEditBox@@UAEXPAUIDirect3DDevice9@@M@Z 100fdf40 f   DXUTgui.obj
 0001:000fd160       ?RequestFocus@CDXUTDialog@@QAEXPAVCDXUTControl@@@Z 100fe160 f   DXUTgui.obj
 0001:000fd210       ?ResetCaretBlink@CDXUTEditBox@@IAEXXZ 100fe210 f   DXUTgui.obj
 0001:000fd270       ?ResetCompositionString@CDXUTIMEEditBox@@KAXXZ 100fe270 f   DXUTgui.obj
 0001:000fd2d0       ?Scroll@CDXUTScrollBar@@QAEXH@Z 100fe2d0 f   DXUTgui.obj
 0001:000fd330       ?SelectItem@CDXUTListBox@@QAEXH@Z 100fe330 f   DXUTgui.obj
 0001:000fd460       ?SendCompString@CDXUTIMEEditBox@@IAEXXZ 100fe460 f   DXUTgui.obj
 0001:000fd500       ?SendEvent@CDXUTDialog@@QAEXI_NPAVCDXUTControl@@@Z 100fe500 f   DXUTgui.obj
 0001:000fd590       ?SendKey@CDXUTIMEEditBox@@KAXE@Z 100fe590 f   DXUTgui.obj
 0001:000fd600       ?SetBackgroundColors@CDXUTDialog@@QAEXKKKK@Z 100fe600 f   DXUTgui.obj
 0001:000fd660       ?SetBufferSize@CUniBuffer@@QAE_NH@Z 100fe660 f   DXUTgui.obj
 0001:000fd7a0       ?SetButtonGroup@CDXUTRadioButton@@QAEXI@Z 100fe7a0 f i DXUTgui.obj
 0001:000fd7e0       ?SetCallback@CDXUTDialog@@QAEXP6GXIHPAVCDXUTControl@@PAX@Z1@Z 100fe7e0 f   DXUTgui.obj
 0001:000fd870       ?SetChecked@CDXUTCheckBox@@QAEX_N@Z 100fe870 f i DXUTgui.obj
 0001:000fd8d0       ?SetChecked@CDXUTRadioButton@@QAEX_N0@Z 100fe8d0 f i DXUTgui.obj
 0001:000fd930       ?SetCheckedInternal@CDXUTCheckBox@@MAEX_N0@Z 100fe930 f   DXUTgui.obj
 0001:000fd990       ?SetCheckedInternal@CDXUTRadioButton@@MAEX_N00@Z 100fe990 f   DXUTgui.obj
 0001:000fda20       ?SetControlEnabled@CDXUTDialog@@QAEXH_N@Z 100fea20 f   DXUTgui.obj
 0001:000fda90       ?SetDefaultElement@CDXUTDialog@@QAEJIIPAVCDXUTElement@@@Z 100fea90 f   DXUTgui.obj
 0001:000fdc30       ?SetElement@CDXUTControl@@QAEJIPAVCDXUTElement@@@Z 100fec30 f   DXUTgui.obj
 0001:000fddd0       ?SetEnabled@CDXUTControl@@UAEX_N@Z 100fedd0 f i DXUTgui.obj
 0001:000fde10       ?SetFont@CDXUTDialog@@QAEJIPBDJJ@Z 100fee10 f   DXUTgui.obj
 0001:000fdf30       ?SetFont@CDXUTElement@@QAEXIKK@Z 100fef30 f   DXUTgui.obj
 0001:000fdfa0       ?SetFontNode@CUniBuffer@@QAEXPAUDXUTFontNode@@@Z 100fefa0 f i DXUTgui.obj
 0001:000fdfe0       ?SetHotkey@CDXUTControl@@QAEXI@Z 100fefe0 f i DXUTgui.obj
 0001:000fe020       ?SetID@CDXUTControl@@QAEXH@Z 100ff020 f i DXUTgui.obj
 0001:000fe060       ?SetNextDialog@CDXUTDialog@@QAEXPAV1@@Z 100ff060 f   DXUTgui.obj
 0001:000fe0c0       ?SetRange@CDXUTSlider@@QAEXHH@Z 100ff0c0 f   DXUTgui.obj
 0001:000fe120       ?SetSelectedByData@CDXUTComboBox@@QAEJPAX@Z 100ff120 f   DXUTgui.obj
 0001:000fe1e0       ?SetSelectedByIndex@CDXUTComboBox@@QAEJI@Z 100ff1e0 f   DXUTgui.obj
 0001:000fe260       ?SetSelectedByText@CDXUTComboBox@@QAEJPBD@Z 100ff260 f   DXUTgui.obj
 0001:000fe300       ?SetSize@?$CGrowableArray@PAUDXUTComboBoxItem@@@@QAEJH@Z 100ff300 f i DXUTgui.obj
 0001:000fe3c0       ?SetSize@?$CGrowableArray@PAUDXUTElementHolder@@@@QAEJH@Z 100ff3c0 f i DXUTgui.obj
 0001:000fe480       ?SetSize@?$CGrowableArray@PAUDXUTFontNode@@@@QAEJH@Z 100ff480 f i DXUTgui.obj
 0001:000fe540       ?SetSize@?$CGrowableArray@PAUDXUTListBoxItem@@@@QAEJH@Z 100ff540 f i DXUTgui.obj
 0001:000fe600       ?SetSize@?$CGrowableArray@PAUDXUTTextureNode@@@@QAEJH@Z 100ff600 f i DXUTgui.obj
 0001:000fe6c0       ?SetSize@?$CGrowableArray@PAVCDXUTControl@@@@QAEJH@Z 100ff6c0 f i DXUTgui.obj
 0001:000fe780       ?SetSize@?$CGrowableArray@PAVCDXUTElement@@@@QAEJH@Z 100ff780 f i DXUTgui.obj
 0001:000fe840       ?SetSize@?$CGrowableArray@UCInputLocale@CDXUTIMEEditBox@@@@QAEJH@Z 100ff840 f i DXUTgui.obj
 0001:000fe900       ?SetSizeInternal@?$CGrowableArray@PAUDXUTComboBoxItem@@@@IAEJH@Z 100ff900 f i DXUTgui.obj
 0001:000fea50       ?SetSizeInternal@?$CGrowableArray@PAUDXUTElementHolder@@@@IAEJH@Z 100ffa50 f i DXUTgui.obj
 0001:000feba0       ?SetSizeInternal@?$CGrowableArray@PAUDXUTFontNode@@@@IAEJH@Z 100ffba0 f i DXUTgui.obj
 0001:000fecf0       ?SetSizeInternal@?$CGrowableArray@PAUDXUTListBoxItem@@@@IAEJH@Z 100ffcf0 f i DXUTgui.obj
 0001:000fee40       ?SetSizeInternal@?$CGrowableArray@PAUDXUTTextureNode@@@@IAEJH@Z 100ffe40 f i DXUTgui.obj
 0001:000fef90       ?SetSizeInternal@?$CGrowableArray@PAVCDXUTControl@@@@IAEJH@Z 100fff90 f i DXUTgui.obj
 0001:000ff0e0       ?SetSizeInternal@?$CGrowableArray@PAVCDXUTElement@@@@IAEJH@Z 101000e0 f i DXUTgui.obj
 0001:000ff230       ?SetSizeInternal@?$CGrowableArray@UCInputLocale@CDXUTIMEEditBox@@@@IAEJH@Z 10100230 f i DXUTgui.obj
 0001:000ff380       ?SetStyle@CDXUTListBox@@QAEXK@Z 10100380 f i DXUTgui.obj
 0001:000ff3c0       ?SetText@CDXUTEditBox@@QAEXPBD_N@Z 101003c0 f   DXUTgui.obj
 0001:000ff480       ?SetText@CDXUTStatic@@QAEJPBD@Z 10100480 f   DXUTgui.obj
 0001:000ff4f0       ?SetText@CUniBuffer@@QAE_NPBD@Z 101004f0 f   DXUTgui.obj
 0001:000ff5c0       ?SetTextColor@CDXUTComboBox@@UAEXK@Z 101005c0 f   DXUTgui.obj
 0001:000ff650       ?SetTextColor@CDXUTControl@@UAEXK@Z 10100650 f   DXUTgui.obj
 0001:000ff6c0       ?SetTextColor@CDXUTEditBox@@UAEXK@Z 101006c0 f i DXUTgui.obj
 0001:000ff700       ?SetTextFloatArray@CDXUTEditBox@@QAEXPBMH@Z 10100700 f   DXUTgui.obj
 0001:000ff890       ?SetTexture@CDXUTDialog@@QAEJIPBD@Z 10100890 f   DXUTgui.obj
 0001:000ff9a0       ?SetTexture@CDXUTElement@@QAEXIPAUtagRECT@@K@Z 101009a0 f   DXUTgui.obj
 0001:000ffa40       ?SetTrackRange@CDXUTScrollBar@@QAEXHH@Z 10100a40 f   DXUTgui.obj
 0001:000ffab0       ?SetValue@CDXUTSlider@@QAEXH@Z 10100ab0 f i DXUTgui.obj
 0001:000ffb00       ?SetValueInternal@CDXUTSlider@@IAEXH_N@Z 10100b00 f   DXUTgui.obj
 0001:000ffbe0       ?SetVisible@CDXUTControl@@UAEX_N@Z 10100be0 f i DXUTgui.obj
 0001:000ffc20       ?SetupImeApi@CDXUTIMEEditBox@@KAXXZ 10100c20 f   DXUTgui.obj
 0001:000ffd60       ?ShowItem@CDXUTScrollBar@@QAEXH@Z 10100d60 f   DXUTgui.obj
 0001:000ffe20       ?StaticMsgProc@CDXUTIMEEditBox@@SA_NIIJ@Z 10100e20 f   DXUTgui.obj
 0001:00100430       ?StaticOnCreateDevice@CDXUTIMEEditBox@@SAJXZ 10101430 f   DXUTgui.obj
 0001:001004a0       ?TruncateCompString@CDXUTIMEEditBox@@IAEX_NH@Z 101014a0 f   DXUTgui.obj
 0001:00100690       ?Uninitialize@CDXUTIMEEditBox@@SAXXZ 10101690 f   DXUTgui.obj
 0001:00100840       ?Uninitialize@CUniBuffer@@SAXXZ 10101840 f   DXUTgui.obj
 0001:001008e0       ?UpdateRects@CDXUTCheckBox@@UAEXXZ 101018e0 f   DXUTgui.obj
 0001:001009c0       ?UpdateRects@CDXUTComboBox@@UAEXXZ 101019c0 f   DXUTgui.obj
 0001:00100ce0       ?UpdateRects@CDXUTControl@@MAEXXZ 10101ce0 f   DXUTgui.obj
 0001:00100d60       ?UpdateRects@CDXUTEditBox@@UAEXXZ 10101d60 f   DXUTgui.obj
 0001:00101020       ?UpdateRects@CDXUTIMEEditBox@@UAEXXZ 10102020 f   DXUTgui.obj
 0001:001010e0       ?UpdateRects@CDXUTListBox@@UAEXXZ 101020e0 f   DXUTgui.obj
 0001:00101280       ?UpdateRects@CDXUTScrollBar@@UAEXXZ 10102280 f   DXUTgui.obj
 0001:001013a0       ?UpdateRects@CDXUTSlider@@UAEXXZ 101023a0 f   DXUTgui.obj
 0001:001014c0       ?UpdateThumbRect@CDXUTScrollBar@@IAEXXZ 101024c0 f   DXUTgui.obj
 0001:00101630       ?ValueFromPos@CDXUTSlider@@IAEHH@Z 10102630 f   DXUTgui.obj
 0001:001016d0       ?XtoCP@CUniBuffer@@QAEJHPAH0@Z 101026d0 f   DXUTgui.obj
 0001:00101800       _powf                      10102800 f i DXUTgui.obj
 0001:00101860       ??0CDXUTMesh@@QAE@PBD@Z    10102860 f   DXUTMesh.obj
 0001:00101910       ??0CDXUTMeshFrame@@QAE@PBD@Z 10102910 f   DXUTMesh.obj
 0001:001019b0       ??1CDXUTMesh@@UAE@XZ       101029b0 f   DXUTMesh.obj
 0001:00101a00       ??1CDXUTMeshFrame@@UAE@XZ  10102a00 f   DXUTMesh.obj
 0001:00101b20       ??_ECDXUTMesh@@UAEPAXI@Z   10102b20 f i DXUTMesh.obj
 0001:00101b20       ??_GCDXUTMesh@@UAEPAXI@Z   10102b20 f i DXUTMesh.obj
 0001:00101b80       ??_GCDXUTMeshFrame@@UAEPAXI@Z 10102b80 f i DXUTMesh.obj
 0001:00101b80       ??_ECDXUTMeshFrame@@UAEPAXI@Z 10102b80 f i DXUTMesh.obj
 0001:00101be0       ?Create@CDXUTMesh@@QAEJPAUIDirect3DDevice9@@PAUID3DXFileData@@@Z 10102be0 f   DXUTMesh.obj
 0001:00101dc0       ?Create@CDXUTMesh@@QAEJPAUIDirect3DDevice9@@PBD@Z 10102dc0 f   DXUTMesh.obj
 0001:001020a0       ?Create@CDXUTMeshFile@@QAEJPAUIDirect3DDevice9@@PBD@Z 101030a0 f   DXUTMesh.obj
 0001:00102450       ?CreateFromResource@CDXUTMeshFile@@QAEJPAUIDirect3DDevice9@@PBD1@Z 10103450 f   DXUTMesh.obj
 0001:00102860       ?CreateMaterials@CDXUTMesh@@QAEJPBDPAUIDirect3DDevice9@@PAUID3DXBuffer@@2@Z 10103860 f   DXUTMesh.obj
 0001:00102cc0       ?Destroy@CDXUTMesh@@QAEJXZ 10103cc0 f   DXUTMesh.obj
 0001:00102e30       ?Destroy@CDXUTMeshFrame@@QAEJXZ 10103e30 f   DXUTMesh.obj
 0001:00103000       ?EnumMeshes@CDXUTMeshFrame@@QAE_NP6A_NPAVCDXUTMesh@@PAX@Z1@Z 10104000 f   DXUTMesh.obj
 0001:001030b0       ?FindFrame@CDXUTMeshFrame@@QAEPAV1@PBD@Z 101040b0 f   DXUTMesh.obj
 0001:00103170       ?FindMesh@CDXUTMeshFrame@@QAEPAVCDXUTMesh@@PBD@Z 10104170 f   DXUTMesh.obj
 0001:00103240       ?InvalidateDeviceObjects@CDXUTMesh@@QAEJXZ 10104240 f   DXUTMesh.obj
 0001:001032c0       ?InvalidateDeviceObjects@CDXUTMeshFrame@@QAEJXZ 101042c0 f   DXUTMesh.obj
 0001:00103350       ?LoadFrame@CDXUTMeshFile@@AAEJPAUIDirect3DDevice9@@PAUID3DXFileData@@PAVCDXUTMeshFrame@@@Z 10104350 f   DXUTMesh.obj
 0001:00103770       ?LoadMesh@CDXUTMeshFile@@AAEJPAUIDirect3DDevice9@@PAUID3DXFileData@@PAVCDXUTMeshFrame@@@Z 10104770 f   DXUTMesh.obj
 0001:001039a0       ?Render@CDXUTMesh@@QAEJPAUID3DXEffect@@PBD11111_N2@Z 101049a0 f   DXUTMesh.obj
 0001:00103f30       ?Render@CDXUTMesh@@QAEJPAUIDirect3DDevice9@@_N1@Z 10104f30 f   DXUTMesh.obj
 0001:00104150       ?Render@CDXUTMeshFile@@QAEJPAUIDirect3DDevice9@@PAUD3DXMATRIX@@@Z 10105150 f   DXUTMesh.obj
 0001:00104360       ?Render@CDXUTMeshFrame@@QAEJPAUIDirect3DDevice9@@_N1PAUD3DXMATRIX@@@Z 10105360 f   DXUTMesh.obj
 0001:00104530       ?RestoreDeviceObjects@CDXUTMesh@@QAEJPAUIDirect3DDevice9@@@Z 10105530 f   DXUTMesh.obj
 0001:00104610       ?RestoreDeviceObjects@CDXUTMeshFrame@@QAEJPAUIDirect3DDevice9@@@Z 10105610 f   DXUTMesh.obj
 0001:001046b0       ?SetFVF@CDXUTMesh@@QAEJPAUIDirect3DDevice9@@K@Z 101056b0 f   DXUTMesh.obj
 0001:00104970       ?SetMatrix@CDXUTMeshFrame@@QAEXPAUD3DXMATRIX@@@Z 10105970 f i DXUTMesh.obj
 0001:001049b0       ?SetVertexDecl@CDXUTMesh@@QAEJPAUIDirect3DDevice9@@PBU_D3DVERTEXELEMENT9@@@Z 101059b0 f   DXUTMesh.obj
 0001:00104d80       _==                        10105d80 f i DXUTMesh.obj
 0001:00104df0       _IsEqualGUID               10105df0 f i DXUTMesh.obj
 0001:00104e60       ??0?$CGrowableArray@PAULINE_NODE@CDXUTLineManager@@@@QAE@XZ 10105e60 f i DXUTmisc.obj
 0001:00104eb0       ??0?$CGrowableArray@UDXUTCache_Effect@@@@QAE@XZ 10105eb0 f i DXUTmisc.obj
 0001:00104f00       ??0?$CGrowableArray@UDXUTCache_Font@@@@QAE@XZ 10105f00 f i DXUTmisc.obj
 0001:00104f50       ??0?$CGrowableArray@UDXUTCache_Texture@@@@QAE@XZ 10105f50 f i DXUTmisc.obj
 0001:00104fa0       ??0CBaseCamera@@QAE@XZ     10105fa0 f   DXUTmisc.obj
 0001:001054a0       ??0CD3DArcBall@@QAE@XZ     101064a0 f   DXUTmisc.obj
 0001:00105680       ??0CDXUTDirectionWidget@@QAE@XZ 10106680 f   DXUTmisc.obj
 0001:001057e0       ??0CDXUTLineManager@@QAE@XZ 101067e0 f   DXUTmisc.obj
 0001:00105840       ??0CDXUTResourceCache@@IAE@XZ 10106840 f i DXUTmisc.obj
 0001:001058e0       ??0CDXUTTextHelper@@QAE@PAUID3DXFont@@PAUID3DXSprite@@H@Z 101068e0 f   DXUTmisc.obj
 0001:001059c0       ??0CDXUTTimer@@QAE@XZ      101069c0 f   DXUTmisc.obj
 0001:00105ad0       ??0CFirstPersonCamera@@QAE@XZ 10106ad0 f   DXUTmisc.obj
 0001:00105b40       ??0CModelViewerCamera@@QAE@XZ 10106b40 f   DXUTmisc.obj
 0001:00105d30       ??0D3DXCOLOR@@QAE@MMMM@Z   10106d30 f i DXUTmisc.obj
 0001:00105da0       ??0D3DXQUATERNION@@QAE@MMMM@Z 10106da0 f i DXUTmisc.obj
 0001:00105e10       ??0D3DXQUATERNION@@QAE@XZ  10106e10 f i DXUTmisc.obj
 0001:00105e40       ??0D3DXVECTOR2@@QAE@MM@Z   10106e40 f i DXUTmisc.obj
 0001:00105e90       ??0D3DXVECTOR2@@QAE@XZ     10106e90 f i DXUTmisc.obj
 0001:00105ec0       ??1?$CGrowableArray@PAULINE_NODE@CDXUTLineManager@@@@QAE@XZ 10106ec0 f i DXUTmisc.obj
 0001:00105f00       ??1?$CGrowableArray@UDXUTCache_Effect@@@@QAE@XZ 10106f00 f i DXUTmisc.obj
 0001:00105f40       ??1?$CGrowableArray@UDXUTCache_Font@@@@QAE@XZ 10106f40 f i DXUTmisc.obj
 0001:00105f80       ??1?$CGrowableArray@UDXUTCache_Texture@@@@QAE@XZ 10106f80 f i DXUTmisc.obj
 0001:00105fc0       ??1CDXUTLineManager@@QAE@XZ 10106fc0 f   DXUTmisc.obj
 0001:00106040       ??1CDXUTResourceCache@@QAE@XZ 10107040 f   DXUTmisc.obj
 0001:00106100       ??4_D3DXMATRIXA16@@QAEAAU0@ABUD3DXMATRIX@@@Z 10107100 f i DXUTmisc.obj
 0001:00106150       ??A?$CGrowableArray@UDXUTCache_Effect@@@@QAEAAUDXUTCache_Effect@@H@Z 10107150 f i DXUTmisc.obj
 0001:001061a0       ??A?$CGrowableArray@UDXUTCache_Font@@@@QAEAAUDXUTCache_Font@@H@Z 101071a0 f i DXUTmisc.obj
 0001:001061f0       ??A?$CGrowableArray@UDXUTCache_Texture@@@@QAEAAUDXUTCache_Texture@@H@Z 101071f0 f i DXUTmisc.obj
 0001:00106240       ??DD3DXMATRIX@@QBE?AU0@ABU0@@Z 10107240 f i DXUTmisc.obj
 0001:001062f0       ??DD3DXQUATERNION@@QBE?AU0@ABU0@@Z 101072f0 f i DXUTmisc.obj
 0001:00106390       ??DD3DXVECTOR2@@QBE?AU0@M@Z 10107390 f i DXUTmisc.obj
 0001:00106400       ??DD3DXVECTOR3@@QBE?AU0@M@Z 10107400 f i DXUTmisc.obj
 0001:00106480       ??GD3DXVECTOR3@@QBE?AU0@ABU0@@Z 10107480 f i DXUTmisc.obj
 0001:00106510       ??HD3DXVECTOR3@@QBE?AU0@ABU0@@Z 10107510 f i DXUTmisc.obj
 0001:001065a0       ??KD3DXVECTOR3@@QBE?AU0@M@Z 101075a0 f i DXUTmisc.obj
 0001:00106630       ??XD3DXMATRIX@@QAEAAU0@ABU0@@Z 10107630 f i DXUTmisc.obj
 0001:00106680       ??XD3DXVECTOR3@@QAEAAU0@M@Z 10107680 f i DXUTmisc.obj
 0001:001066f0       ??YD3DXVECTOR3@@QAEAAU0@ABU0@@Z 101076f0 f i DXUTmisc.obj
 0001:00106770       ??ZD3DXVECTOR3@@QAEAAU0@ABU0@@Z 10107770 f i DXUTmisc.obj
 0001:001067f0       ?Add@?$CGrowableArray@PAULINE_NODE@CDXUTLineManager@@@@QAEJABQAULINE_NODE@CDXUTLineManager@@@Z 101077f0 f i DXUTmisc.obj
 0001:00106890       ?Add@?$CGrowableArray@UDXUTCache_Effect@@@@QAEJABUDXUTCache_Effect@@@Z 10107890 f i DXUTmisc.obj
 0001:00106940       ?Add@?$CGrowableArray@UDXUTCache_Font@@@@QAEJABUDXUTCache_Font@@@Z 10107940 f i DXUTmisc.obj
 0001:001069e0       ?Add@?$CGrowableArray@UDXUTCache_Texture@@@@QAEJABUDXUTCache_Texture@@@Z 101079e0 f i DXUTmisc.obj
 0001:00106a90       ?AddLine@CDXUTLineManager@@QAEJPAHPAUD3DXVECTOR2@@KKMM_N@Z 10107a90 f   DXUTmisc.obj
 0001:00106cd0       ?AddRect@CDXUTLineManager@@QAEJPAHUtagRECT@@KMM_N@Z 10107cd0 f   DXUTmisc.obj
 0001:00107060       ?Advance@CDXUTTimer@@QAEXXZ 10108060 f   DXUTmisc.obj
 0001:001070d0       ?Begin@CDXUTTextHelper@@QAEXXZ 101080d0 f   DXUTmisc.obj
 0001:00107130       ?ConstrainToBoundary@CBaseCamera@@IAEXPAUD3DXVECTOR3@@@Z 10108130 f   DXUTmisc.obj
 0001:00107310       ?CreateCubeTextureFromFile@CDXUTResourceCache@@QAEJPAUIDirect3DDevice9@@PBDPAPAUIDirect3DCubeTexture9@@@Z 10108310 f   DXUTmisc.obj
 0001:00107380       ?CreateCubeTextureFromFileEx@CDXUTResourceCache@@QAEJPAUIDirect3DDevice9@@PBDIIKW4_D3DFORMAT@@W4_D3DPOOL@@KKKPAU_D3DXIMAGE_INFO@@PAUtagPALETTEENTRY@@PAPAUIDirect3DCubeTexture9@@@Z 10108380 f   DXUTmisc.obj
 0001:001075b0       ?CreateCubeTextureFromResource@CDXUTResourceCache@@QAEJPAUIDirect3DDevice9@@PAUHINSTANCE__@@PBDPAPAUIDirect3DCubeTexture9@@@Z 101085b0 f   DXUTmisc.obj
 0001:00107620       ?CreateCubeTextureFromResourceEx@CDXUTResourceCache@@QAEJPAUIDirect3DDevice9@@PAUHINSTANCE__@@PBDIIKW4_D3DFORMAT@@W4_D3DPOOL@@KKKPAU_D3DXIMAGE_INFO@@PAUtagPALETTEENTRY@@PAPAUIDirect3DCubeTexture9@@@Z 10108620 f   DXUTmisc.obj
 0001:00107860       ?CreateEffectFromFile@CDXUTResourceCache@@QAEJPAUIDirect3DDevice9@@PBDPBU_D3DXMACRO@@PAUID3DXInclude@@KPAUID3DXEffectPool@@PAPAUID3DXEffect@@PAPAUID3DXBuffer@@@Z 10108860 f   DXUTmisc.obj
 0001:00107a10       ?CreateEffectFromResource@CDXUTResourceCache@@QAEJPAUIDirect3DDevice9@@PAUHINSTANCE__@@PBDPBU_D3DXMACRO@@PAUID3DXInclude@@KPAUID3DXEffectPool@@PAPAUID3DXEffect@@PAPAUID3DXBuffer@@@Z 10108a10 f   DXUTmisc.obj
 0001:00107be0       ?CreateFontA@CDXUTResourceCache@@QAEJPAUIDirect3DDevice9@@IIIIHKKKKPBDPAPAUID3DXFont@@@Z 10108be0 f   DXUTmisc.obj
 0001:00107cc0       ?CreateFontIndirectA@CDXUTResourceCache@@QAEJPAUIDirect3DDevice9@@PBU_D3DXFONT_DESCA@@PAPAUID3DXFont@@@Z 10108cc0 f   DXUTmisc.obj
 0001:00107ee0       ?CreateTextureFromFile@CDXUTResourceCache@@QAEJPAUIDirect3DDevice9@@PBDPAPAUIDirect3DTexture9@@@Z 10108ee0 f   DXUTmisc.obj
 0001:00107f50       ?CreateTextureFromFileEx@CDXUTResourceCache@@QAEJPAUIDirect3DDevice9@@PBDIIIKW4_D3DFORMAT@@W4_D3DPOOL@@KKKPAU_D3DXIMAGE_INFO@@PAUtagPALETTEENTRY@@PAPAUIDirect3DTexture9@@@Z 10108f50 f   DXUTmisc.obj
 0001:00108190       ?CreateTextureFromResource@CDXUTResourceCache@@QAEJPAUIDirect3DDevice9@@PAUHINSTANCE__@@PBDPAPAUIDirect3DTexture9@@@Z 10109190 f   DXUTmisc.obj
 0001:00108200       ?CreateTextureFromResourceEx@CDXUTResourceCache@@QAEJPAUIDirect3DDevice9@@PAUHINSTANCE__@@PBDIIIKW4_D3DFORMAT@@W4_D3DPOOL@@KKKPAU_D3DXIMAGE_INFO@@PAUtagPALETTEENTRY@@PAPAUIDirect3DTexture9@@@Z 10109200 f   DXUTmisc.obj
 0001:00108460       ?CreateVolumeTextureFromFile@CDXUTResourceCache@@QAEJPAUIDirect3DDevice9@@PBDPAPAUIDirect3DVolumeTexture9@@@Z 10109460 f   DXUTmisc.obj
 0001:001084d0       ?CreateVolumeTextureFromFileEx@CDXUTResourceCache@@QAEJPAUIDirect3DDevice9@@PBDIIIIKW4_D3DFORMAT@@W4_D3DPOOL@@KKKPAU_D3DXIMAGE_INFO@@PAUtagPALETTEENTRY@@PAPAUIDirect3DVolumeTexture9@@@Z 101094d0 f   DXUTmisc.obj
 0001:00108730       ?CreateVolumeTextureFromResource@CDXUTResourceCache@@QAEJPAUIDirect3DDevice9@@PAUHINSTANCE__@@PBDPAPAUIDirect3DVolumeTexture9@@@Z 10109730 f   DXUTmisc.obj
 0001:001087a0       ?CreateVolumeTextureFromResourceEx@CDXUTResourceCache@@QAEJPAUIDirect3DDevice9@@PAUHINSTANCE__@@PBDIIIIKW4_D3DFORMAT@@W4_D3DPOOL@@KKKPAU_D3DXIMAGE_INFO@@PAUtagPALETTEENTRY@@PAPAUIDirect3DVolumeTexture9@@@Z 101097a0 f   DXUTmisc.obj
 0001:00108a20       ?D3DXQuaternionIdentity@@YAPAUD3DXQUATERNION@@PAU1@@Z 10109a20 f i DXUTmisc.obj
 0001:00108a90       ?D3DXVec3Cross@@YAPAUD3DXVECTOR3@@PAU1@PBU1@1@Z 10109a90 f i DXUTmisc.obj
 0001:00108ba0       ?D3DXVec3Dot@@YAMPBUD3DXVECTOR3@@0@Z 10109ba0 f i DXUTmisc.obj
 0001:00108c10       ?D3DXVec3Length@@YAMPBUD3DXVECTOR3@@@Z 10109c10 f i DXUTmisc.obj
 0001:00108c90       ?D3DXVec3LengthSq@@YAMPBUD3DXVECTOR3@@@Z 10109c90 f i DXUTmisc.obj
 0001:00108d00       ?D3DXVec3Subtract@@YAPAUD3DXVECTOR3@@PAU1@PBU1@1@Z 10109d00 f i DXUTmisc.obj
 0001:00108d70       ?DXTraceWrapper@@YGJPBDKJ0H@Z 10109d70 f   DXUTmisc.obj
 0001:00108e30       ?DXUTD3DFormatToString@@YAPBDW4_D3DFORMAT@@_N@Z 10109e30 f   DXUTmisc.obj
 0001:00109330       ?DXUTDisplaySwitchingToREFWarning@@YAXXZ 1010a330 f   DXUTmisc.obj
 0001:00109830       ?DXUTFindDXSDKMediaFileCch@@YAJPADHPBD@Z 1010a830 f   DXUTmisc.obj
 0001:00109bd0       ?DXUTFindMediaSearchParentDirs@@YA_NPADH00@Z 1010abd0 f   DXUTmisc.obj
 0001:00109df0       ?DXUTFindMediaSearchTypicalDirs@@YA_NPADHPBD00@Z 1010adf0 f   DXUTmisc.obj
 0001:0010a090       ?DXUTGetCubeMapViewMatrix@@YA?AUD3DXMATRIX@@K@Z 1010b090 f   DXUTmisc.obj
 0001:0010a560       ?DXUTGetGlobalResourceCache@@YAAAVCDXUTResourceCache@@XZ 1010b560 f   DXUTmisc.obj
 0001:0010a600       ?DXUTGetGlobalTimer@@YAPAVCDXUTTimer@@XZ 1010b600 f   DXUTmisc.obj
 0001:0010a690       ?DXUTGetMediaSearchPath@@YAPBDXZ 1010b690 f   DXUTmisc.obj
 0001:0010a6d0       ?DXUTMediaSearchPath@@YAPADXZ 1010b6d0 f   DXUTmisc.obj
 0001:0010a700       ?DXUTOutputDebugStringA@@YAXPBDZZ 1010b700 f   DXUTmisc.obj
 0001:0010a7f0       ?DXUTOutputDebugStringW@@YAXPBDZZ 1010b7f0 f   DXUTmisc.obj
 0001:0010a8e0       ?DXUTSetMediaSearchPath@@YAJPBD@Z 1010b8e0 f   DXUTmisc.obj
 0001:0010a9b0       ?DXUT_Dynamic_D3DPERF_BeginEvent@@YGHKPBD@Z 1010b9b0 f   DXUTmisc.obj
 0001:0010aa20       ?DXUT_Dynamic_D3DPERF_EndEvent@@YGHXZ 1010ba20 f   DXUTmisc.obj
 0001:0010aa80       ?DXUT_Dynamic_D3DPERF_GetStatus@@YGKXZ 1010ba80 f   DXUTmisc.obj
 0001:0010aae0       ?DXUT_Dynamic_D3DPERF_QueryRepeatFrame@@YGHXZ 1010bae0 f   DXUTmisc.obj
 0001:0010ab40       ?DXUT_Dynamic_D3DPERF_SetMarker@@YGXKPBD@Z 1010bb40 f   DXUTmisc.obj
 0001:0010aba0       ?DXUT_Dynamic_D3DPERF_SetOptions@@YGXK@Z 1010bba0 f   DXUTmisc.obj
 0001:0010ac00       ?DXUT_Dynamic_D3DPERF_SetRegion@@YGXKPBD@Z 1010bc00 f   DXUTmisc.obj
 0001:0010ac60       ?DXUT_Dynamic_Direct3DCreate9@@YGPAUIDirect3D9@@I@Z 1010bc60 f   DXUTmisc.obj
 0001:0010aec0       ?DisplaySwitchToREFWarningProc@@YGHPAUHWND__@@IIJ@Z 1010bec0 f   DXUTmisc.obj
 0001:0010b190       ?DrawFormattedTextLine@CDXUTTextHelper@@QAAJAAUtagRECT@@KPBDZZ 1010c190 f   DXUTmisc.obj
 0001:0010b280       ?DrawFormattedTextLine@CDXUTTextHelper@@QAAJPBDZZ 1010c280 f   DXUTmisc.obj
 0001:0010b370       ?DrawTextLine@CDXUTTextHelper@@QAEJAAUtagRECT@@KPBD@Z 1010c370 f   DXUTmisc.obj
 0001:0010b450       ?DrawTextLine@CDXUTTextHelper@@QAEJPBD@Z 1010c450 f   DXUTmisc.obj
 0001:0010b5a0       ?End@CDXUTTextHelper@@QAEXXZ 1010c5a0 f   DXUTmisc.obj
 0001:0010b600       ?FrameMove@CFirstPersonCamera@@UAEXM@Z 1010c600 f   DXUTmisc.obj
 0001:0010baf0       ?FrameMove@CModelViewerCamera@@UAEXM@Z 1010caf0 f   DXUTmisc.obj
 0001:0010c2c0       ?GetAbsoluteTime@CDXUTTimer@@QAENXZ 1010d2c0 f   DXUTmisc.obj
 0001:0010c3b0       ?GetAt@?$CGrowableArray@PAULINE_NODE@CDXUTLineManager@@@@QAEAAPAULINE_NODE@CDXUTLineManager@@H@Z 1010d3b0 f i DXUTmisc.obj
 0001:0010c420       ?GetAt@?$CGrowableArray@UDXUTCache_Effect@@@@QAEAAUDXUTCache_Effect@@H@Z 1010d420 f i DXUTmisc.obj
 0001:0010c490       ?GetAt@?$CGrowableArray@UDXUTCache_Font@@@@QAEAAUDXUTCache_Font@@H@Z 1010d490 f i DXUTmisc.obj
 0001:0010c500       ?GetAt@?$CGrowableArray@UDXUTCache_Texture@@@@QAEAAUDXUTCache_Texture@@H@Z 1010d500 f i DXUTmisc.obj
 0001:0010c570       ?GetElapsedTime@CDXUTTimer@@QAENXZ 1010d570 f   DXUTmisc.obj
 0001:0010c680       ?GetRotationMatrix@CD3DArcBall@@QAEPBUD3DXMATRIX@@XZ 1010d680 f i DXUTmisc.obj
 0001:0010c6d0       ?GetSize@?$CGrowableArray@PAULINE_NODE@CDXUTLineManager@@@@QBEHXZ 1010d6d0 f i DXUTmisc.obj
 0001:0010c700       ?GetSize@?$CGrowableArray@UDXUTCache_Effect@@@@QBEHXZ 1010d700 f i DXUTmisc.obj
 0001:0010c730       ?GetSize@?$CGrowableArray@UDXUTCache_Font@@@@QBEHXZ 1010d730 f i DXUTmisc.obj
 0001:0010c760       ?GetSize@?$CGrowableArray@UDXUTCache_Texture@@@@QBEHXZ 1010d760 f i DXUTmisc.obj
 0001:0010c790       ?GetTime@CDXUTTimer@@QAENXZ 1010d790 f   DXUTmisc.obj
 0001:0010c890       ?HandleMessages@CBaseCamera@@UAEJPAUHWND__@@IIJ@Z 1010d890 f   DXUTmisc.obj
 0001:0010cc60       ?HandleMessages@CD3DArcBall@@QAEJPAUHWND__@@IIJ@Z 1010dc60 f   DXUTmisc.obj
 0001:0010cf30       ?HandleMessages@CDXUTDirectionWidget@@QAEJPAUHWND__@@IIJ@Z 1010df30 f   DXUTmisc.obj
