; Listing generated by Microsoft (R) Optimizing Compiler Version 18.00.31101.0 

	TITLE	Z:\sampsrc\02Xu1\saco\game\font.cpp
	.686P
	.XMM
	include listing.inc
	.model	flat

INCLUDELIB LIBCMTD
INCLUDELIB OLDNAMES

PUBLIC	?Font_PrintString@@YAXMMPAD@Z			; Font_PrintString
PUBLIC	?Font_SetColor@@YAXK@Z				; Font_SetColor
PUBLIC	?Font_SetDropColor@@YAXK@Z			; Font_SetDropColor
PUBLIC	?Font_SetOutline@@YAXH@Z			; Font_SetOutline
PUBLIC	?Font_Unk12@@YAXH@Z				; Font_Unk12
PUBLIC	?Font_SetScale@@YAXMM@Z				; Font_SetScale
PUBLIC	?Font_SetJustify@@YAXH@Z			; Font_SetJustify
PUBLIC	?Font_SetFontStyle@@YAXH@Z			; Font_SetFontStyle
PUBLIC	?Font_SetProportional@@YAXH@Z			; Font_SetProportional
PUBLIC	?Font_SetRightJustifyWrap@@YAXM@Z		; Font_SetRightJustifyWrap
PUBLIC	?Font_UseBox@@YAXHH@Z				; Font_UseBox
PUBLIC	?Font_UseBoxColor@@YAXK@Z			; Font_UseBoxColor
PUBLIC	?Font_SetLineWidth@@YAXM@Z			; Font_SetLineWidth
PUBLIC	?Font_SetLineHeight@@YAXM@Z			; Font_SetLineHeight
PUBLIC	?Font_SetShadow@@YAXH@Z				; Font_SetShadow
PUBLIC	?Font_UnkConv@@YAXPADHHHHHH0@Z			; Font_UnkConv
PUBLIC	?Font_UnkConv2@@YAXPAD@Z			; Font_UnkConv2
EXTRN	__RTC_InitBase:PROC
EXTRN	__RTC_Shutdown:PROC
;	COMDAT rtc$TMZ
rtc$TMZ	SEGMENT
__RTC_Shutdown.rtc$TMZ DD FLAT:__RTC_Shutdown
rtc$TMZ	ENDS
;	COMDAT rtc$IMZ
rtc$IMZ	SEGMENT
__RTC_InitBase.rtc$IMZ DD FLAT:__RTC_InitBase
rtc$IMZ	ENDS
; Function compile flags: /Odtp /RTCsu /ZI
; File z:\sampsrc\02xu1\saco\game\font.cpp
;	COMDAT ?Font_UnkConv2@@YAXPAD@Z
_TEXT	SEGMENT
_sz$ = 8						; size = 4
?Font_UnkConv2@@YAXPAD@Z PROC				; Font_UnkConv2, COMDAT

; 148  : 	_asm mov eax, 0x69E160

	mov	eax, 6938976				; 0069e160H

; 149  : 	_asm jmp eax

	jmp	eax
?Font_UnkConv2@@YAXPAD@Z ENDP				; Font_UnkConv2
_TEXT	ENDS
; Function compile flags: /Odtp /RTCsu /ZI
; File z:\sampsrc\02xu1\saco\game\font.cpp
;	COMDAT ?Font_UnkConv@@YAXPADHHHHHH0@Z
_TEXT	SEGMENT
_sz$ = 8						; size = 4
_param1$ = 12						; size = 4
_param2$ = 16						; size = 4
_param3$ = 20						; size = 4
_param4$ = 24						; size = 4
_param5$ = 28						; size = 4
_param6$ = 32						; size = 4
_buf$ = 36						; size = 4
?Font_UnkConv@@YAXPADHHHHHH0@Z PROC			; Font_UnkConv, COMDAT

; 140  : 	_asm mov eax, 0x69DE90

	mov	eax, 6938256				; 0069de90H

; 141  : 	_asm ret

	ret	0
?Font_UnkConv@@YAXPADHHHHHH0@Z ENDP			; Font_UnkConv
_TEXT	ENDS
; Function compile flags: /Odtp /RTCsu /ZI
; File z:\sampsrc\02xu1\saco\game\font.cpp
;	COMDAT ?Font_SetShadow@@YAXH@Z
_TEXT	SEGMENT
_shadow$ = 8						; size = 4
?Font_SetShadow@@YAXH@Z PROC				; Font_SetShadow, COMDAT

; 132  : 	_asm mov eax, 0x719570

	mov	eax, 7443824				; 00719570H

; 133  : 	_asm jmp eax

	jmp	eax
?Font_SetShadow@@YAXH@Z ENDP				; Font_SetShadow
_TEXT	ENDS
; Function compile flags: /Odtp /RTCsu /ZI
; File z:\sampsrc\02xu1\saco\game\font.cpp
;	COMDAT ?Font_SetLineHeight@@YAXM@Z
_TEXT	SEGMENT
_height$ = 8						; size = 4
?Font_SetLineHeight@@YAXM@Z PROC			; Font_SetLineHeight, COMDAT

; 124  : 	_asm mov eax, 0x7194E0

	mov	eax, 7443680				; 007194e0H

; 125  : 	_asm jmp eax

	jmp	eax
?Font_SetLineHeight@@YAXM@Z ENDP			; Font_SetLineHeight
_TEXT	ENDS
; Function compile flags: /Odtp /RTCsu /ZI
; File z:\sampsrc\02xu1\saco\game\font.cpp
;	COMDAT ?Font_SetLineWidth@@YAXM@Z
_TEXT	SEGMENT
_width$ = 8						; size = 4
?Font_SetLineWidth@@YAXM@Z PROC				; Font_SetLineWidth, COMDAT

; 116  : 	_asm mov eax, 0x7194D0

	mov	eax, 7443664				; 007194d0H

; 117  : 	_asm jmp eax

	jmp	eax
?Font_SetLineWidth@@YAXM@Z ENDP				; Font_SetLineWidth
_TEXT	ENDS
; Function compile flags: /Odtp /RTCsu /ZI
; File z:\sampsrc\02xu1\saco\game\font.cpp
;	COMDAT ?Font_UseBoxColor@@YAXK@Z
_TEXT	SEGMENT
_color$ = 8						; size = 4
?Font_UseBoxColor@@YAXK@Z PROC				; Font_UseBoxColor, COMDAT

; 108  : 	_asm mov eax, 0x7195E0

	mov	eax, 7443936				; 007195e0H

; 109  : 	_asm jmp eax

	jmp	eax
?Font_UseBoxColor@@YAXK@Z ENDP				; Font_UseBoxColor
_TEXT	ENDS
; Function compile flags: /Odtp /RTCsu /ZI
; File z:\sampsrc\02xu1\saco\game\font.cpp
;	COMDAT ?Font_UseBox@@YAXHH@Z
_TEXT	SEGMENT
_use$ = 8						; size = 4
_unk$ = 12						; size = 4
?Font_UseBox@@YAXHH@Z PROC				; Font_UseBox, COMDAT

; 100  : 	_asm mov eax, 0x7195C0

	mov	eax, 7443904				; 007195c0H

; 101  : 	_asm jmp eax

	jmp	eax
?Font_UseBox@@YAXHH@Z ENDP				; Font_UseBox
_TEXT	ENDS
; Function compile flags: /Odtp /RTCsu /ZI
; File z:\sampsrc\02xu1\saco\game\font.cpp
;	COMDAT ?Font_SetRightJustifyWrap@@YAXM@Z
_TEXT	SEGMENT
_wrap$ = 8						; size = 4
?Font_SetRightJustifyWrap@@YAXM@Z PROC			; Font_SetRightJustifyWrap, COMDAT

; 92   : 	_asm mov eax, 0x7194F0

	mov	eax, 7443696				; 007194f0H

; 93   : 	_asm jmp eax

	jmp	eax
?Font_SetRightJustifyWrap@@YAXM@Z ENDP			; Font_SetRightJustifyWrap
_TEXT	ENDS
; Function compile flags: /Odtp /RTCsu /ZI
; File z:\sampsrc\02xu1\saco\game\font.cpp
;	COMDAT ?Font_SetProportional@@YAXH@Z
_TEXT	SEGMENT
_prop$ = 8						; size = 4
?Font_SetProportional@@YAXH@Z PROC			; Font_SetProportional, COMDAT

; 84   : 	_asm mov eax, 0x7195B0

	mov	eax, 7443888				; 007195b0H

; 85   : 	_asm jmp eax

	jmp	eax
?Font_SetProportional@@YAXH@Z ENDP			; Font_SetProportional
_TEXT	ENDS
; Function compile flags: /Odtp /RTCsu /ZI
; File z:\sampsrc\02xu1\saco\game\font.cpp
;	COMDAT ?Font_SetFontStyle@@YAXH@Z
_TEXT	SEGMENT
_style$ = 8						; size = 4
?Font_SetFontStyle@@YAXH@Z PROC				; Font_SetFontStyle, COMDAT

; 76   : 	_asm mov eax, 0x719490

	mov	eax, 7443600				; 00719490H

; 77   : 	_asm jmp eax

	jmp	eax
?Font_SetFontStyle@@YAXH@Z ENDP				; Font_SetFontStyle
_TEXT	ENDS
; Function compile flags: /Odtp /RTCsu /ZI
; File z:\sampsrc\02xu1\saco\game\font.cpp
;	COMDAT ?Font_SetJustify@@YAXH@Z
_TEXT	SEGMENT
_just$ = 8						; size = 4
?Font_SetJustify@@YAXH@Z PROC				; Font_SetJustify, COMDAT

; 68   : 	_asm mov eax, 0x719610

	mov	eax, 7443984				; 00719610H

; 69   : 	_asm jmp eax

	jmp	eax
?Font_SetJustify@@YAXH@Z ENDP				; Font_SetJustify
_TEXT	ENDS
; Function compile flags: /Odtp /RTCsu /ZI
; File z:\sampsrc\02xu1\saco\game\font.cpp
;	COMDAT ?Font_SetScale@@YAXMM@Z
_TEXT	SEGMENT
_X$ = 8							; size = 4
_Y$ = 12						; size = 4
?Font_SetScale@@YAXMM@Z PROC				; Font_SetScale, COMDAT

; 59   : 	_asm mov eax, 0x719380

	mov	eax, 7443328				; 00719380H

; 60   :     _asm jmp eax

	jmp	eax
?Font_SetScale@@YAXMM@Z ENDP				; Font_SetScale
_TEXT	ENDS
; Function compile flags: /Odtp /RTCsu /ZI
; File z:\sampsrc\02xu1\saco\game\font.cpp
;	COMDAT ?Font_Unk12@@YAXH@Z
_TEXT	SEGMENT
_unk$ = 8						; size = 4
?Font_Unk12@@YAXH@Z PROC				; Font_Unk12, COMDAT

; 51   : 	_asm mov eax, 0x719600

	mov	eax, 7443968				; 00719600H

; 52   : 	_asm jmp eax

	jmp	eax
?Font_Unk12@@YAXH@Z ENDP				; Font_Unk12
_TEXT	ENDS
; Function compile flags: /Odtp /RTCsu /ZI
; File z:\sampsrc\02xu1\saco\game\font.cpp
;	COMDAT ?Font_SetOutline@@YAXH@Z
_TEXT	SEGMENT
_pos$ = 8						; size = 4
?Font_SetOutline@@YAXH@Z PROC				; Font_SetOutline, COMDAT

; 43   : 	_asm mov eax, 0x719590

	mov	eax, 7443856				; 00719590H

; 44   : 	_asm jmp eax

	jmp	eax
?Font_SetOutline@@YAXH@Z ENDP				; Font_SetOutline
_TEXT	ENDS
; Function compile flags: /Odtp /RTCsu /ZI
; File z:\sampsrc\02xu1\saco\game\font.cpp
;	COMDAT ?Font_SetDropColor@@YAXK@Z
_TEXT	SEGMENT
_dwColor$ = 8						; size = 4
?Font_SetDropColor@@YAXK@Z PROC				; Font_SetDropColor, COMDAT

; 35   : 	_asm mov eax, 0x719510

	mov	eax, 7443728				; 00719510H

; 36   : 	_asm jmp eax

	jmp	eax
?Font_SetDropColor@@YAXK@Z ENDP				; Font_SetDropColor
_TEXT	ENDS
; Function compile flags: /Odtp /RTCsu /ZI
; File z:\sampsrc\02xu1\saco\game\font.cpp
;	COMDAT ?Font_SetColor@@YAXK@Z
_TEXT	SEGMENT
_dwColor$ = 8						; size = 4
?Font_SetColor@@YAXK@Z PROC				; Font_SetColor, COMDAT

; 27   : 	_asm mov eax, 0x719430

	mov	eax, 7443504				; 00719430H

; 28   : 	_asm jmp eax

	jmp	eax
?Font_SetColor@@YAXK@Z ENDP				; Font_SetColor
_TEXT	ENDS
; Function compile flags: /Odtp /RTCsu /ZI
; File z:\sampsrc\02xu1\saco\game\font.cpp
;	COMDAT ?Font_PrintString@@YAXMMPAD@Z
_TEXT	SEGMENT
_X$ = 8							; size = 4
_Y$ = 12						; size = 4
_sz$ = 16						; size = 4
?Font_PrintString@@YAXMMPAD@Z PROC			; Font_PrintString, COMDAT

; 19   : 	_asm mov eax, 0x71A700

	mov	eax, 7448320				; 0071a700H

; 20   : 	_asm jmp eax

	jmp	eax
?Font_PrintString@@YAXMMPAD@Z ENDP			; Font_PrintString
_TEXT	ENDS
END
