; Listing generated by Microsoft (R) Optimizing Compiler Version 18.00.31101.0 

	TITLE	Z:\sampsrc\02Xu1\saco\helpdialog.cpp
	.686P
	.XMM
	include listing.inc
	.model	flat

INCLUDELIB LIBCMTD
INCLUDELIB OLDNAMES

PUBLIC	?GetScreenWidth@CGame@@QAEHXZ			; CGame::GetScreenWidth
PUBLIC	??0CHelpDialog@@QAE@PAUIDirect3DDevice9@@@Z	; CHelpDialog::CHelpDialog
PUBLIC	?Draw@CHelpDialog@@QAEXXZ			; CHelpDialog::Draw
PUBLIC	??_C@_0BI@JOPEFGFJ@?9?9?9?5SA?3MP?5Key?5Binds?5?9?9?9?$AA@ ; `string'
PUBLIC	??_C@_0BN@JFMMEBCN@F1?3?5Display?5this?5help?5dialog?$AA@ ; `string'
PUBLIC	??_C@_0BM@GMBBJIA@TAB?3?5Display?5the?5scoreboard?$AA@ ; `string'
PUBLIC	??_C@_0DF@IAEGDALC@F4?3?5Allows?5you?5to?5change?5class?5n@ ; `string'
PUBLIC	??_C@_0BO@IIAAGCLH@F5?3?5Show?5bandwidth?5statistics?$AA@ ; `string'
PUBLIC	??_C@_0BI@EPHCBBEE@F7?3?5Toggle?5the?5chat?5box?$AA@ ; `string'
PUBLIC	??_C@_0BG@FKMMAIPN@F8?3?5Take?5a?5screenshot?$AA@ ; `string'
PUBLIC	??_C@_0BL@COGMKKKA@F9?3?5Toggle?5the?5deathwindow?$AA@ ; `string'
PUBLIC	??_C@_0CJ@CKPBDOGK@T?1F6?3?5Allows?5you?5to?5enter?5a?5chat@ ; `string'
PUBLIC	??_C@_0CI@ILAHHNDC@Recruit?5Key?3?5Enter?5vehicle?5as?5pa@ ; `string'
EXTRN	?RenderText@CFontRender@@QAEXPADUtagRECT@@K@Z:PROC ; CFontRender::RenderText
EXTRN	@_RTC_CheckStackVars@8:PROC
EXTRN	@__security_check_cookie@4:PROC
EXTRN	__RTC_CheckEsp:PROC
EXTRN	__RTC_InitBase:PROC
EXTRN	__RTC_Shutdown:PROC
EXTRN	?pGame@@3PAVCGame@@A:DWORD			; pGame
EXTRN	?pDefaultFont@@3PAVCFontRender@@A:DWORD		; pDefaultFont
EXTRN	___security_cookie:DWORD
;	COMDAT rtc$TMZ
rtc$TMZ	SEGMENT
__RTC_Shutdown.rtc$TMZ DD FLAT:__RTC_Shutdown
rtc$TMZ	ENDS
;	COMDAT rtc$IMZ
rtc$IMZ	SEGMENT
__RTC_InitBase.rtc$IMZ DD FLAT:__RTC_InitBase
rtc$IMZ	ENDS
;	COMDAT ??_C@_0CI@ILAHHNDC@Recruit?5Key?3?5Enter?5vehicle?5as?5pa@
CONST	SEGMENT
??_C@_0CI@ILAHHNDC@Recruit?5Key?3?5Enter?5vehicle?5as?5pa@ DB 'Recruit Ke'
	DB	'y: Enter vehicle as passenger', 00H		; `string'
CONST	ENDS
;	COMDAT ??_C@_0CJ@CKPBDOGK@T?1F6?3?5Allows?5you?5to?5enter?5a?5chat@
CONST	SEGMENT
??_C@_0CJ@CKPBDOGK@T?1F6?3?5Allows?5you?5to?5enter?5a?5chat@ DB 'T/F6: Al'
	DB	'lows you to enter a chat message', 00H	; `string'
CONST	ENDS
;	COMDAT ??_C@_0BL@COGMKKKA@F9?3?5Toggle?5the?5deathwindow?$AA@
CONST	SEGMENT
??_C@_0BL@COGMKKKA@F9?3?5Toggle?5the?5deathwindow?$AA@ DB 'F9: Toggle the'
	DB	' deathwindow', 00H				; `string'
CONST	ENDS
;	COMDAT ??_C@_0BG@FKMMAIPN@F8?3?5Take?5a?5screenshot?$AA@
CONST	SEGMENT
??_C@_0BG@FKMMAIPN@F8?3?5Take?5a?5screenshot?$AA@ DB 'F8: Take a screensh'
	DB	'ot', 00H					; `string'
CONST	ENDS
;	COMDAT ??_C@_0BI@EPHCBBEE@F7?3?5Toggle?5the?5chat?5box?$AA@
CONST	SEGMENT
??_C@_0BI@EPHCBBEE@F7?3?5Toggle?5the?5chat?5box?$AA@ DB 'F7: Toggle the c'
	DB	'hat box', 00H				; `string'
CONST	ENDS
;	COMDAT ??_C@_0BO@IIAAGCLH@F5?3?5Show?5bandwidth?5statistics?$AA@
CONST	SEGMENT
??_C@_0BO@IIAAGCLH@F5?3?5Show?5bandwidth?5statistics?$AA@ DB 'F5: Show ba'
	DB	'ndwidth statistics', 00H			; `string'
CONST	ENDS
;	COMDAT ??_C@_0DF@IAEGDALC@F4?3?5Allows?5you?5to?5change?5class?5n@
CONST	SEGMENT
??_C@_0DF@IAEGDALC@F4?3?5Allows?5you?5to?5change?5class?5n@ DB 'F4: Allow'
	DB	's you to change class next time you respawn', 00H ; `string'
CONST	ENDS
;	COMDAT ??_C@_0BM@GMBBJIA@TAB?3?5Display?5the?5scoreboard?$AA@
CONST	SEGMENT
??_C@_0BM@GMBBJIA@TAB?3?5Display?5the?5scoreboard?$AA@ DB 'TAB: Display t'
	DB	'he scoreboard', 00H				; `string'
CONST	ENDS
;	COMDAT ??_C@_0BN@JFMMEBCN@F1?3?5Display?5this?5help?5dialog?$AA@
CONST	SEGMENT
??_C@_0BN@JFMMEBCN@F1?3?5Display?5this?5help?5dialog?$AA@ DB 'F1: Display'
	DB	' this help dialog', 00H			; `string'
CONST	ENDS
;	COMDAT ??_C@_0BI@JOPEFGFJ@?9?9?9?5SA?3MP?5Key?5Binds?5?9?9?9?$AA@
CONST	SEGMENT
??_C@_0BI@JOPEFGFJ@?9?9?9?5SA?3MP?5Key?5Binds?5?9?9?9?$AA@ DB '--- SA:MP '
	DB	'Key Binds ---', 00H				; `string'
CONST	ENDS
; Function compile flags: /Odtp /RTCsu /ZI
; File z:\sampsrc\02xu1\saco\helpdialog.cpp
;	COMDAT ?Draw@CHelpDialog@@QAEXXZ
_TEXT	SEGMENT
_rect$ = -36						; size = 16
_this$ = -12						; size = 4
__$ArrayPad$ = -4					; size = 4
?Draw@CHelpDialog@@QAEXXZ PROC				; CHelpDialog::Draw, COMDAT
; _this$ = ecx

; 19   : {

	push	ebp
	mov	ebp, esp
	sub	esp, 232				; 000000e8H
	push	ebx
	push	esi
	push	edi
	push	ecx
	lea	edi, DWORD PTR [ebp-232]
	mov	ecx, 58					; 0000003aH
	mov	eax, -858993460				; ccccccccH
	rep stosd
	pop	ecx
	mov	eax, DWORD PTR ___security_cookie
	xor	eax, ebp
	mov	DWORD PTR __$ArrayPad$[ebp], eax
	mov	DWORD PTR _this$[ebp], ecx

; 20   : 	RECT rect;
; 21   : 	rect.top		= 10;

	mov	DWORD PTR _rect$[ebp+4], 10		; 0000000aH

; 22   : 	rect.right		= pGame->GetScreenWidth() - 150;

	mov	ecx, DWORD PTR ?pGame@@3PAVCGame@@A	; pGame
	call	?GetScreenWidth@CGame@@QAEHXZ		; CGame::GetScreenWidth
	sub	eax, 150				; 00000096H
	mov	DWORD PTR _rect$[ebp+8], eax

; 23   : 	rect.left		= 10;

	mov	DWORD PTR _rect$[ebp], 10		; 0000000aH

; 24   : 	rect.bottom		= rect.top + 16;

	mov	eax, DWORD PTR _rect$[ebp+4]
	add	eax, 16					; 00000010H
	mov	DWORD PTR _rect$[ebp+12], eax

; 25   : 
; 26   : 	pDefaultFont->RenderText("--- SA:MP Key Binds ---",rect,0xFFFFFFFF); rect.top += 16; rect.bottom += 16;

	push	-1
	sub	esp, 16					; 00000010H
	mov	eax, esp
	mov	ecx, DWORD PTR _rect$[ebp]
	mov	DWORD PTR [eax], ecx
	mov	edx, DWORD PTR _rect$[ebp+4]
	mov	DWORD PTR [eax+4], edx
	mov	ecx, DWORD PTR _rect$[ebp+8]
	mov	DWORD PTR [eax+8], ecx
	mov	edx, DWORD PTR _rect$[ebp+12]
	mov	DWORD PTR [eax+12], edx
	push	OFFSET ??_C@_0BI@JOPEFGFJ@?9?9?9?5SA?3MP?5Key?5Binds?5?9?9?9?$AA@
	mov	ecx, DWORD PTR ?pDefaultFont@@3PAVCFontRender@@A ; pDefaultFont
	call	?RenderText@CFontRender@@QAEXPADUtagRECT@@K@Z ; CFontRender::RenderText
	mov	eax, DWORD PTR _rect$[ebp+4]
	add	eax, 16					; 00000010H
	mov	DWORD PTR _rect$[ebp+4], eax
	mov	eax, DWORD PTR _rect$[ebp+12]
	add	eax, 16					; 00000010H
	mov	DWORD PTR _rect$[ebp+12], eax

; 27   : 	pDefaultFont->RenderText("F1: Display this help dialog",rect,0xFFFFFFFF); rect.top += 16; rect.bottom += 16;

	push	-1
	sub	esp, 16					; 00000010H
	mov	eax, esp
	mov	ecx, DWORD PTR _rect$[ebp]
	mov	DWORD PTR [eax], ecx
	mov	edx, DWORD PTR _rect$[ebp+4]
	mov	DWORD PTR [eax+4], edx
	mov	ecx, DWORD PTR _rect$[ebp+8]
	mov	DWORD PTR [eax+8], ecx
	mov	edx, DWORD PTR _rect$[ebp+12]
	mov	DWORD PTR [eax+12], edx
	push	OFFSET ??_C@_0BN@JFMMEBCN@F1?3?5Display?5this?5help?5dialog?$AA@
	mov	ecx, DWORD PTR ?pDefaultFont@@3PAVCFontRender@@A ; pDefaultFont
	call	?RenderText@CFontRender@@QAEXPADUtagRECT@@K@Z ; CFontRender::RenderText
	mov	eax, DWORD PTR _rect$[ebp+4]
	add	eax, 16					; 00000010H
	mov	DWORD PTR _rect$[ebp+4], eax
	mov	eax, DWORD PTR _rect$[ebp+12]
	add	eax, 16					; 00000010H
	mov	DWORD PTR _rect$[ebp+12], eax

; 28   : 	pDefaultFont->RenderText("TAB: Display the scoreboard",rect,0xFFFFFFFF); rect.top += 16; rect.bottom += 16;

	push	-1
	sub	esp, 16					; 00000010H
	mov	eax, esp
	mov	ecx, DWORD PTR _rect$[ebp]
	mov	DWORD PTR [eax], ecx
	mov	edx, DWORD PTR _rect$[ebp+4]
	mov	DWORD PTR [eax+4], edx
	mov	ecx, DWORD PTR _rect$[ebp+8]
	mov	DWORD PTR [eax+8], ecx
	mov	edx, DWORD PTR _rect$[ebp+12]
	mov	DWORD PTR [eax+12], edx
	push	OFFSET ??_C@_0BM@GMBBJIA@TAB?3?5Display?5the?5scoreboard?$AA@
	mov	ecx, DWORD PTR ?pDefaultFont@@3PAVCFontRender@@A ; pDefaultFont
	call	?RenderText@CFontRender@@QAEXPADUtagRECT@@K@Z ; CFontRender::RenderText
	mov	eax, DWORD PTR _rect$[ebp+4]
	add	eax, 16					; 00000010H
	mov	DWORD PTR _rect$[ebp+4], eax
	mov	eax, DWORD PTR _rect$[ebp+12]
	add	eax, 16					; 00000010H
	mov	DWORD PTR _rect$[ebp+12], eax

; 29   : 	pDefaultFont->RenderText("F4: Allows you to change class next time you respawn",rect,0xFFFFFFFF); rect.top += 16; rect.bottom += 16;

	push	-1
	sub	esp, 16					; 00000010H
	mov	eax, esp
	mov	ecx, DWORD PTR _rect$[ebp]
	mov	DWORD PTR [eax], ecx
	mov	edx, DWORD PTR _rect$[ebp+4]
	mov	DWORD PTR [eax+4], edx
	mov	ecx, DWORD PTR _rect$[ebp+8]
	mov	DWORD PTR [eax+8], ecx
	mov	edx, DWORD PTR _rect$[ebp+12]
	mov	DWORD PTR [eax+12], edx
	push	OFFSET ??_C@_0DF@IAEGDALC@F4?3?5Allows?5you?5to?5change?5class?5n@
	mov	ecx, DWORD PTR ?pDefaultFont@@3PAVCFontRender@@A ; pDefaultFont
	call	?RenderText@CFontRender@@QAEXPADUtagRECT@@K@Z ; CFontRender::RenderText
	mov	eax, DWORD PTR _rect$[ebp+4]
	add	eax, 16					; 00000010H
	mov	DWORD PTR _rect$[ebp+4], eax
	mov	eax, DWORD PTR _rect$[ebp+12]
	add	eax, 16					; 00000010H
	mov	DWORD PTR _rect$[ebp+12], eax

; 30   : 	pDefaultFont->RenderText("F5: Show bandwidth statistics",rect,0xFFFFFFFF); rect.top += 16; rect.bottom += 16;

	push	-1
	sub	esp, 16					; 00000010H
	mov	eax, esp
	mov	ecx, DWORD PTR _rect$[ebp]
	mov	DWORD PTR [eax], ecx
	mov	edx, DWORD PTR _rect$[ebp+4]
	mov	DWORD PTR [eax+4], edx
	mov	ecx, DWORD PTR _rect$[ebp+8]
	mov	DWORD PTR [eax+8], ecx
	mov	edx, DWORD PTR _rect$[ebp+12]
	mov	DWORD PTR [eax+12], edx
	push	OFFSET ??_C@_0BO@IIAAGCLH@F5?3?5Show?5bandwidth?5statistics?$AA@
	mov	ecx, DWORD PTR ?pDefaultFont@@3PAVCFontRender@@A ; pDefaultFont
	call	?RenderText@CFontRender@@QAEXPADUtagRECT@@K@Z ; CFontRender::RenderText
	mov	eax, DWORD PTR _rect$[ebp+4]
	add	eax, 16					; 00000010H
	mov	DWORD PTR _rect$[ebp+4], eax
	mov	eax, DWORD PTR _rect$[ebp+12]
	add	eax, 16					; 00000010H
	mov	DWORD PTR _rect$[ebp+12], eax

; 31   : 	pDefaultFont->RenderText("F7: Toggle the chat box",rect,0xFFFFFFFF); rect.top += 16; rect.bottom += 16;

	push	-1
	sub	esp, 16					; 00000010H
	mov	eax, esp
	mov	ecx, DWORD PTR _rect$[ebp]
	mov	DWORD PTR [eax], ecx
	mov	edx, DWORD PTR _rect$[ebp+4]
	mov	DWORD PTR [eax+4], edx
	mov	ecx, DWORD PTR _rect$[ebp+8]
	mov	DWORD PTR [eax+8], ecx
	mov	edx, DWORD PTR _rect$[ebp+12]
	mov	DWORD PTR [eax+12], edx
	push	OFFSET ??_C@_0BI@EPHCBBEE@F7?3?5Toggle?5the?5chat?5box?$AA@
	mov	ecx, DWORD PTR ?pDefaultFont@@3PAVCFontRender@@A ; pDefaultFont
	call	?RenderText@CFontRender@@QAEXPADUtagRECT@@K@Z ; CFontRender::RenderText
	mov	eax, DWORD PTR _rect$[ebp+4]
	add	eax, 16					; 00000010H
	mov	DWORD PTR _rect$[ebp+4], eax
	mov	eax, DWORD PTR _rect$[ebp+12]
	add	eax, 16					; 00000010H
	mov	DWORD PTR _rect$[ebp+12], eax

; 32   : 	pDefaultFont->RenderText("F8: Take a screenshot",rect,0xFFFFFFFF); rect.top += 16; rect.bottom += 16;

	push	-1
	sub	esp, 16					; 00000010H
	mov	eax, esp
	mov	ecx, DWORD PTR _rect$[ebp]
	mov	DWORD PTR [eax], ecx
	mov	edx, DWORD PTR _rect$[ebp+4]
	mov	DWORD PTR [eax+4], edx
	mov	ecx, DWORD PTR _rect$[ebp+8]
	mov	DWORD PTR [eax+8], ecx
	mov	edx, DWORD PTR _rect$[ebp+12]
	mov	DWORD PTR [eax+12], edx
	push	OFFSET ??_C@_0BG@FKMMAIPN@F8?3?5Take?5a?5screenshot?$AA@
	mov	ecx, DWORD PTR ?pDefaultFont@@3PAVCFontRender@@A ; pDefaultFont
	call	?RenderText@CFontRender@@QAEXPADUtagRECT@@K@Z ; CFontRender::RenderText
	mov	eax, DWORD PTR _rect$[ebp+4]
	add	eax, 16					; 00000010H
	mov	DWORD PTR _rect$[ebp+4], eax
	mov	eax, DWORD PTR _rect$[ebp+12]
	add	eax, 16					; 00000010H
	mov	DWORD PTR _rect$[ebp+12], eax

; 33   : 	pDefaultFont->RenderText("F9: Toggle the deathwindow",rect,0xFFFFFFFF); rect.top += 16; rect.bottom += 16;

	push	-1
	sub	esp, 16					; 00000010H
	mov	eax, esp
	mov	ecx, DWORD PTR _rect$[ebp]
	mov	DWORD PTR [eax], ecx
	mov	edx, DWORD PTR _rect$[ebp+4]
	mov	DWORD PTR [eax+4], edx
	mov	ecx, DWORD PTR _rect$[ebp+8]
	mov	DWORD PTR [eax+8], ecx
	mov	edx, DWORD PTR _rect$[ebp+12]
	mov	DWORD PTR [eax+12], edx
	push	OFFSET ??_C@_0BL@COGMKKKA@F9?3?5Toggle?5the?5deathwindow?$AA@
	mov	ecx, DWORD PTR ?pDefaultFont@@3PAVCFontRender@@A ; pDefaultFont
	call	?RenderText@CFontRender@@QAEXPADUtagRECT@@K@Z ; CFontRender::RenderText
	mov	eax, DWORD PTR _rect$[ebp+4]
	add	eax, 16					; 00000010H
	mov	DWORD PTR _rect$[ebp+4], eax
	mov	eax, DWORD PTR _rect$[ebp+12]
	add	eax, 16					; 00000010H
	mov	DWORD PTR _rect$[ebp+12], eax

; 34   : 	pDefaultFont->RenderText("T/F6: Allows you to enter a chat message",rect,0xFFFFFFFF); rect.top += 16; rect.bottom += 16;

	push	-1
	sub	esp, 16					; 00000010H
	mov	eax, esp
	mov	ecx, DWORD PTR _rect$[ebp]
	mov	DWORD PTR [eax], ecx
	mov	edx, DWORD PTR _rect$[ebp+4]
	mov	DWORD PTR [eax+4], edx
	mov	ecx, DWORD PTR _rect$[ebp+8]
	mov	DWORD PTR [eax+8], ecx
	mov	edx, DWORD PTR _rect$[ebp+12]
	mov	DWORD PTR [eax+12], edx
	push	OFFSET ??_C@_0CJ@CKPBDOGK@T?1F6?3?5Allows?5you?5to?5enter?5a?5chat@
	mov	ecx, DWORD PTR ?pDefaultFont@@3PAVCFontRender@@A ; pDefaultFont
	call	?RenderText@CFontRender@@QAEXPADUtagRECT@@K@Z ; CFontRender::RenderText
	mov	eax, DWORD PTR _rect$[ebp+4]
	add	eax, 16					; 00000010H
	mov	DWORD PTR _rect$[ebp+4], eax
	mov	eax, DWORD PTR _rect$[ebp+12]
	add	eax, 16					; 00000010H
	mov	DWORD PTR _rect$[ebp+12], eax

; 35   : 	pDefaultFont->RenderText("Recruit Key: Enter vehicle as passenger",rect,0xFFFFFFFF); rect.top += 16; rect.bottom += 16;

	push	-1
	sub	esp, 16					; 00000010H
	mov	eax, esp
	mov	ecx, DWORD PTR _rect$[ebp]
	mov	DWORD PTR [eax], ecx
	mov	edx, DWORD PTR _rect$[ebp+4]
	mov	DWORD PTR [eax+4], edx
	mov	ecx, DWORD PTR _rect$[ebp+8]
	mov	DWORD PTR [eax+8], ecx
	mov	edx, DWORD PTR _rect$[ebp+12]
	mov	DWORD PTR [eax+12], edx
	push	OFFSET ??_C@_0CI@ILAHHNDC@Recruit?5Key?3?5Enter?5vehicle?5as?5pa@
	mov	ecx, DWORD PTR ?pDefaultFont@@3PAVCFontRender@@A ; pDefaultFont
	call	?RenderText@CFontRender@@QAEXPADUtagRECT@@K@Z ; CFontRender::RenderText
	mov	eax, DWORD PTR _rect$[ebp+4]
	add	eax, 16					; 00000010H
	mov	DWORD PTR _rect$[ebp+4], eax
	mov	eax, DWORD PTR _rect$[ebp+12]
	add	eax, 16					; 00000010H
	mov	DWORD PTR _rect$[ebp+12], eax

; 36   : }

	push	edx
	mov	ecx, ebp
	push	eax
	lea	edx, DWORD PTR $LN5@Draw
	call	@_RTC_CheckStackVars@8
	pop	eax
	pop	edx
	pop	edi
	pop	esi
	pop	ebx
	mov	ecx, DWORD PTR __$ArrayPad$[ebp]
	xor	ecx, ebp
	call	@__security_check_cookie@4
	add	esp, 232				; 000000e8H
	cmp	ebp, esp
	call	__RTC_CheckEsp
	mov	esp, ebp
	pop	ebp
	ret	0
	npad	2
$LN5@Draw:
	DD	1
	DD	$LN4@Draw
$LN4@Draw:
	DD	-36					; ffffffdcH
	DD	16					; 00000010H
	DD	$LN3@Draw
$LN3@Draw:
	DB	114					; 00000072H
	DB	101					; 00000065H
	DB	99					; 00000063H
	DB	116					; 00000074H
	DB	0
?Draw@CHelpDialog@@QAEXXZ ENDP				; CHelpDialog::Draw
_TEXT	ENDS
; Function compile flags: /Odtp /RTCsu /ZI
; File z:\sampsrc\02xu1\saco\helpdialog.cpp
;	COMDAT ??0CHelpDialog@@QAE@PAUIDirect3DDevice9@@@Z
_TEXT	SEGMENT
_this$ = -8						; size = 4
_pD3DDevice$ = 8					; size = 4
??0CHelpDialog@@QAE@PAUIDirect3DDevice9@@@Z PROC	; CHelpDialog::CHelpDialog, COMDAT
; _this$ = ecx

; 14   : {

	push	ebp
	mov	ebp, esp
	sub	esp, 204				; 000000ccH
	push	ebx
	push	esi
	push	edi
	push	ecx
	lea	edi, DWORD PTR [ebp-204]
	mov	ecx, 51					; 00000033H
	mov	eax, -858993460				; ccccccccH
	rep stosd
	pop	ecx
	mov	DWORD PTR _this$[ebp], ecx

; 15   : 	m_pD3DDevice = pD3DDevice;

	mov	eax, DWORD PTR _this$[ebp]
	mov	ecx, DWORD PTR _pD3DDevice$[ebp]
	mov	DWORD PTR [eax], ecx

; 16   : }

	mov	eax, DWORD PTR _this$[ebp]
	pop	edi
	pop	esi
	pop	ebx
	mov	esp, ebp
	pop	ebp
	ret	4
??0CHelpDialog@@QAE@PAUIDirect3DDevice9@@@Z ENDP	; CHelpDialog::CHelpDialog
_TEXT	ENDS
; Function compile flags: /Odtp /RTCsu /ZI
; File z:\sampsrc\02xu1\saco\game\game.h
;	COMDAT ?GetScreenWidth@CGame@@QAEHXZ
_TEXT	SEGMENT
_this$ = -8						; size = 4
?GetScreenWidth@CGame@@QAEHXZ PROC			; CGame::GetScreenWidth, COMDAT
; _this$ = ecx

; 152  : 	int GetScreenWidth() { return *(int*)0xC17044; };

	push	ebp
	mov	ebp, esp
	sub	esp, 204				; 000000ccH
	push	ebx
	push	esi
	push	edi
	push	ecx
	lea	edi, DWORD PTR [ebp-204]
	mov	ecx, 51					; 00000033H
	mov	eax, -858993460				; ccccccccH
	rep stosd
	pop	ecx
	mov	DWORD PTR _this$[ebp], ecx
	mov	eax, DWORD PTR ds:12677188
	pop	edi
	pop	esi
	pop	ebx
	mov	esp, ebp
	pop	ebp
	ret	0
?GetScreenWidth@CGame@@QAEHXZ ENDP			; CGame::GetScreenWidth
_TEXT	ENDS
END
