; Listing generated by Microsoft (R) Optimizing Compiler Version 18.00.31101.0 

	TITLE	Z:\sampsrc\02Xu1\saco\main.cpp
	.686P
	.XMM
	include listing.inc
	.model	flat

INCLUDELIB LIBCMTD
INCLUDELIB OLDNAMES

PUBLIC	?pGame@@3PAVCGame@@A				; pGame
PUBLIC	?iGtaVersion@@3HA				; iGtaVersion
PUBLIC	?tSettings@@3U_GAME_SETTINGS@@A			; tSettings
PUBLIC	?pChatWindow@@3PAVCChatWindow@@A		; pChatWindow
PUBLIC	?pCmdWindow@@3PAVCCmdWindow@@A			; pCmdWindow
PUBLIC	?pDeathWindow@@3PAVCDeathWindow@@A		; pDeathWindow
PUBLIC	?pSpawnScreen@@3PAVCSpawnScreen@@A		; pSpawnScreen
PUBLIC	?pNetGame@@3PAVCNetGame@@A			; pNetGame
PUBLIC	?pDefaultFont@@3PAVCFontRender@@A		; pDefaultFont
PUBLIC	?bGameInited@@3HA				; bGameInited
PUBLIC	?bNetworkInited@@3HA				; bNetworkInited
PUBLIC	?bGameModded@@3HA				; bGameModded
PUBLIC	?bQuitGame@@3HA					; bQuitGame
PUBLIC	?dwStartQuitTick@@3KA				; dwStartQuitTick
PUBLIC	?pD3D@@3PAUIDirect3D9@@A			; pD3D
PUBLIC	?pD3DDevice@@3PAUIDirect3DDevice9@@A		; pD3DDevice
PUBLIC	?hInstance@@3PAXA				; hInstance
PUBLIC	?pNewPlayerTags@@3PAVCNewPlayerTags@@A		; pNewPlayerTags
PUBLIC	?pScoreBoard@@3PAVCScoreBoard@@A		; pScoreBoard
PUBLIC	?pLabel@@3PAVCLabel@@A				; pLabel
PUBLIC	?pNetStats@@3PAVCNetStats@@A			; pNetStats
PUBLIC	?pSvrNetStats@@3PAVCSvrNetStats@@A		; pSvrNetStats
PUBLIC	?pHelpDialog@@3PAVCHelpDialog@@A		; pHelpDialog
PUBLIC	?bShowDebugLabels@@3_NA				; bShowDebugLabels
PUBLIC	?dwGameLoop@@3KA				; dwGameLoop
PUBLIC	?dwGraphicsLoop@@3KA				; dwGraphicsLoop
PUBLIC	?dwUIMode@@3KA					; dwUIMode
PUBLIC	?pFileSystem@@3PAVCFileSystem@@A		; pFileSystem
PUBLIC	?pAntiCheat@@3PAVCAntiCheat@@A			; pAntiCheat
PUBLIC	?pDialogResourceManager@@3PAVCDXUTDialogResourceManager@@A ; pDialogResourceManager
PUBLIC	?pGameUI@@3PAVCDXUTDialog@@A			; pGameUI
PUBLIC	?uiCounter@@3IA					; uiCounter
PUBLIC	?dwOrgRwSetState@@3KA				; dwOrgRwSetState
PUBLIC	?dwSetStateCaller@@3KA				; dwSetStateCaller
PUBLIC	?dwSetStateOption@@3KA				; dwSetStateOption
PUBLIC	?dwSetStateParam@@3KA				; dwSetStateParam
PUBLIC	?dbgstr@@3PADA					; dbgstr
PUBLIC	?dwFogEnabled@@3KA				; dwFogEnabled
PUBLIC	?dwFogColor@@3KA				; dwFogColor
PUBLIC	?gDisableAllFog@@3HA				; gDisableAllFog
_BSS	SEGMENT
?pGame@@3PAVCGame@@A DD 01H DUP (?)			; pGame
?iGtaVersion@@3HA DD 01H DUP (?)			; iGtaVersion
?tSettings@@3U_GAME_SETTINGS@@A DB 0410H DUP (?)	; tSettings
?pChatWindow@@3PAVCChatWindow@@A DD 01H DUP (?)		; pChatWindow
?pCmdWindow@@3PAVCCmdWindow@@A DD 01H DUP (?)		; pCmdWindow
?pDeathWindow@@3PAVCDeathWindow@@A DD 01H DUP (?)	; pDeathWindow
?pSpawnScreen@@3PAVCSpawnScreen@@A DD 01H DUP (?)	; pSpawnScreen
?pNetGame@@3PAVCNetGame@@A DD 01H DUP (?)		; pNetGame
?pDefaultFont@@3PAVCFontRender@@A DD 01H DUP (?)	; pDefaultFont
?bGameInited@@3HA DD 01H DUP (?)			; bGameInited
?bNetworkInited@@3HA DD 01H DUP (?)			; bNetworkInited
?bGameModded@@3HA DD 01H DUP (?)			; bGameModded
?bQuitGame@@3HA DD 01H DUP (?)				; bQuitGame
?dwStartQuitTick@@3KA DD 01H DUP (?)			; dwStartQuitTick
?pD3D@@3PAUIDirect3D9@@A DD 01H DUP (?)			; pD3D
?pD3DDevice@@3PAUIDirect3DDevice9@@A DD 01H DUP (?)	; pD3DDevice
?hInstance@@3PAXA DD 01H DUP (?)			; hInstance
?pNewPlayerTags@@3PAVCNewPlayerTags@@A DD 01H DUP (?)	; pNewPlayerTags
?pScoreBoard@@3PAVCScoreBoard@@A DD 01H DUP (?)		; pScoreBoard
?pLabel@@3PAVCLabel@@A DD 01H DUP (?)			; pLabel
?pNetStats@@3PAVCNetStats@@A DD 01H DUP (?)		; pNetStats
?pSvrNetStats@@3PAVCSvrNetStats@@A DD 01H DUP (?)	; pSvrNetStats
?pHelpDialog@@3PAVCHelpDialog@@A DD 01H DUP (?)		; pHelpDialog
?bShowDebugLabels@@3_NA DB 01H DUP (?)			; bShowDebugLabels
	ALIGN	4

?dwGameLoop@@3KA DD 01H DUP (?)				; dwGameLoop
?dwGraphicsLoop@@3KA DD 01H DUP (?)			; dwGraphicsLoop
?dwUIMode@@3KA DD 01H DUP (?)				; dwUIMode
?pFileSystem@@3PAVCFileSystem@@A DD 01H DUP (?)		; pFileSystem
?pAntiCheat@@3PAVCAntiCheat@@A DD 01H DUP (?)		; pAntiCheat
?pDialogResourceManager@@3PAVCDXUTDialogResourceManager@@A DD 01H DUP (?) ; pDialogResourceManager
?pGameUI@@3PAVCDXUTDialog@@A DD 01H DUP (?)		; pGameUI
?uiCounter@@3IA DD 01H DUP (?)				; uiCounter
?dwOrgRwSetState@@3KA DD 01H DUP (?)			; dwOrgRwSetState
?dwSetStateCaller@@3KA DD 01H DUP (?)			; dwSetStateCaller
?dwSetStateOption@@3KA DD 01H DUP (?)			; dwSetStateOption
?dwSetStateParam@@3KA DD 01H DUP (?)			; dwSetStateParam
?dbgstr@@3PADA DB 0100H DUP (?)				; dbgstr
?dwFogEnabled@@3KA DD 01H DUP (?)			; dwFogEnabled
?gDisableAllFog@@3HA DD 01H DUP (?)			; gDisableAllFog
_BSS	ENDS
_DATA	SEGMENT
?dwFogColor@@3KA DD 0ff00ffH				; dwFogColor
_DATA	ENDS
PUBLIC	??0IUnknown@@QAE@XZ				; IUnknown::IUnknown
PUBLIC	??0IDirect3DDevice9@@QAE@XZ			; IDirect3DDevice9::IDirect3DDevice9
PUBLIC	?SetLocation@CDXUTDialog@@QAEXHH@Z		; CDXUTDialog::SetLocation
PUBLIC	?SetSize@CDXUTDialog@@QAEXHH@Z			; CDXUTDialog::SetSize
PUBLIC	?EnableKeyboardInput@CDXUTDialog@@QAEX_N@Z	; CDXUTDialog::EnableKeyboardInput
PUBLIC	?EnableMouseInput@CDXUTDialog@@QAEX_N@Z		; CDXUTDialog::EnableMouseInput
PUBLIC	??_GCDXUTDialog@@QAEPAXI@Z			; CDXUTDialog::`scalar deleting destructor'
PUBLIC	?GetD3D@CGame@@QAEKXZ				; CGame::GetD3D
PUBLIC	?GetCamera@CGame@@QAEPAVCCamera@@XZ		; CGame::GetCamera
PUBLIC	?GetScreenWidth@CGame@@QAEHXZ			; CGame::GetScreenWidth
PUBLIC	?GetScreenHeight@CGame@@QAEHXZ			; CGame::GetScreenHeight
PUBLIC	?GetRakClient@CNetGame@@QAEPAVRakClientInterface@@XZ ; CNetGame::GetRakClient
PUBLIC	?GetGameState@CNetGame@@QAEHXZ			; CNetGame::GetGameState
PUBLIC	??_GCNetGame@@QAEPAXI@Z				; CNetGame::`scalar deleting destructor'
PUBLIC	??0IDirect3DDevice9Hook@@QAE@XZ			; IDirect3DDevice9Hook::IDirect3DDevice9Hook
PUBLIC	?SetStringFromCommandLine@@YAXPAD0@Z		; SetStringFromCommandLine
PUBLIC	?InitSettings@@YAXXZ				; InitSettings
PUBLIC	?QuitGame@@YAXXZ				; QuitGame
PUBLIC	?TheGameLoop@@YAXXZ				; TheGameLoop
PUBLIC	?TheGraphicsLoop@@YAXXZ				; TheGraphicsLoop
PUBLIC	?MarkAsModdedGame@@YAXXZ			; MarkAsModdedGame
PUBLIC	?OnGUIEvent@@YGXIHPAVCDXUTControl@@PAX@Z	; OnGUIEvent
PUBLIC	?d3d9DestroyDeviceObjects@@YAXXZ		; d3d9DestroyDeviceObjects
PUBLIC	?d3d9RestoreDeviceObjects@@YAXXZ		; d3d9RestoreDeviceObjects
PUBLIC	?LaunchMonitor@@YAXPAX@Z			; LaunchMonitor
PUBLIC	_DllMain@12
PUBLIC	?SetupD3DFog@@YAXH@Z				; SetupD3DFog
PUBLIC	?RwRenderStateSetHook@@YAXXZ			; RwRenderStateSetHook
PUBLIC	?HookRwRenderStateSet@@YAXXZ			; HookRwRenderStateSet
PUBLIC	?CallRwRenderStateSet@@YAXHH@Z			; CallRwRenderStateSet
PUBLIC	?SetupGameUI@@YAXXZ				; SetupGameUI
PUBLIC	?DoInitStuff@@YAXXZ				; DoInitStuff
PUBLIC	??_7IDirect3DDevice9Hook@@6B@			; IDirect3DDevice9Hook::`vftable'
PUBLIC	??_C@_0BI@ELLAGGGI@SA?9MP?5Process?5Attached?6?$AA@ ; `string'
PUBLIC	??_C@_0BA@OCJPMOPM@Loading?5Archive?$AA@	; `string'
PUBLIC	??_C@_08BPFCPBGG@samp?4saa?$AA@			; `string'
PUBLIC	??_C@_0BN@HAEOHDIN@Installing?5filesystem?5hooks?4?$AA@ ; `string'
PUBLIC	??_C@_0O@LKCJNEJC@SA?3MP?5Inited?6?$AA@		; `string'
PUBLIC	??_C@_0BC@JIDHNMLB@Process?5Detached?6?$AA@	; `string'
PUBLIC	??_C@_0BL@FJEOAAAM@HookRwRenderStateSet?$CI0x?$CFX?$CJ?$AA@ ; `string'
PUBLIC	??_C@_0BH@JGONLNCN@Start?5of?5DoInitStuff?$CI?$CJ?$AA@ ; `string'
PUBLIC	??_C@_09NEONKHDG@No?5D3D?$CB?$CB?$CB?$AA@	; `string'
PUBLIC	??_C@_0BA@DJOALJEP@No?5D3DDevice?$CB?$CB?$CB?$AA@ ; `string'
PUBLIC	??_C@_0CA@FNFPPPNH@Font?5and?5chat?5window?5creating?4?4?$AA@ ; `string'
PUBLIC	??_C@_0BD@MPIGFPEM@DXUTGUI?5creating?4?4?$AA@	; `string'
PUBLIC	??_C@_0BJ@OGPOGKCP@SetupGameUI?$CI?$CJ?5creating?4?4?$AA@ ; `string'
PUBLIC	??_C@_0BC@DGICMAH@Labels?5creating?4?4?$AA@	; `string'
PUBLIC	??_C@_07EHHHOIHI@Verdana?$AA@			; `string'
PUBLIC	??_C@_0BG@GCCCNOGC@Setting?5up?5commands?4?4?$AA@ ; `string'
PUBLIC	??_C@_0BF@GKDGCAEO@Hooking?5RwSetState?4?4?$AA@	; `string'
PUBLIC	??_C@_0BF@MFBABOEB@End?5of?5DoInitStuff?$CI?$CJ?$AA@ ; `string'
PUBLIC	??_C@_01EEMJAFIK@?6?$AA@			; `string'
PUBLIC	??_R0?AUIUnknown@@@8				; IUnknown `RTTI Type Descriptor'
PUBLIC	??_R3IUnknown@@8				; IUnknown::`RTTI Class Hierarchy Descriptor'
PUBLIC	??_R2IUnknown@@8				; IUnknown::`RTTI Base Class Array'
PUBLIC	??_R1A@?0A@EA@IUnknown@@8			; IUnknown::`RTTI Base Class Descriptor at (0,-1,0,64)'
PUBLIC	??_R0?AUIDirect3DDevice9@@@8			; IDirect3DDevice9 `RTTI Type Descriptor'
PUBLIC	??_R3IDirect3DDevice9@@8			; IDirect3DDevice9::`RTTI Class Hierarchy Descriptor'
PUBLIC	??_R2IDirect3DDevice9@@8			; IDirect3DDevice9::`RTTI Base Class Array'
PUBLIC	??_R1A@?0A@EA@IDirect3DDevice9@@8		; IDirect3DDevice9::`RTTI Base Class Descriptor at (0,-1,0,64)'
PUBLIC	??_R4IDirect3DDevice9Hook@@6B@			; IDirect3DDevice9Hook::`RTTI Complete Object Locator'
PUBLIC	??_R0?AUIDirect3DDevice9Hook@@@8		; IDirect3DDevice9Hook `RTTI Type Descriptor'
PUBLIC	??_R3IDirect3DDevice9Hook@@8			; IDirect3DDevice9Hook::`RTTI Class Hierarchy Descriptor'
PUBLIC	??_R2IDirect3DDevice9Hook@@8			; IDirect3DDevice9Hook::`RTTI Base Class Array'
PUBLIC	??_R1A@?0A@EA@IDirect3DDevice9Hook@@8		; IDirect3DDevice9Hook::`RTTI Base Class Descriptor at (0,-1,0,64)'
PUBLIC	__real@43fa0000
PUBLIC	__real@442f0000
EXTRN	??2@YAPAXI@Z:PROC				; operator new
EXTRN	??3@YAXPAX@Z:PROC				; operator delete
EXTRN	_sprintf:PROC
EXTRN	_memset:PROC
EXTRN	_strcpy:PROC
EXTRN	_strlen:PROC
EXTRN	__imp__GetCommandLineA@0:PROC
EXTRN	__imp__OutputDebugStringA@4:PROC
EXTRN	__imp__SetUnhandledExceptionFilter@4:PROC
EXTRN	__imp__Sleep@4:PROC
EXTRN	__imp__GetCurrentProcess@0:PROC
EXTRN	__imp__ExitProcess@4:PROC
EXTRN	__imp__ExitThread@4:PROC
EXTRN	__imp__GetTickCount@0:PROC
EXTRN	__imp__GetModuleFileNameA@12:PROC
EXTRN	__imp__SetProcessAffinityMask@8:PROC
EXTRN	__imp__timeBeginPeriod@4:PROC
EXTRN	_atoi:PROC
EXTRN	__beginthread:PROC
EXTRN	??0CDXUTDialog@@QAE@XZ:PROC			; CDXUTDialog::CDXUTDialog
EXTRN	??1CDXUTDialog@@QAE@XZ:PROC			; CDXUTDialog::~CDXUTDialog
EXTRN	?Init@CDXUTDialog@@QAEXPAVCDXUTDialogResourceManager@@@Z:PROC ; CDXUTDialog::Init
EXTRN	?SetCallback@CDXUTDialog@@QAEXP6GXIHPAVCDXUTControl@@PAX@Z1@Z:PROC ; CDXUTDialog::SetCallback
EXTRN	??0CDXUTDialogResourceManager@@QAE@XZ:PROC	; CDXUTDialogResourceManager::CDXUTDialogResourceManager
EXTRN	?OnCreateDevice@CDXUTDialogResourceManager@@QAEJPAUIDirect3DDevice9@@@Z:PROC ; CDXUTDialogResourceManager::OnCreateDevice
EXTRN	?OnResetDevice@CDXUTDialogResourceManager@@QAEJXZ:PROC ; CDXUTDialogResourceManager::OnResetDevice
EXTRN	?OnLostDevice@CDXUTDialogResourceManager@@QAEXXZ:PROC ; CDXUTDialogResourceManager::OnLostDevice
EXTRN	?OnDestroyDevice@CDXUTDialogResourceManager@@QAEXXZ:PROC ; CDXUTDialogResourceManager::OnDestroyDevice
EXTRN	?SetBehindPlayer@CCamera@@QAEXXZ:PROC		; CCamera::SetBehindPlayer
EXTRN	?Restore@CCamera@@QAEXXZ:PROC			; CCamera::Restore
EXTRN	?StartGame@CGame@@QAEXXZ:PROC			; CGame::StartGame
EXTRN	?InitGame@CGame@@QAEXXZ:PROC			; CGame::InitGame
EXTRN	?DisplayHud@CGame@@QAEXH@Z:PROC			; CGame::DisplayHud
EXTRN	?GetD3DDevice@CGame@@QAEKXZ:PROC		; CGame::GetD3DDevice
EXTRN	?ProcessInputDisabling@CGame@@QAEXXZ:PROC	; CGame::ProcessInputDisabling
EXTRN	??0CGame@@QAE@XZ:PROC				; CGame::CGame
EXTRN	??0CNetGame@@QAE@PADH00@Z:PROC			; CNetGame::CNetGame
EXTRN	??1CNetGame@@QAE@XZ:PROC			; CNetGame::~CNetGame
EXTRN	?Process@CNetGame@@QAEXXZ:PROC			; CNetGame::Process
EXTRN	?InstallFileSystemHooks@@YAXXZ:PROC		; InstallFileSystemHooks
EXTRN	?UninstallFileSystemHooks@@YAXXZ:PROC		; UninstallFileSystemHooks
EXTRN	??0CFontRender@@QAE@PAUIDirect3DDevice9@@@Z:PROC ; CFontRender::CFontRender
EXTRN	?DeleteDeviceObjects@CFontRender@@QAEXXZ:PROC	; CFontRender::DeleteDeviceObjects
EXTRN	?RestoreDeviceObjects@CFontRender@@QAEXXZ:PROC	; CFontRender::RestoreDeviceObjects
EXTRN	?ResetDialogControls@CChatWindow@@QAEXPAVCDXUTDialog@@@Z:PROC ; CChatWindow::ResetDialogControls
EXTRN	??0CChatWindow@@QAE@PAUIDirect3DDevice9@@PAUID3DXFont@@@Z:PROC ; CChatWindow::CChatWindow
EXTRN	?ProcessInput@CCmdWindow@@QAEXXZ:PROC		; CCmdWindow::ProcessInput
EXTRN	?ResetDialogControls@CCmdWindow@@QAEXPAVCDXUTDialog@@@Z:PROC ; CCmdWindow::ResetDialogControls
EXTRN	??0CCmdWindow@@QAE@PAUIDirect3DDevice9@@@Z:PROC	; CCmdWindow::CCmdWindow
EXTRN	??0CDeathWindow@@QAE@PAUIDirect3DDevice9@@@Z:PROC ; CDeathWindow::CDeathWindow
EXTRN	?RestoreDeviceObjects@CSpawnScreen@@QAEXXZ:PROC	; CSpawnScreen::RestoreDeviceObjects
EXTRN	?DeleteDeviceObjects@CSpawnScreen@@QAEXXZ:PROC	; CSpawnScreen::DeleteDeviceObjects
EXTRN	??0CSpawnScreen@@QAE@PAUIDirect3DDevice9@@@Z:PROC ; CSpawnScreen::CSpawnScreen
EXTRN	??0CNewPlayerTags@@QAE@PAUIDirect3DDevice9@@@Z:PROC ; CNewPlayerTags::CNewPlayerTags
EXTRN	?DeleteDeviceObjects@CNewPlayerTags@@QAEXXZ:PROC ; CNewPlayerTags::DeleteDeviceObjects
EXTRN	?RestoreDeviceObjects@CNewPlayerTags@@QAEXXZ:PROC ; CNewPlayerTags::RestoreDeviceObjects
EXTRN	??0CScoreBoard@@QAE@PAUIDirect3DDevice9@@H@Z:PROC ; CScoreBoard::CScoreBoard
EXTRN	?DeleteDeviceObjects@CScoreBoard@@QAEXXZ:PROC	; CScoreBoard::DeleteDeviceObjects
EXTRN	?RestoreDeviceObjects@CScoreBoard@@QAEXXZ:PROC	; CScoreBoard::RestoreDeviceObjects
EXTRN	??0CLabel@@QAE@PAUIDirect3DDevice9@@PAD_N@Z:PROC ; CLabel::CLabel
EXTRN	?DeleteDeviceObjects@CLabel@@QAEXXZ:PROC	; CLabel::DeleteDeviceObjects
EXTRN	?RestoreDeviceObjects@CLabel@@QAEXXZ:PROC	; CLabel::RestoreDeviceObjects
EXTRN	??0CNetStats@@QAE@PAUIDirect3DDevice9@@@Z:PROC	; CNetStats::CNetStats
EXTRN	??0CSvrNetStats@@QAE@PAUIDirect3DDevice9@@@Z:PROC ; CSvrNetStats::CSvrNetStats
EXTRN	??0CHelpDialog@@QAE@PAUIDirect3DDevice9@@@Z:PROC ; CHelpDialog::CHelpDialog
EXTRN	??0CArchiveFS@@QAE@XZ:PROC			; CArchiveFS::CArchiveFS
EXTRN	?QueryInterface@IDirect3DDevice9Hook@@UAGJABU_GUID@@PAPAX@Z:PROC ; IDirect3DDevice9Hook::QueryInterface
EXTRN	?AddRef@IDirect3DDevice9Hook@@UAGKXZ:PROC	; IDirect3DDevice9Hook::AddRef
EXTRN	?Release@IDirect3DDevice9Hook@@UAGKXZ:PROC	; IDirect3DDevice9Hook::Release
EXTRN	?TestCooperativeLevel@IDirect3DDevice9Hook@@UAGJXZ:PROC ; IDirect3DDevice9Hook::TestCooperativeLevel
EXTRN	?GetAvailableTextureMem@IDirect3DDevice9Hook@@UAGIXZ:PROC ; IDirect3DDevice9Hook::GetAvailableTextureMem
EXTRN	?EvictManagedResources@IDirect3DDevice9Hook@@UAGJXZ:PROC ; IDirect3DDevice9Hook::EvictManagedResources
EXTRN	?GetDirect3D@IDirect3DDevice9Hook@@UAGJPAPAUIDirect3D9@@@Z:PROC ; IDirect3DDevice9Hook::GetDirect3D
EXTRN	?GetDeviceCaps@IDirect3DDevice9Hook@@UAGJPAU_D3DCAPS9@@@Z:PROC ; IDirect3DDevice9Hook::GetDeviceCaps
EXTRN	?GetDisplayMode@IDirect3DDevice9Hook@@UAGJIPAU_D3DDISPLAYMODE@@@Z:PROC ; IDirect3DDevice9Hook::GetDisplayMode
EXTRN	?GetCreationParameters@IDirect3DDevice9Hook@@UAGJPAU_D3DDEVICE_CREATION_PARAMETERS@@@Z:PROC ; IDirect3DDevice9Hook::GetCreationParameters
EXTRN	?SetCursorProperties@IDirect3DDevice9Hook@@UAGJIIPAUIDirect3DSurface9@@@Z:PROC ; IDirect3DDevice9Hook::SetCursorProperties
EXTRN	?SetCursorPosition@IDirect3DDevice9Hook@@UAGXHHK@Z:PROC ; IDirect3DDevice9Hook::SetCursorPosition
EXTRN	?ShowCursor@IDirect3DDevice9Hook@@UAGHH@Z:PROC	; IDirect3DDevice9Hook::ShowCursor
EXTRN	?CreateAdditionalSwapChain@IDirect3DDevice9Hook@@UAGJPAU_D3DPRESENT_PARAMETERS_@@PAPAUIDirect3DSwapChain9@@@Z:PROC ; IDirect3DDevice9Hook::CreateAdditionalSwapChain
EXTRN	?GetSwapChain@IDirect3DDevice9Hook@@UAGJIPAPAUIDirect3DSwapChain9@@@Z:PROC ; IDirect3DDevice9Hook::GetSwapChain
EXTRN	?GetNumberOfSwapChains@IDirect3DDevice9Hook@@UAGIXZ:PROC ; IDirect3DDevice9Hook::GetNumberOfSwapChains
EXTRN	?Reset@IDirect3DDevice9Hook@@UAGJPAU_D3DPRESENT_PARAMETERS_@@@Z:PROC ; IDirect3DDevice9Hook::Reset
EXTRN	?Present@IDirect3DDevice9Hook@@UAGJPBUtagRECT@@0PAUHWND__@@PBU_RGNDATA@@@Z:PROC ; IDirect3DDevice9Hook::Present
EXTRN	?GetBackBuffer@IDirect3DDevice9Hook@@UAGJIIW4_D3DBACKBUFFER_TYPE@@PAPAUIDirect3DSurface9@@@Z:PROC ; IDirect3DDevice9Hook::GetBackBuffer
EXTRN	?GetRasterStatus@IDirect3DDevice9Hook@@UAGJIPAU_D3DRASTER_STATUS@@@Z:PROC ; IDirect3DDevice9Hook::GetRasterStatus
EXTRN	?SetDialogBoxMode@IDirect3DDevice9Hook@@UAGJH@Z:PROC ; IDirect3DDevice9Hook::SetDialogBoxMode
EXTRN	?SetGammaRamp@IDirect3DDevice9Hook@@UAGXIKPBU_D3DGAMMARAMP@@@Z:PROC ; IDirect3DDevice9Hook::SetGammaRamp
EXTRN	?GetGammaRamp@IDirect3DDevice9Hook@@UAGXIPAU_D3DGAMMARAMP@@@Z:PROC ; IDirect3DDevice9Hook::GetGammaRamp
EXTRN	?CreateTexture@IDirect3DDevice9Hook@@UAGJIIIKW4_D3DFORMAT@@W4_D3DPOOL@@PAPAUIDirect3DTexture9@@PAPAX@Z:PROC ; IDirect3DDevice9Hook::CreateTexture
EXTRN	?CreateVolumeTexture@IDirect3DDevice9Hook@@UAGJIIIIKW4_D3DFORMAT@@W4_D3DPOOL@@PAPAUIDirect3DVolumeTexture9@@PAPAX@Z:PROC ; IDirect3DDevice9Hook::CreateVolumeTexture
EXTRN	?CreateCubeTexture@IDirect3DDevice9Hook@@UAGJIIKW4_D3DFORMAT@@W4_D3DPOOL@@PAPAUIDirect3DCubeTexture9@@PAPAX@Z:PROC ; IDirect3DDevice9Hook::CreateCubeTexture
EXTRN	?CreateVertexBuffer@IDirect3DDevice9Hook@@UAGJIKKW4_D3DPOOL@@PAPAUIDirect3DVertexBuffer9@@PAPAX@Z:PROC ; IDirect3DDevice9Hook::CreateVertexBuffer
EXTRN	?CreateIndexBuffer@IDirect3DDevice9Hook@@UAGJIKW4_D3DFORMAT@@W4_D3DPOOL@@PAPAUIDirect3DIndexBuffer9@@PAPAX@Z:PROC ; IDirect3DDevice9Hook::CreateIndexBuffer
EXTRN	?CreateRenderTarget@IDirect3DDevice9Hook@@UAGJIIW4_D3DFORMAT@@W4_D3DMULTISAMPLE_TYPE@@KHPAPAUIDirect3DSurface9@@PAPAX@Z:PROC ; IDirect3DDevice9Hook::CreateRenderTarget
EXTRN	?CreateDepthStencilSurface@IDirect3DDevice9Hook@@UAGJIIW4_D3DFORMAT@@W4_D3DMULTISAMPLE_TYPE@@KHPAPAUIDirect3DSurface9@@PAPAX@Z:PROC ; IDirect3DDevice9Hook::CreateDepthStencilSurface
EXTRN	?UpdateSurface@IDirect3DDevice9Hook@@UAGJPAUIDirect3DSurface9@@PBUtagRECT@@0PBUtagPOINT@@@Z:PROC ; IDirect3DDevice9Hook::UpdateSurface
EXTRN	?UpdateTexture@IDirect3DDevice9Hook@@UAGJPAUIDirect3DBaseTexture9@@0@Z:PROC ; IDirect3DDevice9Hook::UpdateTexture
EXTRN	?GetRenderTargetData@IDirect3DDevice9Hook@@UAGJPAUIDirect3DSurface9@@0@Z:PROC ; IDirect3DDevice9Hook::GetRenderTargetData
EXTRN	?GetFrontBufferData@IDirect3DDevice9Hook@@UAGJIPAUIDirect3DSurface9@@@Z:PROC ; IDirect3DDevice9Hook::GetFrontBufferData
EXTRN	?StretchRect@IDirect3DDevice9Hook@@UAGJPAUIDirect3DSurface9@@PBUtagRECT@@01W4_D3DTEXTUREFILTERTYPE@@@Z:PROC ; IDirect3DDevice9Hook::StretchRect
EXTRN	?ColorFill@IDirect3DDevice9Hook@@UAGJPAUIDirect3DSurface9@@PBUtagRECT@@K@Z:PROC ; IDirect3DDevice9Hook::ColorFill
EXTRN	?CreateOffscreenPlainSurface@IDirect3DDevice9Hook@@UAGJIIW4_D3DFORMAT@@W4_D3DPOOL@@PAPAUIDirect3DSurface9@@PAPAX@Z:PROC ; IDirect3DDevice9Hook::CreateOffscreenPlainSurface
EXTRN	?SetRenderTarget@IDirect3DDevice9Hook@@UAGJKPAUIDirect3DSurface9@@@Z:PROC ; IDirect3DDevice9Hook::SetRenderTarget
EXTRN	?GetRenderTarget@IDirect3DDevice9Hook@@UAGJKPAPAUIDirect3DSurface9@@@Z:PROC ; IDirect3DDevice9Hook::GetRenderTarget
EXTRN	?SetDepthStencilSurface@IDirect3DDevice9Hook@@UAGJPAUIDirect3DSurface9@@@Z:PROC ; IDirect3DDevice9Hook::SetDepthStencilSurface
EXTRN	?GetDepthStencilSurface@IDirect3DDevice9Hook@@UAGJPAPAUIDirect3DSurface9@@@Z:PROC ; IDirect3DDevice9Hook::GetDepthStencilSurface
EXTRN	?BeginScene@IDirect3DDevice9Hook@@UAGJXZ:PROC	; IDirect3DDevice9Hook::BeginScene
EXTRN	?EndScene@IDirect3DDevice9Hook@@UAGJXZ:PROC	; IDirect3DDevice9Hook::EndScene
EXTRN	?Clear@IDirect3DDevice9Hook@@UAGJKPBU_D3DRECT@@KKMK@Z:PROC ; IDirect3DDevice9Hook::Clear
EXTRN	?SetTransform@IDirect3DDevice9Hook@@UAGJW4_D3DTRANSFORMSTATETYPE@@PBU_D3DMATRIX@@@Z:PROC ; IDirect3DDevice9Hook::SetTransform
EXTRN	?GetTransform@IDirect3DDevice9Hook@@UAGJW4_D3DTRANSFORMSTATETYPE@@PAU_D3DMATRIX@@@Z:PROC ; IDirect3DDevice9Hook::GetTransform
EXTRN	?MultiplyTransform@IDirect3DDevice9Hook@@UAGJW4_D3DTRANSFORMSTATETYPE@@PBU_D3DMATRIX@@@Z:PROC ; IDirect3DDevice9Hook::MultiplyTransform
EXTRN	?SetViewport@IDirect3DDevice9Hook@@UAGJPBU_D3DVIEWPORT9@@@Z:PROC ; IDirect3DDevice9Hook::SetViewport
EXTRN	?GetViewport@IDirect3DDevice9Hook@@UAGJPAU_D3DVIEWPORT9@@@Z:PROC ; IDirect3DDevice9Hook::GetViewport
EXTRN	?SetMaterial@IDirect3DDevice9Hook@@UAGJPBU_D3DMATERIAL9@@@Z:PROC ; IDirect3DDevice9Hook::SetMaterial
EXTRN	?GetMaterial@IDirect3DDevice9Hook@@UAGJPAU_D3DMATERIAL9@@@Z:PROC ; IDirect3DDevice9Hook::GetMaterial
EXTRN	?SetLight@IDirect3DDevice9Hook@@UAGJKPBU_D3DLIGHT9@@@Z:PROC ; IDirect3DDevice9Hook::SetLight
EXTRN	?GetLight@IDirect3DDevice9Hook@@UAGJKPAU_D3DLIGHT9@@@Z:PROC ; IDirect3DDevice9Hook::GetLight
EXTRN	?LightEnable@IDirect3DDevice9Hook@@UAGJKH@Z:PROC ; IDirect3DDevice9Hook::LightEnable
EXTRN	?GetLightEnable@IDirect3DDevice9Hook@@UAGJKPAH@Z:PROC ; IDirect3DDevice9Hook::GetLightEnable
EXTRN	?SetClipPlane@IDirect3DDevice9Hook@@UAGJKPBM@Z:PROC ; IDirect3DDevice9Hook::SetClipPlane
EXTRN	?GetClipPlane@IDirect3DDevice9Hook@@UAGJKPAM@Z:PROC ; IDirect3DDevice9Hook::GetClipPlane
EXTRN	?SetRenderState@IDirect3DDevice9Hook@@UAGJW4_D3DRENDERSTATETYPE@@K@Z:PROC ; IDirect3DDevice9Hook::SetRenderState
EXTRN	?GetRenderState@IDirect3DDevice9Hook@@UAGJW4_D3DRENDERSTATETYPE@@PAK@Z:PROC ; IDirect3DDevice9Hook::GetRenderState
EXTRN	?CreateStateBlock@IDirect3DDevice9Hook@@UAGJW4_D3DSTATEBLOCKTYPE@@PAPAUIDirect3DStateBlock9@@@Z:PROC ; IDirect3DDevice9Hook::CreateStateBlock
EXTRN	?BeginStateBlock@IDirect3DDevice9Hook@@UAGJXZ:PROC ; IDirect3DDevice9Hook::BeginStateBlock
EXTRN	?EndStateBlock@IDirect3DDevice9Hook@@UAGJPAPAUIDirect3DStateBlock9@@@Z:PROC ; IDirect3DDevice9Hook::EndStateBlock
EXTRN	?SetClipStatus@IDirect3DDevice9Hook@@UAGJPBU_D3DCLIPSTATUS9@@@Z:PROC ; IDirect3DDevice9Hook::SetClipStatus
EXTRN	?GetClipStatus@IDirect3DDevice9Hook@@UAGJPAU_D3DCLIPSTATUS9@@@Z:PROC ; IDirect3DDevice9Hook::GetClipStatus
EXTRN	?GetTexture@IDirect3DDevice9Hook@@UAGJKPAPAUIDirect3DBaseTexture9@@@Z:PROC ; IDirect3DDevice9Hook::GetTexture
EXTRN	?SetTexture@IDirect3DDevice9Hook@@UAGJKPAUIDirect3DBaseTexture9@@@Z:PROC ; IDirect3DDevice9Hook::SetTexture
EXTRN	?GetTextureStageState@IDirect3DDevice9Hook@@UAGJKW4_D3DTEXTURESTAGESTATETYPE@@PAK@Z:PROC ; IDirect3DDevice9Hook::GetTextureStageState
EXTRN	?SetTextureStageState@IDirect3DDevice9Hook@@UAGJKW4_D3DTEXTURESTAGESTATETYPE@@K@Z:PROC ; IDirect3DDevice9Hook::SetTextureStageState
EXTRN	?GetSamplerState@IDirect3DDevice9Hook@@UAGJKW4_D3DSAMPLERSTATETYPE@@PAK@Z:PROC ; IDirect3DDevice9Hook::GetSamplerState
EXTRN	?SetSamplerState@IDirect3DDevice9Hook@@UAGJKW4_D3DSAMPLERSTATETYPE@@K@Z:PROC ; IDirect3DDevice9Hook::SetSamplerState
EXTRN	?ValidateDevice@IDirect3DDevice9Hook@@UAGJPAK@Z:PROC ; IDirect3DDevice9Hook::ValidateDevice
EXTRN	?SetPaletteEntries@IDirect3DDevice9Hook@@UAGJIPBUtagPALETTEENTRY@@@Z:PROC ; IDirect3DDevice9Hook::SetPaletteEntries
EXTRN	?GetPaletteEntries@IDirect3DDevice9Hook@@UAGJIPAUtagPALETTEENTRY@@@Z:PROC ; IDirect3DDevice9Hook::GetPaletteEntries
EXTRN	?SetCurrentTexturePalette@IDirect3DDevice9Hook@@UAGJI@Z:PROC ; IDirect3DDevice9Hook::SetCurrentTexturePalette
EXTRN	?GetCurrentTexturePalette@IDirect3DDevice9Hook@@UAGJPAI@Z:PROC ; IDirect3DDevice9Hook::GetCurrentTexturePalette
EXTRN	?SetScissorRect@IDirect3DDevice9Hook@@UAGJPBUtagRECT@@@Z:PROC ; IDirect3DDevice9Hook::SetScissorRect
EXTRN	?GetScissorRect@IDirect3DDevice9Hook@@UAGJPAUtagRECT@@@Z:PROC ; IDirect3DDevice9Hook::GetScissorRect
EXTRN	?SetSoftwareVertexProcessing@IDirect3DDevice9Hook@@UAGJH@Z:PROC ; IDirect3DDevice9Hook::SetSoftwareVertexProcessing
EXTRN	?GetSoftwareVertexProcessing@IDirect3DDevice9Hook@@UAGHXZ:PROC ; IDirect3DDevice9Hook::GetSoftwareVertexProcessing
EXTRN	?SetNPatchMode@IDirect3DDevice9Hook@@UAGJM@Z:PROC ; IDirect3DDevice9Hook::SetNPatchMode
EXTRN	?GetNPatchMode@IDirect3DDevice9Hook@@UAGMXZ:PROC ; IDirect3DDevice9Hook::GetNPatchMode
EXTRN	?DrawPrimitive@IDirect3DDevice9Hook@@UAGJW4_D3DPRIMITIVETYPE@@II@Z:PROC ; IDirect3DDevice9Hook::DrawPrimitive
EXTRN	?DrawIndexedPrimitive@IDirect3DDevice9Hook@@UAGJW4_D3DPRIMITIVETYPE@@HIIII@Z:PROC ; IDirect3DDevice9Hook::DrawIndexedPrimitive
EXTRN	?DrawPrimitiveUP@IDirect3DDevice9Hook@@UAGJW4_D3DPRIMITIVETYPE@@IPBXI@Z:PROC ; IDirect3DDevice9Hook::DrawPrimitiveUP
EXTRN	?DrawIndexedPrimitiveUP@IDirect3DDevice9Hook@@UAGJW4_D3DPRIMITIVETYPE@@IIIPBXW4_D3DFORMAT@@1I@Z:PROC ; IDirect3DDevice9Hook::DrawIndexedPrimitiveUP
EXTRN	?ProcessVertices@IDirect3DDevice9Hook@@UAGJIIIPAUIDirect3DVertexBuffer9@@PAUIDirect3DVertexDeclaration9@@K@Z:PROC ; IDirect3DDevice9Hook::ProcessVertices
EXTRN	?CreateVertexDeclaration@IDirect3DDevice9Hook@@UAGJPBU_D3DVERTEXELEMENT9@@PAPAUIDirect3DVertexDeclaration9@@@Z:PROC ; IDirect3DDevice9Hook::CreateVertexDeclaration
EXTRN	?SetVertexDeclaration@IDirect3DDevice9Hook@@UAGJPAUIDirect3DVertexDeclaration9@@@Z:PROC ; IDirect3DDevice9Hook::SetVertexDeclaration
EXTRN	?GetVertexDeclaration@IDirect3DDevice9Hook@@UAGJPAPAUIDirect3DVertexDeclaration9@@@Z:PROC ; IDirect3DDevice9Hook::GetVertexDeclaration
EXTRN	?SetFVF@IDirect3DDevice9Hook@@UAGJK@Z:PROC	; IDirect3DDevice9Hook::SetFVF
EXTRN	?GetFVF@IDirect3DDevice9Hook@@UAGJPAK@Z:PROC	; IDirect3DDevice9Hook::GetFVF
EXTRN	?CreateVertexShader@IDirect3DDevice9Hook@@UAGJPBKPAPAUIDirect3DVertexShader9@@@Z:PROC ; IDirect3DDevice9Hook::CreateVertexShader
EXTRN	?SetVertexShader@IDirect3DDevice9Hook@@UAGJPAUIDirect3DVertexShader9@@@Z:PROC ; IDirect3DDevice9Hook::SetVertexShader
EXTRN	?GetVertexShader@IDirect3DDevice9Hook@@UAGJPAPAUIDirect3DVertexShader9@@@Z:PROC ; IDirect3DDevice9Hook::GetVertexShader
EXTRN	?SetVertexShaderConstantF@IDirect3DDevice9Hook@@UAGJIPBMI@Z:PROC ; IDirect3DDevice9Hook::SetVertexShaderConstantF
EXTRN	?GetVertexShaderConstantF@IDirect3DDevice9Hook@@UAGJIPAMI@Z:PROC ; IDirect3DDevice9Hook::GetVertexShaderConstantF
EXTRN	?SetVertexShaderConstantI@IDirect3DDevice9Hook@@UAGJIPBHI@Z:PROC ; IDirect3DDevice9Hook::SetVertexShaderConstantI
EXTRN	?GetVertexShaderConstantI@IDirect3DDevice9Hook@@UAGJIPAHI@Z:PROC ; IDirect3DDevice9Hook::GetVertexShaderConstantI
EXTRN	?SetVertexShaderConstantB@IDirect3DDevice9Hook@@UAGJIPBHI@Z:PROC ; IDirect3DDevice9Hook::SetVertexShaderConstantB
EXTRN	?GetVertexShaderConstantB@IDirect3DDevice9Hook@@UAGJIPAHI@Z:PROC ; IDirect3DDevice9Hook::GetVertexShaderConstantB
EXTRN	?SetStreamSource@IDirect3DDevice9Hook@@UAGJIPAUIDirect3DVertexBuffer9@@II@Z:PROC ; IDirect3DDevice9Hook::SetStreamSource
EXTRN	?GetStreamSource@IDirect3DDevice9Hook@@UAGJIPAPAUIDirect3DVertexBuffer9@@PAI1@Z:PROC ; IDirect3DDevice9Hook::GetStreamSource
EXTRN	?SetStreamSourceFreq@IDirect3DDevice9Hook@@UAGJII@Z:PROC ; IDirect3DDevice9Hook::SetStreamSourceFreq
EXTRN	?GetStreamSourceFreq@IDirect3DDevice9Hook@@UAGJIPAI@Z:PROC ; IDirect3DDevice9Hook::GetStreamSourceFreq
EXTRN	?SetIndices@IDirect3DDevice9Hook@@UAGJPAUIDirect3DIndexBuffer9@@@Z:PROC ; IDirect3DDevice9Hook::SetIndices
EXTRN	?GetIndices@IDirect3DDevice9Hook@@UAGJPAPAUIDirect3DIndexBuffer9@@@Z:PROC ; IDirect3DDevice9Hook::GetIndices
EXTRN	?CreatePixelShader@IDirect3DDevice9Hook@@UAGJPBKPAPAUIDirect3DPixelShader9@@@Z:PROC ; IDirect3DDevice9Hook::CreatePixelShader
EXTRN	?SetPixelShader@IDirect3DDevice9Hook@@UAGJPAUIDirect3DPixelShader9@@@Z:PROC ; IDirect3DDevice9Hook::SetPixelShader
EXTRN	?GetPixelShader@IDirect3DDevice9Hook@@UAGJPAPAUIDirect3DPixelShader9@@@Z:PROC ; IDirect3DDevice9Hook::GetPixelShader
EXTRN	?SetPixelShaderConstantF@IDirect3DDevice9Hook@@UAGJIPBMI@Z:PROC ; IDirect3DDevice9Hook::SetPixelShaderConstantF
EXTRN	?GetPixelShaderConstantF@IDirect3DDevice9Hook@@UAGJIPAMI@Z:PROC ; IDirect3DDevice9Hook::GetPixelShaderConstantF
EXTRN	?SetPixelShaderConstantI@IDirect3DDevice9Hook@@UAGJIPBHI@Z:PROC ; IDirect3DDevice9Hook::SetPixelShaderConstantI
EXTRN	?GetPixelShaderConstantI@IDirect3DDevice9Hook@@UAGJIPAHI@Z:PROC ; IDirect3DDevice9Hook::GetPixelShaderConstantI
EXTRN	?SetPixelShaderConstantB@IDirect3DDevice9Hook@@UAGJIPBHI@Z:PROC ; IDirect3DDevice9Hook::SetPixelShaderConstantB
EXTRN	?GetPixelShaderConstantB@IDirect3DDevice9Hook@@UAGJIPAHI@Z:PROC ; IDirect3DDevice9Hook::GetPixelShaderConstantB
EXTRN	?DrawRectPatch@IDirect3DDevice9Hook@@UAGJIPBMPBU_D3DRECTPATCH_INFO@@@Z:PROC ; IDirect3DDevice9Hook::DrawRectPatch
EXTRN	?DrawTriPatch@IDirect3DDevice9Hook@@UAGJIPBMPBU_D3DTRIPATCH_INFO@@@Z:PROC ; IDirect3DDevice9Hook::DrawTriPatch
EXTRN	?DeletePatch@IDirect3DDevice9Hook@@UAGJI@Z:PROC	; IDirect3DDevice9Hook::DeletePatch
EXTRN	?CreateQuery@IDirect3DDevice9Hook@@UAGJW4_D3DQUERYTYPE@@PAPAUIDirect3DQuery9@@@Z:PROC ; IDirect3DDevice9Hook::CreateQuery
EXTRN	?GameForcedExit@@YAXH@Z:PROC			; GameForcedExit
EXTRN	?SubclassGameWindow@@YAHXZ:PROC			; SubclassGameWindow
EXTRN	?SetupCommands@@YAXXZ:PROC			; SetupCommands
EXTRN	?exc_handler@@YGJPAU_EXCEPTION_POINTERS@@@Z:PROC ; exc_handler
EXTRN	?CheckDuplicateD3D9Dlls@@YAXXZ:PROC		; CheckDuplicateD3D9Dlls
EXTRN	@_RTC_CheckStackVars@8:PROC
EXTRN	@__security_check_cookie@4:PROC
EXTRN	__RTC_CheckEsp:PROC
EXTRN	__RTC_InitBase:PROC
EXTRN	__RTC_Shutdown:PROC
EXTRN	___CxxFrameHandler3:PROC
EXTRN	??_7type_info@@6B@:QWORD			; type_info::`vftable'
EXTRN	___security_cookie:DWORD
EXTRN	__fltused:DWORD
;	COMDAT __real@442f0000
CONST	SEGMENT
__real@442f0000 DD 0442f0000r			; 700
CONST	ENDS
;	COMDAT __real@43fa0000
CONST	SEGMENT
__real@43fa0000 DD 043fa0000r			; 500
CONST	ENDS
;	COMDAT rtc$TMZ
rtc$TMZ	SEGMENT
__RTC_Shutdown.rtc$TMZ DD FLAT:__RTC_Shutdown
rtc$TMZ	ENDS
;	COMDAT rtc$IMZ
rtc$IMZ	SEGMENT
__RTC_InitBase.rtc$IMZ DD FLAT:__RTC_InitBase
rtc$IMZ	ENDS
;	COMDAT ??_R1A@?0A@EA@IDirect3DDevice9Hook@@8
rdata$r	SEGMENT
??_R1A@?0A@EA@IDirect3DDevice9Hook@@8 DD FLAT:??_R0?AUIDirect3DDevice9Hook@@@8 ; IDirect3DDevice9Hook::`RTTI Base Class Descriptor at (0,-1,0,64)'
	DD	02H
	DD	00H
	DD	0ffffffffH
	DD	00H
	DD	040H
	DD	FLAT:??_R3IDirect3DDevice9Hook@@8
rdata$r	ENDS
;	COMDAT ??_R2IDirect3DDevice9Hook@@8
rdata$r	SEGMENT
??_R2IDirect3DDevice9Hook@@8 DD FLAT:??_R1A@?0A@EA@IDirect3DDevice9Hook@@8 ; IDirect3DDevice9Hook::`RTTI Base Class Array'
	DD	FLAT:??_R1A@?0A@EA@IDirect3DDevice9@@8
	DD	FLAT:??_R1A@?0A@EA@IUnknown@@8
rdata$r	ENDS
;	COMDAT ??_R3IDirect3DDevice9Hook@@8
rdata$r	SEGMENT
??_R3IDirect3DDevice9Hook@@8 DD 00H			; IDirect3DDevice9Hook::`RTTI Class Hierarchy Descriptor'
	DD	00H
	DD	03H
	DD	FLAT:??_R2IDirect3DDevice9Hook@@8
rdata$r	ENDS
;	COMDAT ??_R0?AUIDirect3DDevice9Hook@@@8
data$r	SEGMENT
??_R0?AUIDirect3DDevice9Hook@@@8 DD FLAT:??_7type_info@@6B@ ; IDirect3DDevice9Hook `RTTI Type Descriptor'
	DD	00H
	DB	'.?AUIDirect3DDevice9Hook@@', 00H
data$r	ENDS
;	COMDAT ??_R4IDirect3DDevice9Hook@@6B@
rdata$r	SEGMENT
??_R4IDirect3DDevice9Hook@@6B@ DD 00H			; IDirect3DDevice9Hook::`RTTI Complete Object Locator'
	DD	00H
	DD	00H
	DD	FLAT:??_R0?AUIDirect3DDevice9Hook@@@8
	DD	FLAT:??_R3IDirect3DDevice9Hook@@8
rdata$r	ENDS
;	COMDAT ??_R1A@?0A@EA@IDirect3DDevice9@@8
rdata$r	SEGMENT
??_R1A@?0A@EA@IDirect3DDevice9@@8 DD FLAT:??_R0?AUIDirect3DDevice9@@@8 ; IDirect3DDevice9::`RTTI Base Class Descriptor at (0,-1,0,64)'
	DD	01H
	DD	00H
	DD	0ffffffffH
	DD	00H
	DD	040H
	DD	FLAT:??_R3IDirect3DDevice9@@8
rdata$r	ENDS
;	COMDAT ??_R2IDirect3DDevice9@@8
rdata$r	SEGMENT
??_R2IDirect3DDevice9@@8 DD FLAT:??_R1A@?0A@EA@IDirect3DDevice9@@8 ; IDirect3DDevice9::`RTTI Base Class Array'
	DD	FLAT:??_R1A@?0A@EA@IUnknown@@8
rdata$r	ENDS
;	COMDAT ??_R3IDirect3DDevice9@@8
rdata$r	SEGMENT
??_R3IDirect3DDevice9@@8 DD 00H				; IDirect3DDevice9::`RTTI Class Hierarchy Descriptor'
	DD	00H
	DD	02H
	DD	FLAT:??_R2IDirect3DDevice9@@8
rdata$r	ENDS
;	COMDAT ??_R0?AUIDirect3DDevice9@@@8
data$r	SEGMENT
??_R0?AUIDirect3DDevice9@@@8 DD FLAT:??_7type_info@@6B@	; IDirect3DDevice9 `RTTI Type Descriptor'
	DD	00H
	DB	'.?AUIDirect3DDevice9@@', 00H
data$r	ENDS
;	COMDAT ??_R1A@?0A@EA@IUnknown@@8
rdata$r	SEGMENT
??_R1A@?0A@EA@IUnknown@@8 DD FLAT:??_R0?AUIUnknown@@@8	; IUnknown::`RTTI Base Class Descriptor at (0,-1,0,64)'
	DD	00H
	DD	00H
	DD	0ffffffffH
	DD	00H
	DD	040H
	DD	FLAT:??_R3IUnknown@@8
rdata$r	ENDS
;	COMDAT ??_R2IUnknown@@8
rdata$r	SEGMENT
??_R2IUnknown@@8 DD FLAT:??_R1A@?0A@EA@IUnknown@@8	; IUnknown::`RTTI Base Class Array'
rdata$r	ENDS
;	COMDAT ??_R3IUnknown@@8
rdata$r	SEGMENT
??_R3IUnknown@@8 DD 00H					; IUnknown::`RTTI Class Hierarchy Descriptor'
	DD	00H
	DD	01H
	DD	FLAT:??_R2IUnknown@@8
rdata$r	ENDS
;	COMDAT ??_R0?AUIUnknown@@@8
data$r	SEGMENT
??_R0?AUIUnknown@@@8 DD FLAT:??_7type_info@@6B@		; IUnknown `RTTI Type Descriptor'
	DD	00H
	DB	'.?AUIUnknown@@', 00H
data$r	ENDS
;	COMDAT ??_C@_01EEMJAFIK@?6?$AA@
CONST	SEGMENT
??_C@_01EEMJAFIK@?6?$AA@ DB 0aH, 00H			; `string'
CONST	ENDS
;	COMDAT ??_C@_0BF@MFBABOEB@End?5of?5DoInitStuff?$CI?$CJ?$AA@
CONST	SEGMENT
??_C@_0BF@MFBABOEB@End?5of?5DoInitStuff?$CI?$CJ?$AA@ DB 'End of DoInitStu'
	DB	'ff()', 00H					; `string'
CONST	ENDS
;	COMDAT ??_C@_0BF@GKDGCAEO@Hooking?5RwSetState?4?4?$AA@
CONST	SEGMENT
??_C@_0BF@GKDGCAEO@Hooking?5RwSetState?4?4?$AA@ DB 'Hooking RwSetState..', 00H ; `string'
CONST	ENDS
;	COMDAT ??_C@_0BG@GCCCNOGC@Setting?5up?5commands?4?4?$AA@
CONST	SEGMENT
??_C@_0BG@GCCCNOGC@Setting?5up?5commands?4?4?$AA@ DB 'Setting up commands'
	DB	'..', 00H					; `string'
CONST	ENDS
;	COMDAT ??_C@_07EHHHOIHI@Verdana?$AA@
CONST	SEGMENT
??_C@_07EHHHOIHI@Verdana?$AA@ DB 'Verdana', 00H		; `string'
CONST	ENDS
;	COMDAT ??_C@_0BC@DGICMAH@Labels?5creating?4?4?$AA@
CONST	SEGMENT
??_C@_0BC@DGICMAH@Labels?5creating?4?4?$AA@ DB 'Labels creating..', 00H ; `string'
CONST	ENDS
;	COMDAT ??_C@_0BJ@OGPOGKCP@SetupGameUI?$CI?$CJ?5creating?4?4?$AA@
CONST	SEGMENT
??_C@_0BJ@OGPOGKCP@SetupGameUI?$CI?$CJ?5creating?4?4?$AA@ DB 'SetupGameUI'
	DB	'() creating..', 00H				; `string'
CONST	ENDS
;	COMDAT ??_C@_0BD@MPIGFPEM@DXUTGUI?5creating?4?4?$AA@
CONST	SEGMENT
??_C@_0BD@MPIGFPEM@DXUTGUI?5creating?4?4?$AA@ DB 'DXUTGUI creating..', 00H ; `string'
CONST	ENDS
;	COMDAT ??_C@_0CA@FNFPPPNH@Font?5and?5chat?5window?5creating?4?4?$AA@
CONST	SEGMENT
??_C@_0CA@FNFPPPNH@Font?5and?5chat?5window?5creating?4?4?$AA@ DB 'Font an'
	DB	'd chat window creating..', 00H		; `string'
CONST	ENDS
;	COMDAT ??_C@_0BA@DJOALJEP@No?5D3DDevice?$CB?$CB?$CB?$AA@
CONST	SEGMENT
??_C@_0BA@DJOALJEP@No?5D3DDevice?$CB?$CB?$CB?$AA@ DB 'No D3DDevice!!!', 00H ; `string'
CONST	ENDS
;	COMDAT ??_C@_09NEONKHDG@No?5D3D?$CB?$CB?$CB?$AA@
CONST	SEGMENT
??_C@_09NEONKHDG@No?5D3D?$CB?$CB?$CB?$AA@ DB 'No D3D!!!', 00H ; `string'
CONST	ENDS
;	COMDAT ??_C@_0BH@JGONLNCN@Start?5of?5DoInitStuff?$CI?$CJ?$AA@
CONST	SEGMENT
??_C@_0BH@JGONLNCN@Start?5of?5DoInitStuff?$CI?$CJ?$AA@ DB 'Start of DoIni'
	DB	'tStuff()', 00H				; `string'
CONST	ENDS
;	COMDAT ??_C@_0BL@FJEOAAAM@HookRwRenderStateSet?$CI0x?$CFX?$CJ?$AA@
CONST	SEGMENT
??_C@_0BL@FJEOAAAM@HookRwRenderStateSet?$CI0x?$CFX?$CJ?$AA@ DB 'HookRwRen'
	DB	'derStateSet(0x%X)', 00H			; `string'
CONST	ENDS
;	COMDAT ??_C@_0BC@JIDHNMLB@Process?5Detached?6?$AA@
CONST	SEGMENT
??_C@_0BC@JIDHNMLB@Process?5Detached?6?$AA@ DB 'Process Detached', 0aH, 00H ; `string'
CONST	ENDS
;	COMDAT ??_C@_0O@LKCJNEJC@SA?3MP?5Inited?6?$AA@
CONST	SEGMENT
??_C@_0O@LKCJNEJC@SA?3MP?5Inited?6?$AA@ DB 'SA:MP Inited', 0aH, 00H ; `string'
CONST	ENDS
;	COMDAT ??_C@_0BN@HAEOHDIN@Installing?5filesystem?5hooks?4?$AA@
CONST	SEGMENT
??_C@_0BN@HAEOHDIN@Installing?5filesystem?5hooks?4?$AA@ DB 'Installing fi'
	DB	'lesystem hooks.', 00H			; `string'
CONST	ENDS
;	COMDAT ??_C@_08BPFCPBGG@samp?4saa?$AA@
CONST	SEGMENT
??_C@_08BPFCPBGG@samp?4saa?$AA@ DB 'samp.saa', 00H	; `string'
CONST	ENDS
;	COMDAT ??_C@_0BA@OCJPMOPM@Loading?5Archive?$AA@
CONST	SEGMENT
??_C@_0BA@OCJPMOPM@Loading?5Archive?$AA@ DB 'Loading Archive', 00H ; `string'
CONST	ENDS
;	COMDAT ??_C@_0BI@ELLAGGGI@SA?9MP?5Process?5Attached?6?$AA@
CONST	SEGMENT
??_C@_0BI@ELLAGGGI@SA?9MP?5Process?5Attached?6?$AA@ DB 'SA-MP Process Att'
	DB	'ached', 0aH, 00H				; `string'
CONST	ENDS
;	COMDAT ??_7IDirect3DDevice9Hook@@6B@
CONST	SEGMENT
??_7IDirect3DDevice9Hook@@6B@ DD FLAT:??_R4IDirect3DDevice9Hook@@6B@ ; IDirect3DDevice9Hook::`vftable'
	DD	FLAT:?QueryInterface@IDirect3DDevice9Hook@@UAGJABU_GUID@@PAPAX@Z
	DD	FLAT:?AddRef@IDirect3DDevice9Hook@@UAGKXZ
	DD	FLAT:?Release@IDirect3DDevice9Hook@@UAGKXZ
	DD	FLAT:?TestCooperativeLevel@IDirect3DDevice9Hook@@UAGJXZ
	DD	FLAT:?GetAvailableTextureMem@IDirect3DDevice9Hook@@UAGIXZ
	DD	FLAT:?EvictManagedResources@IDirect3DDevice9Hook@@UAGJXZ
	DD	FLAT:?GetDirect3D@IDirect3DDevice9Hook@@UAGJPAPAUIDirect3D9@@@Z
	DD	FLAT:?GetDeviceCaps@IDirect3DDevice9Hook@@UAGJPAU_D3DCAPS9@@@Z
	DD	FLAT:?GetDisplayMode@IDirect3DDevice9Hook@@UAGJIPAU_D3DDISPLAYMODE@@@Z
	DD	FLAT:?GetCreationParameters@IDirect3DDevice9Hook@@UAGJPAU_D3DDEVICE_CREATION_PARAMETERS@@@Z
	DD	FLAT:?SetCursorProperties@IDirect3DDevice9Hook@@UAGJIIPAUIDirect3DSurface9@@@Z
	DD	FLAT:?SetCursorPosition@IDirect3DDevice9Hook@@UAGXHHK@Z
	DD	FLAT:?ShowCursor@IDirect3DDevice9Hook@@UAGHH@Z
	DD	FLAT:?CreateAdditionalSwapChain@IDirect3DDevice9Hook@@UAGJPAU_D3DPRESENT_PARAMETERS_@@PAPAUIDirect3DSwapChain9@@@Z
	DD	FLAT:?GetSwapChain@IDirect3DDevice9Hook@@UAGJIPAPAUIDirect3DSwapChain9@@@Z
	DD	FLAT:?GetNumberOfSwapChains@IDirect3DDevice9Hook@@UAGIXZ
	DD	FLAT:?Reset@IDirect3DDevice9Hook@@UAGJPAU_D3DPRESENT_PARAMETERS_@@@Z
	DD	FLAT:?Present@IDirect3DDevice9Hook@@UAGJPBUtagRECT@@0PAUHWND__@@PBU_RGNDATA@@@Z
	DD	FLAT:?GetBackBuffer@IDirect3DDevice9Hook@@UAGJIIW4_D3DBACKBUFFER_TYPE@@PAPAUIDirect3DSurface9@@@Z
	DD	FLAT:?GetRasterStatus@IDirect3DDevice9Hook@@UAGJIPAU_D3DRASTER_STATUS@@@Z
	DD	FLAT:?SetDialogBoxMode@IDirect3DDevice9Hook@@UAGJH@Z
	DD	FLAT:?SetGammaRamp@IDirect3DDevice9Hook@@UAGXIKPBU_D3DGAMMARAMP@@@Z
	DD	FLAT:?GetGammaRamp@IDirect3DDevice9Hook@@UAGXIPAU_D3DGAMMARAMP@@@Z
	DD	FLAT:?CreateTexture@IDirect3DDevice9Hook@@UAGJIIIKW4_D3DFORMAT@@W4_D3DPOOL@@PAPAUIDirect3DTexture9@@PAPAX@Z
	DD	FLAT:?CreateVolumeTexture@IDirect3DDevice9Hook@@UAGJIIIIKW4_D3DFORMAT@@W4_D3DPOOL@@PAPAUIDirect3DVolumeTexture9@@PAPAX@Z
	DD	FLAT:?CreateCubeTexture@IDirect3DDevice9Hook@@UAGJIIKW4_D3DFORMAT@@W4_D3DPOOL@@PAPAUIDirect3DCubeTexture9@@PAPAX@Z
	DD	FLAT:?CreateVertexBuffer@IDirect3DDevice9Hook@@UAGJIKKW4_D3DPOOL@@PAPAUIDirect3DVertexBuffer9@@PAPAX@Z
	DD	FLAT:?CreateIndexBuffer@IDirect3DDevice9Hook@@UAGJIKW4_D3DFORMAT@@W4_D3DPOOL@@PAPAUIDirect3DIndexBuffer9@@PAPAX@Z
	DD	FLAT:?CreateRenderTarget@IDirect3DDevice9Hook@@UAGJIIW4_D3DFORMAT@@W4_D3DMULTISAMPLE_TYPE@@KHPAPAUIDirect3DSurface9@@PAPAX@Z
	DD	FLAT:?CreateDepthStencilSurface@IDirect3DDevice9Hook@@UAGJIIW4_D3DFORMAT@@W4_D3DMULTISAMPLE_TYPE@@KHPAPAUIDirect3DSurface9@@PAPAX@Z
	DD	FLAT:?UpdateSurface@IDirect3DDevice9Hook@@UAGJPAUIDirect3DSurface9@@PBUtagRECT@@0PBUtagPOINT@@@Z
	DD	FLAT:?UpdateTexture@IDirect3DDevice9Hook@@UAGJPAUIDirect3DBaseTexture9@@0@Z
	DD	FLAT:?GetRenderTargetData@IDirect3DDevice9Hook@@UAGJPAUIDirect3DSurface9@@0@Z
	DD	FLAT:?GetFrontBufferData@IDirect3DDevice9Hook@@UAGJIPAUIDirect3DSurface9@@@Z
	DD	FLAT:?StretchRect@IDirect3DDevice9Hook@@UAGJPAUIDirect3DSurface9@@PBUtagRECT@@01W4_D3DTEXTUREFILTERTYPE@@@Z
	DD	FLAT:?ColorFill@IDirect3DDevice9Hook@@UAGJPAUIDirect3DSurface9@@PBUtagRECT@@K@Z
	DD	FLAT:?CreateOffscreenPlainSurface@IDirect3DDevice9Hook@@UAGJIIW4_D3DFORMAT@@W4_D3DPOOL@@PAPAUIDirect3DSurface9@@PAPAX@Z
	DD	FLAT:?SetRenderTarget@IDirect3DDevice9Hook@@UAGJKPAUIDirect3DSurface9@@@Z
	DD	FLAT:?GetRenderTarget@IDirect3DDevice9Hook@@UAGJKPAPAUIDirect3DSurface9@@@Z
	DD	FLAT:?SetDepthStencilSurface@IDirect3DDevice9Hook@@UAGJPAUIDirect3DSurface9@@@Z
	DD	FLAT:?GetDepthStencilSurface@IDirect3DDevice9Hook@@UAGJPAPAUIDirect3DSurface9@@@Z
	DD	FLAT:?BeginScene@IDirect3DDevice9Hook@@UAGJXZ
	DD	FLAT:?EndScene@IDirect3DDevice9Hook@@UAGJXZ
	DD	FLAT:?Clear@IDirect3DDevice9Hook@@UAGJKPBU_D3DRECT@@KKMK@Z
	DD	FLAT:?SetTransform@IDirect3DDevice9Hook@@UAGJW4_D3DTRANSFORMSTATETYPE@@PBU_D3DMATRIX@@@Z
	DD	FLAT:?GetTransform@IDirect3DDevice9Hook@@UAGJW4_D3DTRANSFORMSTATETYPE@@PAU_D3DMATRIX@@@Z
	DD	FLAT:?MultiplyTransform@IDirect3DDevice9Hook@@UAGJW4_D3DTRANSFORMSTATETYPE@@PBU_D3DMATRIX@@@Z
	DD	FLAT:?SetViewport@IDirect3DDevice9Hook@@UAGJPBU_D3DVIEWPORT9@@@Z
	DD	FLAT:?GetViewport@IDirect3DDevice9Hook@@UAGJPAU_D3DVIEWPORT9@@@Z
	DD	FLAT:?SetMaterial@IDirect3DDevice9Hook@@UAGJPBU_D3DMATERIAL9@@@Z
	DD	FLAT:?GetMaterial@IDirect3DDevice9Hook@@UAGJPAU_D3DMATERIAL9@@@Z
	DD	FLAT:?SetLight@IDirect3DDevice9Hook@@UAGJKPBU_D3DLIGHT9@@@Z
	DD	FLAT:?GetLight@IDirect3DDevice9Hook@@UAGJKPAU_D3DLIGHT9@@@Z
	DD	FLAT:?LightEnable@IDirect3DDevice9Hook@@UAGJKH@Z
	DD	FLAT:?GetLightEnable@IDirect3DDevice9Hook@@UAGJKPAH@Z
	DD	FLAT:?SetClipPlane@IDirect3DDevice9Hook@@UAGJKPBM@Z
	DD	FLAT:?GetClipPlane@IDirect3DDevice9Hook@@UAGJKPAM@Z
	DD	FLAT:?SetRenderState@IDirect3DDevice9Hook@@UAGJW4_D3DRENDERSTATETYPE@@K@Z
	DD	FLAT:?GetRenderState@IDirect3DDevice9Hook@@UAGJW4_D3DRENDERSTATETYPE@@PAK@Z
	DD	FLAT:?CreateStateBlock@IDirect3DDevice9Hook@@UAGJW4_D3DSTATEBLOCKTYPE@@PAPAUIDirect3DStateBlock9@@@Z
	DD	FLAT:?BeginStateBlock@IDirect3DDevice9Hook@@UAGJXZ
	DD	FLAT:?EndStateBlock@IDirect3DDevice9Hook@@UAGJPAPAUIDirect3DStateBlock9@@@Z
	DD	FLAT:?SetClipStatus@IDirect3DDevice9Hook@@UAGJPBU_D3DCLIPSTATUS9@@@Z
	DD	FLAT:?GetClipStatus@IDirect3DDevice9Hook@@UAGJPAU_D3DCLIPSTATUS9@@@Z
	DD	FLAT:?GetTexture@IDirect3DDevice9Hook@@UAGJKPAPAUIDirect3DBaseTexture9@@@Z
	DD	FLAT:?SetTexture@IDirect3DDevice9Hook@@UAGJKPAUIDirect3DBaseTexture9@@@Z
	DD	FLAT:?GetTextureStageState@IDirect3DDevice9Hook@@UAGJKW4_D3DTEXTURESTAGESTATETYPE@@PAK@Z
	DD	FLAT:?SetTextureStageState@IDirect3DDevice9Hook@@UAGJKW4_D3DTEXTURESTAGESTATETYPE@@K@Z
	DD	FLAT:?GetSamplerState@IDirect3DDevice9Hook@@UAGJKW4_D3DSAMPLERSTATETYPE@@PAK@Z
	DD	FLAT:?SetSamplerState@IDirect3DDevice9Hook@@UAGJKW4_D3DSAMPLERSTATETYPE@@K@Z
	DD	FLAT:?ValidateDevice@IDirect3DDevice9Hook@@UAGJPAK@Z
	DD	FLAT:?SetPaletteEntries@IDirect3DDevice9Hook@@UAGJIPBUtagPALETTEENTRY@@@Z
	DD	FLAT:?GetPaletteEntries@IDirect3DDevice9Hook@@UAGJIPAUtagPALETTEENTRY@@@Z
	DD	FLAT:?SetCurrentTexturePalette@IDirect3DDevice9Hook@@UAGJI@Z
	DD	FLAT:?GetCurrentTexturePalette@IDirect3DDevice9Hook@@UAGJPAI@Z
	DD	FLAT:?SetScissorRect@IDirect3DDevice9Hook@@UAGJPBUtagRECT@@@Z
	DD	FLAT:?GetScissorRect@IDirect3DDevice9Hook@@UAGJPAUtagRECT@@@Z
	DD	FLAT:?SetSoftwareVertexProcessing@IDirect3DDevice9Hook@@UAGJH@Z
	DD	FLAT:?GetSoftwareVertexProcessing@IDirect3DDevice9Hook@@UAGHXZ
	DD	FLAT:?SetNPatchMode@IDirect3DDevice9Hook@@UAGJM@Z
	DD	FLAT:?GetNPatchMode@IDirect3DDevice9Hook@@UAGMXZ
	DD	FLAT:?DrawPrimitive@IDirect3DDevice9Hook@@UAGJW4_D3DPRIMITIVETYPE@@II@Z
	DD	FLAT:?DrawIndexedPrimitive@IDirect3DDevice9Hook@@UAGJW4_D3DPRIMITIVETYPE@@HIIII@Z
	DD	FLAT:?DrawPrimitiveUP@IDirect3DDevice9Hook@@UAGJW4_D3DPRIMITIVETYPE@@IPBXI@Z
	DD	FLAT:?DrawIndexedPrimitiveUP@IDirect3DDevice9Hook@@UAGJW4_D3DPRIMITIVETYPE@@IIIPBXW4_D3DFORMAT@@1I@Z
	DD	FLAT:?ProcessVertices@IDirect3DDevice9Hook@@UAGJIIIPAUIDirect3DVertexBuffer9@@PAUIDirect3DVertexDeclaration9@@K@Z
	DD	FLAT:?CreateVertexDeclaration@IDirect3DDevice9Hook@@UAGJPBU_D3DVERTEXELEMENT9@@PAPAUIDirect3DVertexDeclaration9@@@Z
	DD	FLAT:?SetVertexDeclaration@IDirect3DDevice9Hook@@UAGJPAUIDirect3DVertexDeclaration9@@@Z
	DD	FLAT:?GetVertexDeclaration@IDirect3DDevice9Hook@@UAGJPAPAUIDirect3DVertexDeclaration9@@@Z
	DD	FLAT:?SetFVF@IDirect3DDevice9Hook@@UAGJK@Z
	DD	FLAT:?GetFVF@IDirect3DDevice9Hook@@UAGJPAK@Z
	DD	FLAT:?CreateVertexShader@IDirect3DDevice9Hook@@UAGJPBKPAPAUIDirect3DVertexShader9@@@Z
	DD	FLAT:?SetVertexShader@IDirect3DDevice9Hook@@UAGJPAUIDirect3DVertexShader9@@@Z
	DD	FLAT:?GetVertexShader@IDirect3DDevice9Hook@@UAGJPAPAUIDirect3DVertexShader9@@@Z
	DD	FLAT:?SetVertexShaderConstantF@IDirect3DDevice9Hook@@UAGJIPBMI@Z
	DD	FLAT:?GetVertexShaderConstantF@IDirect3DDevice9Hook@@UAGJIPAMI@Z
	DD	FLAT:?SetVertexShaderConstantI@IDirect3DDevice9Hook@@UAGJIPBHI@Z
	DD	FLAT:?GetVertexShaderConstantI@IDirect3DDevice9Hook@@UAGJIPAHI@Z
	DD	FLAT:?SetVertexShaderConstantB@IDirect3DDevice9Hook@@UAGJIPBHI@Z
	DD	FLAT:?GetVertexShaderConstantB@IDirect3DDevice9Hook@@UAGJIPAHI@Z
	DD	FLAT:?SetStreamSource@IDirect3DDevice9Hook@@UAGJIPAUIDirect3DVertexBuffer9@@II@Z
	DD	FLAT:?GetStreamSource@IDirect3DDevice9Hook@@UAGJIPAPAUIDirect3DVertexBuffer9@@PAI1@Z
	DD	FLAT:?SetStreamSourceFreq@IDirect3DDevice9Hook@@UAGJII@Z
	DD	FLAT:?GetStreamSourceFreq@IDirect3DDevice9Hook@@UAGJIPAI@Z
	DD	FLAT:?SetIndices@IDirect3DDevice9Hook@@UAGJPAUIDirect3DIndexBuffer9@@@Z
	DD	FLAT:?GetIndices@IDirect3DDevice9Hook@@UAGJPAPAUIDirect3DIndexBuffer9@@@Z
	DD	FLAT:?CreatePixelShader@IDirect3DDevice9Hook@@UAGJPBKPAPAUIDirect3DPixelShader9@@@Z
	DD	FLAT:?SetPixelShader@IDirect3DDevice9Hook@@UAGJPAUIDirect3DPixelShader9@@@Z
	DD	FLAT:?GetPixelShader@IDirect3DDevice9Hook@@UAGJPAPAUIDirect3DPixelShader9@@@Z
	DD	FLAT:?SetPixelShaderConstantF@IDirect3DDevice9Hook@@UAGJIPBMI@Z
	DD	FLAT:?GetPixelShaderConstantF@IDirect3DDevice9Hook@@UAGJIPAMI@Z
	DD	FLAT:?SetPixelShaderConstantI@IDirect3DDevice9Hook@@UAGJIPBHI@Z
	DD	FLAT:?GetPixelShaderConstantI@IDirect3DDevice9Hook@@UAGJIPAHI@Z
	DD	FLAT:?SetPixelShaderConstantB@IDirect3DDevice9Hook@@UAGJIPBHI@Z
	DD	FLAT:?GetPixelShaderConstantB@IDirect3DDevice9Hook@@UAGJIPAHI@Z
	DD	FLAT:?DrawRectPatch@IDirect3DDevice9Hook@@UAGJIPBMPBU_D3DRECTPATCH_INFO@@@Z
	DD	FLAT:?DrawTriPatch@IDirect3DDevice9Hook@@UAGJIPBMPBU_D3DTRIPATCH_INFO@@@Z
	DD	FLAT:?DeletePatch@IDirect3DDevice9Hook@@UAGJI@Z
	DD	FLAT:?CreateQuery@IDirect3DDevice9Hook@@UAGJW4_D3DQUERYTYPE@@PAPAUIDirect3DQuery9@@@Z
CONST	ENDS
;	COMDAT xdata$x
xdata$x	SEGMENT
__ehfuncinfo$?DoInitStuff@@YAXXZ DD 019930522H
	DD	0dH
	DD	FLAT:__unwindtable$?DoInitStuff@@YAXXZ
	DD	2 DUP(00H)
	DD	2 DUP(00H)
	DD	00H
	DD	01H
__unwindtable$?DoInitStuff@@YAXXZ DD 0ffffffffH
	DD	FLAT:__unwindfunclet$?DoInitStuff@@YAXXZ$0
	DD	0ffffffffH
	DD	FLAT:__unwindfunclet$?DoInitStuff@@YAXXZ$1
	DD	0ffffffffH
	DD	FLAT:__unwindfunclet$?DoInitStuff@@YAXXZ$2
	DD	0ffffffffH
	DD	FLAT:__unwindfunclet$?DoInitStuff@@YAXXZ$3
	DD	0ffffffffH
	DD	FLAT:__unwindfunclet$?DoInitStuff@@YAXXZ$4
	DD	0ffffffffH
	DD	FLAT:__unwindfunclet$?DoInitStuff@@YAXXZ$5
	DD	0ffffffffH
	DD	FLAT:__unwindfunclet$?DoInitStuff@@YAXXZ$6
	DD	0ffffffffH
	DD	FLAT:__unwindfunclet$?DoInitStuff@@YAXXZ$7
	DD	0ffffffffH
	DD	FLAT:__unwindfunclet$?DoInitStuff@@YAXXZ$8
	DD	0ffffffffH
	DD	FLAT:__unwindfunclet$?DoInitStuff@@YAXXZ$9
	DD	0ffffffffH
	DD	FLAT:__unwindfunclet$?DoInitStuff@@YAXXZ$10
	DD	0ffffffffH
	DD	FLAT:__unwindfunclet$?DoInitStuff@@YAXXZ$11
	DD	0ffffffffH
	DD	FLAT:__unwindfunclet$?DoInitStuff@@YAXXZ$12
xdata$x	ENDS
;	COMDAT xdata$x
xdata$x	SEGMENT
__unwindtable$?SetupGameUI@@YAXXZ DD 0ffffffffH
	DD	FLAT:__unwindfunclet$?SetupGameUI@@YAXXZ$0
__ehfuncinfo$?SetupGameUI@@YAXXZ DD 019930522H
	DD	01H
	DD	FLAT:__unwindtable$?SetupGameUI@@YAXXZ
	DD	2 DUP(00H)
	DD	2 DUP(00H)
	DD	00H
	DD	01H
xdata$x	ENDS
;	COMDAT xdata$x
xdata$x	SEGMENT
__unwindtable$_DllMain@12 DD 0ffffffffH
	DD	FLAT:__unwindfunclet$_DllMain@12$0
__ehfuncinfo$_DllMain@12 DD 019930522H
	DD	01H
	DD	FLAT:__unwindtable$_DllMain@12
	DD	2 DUP(00H)
	DD	2 DUP(00H)
	DD	00H
	DD	01H
xdata$x	ENDS
;	COMDAT xdata$x
xdata$x	SEGMENT
__unwindtable$?LaunchMonitor@@YAXPAX@Z DD 0ffffffffH
	DD	FLAT:__unwindfunclet$?LaunchMonitor@@YAXPAX@Z$0
__ehfuncinfo$?LaunchMonitor@@YAXPAX@Z DD 019930522H
	DD	01H
	DD	FLAT:__unwindtable$?LaunchMonitor@@YAXPAX@Z
	DD	2 DUP(00H)
	DD	2 DUP(00H)
	DD	00H
	DD	01H
xdata$x	ENDS
; Function compile flags: /Odtp /RTCsu /ZI
; File z:\sampsrc\02xu1\saco\main.cpp
;	COMDAT ?DoInitStuff@@YAXXZ
_TEXT	SEGMENT
tv247 = -544						; size = 4
tv222 = -544						; size = 4
tv211 = -544						; size = 4
tv203 = -544						; size = 4
tv195 = -544						; size = 4
tv187 = -544						; size = 4
tv178 = -544						; size = 4
tv170 = -544						; size = 4
tv162 = -544						; size = 4
tv149 = -544						; size = 4
tv141 = -544						; size = 4
tv133 = -544						; size = 4
tv91 = -544						; size = 4
tv80 = -544						; size = 4
$T2 = -536						; size = 4
$T3 = -524						; size = 4
$T4 = -512						; size = 4
$T5 = -500						; size = 4
$T6 = -488						; size = 4
$T7 = -476						; size = 4
$T8 = -464						; size = 4
$T9 = -452						; size = 4
$T10 = -440						; size = 4
$T11 = -428						; size = 4
$T12 = -416						; size = 4
$T13 = -404						; size = 4
$T14 = -392						; size = 4
$T15 = -380						; size = 4
$T16 = -368						; size = 4
$T17 = -356						; size = 4
$T18 = -344						; size = 4
$T19 = -332						; size = 4
$T20 = -320						; size = 4
$T21 = -308						; size = 4
$T22 = -296						; size = 4
$T23 = -284						; size = 4
$T24 = -272						; size = 4
$T25 = -260						; size = 4
$T26 = -248						; size = 4
$T27 = -236						; size = 4
$T28 = -224						; size = 4
_pGameCamera$29 = -20					; size = 4
__$EHRec$ = -12						; size = 12
?DoInitStuff@@YAXXZ PROC				; DoInitStuff, COMDAT

; 271  : {

	push	ebp
	mov	ebp, esp
	push	-1
	push	__ehhandler$?DoInitStuff@@YAXXZ
	mov	eax, DWORD PTR fs:0
	push	eax
	sub	esp, 532				; 00000214H
	push	ebx
	push	esi
	push	edi
	lea	edi, DWORD PTR [ebp-544]
	mov	ecx, 133				; 00000085H
	mov	eax, -858993460				; ccccccccH
	rep stosd
	mov	eax, DWORD PTR ___security_cookie
	xor	eax, ebp
	push	eax
	lea	eax, DWORD PTR __$EHRec$[ebp]
	mov	DWORD PTR fs:0, eax

; 272  : 	// GAME INIT
; 273  : 	if(!bGameInited)

	cmp	DWORD PTR ?bGameInited@@3HA, 0		; bGameInited
	jne	$LN6@DoInitStuf

; 274  : 	{	
; 275  : 		OutputDebugString("Start of DoInitStuff()");

	mov	esi, esp
	push	OFFSET ??_C@_0BH@JGONLNCN@Start?5of?5DoInitStuff?$CI?$CJ?$AA@
	call	DWORD PTR __imp__OutputDebugStringA@4
	cmp	esi, esp
	call	__RTC_CheckEsp

; 276  : 
; 277  : 		timeBeginPeriod(5); // increases the accuracy of Sleep()

	mov	esi, esp
	push	5
	call	DWORD PTR __imp__timeBeginPeriod@4
	cmp	esi, esp
	call	__RTC_CheckEsp

; 278  : 		SubclassGameWindow();

	call	?SubclassGameWindow@@YAHXZ		; SubclassGameWindow

; 279  : 
; 280  : 		CheckDuplicateD3D9Dlls(); // Do this before any hooks are installed.

	call	?CheckDuplicateD3D9Dlls@@YAXXZ		; CheckDuplicateD3D9Dlls

; 281  : 
; 282  : 		// Grab the real IDirect3D9 * from the game.
; 283  : 		pD3D = (IDirect3D9 *)pGame->GetD3D();

	mov	ecx, DWORD PTR ?pGame@@3PAVCGame@@A	; pGame
	call	?GetD3D@CGame@@QAEKXZ			; CGame::GetD3D
	mov	DWORD PTR ?pD3D@@3PAUIDirect3D9@@A, eax	; pD3D

; 284  : 
; 285  : 		if(!pD3D) {

	cmp	DWORD PTR ?pD3D@@3PAUIDirect3D9@@A, 0	; pD3D
	jne	SHORT $LN5@DoInitStuf

; 286  : 			OutputDebugString("No D3D!!!");

	mov	esi, esp
	push	OFFSET ??_C@_09NEONKHDG@No?5D3D?$CB?$CB?$CB?$AA@
	call	DWORD PTR __imp__OutputDebugStringA@4
	cmp	esi, esp
	call	__RTC_CheckEsp

; 287  : 			return;

	jmp	$LN7@DoInitStuf
$LN5@DoInitStuf:

; 288  : 		}
; 289  : 
; 290  : 		// Grab the real IDirect3DDevice9 * from the game.
; 291  : 		pD3DDevice = (IDirect3DDevice9 *)pGame->GetD3DDevice();

	mov	ecx, DWORD PTR ?pGame@@3PAVCGame@@A	; pGame
	call	?GetD3DDevice@CGame@@QAEKXZ		; CGame::GetD3DDevice
	mov	DWORD PTR ?pD3DDevice@@3PAUIDirect3DDevice9@@A, eax ; pD3DDevice

; 292  : 
; 293  : 		if(!pD3D) {

	cmp	DWORD PTR ?pD3D@@3PAUIDirect3D9@@A, 0	; pD3D
	jne	SHORT $LN4@DoInitStuf

; 294  : 			OutputDebugString("No D3DDevice!!!");

	mov	esi, esp
	push	OFFSET ??_C@_0BA@DJOALJEP@No?5D3DDevice?$CB?$CB?$CB?$AA@
	call	DWORD PTR __imp__OutputDebugStringA@4
	cmp	esi, esp
	call	__RTC_CheckEsp

; 295  : 			return;

	jmp	$LN7@DoInitStuf
$LN4@DoInitStuf:

; 296  : 		}
; 297  : 
; 298  : 		*(IDirect3DDevice9Hook**)ADDR_ID3D9DEVICE = new IDirect3DDevice9Hook();

	push	4
	call	??2@YAPAXI@Z				; operator new
	add	esp, 4
	mov	DWORD PTR $T2[ebp], eax
	cmp	DWORD PTR $T2[ebp], 0
	je	SHORT $LN9@DoInitStuf
	mov	ecx, DWORD PTR $T2[ebp]
	call	??0IDirect3DDevice9Hook@@QAE@XZ
	mov	DWORD PTR tv80[ebp], eax
	jmp	SHORT $LN10@DoInitStuf
$LN9@DoInitStuf:
	mov	DWORD PTR tv80[ebp], 0
$LN10@DoInitStuf:
	mov	eax, DWORD PTR tv80[ebp]
	mov	DWORD PTR ds:13204520, eax

; 299  : 
; 300  : 		OutputDebugString("Font and chat window creating..");

	mov	esi, esp
	push	OFFSET ??_C@_0CA@FNFPPPNH@Font?5and?5chat?5window?5creating?4?4?$AA@
	call	DWORD PTR __imp__OutputDebugStringA@4
	cmp	esi, esp
	call	__RTC_CheckEsp

; 301  : 
; 302  : 		// Create instances of the chat and input classes.
; 303  : 		pDefaultFont = new CFontRender(pD3DDevice);

	push	8
	call	??2@YAPAXI@Z				; operator new
	add	esp, 4
	mov	DWORD PTR $T4[ebp], eax
	mov	DWORD PTR __$EHRec$[ebp+8], 0
	cmp	DWORD PTR $T4[ebp], 0
	je	SHORT $LN11@DoInitStuf
	mov	eax, DWORD PTR ?pD3DDevice@@3PAUIDirect3DDevice9@@A ; pD3DDevice
	push	eax
	mov	ecx, DWORD PTR $T4[ebp]
	call	??0CFontRender@@QAE@PAUIDirect3DDevice9@@@Z ; CFontRender::CFontRender
	mov	DWORD PTR tv91[ebp], eax
	jmp	SHORT $LN12@DoInitStuf
$LN11@DoInitStuf:
	mov	DWORD PTR tv91[ebp], 0
$LN12@DoInitStuf:
	mov	ecx, DWORD PTR tv91[ebp]
	mov	DWORD PTR $T3[ebp], ecx
	mov	DWORD PTR __$EHRec$[ebp+8], -1
	mov	edx, DWORD PTR $T3[ebp]
	mov	DWORD PTR ?pDefaultFont@@3PAVCFontRender@@A, edx ; pDefaultFont

; 304  : 		pChatWindow = new CChatWindow(pD3DDevice,pDefaultFont->m_pD3DFont);

	push	8356					; 000020a4H
	call	??2@YAPAXI@Z				; operator new
	add	esp, 4
	mov	DWORD PTR $T6[ebp], eax
	mov	DWORD PTR __$EHRec$[ebp+8], 1
	cmp	DWORD PTR $T6[ebp], 0
	je	SHORT $LN13@DoInitStuf
	mov	eax, DWORD PTR ?pDefaultFont@@3PAVCFontRender@@A ; pDefaultFont
	mov	ecx, DWORD PTR [eax]
	push	ecx
	mov	edx, DWORD PTR ?pD3DDevice@@3PAUIDirect3DDevice9@@A ; pD3DDevice
	push	edx
	mov	ecx, DWORD PTR $T6[ebp]
	call	??0CChatWindow@@QAE@PAUIDirect3DDevice9@@PAUID3DXFont@@@Z ; CChatWindow::CChatWindow
	mov	DWORD PTR tv133[ebp], eax
	jmp	SHORT $LN14@DoInitStuf
$LN13@DoInitStuf:
	mov	DWORD PTR tv133[ebp], 0
$LN14@DoInitStuf:
	mov	eax, DWORD PTR tv133[ebp]
	mov	DWORD PTR $T5[ebp], eax
	mov	DWORD PTR __$EHRec$[ebp+8], -1
	mov	ecx, DWORD PTR $T5[ebp]
	mov	DWORD PTR ?pChatWindow@@3PAVCChatWindow@@A, ecx ; pChatWindow

; 305  : 		pCmdWindow = new CCmdWindow(pD3DDevice);

	push	6316					; 000018acH
	call	??2@YAPAXI@Z				; operator new
	add	esp, 4
	mov	DWORD PTR $T8[ebp], eax
	mov	DWORD PTR __$EHRec$[ebp+8], 2
	cmp	DWORD PTR $T8[ebp], 0
	je	SHORT $LN15@DoInitStuf
	mov	eax, DWORD PTR ?pD3DDevice@@3PAUIDirect3DDevice9@@A ; pD3DDevice
	push	eax
	mov	ecx, DWORD PTR $T8[ebp]
	call	??0CCmdWindow@@QAE@PAUIDirect3DDevice9@@@Z ; CCmdWindow::CCmdWindow
	mov	DWORD PTR tv141[ebp], eax
	jmp	SHORT $LN16@DoInitStuf
$LN15@DoInitStuf:
	mov	DWORD PTR tv141[ebp], 0
$LN16@DoInitStuf:
	mov	ecx, DWORD PTR tv141[ebp]
	mov	DWORD PTR $T7[ebp], ecx
	mov	DWORD PTR __$EHRec$[ebp+8], -1
	mov	edx, DWORD PTR $T7[ebp]
	mov	DWORD PTR ?pCmdWindow@@3PAVCCmdWindow@@A, edx ; pCmdWindow

; 306  : 
; 307  : 		// DXUT GUI INITIALISATION
; 308  : 		OutputDebugString("DXUTGUI creating..");

	mov	esi, esp
	push	OFFSET ??_C@_0BD@MPIGFPEM@DXUTGUI?5creating?4?4?$AA@
	call	DWORD PTR __imp__OutputDebugStringA@4
	cmp	esi, esp
	call	__RTC_CheckEsp

; 309  : 
; 310  : 		pDialogResourceManager = new CDXUTDialogResourceManager();

	push	36					; 00000024H
	call	??2@YAPAXI@Z				; operator new
	add	esp, 4
	mov	DWORD PTR $T10[ebp], eax
	mov	DWORD PTR __$EHRec$[ebp+8], 3
	cmp	DWORD PTR $T10[ebp], 0
	je	SHORT $LN17@DoInitStuf
	mov	ecx, DWORD PTR $T10[ebp]
	call	??0CDXUTDialogResourceManager@@QAE@XZ	; CDXUTDialogResourceManager::CDXUTDialogResourceManager
	mov	DWORD PTR tv149[ebp], eax
	jmp	SHORT $LN18@DoInitStuf
$LN17@DoInitStuf:
	mov	DWORD PTR tv149[ebp], 0
$LN18@DoInitStuf:
	mov	eax, DWORD PTR tv149[ebp]
	mov	DWORD PTR $T9[ebp], eax
	mov	DWORD PTR __$EHRec$[ebp+8], -1
	mov	ecx, DWORD PTR $T9[ebp]
	mov	DWORD PTR ?pDialogResourceManager@@3PAVCDXUTDialogResourceManager@@A, ecx ; pDialogResourceManager

; 311  : 		pDialogResourceManager->OnCreateDevice(pD3DDevice);

	mov	eax, DWORD PTR ?pD3DDevice@@3PAUIDirect3DDevice9@@A ; pD3DDevice
	push	eax
	mov	ecx, DWORD PTR ?pDialogResourceManager@@3PAVCDXUTDialogResourceManager@@A ; pDialogResourceManager
	call	?OnCreateDevice@CDXUTDialogResourceManager@@QAEJPAUIDirect3DDevice9@@@Z ; CDXUTDialogResourceManager::OnCreateDevice

; 312  : 		pDialogResourceManager->OnResetDevice();

	mov	ecx, DWORD PTR ?pDialogResourceManager@@3PAVCDXUTDialogResourceManager@@A ; pDialogResourceManager
	call	?OnResetDevice@CDXUTDialogResourceManager@@QAEJXZ ; CDXUTDialogResourceManager::OnResetDevice

; 313  : 		
; 314  : 		OutputDebugString("SetupGameUI() creating..");

	mov	esi, esp
	push	OFFSET ??_C@_0BJ@OGPOGKCP@SetupGameUI?$CI?$CJ?5creating?4?4?$AA@
	call	DWORD PTR __imp__OutputDebugStringA@4
	cmp	esi, esp
	call	__RTC_CheckEsp

; 315  : 
; 316  : 		SetupGameUI();	

	call	?SetupGameUI@@YAXXZ			; SetupGameUI

; 317  : 
; 318  : 		if(tSettings.bPlayOnline) {

	cmp	DWORD PTR ?tSettings@@3U_GAME_SETTINGS@@A+4, 0
	je	$LN3@DoInitStuf

; 319  : 			pDeathWindow = new CDeathWindow(pD3DDevice);

	push	319					; 0000013fH
	call	??2@YAPAXI@Z				; operator new
	add	esp, 4
	mov	DWORD PTR $T12[ebp], eax
	mov	DWORD PTR __$EHRec$[ebp+8], 4
	cmp	DWORD PTR $T12[ebp], 0
	je	SHORT $LN19@DoInitStuf
	mov	eax, DWORD PTR ?pD3DDevice@@3PAUIDirect3DDevice9@@A ; pD3DDevice
	push	eax
	mov	ecx, DWORD PTR $T12[ebp]
	call	??0CDeathWindow@@QAE@PAUIDirect3DDevice9@@@Z ; CDeathWindow::CDeathWindow
	mov	DWORD PTR tv162[ebp], eax
	jmp	SHORT $LN20@DoInitStuf
$LN19@DoInitStuf:
	mov	DWORD PTR tv162[ebp], 0
$LN20@DoInitStuf:
	mov	ecx, DWORD PTR tv162[ebp]
	mov	DWORD PTR $T11[ebp], ecx
	mov	DWORD PTR __$EHRec$[ebp+8], -1
	mov	edx, DWORD PTR $T11[ebp]
	mov	DWORD PTR ?pDeathWindow@@3PAVCDeathWindow@@A, edx ; pDeathWindow

; 320  : 			pSpawnScreen = new CSpawnScreen(pD3DDevice);

	push	32					; 00000020H
	call	??2@YAPAXI@Z				; operator new
	add	esp, 4
	mov	DWORD PTR $T14[ebp], eax
	mov	DWORD PTR __$EHRec$[ebp+8], 5
	cmp	DWORD PTR $T14[ebp], 0
	je	SHORT $LN21@DoInitStuf
	mov	eax, DWORD PTR ?pD3DDevice@@3PAUIDirect3DDevice9@@A ; pD3DDevice
	push	eax
	mov	ecx, DWORD PTR $T14[ebp]
	call	??0CSpawnScreen@@QAE@PAUIDirect3DDevice9@@@Z ; CSpawnScreen::CSpawnScreen
	mov	DWORD PTR tv170[ebp], eax
	jmp	SHORT $LN22@DoInitStuf
$LN21@DoInitStuf:
	mov	DWORD PTR tv170[ebp], 0
$LN22@DoInitStuf:
	mov	ecx, DWORD PTR tv170[ebp]
	mov	DWORD PTR $T13[ebp], ecx
	mov	DWORD PTR __$EHRec$[ebp+8], -1
	mov	edx, DWORD PTR $T13[ebp]
	mov	DWORD PTR ?pSpawnScreen@@3PAVCSpawnScreen@@A, edx ; pSpawnScreen

; 321  : 			//pPlayerTags = new CPlayerTags(pD3DDevice);
; 322  : 			pNewPlayerTags = new CNewPlayerTags(pD3DDevice);

	push	16					; 00000010H
	call	??2@YAPAXI@Z				; operator new
	add	esp, 4
	mov	DWORD PTR $T16[ebp], eax
	mov	DWORD PTR __$EHRec$[ebp+8], 6
	cmp	DWORD PTR $T16[ebp], 0
	je	SHORT $LN23@DoInitStuf
	mov	eax, DWORD PTR ?pD3DDevice@@3PAUIDirect3DDevice9@@A ; pD3DDevice
	push	eax
	mov	ecx, DWORD PTR $T16[ebp]
	call	??0CNewPlayerTags@@QAE@PAUIDirect3DDevice9@@@Z ; CNewPlayerTags::CNewPlayerTags
	mov	DWORD PTR tv178[ebp], eax
	jmp	SHORT $LN24@DoInitStuf
$LN23@DoInitStuf:
	mov	DWORD PTR tv178[ebp], 0
$LN24@DoInitStuf:
	mov	ecx, DWORD PTR tv178[ebp]
	mov	DWORD PTR $T15[ebp], ecx
	mov	DWORD PTR __$EHRec$[ebp+8], -1
	mov	edx, DWORD PTR $T15[ebp]
	mov	DWORD PTR ?pNewPlayerTags@@3PAVCNewPlayerTags@@A, edx ; pNewPlayerTags

; 323  : 			pScoreBoard = new CScoreBoard(pD3DDevice, FALSE);

	push	40					; 00000028H
	call	??2@YAPAXI@Z				; operator new
	add	esp, 4
	mov	DWORD PTR $T18[ebp], eax
	mov	DWORD PTR __$EHRec$[ebp+8], 7
	cmp	DWORD PTR $T18[ebp], 0
	je	SHORT $LN25@DoInitStuf
	push	0
	mov	eax, DWORD PTR ?pD3DDevice@@3PAUIDirect3DDevice9@@A ; pD3DDevice
	push	eax
	mov	ecx, DWORD PTR $T18[ebp]
	call	??0CScoreBoard@@QAE@PAUIDirect3DDevice9@@H@Z ; CScoreBoard::CScoreBoard
	mov	DWORD PTR tv187[ebp], eax
	jmp	SHORT $LN26@DoInitStuf
$LN25@DoInitStuf:
	mov	DWORD PTR tv187[ebp], 0
$LN26@DoInitStuf:
	mov	ecx, DWORD PTR tv187[ebp]
	mov	DWORD PTR $T17[ebp], ecx
	mov	DWORD PTR __$EHRec$[ebp+8], -1
	mov	edx, DWORD PTR $T17[ebp]
	mov	DWORD PTR ?pScoreBoard@@3PAVCScoreBoard@@A, edx ; pScoreBoard

; 324  : 			pNetStats = new CNetStats(pD3DDevice);

	push	24					; 00000018H
	call	??2@YAPAXI@Z				; operator new
	add	esp, 4
	mov	DWORD PTR $T20[ebp], eax
	mov	DWORD PTR __$EHRec$[ebp+8], 8
	cmp	DWORD PTR $T20[ebp], 0
	je	SHORT $LN27@DoInitStuf
	mov	eax, DWORD PTR ?pD3DDevice@@3PAUIDirect3DDevice9@@A ; pD3DDevice
	push	eax
	mov	ecx, DWORD PTR $T20[ebp]
	call	??0CNetStats@@QAE@PAUIDirect3DDevice9@@@Z ; CNetStats::CNetStats
	mov	DWORD PTR tv195[ebp], eax
	jmp	SHORT $LN28@DoInitStuf
$LN27@DoInitStuf:
	mov	DWORD PTR tv195[ebp], 0
$LN28@DoInitStuf:
	mov	ecx, DWORD PTR tv195[ebp]
	mov	DWORD PTR $T19[ebp], ecx
	mov	DWORD PTR __$EHRec$[ebp+8], -1
	mov	edx, DWORD PTR $T19[ebp]
	mov	DWORD PTR ?pNetStats@@3PAVCNetStats@@A, edx ; pNetStats

; 325  : 			pSvrNetStats = new CSvrNetStats(pD3DDevice);

	push	24					; 00000018H
	call	??2@YAPAXI@Z				; operator new
	add	esp, 4
	mov	DWORD PTR $T22[ebp], eax
	mov	DWORD PTR __$EHRec$[ebp+8], 9
	cmp	DWORD PTR $T22[ebp], 0
	je	SHORT $LN29@DoInitStuf
	mov	eax, DWORD PTR ?pD3DDevice@@3PAUIDirect3DDevice9@@A ; pD3DDevice
	push	eax
	mov	ecx, DWORD PTR $T22[ebp]
	call	??0CSvrNetStats@@QAE@PAUIDirect3DDevice9@@@Z ; CSvrNetStats::CSvrNetStats
	mov	DWORD PTR tv203[ebp], eax
	jmp	SHORT $LN30@DoInitStuf
$LN29@DoInitStuf:
	mov	DWORD PTR tv203[ebp], 0
$LN30@DoInitStuf:
	mov	ecx, DWORD PTR tv203[ebp]
	mov	DWORD PTR $T21[ebp], ecx
	mov	DWORD PTR __$EHRec$[ebp+8], -1
	mov	edx, DWORD PTR $T21[ebp]
	mov	DWORD PTR ?pSvrNetStats@@3PAVCSvrNetStats@@A, edx ; pSvrNetStats

; 326  : 			pHelpDialog = new CHelpDialog(pD3DDevice);

	push	4
	call	??2@YAPAXI@Z				; operator new
	add	esp, 4
	mov	DWORD PTR $T24[ebp], eax
	mov	DWORD PTR __$EHRec$[ebp+8], 10		; 0000000aH
	cmp	DWORD PTR $T24[ebp], 0
	je	SHORT $LN31@DoInitStuf
	mov	eax, DWORD PTR ?pD3DDevice@@3PAUIDirect3DDevice9@@A ; pD3DDevice
	push	eax
	mov	ecx, DWORD PTR $T24[ebp]
	call	??0CHelpDialog@@QAE@PAUIDirect3DDevice9@@@Z ; CHelpDialog::CHelpDialog
	mov	DWORD PTR tv211[ebp], eax
	jmp	SHORT $LN32@DoInitStuf
$LN31@DoInitStuf:
	mov	DWORD PTR tv211[ebp], 0
$LN32@DoInitStuf:
	mov	ecx, DWORD PTR tv211[ebp]
	mov	DWORD PTR $T23[ebp], ecx
	mov	DWORD PTR __$EHRec$[ebp+8], -1
	mov	edx, DWORD PTR $T23[ebp]
	mov	DWORD PTR ?pHelpDialog@@3PAVCHelpDialog@@A, edx ; pHelpDialog
$LN3@DoInitStuf:

; 327  : 		}
; 328  : 		
; 329  : 		OutputDebugString("Labels creating..");

	mov	esi, esp
	push	OFFSET ??_C@_0BC@DGICMAH@Labels?5creating?4?4?$AA@
	call	DWORD PTR __imp__OutputDebugStringA@4
	cmp	esi, esp
	call	__RTC_CheckEsp

; 330  : 		pLabel = new CLabel(pD3DDevice, "Verdana", false);

	push	13					; 0000000dH
	call	??2@YAPAXI@Z				; operator new
	add	esp, 4
	mov	DWORD PTR $T26[ebp], eax
	mov	DWORD PTR __$EHRec$[ebp+8], 11		; 0000000bH
	cmp	DWORD PTR $T26[ebp], 0
	je	SHORT $LN33@DoInitStuf
	push	0
	push	OFFSET ??_C@_07EHHHOIHI@Verdana?$AA@
	mov	eax, DWORD PTR ?pD3DDevice@@3PAUIDirect3DDevice9@@A ; pD3DDevice
	push	eax
	mov	ecx, DWORD PTR $T26[ebp]
	call	??0CLabel@@QAE@PAUIDirect3DDevice9@@PAD_N@Z ; CLabel::CLabel
	mov	DWORD PTR tv222[ebp], eax
	jmp	SHORT $LN34@DoInitStuf
$LN33@DoInitStuf:
	mov	DWORD PTR tv222[ebp], 0
$LN34@DoInitStuf:
	mov	ecx, DWORD PTR tv222[ebp]
	mov	DWORD PTR $T25[ebp], ecx
	mov	DWORD PTR __$EHRec$[ebp+8], -1
	mov	edx, DWORD PTR $T25[ebp]
	mov	DWORD PTR ?pLabel@@3PAVCLabel@@A, edx	; pLabel

; 331  : 
; 332  : 		// Setting up the commands.
; 333  : 		OutputDebugString("Setting up commands..");

	mov	esi, esp
	push	OFFSET ??_C@_0BG@GCCCNOGC@Setting?5up?5commands?4?4?$AA@
	call	DWORD PTR __imp__OutputDebugStringA@4
	cmp	esi, esp
	call	__RTC_CheckEsp

; 334  : 		SetupCommands();

	call	?SetupCommands@@YAXXZ			; SetupCommands

; 335  : 
; 336  : 		OutputDebugString("Hooking RwSetState..");

	mov	esi, esp
	push	OFFSET ??_C@_0BF@GKDGCAEO@Hooking?5RwSetState?4?4?$AA@
	call	DWORD PTR __imp__OutputDebugStringA@4
	cmp	esi, esp
	call	__RTC_CheckEsp

; 337  : 		HookRwRenderStateSet();

	call	?HookRwRenderStateSet@@YAXXZ		; HookRwRenderStateSet

; 338  : 
; 339  : 		if(tSettings.bDebug) {

	cmp	DWORD PTR ?tSettings@@3U_GAME_SETTINGS@@A, 0
	je	SHORT $LN2@DoInitStuf

; 340  : 			CCamera *pGameCamera = pGame->GetCamera();

	mov	ecx, DWORD PTR ?pGame@@3PAVCGame@@A	; pGame
	call	?GetCamera@CGame@@QAEPAVCCamera@@XZ	; CGame::GetCamera
	mov	DWORD PTR _pGameCamera$29[ebp], eax

; 341  : 			pGameCamera->Restore();

	mov	ecx, DWORD PTR _pGameCamera$29[ebp]
	call	?Restore@CCamera@@QAEXXZ		; CCamera::Restore

; 342  : 			pGameCamera->SetBehindPlayer();

	mov	ecx, DWORD PTR _pGameCamera$29[ebp]
	call	?SetBehindPlayer@CCamera@@QAEXXZ	; CCamera::SetBehindPlayer

; 343  : 			pGame->DisplayHud(TRUE);

	push	1
	mov	ecx, DWORD PTR ?pGame@@3PAVCGame@@A	; pGame
	call	?DisplayHud@CGame@@QAEXH@Z		; CGame::DisplayHud
$LN2@DoInitStuf:

; 344  : 		}
; 345  : 
; 346  : 		bGameInited = TRUE;

	mov	DWORD PTR ?bGameInited@@3HA, 1		; bGameInited

; 347  : 		OutputDebugString("End of DoInitStuff()");

	mov	esi, esp
	push	OFFSET ??_C@_0BF@MFBABOEB@End?5of?5DoInitStuff?$CI?$CJ?$AA@
	call	DWORD PTR __imp__OutputDebugStringA@4
	cmp	esi, esp
	call	__RTC_CheckEsp

; 348  : 
; 349  : 		return;		

	jmp	$LN7@DoInitStuf
$LN6@DoInitStuf:

; 350  : 	}
; 351  : 
; 352  : 	// NET GAME INIT
; 353  : 	if(!bNetworkInited && tSettings.bPlayOnline) {

	cmp	DWORD PTR ?bNetworkInited@@3HA, 0	; bNetworkInited
	jne	$LN7@DoInitStuf
	cmp	DWORD PTR ?tSettings@@3U_GAME_SETTINGS@@A+4, 0
	je	$LN7@DoInitStuf

; 354  : 
; 355  : 		pNetGame = new CNetGame(tSettings.szConnectHost,atoi(tSettings.szConnectPort),
; 356  : 				tSettings.szNickName,tSettings.szConnectPass);

	push	742					; 000002e6H
	call	??2@YAPAXI@Z				; operator new
	add	esp, 4
	mov	DWORD PTR $T28[ebp], eax
	mov	DWORD PTR __$EHRec$[ebp+8], 12		; 0000000cH
	cmp	DWORD PTR $T28[ebp], 0
	je	SHORT $LN35@DoInitStuf
	push	OFFSET ?tSettings@@3U_GAME_SETTINGS@@A+12
	push	OFFSET ?tSettings@@3U_GAME_SETTINGS@@A+783
	push	OFFSET ?tSettings@@3U_GAME_SETTINGS@@A+526
	call	_atoi
	add	esp, 4
	push	eax
	push	OFFSET ?tSettings@@3U_GAME_SETTINGS@@A+269
	mov	ecx, DWORD PTR $T28[ebp]
	call	??0CNetGame@@QAE@PADH00@Z		; CNetGame::CNetGame
	mov	DWORD PTR tv247[ebp], eax
	jmp	SHORT $LN36@DoInitStuf
$LN35@DoInitStuf:
	mov	DWORD PTR tv247[ebp], 0
$LN36@DoInitStuf:
	mov	eax, DWORD PTR tv247[ebp]
	mov	DWORD PTR $T27[ebp], eax
	mov	DWORD PTR __$EHRec$[ebp+8], -1
	mov	ecx, DWORD PTR $T27[ebp]
	mov	DWORD PTR ?pNetGame@@3PAVCNetGame@@A, ecx ; pNetGame

; 357  : 
; 358  : 		bNetworkInited = TRUE;

	mov	DWORD PTR ?bNetworkInited@@3HA, 1	; bNetworkInited
$LN7@DoInitStuf:

; 359  : 		return;
; 360  : 	}
; 361  : }

	mov	ecx, DWORD PTR __$EHRec$[ebp]
	mov	DWORD PTR fs:0, ecx
	pop	ecx
	pop	edi
	pop	esi
	pop	ebx
	add	esp, 544				; 00000220H
	cmp	ebp, esp
	call	__RTC_CheckEsp
	mov	esp, ebp
	pop	ebp
	ret	0
_TEXT	ENDS
;	COMDAT text$x
text$x	SEGMENT
__unwindfunclet$?DoInitStuff@@YAXXZ$0:
	mov	eax, DWORD PTR $T4[ebp]
	push	eax
	call	??3@YAXPAX@Z				; operator delete
	pop	ecx
	ret	0
__unwindfunclet$?DoInitStuff@@YAXXZ$1:
	mov	eax, DWORD PTR $T6[ebp]
	push	eax
	call	??3@YAXPAX@Z				; operator delete
	pop	ecx
	ret	0
__unwindfunclet$?DoInitStuff@@YAXXZ$2:
	mov	eax, DWORD PTR $T8[ebp]
	push	eax
	call	??3@YAXPAX@Z				; operator delete
	pop	ecx
	ret	0
__unwindfunclet$?DoInitStuff@@YAXXZ$3:
	mov	eax, DWORD PTR $T10[ebp]
	push	eax
	call	??3@YAXPAX@Z				; operator delete
	pop	ecx
	ret	0
__unwindfunclet$?DoInitStuff@@YAXXZ$4:
	mov	eax, DWORD PTR $T12[ebp]
	push	eax
	call	??3@YAXPAX@Z				; operator delete
	pop	ecx
	ret	0
__unwindfunclet$?DoInitStuff@@YAXXZ$5:
	mov	eax, DWORD PTR $T14[ebp]
	push	eax
	call	??3@YAXPAX@Z				; operator delete
	pop	ecx
	ret	0
__unwindfunclet$?DoInitStuff@@YAXXZ$6:
	mov	eax, DWORD PTR $T16[ebp]
	push	eax
	call	??3@YAXPAX@Z				; operator delete
	pop	ecx
	ret	0
__unwindfunclet$?DoInitStuff@@YAXXZ$7:
	mov	eax, DWORD PTR $T18[ebp]
	push	eax
	call	??3@YAXPAX@Z				; operator delete
	pop	ecx
	ret	0
__unwindfunclet$?DoInitStuff@@YAXXZ$8:
	mov	eax, DWORD PTR $T20[ebp]
	push	eax
	call	??3@YAXPAX@Z				; operator delete
	pop	ecx
	ret	0
__unwindfunclet$?DoInitStuff@@YAXXZ$9:
	mov	eax, DWORD PTR $T22[ebp]
	push	eax
	call	??3@YAXPAX@Z				; operator delete
	pop	ecx
	ret	0
__unwindfunclet$?DoInitStuff@@YAXXZ$10:
	mov	eax, DWORD PTR $T24[ebp]
	push	eax
	call	??3@YAXPAX@Z				; operator delete
	pop	ecx
	ret	0
__unwindfunclet$?DoInitStuff@@YAXXZ$11:
	mov	eax, DWORD PTR $T26[ebp]
	push	eax
	call	??3@YAXPAX@Z				; operator delete
	pop	ecx
	ret	0
__unwindfunclet$?DoInitStuff@@YAXXZ$12:
	mov	eax, DWORD PTR $T28[ebp]
	push	eax
	call	??3@YAXPAX@Z				; operator delete
	pop	ecx
	ret	0
__ehhandler$?DoInitStuff@@YAXXZ:
	mov	edx, DWORD PTR [esp+8]
	lea	eax, DWORD PTR [edx+12]
	mov	ecx, DWORD PTR [edx-548]
	xor	ecx, eax
	call	@__security_check_cookie@4
	mov	eax, OFFSET __ehfuncinfo$?DoInitStuff@@YAXXZ
	jmp	___CxxFrameHandler3
text$x	ENDS
?DoInitStuff@@YAXXZ ENDP				; DoInitStuff
; Function compile flags: /Odtp /RTCsu /ZI
; File z:\sampsrc\02xu1\saco\main.cpp
;	COMDAT ?SetupGameUI@@YAXXZ
_TEXT	SEGMENT
tv78 = -256						; size = 4
tv70 = -256						; size = 4
$T2 = -248						; size = 4
$T3 = -236						; size = 4
$T4 = -224						; size = 4
$T5 = -212						; size = 4
__$EHRec$ = -12						; size = 12
?SetupGameUI@@YAXXZ PROC				; SetupGameUI, COMDAT

; 246  : {

	push	ebp
	mov	ebp, esp
	push	-1
	push	__ehhandler$?SetupGameUI@@YAXXZ
	mov	eax, DWORD PTR fs:0
	push	eax
	sub	esp, 244				; 000000f4H
	push	ebx
	push	esi
	push	edi
	lea	edi, DWORD PTR [ebp-256]
	mov	ecx, 61					; 0000003dH
	mov	eax, -858993460				; ccccccccH
	rep stosd
	mov	eax, DWORD PTR ___security_cookie
	xor	eax, ebp
	push	eax
	lea	eax, DWORD PTR __$EHRec$[ebp]
	mov	DWORD PTR fs:0, eax

; 247  : 	if(pGameUI) SAFE_DELETE(pGameUI);

	cmp	DWORD PTR ?pGameUI@@3PAVCDXUTDialog@@A, 0 ; pGameUI
	je	SHORT $LN4@SetupGameU
	cmp	DWORD PTR ?pGameUI@@3PAVCDXUTDialog@@A, 0 ; pGameUI
	je	SHORT $LN4@SetupGameU
	mov	eax, DWORD PTR ?pGameUI@@3PAVCDXUTDialog@@A ; pGameUI
	mov	DWORD PTR $T3[ebp], eax
	mov	ecx, DWORD PTR $T3[ebp]
	mov	DWORD PTR $T2[ebp], ecx
	cmp	DWORD PTR $T2[ebp], 0
	je	SHORT $LN7@SetupGameU
	push	1
	mov	ecx, DWORD PTR $T2[ebp]
	call	??_GCDXUTDialog@@QAEPAXI@Z
	mov	DWORD PTR tv70[ebp], eax
	jmp	SHORT $LN8@SetupGameU
$LN7@SetupGameU:
	mov	DWORD PTR tv70[ebp], 0
$LN8@SetupGameU:
	mov	DWORD PTR ?pGameUI@@3PAVCDXUTDialog@@A, 0 ; pGameUI
$LN4@SetupGameU:

; 248  : 
; 249  : 	pGameUI = new CDXUTDialog();

	push	490					; 000001eaH
	call	??2@YAPAXI@Z				; operator new
	add	esp, 4
	mov	DWORD PTR $T5[ebp], eax
	mov	DWORD PTR __$EHRec$[ebp+8], 0
	cmp	DWORD PTR $T5[ebp], 0
	je	SHORT $LN9@SetupGameU
	mov	ecx, DWORD PTR $T5[ebp]
	call	??0CDXUTDialog@@QAE@XZ			; CDXUTDialog::CDXUTDialog
	mov	DWORD PTR tv78[ebp], eax
	jmp	SHORT $LN10@SetupGameU
$LN9@SetupGameU:
	mov	DWORD PTR tv78[ebp], 0
$LN10@SetupGameU:
	mov	eax, DWORD PTR tv78[ebp]
	mov	DWORD PTR $T4[ebp], eax
	mov	DWORD PTR __$EHRec$[ebp+8], -1
	mov	ecx, DWORD PTR $T4[ebp]
	mov	DWORD PTR ?pGameUI@@3PAVCDXUTDialog@@A, ecx ; pGameUI

; 250  :     pGameUI->Init(pDialogResourceManager);

	mov	eax, DWORD PTR ?pDialogResourceManager@@3PAVCDXUTDialogResourceManager@@A ; pDialogResourceManager
	push	eax
	mov	ecx, DWORD PTR ?pGameUI@@3PAVCDXUTDialog@@A ; pGameUI
	call	?Init@CDXUTDialog@@QAEXPAVCDXUTDialogResourceManager@@@Z ; CDXUTDialog::Init

; 251  : 	pGameUI->SetCallback( OnGUIEvent );

	push	0
	push	OFFSET ?OnGUIEvent@@YGXIHPAVCDXUTControl@@PAX@Z ; OnGUIEvent
	mov	ecx, DWORD PTR ?pGameUI@@3PAVCDXUTDialog@@A ; pGameUI
	call	?SetCallback@CDXUTDialog@@QAEXP6GXIHPAVCDXUTControl@@PAX@Z1@Z ; CDXUTDialog::SetCallback

; 252  : 	pGameUI->SetLocation(0,0);

	push	0
	push	0
	mov	ecx, DWORD PTR ?pGameUI@@3PAVCDXUTDialog@@A ; pGameUI
	call	?SetLocation@CDXUTDialog@@QAEXHH@Z	; CDXUTDialog::SetLocation

; 253  : 	pGameUI->SetSize(pGame->GetScreenWidth(),pGame->GetScreenHeight());

	mov	ecx, DWORD PTR ?pGame@@3PAVCGame@@A	; pGame
	call	?GetScreenHeight@CGame@@QAEHXZ		; CGame::GetScreenHeight
	push	eax
	mov	ecx, DWORD PTR ?pGame@@3PAVCGame@@A	; pGame
	call	?GetScreenWidth@CGame@@QAEHXZ		; CGame::GetScreenWidth
	push	eax
	mov	ecx, DWORD PTR ?pGameUI@@3PAVCDXUTDialog@@A ; pGameUI
	call	?SetSize@CDXUTDialog@@QAEXHH@Z		; CDXUTDialog::SetSize

; 254  : 
; 255  : 	//pGameUI->AddButton(2,"Test Button",30,390,80,35,0);
; 256  : 	//pGameUI->AddEditBox(3,"",20,pGame->GetScreenHeight()-40,pGame->GetScreenWidth()-40,36,true);
; 257  : 
; 258  : 	pGameUI->EnableMouseInput(false);

	push	0
	mov	ecx, DWORD PTR ?pGameUI@@3PAVCDXUTDialog@@A ; pGameUI
	call	?EnableMouseInput@CDXUTDialog@@QAEX_N@Z	; CDXUTDialog::EnableMouseInput

; 259  : 	pGameUI->EnableKeyboardInput(true);

	push	1
	mov	ecx, DWORD PTR ?pGameUI@@3PAVCDXUTDialog@@A ; pGameUI
	call	?EnableKeyboardInput@CDXUTDialog@@QAEX_N@Z ; CDXUTDialog::EnableKeyboardInput

; 260  : 
; 261  : 	if(pChatWindow) pChatWindow->ResetDialogControls(pGameUI);

	cmp	DWORD PTR ?pChatWindow@@3PAVCChatWindow@@A, 0 ; pChatWindow
	je	SHORT $LN2@SetupGameU
	mov	eax, DWORD PTR ?pGameUI@@3PAVCDXUTDialog@@A ; pGameUI
	push	eax
	mov	ecx, DWORD PTR ?pChatWindow@@3PAVCChatWindow@@A ; pChatWindow
	call	?ResetDialogControls@CChatWindow@@QAEXPAVCDXUTDialog@@@Z ; CChatWindow::ResetDialogControls
$LN2@SetupGameU:

; 262  : 	if(pCmdWindow) pCmdWindow->ResetDialogControls(pGameUI);

	cmp	DWORD PTR ?pCmdWindow@@3PAVCCmdWindow@@A, 0 ; pCmdWindow
	je	SHORT $LN5@SetupGameU
	mov	eax, DWORD PTR ?pGameUI@@3PAVCDXUTDialog@@A ; pGameUI
	push	eax
	mov	ecx, DWORD PTR ?pCmdWindow@@3PAVCCmdWindow@@A ; pCmdWindow
	call	?ResetDialogControls@CCmdWindow@@QAEXPAVCDXUTDialog@@@Z ; CCmdWindow::ResetDialogControls
$LN5@SetupGameU:

; 263  : 
; 264  : }		

	mov	ecx, DWORD PTR __$EHRec$[ebp]
	mov	DWORD PTR fs:0, ecx
	pop	ecx
	pop	edi
	pop	esi
	pop	ebx
	add	esp, 256				; 00000100H
	cmp	ebp, esp
	call	__RTC_CheckEsp
	mov	esp, ebp
	pop	ebp
	ret	0
_TEXT	ENDS
;	COMDAT text$x
text$x	SEGMENT
__unwindfunclet$?SetupGameUI@@YAXXZ$0:
	mov	eax, DWORD PTR $T5[ebp]
	push	eax
	call	??3@YAXPAX@Z				; operator delete
	pop	ecx
	ret	0
__ehhandler$?SetupGameUI@@YAXXZ:
	mov	edx, DWORD PTR [esp+8]
	lea	eax, DWORD PTR [edx+12]
	mov	ecx, DWORD PTR [edx-260]
	xor	ecx, eax
	call	@__security_check_cookie@4
	mov	eax, OFFSET __ehfuncinfo$?SetupGameUI@@YAXXZ
	jmp	___CxxFrameHandler3
text$x	ENDS
?SetupGameUI@@YAXXZ ENDP				; SetupGameUI
; Function compile flags: /Odtp /RTCsu /ZI
; File z:\sampsrc\02xu1\saco\main.cpp
;	COMDAT ?CallRwRenderStateSet@@YAXHH@Z
_TEXT	SEGMENT
_state$ = 8						; size = 4
_option$ = 12						; size = 4
?CallRwRenderStateSet@@YAXHH@Z PROC			; CallRwRenderStateSet, COMDAT

; 234  : {

	push	ebp
	mov	ebp, esp
	sub	esp, 192				; 000000c0H
	push	ebx
	push	esi
	push	edi
	lea	edi, DWORD PTR [ebp-192]
	mov	ecx, 48					; 00000030H
	mov	eax, -858993460				; ccccccccH
	rep stosd

; 235  : 	_asm push option

	push	DWORD PTR _option$[ebp]

; 236  : 	_asm push state

	push	DWORD PTR _state$[ebp]

; 237  : 	_asm mov ebx, 0xC97B24

	mov	ebx, 13204260				; 00c97b24H

; 238  : 	_asm mov eax, [ebx]

	mov	eax, DWORD PTR [ebx]

; 239  : 	_asm call dword ptr [eax+32]

	call	DWORD PTR [eax+32]

; 240  : 	_asm add esp, 8

	add	esp, 8

; 241  : }

	pop	edi
	pop	esi
	pop	ebx
	add	esp, 192				; 000000c0H
	cmp	ebp, esp
	call	__RTC_CheckEsp
	mov	esp, ebp
	pop	ebp
	ret	0
?CallRwRenderStateSet@@YAXHH@Z ENDP			; CallRwRenderStateSet
_TEXT	ENDS
; Function compile flags: /Odtp /RTCsu /ZI
; File z:\sampsrc\02xu1\saco\main.cpp
;	COMDAT ?HookRwRenderStateSet@@YAXXZ
_TEXT	SEGMENT
_dwNewRwSetState$ = -8					; size = 4
?HookRwRenderStateSet@@YAXXZ PROC			; HookRwRenderStateSet, COMDAT

; 214  : {

	push	ebp
	mov	ebp, esp
	sub	esp, 204				; 000000ccH
	push	ebx
	push	esi
	push	edi
	lea	edi, DWORD PTR [ebp-204]
	mov	ecx, 51					; 00000033H
	mov	eax, -858993460				; ccccccccH
	rep stosd

; 215  : 	DWORD dwNewRwSetState = (DWORD)RwRenderStateSetHook;

	mov	DWORD PTR _dwNewRwSetState$[ebp], OFFSET ?RwRenderStateSetHook@@YAXXZ ; RwRenderStateSetHook

; 216  : 
; 217  : 	_asm mov ebx, 0xC97B24

	mov	ebx, 13204260				; 00c97b24H

; 218  : 	_asm mov eax, [ebx]

	mov	eax, DWORD PTR [ebx]

; 219  : 	_asm mov edx, [eax+32]

	mov	edx, DWORD PTR [eax+32]

; 220  : 	_asm mov dwOrgRwSetState, edx

	mov	DWORD PTR ?dwOrgRwSetState@@3KA, edx	; dwOrgRwSetState

; 221  : 	_asm mov edx, dwNewRwSetState

	mov	edx, DWORD PTR _dwNewRwSetState$[ebp]

; 222  : 	_asm mov [eax+32], edx

	mov	DWORD PTR [eax+32], edx

; 223  : 
; 224  : #ifdef _DEBUG
; 225  : 	sprintf(dbgstr,"HookRwRenderStateSet(0x%X)",dwOrgRwSetState);

	mov	eax, DWORD PTR ?dwOrgRwSetState@@3KA	; dwOrgRwSetState
	push	eax
	push	OFFSET ??_C@_0BL@FJEOAAAM@HookRwRenderStateSet?$CI0x?$CFX?$CJ?$AA@
	push	OFFSET ?dbgstr@@3PADA			; dbgstr
	call	_sprintf
	add	esp, 12					; 0000000cH

; 226  : 	OutputDebugString(dbgstr);

	mov	esi, esp
	push	OFFSET ?dbgstr@@3PADA			; dbgstr
	call	DWORD PTR __imp__OutputDebugStringA@4
	cmp	esi, esp
	call	__RTC_CheckEsp

; 227  : #endif
; 228  : 
; 229  : }

	pop	edi
	pop	esi
	pop	ebx
	add	esp, 204				; 000000ccH
	cmp	ebp, esp
	call	__RTC_CheckEsp
	mov	esp, ebp
	pop	ebp
	ret	0
?HookRwRenderStateSet@@YAXXZ ENDP			; HookRwRenderStateSet
_TEXT	ENDS
; Function compile flags: /Odtp /RTCsu /ZI
; File z:\sampsrc\02xu1\saco\main.cpp
;	COMDAT ?RwRenderStateSetHook@@YAXXZ
_TEXT	SEGMENT
?RwRenderStateSetHook@@YAXXZ PROC			; RwRenderStateSetHook, COMDAT

; 189  : 	_asm mov eax, [esp]

	mov	eax, DWORD PTR [esp]

; 190  : 	_asm mov dwSetStateCaller, eax

	mov	DWORD PTR ?dwSetStateCaller@@3KA, eax	; dwSetStateCaller

; 191  : 	_asm mov eax, [esp+4]

	mov	eax, DWORD PTR [esp+4]

; 192  : 	_asm mov dwSetStateOption, eax

	mov	DWORD PTR ?dwSetStateOption@@3KA, eax	; dwSetStateOption

; 193  : 	_asm mov eax, [esp+8]

	mov	eax, DWORD PTR [esp+8]

; 194  : 	_asm mov dwSetStateParam, eax

	mov	DWORD PTR ?dwSetStateParam@@3KA, eax	; dwSetStateParam

; 195  : 
; 196  : 	if(dwSetStateOption == 14) {

	cmp	DWORD PTR ?dwSetStateOption@@3KA, 14	; dwSetStateOption, 0000000eH
	jne	SHORT $LN3@RwRenderSt

; 197  : 		if(dwSetStateParam) {

	cmp	DWORD PTR ?dwSetStateParam@@3KA, 0	; dwSetStateParam
	je	SHORT $LN2@RwRenderSt

; 198  : 			SetupD3DFog(TRUE);

	push	1
	call	?SetupD3DFog@@YAXH@Z			; SetupD3DFog
	add	esp, 4

; 199  : 			dwFogEnabled = 1;

	mov	DWORD PTR ?dwFogEnabled@@3KA, 1		; dwFogEnabled

; 200  : 		} else {

	jmp	SHORT $LN1@RwRenderSt
$LN2@RwRenderSt:

; 201  : 			SetupD3DFog(FALSE);

	push	0
	call	?SetupD3DFog@@YAXH@Z			; SetupD3DFog
	add	esp, 4

; 202  : 			dwFogEnabled = 0;

	mov	DWORD PTR ?dwFogEnabled@@3KA, 0		; dwFogEnabled
$LN1@RwRenderSt:

; 203  : 		}
; 204  : 		_asm mov [esp+8], 0 ; no fog

	mov	BYTE PTR [esp+8], 0
$LN3@RwRenderSt:

; 205  : 	}
; 206  : 
; 207  : 	_asm mov eax, dwOrgRwSetState

	mov	eax, DWORD PTR ?dwOrgRwSetState@@3KA	; dwOrgRwSetState

; 208  : 	_asm jmp eax

	jmp	eax
?RwRenderStateSetHook@@YAXXZ ENDP			; RwRenderStateSetHook
_TEXT	ENDS
; Function compile flags: /Odtp /RTCsu /ZI
; File z:\sampsrc\02xu1\saco\main.cpp
;	COMDAT ?SetupD3DFog@@YAXH@Z
_TEXT	SEGMENT
_fFogEnd$ = -20						; size = 4
_fFogStart$ = -8					; size = 4
_bEnable$ = 8						; size = 4
?SetupD3DFog@@YAXH@Z PROC				; SetupD3DFog, COMDAT

; 169  : {

	push	ebp
	mov	ebp, esp
	sub	esp, 216				; 000000d8H
	push	ebx
	push	esi
	push	edi
	lea	edi, DWORD PTR [ebp-216]
	mov	ecx, 54					; 00000036H
	mov	eax, -858993460				; ccccccccH
	rep stosd

; 170  : 	float fFogStart = 500.0f;

	movss	xmm0, DWORD PTR __real@43fa0000
	movss	DWORD PTR _fFogStart$[ebp], xmm0

; 171  : 	float fFogEnd = 700.0f;

	movss	xmm0, DWORD PTR __real@442f0000
	movss	DWORD PTR _fFogEnd$[ebp], xmm0

; 172  : 
; 173  : 	if(gDisableAllFog) bEnable = FALSE;

	cmp	DWORD PTR ?gDisableAllFog@@3HA, 0	; gDisableAllFog
	je	SHORT $LN2@SetupD3DFo
	mov	DWORD PTR _bEnable$[ebp], 0
$LN2@SetupD3DFo:

; 174  : 
; 175  : 	if(pD3DDevice) {

	cmp	DWORD PTR ?pD3DDevice@@3PAUIDirect3DDevice9@@A, 0 ; pD3DDevice
	je	SHORT $LN1@SetupD3DFo

; 176  : 		pD3DDevice->SetRenderState(D3DRS_FOGENABLE, bEnable);

	mov	esi, esp
	mov	eax, DWORD PTR _bEnable$[ebp]
	push	eax
	push	28					; 0000001cH
	mov	ecx, DWORD PTR ?pD3DDevice@@3PAUIDirect3DDevice9@@A ; pD3DDevice
	mov	edx, DWORD PTR [ecx]
	mov	eax, DWORD PTR ?pD3DDevice@@3PAUIDirect3DDevice9@@A ; pD3DDevice
	push	eax
	mov	ecx, DWORD PTR [edx+228]
	call	ecx
	cmp	esi, esp
	call	__RTC_CheckEsp

; 177  : 		//pD3DDevice->SetRenderState(D3DRS_FOGCOLOR, dwFogColor);
; 178  : 		pD3DDevice->SetRenderState(D3DRS_FOGTABLEMODE, D3DFOG_NONE);

	mov	esi, esp
	push	0
	push	35					; 00000023H
	mov	eax, DWORD PTR ?pD3DDevice@@3PAUIDirect3DDevice9@@A ; pD3DDevice
	mov	ecx, DWORD PTR [eax]
	mov	edx, DWORD PTR ?pD3DDevice@@3PAUIDirect3DDevice9@@A ; pD3DDevice
	push	edx
	mov	eax, DWORD PTR [ecx+228]
	call	eax
	cmp	esi, esp
	call	__RTC_CheckEsp

; 179  : 		pD3DDevice->SetRenderState(D3DRS_FOGVERTEXMODE, D3DFOG_LINEAR);

	mov	esi, esp
	push	3
	push	140					; 0000008cH
	mov	eax, DWORD PTR ?pD3DDevice@@3PAUIDirect3DDevice9@@A ; pD3DDevice
	mov	ecx, DWORD PTR [eax]
	mov	edx, DWORD PTR ?pD3DDevice@@3PAUIDirect3DDevice9@@A ; pD3DDevice
	push	edx
	mov	eax, DWORD PTR [ecx+228]
	call	eax
	cmp	esi, esp
	call	__RTC_CheckEsp
$LN1@SetupD3DFo:

; 180  : 		//pD3DDevice->SetRenderState(D3DRS_FOGSTART, *(DWORD*)(&fFogStart));
; 181  : 		//pD3DDevice->SetRenderState(D3DRS_FOGEND, *(DWORD*)(&fFogEnd));
; 182  : 	}
; 183  : }

	pop	edi
	pop	esi
	pop	ebx
	add	esp, 216				; 000000d8H
	cmp	ebp, esp
	call	__RTC_CheckEsp
	mov	esp, ebp
	pop	ebp
	ret	0
?SetupD3DFog@@YAXH@Z ENDP				; SetupD3DFog
_TEXT	ENDS
; Function compile flags: /Odtp /RTCsu /ZI
; File z:\sampsrc\02xu1\saco\main.cpp
;	COMDAT _DllMain@12
_TEXT	SEGMENT
tv129 = -516						; size = 4
$T2 = -508						; size = 4
$T3 = -496						; size = 4
_dwFileNameLen$4 = -292					; size = 4
_szArchiveFile$5 = -280					; size = 260
__$ArrayPad$ = -16					; size = 4
__$EHRec$ = -12						; size = 12
_hinstDLL$ = 8						; size = 4
_fdwReason$ = 12					; size = 4
_lpvReserved$ = 16					; size = 4
_DllMain@12 PROC					; COMDAT

; 111  : {

	push	ebp
	mov	ebp, esp
	push	-1
	push	__ehhandler$_DllMain@12
	mov	eax, DWORD PTR fs:0
	push	eax
	sub	esp, 504				; 000001f8H
	push	ebx
	push	esi
	push	edi
	lea	edi, DWORD PTR [ebp-516]
	mov	ecx, 126				; 0000007eH
	mov	eax, -858993460				; ccccccccH
	rep stosd
	mov	eax, DWORD PTR ___security_cookie
	xor	eax, ebp
	mov	DWORD PTR __$ArrayPad$[ebp], eax
	push	eax
	lea	eax, DWORD PTR __$EHRec$[ebp]
	mov	DWORD PTR fs:0, eax

; 112  : 	if(DLL_PROCESS_ATTACH==fdwReason)

	cmp	DWORD PTR _fdwReason$[ebp], 1
	jne	$LN10@DllMain

; 113  : 	{
; 114  : 		OutputDebugString("SA-MP Process Attached\n");

	mov	esi, esp
	push	OFFSET ??_C@_0BI@ELLAGGGI@SA?9MP?5Process?5Attached?6?$AA@
	call	DWORD PTR __imp__OutputDebugStringA@4
	cmp	esi, esp
	call	__RTC_CheckEsp

; 115  : 
; 116  : 		hInstance = hinstDLL;

	mov	eax, DWORD PTR _hinstDLL$[ebp]
	mov	DWORD PTR ?hInstance@@3PAXA, eax	; hInstance

; 117  : 		InitSettings();

	call	?InitSettings@@YAXXZ			; InitSettings

; 118  : 
; 119  : 		if(tSettings.bDebug || tSettings.bPlayOnline)

	cmp	DWORD PTR ?tSettings@@3U_GAME_SETTINGS@@A, 0
	jne	SHORT $LN8@DllMain
	cmp	DWORD PTR ?tSettings@@3U_GAME_SETTINGS@@A+4, 0
	je	$LN9@DllMain
$LN8@DllMain:

; 120  : 		{
; 121  : 			SetProcessAffinityMask(GetCurrentProcess(),1);

	mov	esi, esp
	push	1
	mov	edi, esp
	call	DWORD PTR __imp__GetCurrentProcess@0
	cmp	edi, esp
	call	__RTC_CheckEsp
	push	eax
	call	DWORD PTR __imp__SetProcessAffinityMask@8
	cmp	esi, esp
	call	__RTC_CheckEsp

; 122  : 
; 123  : 			SetUnhandledExceptionFilter(exc_handler);

	mov	esi, esp
	push	OFFSET ?exc_handler@@YGJPAU_EXCEPTION_POINTERS@@@Z ; exc_handler
	call	DWORD PTR __imp__SetUnhandledExceptionFilter@4
	cmp	esi, esp
	call	__RTC_CheckEsp

; 124  : 			dwGameLoop = (DWORD)TheGameLoop;

	mov	DWORD PTR ?dwGameLoop@@3KA, OFFSET ?TheGameLoop@@YAXXZ ; dwGameLoop, TheGameLoop

; 125  : 			dwGraphicsLoop = (DWORD)TheGraphicsLoop;

	mov	DWORD PTR ?dwGraphicsLoop@@3KA, OFFSET ?TheGraphicsLoop@@YAXXZ ; dwGraphicsLoop, TheGraphicsLoop

; 126  : 
; 127  : 			OutputDebugString("Loading Archive");

	mov	esi, esp
	push	OFFSET ??_C@_0BA@OCJPMOPM@Loading?5Archive?$AA@
	call	DWORD PTR __imp__OutputDebugStringA@4
	cmp	esi, esp
	call	__RTC_CheckEsp

; 128  : 
; 129  : 			CHAR szArchiveFile[MAX_PATH];
; 130  : 			GetModuleFileNameA((HMODULE)hInstance, szArchiveFile, MAX_PATH);

	mov	esi, esp
	push	260					; 00000104H
	lea	eax, DWORD PTR _szArchiveFile$5[ebp]
	push	eax
	mov	ecx, DWORD PTR ?hInstance@@3PAXA	; hInstance
	push	ecx
	call	DWORD PTR __imp__GetModuleFileNameA@12
	cmp	esi, esp
	call	__RTC_CheckEsp

; 131  : 			DWORD dwFileNameLen = strlen(szArchiveFile);

	lea	eax, DWORD PTR _szArchiveFile$5[ebp]
	push	eax
	call	_strlen
	add	esp, 4
	mov	DWORD PTR _dwFileNameLen$4[ebp], eax
$LN7@DllMain:

; 132  : 			while(szArchiveFile[dwFileNameLen] != '\\')

	mov	eax, DWORD PTR _dwFileNameLen$4[ebp]
	movsx	ecx, BYTE PTR _szArchiveFile$5[ebp+eax]
	cmp	ecx, 92					; 0000005cH
	je	SHORT $LN6@DllMain

; 133  : 				dwFileNameLen--;

	mov	eax, DWORD PTR _dwFileNameLen$4[ebp]
	sub	eax, 1
	mov	DWORD PTR _dwFileNameLen$4[ebp], eax
	jmp	SHORT $LN7@DllMain
$LN6@DllMain:

; 134  : 			strcpy(szArchiveFile+dwFileNameLen+1, ARCHIVE_FILE);

	push	OFFSET ??_C@_08BPFCPBGG@samp?4saa?$AA@
	mov	eax, DWORD PTR _dwFileNameLen$4[ebp]
	lea	ecx, DWORD PTR _szArchiveFile$5[ebp+eax+1]
	push	ecx
	call	_strcpy
	add	esp, 8

; 135  : 
; 136  : 			pFileSystem = new CArchiveFS();

	push	2357					; 00000935H
	call	??2@YAPAXI@Z				; operator new
	add	esp, 4
	mov	DWORD PTR $T3[ebp], eax
	mov	DWORD PTR __$EHRec$[ebp+8], 0
	cmp	DWORD PTR $T3[ebp], 0
	je	SHORT $LN13@DllMain
	mov	ecx, DWORD PTR $T3[ebp]
	call	??0CArchiveFS@@QAE@XZ			; CArchiveFS::CArchiveFS
	mov	DWORD PTR tv129[ebp], eax
	jmp	SHORT $LN14@DllMain
$LN13@DllMain:
	mov	DWORD PTR tv129[ebp], 0
$LN14@DllMain:
	mov	eax, DWORD PTR tv129[ebp]
	mov	DWORD PTR $T2[ebp], eax
	mov	DWORD PTR __$EHRec$[ebp+8], -1
	mov	ecx, DWORD PTR $T2[ebp]
	mov	DWORD PTR ?pFileSystem@@3PAVCFileSystem@@A, ecx ; pFileSystem

; 137  : 			if(!pFileSystem->Load(szArchiveFile)) _asm int 3

	mov	esi, esp
	lea	eax, DWORD PTR _szArchiveFile$5[ebp]
	push	eax
	mov	ecx, DWORD PTR ?pFileSystem@@3PAVCFileSystem@@A ; pFileSystem
	mov	edx, DWORD PTR [ecx]
	mov	ecx, DWORD PTR ?pFileSystem@@3PAVCFileSystem@@A ; pFileSystem
	mov	eax, DWORD PTR [edx+4]
	call	eax
	cmp	esi, esp
	call	__RTC_CheckEsp
	movzx	ecx, al
	test	ecx, ecx
	jne	SHORT $LN5@DllMain
	int	3
$LN5@DllMain:

; 138  : 
; 139  : 			OutputDebugString("Installing filesystem hooks.");

	mov	esi, esp
	push	OFFSET ??_C@_0BN@HAEOHDIN@Installing?5filesystem?5hooks?4?$AA@
	call	DWORD PTR __imp__OutputDebugStringA@4
	cmp	esi, esp
	call	__RTC_CheckEsp

; 140  : 
; 141  : 			InstallFileSystemHooks();

	call	?InstallFileSystemHooks@@YAXXZ		; InstallFileSystemHooks

; 142  : 
; 143  : 			_beginthread(LaunchMonitor,0,NULL);	

	push	0
	push	0
	push	OFFSET ?LaunchMonitor@@YAXPAX@Z		; LaunchMonitor
	call	__beginthread
	add	esp, 12					; 0000000cH

; 144  : 			OutputDebugString("SA:MP Inited\n");			

	mov	esi, esp
	push	OFFSET ??_C@_0O@LKCJNEJC@SA?3MP?5Inited?6?$AA@
	call	DWORD PTR __imp__OutputDebugStringA@4
	cmp	esi, esp
	call	__RTC_CheckEsp
$LN9@DllMain:

; 145  : 		}
; 146  : 	}

	jmp	SHORT $LN4@DllMain
$LN10@DllMain:

; 147  : 	else if(DLL_PROCESS_DETACH==fdwReason)

	cmp	DWORD PTR _fdwReason$[ebp], 0
	jne	SHORT $LN4@DllMain

; 148  : 	{
; 149  : 		if(tSettings.bDebug || tSettings.bPlayOnline) {

	cmp	DWORD PTR ?tSettings@@3U_GAME_SETTINGS@@A, 0
	jne	SHORT $LN1@DllMain
	cmp	DWORD PTR ?tSettings@@3U_GAME_SETTINGS@@A+4, 0
	je	SHORT $LN4@DllMain
$LN1@DllMain:

; 150  : 			OutputDebugString("Process Detached\n");

	mov	esi, esp
	push	OFFSET ??_C@_0BC@JIDHNMLB@Process?5Detached?6?$AA@
	call	DWORD PTR __imp__OutputDebugStringA@4
	cmp	esi, esp
	call	__RTC_CheckEsp

; 151  : 			/*if (pAntiCheat)	{
; 152  : 				pAntiCheat->Disable();
; 153  : 				delete pAntiCheat;
; 154  : 			}*/
; 155  : 			UninstallFileSystemHooks();

	call	?UninstallFileSystemHooks@@YAXXZ	; UninstallFileSystemHooks
$LN4@DllMain:

; 156  : 		}
; 157  : 	}
; 158  : 
; 159  : 	return TRUE;

	mov	eax, 1

; 160  : }

	push	edx
	mov	ecx, ebp
	push	eax
	lea	edx, DWORD PTR $LN19@DllMain
	call	@_RTC_CheckStackVars@8
	pop	eax
	pop	edx
	mov	ecx, DWORD PTR __$EHRec$[ebp]
	mov	DWORD PTR fs:0, ecx
	pop	ecx
	pop	edi
	pop	esi
	pop	ebx
	mov	ecx, DWORD PTR __$ArrayPad$[ebp]
	xor	ecx, ebp
	call	@__security_check_cookie@4
	add	esp, 516				; 00000204H
	cmp	ebp, esp
	call	__RTC_CheckEsp
	mov	esp, ebp
	pop	ebp
	ret	12					; 0000000cH
$LN19@DllMain:
	DD	1
	DD	$LN18@DllMain
$LN18@DllMain:
	DD	-280					; fffffee8H
	DD	260					; 00000104H
	DD	$LN16@DllMain
$LN16@DllMain:
	DB	115					; 00000073H
	DB	122					; 0000007aH
	DB	65					; 00000041H
	DB	114					; 00000072H
	DB	99					; 00000063H
	DB	104					; 00000068H
	DB	105					; 00000069H
	DB	118					; 00000076H
	DB	101					; 00000065H
	DB	70					; 00000046H
	DB	105					; 00000069H
	DB	108					; 0000006cH
	DB	101					; 00000065H
	DB	0
_TEXT	ENDS
;	COMDAT text$x
text$x	SEGMENT
__unwindfunclet$_DllMain@12$0:
	mov	eax, DWORD PTR $T3[ebp]
	push	eax
	call	??3@YAXPAX@Z				; operator delete
	pop	ecx
	ret	0
__ehhandler$_DllMain@12:
	mov	edx, DWORD PTR [esp+8]
	lea	eax, DWORD PTR [edx+12]
	mov	ecx, DWORD PTR [edx-520]
	xor	ecx, eax
	call	@__security_check_cookie@4
	mov	ecx, DWORD PTR [edx-4]
	xor	ecx, eax
	call	@__security_check_cookie@4
	mov	eax, OFFSET __ehfuncinfo$_DllMain@12
	jmp	___CxxFrameHandler3
text$x	ENDS
_DllMain@12 ENDP
; Function compile flags: /Odtp /RTCsu /ZI
; File z:\sampsrc\02xu1\saco\main.cpp
;	COMDAT ?LaunchMonitor@@YAXPAX@Z
_TEXT	SEGMENT
tv71 = -232						; size = 4
$T2 = -224						; size = 4
$T3 = -212						; size = 4
__$EHRec$ = -12						; size = 12
_v$ = 8							; size = 4
?LaunchMonitor@@YAXPAX@Z PROC				; LaunchMonitor, COMDAT

; 89   : {

	push	ebp
	mov	ebp, esp
	push	-1
	push	__ehhandler$?LaunchMonitor@@YAXPAX@Z
	mov	eax, DWORD PTR fs:0
	push	eax
	sub	esp, 220				; 000000dcH
	push	ebx
	push	esi
	push	edi
	lea	edi, DWORD PTR [ebp-232]
	mov	ecx, 55					; 00000037H
	mov	eax, -858993460				; ccccccccH
	rep stosd
	mov	eax, DWORD PTR ___security_cookie
	xor	eax, ebp
	push	eax
	lea	eax, DWORD PTR __$EHRec$[ebp]
	mov	DWORD PTR fs:0, eax

; 90   : 	pGame = new CGame();

	push	81					; 00000051H
	call	??2@YAPAXI@Z				; operator new
	add	esp, 4
	mov	DWORD PTR $T3[ebp], eax
	mov	DWORD PTR __$EHRec$[ebp+8], 0
	cmp	DWORD PTR $T3[ebp], 0
	je	SHORT $LN7@LaunchMoni
	mov	ecx, DWORD PTR $T3[ebp]
	call	??0CGame@@QAE@XZ			; CGame::CGame
	mov	DWORD PTR tv71[ebp], eax
	jmp	SHORT $LN8@LaunchMoni
$LN7@LaunchMoni:
	mov	DWORD PTR tv71[ebp], 0
$LN8@LaunchMoni:
	mov	eax, DWORD PTR tv71[ebp]
	mov	DWORD PTR $T2[ebp], eax
	mov	DWORD PTR __$EHRec$[ebp+8], -1
	mov	ecx, DWORD PTR $T2[ebp]
	mov	DWORD PTR ?pGame@@3PAVCGame@@A, ecx	; pGame

; 91   : 	pGame->InitGame();

	mov	ecx, DWORD PTR ?pGame@@3PAVCGame@@A	; pGame
	call	?InitGame@CGame@@QAEXXZ			; CGame::InitGame
$LN4@LaunchMoni:

; 92   : 
; 93   : 	while(1) {

	mov	eax, 1
	test	eax, eax
	je	SHORT $LN3@LaunchMoni

; 94   : 		if(*(PDWORD)ADDR_ENTRY == 7) {

	cmp	DWORD PTR ds:13161664, 7
	jne	SHORT $LN2@LaunchMoni

; 95   : 			pGame->StartGame();

	mov	ecx, DWORD PTR ?pGame@@3PAVCGame@@A	; pGame
	call	?StartGame@CGame@@QAEXXZ		; CGame::StartGame

; 96   :             break;

	jmp	SHORT $LN3@LaunchMoni

; 97   : 		}
; 98   : 		else {

	jmp	SHORT $LN1@LaunchMoni
$LN2@LaunchMoni:

; 99   : 			Sleep(5);

	mov	esi, esp
	push	5
	call	DWORD PTR __imp__Sleep@4
	cmp	esi, esp
	call	__RTC_CheckEsp
$LN1@LaunchMoni:

; 100  : 		}
; 101  : 	}

	jmp	SHORT $LN4@LaunchMoni
$LN3@LaunchMoni:

; 102  : 
; 103  : 	ExitThread(0);

	mov	esi, esp
	push	0
	call	DWORD PTR __imp__ExitThread@4
	cmp	esi, esp
	call	__RTC_CheckEsp
$LN6@LaunchMoni:

; 104  : }

	mov	ecx, DWORD PTR __$EHRec$[ebp]
	mov	DWORD PTR fs:0, ecx
	pop	ecx
	pop	edi
	pop	esi
	pop	ebx
	add	esp, 232				; 000000e8H
	cmp	ebp, esp
	call	__RTC_CheckEsp
	mov	esp, ebp
	pop	ebp
	ret	0
_TEXT	ENDS
;	COMDAT text$x
text$x	SEGMENT
__unwindfunclet$?LaunchMonitor@@YAXPAX@Z$0:
	mov	eax, DWORD PTR $T3[ebp]
	push	eax
	call	??3@YAXPAX@Z				; operator delete
	pop	ecx
	ret	0
__ehhandler$?LaunchMonitor@@YAXPAX@Z:
	mov	edx, DWORD PTR [esp+8]
	lea	eax, DWORD PTR [edx+12]
	mov	ecx, DWORD PTR [edx-236]
	xor	ecx, eax
	call	@__security_check_cookie@4
	mov	eax, OFFSET __ehfuncinfo$?LaunchMonitor@@YAXPAX@Z
	jmp	___CxxFrameHandler3
text$x	ENDS
?LaunchMonitor@@YAXPAX@Z ENDP				; LaunchMonitor
; Function compile flags: /Odtp /RTCsu /ZI
; File z:\sampsrc\02xu1\saco\main.cpp
;	COMDAT ?d3d9RestoreDeviceObjects@@YAXXZ
_TEXT	SEGMENT
?d3d9RestoreDeviceObjects@@YAXXZ PROC			; d3d9RestoreDeviceObjects, COMDAT

; 558  : {

	push	ebp
	mov	ebp, esp
	sub	esp, 192				; 000000c0H
	push	ebx
	push	esi
	push	edi
	lea	edi, DWORD PTR [ebp-192]
	mov	ecx, 48					; 00000030H
	mov	eax, -858993460				; ccccccccH
	rep stosd

; 559  : 	if(pDialogResourceManager) pDialogResourceManager->OnResetDevice();

	cmp	DWORD PTR ?pDialogResourceManager@@3PAVCDXUTDialogResourceManager@@A, 0 ; pDialogResourceManager
	je	SHORT $LN10@d3d9Restor
	mov	ecx, DWORD PTR ?pDialogResourceManager@@3PAVCDXUTDialogResourceManager@@A ; pDialogResourceManager
	call	?OnResetDevice@CDXUTDialogResourceManager@@QAEJXZ ; CDXUTDialogResourceManager::OnResetDevice
$LN10@d3d9Restor:

; 560  : 
; 561  : 	//if (pPlayerTags)
; 562  : 	//	pPlayerTags->RestoreDeviceObjects();
; 563  : 
; 564  : 	if (pNewPlayerTags)

	cmp	DWORD PTR ?pNewPlayerTags@@3PAVCNewPlayerTags@@A, 0 ; pNewPlayerTags
	je	SHORT $LN9@d3d9Restor

; 565  : 		pNewPlayerTags->RestoreDeviceObjects();

	mov	ecx, DWORD PTR ?pNewPlayerTags@@3PAVCNewPlayerTags@@A ; pNewPlayerTags
	call	?RestoreDeviceObjects@CNewPlayerTags@@QAEXXZ ; CNewPlayerTags::RestoreDeviceObjects
$LN9@d3d9Restor:

; 566  : 
; 567  : 	if (pScoreBoard)

	cmp	DWORD PTR ?pScoreBoard@@3PAVCScoreBoard@@A, 0 ; pScoreBoard
	je	SHORT $LN8@d3d9Restor

; 568  : 		pScoreBoard->RestoreDeviceObjects();

	mov	ecx, DWORD PTR ?pScoreBoard@@3PAVCScoreBoard@@A ; pScoreBoard
	call	?RestoreDeviceObjects@CScoreBoard@@QAEXXZ ; CScoreBoard::RestoreDeviceObjects
$LN8@d3d9Restor:

; 569  : 
; 570  : 	if (pLabel)

	cmp	DWORD PTR ?pLabel@@3PAVCLabel@@A, 0	; pLabel
	je	SHORT $LN7@d3d9Restor

; 571  : 		pLabel->RestoreDeviceObjects();

	mov	ecx, DWORD PTR ?pLabel@@3PAVCLabel@@A	; pLabel
	call	?RestoreDeviceObjects@CLabel@@QAEXXZ	; CLabel::RestoreDeviceObjects
$LN7@d3d9Restor:

; 572  : 
; 573  : 	if (pDefaultFont)

	cmp	DWORD PTR ?pDefaultFont@@3PAVCFontRender@@A, 0 ; pDefaultFont
	je	SHORT $LN6@d3d9Restor

; 574  : 		pDefaultFont->RestoreDeviceObjects();

	mov	ecx, DWORD PTR ?pDefaultFont@@3PAVCFontRender@@A ; pDefaultFont
	call	?RestoreDeviceObjects@CFontRender@@QAEXXZ ; CFontRender::RestoreDeviceObjects
$LN6@d3d9Restor:

; 575  : 
; 576  : 	if(pSpawnScreen) 

	cmp	DWORD PTR ?pSpawnScreen@@3PAVCSpawnScreen@@A, 0 ; pSpawnScreen
	je	SHORT $LN5@d3d9Restor

; 577  : 		pSpawnScreen->RestoreDeviceObjects();

	mov	ecx, DWORD PTR ?pSpawnScreen@@3PAVCSpawnScreen@@A ; pSpawnScreen
	call	?RestoreDeviceObjects@CSpawnScreen@@QAEXXZ ; CSpawnScreen::RestoreDeviceObjects
$LN5@d3d9Restor:

; 578  : 
; 579  : 	if(pDeathWindow && pDeathWindow->m_pD3DFont) pDeathWindow->m_pD3DFont->OnResetDevice();

	cmp	DWORD PTR ?pDeathWindow@@3PAVCDeathWindow@@A, 0 ; pDeathWindow
	je	SHORT $LN4@d3d9Restor
	mov	eax, DWORD PTR ?pDeathWindow@@3PAVCDeathWindow@@A ; pDeathWindow
	cmp	DWORD PTR [eax+303], 0
	je	SHORT $LN4@d3d9Restor
	mov	eax, DWORD PTR ?pDeathWindow@@3PAVCDeathWindow@@A ; pDeathWindow
	mov	ecx, DWORD PTR [eax+303]
	mov	edx, DWORD PTR ?pDeathWindow@@3PAVCDeathWindow@@A ; pDeathWindow
	mov	eax, DWORD PTR [edx+303]
	mov	ecx, DWORD PTR [ecx]
	mov	esi, esp
	push	eax
	mov	edx, DWORD PTR [ecx+68]
	call	edx
	cmp	esi, esp
	call	__RTC_CheckEsp
$LN4@d3d9Restor:

; 580  : 	if(pDeathWindow && pDeathWindow->m_pWeaponFont) pDeathWindow->m_pWeaponFont->OnResetDevice();

	cmp	DWORD PTR ?pDeathWindow@@3PAVCDeathWindow@@A, 0 ; pDeathWindow
	je	SHORT $LN3@d3d9Restor
	mov	eax, DWORD PTR ?pDeathWindow@@3PAVCDeathWindow@@A ; pDeathWindow
	cmp	DWORD PTR [eax+307], 0
	je	SHORT $LN3@d3d9Restor
	mov	eax, DWORD PTR ?pDeathWindow@@3PAVCDeathWindow@@A ; pDeathWindow
	mov	ecx, DWORD PTR [eax+307]
	mov	edx, DWORD PTR ?pDeathWindow@@3PAVCDeathWindow@@A ; pDeathWindow
	mov	eax, DWORD PTR [edx+307]
	mov	ecx, DWORD PTR [ecx]
	mov	esi, esp
	push	eax
	mov	edx, DWORD PTR [ecx+68]
	call	edx
	cmp	esi, esp
	call	__RTC_CheckEsp
$LN3@d3d9Restor:

; 581  : 	if(pDeathWindow && pDeathWindow->m_pSprite) pDeathWindow->m_pSprite->OnResetDevice();

	cmp	DWORD PTR ?pDeathWindow@@3PAVCDeathWindow@@A, 0 ; pDeathWindow
	je	SHORT $LN2@d3d9Restor
	mov	eax, DWORD PTR ?pDeathWindow@@3PAVCDeathWindow@@A ; pDeathWindow
	cmp	DWORD PTR [eax+311], 0
	je	SHORT $LN2@d3d9Restor
	mov	eax, DWORD PTR ?pDeathWindow@@3PAVCDeathWindow@@A ; pDeathWindow
	mov	ecx, DWORD PTR [eax+311]
	mov	edx, DWORD PTR ?pDeathWindow@@3PAVCDeathWindow@@A ; pDeathWindow
	mov	eax, DWORD PTR [edx+311]
	mov	ecx, DWORD PTR [ecx]
	mov	esi, esp
	push	eax
	mov	edx, DWORD PTR [ecx+52]
	call	edx
	cmp	esi, esp
	call	__RTC_CheckEsp
$LN2@d3d9Restor:

; 582  : 
; 583  : 	if(pChatWindow && pChatWindow->m_pChatTextSprite) pChatWindow->m_pChatTextSprite->OnResetDevice();

	cmp	DWORD PTR ?pChatWindow@@3PAVCChatWindow@@A, 0 ; pChatWindow
	je	SHORT $LN1@d3d9Restor
	mov	eax, DWORD PTR ?pChatWindow@@3PAVCChatWindow@@A ; pChatWindow
	cmp	DWORD PTR [eax+8348], 0
	je	SHORT $LN1@d3d9Restor
	mov	eax, DWORD PTR ?pChatWindow@@3PAVCChatWindow@@A ; pChatWindow
	mov	ecx, DWORD PTR [eax+8348]
	mov	edx, DWORD PTR ?pChatWindow@@3PAVCChatWindow@@A ; pChatWindow
	mov	eax, DWORD PTR [edx+8348]
	mov	ecx, DWORD PTR [ecx]
	mov	esi, esp
	push	eax
	mov	edx, DWORD PTR [ecx+52]
	call	edx
	cmp	esi, esp
	call	__RTC_CheckEsp
$LN1@d3d9Restor:

; 584  : 
; 585  : 	pDialogResourceManager->OnCreateDevice(pD3DDevice);

	mov	eax, DWORD PTR ?pD3DDevice@@3PAUIDirect3DDevice9@@A ; pD3DDevice
	push	eax
	mov	ecx, DWORD PTR ?pDialogResourceManager@@3PAVCDXUTDialogResourceManager@@A ; pDialogResourceManager
	call	?OnCreateDevice@CDXUTDialogResourceManager@@QAEJPAUIDirect3DDevice9@@@Z ; CDXUTDialogResourceManager::OnCreateDevice

; 586  : 	pDialogResourceManager->OnResetDevice();

	mov	ecx, DWORD PTR ?pDialogResourceManager@@3PAVCDXUTDialogResourceManager@@A ; pDialogResourceManager
	call	?OnResetDevice@CDXUTDialogResourceManager@@QAEJXZ ; CDXUTDialogResourceManager::OnResetDevice

; 587  : 	//SetupGameUI();
; 588  : }

	pop	edi
	pop	esi
	pop	ebx
	add	esp, 192				; 000000c0H
	cmp	ebp, esp
	call	__RTC_CheckEsp
	mov	esp, ebp
	pop	ebp
	ret	0
?d3d9RestoreDeviceObjects@@YAXXZ ENDP			; d3d9RestoreDeviceObjects
_TEXT	ENDS
; Function compile flags: /Odtp /RTCsu /ZI
; File z:\sampsrc\02xu1\saco\main.cpp
;	COMDAT ?d3d9DestroyDeviceObjects@@YAXXZ
_TEXT	SEGMENT
?d3d9DestroyDeviceObjects@@YAXXZ PROC			; d3d9DestroyDeviceObjects, COMDAT

; 526  : {

	push	ebp
	mov	ebp, esp
	sub	esp, 192				; 000000c0H
	push	ebx
	push	esi
	push	edi
	lea	edi, DWORD PTR [ebp-192]
	mov	ecx, 48					; 00000030H
	mov	eax, -858993460				; ccccccccH
	rep stosd

; 527  : 	//if (pPlayerTags)
; 528  : 	//	pPlayerTags->DeleteDeviceObjects();
; 529  : 
; 530  : 	pDialogResourceManager->OnDestroyDevice();

	mov	ecx, DWORD PTR ?pDialogResourceManager@@3PAVCDXUTDialogResourceManager@@A ; pDialogResourceManager
	call	?OnDestroyDevice@CDXUTDialogResourceManager@@QAEXXZ ; CDXUTDialogResourceManager::OnDestroyDevice

; 531  : 
; 532  : 	if (pNewPlayerTags)

	cmp	DWORD PTR ?pNewPlayerTags@@3PAVCNewPlayerTags@@A, 0 ; pNewPlayerTags
	je	SHORT $LN9@d3d9Destro

; 533  : 		pNewPlayerTags->DeleteDeviceObjects();

	mov	ecx, DWORD PTR ?pNewPlayerTags@@3PAVCNewPlayerTags@@A ; pNewPlayerTags
	call	?DeleteDeviceObjects@CNewPlayerTags@@QAEXXZ ; CNewPlayerTags::DeleteDeviceObjects
$LN9@d3d9Destro:

; 534  : 
; 535  : 	if (pScoreBoard)

	cmp	DWORD PTR ?pScoreBoard@@3PAVCScoreBoard@@A, 0 ; pScoreBoard
	je	SHORT $LN8@d3d9Destro

; 536  : 		pScoreBoard->DeleteDeviceObjects();

	mov	ecx, DWORD PTR ?pScoreBoard@@3PAVCScoreBoard@@A ; pScoreBoard
	call	?DeleteDeviceObjects@CScoreBoard@@QAEXXZ ; CScoreBoard::DeleteDeviceObjects
$LN8@d3d9Destro:

; 537  : 
; 538  : 	if (pLabel)

	cmp	DWORD PTR ?pLabel@@3PAVCLabel@@A, 0	; pLabel
	je	SHORT $LN7@d3d9Destro

; 539  : 		pLabel->DeleteDeviceObjects();

	mov	ecx, DWORD PTR ?pLabel@@3PAVCLabel@@A	; pLabel
	call	?DeleteDeviceObjects@CLabel@@QAEXXZ	; CLabel::DeleteDeviceObjects
$LN7@d3d9Destro:

; 540  : 
; 541  : 	if (pDefaultFont)

	cmp	DWORD PTR ?pDefaultFont@@3PAVCFontRender@@A, 0 ; pDefaultFont
	je	SHORT $LN6@d3d9Destro

; 542  : 		pDefaultFont->DeleteDeviceObjects();

	mov	ecx, DWORD PTR ?pDefaultFont@@3PAVCFontRender@@A ; pDefaultFont
	call	?DeleteDeviceObjects@CFontRender@@QAEXXZ ; CFontRender::DeleteDeviceObjects
$LN6@d3d9Destro:

; 543  : 
; 544  : 	if(pSpawnScreen)

	cmp	DWORD PTR ?pSpawnScreen@@3PAVCSpawnScreen@@A, 0 ; pSpawnScreen
	je	SHORT $LN5@d3d9Destro

; 545  : 		pSpawnScreen->DeleteDeviceObjects();

	mov	ecx, DWORD PTR ?pSpawnScreen@@3PAVCSpawnScreen@@A ; pSpawnScreen
	call	?DeleteDeviceObjects@CSpawnScreen@@QAEXXZ ; CSpawnScreen::DeleteDeviceObjects
$LN5@d3d9Destro:

; 546  : 
; 547  : 	if(pDeathWindow && pDeathWindow->m_pD3DFont) pDeathWindow->m_pD3DFont->OnLostDevice();

	cmp	DWORD PTR ?pDeathWindow@@3PAVCDeathWindow@@A, 0 ; pDeathWindow
	je	SHORT $LN4@d3d9Destro
	mov	eax, DWORD PTR ?pDeathWindow@@3PAVCDeathWindow@@A ; pDeathWindow
	cmp	DWORD PTR [eax+303], 0
	je	SHORT $LN4@d3d9Destro
	mov	eax, DWORD PTR ?pDeathWindow@@3PAVCDeathWindow@@A ; pDeathWindow
	mov	ecx, DWORD PTR [eax+303]
	mov	edx, DWORD PTR ?pDeathWindow@@3PAVCDeathWindow@@A ; pDeathWindow
	mov	eax, DWORD PTR [edx+303]
	mov	ecx, DWORD PTR [ecx]
	mov	esi, esp
	push	eax
	mov	edx, DWORD PTR [ecx+64]
	call	edx
	cmp	esi, esp
	call	__RTC_CheckEsp
$LN4@d3d9Destro:

; 548  : 	if(pDeathWindow && pDeathWindow->m_pWeaponFont) pDeathWindow->m_pWeaponFont->OnLostDevice();

	cmp	DWORD PTR ?pDeathWindow@@3PAVCDeathWindow@@A, 0 ; pDeathWindow
	je	SHORT $LN3@d3d9Destro
	mov	eax, DWORD PTR ?pDeathWindow@@3PAVCDeathWindow@@A ; pDeathWindow
	cmp	DWORD PTR [eax+307], 0
	je	SHORT $LN3@d3d9Destro
	mov	eax, DWORD PTR ?pDeathWindow@@3PAVCDeathWindow@@A ; pDeathWindow
	mov	ecx, DWORD PTR [eax+307]
	mov	edx, DWORD PTR ?pDeathWindow@@3PAVCDeathWindow@@A ; pDeathWindow
	mov	eax, DWORD PTR [edx+307]
	mov	ecx, DWORD PTR [ecx]
	mov	esi, esp
	push	eax
	mov	edx, DWORD PTR [ecx+64]
	call	edx
	cmp	esi, esp
	call	__RTC_CheckEsp
$LN3@d3d9Destro:

; 549  : 	if(pDeathWindow && pDeathWindow->m_pSprite) pDeathWindow->m_pSprite->OnLostDevice();

	cmp	DWORD PTR ?pDeathWindow@@3PAVCDeathWindow@@A, 0 ; pDeathWindow
	je	SHORT $LN2@d3d9Destro
	mov	eax, DWORD PTR ?pDeathWindow@@3PAVCDeathWindow@@A ; pDeathWindow
	cmp	DWORD PTR [eax+311], 0
	je	SHORT $LN2@d3d9Destro
	mov	eax, DWORD PTR ?pDeathWindow@@3PAVCDeathWindow@@A ; pDeathWindow
	mov	ecx, DWORD PTR [eax+311]
	mov	edx, DWORD PTR ?pDeathWindow@@3PAVCDeathWindow@@A ; pDeathWindow
	mov	eax, DWORD PTR [edx+311]
	mov	ecx, DWORD PTR [ecx]
	mov	esi, esp
	push	eax
	mov	edx, DWORD PTR [ecx+48]
	call	edx
	cmp	esi, esp
	call	__RTC_CheckEsp
$LN2@d3d9Destro:

; 550  : 	
; 551  : 	if(pChatWindow && pChatWindow->m_pChatTextSprite) pChatWindow->m_pChatTextSprite->OnLostDevice();

	cmp	DWORD PTR ?pChatWindow@@3PAVCChatWindow@@A, 0 ; pChatWindow
	je	SHORT $LN1@d3d9Destro
	mov	eax, DWORD PTR ?pChatWindow@@3PAVCChatWindow@@A ; pChatWindow
	cmp	DWORD PTR [eax+8348], 0
	je	SHORT $LN1@d3d9Destro
	mov	eax, DWORD PTR ?pChatWindow@@3PAVCChatWindow@@A ; pChatWindow
	mov	ecx, DWORD PTR [eax+8348]
	mov	edx, DWORD PTR ?pChatWindow@@3PAVCChatWindow@@A ; pChatWindow
	mov	eax, DWORD PTR [edx+8348]
	mov	ecx, DWORD PTR [ecx]
	mov	esi, esp
	push	eax
	mov	edx, DWORD PTR [ecx+48]
	call	edx
	cmp	esi, esp
	call	__RTC_CheckEsp
$LN1@d3d9Destro:

; 552  : 
; 553  : 	pDialogResourceManager->OnLostDevice();

	mov	ecx, DWORD PTR ?pDialogResourceManager@@3PAVCDXUTDialogResourceManager@@A ; pDialogResourceManager
	call	?OnLostDevice@CDXUTDialogResourceManager@@QAEXXZ ; CDXUTDialogResourceManager::OnLostDevice

; 554  : 
; 555  : }

	pop	edi
	pop	esi
	pop	ebx
	add	esp, 192				; 000000c0H
	cmp	ebp, esp
	call	__RTC_CheckEsp
	mov	esp, ebp
	pop	ebp
	ret	0
?d3d9DestroyDeviceObjects@@YAXXZ ENDP			; d3d9DestroyDeviceObjects
_TEXT	ENDS
; Function compile flags: /Odtp /RTCsu /ZI
; File z:\sampsrc\02xu1\saco\main.cpp
;	COMDAT ?OnGUIEvent@@YGXIHPAVCDXUTControl@@PAX@Z
_TEXT	SEGMENT
tv64 = -196						; size = 4
_nEvent$ = 8						; size = 4
_nControlID$ = 12					; size = 4
_pControl$ = 16						; size = 4
_pUserContext$ = 20					; size = 4
?OnGUIEvent@@YGXIHPAVCDXUTControl@@PAX@Z PROC		; OnGUIEvent, COMDAT

; 440  : {

	push	ebp
	mov	ebp, esp
	sub	esp, 196				; 000000c4H
	push	ebx
	push	esi
	push	edi
	lea	edi, DWORD PTR [ebp-196]
	mov	ecx, 49					; 00000031H
	mov	eax, -858993460				; ccccccccH
	rep stosd

; 441  : 	switch( nControlID )

	mov	eax, DWORD PTR _nControlID$[ebp]
	mov	DWORD PTR tv64[ebp], eax
	cmp	DWORD PTR tv64[ebp], 1
	je	SHORT $LN3@OnGUIEvent
	jmp	SHORT $LN6@OnGUIEvent
$LN3@OnGUIEvent:

; 442  :     {
; 443  :         case IDC_CMDEDIT:
; 444  : 		{
; 445  : 			if(nEvent == EVENT_EDITBOX_STRING) {

	cmp	DWORD PTR _nEvent$[ebp], 1537		; 00000601H
	jne	SHORT $LN6@OnGUIEvent

; 446  : 				if(pCmdWindow) pCmdWindow->ProcessInput();

	cmp	DWORD PTR ?pCmdWindow@@3PAVCCmdWindow@@A, 0 ; pCmdWindow
	je	SHORT $LN6@OnGUIEvent
	mov	ecx, DWORD PTR ?pCmdWindow@@3PAVCCmdWindow@@A ; pCmdWindow
	call	?ProcessInput@CCmdWindow@@QAEXXZ	; CCmdWindow::ProcessInput
$LN6@OnGUIEvent:

; 447  : 			}
; 448  : 			break;
; 449  : 		}
; 450  : 	}
; 451  : 	return;
; 452  : }

	pop	edi
	pop	esi
	pop	ebx
	add	esp, 196				; 000000c4H
	cmp	ebp, esp
	call	__RTC_CheckEsp
	mov	esp, ebp
	pop	ebp
	ret	16					; 00000010H
?OnGUIEvent@@YGXIHPAVCDXUTControl@@PAX@Z ENDP		; OnGUIEvent
_TEXT	ENDS
; Function compile flags: /Odtp /RTCsu /ZI
; File z:\sampsrc\02xu1\saco\main.cpp
;	COMDAT ?MarkAsModdedGame@@YAXXZ
_TEXT	SEGMENT
?MarkAsModdedGame@@YAXXZ PROC				; MarkAsModdedGame, COMDAT

; 366  : {

	push	ebp
	mov	ebp, esp
	sub	esp, 192				; 000000c0H
	push	ebx
	push	esi
	push	edi
	lea	edi, DWORD PTR [ebp-192]
	mov	ecx, 48					; 00000030H
	mov	eax, -858993460				; ccccccccH
	rep stosd

; 367  : 	bGameModded = TRUE;

	mov	DWORD PTR ?bGameModded@@3HA, 1		; bGameModded

; 368  : }

	pop	edi
	pop	esi
	pop	ebx
	mov	esp, ebp
	pop	ebp
	ret	0
?MarkAsModdedGame@@YAXXZ ENDP				; MarkAsModdedGame
_TEXT	ENDS
; Function compile flags: /Odtp /RTCsu /ZI
; File z:\sampsrc\02xu1\saco\main.cpp
;	COMDAT ?TheGraphicsLoop@@YAXXZ
_TEXT	SEGMENT
tv76 = -220						; size = 4
$T1 = -212						; size = 4
$T2 = -200						; size = 4
?TheGraphicsLoop@@YAXXZ PROC				; TheGraphicsLoop, COMDAT

; 373  : {	

	push	ebp
	mov	ebp, esp
	sub	esp, 220				; 000000dcH
	push	ebx
	push	esi
	push	edi
	lea	edi, DWORD PTR [ebp-220]
	mov	ecx, 55					; 00000037H
	mov	eax, -858993460				; ccccccccH
	rep stosd

; 374  : 	_asm pushad // because we're called from a hook

	pushad

; 375  : 
; 376  : 	DoInitStuff();

	call	?DoInitStuff@@YAXXZ			; DoInitStuff

; 377  : 	
; 378  : 	SetupD3DFog(TRUE);

	push	1
	call	?SetupD3DFog@@YAXH@Z			; SetupD3DFog
	add	esp, 4

; 379  : 
; 380  : 	// Process the netgame if it's active.
; 381  : 	if(pNetGame) {

	cmp	DWORD PTR ?pNetGame@@3PAVCNetGame@@A, 0	; pNetGame
	je	SHORT $LN7@TheGraphic

; 382  : 		//Sleep(0); // This hands the context over to raknet
; 383  : 		pNetGame->Process();

	mov	ecx, DWORD PTR ?pNetGame@@3PAVCNetGame@@A ; pNetGame
	call	?Process@CNetGame@@QAEXXZ		; CNetGame::Process
$LN7@TheGraphic:

; 384  : 	}
; 385  : 
; 386  : 	if(bQuitGame) {

	cmp	DWORD PTR ?bQuitGame@@3HA, 0		; bQuitGame
	je	$LN6@TheGraphic

; 387  : 		if((GetTickCount() - dwStartQuitTick) > 1000) {

	mov	esi, esp
	call	DWORD PTR __imp__GetTickCount@0
	cmp	esi, esp
	call	__RTC_CheckEsp
	sub	eax, DWORD PTR ?dwStartQuitTick@@3KA	; dwStartQuitTick
	cmp	eax, 1000				; 000003e8H
	jbe	SHORT $LN5@TheGraphic

; 388  : 			if (pNetGame)

	cmp	DWORD PTR ?pNetGame@@3PAVCNetGame@@A, 0	; pNetGame
	je	SHORT $LN4@TheGraphic

; 389  : 			{
; 390  : 				delete pNetGame;

	mov	eax, DWORD PTR ?pNetGame@@3PAVCNetGame@@A ; pNetGame
	mov	DWORD PTR $T2[ebp], eax
	mov	ecx, DWORD PTR $T2[ebp]
	mov	DWORD PTR $T1[ebp], ecx
	cmp	DWORD PTR $T1[ebp], 0
	je	SHORT $LN10@TheGraphic
	push	1
	mov	ecx, DWORD PTR $T1[ebp]
	call	??_GCNetGame@@QAEPAXI@Z
	mov	DWORD PTR tv76[ebp], eax
	jmp	SHORT $LN11@TheGraphic
$LN10@TheGraphic:
	mov	DWORD PTR tv76[ebp], 0
$LN11@TheGraphic:

; 391  : 				pNetGame = NULL;

	mov	DWORD PTR ?pNetGame@@3PAVCNetGame@@A, 0	; pNetGame
$LN4@TheGraphic:

; 392  : 			}
; 393  : 			ExitProcess(0);

	mov	esi, esp
	push	0
	call	DWORD PTR __imp__ExitProcess@4
	cmp	esi, esp
	call	__RTC_CheckEsp
$LN5@TheGraphic:

; 394  : 		}
; 395  : 		_asm popad

	popad

; 396  : 		return;

	jmp	SHORT $LN9@TheGraphic
$LN6@TheGraphic:

; 397  : 	}
; 398  : 
; 399  : 	//pGame->UpdateFarClippingPlane();
; 400  : 	pGame->ProcessInputDisabling();

	mov	ecx, DWORD PTR ?pGame@@3PAVCGame@@A	; pGame
	call	?ProcessInputDisabling@CGame@@QAEXXZ	; CGame::ProcessInputDisabling

; 401  : 	if (bGameModded == TRUE)

	cmp	DWORD PTR ?bGameModded@@3HA, 1		; bGameModded
	jne	SHORT $LN3@TheGraphic

; 402  : 	{
; 403  : 		FORCE_EXIT(0x4);

	push	4
	call	?GameForcedExit@@YAXH@Z			; GameForcedExit
	add	esp, 4
$LN2@TheGraphic:
	mov	eax, 1
	test	eax, eax
	je	SHORT $LN3@TheGraphic
	jmp	SHORT $LN2@TheGraphic
$LN3@TheGraphic:

; 404  : 	}
; 405  : 
; 406  : 	// We have to call the real Render2DStuff
; 407  : 	// because we overwrote its call to get here.
; 408  : 	_asm popad

	popad

; 409  : 	_asm mov edx, ADDR_RENDER2DSTUFF

	mov	edx, 5497392				; 0053e230H

; 410  : 	_asm call edx

	call	edx
$LN9@TheGraphic:

; 411  : }

	pop	edi
	pop	esi
	pop	ebx
	add	esp, 220				; 000000dcH
	cmp	ebp, esp
	call	__RTC_CheckEsp
	mov	esp, ebp
	pop	ebp
	ret	0
?TheGraphicsLoop@@YAXXZ ENDP				; TheGraphicsLoop
_TEXT	ENDS
; Function compile flags: /Odtp /RTCsu /ZI
; File z:\sampsrc\02xu1\saco\main.cpp
;	COMDAT ?TheGameLoop@@YAXXZ
_TEXT	SEGMENT
?TheGameLoop@@YAXXZ PROC				; TheGameLoop, COMDAT

; 416  : {	

	push	ebp
	mov	ebp, esp
	sub	esp, 192				; 000000c0H
	push	ebx
	push	esi
	push	edi
	lea	edi, DWORD PTR [ebp-192]
	mov	ecx, 48					; 00000030H
	mov	eax, -858993460				; ccccccccH
	rep stosd

; 417  : 	_asm pushad

	pushad

; 418  : 
; 419  : 	//SetCursor(LoadCursor(NULL,IDC_ARROW));
; 420  : 	//ShowCursor(TRUE);
; 421  : 	//OutputDebugString("---- New Frame ----");
; 422  : 
; 423  : 	_asm popad

	popad

; 424  : }

	pop	edi
	pop	esi
	pop	ebx
	add	esp, 192				; 000000c0H
	cmp	ebp, esp
	call	__RTC_CheckEsp
	mov	esp, ebp
	pop	ebp
	ret	0
?TheGameLoop@@YAXXZ ENDP				; TheGameLoop
_TEXT	ENDS
; Function compile flags: /Odtp /RTCsu /ZI
; File z:\sampsrc\02xu1\saco\main.cpp
;	COMDAT ?QuitGame@@YAXXZ
_TEXT	SEGMENT
tv71 = -196						; size = 4
?QuitGame@@YAXXZ PROC					; QuitGame, COMDAT

; 429  : {

	push	ebp
	mov	ebp, esp
	sub	esp, 196				; 000000c4H
	push	ebx
	push	esi
	push	edi
	lea	edi, DWORD PTR [ebp-196]
	mov	ecx, 49					; 00000031H
	mov	eax, -858993460				; ccccccccH
	rep stosd

; 430  : 	if(pNetGame && pNetGame->GetGameState() == GAMESTATE_CONNECTED) {

	cmp	DWORD PTR ?pNetGame@@3PAVCNetGame@@A, 0	; pNetGame
	je	SHORT $LN1@QuitGame
	mov	ecx, DWORD PTR ?pNetGame@@3PAVCNetGame@@A ; pNetGame
	call	?GetGameState@CNetGame@@QAEHXZ		; CNetGame::GetGameState
	cmp	eax, 2
	jne	SHORT $LN1@QuitGame

; 431  : 		pNetGame->GetRakClient()->Disconnect(500);

	mov	ecx, DWORD PTR ?pNetGame@@3PAVCNetGame@@A ; pNetGame
	call	?GetRakClient@CNetGame@@QAEPAVRakClientInterface@@XZ ; CNetGame::GetRakClient
	mov	DWORD PTR tv71[ebp], eax
	mov	esi, esp
	push	0
	push	500					; 000001f4H
	mov	eax, DWORD PTR tv71[ebp]
	mov	edx, DWORD PTR [eax]
	mov	ecx, DWORD PTR tv71[ebp]
	mov	eax, DWORD PTR [edx+8]
	call	eax
	cmp	esi, esp
	call	__RTC_CheckEsp
$LN1@QuitGame:

; 432  : 	}	
; 433  : 	bQuitGame = TRUE;

	mov	DWORD PTR ?bQuitGame@@3HA, 1		; bQuitGame

; 434  : 	dwStartQuitTick = GetTickCount();

	mov	esi, esp
	call	DWORD PTR __imp__GetTickCount@0
	cmp	esi, esp
	call	__RTC_CheckEsp
	mov	DWORD PTR ?dwStartQuitTick@@3KA, eax	; dwStartQuitTick

; 435  : }

	pop	edi
	pop	esi
	pop	ebx
	add	esp, 196				; 000000c4H
	cmp	ebp, esp
	call	__RTC_CheckEsp
	mov	esp, ebp
	pop	ebp
	ret	0
?QuitGame@@YAXXZ ENDP					; QuitGame
_TEXT	ENDS
; Function compile flags: /Odtp /RTCsu /ZI
; File z:\sampsrc\02xu1\saco\main.cpp
;	COMDAT ?InitSettings@@YAXXZ
_TEXT	SEGMENT
tv78 = -208						; size = 4
_szCmdLine$ = -8					; size = 4
?InitSettings@@YAXXZ PROC				; InitSettings, COMDAT

; 457  : {

	push	ebp
	mov	ebp, esp
	sub	esp, 208				; 000000d0H
	push	ebx
	push	esi
	push	edi
	lea	edi, DWORD PTR [ebp-208]
	mov	ecx, 52					; 00000034H
	mov	eax, -858993460				; ccccccccH
	rep stosd

; 458  : 	PCHAR szCmdLine = GetCommandLineA();

	mov	esi, esp
	call	DWORD PTR __imp__GetCommandLineA@0
	cmp	esi, esp
	call	__RTC_CheckEsp
	mov	DWORD PTR _szCmdLine$[ebp], eax

; 459  : 
; 460  : 	OutputDebugString(szCmdLine);

	mov	esi, esp
	mov	eax, DWORD PTR _szCmdLine$[ebp]
	push	eax
	call	DWORD PTR __imp__OutputDebugStringA@4
	cmp	esi, esp
	call	__RTC_CheckEsp

; 461  : 	OutputDebugString("\n");

	mov	esi, esp
	push	OFFSET ??_C@_01EEMJAFIK@?6?$AA@
	call	DWORD PTR __imp__OutputDebugStringA@4
	cmp	esi, esp
	call	__RTC_CheckEsp

; 462  : 
; 463  : 	memset(&tSettings,0,sizeof(GAME_SETTINGS));

	push	1040					; 00000410H
	push	0
	push	OFFSET ?tSettings@@3U_GAME_SETTINGS@@A	; tSettings
	call	_memset
	add	esp, 12					; 0000000cH
$LN12@InitSettin:

; 464  : 
; 465  : 	while(*szCmdLine) {

	mov	eax, DWORD PTR _szCmdLine$[ebp]
	movsx	ecx, BYTE PTR [eax]
	test	ecx, ecx
	je	$LN13@InitSettin

; 466  : 
; 467  : 		if(*szCmdLine == '-' || *szCmdLine == '/') {

	mov	eax, DWORD PTR _szCmdLine$[ebp]
	movsx	ecx, BYTE PTR [eax]
	cmp	ecx, 45					; 0000002dH
	je	SHORT $LN9@InitSettin
	mov	eax, DWORD PTR _szCmdLine$[ebp]
	movsx	ecx, BYTE PTR [eax]
	cmp	ecx, 47					; 0000002fH
	jne	$LN10@InitSettin
$LN9@InitSettin:

; 468  : 			szCmdLine++;

	mov	eax, DWORD PTR _szCmdLine$[ebp]
	add	eax, 1
	mov	DWORD PTR _szCmdLine$[ebp], eax

; 469  : 			switch(*szCmdLine) {

	mov	eax, DWORD PTR _szCmdLine$[ebp]
	movsx	ecx, BYTE PTR [eax]
	mov	DWORD PTR tv78[ebp], ecx
	mov	edx, DWORD PTR tv78[ebp]
	sub	edx, 99					; 00000063H
	mov	DWORD PTR tv78[ebp], edx
	cmp	DWORD PTR tv78[ebp], 23			; 00000017H
	ja	$LN10@InitSettin
	mov	eax, DWORD PTR tv78[ebp]
	movzx	ecx, BYTE PTR $LN15@InitSettin[eax]
	jmp	DWORD PTR $LN16@InitSettin[ecx*4]
$LN6@InitSettin:

; 470  : 				case 'd':
; 471  : 					tSettings.bDebug = TRUE;

	mov	DWORD PTR ?tSettings@@3U_GAME_SETTINGS@@A, 1

; 472  : 					tSettings.bPlayOnline = FALSE;

	mov	DWORD PTR ?tSettings@@3U_GAME_SETTINGS@@A+4, 0

; 473  : 					break;

	jmp	$LN10@InitSettin
$LN5@InitSettin:

; 474  : 				case 'c':
; 475  : 					tSettings.bPlayOnline = TRUE;

	mov	DWORD PTR ?tSettings@@3U_GAME_SETTINGS@@A+4, 1

; 476  : 					tSettings.bDebug = FALSE;

	mov	DWORD PTR ?tSettings@@3U_GAME_SETTINGS@@A, 0

; 477  : 					break;

	jmp	SHORT $LN10@InitSettin
$LN4@InitSettin:

; 478  : 				case 'z':
; 479  : 					szCmdLine++;

	mov	eax, DWORD PTR _szCmdLine$[ebp]
	add	eax, 1
	mov	DWORD PTR _szCmdLine$[ebp], eax

; 480  : 					SetStringFromCommandLine(szCmdLine,tSettings.szConnectPass);

	push	OFFSET ?tSettings@@3U_GAME_SETTINGS@@A+12
	mov	eax, DWORD PTR _szCmdLine$[ebp]
	push	eax
	call	?SetStringFromCommandLine@@YAXPAD0@Z	; SetStringFromCommandLine
	add	esp, 8

; 481  : 					break;

	jmp	SHORT $LN10@InitSettin
$LN3@InitSettin:

; 482  : 				/*
; 483  : 				// We'll do this using ALT+ENTER
; 484  : 				case 'w':
; 485  : 					tSettings.bWindowedMode = TRUE;
; 486  : 					break;
; 487  : 				*/
; 488  : 				case 'h':
; 489  : 					szCmdLine++;

	mov	eax, DWORD PTR _szCmdLine$[ebp]
	add	eax, 1
	mov	DWORD PTR _szCmdLine$[ebp], eax

; 490  : 					SetStringFromCommandLine(szCmdLine,tSettings.szConnectHost);

	push	OFFSET ?tSettings@@3U_GAME_SETTINGS@@A+269
	mov	eax, DWORD PTR _szCmdLine$[ebp]
	push	eax
	call	?SetStringFromCommandLine@@YAXPAD0@Z	; SetStringFromCommandLine
	add	esp, 8

; 491  : 					break;

	jmp	SHORT $LN10@InitSettin
$LN2@InitSettin:

; 492  : 				case 'p':
; 493  : 					szCmdLine++;

	mov	eax, DWORD PTR _szCmdLine$[ebp]
	add	eax, 1
	mov	DWORD PTR _szCmdLine$[ebp], eax

; 494  : 					SetStringFromCommandLine(szCmdLine,tSettings.szConnectPort);

	push	OFFSET ?tSettings@@3U_GAME_SETTINGS@@A+526
	mov	eax, DWORD PTR _szCmdLine$[ebp]
	push	eax
	call	?SetStringFromCommandLine@@YAXPAD0@Z	; SetStringFromCommandLine
	add	esp, 8

; 495  : 					break;

	jmp	SHORT $LN10@InitSettin
$LN1@InitSettin:

; 496  : 				case 'n':
; 497  : 					szCmdLine++;

	mov	eax, DWORD PTR _szCmdLine$[ebp]
	add	eax, 1
	mov	DWORD PTR _szCmdLine$[ebp], eax

; 498  : 					SetStringFromCommandLine(szCmdLine,tSettings.szNickName);

	push	OFFSET ?tSettings@@3U_GAME_SETTINGS@@A+783
	mov	eax, DWORD PTR _szCmdLine$[ebp]
	push	eax
	call	?SetStringFromCommandLine@@YAXPAD0@Z	; SetStringFromCommandLine
	add	esp, 8
$LN10@InitSettin:

; 499  : 					break;
; 500  : 			}
; 501  : 		}
; 502  : 
; 503  : 		szCmdLine++;

	mov	eax, DWORD PTR _szCmdLine$[ebp]
	add	eax, 1
	mov	DWORD PTR _szCmdLine$[ebp], eax

; 504  : 	}

	jmp	$LN12@InitSettin
$LN13@InitSettin:

; 505  : }

	pop	edi
	pop	esi
	pop	ebx
	add	esp, 208				; 000000d0H
	cmp	ebp, esp
	call	__RTC_CheckEsp
	mov	esp, ebp
	pop	ebp
	ret	0
	npad	1
$LN16@InitSettin:
	DD	$LN5@InitSettin
	DD	$LN6@InitSettin
	DD	$LN3@InitSettin
	DD	$LN1@InitSettin
	DD	$LN2@InitSettin
	DD	$LN4@InitSettin
	DD	$LN10@InitSettin
$LN15@InitSettin:
	DB	0
	DB	1
	DB	6
	DB	6
	DB	6
	DB	2
	DB	6
	DB	6
	DB	6
	DB	6
	DB	6
	DB	3
	DB	6
	DB	4
	DB	6
	DB	6
	DB	6
	DB	6
	DB	6
	DB	6
	DB	6
	DB	6
	DB	6
	DB	5
?InitSettings@@YAXXZ ENDP				; InitSettings
_TEXT	ENDS
; Function compile flags: /Odtp /RTCsu /ZI
; File z:\sampsrc\02xu1\saco\main.cpp
;	COMDAT ?SetStringFromCommandLine@@YAXPAD0@Z
_TEXT	SEGMENT
_szCmdLine$ = 8						; size = 4
_szString$ = 12						; size = 4
?SetStringFromCommandLine@@YAXPAD0@Z PROC		; SetStringFromCommandLine, COMDAT

; 510  : {

	push	ebp
	mov	ebp, esp
	sub	esp, 192				; 000000c0H
	push	ebx
	push	esi
	push	edi
	lea	edi, DWORD PTR [ebp-192]
	mov	ecx, 48					; 00000030H
	mov	eax, -858993460				; ccccccccH
	rep stosd
$LN4@SetStringF:

; 511  : 	while(*szCmdLine == ' ') szCmdLine++;

	mov	eax, DWORD PTR _szCmdLine$[ebp]
	movsx	ecx, BYTE PTR [eax]
	cmp	ecx, 32					; 00000020H
	jne	SHORT $LN2@SetStringF
	mov	eax, DWORD PTR _szCmdLine$[ebp]
	add	eax, 1
	mov	DWORD PTR _szCmdLine$[ebp], eax
	jmp	SHORT $LN4@SetStringF
$LN2@SetStringF:

; 512  : 	while(*szCmdLine &&
; 513  : 		  *szCmdLine != ' ' &&
; 514  : 		  *szCmdLine != '-' &&
; 515  : 		  *szCmdLine != '/') 

	mov	eax, DWORD PTR _szCmdLine$[ebp]
	movsx	ecx, BYTE PTR [eax]
	test	ecx, ecx
	je	SHORT $LN1@SetStringF
	mov	eax, DWORD PTR _szCmdLine$[ebp]
	movsx	ecx, BYTE PTR [eax]
	cmp	ecx, 32					; 00000020H
	je	SHORT $LN1@SetStringF
	mov	eax, DWORD PTR _szCmdLine$[ebp]
	movsx	ecx, BYTE PTR [eax]
	cmp	ecx, 45					; 0000002dH
	je	SHORT $LN1@SetStringF
	mov	eax, DWORD PTR _szCmdLine$[ebp]
	movsx	ecx, BYTE PTR [eax]
	cmp	ecx, 47					; 0000002fH
	je	SHORT $LN1@SetStringF

; 516  : 	{
; 517  : 		*szString = *szCmdLine;

	mov	eax, DWORD PTR _szString$[ebp]
	mov	ecx, DWORD PTR _szCmdLine$[ebp]
	mov	dl, BYTE PTR [ecx]
	mov	BYTE PTR [eax], dl

; 518  : 		szString++; szCmdLine++;

	mov	eax, DWORD PTR _szString$[ebp]
	add	eax, 1
	mov	DWORD PTR _szString$[ebp], eax
	mov	eax, DWORD PTR _szCmdLine$[ebp]
	add	eax, 1
	mov	DWORD PTR _szCmdLine$[ebp], eax

; 519  : 	}

	jmp	SHORT $LN2@SetStringF
$LN1@SetStringF:

; 520  : 	*szString = '\0';

	mov	eax, DWORD PTR _szString$[ebp]
	mov	BYTE PTR [eax], 0

; 521  : }

	pop	edi
	pop	esi
	pop	ebx
	mov	esp, ebp
	pop	ebp
	ret	0
?SetStringFromCommandLine@@YAXPAD0@Z ENDP		; SetStringFromCommandLine
_TEXT	ENDS
; Function compile flags: /Odtp /RTCsu /ZI
;	COMDAT ??0IDirect3DDevice9Hook@@QAE@XZ
_TEXT	SEGMENT
_this$ = -8						; size = 4
??0IDirect3DDevice9Hook@@QAE@XZ PROC			; IDirect3DDevice9Hook::IDirect3DDevice9Hook, COMDAT
; _this$ = ecx
	push	ebp
	mov	ebp, esp
	sub	esp, 204				; 000000ccH
	push	ebx
	push	esi
	push	edi
	push	ecx
	lea	edi, DWORD PTR [ebp-204]
	mov	ecx, 51					; 00000033H
	mov	eax, -858993460				; ccccccccH
	rep stosd
	pop	ecx
	mov	DWORD PTR _this$[ebp], ecx
	mov	ecx, DWORD PTR _this$[ebp]
	call	??0IDirect3DDevice9@@QAE@XZ
	mov	eax, DWORD PTR _this$[ebp]
	mov	DWORD PTR [eax], OFFSET ??_7IDirect3DDevice9Hook@@6B@
	mov	eax, DWORD PTR _this$[ebp]
	pop	edi
	pop	esi
	pop	ebx
	add	esp, 204				; 000000ccH
	cmp	ebp, esp
	call	__RTC_CheckEsp
	mov	esp, ebp
	pop	ebp
	ret	0
??0IDirect3DDevice9Hook@@QAE@XZ ENDP			; IDirect3DDevice9Hook::IDirect3DDevice9Hook
_TEXT	ENDS
; Function compile flags: /Odtp /RTCsu /ZI
;	COMDAT ??_GCNetGame@@QAEPAXI@Z
_TEXT	SEGMENT
_this$ = -8						; size = 4
___flags$ = 8						; size = 4
??_GCNetGame@@QAEPAXI@Z PROC				; CNetGame::`scalar deleting destructor', COMDAT
; _this$ = ecx
	push	ebp
	mov	ebp, esp
	sub	esp, 204				; 000000ccH
	push	ebx
	push	esi
	push	edi
	push	ecx
	lea	edi, DWORD PTR [ebp-204]
	mov	ecx, 51					; 00000033H
	mov	eax, -858993460				; ccccccccH
	rep stosd
	pop	ecx
	mov	DWORD PTR _this$[ebp], ecx
	mov	ecx, DWORD PTR _this$[ebp]
	call	??1CNetGame@@QAE@XZ			; CNetGame::~CNetGame
	mov	eax, DWORD PTR ___flags$[ebp]
	and	eax, 1
	je	SHORT $LN1@scalar
	mov	eax, DWORD PTR _this$[ebp]
	push	eax
	call	??3@YAXPAX@Z				; operator delete
	add	esp, 4
$LN1@scalar:
	mov	eax, DWORD PTR _this$[ebp]
	pop	edi
	pop	esi
	pop	ebx
	add	esp, 204				; 000000ccH
	cmp	ebp, esp
	call	__RTC_CheckEsp
	mov	esp, ebp
	pop	ebp
	ret	4
??_GCNetGame@@QAEPAXI@Z ENDP				; CNetGame::`scalar deleting destructor'
_TEXT	ENDS
; Function compile flags: /Odtp /RTCsu /ZI
; File z:\sampsrc\02xu1\saco\net\netgame.h
;	COMDAT ?GetGameState@CNetGame@@QAEHXZ
_TEXT	SEGMENT
_this$ = -8						; size = 4
?GetGameState@CNetGame@@QAEHXZ PROC			; CNetGame::GetGameState, COMDAT
; _this$ = ecx

; 105  : 	int GetGameState() { return m_iGameState; };

	push	ebp
	mov	ebp, esp
	sub	esp, 204				; 000000ccH
	push	ebx
	push	esi
	push	edi
	push	ecx
	lea	edi, DWORD PTR [ebp-204]
	mov	ecx, 51					; 00000033H
	mov	eax, -858993460				; ccccccccH
	rep stosd
	pop	ecx
	mov	DWORD PTR _this$[ebp], ecx
	mov	eax, DWORD PTR _this$[ebp]
	mov	eax, DWORD PTR [eax+90]
	pop	edi
	pop	esi
	pop	ebx
	mov	esp, ebp
	pop	ebp
	ret	0
?GetGameState@CNetGame@@QAEHXZ ENDP			; CNetGame::GetGameState
_TEXT	ENDS
; Function compile flags: /Odtp /RTCsu /ZI
; File z:\sampsrc\02xu1\saco\net\netgame.h
;	COMDAT ?GetRakClient@CNetGame@@QAEPAVRakClientInterface@@XZ
_TEXT	SEGMENT
_this$ = -8						; size = 4
?GetRakClient@CNetGame@@QAEPAVRakClientInterface@@XZ PROC ; CNetGame::GetRakClient, COMDAT
; _this$ = ecx

; 103  : 	RakClientInterface * GetRakClient() { return m_pRakClient; };

	push	ebp
	mov	ebp, esp
	sub	esp, 204				; 000000ccH
	push	ebx
	push	esi
	push	edi
	push	ecx
	lea	edi, DWORD PTR [ebp-204]
	mov	ecx, 51					; 00000033H
	mov	eax, -858993460				; ccccccccH
	rep stosd
	pop	ecx
	mov	DWORD PTR _this$[ebp], ecx
	mov	eax, DWORD PTR _this$[ebp]
	mov	eax, DWORD PTR [eax+28]
	pop	edi
	pop	esi
	pop	ebx
	mov	esp, ebp
	pop	ebp
	ret	0
?GetRakClient@CNetGame@@QAEPAVRakClientInterface@@XZ ENDP ; CNetGame::GetRakClient
_TEXT	ENDS
; Function compile flags: /Odtp /RTCsu /ZI
; File z:\sampsrc\02xu1\saco\game\game.h
;	COMDAT ?GetScreenHeight@CGame@@QAEHXZ
_TEXT	SEGMENT
_this$ = -8						; size = 4
?GetScreenHeight@CGame@@QAEHXZ PROC			; CGame::GetScreenHeight, COMDAT
; _this$ = ecx

; 153  : 	int GetScreenHeight() { return *(int*)0xC17048; };

	push	ebp
	mov	ebp, esp
	sub	esp, 204				; 000000ccH
	push	ebx
	push	esi
	push	edi
	push	ecx
	lea	edi, DWORD PTR [ebp-204]
	mov	ecx, 51					; 00000033H
	mov	eax, -858993460				; ccccccccH
	rep stosd
	pop	ecx
	mov	DWORD PTR _this$[ebp], ecx
	mov	eax, DWORD PTR ds:12677192
	pop	edi
	pop	esi
	pop	ebx
	mov	esp, ebp
	pop	ebp
	ret	0
?GetScreenHeight@CGame@@QAEHXZ ENDP			; CGame::GetScreenHeight
_TEXT	ENDS
; Function compile flags: /Odtp /RTCsu /ZI
; File z:\sampsrc\02xu1\saco\game\game.h
;	COMDAT ?GetScreenWidth@CGame@@QAEHXZ
_TEXT	SEGMENT
_this$ = -8						; size = 4
?GetScreenWidth@CGame@@QAEHXZ PROC			; CGame::GetScreenWidth, COMDAT
; _this$ = ecx

; 152  : 	int GetScreenWidth() { return *(int*)0xC17044; };

	push	ebp
	mov	ebp, esp
	sub	esp, 204				; 000000ccH
	push	ebx
	push	esi
	push	edi
	push	ecx
	lea	edi, DWORD PTR [ebp-204]
	mov	ecx, 51					; 00000033H
	mov	eax, -858993460				; ccccccccH
	rep stosd
	pop	ecx
	mov	DWORD PTR _this$[ebp], ecx
	mov	eax, DWORD PTR ds:12677188
	pop	edi
	pop	esi
	pop	ebx
	mov	esp, ebp
	pop	ebp
	ret	0
?GetScreenWidth@CGame@@QAEHXZ ENDP			; CGame::GetScreenWidth
_TEXT	ENDS
; Function compile flags: /Odtp /RTCsu /ZI
; File z:\sampsrc\02xu1\saco\game\game.h
;	COMDAT ?GetCamera@CGame@@QAEPAVCCamera@@XZ
_TEXT	SEGMENT
_this$ = -8						; size = 4
?GetCamera@CGame@@QAEPAVCCamera@@XZ PROC		; CGame::GetCamera, COMDAT
; _this$ = ecx

; 135  : 	CCamera     *GetCamera() {	return m_pGameCamera; };

	push	ebp
	mov	ebp, esp
	sub	esp, 204				; 000000ccH
	push	ebx
	push	esi
	push	edi
	push	ecx
	lea	edi, DWORD PTR [ebp-204]
	mov	ecx, 51					; 00000033H
	mov	eax, -858993460				; ccccccccH
	rep stosd
	pop	ecx
	mov	DWORD PTR _this$[ebp], ecx
	mov	eax, DWORD PTR _this$[ebp]
	mov	eax, DWORD PTR [eax]
	pop	edi
	pop	esi
	pop	ebx
	mov	esp, ebp
	pop	ebp
	ret	0
?GetCamera@CGame@@QAEPAVCCamera@@XZ ENDP		; CGame::GetCamera
_TEXT	ENDS
; Function compile flags: /Odtp /RTCsu /ZI
; File z:\sampsrc\02xu1\saco\game\game.h
;	COMDAT ?GetD3D@CGame@@QAEKXZ
_TEXT	SEGMENT
_this$ = -8						; size = 4
?GetD3D@CGame@@QAEKXZ PROC				; CGame::GetD3D, COMDAT
; _this$ = ecx

; 126  : 	DWORD	GetD3D() { return *(DWORD *)ADDR_ID3D9DEVICE; };

	push	ebp
	mov	ebp, esp
	sub	esp, 204				; 000000ccH
	push	ebx
	push	esi
	push	edi
	push	ecx
	lea	edi, DWORD PTR [ebp-204]
	mov	ecx, 51					; 00000033H
	mov	eax, -858993460				; ccccccccH
	rep stosd
	pop	ecx
	mov	DWORD PTR _this$[ebp], ecx
	mov	eax, DWORD PTR ds:13204520
	pop	edi
	pop	esi
	pop	ebx
	mov	esp, ebp
	pop	ebp
	ret	0
?GetD3D@CGame@@QAEKXZ ENDP				; CGame::GetD3D
_TEXT	ENDS
; Function compile flags: /Odtp /RTCsu /ZI
;	COMDAT ??_GCDXUTDialog@@QAEPAXI@Z
_TEXT	SEGMENT
_this$ = -8						; size = 4
___flags$ = 8						; size = 4
??_GCDXUTDialog@@QAEPAXI@Z PROC				; CDXUTDialog::`scalar deleting destructor', COMDAT
; _this$ = ecx
	push	ebp
	mov	ebp, esp
	sub	esp, 204				; 000000ccH
	push	ebx
	push	esi
	push	edi
	push	ecx
	lea	edi, DWORD PTR [ebp-204]
	mov	ecx, 51					; 00000033H
	mov	eax, -858993460				; ccccccccH
	rep stosd
	pop	ecx
	mov	DWORD PTR _this$[ebp], ecx
	mov	ecx, DWORD PTR _this$[ebp]
	call	??1CDXUTDialog@@QAE@XZ			; CDXUTDialog::~CDXUTDialog
	mov	eax, DWORD PTR ___flags$[ebp]
	and	eax, 1
	je	SHORT $LN1@scalar
	mov	eax, DWORD PTR _this$[ebp]
	push	eax
	call	??3@YAXPAX@Z				; operator delete
	add	esp, 4
$LN1@scalar:
	mov	eax, DWORD PTR _this$[ebp]
	pop	edi
	pop	esi
	pop	ebx
	add	esp, 204				; 000000ccH
	cmp	ebp, esp
	call	__RTC_CheckEsp
	mov	esp, ebp
	pop	ebp
	ret	4
??_GCDXUTDialog@@QAEPAXI@Z ENDP				; CDXUTDialog::`scalar deleting destructor'
_TEXT	ENDS
; Function compile flags: /Odtp /RTCsu /ZI
; File z:\sampsrc\02xu1\saco\d3d9\common\dxutgui.h
;	COMDAT ?EnableMouseInput@CDXUTDialog@@QAEX_N@Z
_TEXT	SEGMENT
_this$ = -8						; size = 4
_bEnable$ = 8						; size = 1
?EnableMouseInput@CDXUTDialog@@QAEX_N@Z PROC		; CDXUTDialog::EnableMouseInput, COMDAT
; _this$ = ecx

; 213  :     void EnableMouseInput( bool bEnable ) { m_bMouseInput = bEnable; }

	push	ebp
	mov	ebp, esp
	sub	esp, 204				; 000000ccH
	push	ebx
	push	esi
	push	edi
	push	ecx
	lea	edi, DWORD PTR [ebp-204]
	mov	ecx, 51					; 00000033H
	mov	eax, -858993460				; ccccccccH
	rep stosd
	pop	ecx
	mov	DWORD PTR _this$[ebp], ecx
	mov	eax, DWORD PTR _this$[ebp]
	mov	cl, BYTE PTR _bEnable$[ebp]
	mov	BYTE PTR [eax+2], cl
	pop	edi
	pop	esi
	pop	ebx
	mov	esp, ebp
	pop	ebp
	ret	4
?EnableMouseInput@CDXUTDialog@@QAEX_N@Z ENDP		; CDXUTDialog::EnableMouseInput
_TEXT	ENDS
; Function compile flags: /Odtp /RTCsu /ZI
; File z:\sampsrc\02xu1\saco\d3d9\common\dxutgui.h
;	COMDAT ?EnableKeyboardInput@CDXUTDialog@@QAEX_N@Z
_TEXT	SEGMENT
_this$ = -8						; size = 4
_bEnable$ = 8						; size = 1
?EnableKeyboardInput@CDXUTDialog@@QAEX_N@Z PROC		; CDXUTDialog::EnableKeyboardInput, COMDAT
; _this$ = ecx

; 212  :     void EnableKeyboardInput( bool bEnable ) { m_bKeyboardInput = bEnable; }

	push	ebp
	mov	ebp, esp
	sub	esp, 204				; 000000ccH
	push	ebx
	push	esi
	push	edi
	push	ecx
	lea	edi, DWORD PTR [ebp-204]
	mov	ecx, 51					; 00000033H
	mov	eax, -858993460				; ccccccccH
	rep stosd
	pop	ecx
	mov	DWORD PTR _this$[ebp], ecx
	mov	eax, DWORD PTR _this$[ebp]
	mov	cl, BYTE PTR _bEnable$[ebp]
	mov	BYTE PTR [eax+1], cl
	pop	edi
	pop	esi
	pop	ebx
	mov	esp, ebp
	pop	ebp
	ret	4
?EnableKeyboardInput@CDXUTDialog@@QAEX_N@Z ENDP		; CDXUTDialog::EnableKeyboardInput
_TEXT	ENDS
; Function compile flags: /Odtp /RTCsu /ZI
; File z:\sampsrc\02xu1\saco\d3d9\common\dxutgui.h
;	COMDAT ?SetSize@CDXUTDialog@@QAEXHH@Z
_TEXT	SEGMENT
_this$ = -8						; size = 4
_width$ = 8						; size = 4
_height$ = 12						; size = 4
?SetSize@CDXUTDialog@@QAEXHH@Z PROC			; CDXUTDialog::SetSize, COMDAT
; _this$ = ecx

; 195  :     void SetSize( int width, int height ) { m_width = width; m_height = height;  }

	push	ebp
	mov	ebp, esp
	sub	esp, 204				; 000000ccH
	push	ebx
	push	esi
	push	edi
	push	ecx
	lea	edi, DWORD PTR [ebp-204]
	mov	ecx, 51					; 00000033H
	mov	eax, -858993460				; ccccccccH
	rep stosd
	pop	ecx
	mov	DWORD PTR _this$[ebp], ecx
	mov	eax, DWORD PTR _this$[ebp]
	mov	ecx, DWORD PTR _width$[ebp]
	mov	DWORD PTR [eax+286], ecx
	mov	eax, DWORD PTR _this$[ebp]
	mov	ecx, DWORD PTR _height$[ebp]
	mov	DWORD PTR [eax+290], ecx
	pop	edi
	pop	esi
	pop	ebx
	mov	esp, ebp
	pop	ebp
	ret	8
?SetSize@CDXUTDialog@@QAEXHH@Z ENDP			; CDXUTDialog::SetSize
_TEXT	ENDS
; Function compile flags: /Odtp /RTCsu /ZI
; File z:\sampsrc\02xu1\saco\d3d9\common\dxutgui.h
;	COMDAT ?SetLocation@CDXUTDialog@@QAEXHH@Z
_TEXT	SEGMENT
_this$ = -8						; size = 4
_x$ = 8							; size = 4
_y$ = 12						; size = 4
?SetLocation@CDXUTDialog@@QAEXHH@Z PROC			; CDXUTDialog::SetLocation, COMDAT
; _this$ = ecx

; 194  :     void SetLocation( int x, int y ) { m_x = x; m_y = y; }

	push	ebp
	mov	ebp, esp
	sub	esp, 204				; 000000ccH
	push	ebx
	push	esi
	push	edi
	push	ecx
	lea	edi, DWORD PTR [ebp-204]
	mov	ecx, 51					; 00000033H
	mov	eax, -858993460				; ccccccccH
	rep stosd
	pop	ecx
	mov	DWORD PTR _this$[ebp], ecx
	mov	eax, DWORD PTR _this$[ebp]
	mov	ecx, DWORD PTR _x$[ebp]
	mov	DWORD PTR [eax+278], ecx
	mov	eax, DWORD PTR _this$[ebp]
	mov	ecx, DWORD PTR _y$[ebp]
	mov	DWORD PTR [eax+282], ecx
	pop	edi
	pop	esi
	pop	ebx
	mov	esp, ebp
	pop	ebp
	ret	8
?SetLocation@CDXUTDialog@@QAEXHH@Z ENDP			; CDXUTDialog::SetLocation
_TEXT	ENDS
; Function compile flags: /Odtp /RTCsu /ZI
;	COMDAT ??0IDirect3DDevice9@@QAE@XZ
_TEXT	SEGMENT
_this$ = -8						; size = 4
??0IDirect3DDevice9@@QAE@XZ PROC			; IDirect3DDevice9::IDirect3DDevice9, COMDAT
; _this$ = ecx
	push	ebp
	mov	ebp, esp
	sub	esp, 204				; 000000ccH
	push	ebx
	push	esi
	push	edi
	push	ecx
	lea	edi, DWORD PTR [ebp-204]
	mov	ecx, 51					; 00000033H
	mov	eax, -858993460				; ccccccccH
	rep stosd
	pop	ecx
	mov	DWORD PTR _this$[ebp], ecx
	mov	ecx, DWORD PTR _this$[ebp]
	call	??0IUnknown@@QAE@XZ
	mov	eax, DWORD PTR _this$[ebp]
	pop	edi
	pop	esi
	pop	ebx
	add	esp, 204				; 000000ccH
	cmp	ebp, esp
	call	__RTC_CheckEsp
	mov	esp, ebp
	pop	ebp
	ret	0
??0IDirect3DDevice9@@QAE@XZ ENDP			; IDirect3DDevice9::IDirect3DDevice9
_TEXT	ENDS
; Function compile flags: /Odtp /RTCsu /ZI
;	COMDAT ??0IUnknown@@QAE@XZ
_TEXT	SEGMENT
_this$ = -8						; size = 4
??0IUnknown@@QAE@XZ PROC				; IUnknown::IUnknown, COMDAT
; _this$ = ecx
	push	ebp
	mov	ebp, esp
	sub	esp, 204				; 000000ccH
	push	ebx
	push	esi
	push	edi
	push	ecx
	lea	edi, DWORD PTR [ebp-204]
	mov	ecx, 51					; 00000033H
	mov	eax, -858993460				; ccccccccH
	rep stosd
	pop	ecx
	mov	DWORD PTR _this$[ebp], ecx
	mov	eax, DWORD PTR _this$[ebp]
	pop	edi
	pop	esi
	pop	ebx
	mov	esp, ebp
	pop	ebp
	ret	0
??0IUnknown@@QAE@XZ ENDP				; IUnknown::IUnknown
_TEXT	ENDS
END
