; Listing generated by Microsoft (R) Optimizing Compiler Version 18.00.31101.0 

	TITLE	Z:\sampsrc\02Xu1\raknet\PacketLogger.cpp
	.686P
	.XMM
	include listing.inc
	.model	flat

INCLUDELIB LIBCMTD
INCLUDELIB OLDNAMES

CONST	SEGMENT
_UNASSIGNED_PLAYER_ID DD 0ffffffffH
	DW	0ffffH
CONST	ENDS
PUBLIC	??4PlayerID@@QAEAAU0@ABU0@@Z			; PlayerID::operator=
PUBLIC	??0PluginInterface@@QAE@XZ			; PluginInterface::PluginInterface
PUBLIC	??0PacketLogger@@QAE@XZ				; PacketLogger::PacketLogger
PUBLIC	??1PacketLogger@@UAE@XZ				; PacketLogger::~PacketLogger
PUBLIC	?OnAttach@PacketLogger@@UAEXPAVRakPeerInterface@@@Z ; PacketLogger::OnAttach
PUBLIC	?OnDirectSocketSend@PacketLogger@@UAEXPBDIUPlayerID@@@Z ; PacketLogger::OnDirectSocketSend
PUBLIC	?OnDirectSocketReceive@PacketLogger@@UAEXPBDIUPlayerID@@@Z ; PacketLogger::OnDirectSocketReceive
PUBLIC	?OnInternalPacket@PacketLogger@@UAEXPAUInternalPacket@@IUPlayerID@@I_N@Z ; PacketLogger::OnInternalPacket
PUBLIC	?LogHeader@PacketLogger@@UAEXXZ			; PacketLogger::LogHeader
PUBLIC	?WriteLog@PacketLogger@@UAEXPBD@Z		; PacketLogger::WriteLog
PUBLIC	?SetPrintID@PacketLogger@@UAEX_N@Z		; PacketLogger::SetPrintID
PUBLIC	?SetPrintAcks@PacketLogger@@UAEX_N@Z		; PacketLogger::SetPrintAcks
PUBLIC	?IDTOString@PacketLogger@@IAEPADE@Z		; PacketLogger::IDTOString
PUBLIC	?BaseIDTOString@PacketLogger@@IAEPADE@Z		; PacketLogger::BaseIDTOString
PUBLIC	?UserIDTOString@PacketLogger@@MAEPADE@Z		; PacketLogger::UserIDTOString
PUBLIC	??_GPacketLogger@@UAEPAXI@Z			; PacketLogger::`scalar deleting destructor'
PUBLIC	??$Read@_N@BitStream@RakNet@@QAE_NAA_N@Z	; RakNet::BitStream::Read<bool>
PUBLIC	??$ReadCompressed@E@BitStream@RakNet@@QAE_NAAE@Z ; RakNet::BitStream::ReadCompressed<unsigned char>
PUBLIC	??$ReadCompressed@I@BitStream@RakNet@@QAE_NAAI@Z ; RakNet::BitStream::ReadCompressed<unsigned int>
PUBLIC	??_7PluginInterface@@6B@			; PluginInterface::`vftable'
PUBLIC	??_7PacketLogger@@6B@				; PacketLogger::`vftable'
PUBLIC	??_C@_0CM@GILAHBDH@Snd?0Raw?0?5?5NIL?0?5?5NIL?0?$CF5i?0?$CF5i?0?$CFi?0?$CF@ ; `string'
PUBLIC	??_C@_0CG@NLLDGLNC@Snd?0Raw?0NIL?0NIL?0?$CFs?0?$CFi?0?$CFi?0?$CFu?3?$CFi?0?$CF@ ; `string'
PUBLIC	??_C@_0EK@EDMFIPJD@S?$HMR?0Typ?0Pckt?$CD?0Frm?5?$CD?0PktID?0BitLn?0@ ; `string'
PUBLIC	??_C@_0CM@BNINLJOL@Rcv?0Raw?0?5?5NIL?0?5?5NIL?0?$CF5i?0?$CF5i?0?$CFi?0?$CF@ ; `string'
PUBLIC	??_C@_0CG@HEOPLHNJ@Rcv?0Raw?0NIL?0NIL?0?$CFs?0?$CFi?0?$CFi?0?$CFu?3?$CFi?0?$CF@ ; `string'
PUBLIC	??_C@_03EENLMICG@Snd?$AA@			; `string'
PUBLIC	??_C@_03IMELEMMD@Rcv?$AA@			; `string'
PUBLIC	??_C@_0CH@FIIDFFMG@?$CFs?0Tms?0?$CF5i?0?$CF5i?0?$CF5i?0?$CF5i?0?$CFi?0?$CFu?3?$CFi?0@ ; `string'
PUBLIC	??_C@_0CD@LCDEAAHN@?$CFs?0Tms?0?$CFi?0?$CFi?0?$CFs?0?$CFi?0?$CFi?0?$CFu?3?$CFi?0?$CFu?3?$CF@ ; `string'
PUBLIC	??_C@_09NDGFAPBP@?$FLUNKNOWN?$FN?$AA@		; `string'
PUBLIC	??_C@_0CG@NCBDBKCL@?$CFs?0RpT?0?$CF5i?0?$CF5i?0?$CFs?0?$CF5i?0?$CFi?0?$CFu?3?$CFi?0?$CF@ ; `string'
PUBLIC	??_C@_0CG@ODOCOKGF@?$CFs?0Rpc?0?$CF5i?0?$CF5i?0?$CFs?0?$CF5i?0?$CFi?0?$CFu?3?$CFi?0?$CF@ ; `string'
PUBLIC	??_C@_0CH@LPNMNBMM@?$CFs?0Nrm?0?$CF5i?0?$CF5i?0?$CF5i?0?$CF5i?0?$CFi?0?$CFu?3?$CFi?0@ ; `string'
PUBLIC	??_C@_0CD@EJCGOEJ@?$CFs?0Nrm?0?$CFi?0?$CFi?0?$CFs?0?$CFi?0?$CFi?0?$CFu?3?$CFi?0?$CFu?3?$CF@ ; `string'
PUBLIC	??_C@_02DKCKIIND@?$CFs?$AA@			; `string'
PUBLIC	??_C@_0BB@DBJOHLAF@ID_INTERNAL_PING?$AA@	; `string'
PUBLIC	??_C@_07PKKALDGM@ID_PING?$AA@			; `string'
PUBLIC	??_C@_0BJ@BJDIKKBI@ID_PING_OPEN_CONNECTIONS?$AA@ ; `string'
PUBLIC	??_C@_0BC@PJANOLB@ID_CONNECTED_PONG?$AA@	; `string'
PUBLIC	??_C@_0BH@GLCIPBBO@ID_REQUEST_STATIC_DATA?$AA@	; `string'
PUBLIC	??_C@_0BG@COPLDIAH@ID_CONNECTION_REQUEST?$AA@	; `string'
PUBLIC	??_C@_0BP@MDAKMCMB@ID_SECURED_CONNECTION_RESPONSE?$AA@ ; `string'
PUBLIC	??_C@_0CD@KCOBHBDB@ID_SECURED_CONNECTION_CONFIRMATI@ ; `string'
PUBLIC	??_C@_0P@NFILCBGF@ID_RPC_MAPPING?$AA@		; `string'
PUBLIC	??_C@_0BL@FBFKLGOF@ID_DETECT_LOST_CONNECTIONS?$AA@ ; `string'
PUBLIC	??_C@_0BL@JIIPEMPE@ID_OPEN_CONNECTION_REQUEST?$AA@ ; `string'
PUBLIC	??_C@_0BJ@LLANOCCH@ID_OPEN_CONNECTION_REPLY?$AA@ ; `string'
PUBLIC	??_C@_06ELGGPFBE@ID_RPC?$AA@			; `string'
PUBLIC	??_C@_0N@KHCNCPNO@ID_RPC_REPLY?$AA@		; `string'
PUBLIC	??_C@_0BD@PHIHKMHB@ID_BROADCAST_PINGS?$AA@	; `string'
PUBLIC	??_C@_0BK@KGIHKJCF@ID_SET_RANDOM_NUMBER_SEED?$AA@ ; `string'
PUBLIC	??_C@_0BP@PLDMEGME@ID_CONNECTION_REQUEST_ACCEPTED?$AA@ ; `string'
PUBLIC	??_C@_0BN@LFFKEOPN@ID_CONNECTION_ATTEMPT_FAILED?$AA@ ; `string'
PUBLIC	??_C@_0BL@MABOBDFA@ID_NEW_INCOMING_CONNECTION?$AA@ ; `string'
PUBLIC	??_C@_0CA@MNODABPA@ID_NO_FREE_INCOMING_CONNECTIONS?$AA@ ; `string'
PUBLIC	??_C@_0BO@OLPHMLBO@ID_DISCONNECTION_NOTIFICATION?$AA@ ; `string'
PUBLIC	??_C@_0BD@NCMFHGA@ID_CONNECTION_LOST?$AA@	; `string'
PUBLIC	??_C@_0BL@CJFJFIKJ@ID_RSA_PUBLIC_KEY_MISMATCH?$AA@ ; `string'
PUBLIC	??_C@_0BF@LPFHJJBD@ID_CONNECTION_BANNED?$AA@	; `string'
PUBLIC	??_C@_0BE@KANOLEPF@ID_INVALID_PASSWORD?$AA@	; `string'
PUBLIC	??_C@_0BD@EJOHJAOK@ID_MODIFIED_PACKET?$AA@	; `string'
PUBLIC	??_C@_0N@NCANPGBC@ID_TIMESTAMP?$AA@		; `string'
PUBLIC	??_C@_07NPMLOMLA@ID_PONG?$AA@			; `string'
PUBLIC	??_C@_0BI@CBOPHKEP@ID_RECEIVED_STATIC_DATA?$AA@	; `string'
PUBLIC	??_C@_0CF@MPHOOKNC@ID_REMOTE_DISCONNECTION_NOTIFICA@ ; `string'
PUBLIC	??_C@_0BK@ECJBAFKF@ID_REMOTE_CONNECTION_LOST?$AA@ ; `string'
PUBLIC	??_C@_0CC@DKOFGNKO@ID_REMOTE_NEW_INCOMING_CONNECTIO@ ; `string'
PUBLIC	??_C@_0BO@PCFLNBOM@ID_REMOTE_EXISTING_CONNECTION?$AA@ ; `string'
PUBLIC	??_C@_0BG@GHALBPPM@ID_REMOTE_STATIC_DATA?$AA@	; `string'
PUBLIC	??_C@_0BN@IGDLCBON@ID_FILE_LIST_TRANSFER_HEADER?$AA@ ; `string'
PUBLIC	??_C@_0BL@KJHOPFMB@ID_FILE_LIST_TRANSFER_FILE?$AA@ ; `string'
PUBLIC	??_C@_0BI@KICLOPFI@ID_DDT_DOWNLOAD_REQUEST?$AA@	; `string'
PUBLIC	??_C@_0BH@LHMIEMB@ID_QUERY_MASTER_SERVER?$AA@	; `string'
PUBLIC	??_C@_0BP@MKMEPNHC@ID_MASTER_SERVER_DELIST_SERVER?$AA@ ; `string'
PUBLIC	??_C@_0BP@HNPJOPFB@ID_MASTER_SERVER_UPDATE_SERVER?$AA@ ; `string'
PUBLIC	??_C@_0BM@JFGOLOCJ@ID_MASTER_SERVER_SET_SERVER?$AA@ ; `string'
PUBLIC	??_C@_0CD@FEJBPNPE@ID_RELAYED_CONNECTION_NOTIFICATI@ ; `string'
PUBLIC	??_C@_0BE@DCOBFKAO@ID_ADVERTISE_SYSTEM?$AA@	; `string'
PUBLIC	??_C@_0BE@EDJIHEMP@ID_TRANSPORT_STRING?$AA@	; `string'
PUBLIC	??_C@_0CA@LCHKDGHI@ID_REPLICA_MANAGER_CONSTRUCTION?$AA@ ; `string'
PUBLIC	??_C@_0BP@MNDNLFBI@ID_REPLICA_MANAGER_DESTRUCTION?$AA@ ; `string'
PUBLIC	??_C@_0CA@LPIJALAM@ID_REPLICA_MANAGER_SCOPE_CHANGE?$AA@ ; `string'
PUBLIC	??_C@_0BN@KOFKPAGO@ID_REPLICA_MANAGER_SERIALIZE?$AA@ ; `string'
PUBLIC	??_C@_0CF@PGFGJODO@ID_REPLICA_MANAGER_DOWNLOAD_COMP@ ; `string'
PUBLIC	??_C@_0BM@FBJKJKCM@ID_CONNECTION_GRAPH_REQUEST?$AA@ ; `string'
PUBLIC	??_C@_0BK@CBGFOALB@ID_CONNECTION_GRAPH_REPLY?$AA@ ; `string'
PUBLIC	??_C@_0BL@MICHIKNA@ID_CONNECTION_GRAPH_UPDATE?$AA@ ; `string'
PUBLIC	??_C@_0CD@GGDAHHGP@ID_CONNECTION_GRAPH_NEW_CONNECTI@ ; `string'
PUBLIC	??_C@_0CE@DLIICOIF@ID_CONNECTION_GRAPH_CONNECTION_L@ ; `string'
PUBLIC	??_C@_0CP@ENCDODLD@ID_CONNECTION_GRAPH_DISCONNECTIO@ ; `string'
PUBLIC	??_C@_0BH@LNGMGEEM@ID_ROUTE_AND_MULTICAST?$AA@	; `string'
PUBLIC	??_C@_0CB@GCKKIPNB@ID_RAKVOICE_OPEN_CHANNEL_REQUEST@ ; `string'
PUBLIC	??_C@_0BP@CKGAGINM@ID_RAKVOICE_OPEN_CHANNEL_REPLY?$AA@ ; `string'
PUBLIC	??_C@_0BK@BBDPADIO@ID_RAKVOICE_CLOSE_CHANNEL?$AA@ ; `string'
PUBLIC	??_C@_0BB@EPMEEE@ID_RAKVOICE_DATA?$AA@		; `string'
PUBLIC	??_C@_0CJ@LJCFNDCN@ID_AUTOPATCHER_GET_CHANGELIST_SI@ ; `string'
PUBLIC	??_C@_0BN@CCPPOEH@ID_AUTOPATCHER_CREATION_LIST?$AA@ ; `string'
PUBLIC	??_C@_0BN@IDOGLNBG@ID_AUTOPATCHER_DELETION_LIST?$AA@ ; `string'
PUBLIC	??_C@_0BJ@IIADFECH@ID_AUTOPATCHER_GET_PATCH?$AA@ ; `string'
PUBLIC	??_C@_0BK@JMNELKMN@ID_AUTOPATCHER_PATCH_LIST?$AA@ ; `string'
PUBLIC	??_C@_0CG@PHOFDANB@ID_AUTOPATCHER_REPOSITORY_FATAL_@ ; `string'
PUBLIC	??_C@_0BI@ENPBEBKK@ID_AUTOPATCHER_FINISHED?$AA@	; `string'
PUBLIC	??_C@_0CD@MGGPKDDG@ID_AUTOPATCHER_RESTART_APPLICATI@ ; `string'
PUBLIC	??_C@_0BM@LJGJDIII@ID_NAT_PUNCHTHROUGH_REQUEST?$AA@ ; `string'
PUBLIC	??_C@_0BM@EDIKGBBN@ID_NAT_TARGET_NOT_CONNECTED?$AA@ ; `string'
PUBLIC	??_C@_0BO@FAKBIOGE@ID_NAT_TARGET_CONNECTION_LOST?$AA@ ; `string'
PUBLIC	??_C@_0BH@GMBNAECN@ID_NAT_CONNECT_AT_TIME?$AA@	; `string'
PUBLIC	??_C@_0CE@BBKINLFF@ID_NAT_SEND_OFFLINE_MESSAGE_AT_T@ ; `string'
PUBLIC	??_C@_0BK@OGCLPGFB@ID_DATABASE_QUERY_REQUEST?$AA@ ; `string'
PUBLIC	??_C@_0BH@LGAAKMIE@ID_DATABASE_UPDATE_ROW?$AA@	; `string'
PUBLIC	??_C@_0BH@HAAKEGOL@ID_DATABASE_REMOVE_ROW?$AA@	; `string'
PUBLIC	??_C@_0BI@KHDIKGHK@ID_DATABASE_QUERY_REPLY?$AA@	; `string'
PUBLIC	??_C@_0BK@IEJPAOGH@ID_DATABASE_UNKNOWN_TABLE?$AA@ ; `string'
PUBLIC	??_C@_0BP@BHKDCBMB@ID_DATABASE_INCORRECT_PASSWORD?$AA@ ; `string'
PUBLIC	??_C@_07NBCGADJA@Unknown?$AA@			; `string'
PUBLIC	??_R4PluginInterface@@6B@			; PluginInterface::`RTTI Complete Object Locator'
PUBLIC	??_R0?AVPluginInterface@@@8			; PluginInterface `RTTI Type Descriptor'
PUBLIC	??_R3PluginInterface@@8				; PluginInterface::`RTTI Class Hierarchy Descriptor'
PUBLIC	??_R2PluginInterface@@8				; PluginInterface::`RTTI Base Class Array'
PUBLIC	??_R1A@?0A@EA@PluginInterface@@8		; PluginInterface::`RTTI Base Class Descriptor at (0,-1,0,64)'
PUBLIC	??_R4PacketLogger@@6B@				; PacketLogger::`RTTI Complete Object Locator'
PUBLIC	??_R0?AVPacketLogger@@@8			; PacketLogger `RTTI Type Descriptor'
PUBLIC	??_R3PacketLogger@@8				; PacketLogger::`RTTI Class Hierarchy Descriptor'
PUBLIC	??_R2PacketLogger@@8				; PacketLogger::`RTTI Base Class Array'
PUBLIC	??_R1A@?0A@EA@PacketLogger@@8			; PacketLogger::`RTTI Base Class Descriptor at (0,-1,0,64)'
EXTRN	??3@YAXPAX@Z:PROC				; operator delete
EXTRN	?OnAttach@PluginInterface@@UAEXPAVRakPeerInterface@@@Z:PROC ; PluginInterface::OnAttach
EXTRN	?OnDetach@PluginInterface@@UAEXPAVRakPeerInterface@@@Z:PROC ; PluginInterface::OnDetach
EXTRN	?OnInitialize@PluginInterface@@UAEXPAVRakPeerInterface@@@Z:PROC ; PluginInterface::OnInitialize
EXTRN	?Update@PluginInterface@@UAEXPAVRakPeerInterface@@@Z:PROC ; PluginInterface::Update
EXTRN	?OnReceive@PluginInterface@@UAE?AW4PluginReceiveResult@@PAVRakPeerInterface@@PAUPacket@@@Z:PROC ; PluginInterface::OnReceive
EXTRN	?OnDisconnect@PluginInterface@@UAEXPAVRakPeerInterface@@@Z:PROC ; PluginInterface::OnDisconnect
EXTRN	?OnCloseConnection@PluginInterface@@UAEXPAVRakPeerInterface@@UPlayerID@@@Z:PROC ; PluginInterface::OnCloseConnection
EXTRN	?OnDirectSocketSend@PluginInterface@@UAEXPBDIUPlayerID@@@Z:PROC ; PluginInterface::OnDirectSocketSend
EXTRN	?OnDirectSocketReceive@PluginInterface@@UAEXPBDIUPlayerID@@@Z:PROC ; PluginInterface::OnDirectSocketReceive
EXTRN	?OnInternalPacket@PluginInterface@@UAEXPAUInternalPacket@@IUPlayerID@@I_N@Z:PROC ; PluginInterface::OnInternalPacket
EXTRN	??_EPacketLogger@@UAEPAXI@Z:PROC		; PacketLogger::`vector deleting destructor'
EXTRN	??0BitStream@RakNet@@QAE@PAEI_N@Z:PROC		; RakNet::BitStream::BitStream
EXTRN	??1BitStream@RakNet@@QAE@XZ:PROC		; RakNet::BitStream::~BitStream
EXTRN	?IgnoreBits@BitStream@RakNet@@QAEXH@Z:PROC	; RakNet::BitStream::IgnoreBits
EXTRN	?ReadCompressed@BitStream@RakNet@@AAE_NPAEH_N@Z:PROC ; RakNet::BitStream::ReadCompressed
EXTRN	_strcpy:PROC
EXTRN	?Instance@StringCompressor@@SAPAV1@XZ:PROC	; StringCompressor::Instance
EXTRN	?DecodeString@StringCompressor@@QAE_NPADHPAVBitStream@RakNet@@H@Z:PROC ; StringCompressor::DecodeString
EXTRN	?GetNodeFromIndex@RPCMap@@QAEPAURPCNode@@E@Z:PROC ; RPCMap::GetNodeFromIndex
EXTRN	?GetTime@RakNet@@YAIXZ:PROC			; RakNet::GetTime
EXTRN	_printf:PROC
EXTRN	_sprintf:PROC
EXTRN	@_RTC_CheckStackVars@8:PROC
EXTRN	@__security_check_cookie@4:PROC
EXTRN	__RTC_CheckEsp:PROC
EXTRN	__RTC_InitBase:PROC
EXTRN	__RTC_Shutdown:PROC
EXTRN	___CxxFrameHandler3:PROC
EXTRN	_memset:PROC
EXTRN	??_7type_info@@6B@:QWORD			; type_info::`vftable'
EXTRN	___security_cookie:DWORD
;	COMDAT rtc$TMZ
rtc$TMZ	SEGMENT
__RTC_Shutdown.rtc$TMZ DD FLAT:__RTC_Shutdown
rtc$TMZ	ENDS
;	COMDAT rtc$IMZ
rtc$IMZ	SEGMENT
__RTC_InitBase.rtc$IMZ DD FLAT:__RTC_InitBase
rtc$IMZ	ENDS
;	COMDAT ??_R1A@?0A@EA@PacketLogger@@8
rdata$r	SEGMENT
??_R1A@?0A@EA@PacketLogger@@8 DD FLAT:??_R0?AVPacketLogger@@@8 ; PacketLogger::`RTTI Base Class Descriptor at (0,-1,0,64)'
	DD	01H
	DD	00H
	DD	0ffffffffH
	DD	00H
	DD	040H
	DD	FLAT:??_R3PacketLogger@@8
rdata$r	ENDS
;	COMDAT ??_R2PacketLogger@@8
rdata$r	SEGMENT
??_R2PacketLogger@@8 DD FLAT:??_R1A@?0A@EA@PacketLogger@@8 ; PacketLogger::`RTTI Base Class Array'
	DD	FLAT:??_R1A@?0A@EA@PluginInterface@@8
rdata$r	ENDS
;	COMDAT ??_R3PacketLogger@@8
rdata$r	SEGMENT
??_R3PacketLogger@@8 DD 00H				; PacketLogger::`RTTI Class Hierarchy Descriptor'
	DD	00H
	DD	02H
	DD	FLAT:??_R2PacketLogger@@8
rdata$r	ENDS
;	COMDAT ??_R0?AVPacketLogger@@@8
data$r	SEGMENT
??_R0?AVPacketLogger@@@8 DD FLAT:??_7type_info@@6B@	; PacketLogger `RTTI Type Descriptor'
	DD	00H
	DB	'.?AVPacketLogger@@', 00H
data$r	ENDS
;	COMDAT ??_R4PacketLogger@@6B@
rdata$r	SEGMENT
??_R4PacketLogger@@6B@ DD 00H				; PacketLogger::`RTTI Complete Object Locator'
	DD	00H
	DD	00H
	DD	FLAT:??_R0?AVPacketLogger@@@8
	DD	FLAT:??_R3PacketLogger@@8
rdata$r	ENDS
;	COMDAT ??_R1A@?0A@EA@PluginInterface@@8
rdata$r	SEGMENT
??_R1A@?0A@EA@PluginInterface@@8 DD FLAT:??_R0?AVPluginInterface@@@8 ; PluginInterface::`RTTI Base Class Descriptor at (0,-1,0,64)'
	DD	00H
	DD	00H
	DD	0ffffffffH
	DD	00H
	DD	040H
	DD	FLAT:??_R3PluginInterface@@8
rdata$r	ENDS
;	COMDAT ??_R2PluginInterface@@8
rdata$r	SEGMENT
??_R2PluginInterface@@8 DD FLAT:??_R1A@?0A@EA@PluginInterface@@8 ; PluginInterface::`RTTI Base Class Array'
rdata$r	ENDS
;	COMDAT ??_R3PluginInterface@@8
rdata$r	SEGMENT
??_R3PluginInterface@@8 DD 00H				; PluginInterface::`RTTI Class Hierarchy Descriptor'
	DD	00H
	DD	01H
	DD	FLAT:??_R2PluginInterface@@8
rdata$r	ENDS
;	COMDAT ??_R0?AVPluginInterface@@@8
data$r	SEGMENT
??_R0?AVPluginInterface@@@8 DD FLAT:??_7type_info@@6B@	; PluginInterface `RTTI Type Descriptor'
	DD	00H
	DB	'.?AVPluginInterface@@', 00H
data$r	ENDS
;	COMDAT ??_R4PluginInterface@@6B@
rdata$r	SEGMENT
??_R4PluginInterface@@6B@ DD 00H			; PluginInterface::`RTTI Complete Object Locator'
	DD	00H
	DD	00H
	DD	FLAT:??_R0?AVPluginInterface@@@8
	DD	FLAT:??_R3PluginInterface@@8
rdata$r	ENDS
;	COMDAT ??_C@_07NBCGADJA@Unknown?$AA@
CONST	SEGMENT
??_C@_07NBCGADJA@Unknown?$AA@ DB 'Unknown', 00H		; `string'
CONST	ENDS
;	COMDAT ??_C@_0BP@BHKDCBMB@ID_DATABASE_INCORRECT_PASSWORD?$AA@
CONST	SEGMENT
??_C@_0BP@BHKDCBMB@ID_DATABASE_INCORRECT_PASSWORD?$AA@ DB 'ID_DATABASE_IN'
	DB	'CORRECT_PASSWORD', 00H			; `string'
CONST	ENDS
;	COMDAT ??_C@_0BK@IEJPAOGH@ID_DATABASE_UNKNOWN_TABLE?$AA@
CONST	SEGMENT
??_C@_0BK@IEJPAOGH@ID_DATABASE_UNKNOWN_TABLE?$AA@ DB 'ID_DATABASE_UNKNOWN'
	DB	'_TABLE', 00H				; `string'
CONST	ENDS
;	COMDAT ??_C@_0BI@KHDIKGHK@ID_DATABASE_QUERY_REPLY?$AA@
CONST	SEGMENT
??_C@_0BI@KHDIKGHK@ID_DATABASE_QUERY_REPLY?$AA@ DB 'ID_DATABASE_QUERY_REP'
	DB	'LY', 00H					; `string'
CONST	ENDS
;	COMDAT ??_C@_0BH@HAAKEGOL@ID_DATABASE_REMOVE_ROW?$AA@
CONST	SEGMENT
??_C@_0BH@HAAKEGOL@ID_DATABASE_REMOVE_ROW?$AA@ DB 'ID_DATABASE_REMOVE_ROW'
	DB	00H						; `string'
CONST	ENDS
;	COMDAT ??_C@_0BH@LGAAKMIE@ID_DATABASE_UPDATE_ROW?$AA@
CONST	SEGMENT
??_C@_0BH@LGAAKMIE@ID_DATABASE_UPDATE_ROW?$AA@ DB 'ID_DATABASE_UPDATE_ROW'
	DB	00H						; `string'
CONST	ENDS
;	COMDAT ??_C@_0BK@OGCLPGFB@ID_DATABASE_QUERY_REQUEST?$AA@
CONST	SEGMENT
??_C@_0BK@OGCLPGFB@ID_DATABASE_QUERY_REQUEST?$AA@ DB 'ID_DATABASE_QUERY_R'
	DB	'EQUEST', 00H				; `string'
CONST	ENDS
;	COMDAT ??_C@_0CE@BBKINLFF@ID_NAT_SEND_OFFLINE_MESSAGE_AT_T@
CONST	SEGMENT
??_C@_0CE@BBKINLFF@ID_NAT_SEND_OFFLINE_MESSAGE_AT_T@ DB 'ID_NAT_SEND_OFFL'
	DB	'INE_MESSAGE_AT_TIME', 00H			; `string'
CONST	ENDS
;	COMDAT ??_C@_0BH@GMBNAECN@ID_NAT_CONNECT_AT_TIME?$AA@
CONST	SEGMENT
??_C@_0BH@GMBNAECN@ID_NAT_CONNECT_AT_TIME?$AA@ DB 'ID_NAT_CONNECT_AT_TIME'
	DB	00H						; `string'
CONST	ENDS
;	COMDAT ??_C@_0BO@FAKBIOGE@ID_NAT_TARGET_CONNECTION_LOST?$AA@
CONST	SEGMENT
??_C@_0BO@FAKBIOGE@ID_NAT_TARGET_CONNECTION_LOST?$AA@ DB 'ID_NAT_TARGET_C'
	DB	'ONNECTION_LOST', 00H			; `string'
CONST	ENDS
;	COMDAT ??_C@_0BM@EDIKGBBN@ID_NAT_TARGET_NOT_CONNECTED?$AA@
CONST	SEGMENT
??_C@_0BM@EDIKGBBN@ID_NAT_TARGET_NOT_CONNECTED?$AA@ DB 'ID_NAT_TARGET_NOT'
	DB	'_CONNECTED', 00H				; `string'
CONST	ENDS
;	COMDAT ??_C@_0BM@LJGJDIII@ID_NAT_PUNCHTHROUGH_REQUEST?$AA@
CONST	SEGMENT
??_C@_0BM@LJGJDIII@ID_NAT_PUNCHTHROUGH_REQUEST?$AA@ DB 'ID_NAT_PUNCHTHROU'
	DB	'GH_REQUEST', 00H				; `string'
CONST	ENDS
;	COMDAT ??_C@_0CD@MGGPKDDG@ID_AUTOPATCHER_RESTART_APPLICATI@
CONST	SEGMENT
??_C@_0CD@MGGPKDDG@ID_AUTOPATCHER_RESTART_APPLICATI@ DB 'ID_AUTOPATCHER_R'
	DB	'ESTART_APPLICATION', 00H			; `string'
CONST	ENDS
;	COMDAT ??_C@_0BI@ENPBEBKK@ID_AUTOPATCHER_FINISHED?$AA@
CONST	SEGMENT
??_C@_0BI@ENPBEBKK@ID_AUTOPATCHER_FINISHED?$AA@ DB 'ID_AUTOPATCHER_FINISH'
	DB	'ED', 00H					; `string'
CONST	ENDS
;	COMDAT ??_C@_0CG@PHOFDANB@ID_AUTOPATCHER_REPOSITORY_FATAL_@
CONST	SEGMENT
??_C@_0CG@PHOFDANB@ID_AUTOPATCHER_REPOSITORY_FATAL_@ DB 'ID_AUTOPATCHER_R'
	DB	'EPOSITORY_FATAL_ERROR', 00H			; `string'
CONST	ENDS
;	COMDAT ??_C@_0BK@JMNELKMN@ID_AUTOPATCHER_PATCH_LIST?$AA@
CONST	SEGMENT
??_C@_0BK@JMNELKMN@ID_AUTOPATCHER_PATCH_LIST?$AA@ DB 'ID_AUTOPATCHER_PATC'
	DB	'H_LIST', 00H				; `string'
CONST	ENDS
;	COMDAT ??_C@_0BJ@IIADFECH@ID_AUTOPATCHER_GET_PATCH?$AA@
CONST	SEGMENT
??_C@_0BJ@IIADFECH@ID_AUTOPATCHER_GET_PATCH?$AA@ DB 'ID_AUTOPATCHER_GET_P'
	DB	'ATCH', 00H					; `string'
CONST	ENDS
;	COMDAT ??_C@_0BN@IDOGLNBG@ID_AUTOPATCHER_DELETION_LIST?$AA@
CONST	SEGMENT
??_C@_0BN@IDOGLNBG@ID_AUTOPATCHER_DELETION_LIST?$AA@ DB 'ID_AUTOPATCHER_D'
	DB	'ELETION_LIST', 00H				; `string'
CONST	ENDS
;	COMDAT ??_C@_0BN@CCPPOEH@ID_AUTOPATCHER_CREATION_LIST?$AA@
CONST	SEGMENT
??_C@_0BN@CCPPOEH@ID_AUTOPATCHER_CREATION_LIST?$AA@ DB 'ID_AUTOPATCHER_CR'
	DB	'EATION_LIST', 00H				; `string'
CONST	ENDS
;	COMDAT ??_C@_0CJ@LJCFNDCN@ID_AUTOPATCHER_GET_CHANGELIST_SI@
CONST	SEGMENT
??_C@_0CJ@LJCFNDCN@ID_AUTOPATCHER_GET_CHANGELIST_SI@ DB 'ID_AUTOPATCHER_G'
	DB	'ET_CHANGELIST_SINCE_DATE', 00H		; `string'
CONST	ENDS
;	COMDAT ??_C@_0BB@EPMEEE@ID_RAKVOICE_DATA?$AA@
CONST	SEGMENT
??_C@_0BB@EPMEEE@ID_RAKVOICE_DATA?$AA@ DB 'ID_RAKVOICE_DATA', 00H ; `string'
CONST	ENDS
;	COMDAT ??_C@_0BK@BBDPADIO@ID_RAKVOICE_CLOSE_CHANNEL?$AA@
CONST	SEGMENT
??_C@_0BK@BBDPADIO@ID_RAKVOICE_CLOSE_CHANNEL?$AA@ DB 'ID_RAKVOICE_CLOSE_C'
	DB	'HANNEL', 00H				; `string'
CONST	ENDS
;	COMDAT ??_C@_0BP@CKGAGINM@ID_RAKVOICE_OPEN_CHANNEL_REPLY?$AA@
CONST	SEGMENT
??_C@_0BP@CKGAGINM@ID_RAKVOICE_OPEN_CHANNEL_REPLY?$AA@ DB 'ID_RAKVOICE_OP'
	DB	'EN_CHANNEL_REPLY', 00H			; `string'
CONST	ENDS
;	COMDAT ??_C@_0CB@GCKKIPNB@ID_RAKVOICE_OPEN_CHANNEL_REQUEST@
CONST	SEGMENT
??_C@_0CB@GCKKIPNB@ID_RAKVOICE_OPEN_CHANNEL_REQUEST@ DB 'ID_RAKVOICE_OPEN'
	DB	'_CHANNEL_REQUEST', 00H			; `string'
CONST	ENDS
;	COMDAT ??_C@_0BH@LNGMGEEM@ID_ROUTE_AND_MULTICAST?$AA@
CONST	SEGMENT
??_C@_0BH@LNGMGEEM@ID_ROUTE_AND_MULTICAST?$AA@ DB 'ID_ROUTE_AND_MULTICAST'
	DB	00H						; `string'
CONST	ENDS
;	COMDAT ??_C@_0CP@ENCDODLD@ID_CONNECTION_GRAPH_DISCONNECTIO@
CONST	SEGMENT
??_C@_0CP@ENCDODLD@ID_CONNECTION_GRAPH_DISCONNECTIO@ DB 'ID_CONNECTION_GR'
	DB	'APH_DISCONNECTION_NOTIFICATION', 00H	; `string'
CONST	ENDS
;	COMDAT ??_C@_0CE@DLIICOIF@ID_CONNECTION_GRAPH_CONNECTION_L@
CONST	SEGMENT
??_C@_0CE@DLIICOIF@ID_CONNECTION_GRAPH_CONNECTION_L@ DB 'ID_CONNECTION_GR'
	DB	'APH_CONNECTION_LOST', 00H			; `string'
CONST	ENDS
;	COMDAT ??_C@_0CD@GGDAHHGP@ID_CONNECTION_GRAPH_NEW_CONNECTI@
CONST	SEGMENT
??_C@_0CD@GGDAHHGP@ID_CONNECTION_GRAPH_NEW_CONNECTI@ DB 'ID_CONNECTION_GR'
	DB	'APH_NEW_CONNECTION', 00H			; `string'
CONST	ENDS
;	COMDAT ??_C@_0BL@MICHIKNA@ID_CONNECTION_GRAPH_UPDATE?$AA@
CONST	SEGMENT
??_C@_0BL@MICHIKNA@ID_CONNECTION_GRAPH_UPDATE?$AA@ DB 'ID_CONNECTION_GRAP'
	DB	'H_UPDATE', 00H				; `string'
CONST	ENDS
;	COMDAT ??_C@_0BK@CBGFOALB@ID_CONNECTION_GRAPH_REPLY?$AA@
CONST	SEGMENT
??_C@_0BK@CBGFOALB@ID_CONNECTION_GRAPH_REPLY?$AA@ DB 'ID_CONNECTION_GRAPH'
	DB	'_REPLY', 00H				; `string'
CONST	ENDS
;	COMDAT ??_C@_0BM@FBJKJKCM@ID_CONNECTION_GRAPH_REQUEST?$AA@
CONST	SEGMENT
??_C@_0BM@FBJKJKCM@ID_CONNECTION_GRAPH_REQUEST?$AA@ DB 'ID_CONNECTION_GRA'
	DB	'PH_REQUEST', 00H				; `string'
CONST	ENDS
;	COMDAT ??_C@_0CF@PGFGJODO@ID_REPLICA_MANAGER_DOWNLOAD_COMP@
CONST	SEGMENT
??_C@_0CF@PGFGJODO@ID_REPLICA_MANAGER_DOWNLOAD_COMP@ DB 'ID_REPLICA_MANAG'
	DB	'ER_DOWNLOAD_COMPLETE', 00H			; `string'
CONST	ENDS
;	COMDAT ??_C@_0BN@KOFKPAGO@ID_REPLICA_MANAGER_SERIALIZE?$AA@
CONST	SEGMENT
??_C@_0BN@KOFKPAGO@ID_REPLICA_MANAGER_SERIALIZE?$AA@ DB 'ID_REPLICA_MANAG'
	DB	'ER_SERIALIZE', 00H				; `string'
CONST	ENDS
;	COMDAT ??_C@_0CA@LPIJALAM@ID_REPLICA_MANAGER_SCOPE_CHANGE?$AA@
CONST	SEGMENT
??_C@_0CA@LPIJALAM@ID_REPLICA_MANAGER_SCOPE_CHANGE?$AA@ DB 'ID_REPLICA_MA'
	DB	'NAGER_SCOPE_CHANGE', 00H			; `string'
CONST	ENDS
;	COMDAT ??_C@_0BP@MNDNLFBI@ID_REPLICA_MANAGER_DESTRUCTION?$AA@
CONST	SEGMENT
??_C@_0BP@MNDNLFBI@ID_REPLICA_MANAGER_DESTRUCTION?$AA@ DB 'ID_REPLICA_MAN'
	DB	'AGER_DESTRUCTION', 00H			; `string'
CONST	ENDS
;	COMDAT ??_C@_0CA@LCHKDGHI@ID_REPLICA_MANAGER_CONSTRUCTION?$AA@
CONST	SEGMENT
??_C@_0CA@LCHKDGHI@ID_REPLICA_MANAGER_CONSTRUCTION?$AA@ DB 'ID_REPLICA_MA'
	DB	'NAGER_CONSTRUCTION', 00H			; `string'
CONST	ENDS
;	COMDAT ??_C@_0BE@EDJIHEMP@ID_TRANSPORT_STRING?$AA@
CONST	SEGMENT
??_C@_0BE@EDJIHEMP@ID_TRANSPORT_STRING?$AA@ DB 'ID_TRANSPORT_STRING', 00H ; `string'
CONST	ENDS
;	COMDAT ??_C@_0BE@DCOBFKAO@ID_ADVERTISE_SYSTEM?$AA@
CONST	SEGMENT
??_C@_0BE@DCOBFKAO@ID_ADVERTISE_SYSTEM?$AA@ DB 'ID_ADVERTISE_SYSTEM', 00H ; `string'
CONST	ENDS
;	COMDAT ??_C@_0CD@FEJBPNPE@ID_RELAYED_CONNECTION_NOTIFICATI@
CONST	SEGMENT
??_C@_0CD@FEJBPNPE@ID_RELAYED_CONNECTION_NOTIFICATI@ DB 'ID_RELAYED_CONNE'
	DB	'CTION_NOTIFICATION', 00H			; `string'
CONST	ENDS
;	COMDAT ??_C@_0BM@JFGOLOCJ@ID_MASTER_SERVER_SET_SERVER?$AA@
CONST	SEGMENT
??_C@_0BM@JFGOLOCJ@ID_MASTER_SERVER_SET_SERVER?$AA@ DB 'ID_MASTER_SERVER_'
	DB	'SET_SERVER', 00H				; `string'
CONST	ENDS
;	COMDAT ??_C@_0BP@HNPJOPFB@ID_MASTER_SERVER_UPDATE_SERVER?$AA@
CONST	SEGMENT
??_C@_0BP@HNPJOPFB@ID_MASTER_SERVER_UPDATE_SERVER?$AA@ DB 'ID_MASTER_SERV'
	DB	'ER_UPDATE_SERVER', 00H			; `string'
CONST	ENDS
;	COMDAT ??_C@_0BP@MKMEPNHC@ID_MASTER_SERVER_DELIST_SERVER?$AA@
CONST	SEGMENT
??_C@_0BP@MKMEPNHC@ID_MASTER_SERVER_DELIST_SERVER?$AA@ DB 'ID_MASTER_SERV'
	DB	'ER_DELIST_SERVER', 00H			; `string'
CONST	ENDS
;	COMDAT ??_C@_0BH@LHMIEMB@ID_QUERY_MASTER_SERVER?$AA@
CONST	SEGMENT
??_C@_0BH@LHMIEMB@ID_QUERY_MASTER_SERVER?$AA@ DB 'ID_QUERY_MASTER_SERVER', 00H ; `string'
CONST	ENDS
;	COMDAT ??_C@_0BI@KICLOPFI@ID_DDT_DOWNLOAD_REQUEST?$AA@
CONST	SEGMENT
??_C@_0BI@KICLOPFI@ID_DDT_DOWNLOAD_REQUEST?$AA@ DB 'ID_DDT_DOWNLOAD_REQUE'
	DB	'ST', 00H					; `string'
CONST	ENDS
;	COMDAT ??_C@_0BL@KJHOPFMB@ID_FILE_LIST_TRANSFER_FILE?$AA@
CONST	SEGMENT
??_C@_0BL@KJHOPFMB@ID_FILE_LIST_TRANSFER_FILE?$AA@ DB 'ID_FILE_LIST_TRANS'
	DB	'FER_FILE', 00H				; `string'
CONST	ENDS
;	COMDAT ??_C@_0BN@IGDLCBON@ID_FILE_LIST_TRANSFER_HEADER?$AA@
CONST	SEGMENT
??_C@_0BN@IGDLCBON@ID_FILE_LIST_TRANSFER_HEADER?$AA@ DB 'ID_FILE_LIST_TRA'
	DB	'NSFER_HEADER', 00H				; `string'
CONST	ENDS
;	COMDAT ??_C@_0BG@GHALBPPM@ID_REMOTE_STATIC_DATA?$AA@
CONST	SEGMENT
??_C@_0BG@GHALBPPM@ID_REMOTE_STATIC_DATA?$AA@ DB 'ID_REMOTE_STATIC_DATA', 00H ; `string'
CONST	ENDS
;	COMDAT ??_C@_0BO@PCFLNBOM@ID_REMOTE_EXISTING_CONNECTION?$AA@
CONST	SEGMENT
??_C@_0BO@PCFLNBOM@ID_REMOTE_EXISTING_CONNECTION?$AA@ DB 'ID_REMOTE_EXIST'
	DB	'ING_CONNECTION', 00H			; `string'
CONST	ENDS
;	COMDAT ??_C@_0CC@DKOFGNKO@ID_REMOTE_NEW_INCOMING_CONNECTIO@
CONST	SEGMENT
??_C@_0CC@DKOFGNKO@ID_REMOTE_NEW_INCOMING_CONNECTIO@ DB 'ID_REMOTE_NEW_IN'
	DB	'COMING_CONNECTION', 00H			; `string'
CONST	ENDS
;	COMDAT ??_C@_0BK@ECJBAFKF@ID_REMOTE_CONNECTION_LOST?$AA@
CONST	SEGMENT
??_C@_0BK@ECJBAFKF@ID_REMOTE_CONNECTION_LOST?$AA@ DB 'ID_REMOTE_CONNECTIO'
	DB	'N_LOST', 00H				; `string'
CONST	ENDS
;	COMDAT ??_C@_0CF@MPHOOKNC@ID_REMOTE_DISCONNECTION_NOTIFICA@
CONST	SEGMENT
??_C@_0CF@MPHOOKNC@ID_REMOTE_DISCONNECTION_NOTIFICA@ DB 'ID_REMOTE_DISCON'
	DB	'NECTION_NOTIFICATION', 00H			; `string'
CONST	ENDS
;	COMDAT ??_C@_0BI@CBOPHKEP@ID_RECEIVED_STATIC_DATA?$AA@
CONST	SEGMENT
??_C@_0BI@CBOPHKEP@ID_RECEIVED_STATIC_DATA?$AA@ DB 'ID_RECEIVED_STATIC_DA'
	DB	'TA', 00H					; `string'
CONST	ENDS
;	COMDAT ??_C@_07NPMLOMLA@ID_PONG?$AA@
CONST	SEGMENT
??_C@_07NPMLOMLA@ID_PONG?$AA@ DB 'ID_PONG', 00H		; `string'
CONST	ENDS
;	COMDAT ??_C@_0N@NCANPGBC@ID_TIMESTAMP?$AA@
CONST	SEGMENT
??_C@_0N@NCANPGBC@ID_TIMESTAMP?$AA@ DB 'ID_TIMESTAMP', 00H ; `string'
CONST	ENDS
;	COMDAT ??_C@_0BD@EJOHJAOK@ID_MODIFIED_PACKET?$AA@
CONST	SEGMENT
??_C@_0BD@EJOHJAOK@ID_MODIFIED_PACKET?$AA@ DB 'ID_MODIFIED_PACKET', 00H ; `string'
CONST	ENDS
;	COMDAT ??_C@_0BE@KANOLEPF@ID_INVALID_PASSWORD?$AA@
CONST	SEGMENT
??_C@_0BE@KANOLEPF@ID_INVALID_PASSWORD?$AA@ DB 'ID_INVALID_PASSWORD', 00H ; `string'
CONST	ENDS
;	COMDAT ??_C@_0BF@LPFHJJBD@ID_CONNECTION_BANNED?$AA@
CONST	SEGMENT
??_C@_0BF@LPFHJJBD@ID_CONNECTION_BANNED?$AA@ DB 'ID_CONNECTION_BANNED', 00H ; `string'
CONST	ENDS
;	COMDAT ??_C@_0BL@CJFJFIKJ@ID_RSA_PUBLIC_KEY_MISMATCH?$AA@
CONST	SEGMENT
??_C@_0BL@CJFJFIKJ@ID_RSA_PUBLIC_KEY_MISMATCH?$AA@ DB 'ID_RSA_PUBLIC_KEY_'
	DB	'MISMATCH', 00H				; `string'
CONST	ENDS
;	COMDAT ??_C@_0BD@NCMFHGA@ID_CONNECTION_LOST?$AA@
CONST	SEGMENT
??_C@_0BD@NCMFHGA@ID_CONNECTION_LOST?$AA@ DB 'ID_CONNECTION_LOST', 00H ; `string'
CONST	ENDS
;	COMDAT ??_C@_0BO@OLPHMLBO@ID_DISCONNECTION_NOTIFICATION?$AA@
CONST	SEGMENT
??_C@_0BO@OLPHMLBO@ID_DISCONNECTION_NOTIFICATION?$AA@ DB 'ID_DISCONNECTIO'
	DB	'N_NOTIFICATION', 00H			; `string'
CONST	ENDS
;	COMDAT ??_C@_0CA@MNODABPA@ID_NO_FREE_INCOMING_CONNECTIONS?$AA@
CONST	SEGMENT
??_C@_0CA@MNODABPA@ID_NO_FREE_INCOMING_CONNECTIONS?$AA@ DB 'ID_NO_FREE_IN'
	DB	'COMING_CONNECTIONS', 00H			; `string'
CONST	ENDS
;	COMDAT ??_C@_0BL@MABOBDFA@ID_NEW_INCOMING_CONNECTION?$AA@
CONST	SEGMENT
??_C@_0BL@MABOBDFA@ID_NEW_INCOMING_CONNECTION?$AA@ DB 'ID_NEW_INCOMING_CO'
	DB	'NNECTION', 00H				; `string'
CONST	ENDS
;	COMDAT ??_C@_0BN@LFFKEOPN@ID_CONNECTION_ATTEMPT_FAILED?$AA@
CONST	SEGMENT
??_C@_0BN@LFFKEOPN@ID_CONNECTION_ATTEMPT_FAILED?$AA@ DB 'ID_CONNECTION_AT'
	DB	'TEMPT_FAILED', 00H				; `string'
CONST	ENDS
;	COMDAT ??_C@_0BP@PLDMEGME@ID_CONNECTION_REQUEST_ACCEPTED?$AA@
CONST	SEGMENT
??_C@_0BP@PLDMEGME@ID_CONNECTION_REQUEST_ACCEPTED?$AA@ DB 'ID_CONNECTION_'
	DB	'REQUEST_ACCEPTED', 00H			; `string'
CONST	ENDS
;	COMDAT ??_C@_0BK@KGIHKJCF@ID_SET_RANDOM_NUMBER_SEED?$AA@
CONST	SEGMENT
??_C@_0BK@KGIHKJCF@ID_SET_RANDOM_NUMBER_SEED?$AA@ DB 'ID_SET_RANDOM_NUMBE'
	DB	'R_SEED', 00H				; `string'
CONST	ENDS
;	COMDAT ??_C@_0BD@PHIHKMHB@ID_BROADCAST_PINGS?$AA@
CONST	SEGMENT
??_C@_0BD@PHIHKMHB@ID_BROADCAST_PINGS?$AA@ DB 'ID_BROADCAST_PINGS', 00H ; `string'
CONST	ENDS
;	COMDAT ??_C@_0N@KHCNCPNO@ID_RPC_REPLY?$AA@
CONST	SEGMENT
??_C@_0N@KHCNCPNO@ID_RPC_REPLY?$AA@ DB 'ID_RPC_REPLY', 00H ; `string'
CONST	ENDS
;	COMDAT ??_C@_06ELGGPFBE@ID_RPC?$AA@
CONST	SEGMENT
??_C@_06ELGGPFBE@ID_RPC?$AA@ DB 'ID_RPC', 00H		; `string'
CONST	ENDS
;	COMDAT ??_C@_0BJ@LLANOCCH@ID_OPEN_CONNECTION_REPLY?$AA@
CONST	SEGMENT
??_C@_0BJ@LLANOCCH@ID_OPEN_CONNECTION_REPLY?$AA@ DB 'ID_OPEN_CONNECTION_R'
	DB	'EPLY', 00H					; `string'
CONST	ENDS
;	COMDAT ??_C@_0BL@JIIPEMPE@ID_OPEN_CONNECTION_REQUEST?$AA@
CONST	SEGMENT
??_C@_0BL@JIIPEMPE@ID_OPEN_CONNECTION_REQUEST?$AA@ DB 'ID_OPEN_CONNECTION'
	DB	'_REQUEST', 00H				; `string'
CONST	ENDS
;	COMDAT ??_C@_0BL@FBFKLGOF@ID_DETECT_LOST_CONNECTIONS?$AA@
CONST	SEGMENT
??_C@_0BL@FBFKLGOF@ID_DETECT_LOST_CONNECTIONS?$AA@ DB 'ID_DETECT_LOST_CON'
	DB	'NECTIONS', 00H				; `string'
CONST	ENDS
;	COMDAT ??_C@_0P@NFILCBGF@ID_RPC_MAPPING?$AA@
CONST	SEGMENT
??_C@_0P@NFILCBGF@ID_RPC_MAPPING?$AA@ DB 'ID_RPC_MAPPING', 00H ; `string'
CONST	ENDS
;	COMDAT ??_C@_0CD@KCOBHBDB@ID_SECURED_CONNECTION_CONFIRMATI@
CONST	SEGMENT
??_C@_0CD@KCOBHBDB@ID_SECURED_CONNECTION_CONFIRMATI@ DB 'ID_SECURED_CONNE'
	DB	'CTION_CONFIRMATION', 00H			; `string'
CONST	ENDS
;	COMDAT ??_C@_0BP@MDAKMCMB@ID_SECURED_CONNECTION_RESPONSE?$AA@
CONST	SEGMENT
??_C@_0BP@MDAKMCMB@ID_SECURED_CONNECTION_RESPONSE?$AA@ DB 'ID_SECURED_CON'
	DB	'NECTION_RESPONSE', 00H			; `string'
CONST	ENDS
;	COMDAT ??_C@_0BG@COPLDIAH@ID_CONNECTION_REQUEST?$AA@
CONST	SEGMENT
??_C@_0BG@COPLDIAH@ID_CONNECTION_REQUEST?$AA@ DB 'ID_CONNECTION_REQUEST', 00H ; `string'
CONST	ENDS
;	COMDAT ??_C@_0BH@GLCIPBBO@ID_REQUEST_STATIC_DATA?$AA@
CONST	SEGMENT
??_C@_0BH@GLCIPBBO@ID_REQUEST_STATIC_DATA?$AA@ DB 'ID_REQUEST_STATIC_DATA'
	DB	00H						; `string'
CONST	ENDS
;	COMDAT ??_C@_0BC@PJANOLB@ID_CONNECTED_PONG?$AA@
CONST	SEGMENT
??_C@_0BC@PJANOLB@ID_CONNECTED_PONG?$AA@ DB 'ID_CONNECTED_PONG', 00H ; `string'
CONST	ENDS
;	COMDAT ??_C@_0BJ@BJDIKKBI@ID_PING_OPEN_CONNECTIONS?$AA@
CONST	SEGMENT
??_C@_0BJ@BJDIKKBI@ID_PING_OPEN_CONNECTIONS?$AA@ DB 'ID_PING_OPEN_CONNECT'
	DB	'IONS', 00H					; `string'
CONST	ENDS
;	COMDAT ??_C@_07PKKALDGM@ID_PING?$AA@
CONST	SEGMENT
??_C@_07PKKALDGM@ID_PING?$AA@ DB 'ID_PING', 00H		; `string'
CONST	ENDS
;	COMDAT ??_C@_0BB@DBJOHLAF@ID_INTERNAL_PING?$AA@
CONST	SEGMENT
??_C@_0BB@DBJOHLAF@ID_INTERNAL_PING?$AA@ DB 'ID_INTERNAL_PING', 00H ; `string'
CONST	ENDS
;	COMDAT ??_C@_02DKCKIIND@?$CFs?$AA@
CONST	SEGMENT
??_C@_02DKCKIIND@?$CFs?$AA@ DB '%s', 00H		; `string'
CONST	ENDS
;	COMDAT ??_C@_0CD@EJCGOEJ@?$CFs?0Nrm?0?$CFi?0?$CFi?0?$CFs?0?$CFi?0?$CFi?0?$CFu?3?$CFi?0?$CFu?3?$CF@
CONST	SEGMENT
??_C@_0CD@EJCGOEJ@?$CFs?0Nrm?0?$CFi?0?$CFi?0?$CFs?0?$CFi?0?$CFi?0?$CFu?3?$CFi?0?$CFu?3?$CF@ DB '%'
	DB	's,Nrm,%i,%i,%s,%i,%i,%u:%i,%u:%i', 0aH, 00H	; `string'
CONST	ENDS
;	COMDAT ??_C@_0CH@LPNMNBMM@?$CFs?0Nrm?0?$CF5i?0?$CF5i?0?$CF5i?0?$CF5i?0?$CFi?0?$CFu?3?$CFi?0@
CONST	SEGMENT
??_C@_0CH@LPNMNBMM@?$CFs?0Nrm?0?$CF5i?0?$CF5i?0?$CF5i?0?$CF5i?0?$CFi?0?$CFu?3?$CFi?0@ DB '%'
	DB	's,Nrm,%5i,%5i,%5i,%5i,%i,%u:%i,%u:%i', 0aH, 00H ; `string'
CONST	ENDS
;	COMDAT ??_C@_0CG@ODOCOKGF@?$CFs?0Rpc?0?$CF5i?0?$CF5i?0?$CFs?0?$CF5i?0?$CFi?0?$CFu?3?$CFi?0?$CF@
CONST	SEGMENT
??_C@_0CG@ODOCOKGF@?$CFs?0Rpc?0?$CF5i?0?$CF5i?0?$CFs?0?$CF5i?0?$CFi?0?$CFu?3?$CFi?0?$CF@ DB '%'
	DB	's,Rpc,%5i,%5i,%s,%5i,%i,%u:%i,%u:%i', 0aH, 00H ; `string'
CONST	ENDS
;	COMDAT ??_C@_0CG@NCBDBKCL@?$CFs?0RpT?0?$CF5i?0?$CF5i?0?$CFs?0?$CF5i?0?$CFi?0?$CFu?3?$CFi?0?$CF@
CONST	SEGMENT
??_C@_0CG@NCBDBKCL@?$CFs?0RpT?0?$CF5i?0?$CF5i?0?$CFs?0?$CF5i?0?$CFi?0?$CFu?3?$CFi?0?$CF@ DB '%'
	DB	's,RpT,%5i,%5i,%s,%5i,%i,%u:%i,%u:%i', 0aH, 00H ; `string'
CONST	ENDS
;	COMDAT ??_C@_09NDGFAPBP@?$FLUNKNOWN?$FN?$AA@
CONST	SEGMENT
??_C@_09NDGFAPBP@?$FLUNKNOWN?$FN?$AA@ DB '[UNKNOWN]', 00H ; `string'
CONST	ENDS
;	COMDAT ??_C@_0CD@LCDEAAHN@?$CFs?0Tms?0?$CFi?0?$CFi?0?$CFs?0?$CFi?0?$CFi?0?$CFu?3?$CFi?0?$CFu?3?$CF@
CONST	SEGMENT
??_C@_0CD@LCDEAAHN@?$CFs?0Tms?0?$CFi?0?$CFi?0?$CFs?0?$CFi?0?$CFi?0?$CFu?3?$CFi?0?$CFu?3?$CF@ DB '%'
	DB	's,Tms,%i,%i,%s,%i,%i,%u:%i,%u:%i', 0aH, 00H	; `string'
CONST	ENDS
;	COMDAT ??_C@_0CH@FIIDFFMG@?$CFs?0Tms?0?$CF5i?0?$CF5i?0?$CF5i?0?$CF5i?0?$CFi?0?$CFu?3?$CFi?0@
CONST	SEGMENT
??_C@_0CH@FIIDFFMG@?$CFs?0Tms?0?$CF5i?0?$CF5i?0?$CF5i?0?$CF5i?0?$CFi?0?$CFu?3?$CFi?0@ DB '%'
	DB	's,Tms,%5i,%5i,%5i,%5i,%i,%u:%i,%u:%i', 0aH, 00H ; `string'
CONST	ENDS
;	COMDAT ??_C@_03IMELEMMD@Rcv?$AA@
CONST	SEGMENT
??_C@_03IMELEMMD@Rcv?$AA@ DB 'Rcv', 00H			; `string'
CONST	ENDS
;	COMDAT ??_C@_03EENLMICG@Snd?$AA@
CONST	SEGMENT
??_C@_03EENLMICG@Snd?$AA@ DB 'Snd', 00H			; `string'
CONST	ENDS
;	COMDAT ??_C@_0CG@HEOPLHNJ@Rcv?0Raw?0NIL?0NIL?0?$CFs?0?$CFi?0?$CFi?0?$CFu?3?$CFi?0?$CF@
CONST	SEGMENT
??_C@_0CG@HEOPLHNJ@Rcv?0Raw?0NIL?0NIL?0?$CFs?0?$CFi?0?$CFi?0?$CFu?3?$CFi?0?$CF@ DB 'R'
	DB	'cv,Raw,NIL,NIL,%s,%i,%i,%u:%i,%u:%i', 0aH, 00H ; `string'
CONST	ENDS
;	COMDAT ??_C@_0CM@BNINLJOL@Rcv?0Raw?0?5?5NIL?0?5?5NIL?0?$CF5i?0?$CF5i?0?$CFi?0?$CF@
CONST	SEGMENT
??_C@_0CM@BNINLJOL@Rcv?0Raw?0?5?5NIL?0?5?5NIL?0?$CF5i?0?$CF5i?0?$CFi?0?$CF@ DB 'R'
	DB	'cv,Raw,  NIL,  NIL,%5i,%5i,%i,%u:%i,%u:%i', 0aH, 00H ; `string'
CONST	ENDS
;	COMDAT ??_C@_0EK@EDMFIPJD@S?$HMR?0Typ?0Pckt?$CD?0Frm?5?$CD?0PktID?0BitLn?0@
CONST	SEGMENT
??_C@_0EK@EDMFIPJD@S?$HMR?0Typ?0Pckt?$CD?0Frm?5?$CD?0PktID?0BitLn?0@ DB 'S'
	DB	'|R,Typ,Pckt#,Frm #,PktID,BitLn,Time     ,Local IP:Port   ,Rem'
	DB	'oteIP:Port', 0aH, 00H			; `string'
CONST	ENDS
;	COMDAT ??_C@_0CG@NLLDGLNC@Snd?0Raw?0NIL?0NIL?0?$CFs?0?$CFi?0?$CFi?0?$CFu?3?$CFi?0?$CF@
CONST	SEGMENT
??_C@_0CG@NLLDGLNC@Snd?0Raw?0NIL?0NIL?0?$CFs?0?$CFi?0?$CFi?0?$CFu?3?$CFi?0?$CF@ DB 'S'
	DB	'nd,Raw,NIL,NIL,%s,%i,%i,%u:%i,%u:%i', 0aH, 00H ; `string'
CONST	ENDS
;	COMDAT ??_C@_0CM@GILAHBDH@Snd?0Raw?0?5?5NIL?0?5?5NIL?0?$CF5i?0?$CF5i?0?$CFi?0?$CF@
CONST	SEGMENT
??_C@_0CM@GILAHBDH@Snd?0Raw?0?5?5NIL?0?5?5NIL?0?$CF5i?0?$CF5i?0?$CFi?0?$CF@ DB 'S'
	DB	'nd,Raw,  NIL,  NIL,%5i,%5i,%i,%u:%i,%u:%i', 0aH, 00H ; `string'
CONST	ENDS
;	COMDAT ??_7PacketLogger@@6B@
CONST	SEGMENT
??_7PacketLogger@@6B@ DD FLAT:??_R4PacketLogger@@6B@	; PacketLogger::`vftable'
	DD	FLAT:?OnAttach@PacketLogger@@UAEXPAVRakPeerInterface@@@Z
	DD	FLAT:?OnDetach@PluginInterface@@UAEXPAVRakPeerInterface@@@Z
	DD	FLAT:?OnInitialize@PluginInterface@@UAEXPAVRakPeerInterface@@@Z
	DD	FLAT:?Update@PluginInterface@@UAEXPAVRakPeerInterface@@@Z
	DD	FLAT:?OnReceive@PluginInterface@@UAE?AW4PluginReceiveResult@@PAVRakPeerInterface@@PAUPacket@@@Z
	DD	FLAT:?OnDisconnect@PluginInterface@@UAEXPAVRakPeerInterface@@@Z
	DD	FLAT:?OnCloseConnection@PluginInterface@@UAEXPAVRakPeerInterface@@UPlayerID@@@Z
	DD	FLAT:?OnDirectSocketSend@PacketLogger@@UAEXPBDIUPlayerID@@@Z
	DD	FLAT:?OnDirectSocketReceive@PacketLogger@@UAEXPBDIUPlayerID@@@Z
	DD	FLAT:?OnInternalPacket@PacketLogger@@UAEXPAUInternalPacket@@IUPlayerID@@I_N@Z
	DD	FLAT:??_EPacketLogger@@UAEPAXI@Z
	DD	FLAT:?LogHeader@PacketLogger@@UAEXXZ
	DD	FLAT:?WriteLog@PacketLogger@@UAEXPBD@Z
	DD	FLAT:?SetPrintID@PacketLogger@@UAEX_N@Z
	DD	FLAT:?SetPrintAcks@PacketLogger@@UAEX_N@Z
	DD	FLAT:?UserIDTOString@PacketLogger@@MAEPADE@Z
CONST	ENDS
;	COMDAT ??_7PluginInterface@@6B@
CONST	SEGMENT
??_7PluginInterface@@6B@ DD FLAT:??_R4PluginInterface@@6B@ ; PluginInterface::`vftable'
	DD	FLAT:?OnAttach@PluginInterface@@UAEXPAVRakPeerInterface@@@Z
	DD	FLAT:?OnDetach@PluginInterface@@UAEXPAVRakPeerInterface@@@Z
	DD	FLAT:?OnInitialize@PluginInterface@@UAEXPAVRakPeerInterface@@@Z
	DD	FLAT:?Update@PluginInterface@@UAEXPAVRakPeerInterface@@@Z
	DD	FLAT:?OnReceive@PluginInterface@@UAE?AW4PluginReceiveResult@@PAVRakPeerInterface@@PAUPacket@@@Z
	DD	FLAT:?OnDisconnect@PluginInterface@@UAEXPAVRakPeerInterface@@@Z
	DD	FLAT:?OnCloseConnection@PluginInterface@@UAEXPAVRakPeerInterface@@UPlayerID@@@Z
	DD	FLAT:?OnDirectSocketSend@PluginInterface@@UAEXPBDIUPlayerID@@@Z
	DD	FLAT:?OnDirectSocketReceive@PluginInterface@@UAEXPBDIUPlayerID@@@Z
	DD	FLAT:?OnInternalPacket@PluginInterface@@UAEXPAUInternalPacket@@IUPlayerID@@I_N@Z
CONST	ENDS
;	COMDAT xdata$x
xdata$x	SEGMENT
__unwindtable$?OnInternalPacket@PacketLogger@@UAEXPAUInternalPacket@@IUPlayerID@@I_N@Z DD 0ffffffffH
	DD	FLAT:__unwindfunclet$?OnInternalPacket@PacketLogger@@UAEXPAUInternalPacket@@IUPlayerID@@I_N@Z$0
__ehfuncinfo$?OnInternalPacket@PacketLogger@@UAEXPAUInternalPacket@@IUPlayerID@@I_N@Z DD 019930522H
	DD	01H
	DD	FLAT:__unwindtable$?OnInternalPacket@PacketLogger@@UAEXPAUInternalPacket@@IUPlayerID@@I_N@Z
	DD	2 DUP(00H)
	DD	2 DUP(00H)
	DD	00H
	DD	01H
xdata$x	ENDS
; Function compile flags: /Odtp /RTCsu /ZI
; File z:\sampsrc\02xu1\raknet\bitstream.h
;	COMDAT ??$ReadCompressed@I@BitStream@RakNet@@QAE_NAAI@Z
_TEXT	SEGMENT
_this$ = -8						; size = 4
_var$ = 8						; size = 4
??$ReadCompressed@I@BitStream@RakNet@@QAE_NAAI@Z PROC	; RakNet::BitStream::ReadCompressed<unsigned int>, COMDAT
; _this$ = ecx

; 1080 : 	{

	push	ebp
	mov	ebp, esp
	sub	esp, 204				; 000000ccH
	push	ebx
	push	esi
	push	edi
	push	ecx
	lea	edi, DWORD PTR [ebp-204]
	mov	ecx, 51					; 00000033H
	mov	eax, -858993460				; ccccccccH
	rep stosd
	pop	ecx
	mov	DWORD PTR _this$[ebp], ecx

; 1081 : #ifdef _MSC_VER
; 1082 : #pragma warning(disable:4127)   // conditional expression is constant
; 1083 : #endif
; 1084 : 		if (sizeof(var)==1)

	xor	eax, eax
	je	SHORT $LN2@ReadCompre

; 1085 : 			return ReadCompressed( ( unsigned char* ) &var, sizeof(templateType) * 8, true );

	push	1
	push	32					; 00000020H
	mov	eax, DWORD PTR _var$[ebp]
	push	eax
	mov	ecx, DWORD PTR _this$[ebp]
	call	?ReadCompressed@BitStream@RakNet@@AAE_NPAEH_N@Z ; RakNet::BitStream::ReadCompressed
	jmp	SHORT $LN3@ReadCompre

; 1086 : 		else

	jmp	SHORT $LN3@ReadCompre
$LN2@ReadCompre:

; 1087 : 		{
; 1088 : #ifndef __BITSTREAM_NATIVE_END
; 1089 : 			if (DoEndianSwap())
; 1090 : 			{
; 1091 : 				unsigned char output[sizeof(templateType)];
; 1092 : 				if (ReadCompressed( ( unsigned char* ) output, sizeof(templateType) * 8, true ))
; 1093 : 				{
; 1094 : 					ReverseBytes(output, (unsigned char*)&var, sizeof(templateType));
; 1095 : 					return true;
; 1096 : 				}
; 1097 : 				return false;
; 1098 : 			}
; 1099 : 			else
; 1100 : #endif
; 1101 : 				return ReadCompressed( ( unsigned char* ) & var, sizeof(templateType) * 8, true );

	push	1
	push	32					; 00000020H
	mov	eax, DWORD PTR _var$[ebp]
	push	eax
	mov	ecx, DWORD PTR _this$[ebp]
	call	?ReadCompressed@BitStream@RakNet@@AAE_NPAEH_N@Z ; RakNet::BitStream::ReadCompressed
$LN3@ReadCompre:

; 1102 : 		}
; 1103 : 	}

	pop	edi
	pop	esi
	pop	ebx
	add	esp, 204				; 000000ccH
	cmp	ebp, esp
	call	__RTC_CheckEsp
	mov	esp, ebp
	pop	ebp
	ret	4
??$ReadCompressed@I@BitStream@RakNet@@QAE_NAAI@Z ENDP	; RakNet::BitStream::ReadCompressed<unsigned int>
_TEXT	ENDS
; Function compile flags: /Odtp /RTCsu /ZI
; File z:\sampsrc\02xu1\raknet\bitstream.h
;	COMDAT ??$ReadCompressed@E@BitStream@RakNet@@QAE_NAAE@Z
_TEXT	SEGMENT
_this$ = -8						; size = 4
_var$ = 8						; size = 4
??$ReadCompressed@E@BitStream@RakNet@@QAE_NAAE@Z PROC	; RakNet::BitStream::ReadCompressed<unsigned char>, COMDAT
; _this$ = ecx

; 1080 : 	{

	push	ebp
	mov	ebp, esp
	sub	esp, 204				; 000000ccH
	push	ebx
	push	esi
	push	edi
	push	ecx
	lea	edi, DWORD PTR [ebp-204]
	mov	ecx, 51					; 00000033H
	mov	eax, -858993460				; ccccccccH
	rep stosd
	pop	ecx
	mov	DWORD PTR _this$[ebp], ecx

; 1081 : #ifdef _MSC_VER
; 1082 : #pragma warning(disable:4127)   // conditional expression is constant
; 1083 : #endif
; 1084 : 		if (sizeof(var)==1)

	mov	eax, 1
	test	eax, eax
	je	SHORT $LN2@ReadCompre

; 1085 : 			return ReadCompressed( ( unsigned char* ) &var, sizeof(templateType) * 8, true );

	push	1
	push	8
	mov	eax, DWORD PTR _var$[ebp]
	push	eax
	mov	ecx, DWORD PTR _this$[ebp]
	call	?ReadCompressed@BitStream@RakNet@@AAE_NPAEH_N@Z ; RakNet::BitStream::ReadCompressed
	jmp	SHORT $LN3@ReadCompre

; 1086 : 		else

	jmp	SHORT $LN3@ReadCompre
$LN2@ReadCompre:

; 1087 : 		{
; 1088 : #ifndef __BITSTREAM_NATIVE_END
; 1089 : 			if (DoEndianSwap())
; 1090 : 			{
; 1091 : 				unsigned char output[sizeof(templateType)];
; 1092 : 				if (ReadCompressed( ( unsigned char* ) output, sizeof(templateType) * 8, true ))
; 1093 : 				{
; 1094 : 					ReverseBytes(output, (unsigned char*)&var, sizeof(templateType));
; 1095 : 					return true;
; 1096 : 				}
; 1097 : 				return false;
; 1098 : 			}
; 1099 : 			else
; 1100 : #endif
; 1101 : 				return ReadCompressed( ( unsigned char* ) & var, sizeof(templateType) * 8, true );

	push	1
	push	8
	mov	eax, DWORD PTR _var$[ebp]
	push	eax
	mov	ecx, DWORD PTR _this$[ebp]
	call	?ReadCompressed@BitStream@RakNet@@AAE_NPAEH_N@Z ; RakNet::BitStream::ReadCompressed
$LN3@ReadCompre:

; 1102 : 		}
; 1103 : 	}

	pop	edi
	pop	esi
	pop	ebx
	add	esp, 204				; 000000ccH
	cmp	ebp, esp
	call	__RTC_CheckEsp
	mov	esp, ebp
	pop	ebp
	ret	4
??$ReadCompressed@E@BitStream@RakNet@@QAE_NAAE@Z ENDP	; RakNet::BitStream::ReadCompressed<unsigned char>
_TEXT	ENDS
; Function compile flags: /Odtp /RTCsu /ZI
; File z:\sampsrc\02xu1\raknet\bitstream.h
;	COMDAT ??$Read@_N@BitStream@RakNet@@QAE_NAA_N@Z
_TEXT	SEGMENT
tv82 = -208						; size = 4
_this$ = -8						; size = 4
_var$ = 8						; size = 4
??$Read@_N@BitStream@RakNet@@QAE_NAA_N@Z PROC		; RakNet::BitStream::Read<bool>, COMDAT
; _this$ = ecx

; 1019 : 	{

	push	ebp
	mov	ebp, esp
	sub	esp, 208				; 000000d0H
	push	ebx
	push	esi
	push	edi
	push	ecx
	lea	edi, DWORD PTR [ebp-208]
	mov	ecx, 52					; 00000034H
	mov	eax, -858993460				; ccccccccH
	rep stosd
	pop	ecx
	mov	DWORD PTR _this$[ebp], ecx

; 1020 : 		if ( readOffset + 1 > numberOfBitsUsed )

	mov	eax, DWORD PTR _this$[ebp]
	mov	ecx, DWORD PTR [eax+8]
	add	ecx, 1
	mov	edx, DWORD PTR _this$[ebp]
	cmp	ecx, DWORD PTR [edx]
	jle	SHORT $LN3@Read

; 1021 : 			return false;

	xor	al, al
	jmp	SHORT $LN4@Read
$LN3@Read:

; 1022 : 
; 1023 : 		if ( data[ readOffset >> 3 ] & ( 0x80 >> ( readOffset++ % 8 ) ) )   // Is it faster to just write it out here?

	mov	eax, DWORD PTR _this$[ebp]
	mov	ecx, DWORD PTR [eax+8]
	sar	ecx, 3
	mov	edx, DWORD PTR _this$[ebp]
	mov	eax, DWORD PTR [edx+12]
	movzx	edx, BYTE PTR [eax+ecx]
	mov	eax, DWORD PTR _this$[ebp]
	mov	ecx, DWORD PTR [eax+8]
	and	ecx, -2147483641			; 80000007H
	jns	SHORT $LN6@Read
	dec	ecx
	or	ecx, -8					; fffffff8H
	inc	ecx
$LN6@Read:
	mov	eax, 128				; 00000080H
	sar	eax, cl
	and	edx, eax
	mov	DWORD PTR tv82[ebp], edx
	mov	ecx, DWORD PTR _this$[ebp]
	mov	edx, DWORD PTR [ecx+8]
	add	edx, 1
	mov	eax, DWORD PTR _this$[ebp]
	mov	DWORD PTR [eax+8], edx
	cmp	DWORD PTR tv82[ebp], 0
	je	SHORT $LN2@Read

; 1024 : 			var = true;

	mov	eax, DWORD PTR _var$[ebp]
	mov	BYTE PTR [eax], 1

; 1025 : 		else

	jmp	SHORT $LN1@Read
$LN2@Read:

; 1026 : 			var = false;

	mov	eax, DWORD PTR _var$[ebp]
	mov	BYTE PTR [eax], 0
$LN1@Read:

; 1027 : 
; 1028 : 		return true;

	mov	al, 1
$LN4@Read:

; 1029 : 	}

	pop	edi
	pop	esi
	pop	ebx
	mov	esp, ebp
	pop	ebp
	ret	4
??$Read@_N@BitStream@RakNet@@QAE_NAA_N@Z ENDP		; RakNet::BitStream::Read<bool>
_TEXT	ENDS
; Function compile flags: /Odtp /RTCsu /ZI
;	COMDAT ??_GPacketLogger@@UAEPAXI@Z
_TEXT	SEGMENT
_this$ = -8						; size = 4
___flags$ = 8						; size = 4
??_GPacketLogger@@UAEPAXI@Z PROC			; PacketLogger::`scalar deleting destructor', COMDAT
; _this$ = ecx
	push	ebp
	mov	ebp, esp
	sub	esp, 204				; 000000ccH
	push	ebx
	push	esi
	push	edi
	push	ecx
	lea	edi, DWORD PTR [ebp-204]
	mov	ecx, 51					; 00000033H
	mov	eax, -858993460				; ccccccccH
	rep stosd
	pop	ecx
	mov	DWORD PTR _this$[ebp], ecx
	mov	ecx, DWORD PTR _this$[ebp]
	call	??1PacketLogger@@UAE@XZ			; PacketLogger::~PacketLogger
	mov	eax, DWORD PTR ___flags$[ebp]
	and	eax, 1
	je	SHORT $LN1@scalar
	mov	eax, DWORD PTR _this$[ebp]
	push	eax
	call	??3@YAXPAX@Z				; operator delete
	add	esp, 4
$LN1@scalar:
	mov	eax, DWORD PTR _this$[ebp]
	pop	edi
	pop	esi
	pop	ebx
	add	esp, 204				; 000000ccH
	cmp	ebp, esp
	call	__RTC_CheckEsp
	mov	esp, ebp
	pop	ebp
	ret	4
??_GPacketLogger@@UAEPAXI@Z ENDP			; PacketLogger::`scalar deleting destructor'
_TEXT	ENDS
; Function compile flags: /Odtp /RTCsu /ZI
; File z:\sampsrc\02xu1\raknet\packetlogger.cpp
;	COMDAT ?UserIDTOString@PacketLogger@@MAEPADE@Z
_TEXT	SEGMENT
_this$ = -8						; size = 4
_Id$ = 8						; size = 1
?UserIDTOString@PacketLogger@@MAEPADE@Z PROC		; PacketLogger::UserIDTOString, COMDAT
; _this$ = ecx

; 304  : {

	push	ebp
	mov	ebp, esp
	sub	esp, 204				; 000000ccH
	push	ebx
	push	esi
	push	edi
	push	ecx
	lea	edi, DWORD PTR [ebp-204]
	mov	ecx, 51					; 00000033H
	mov	eax, -858993460				; ccccccccH
	rep stosd
	pop	ecx
	mov	DWORD PTR _this$[ebp], ecx

; 305  : 	// Users should override this
; 306  : 	return "Unknown";

	mov	eax, OFFSET ??_C@_07NBCGADJA@Unknown?$AA@

; 307  : }

	pop	edi
	pop	esi
	pop	ebx
	mov	esp, ebp
	pop	ebp
	ret	4
?UserIDTOString@PacketLogger@@MAEPADE@Z ENDP		; PacketLogger::UserIDTOString
_TEXT	ENDS
; Function compile flags: /Odtp /RTCsu /ZI
; File z:\sampsrc\02xu1\raknet\packetlogger.cpp
;	COMDAT ?BaseIDTOString@PacketLogger@@IAEPADE@Z
_TEXT	SEGMENT
_IDTable$ = -388					; size = 368
_this$ = -12						; size = 4
__$ArrayPad$ = -4					; size = 4
_Id$ = 8						; size = 1
?BaseIDTOString@PacketLogger@@IAEPADE@Z PROC		; PacketLogger::BaseIDTOString, COMDAT
; _this$ = ecx

; 210  : {

	push	ebp
	mov	ebp, esp
	sub	esp, 584				; 00000248H
	push	ebx
	push	esi
	push	edi
	push	ecx
	lea	edi, DWORD PTR [ebp-584]
	mov	ecx, 146				; 00000092H
	mov	eax, -858993460				; ccccccccH
	rep stosd
	pop	ecx
	mov	eax, DWORD PTR ___security_cookie
	xor	eax, ebp
	mov	DWORD PTR __$ArrayPad$[ebp], eax
	mov	DWORD PTR _this$[ebp], ecx

; 211  : 	if (Id >= ID_RESERVED9)

	movzx	eax, BYTE PTR _Id$[ebp]
	cmp	eax, 92					; 0000005cH
	jl	SHORT $LN1@BaseIDTOSt

; 212  :         return 0;

	xor	eax, eax
	jmp	$LN2@BaseIDTOSt
$LN1@BaseIDTOSt:

; 213  : 
; 214  : 	const char *IDTable[(int)ID_RESERVED9]=
; 215  : 	{
; 216  : 		"ID_INTERNAL_PING",
; 217  : 			"ID_PING",
; 218  : 			"ID_PING_OPEN_CONNECTIONS",
; 219  : 			"ID_CONNECTED_PONG",
; 220  : 			"ID_REQUEST_STATIC_DATA",
; 221  : 			"ID_CONNECTION_REQUEST",
; 222  : 			"ID_SECURED_CONNECTION_RESPONSE",
; 223  : 			"ID_SECURED_CONNECTION_CONFIRMATION",
; 224  : 			"ID_RPC_MAPPING",
; 225  : 			"ID_DETECT_LOST_CONNECTIONS",
; 226  : 			"ID_OPEN_CONNECTION_REQUEST",
; 227  : 			"ID_OPEN_CONNECTION_REPLY",
; 228  : 			"ID_RPC",
; 229  : 			"ID_RPC_REPLY",
; 230  : 			"ID_BROADCAST_PINGS",
; 231  : 			"ID_SET_RANDOM_NUMBER_SEED",
; 232  : 			"ID_CONNECTION_REQUEST_ACCEPTED",
; 233  : 			"ID_CONNECTION_ATTEMPT_FAILED",
; 234  : 			"ID_NEW_INCOMING_CONNECTION",
; 235  : 			"ID_NO_FREE_INCOMING_CONNECTIONS",
; 236  : 			"ID_DISCONNECTION_NOTIFICATION",
; 237  : 			"ID_CONNECTION_LOST",
; 238  : 			"ID_RSA_PUBLIC_KEY_MISMATCH",
; 239  : 			"ID_CONNECTION_BANNED",
; 240  : 			"ID_INVALID_PASSWORD",
; 241  : 			"ID_MODIFIED_PACKET",
; 242  : 			"ID_TIMESTAMP",
; 243  : 			"ID_PONG",
; 244  : 			"ID_RECEIVED_STATIC_DATA",
; 245  : 			"ID_REMOTE_DISCONNECTION_NOTIFICATION",
; 246  : 			"ID_REMOTE_CONNECTION_LOST",
; 247  : 			"ID_REMOTE_NEW_INCOMING_CONNECTION",
; 248  : 			"ID_REMOTE_EXISTING_CONNECTION",
; 249  : 			"ID_REMOTE_STATIC_DATA",
; 250  : 			"ID_FILE_LIST_TRANSFER_HEADER",
; 251  : 			"ID_FILE_LIST_TRANSFER_FILE",
; 252  : 			"ID_DDT_DOWNLOAD_REQUEST",
; 253  : 			"ID_QUERY_MASTER_SERVER",
; 254  : 			"ID_MASTER_SERVER_DELIST_SERVER",
; 255  : 			"ID_MASTER_SERVER_UPDATE_SERVER",
; 256  : 			"ID_MASTER_SERVER_SET_SERVER",
; 257  : 			"ID_RELAYED_CONNECTION_NOTIFICATION",
; 258  : 			"ID_ADVERTISE_SYSTEM",
; 259  : 			"ID_TRANSPORT_STRING",
; 260  : 			"ID_REPLICA_MANAGER_CONSTRUCTION",
; 261  : 			"ID_REPLICA_MANAGER_DESTRUCTION",
; 262  : 			"ID_REPLICA_MANAGER_SCOPE_CHANGE",
; 263  : 			"ID_REPLICA_MANAGER_SERIALIZE",
; 264  : 			"ID_REPLICA_MANAGER_DOWNLOAD_COMPLETE",
; 265  : 			"ID_CONNECTION_GRAPH_REQUEST",
; 266  : 			"ID_CONNECTION_GRAPH_REPLY",
; 267  : 			"ID_CONNECTION_GRAPH_UPDATE",
; 268  : 			"ID_CONNECTION_GRAPH_NEW_CONNECTION",
; 269  : 			"ID_CONNECTION_GRAPH_CONNECTION_LOST",
; 270  : 			"ID_CONNECTION_GRAPH_DISCONNECTION_NOTIFICATION",
; 271  : 			"ID_ROUTE_AND_MULTICAST",
; 272  : 			"ID_RAKVOICE_OPEN_CHANNEL_REQUEST",
; 273  : 			"ID_RAKVOICE_OPEN_CHANNEL_REPLY",
; 274  : 			"ID_RAKVOICE_CLOSE_CHANNEL",
; 275  : 			"ID_RAKVOICE_DATA",
; 276  : 			"ID_AUTOPATCHER_GET_CHANGELIST_SINCE_DATE",
; 277  : 			"ID_AUTOPATCHER_CREATION_LIST",
; 278  : 			"ID_AUTOPATCHER_DELETION_LIST",
; 279  : 			"ID_AUTOPATCHER_GET_PATCH",
; 280  : 			"ID_AUTOPATCHER_PATCH_LIST",
; 281  : 			"ID_AUTOPATCHER_REPOSITORY_FATAL_ERROR",
; 282  : 			"ID_AUTOPATCHER_FINISHED",
; 283  : 			"ID_AUTOPATCHER_RESTART_APPLICATION",
; 284  : 			"ID_NAT_PUNCHTHROUGH_REQUEST",
; 285  : 			"ID_NAT_TARGET_NOT_CONNECTED",
; 286  : 			"ID_NAT_TARGET_CONNECTION_LOST",
; 287  : 			"ID_NAT_CONNECT_AT_TIME",
; 288  : 			"ID_NAT_SEND_OFFLINE_MESSAGE_AT_TIME",
; 289  : 			"ID_DATABASE_QUERY_REQUEST",
; 290  : 			"ID_DATABASE_UPDATE_ROW",
; 291  : 			"ID_DATABASE_REMOVE_ROW",
; 292  : 			"ID_DATABASE_QUERY_REPLY",
; 293  : 			"ID_DATABASE_UNKNOWN_TABLE",
; 294  : 			"ID_DATABASE_INCORRECT_PASSWORD",
; 295  : 
; 296  : 	};

	mov	DWORD PTR _IDTable$[ebp], OFFSET ??_C@_0BB@DBJOHLAF@ID_INTERNAL_PING?$AA@
	mov	DWORD PTR _IDTable$[ebp+4], OFFSET ??_C@_07PKKALDGM@ID_PING?$AA@
	mov	DWORD PTR _IDTable$[ebp+8], OFFSET ??_C@_0BJ@BJDIKKBI@ID_PING_OPEN_CONNECTIONS?$AA@
	mov	DWORD PTR _IDTable$[ebp+12], OFFSET ??_C@_0BC@PJANOLB@ID_CONNECTED_PONG?$AA@
	mov	DWORD PTR _IDTable$[ebp+16], OFFSET ??_C@_0BH@GLCIPBBO@ID_REQUEST_STATIC_DATA?$AA@
	mov	DWORD PTR _IDTable$[ebp+20], OFFSET ??_C@_0BG@COPLDIAH@ID_CONNECTION_REQUEST?$AA@
	mov	DWORD PTR _IDTable$[ebp+24], OFFSET ??_C@_0BP@MDAKMCMB@ID_SECURED_CONNECTION_RESPONSE?$AA@
	mov	DWORD PTR _IDTable$[ebp+28], OFFSET ??_C@_0CD@KCOBHBDB@ID_SECURED_CONNECTION_CONFIRMATI@
	mov	DWORD PTR _IDTable$[ebp+32], OFFSET ??_C@_0P@NFILCBGF@ID_RPC_MAPPING?$AA@
	mov	DWORD PTR _IDTable$[ebp+36], OFFSET ??_C@_0BL@FBFKLGOF@ID_DETECT_LOST_CONNECTIONS?$AA@
	mov	DWORD PTR _IDTable$[ebp+40], OFFSET ??_C@_0BL@JIIPEMPE@ID_OPEN_CONNECTION_REQUEST?$AA@
	mov	DWORD PTR _IDTable$[ebp+44], OFFSET ??_C@_0BJ@LLANOCCH@ID_OPEN_CONNECTION_REPLY?$AA@
	mov	DWORD PTR _IDTable$[ebp+48], OFFSET ??_C@_06ELGGPFBE@ID_RPC?$AA@
	mov	DWORD PTR _IDTable$[ebp+52], OFFSET ??_C@_0N@KHCNCPNO@ID_RPC_REPLY?$AA@
	mov	DWORD PTR _IDTable$[ebp+56], OFFSET ??_C@_0BD@PHIHKMHB@ID_BROADCAST_PINGS?$AA@
	mov	DWORD PTR _IDTable$[ebp+60], OFFSET ??_C@_0BK@KGIHKJCF@ID_SET_RANDOM_NUMBER_SEED?$AA@
	mov	DWORD PTR _IDTable$[ebp+64], OFFSET ??_C@_0BP@PLDMEGME@ID_CONNECTION_REQUEST_ACCEPTED?$AA@
	mov	DWORD PTR _IDTable$[ebp+68], OFFSET ??_C@_0BN@LFFKEOPN@ID_CONNECTION_ATTEMPT_FAILED?$AA@
	mov	DWORD PTR _IDTable$[ebp+72], OFFSET ??_C@_0BL@MABOBDFA@ID_NEW_INCOMING_CONNECTION?$AA@
	mov	DWORD PTR _IDTable$[ebp+76], OFFSET ??_C@_0CA@MNODABPA@ID_NO_FREE_INCOMING_CONNECTIONS?$AA@
	mov	DWORD PTR _IDTable$[ebp+80], OFFSET ??_C@_0BO@OLPHMLBO@ID_DISCONNECTION_NOTIFICATION?$AA@
	mov	DWORD PTR _IDTable$[ebp+84], OFFSET ??_C@_0BD@NCMFHGA@ID_CONNECTION_LOST?$AA@
	mov	DWORD PTR _IDTable$[ebp+88], OFFSET ??_C@_0BL@CJFJFIKJ@ID_RSA_PUBLIC_KEY_MISMATCH?$AA@
	mov	DWORD PTR _IDTable$[ebp+92], OFFSET ??_C@_0BF@LPFHJJBD@ID_CONNECTION_BANNED?$AA@
	mov	DWORD PTR _IDTable$[ebp+96], OFFSET ??_C@_0BE@KANOLEPF@ID_INVALID_PASSWORD?$AA@
	mov	DWORD PTR _IDTable$[ebp+100], OFFSET ??_C@_0BD@EJOHJAOK@ID_MODIFIED_PACKET?$AA@
	mov	DWORD PTR _IDTable$[ebp+104], OFFSET ??_C@_0N@NCANPGBC@ID_TIMESTAMP?$AA@
	mov	DWORD PTR _IDTable$[ebp+108], OFFSET ??_C@_07NPMLOMLA@ID_PONG?$AA@
	mov	DWORD PTR _IDTable$[ebp+112], OFFSET ??_C@_0BI@CBOPHKEP@ID_RECEIVED_STATIC_DATA?$AA@
	mov	DWORD PTR _IDTable$[ebp+116], OFFSET ??_C@_0CF@MPHOOKNC@ID_REMOTE_DISCONNECTION_NOTIFICA@
	mov	DWORD PTR _IDTable$[ebp+120], OFFSET ??_C@_0BK@ECJBAFKF@ID_REMOTE_CONNECTION_LOST?$AA@
	mov	DWORD PTR _IDTable$[ebp+124], OFFSET ??_C@_0CC@DKOFGNKO@ID_REMOTE_NEW_INCOMING_CONNECTIO@
	mov	DWORD PTR _IDTable$[ebp+128], OFFSET ??_C@_0BO@PCFLNBOM@ID_REMOTE_EXISTING_CONNECTION?$AA@
	mov	DWORD PTR _IDTable$[ebp+132], OFFSET ??_C@_0BG@GHALBPPM@ID_REMOTE_STATIC_DATA?$AA@
	mov	DWORD PTR _IDTable$[ebp+136], OFFSET ??_C@_0BN@IGDLCBON@ID_FILE_LIST_TRANSFER_HEADER?$AA@
	mov	DWORD PTR _IDTable$[ebp+140], OFFSET ??_C@_0BL@KJHOPFMB@ID_FILE_LIST_TRANSFER_FILE?$AA@
	mov	DWORD PTR _IDTable$[ebp+144], OFFSET ??_C@_0BI@KICLOPFI@ID_DDT_DOWNLOAD_REQUEST?$AA@
	mov	DWORD PTR _IDTable$[ebp+148], OFFSET ??_C@_0BH@LHMIEMB@ID_QUERY_MASTER_SERVER?$AA@
	mov	DWORD PTR _IDTable$[ebp+152], OFFSET ??_C@_0BP@MKMEPNHC@ID_MASTER_SERVER_DELIST_SERVER?$AA@
	mov	DWORD PTR _IDTable$[ebp+156], OFFSET ??_C@_0BP@HNPJOPFB@ID_MASTER_SERVER_UPDATE_SERVER?$AA@
	mov	DWORD PTR _IDTable$[ebp+160], OFFSET ??_C@_0BM@JFGOLOCJ@ID_MASTER_SERVER_SET_SERVER?$AA@
	mov	DWORD PTR _IDTable$[ebp+164], OFFSET ??_C@_0CD@FEJBPNPE@ID_RELAYED_CONNECTION_NOTIFICATI@
	mov	DWORD PTR _IDTable$[ebp+168], OFFSET ??_C@_0BE@DCOBFKAO@ID_ADVERTISE_SYSTEM?$AA@
	mov	DWORD PTR _IDTable$[ebp+172], OFFSET ??_C@_0BE@EDJIHEMP@ID_TRANSPORT_STRING?$AA@
	mov	DWORD PTR _IDTable$[ebp+176], OFFSET ??_C@_0CA@LCHKDGHI@ID_REPLICA_MANAGER_CONSTRUCTION?$AA@
	mov	DWORD PTR _IDTable$[ebp+180], OFFSET ??_C@_0BP@MNDNLFBI@ID_REPLICA_MANAGER_DESTRUCTION?$AA@
	mov	DWORD PTR _IDTable$[ebp+184], OFFSET ??_C@_0CA@LPIJALAM@ID_REPLICA_MANAGER_SCOPE_CHANGE?$AA@
	mov	DWORD PTR _IDTable$[ebp+188], OFFSET ??_C@_0BN@KOFKPAGO@ID_REPLICA_MANAGER_SERIALIZE?$AA@
	mov	DWORD PTR _IDTable$[ebp+192], OFFSET ??_C@_0CF@PGFGJODO@ID_REPLICA_MANAGER_DOWNLOAD_COMP@
	mov	DWORD PTR _IDTable$[ebp+196], OFFSET ??_C@_0BM@FBJKJKCM@ID_CONNECTION_GRAPH_REQUEST?$AA@
	mov	DWORD PTR _IDTable$[ebp+200], OFFSET ??_C@_0BK@CBGFOALB@ID_CONNECTION_GRAPH_REPLY?$AA@
	mov	DWORD PTR _IDTable$[ebp+204], OFFSET ??_C@_0BL@MICHIKNA@ID_CONNECTION_GRAPH_UPDATE?$AA@
	mov	DWORD PTR _IDTable$[ebp+208], OFFSET ??_C@_0CD@GGDAHHGP@ID_CONNECTION_GRAPH_NEW_CONNECTI@
	mov	DWORD PTR _IDTable$[ebp+212], OFFSET ??_C@_0CE@DLIICOIF@ID_CONNECTION_GRAPH_CONNECTION_L@
	mov	DWORD PTR _IDTable$[ebp+216], OFFSET ??_C@_0CP@ENCDODLD@ID_CONNECTION_GRAPH_DISCONNECTIO@
	mov	DWORD PTR _IDTable$[ebp+220], OFFSET ??_C@_0BH@LNGMGEEM@ID_ROUTE_AND_MULTICAST?$AA@
	mov	DWORD PTR _IDTable$[ebp+224], OFFSET ??_C@_0CB@GCKKIPNB@ID_RAKVOICE_OPEN_CHANNEL_REQUEST@
	mov	DWORD PTR _IDTable$[ebp+228], OFFSET ??_C@_0BP@CKGAGINM@ID_RAKVOICE_OPEN_CHANNEL_REPLY?$AA@
	mov	DWORD PTR _IDTable$[ebp+232], OFFSET ??_C@_0BK@BBDPADIO@ID_RAKVOICE_CLOSE_CHANNEL?$AA@
	mov	DWORD PTR _IDTable$[ebp+236], OFFSET ??_C@_0BB@EPMEEE@ID_RAKVOICE_DATA?$AA@
	mov	DWORD PTR _IDTable$[ebp+240], OFFSET ??_C@_0CJ@LJCFNDCN@ID_AUTOPATCHER_GET_CHANGELIST_SI@
	mov	DWORD PTR _IDTable$[ebp+244], OFFSET ??_C@_0BN@CCPPOEH@ID_AUTOPATCHER_CREATION_LIST?$AA@
	mov	DWORD PTR _IDTable$[ebp+248], OFFSET ??_C@_0BN@IDOGLNBG@ID_AUTOPATCHER_DELETION_LIST?$AA@
	mov	DWORD PTR _IDTable$[ebp+252], OFFSET ??_C@_0BJ@IIADFECH@ID_AUTOPATCHER_GET_PATCH?$AA@
	mov	DWORD PTR _IDTable$[ebp+256], OFFSET ??_C@_0BK@JMNELKMN@ID_AUTOPATCHER_PATCH_LIST?$AA@
	mov	DWORD PTR _IDTable$[ebp+260], OFFSET ??_C@_0CG@PHOFDANB@ID_AUTOPATCHER_REPOSITORY_FATAL_@
	mov	DWORD PTR _IDTable$[ebp+264], OFFSET ??_C@_0BI@ENPBEBKK@ID_AUTOPATCHER_FINISHED?$AA@
	mov	DWORD PTR _IDTable$[ebp+268], OFFSET ??_C@_0CD@MGGPKDDG@ID_AUTOPATCHER_RESTART_APPLICATI@
	mov	DWORD PTR _IDTable$[ebp+272], OFFSET ??_C@_0BM@LJGJDIII@ID_NAT_PUNCHTHROUGH_REQUEST?$AA@
	mov	DWORD PTR _IDTable$[ebp+276], OFFSET ??_C@_0BM@EDIKGBBN@ID_NAT_TARGET_NOT_CONNECTED?$AA@
	mov	DWORD PTR _IDTable$[ebp+280], OFFSET ??_C@_0BO@FAKBIOGE@ID_NAT_TARGET_CONNECTION_LOST?$AA@
	mov	DWORD PTR _IDTable$[ebp+284], OFFSET ??_C@_0BH@GMBNAECN@ID_NAT_CONNECT_AT_TIME?$AA@
	mov	DWORD PTR _IDTable$[ebp+288], OFFSET ??_C@_0CE@BBKINLFF@ID_NAT_SEND_OFFLINE_MESSAGE_AT_T@
	mov	DWORD PTR _IDTable$[ebp+292], OFFSET ??_C@_0BK@OGCLPGFB@ID_DATABASE_QUERY_REQUEST?$AA@
	mov	DWORD PTR _IDTable$[ebp+296], OFFSET ??_C@_0BH@LGAAKMIE@ID_DATABASE_UPDATE_ROW?$AA@
	mov	DWORD PTR _IDTable$[ebp+300], OFFSET ??_C@_0BH@HAAKEGOL@ID_DATABASE_REMOVE_ROW?$AA@
	mov	DWORD PTR _IDTable$[ebp+304], OFFSET ??_C@_0BI@KHDIKGHK@ID_DATABASE_QUERY_REPLY?$AA@
	mov	DWORD PTR _IDTable$[ebp+308], OFFSET ??_C@_0BK@IEJPAOGH@ID_DATABASE_UNKNOWN_TABLE?$AA@
	mov	DWORD PTR _IDTable$[ebp+312], OFFSET ??_C@_0BP@BHKDCBMB@ID_DATABASE_INCORRECT_PASSWORD?$AA@
	push	52					; 00000034H
	push	0
	lea	eax, DWORD PTR _IDTable$[ebp+316]
	push	eax
	call	_memset
	add	esp, 12					; 0000000cH

; 297  : 
; 298  : 	return (char*)IDTable[Id];

	movzx	eax, BYTE PTR _Id$[ebp]
	mov	eax, DWORD PTR _IDTable$[ebp+eax*4]
$LN2@BaseIDTOSt:

; 299  : }

	push	edx
	mov	ecx, ebp
	push	eax
	lea	edx, DWORD PTR $LN6@BaseIDTOSt
	call	@_RTC_CheckStackVars@8
	pop	eax
	pop	edx
	pop	edi
	pop	esi
	pop	ebx
	mov	ecx, DWORD PTR __$ArrayPad$[ebp]
	xor	ecx, ebp
	call	@__security_check_cookie@4
	add	esp, 584				; 00000248H
	cmp	ebp, esp
	call	__RTC_CheckEsp
	mov	esp, ebp
	pop	ebp
	ret	4
	npad	3
$LN6@BaseIDTOSt:
	DD	1
	DD	$LN5@BaseIDTOSt
$LN5@BaseIDTOSt:
	DD	-388					; fffffe7cH
	DD	368					; 00000170H
	DD	$LN4@BaseIDTOSt
$LN4@BaseIDTOSt:
	DB	73					; 00000049H
	DB	68					; 00000044H
	DB	84					; 00000054H
	DB	97					; 00000061H
	DB	98					; 00000062H
	DB	108					; 0000006cH
	DB	101					; 00000065H
	DB	0
?BaseIDTOString@PacketLogger@@IAEPADE@Z ENDP		; PacketLogger::BaseIDTOString
_TEXT	ENDS
; Function compile flags: /Odtp /RTCsu /ZI
; File z:\sampsrc\02xu1\raknet\packetlogger.cpp
;	COMDAT ?IDTOString@PacketLogger@@IAEPADE@Z
_TEXT	SEGMENT
_out$ = -20						; size = 4
_this$ = -8						; size = 4
_Id$ = 8						; size = 1
?IDTOString@PacketLogger@@IAEPADE@Z PROC		; PacketLogger::IDTOString, COMDAT
; _this$ = ecx

; 309  : {

	push	ebp
	mov	ebp, esp
	sub	esp, 216				; 000000d8H
	push	ebx
	push	esi
	push	edi
	push	ecx
	lea	edi, DWORD PTR [ebp-216]
	mov	ecx, 54					; 00000036H
	mov	eax, -858993460				; ccccccccH
	rep stosd
	pop	ecx
	mov	DWORD PTR _this$[ebp], ecx

; 310  : 	char *out;
; 311  : 	out=BaseIDTOString(Id);

	movzx	eax, BYTE PTR _Id$[ebp]
	push	eax
	mov	ecx, DWORD PTR _this$[ebp]
	call	?BaseIDTOString@PacketLogger@@IAEPADE@Z	; PacketLogger::BaseIDTOString
	mov	DWORD PTR _out$[ebp], eax

; 312  : 	if (out)

	cmp	DWORD PTR _out$[ebp], 0
	je	SHORT $LN1@IDTOString

; 313  : 		return (char*)out;

	mov	eax, DWORD PTR _out$[ebp]
	jmp	SHORT $LN2@IDTOString
$LN1@IDTOString:

; 314  : 	return UserIDTOString(Id);

	mov	esi, esp
	movzx	eax, BYTE PTR _Id$[ebp]
	push	eax
	mov	ecx, DWORD PTR _this$[ebp]
	mov	edx, DWORD PTR [ecx]
	mov	ecx, DWORD PTR _this$[ebp]
	mov	eax, DWORD PTR [edx+60]
	call	eax
	cmp	esi, esp
	call	__RTC_CheckEsp
$LN2@IDTOString:

; 315  : }

	pop	edi
	pop	esi
	pop	ebx
	add	esp, 216				; 000000d8H
	cmp	ebp, esp
	call	__RTC_CheckEsp
	mov	esp, ebp
	pop	ebp
	ret	4
?IDTOString@PacketLogger@@IAEPADE@Z ENDP		; PacketLogger::IDTOString
_TEXT	ENDS
; Function compile flags: /Odtp /RTCsu /ZI
; File z:\sampsrc\02xu1\raknet\packetlogger.cpp
;	COMDAT ?SetPrintAcks@PacketLogger@@UAEX_N@Z
_TEXT	SEGMENT
_this$ = -8						; size = 4
_print$ = 8						; size = 1
?SetPrintAcks@PacketLogger@@UAEX_N@Z PROC		; PacketLogger::SetPrintAcks, COMDAT
; _this$ = ecx

; 206  : {

	push	ebp
	mov	ebp, esp
	sub	esp, 204				; 000000ccH
	push	ebx
	push	esi
	push	edi
	push	ecx
	lea	edi, DWORD PTR [ebp-204]
	mov	ecx, 51					; 00000033H
	mov	eax, -858993460				; ccccccccH
	rep stosd
	pop	ecx
	mov	DWORD PTR _this$[ebp], ecx

; 207  : 	printAcks=print;

	mov	eax, DWORD PTR _this$[ebp]
	mov	cl, BYTE PTR _print$[ebp]
	mov	BYTE PTR [eax+9], cl

; 208  : }

	pop	edi
	pop	esi
	pop	ebx
	mov	esp, ebp
	pop	ebp
	ret	4
?SetPrintAcks@PacketLogger@@UAEX_N@Z ENDP		; PacketLogger::SetPrintAcks
_TEXT	ENDS
; Function compile flags: /Odtp /RTCsu /ZI
; File z:\sampsrc\02xu1\raknet\packetlogger.cpp
;	COMDAT ?SetPrintID@PacketLogger@@UAEX_N@Z
_TEXT	SEGMENT
_this$ = -8						; size = 4
_print$ = 8						; size = 1
?SetPrintID@PacketLogger@@UAEX_N@Z PROC			; PacketLogger::SetPrintID, COMDAT
; _this$ = ecx

; 202  : {

	push	ebp
	mov	ebp, esp
	sub	esp, 204				; 000000ccH
	push	ebx
	push	esi
	push	edi
	push	ecx
	lea	edi, DWORD PTR [ebp-204]
	mov	ecx, 51					; 00000033H
	mov	eax, -858993460				; ccccccccH
	rep stosd
	pop	ecx
	mov	DWORD PTR _this$[ebp], ecx

; 203  : 	printId=print;

	mov	eax, DWORD PTR _this$[ebp]
	mov	cl, BYTE PTR _print$[ebp]
	mov	BYTE PTR [eax+8], cl

; 204  : }

	pop	edi
	pop	esi
	pop	ebx
	mov	esp, ebp
	pop	ebp
	ret	4
?SetPrintID@PacketLogger@@UAEX_N@Z ENDP			; PacketLogger::SetPrintID
_TEXT	ENDS
; Function compile flags: /Odtp /RTCsu /ZI
; File z:\sampsrc\02xu1\raknet\packetlogger.cpp
;	COMDAT ?WriteLog@PacketLogger@@UAEXPBD@Z
_TEXT	SEGMENT
_this$ = -8						; size = 4
_str$ = 8						; size = 4
?WriteLog@PacketLogger@@UAEXPBD@Z PROC			; PacketLogger::WriteLog, COMDAT
; _this$ = ecx

; 198  : {

	push	ebp
	mov	ebp, esp
	sub	esp, 204				; 000000ccH
	push	ebx
	push	esi
	push	edi
	push	ecx
	lea	edi, DWORD PTR [ebp-204]
	mov	ecx, 51					; 00000033H
	mov	eax, -858993460				; ccccccccH
	rep stosd
	pop	ecx
	mov	DWORD PTR _this$[ebp], ecx

; 199  : 	printf("%s", str);

	mov	eax, DWORD PTR _str$[ebp]
	push	eax
	push	OFFSET ??_C@_02DKCKIIND@?$CFs?$AA@
	call	_printf
	add	esp, 8

; 200  : }

	pop	edi
	pop	esi
	pop	ebx
	add	esp, 204				; 000000ccH
	cmp	ebp, esp
	call	__RTC_CheckEsp
	mov	esp, ebp
	pop	ebp
	ret	4
?WriteLog@PacketLogger@@UAEXPBD@Z ENDP			; PacketLogger::WriteLog
_TEXT	ENDS
; Function compile flags: /Odtp /RTCsu /ZI
; File z:\sampsrc\02xu1\raknet\packetlogger.cpp
;	COMDAT ?LogHeader@PacketLogger@@UAEXXZ
_TEXT	SEGMENT
_this$ = -8						; size = 4
?LogHeader@PacketLogger@@UAEXXZ PROC			; PacketLogger::LogHeader, COMDAT
; _this$ = ecx

; 66   : {

	push	ebp
	mov	ebp, esp
	sub	esp, 204				; 000000ccH
	push	ebx
	push	esi
	push	edi
	push	ecx
	lea	edi, DWORD PTR [ebp-204]
	mov	ecx, 51					; 00000033H
	mov	eax, -858993460				; ccccccccH
	rep stosd
	pop	ecx
	mov	DWORD PTR _this$[ebp], ecx

; 67   : 	WriteLog("S|R,Typ,Pckt#,Frm #,PktID,BitLn,Time     ,Local IP:Port   ,RemoteIP:Port\n");

	mov	esi, esp
	push	OFFSET ??_C@_0EK@EDMFIPJD@S?$HMR?0Typ?0Pckt?$CD?0Frm?5?$CD?0PktID?0BitLn?0@
	mov	eax, DWORD PTR _this$[ebp]
	mov	edx, DWORD PTR [eax]
	mov	ecx, DWORD PTR _this$[ebp]
	mov	eax, DWORD PTR [edx+48]
	call	eax
	cmp	esi, esp
	call	__RTC_CheckEsp

; 68   : }

	pop	edi
	pop	esi
	pop	ebx
	add	esp, 204				; 000000ccH
	cmp	ebp, esp
	call	__RTC_CheckEsp
	mov	esp, ebp
	pop	ebp
	ret	0
?LogHeader@PacketLogger@@UAEXXZ ENDP			; PacketLogger::LogHeader
_TEXT	ENDS
; Function compile flags: /Odtp /RTCsu /ZI
; File z:\sampsrc\02xu1\raknet\packetlogger.cpp
;	COMDAT ?OnInternalPacket@PacketLogger@@UAEXPAUInternalPacket@@IUPlayerID@@I_N@Z
_TEXT	SEGMENT
tv228 = -1152						; size = 4
$T2 = -1142						; size = 6
_rpcNode$3 = -936					; size = 4
_rpcDecode$4 = -924					; size = 273
_rpcMap$5 = -640					; size = 4
_rpcIndex$6 = -625					; size = 1
_uniqueIdentifier$7 = -616				; size = 256
_nameIsEncoded$8 = -349					; size = 1
_bitsOfData$9 = -340					; size = 4
_hasTimestamp$10 = -325					; size = 1
_localPlayerId$ = -316					; size = 6
_sendType$ = -300					; size = 4
_str$ = -288						; size = 256
_this$ = -24						; size = 4
__$ArrayPad$ = -16					; size = 4
__$EHRec$ = -12						; size = 12
_internalPacket$ = 8					; size = 4
_frameNumber$ = 12					; size = 4
_remoteSystemID$ = 16					; size = 6
_time$ = 24						; size = 4
_isSend$ = 28						; size = 1
?OnInternalPacket@PacketLogger@@UAEXPAUInternalPacket@@IUPlayerID@@I_N@Z PROC ; PacketLogger::OnInternalPacket, COMDAT
; _this$ = ecx

; 88   : {

	push	ebp
	mov	ebp, esp
	push	-1
	push	__ehhandler$?OnInternalPacket@PacketLogger@@UAEXPAUInternalPacket@@IUPlayerID@@I_N@Z
	mov	eax, DWORD PTR fs:0
	push	eax
	sub	esp, 1140				; 00000474H
	push	ebx
	push	esi
	push	edi
	push	ecx
	lea	edi, DWORD PTR [ebp-1152]
	mov	ecx, 285				; 0000011dH
	mov	eax, -858993460				; ccccccccH
	rep stosd
	pop	ecx
	mov	eax, DWORD PTR ___security_cookie
	xor	eax, ebp
	mov	DWORD PTR __$ArrayPad$[ebp], eax
	push	eax
	lea	eax, DWORD PTR __$EHRec$[ebp]
	mov	DWORD PTR fs:0, eax
	mov	DWORD PTR _this$[ebp], ecx

; 89   : 	char str[256];
; 90   : 	char sendType[4];
; 91   : 	PlayerID localPlayerId;
; 92   : 	localPlayerId = rakPeer->GetInternalID();

	mov	esi, esp
	lea	eax, DWORD PTR $T2[ebp]
	push	eax
	mov	ecx, DWORD PTR _this$[ebp]
	mov	edx, DWORD PTR [ecx+4]
	mov	eax, DWORD PTR _this$[ebp]
	mov	edx, DWORD PTR [edx]
	mov	ecx, DWORD PTR [eax+4]
	mov	eax, DWORD PTR [edx+156]
	call	eax
	cmp	esi, esp
	call	__RTC_CheckEsp
	push	eax
	lea	ecx, DWORD PTR _localPlayerId$[ebp]
	call	??4PlayerID@@QAEAAU0@ABU0@@Z		; PlayerID::operator=

; 93   : 
; 94   : 	if (isSend)

	movzx	eax, BYTE PTR _isSend$[ebp]
	test	eax, eax
	je	SHORT $LN20@OnInternal

; 95   : 		strcpy(sendType, "Snd");

	push	OFFSET ??_C@_03EENLMICG@Snd?$AA@
	lea	eax, DWORD PTR _sendType$[ebp]
	push	eax
	call	_strcpy
	add	esp, 8

; 96   : 	else

	jmp	SHORT $LN19@OnInternal
$LN20@OnInternal:

; 97   : 		strcpy(sendType, "Rcv");

	push	OFFSET ??_C@_03IMELEMMD@Rcv?$AA@
	lea	eax, DWORD PTR _sendType$[ebp]
	push	eax
	call	_strcpy
	add	esp, 8
$LN19@OnInternal:

; 98   : 
; 99   : 	// TODO - put this back in a different form
; 100  : 	/*
; 101  : 	if (internalPacket->isAcknowledgement)
; 102  : 	{
; 103  : 		if (printAcks)
; 104  : 		{
; 105  : 			if (printId==false)
; 106  : 				sprintf(str, "%s,Ack,%5i,%5i,  NIL,    1,%i,%u:%i,%u:%i\n",sendType, internalPacket->messageNumber,frameNumber,time,
; 107  : 				localPlayerId.binaryAddress, localPlayerId.port, remoteSystemID.binaryAddress, remoteSystemID.port);
; 108  : 			else
; 109  : 				sprintf(str, "%s,Ack,%i,%i,NIL,1,%i,%u:%i,%u:%i\n",sendType, internalPacket->messageNumber,frameNumber,time,
; 110  : 				localPlayerId.binaryAddress, localPlayerId.port, remoteSystemID.binaryAddress, remoteSystemID.port);
; 111  : 		}
; 112  : 		else
; 113  : 			str[0]=0;
; 114  : 	}
; 115  : 	else
; 116  : 	*/
; 117  : 	{
; 118  : 		if (internalPacket->data[0]==ID_TIMESTAMP && internalPacket->data[sizeof(unsigned char)+sizeof(RakNetTime)]!=ID_RPC)

	mov	eax, 1
	imul	ecx, eax, 0
	mov	edx, DWORD PTR _internalPacket$[ebp]
	mov	eax, DWORD PTR [edx+47]
	movzx	ecx, BYTE PTR [eax+ecx]
	cmp	ecx, 36					; 00000024H
	jne	$LN18@OnInternal
	mov	eax, 1
	imul	ecx, eax, 5
	mov	edx, DWORD PTR _internalPacket$[ebp]
	mov	eax, DWORD PTR [edx+47]
	movzx	ecx, BYTE PTR [eax+ecx]
	cmp	ecx, 19					; 00000013H
	je	$LN18@OnInternal

; 119  : 		{
; 120  : 			if (printId==false)

	mov	eax, DWORD PTR _this$[ebp]
	movzx	ecx, BYTE PTR [eax+8]
	test	ecx, ecx
	jne	SHORT $LN17@OnInternal

; 121  : 			{
; 122  : 				sprintf(str, "%s,Tms,%5i,%5i,%5i,%5i,%i,%u:%i,%u:%i\n",sendType, internalPacket->messageNumber,frameNumber,
; 123  : 					internalPacket->data[1+sizeof(int)], internalPacket->dataBitLength,time,
; 124  : 					localPlayerId.binaryAddress, localPlayerId.port, remoteSystemID.binaryAddress, remoteSystemID.port);

	movzx	eax, WORD PTR _remoteSystemID$[ebp+4]
	push	eax
	mov	ecx, DWORD PTR _remoteSystemID$[ebp]
	push	ecx
	movzx	edx, WORD PTR _localPlayerId$[ebp+4]
	push	edx
	mov	eax, DWORD PTR _localPlayerId$[ebp]
	push	eax
	mov	ecx, DWORD PTR _time$[ebp]
	push	ecx
	mov	edx, DWORD PTR _internalPacket$[ebp]
	mov	eax, DWORD PTR [edx+43]
	push	eax
	mov	ecx, 1
	imul	edx, ecx, 5
	mov	eax, DWORD PTR _internalPacket$[ebp]
	mov	ecx, DWORD PTR [eax+47]
	movzx	edx, BYTE PTR [ecx+edx]
	push	edx
	mov	eax, DWORD PTR _frameNumber$[ebp]
	push	eax
	mov	ecx, DWORD PTR _internalPacket$[ebp]
	movzx	edx, WORD PTR [ecx]
	push	edx
	lea	eax, DWORD PTR _sendType$[ebp]
	push	eax
	push	OFFSET ??_C@_0CH@FIIDFFMG@?$CFs?0Tms?0?$CF5i?0?$CF5i?0?$CF5i?0?$CF5i?0?$CFi?0?$CFu?3?$CFi?0@
	lea	ecx, DWORD PTR _str$[ebp]
	push	ecx
	call	_sprintf
	add	esp, 48					; 00000030H

; 125  : 			}
; 126  : 			else

	jmp	SHORT $LN16@OnInternal
$LN17@OnInternal:

; 127  : 			{
; 128  : 				sprintf(str, "%s,Tms,%i,%i,%s,%i,%i,%u:%i,%u:%i\n",sendType, internalPacket->messageNumber,frameNumber,
; 129  : 					IDTOString(internalPacket->data[1+sizeof(int)]), internalPacket->dataBitLength,time,
; 130  : 					localPlayerId.binaryAddress, localPlayerId.port, remoteSystemID.binaryAddress, remoteSystemID.port);

	movzx	eax, WORD PTR _remoteSystemID$[ebp+4]
	push	eax
	mov	ecx, DWORD PTR _remoteSystemID$[ebp]
	push	ecx
	movzx	edx, WORD PTR _localPlayerId$[ebp+4]
	push	edx
	mov	eax, DWORD PTR _localPlayerId$[ebp]
	push	eax
	mov	ecx, DWORD PTR _time$[ebp]
	push	ecx
	mov	edx, DWORD PTR _internalPacket$[ebp]
	mov	eax, DWORD PTR [edx+43]
	push	eax
	mov	ecx, 1
	imul	edx, ecx, 5
	mov	eax, DWORD PTR _internalPacket$[ebp]
	mov	ecx, DWORD PTR [eax+47]
	movzx	edx, BYTE PTR [ecx+edx]
	push	edx
	mov	ecx, DWORD PTR _this$[ebp]
	call	?IDTOString@PacketLogger@@IAEPADE@Z	; PacketLogger::IDTOString
	push	eax
	mov	eax, DWORD PTR _frameNumber$[ebp]
	push	eax
	mov	ecx, DWORD PTR _internalPacket$[ebp]
	movzx	edx, WORD PTR [ecx]
	push	edx
	lea	eax, DWORD PTR _sendType$[ebp]
	push	eax
	push	OFFSET ??_C@_0CD@LCDEAAHN@?$CFs?0Tms?0?$CFi?0?$CFi?0?$CFs?0?$CFi?0?$CFi?0?$CFu?3?$CFi?0?$CFu?3?$CF@
	lea	ecx, DWORD PTR _str$[ebp]
	push	ecx
	call	_sprintf
	add	esp, 48					; 00000030H
$LN16@OnInternal:

; 131  : 			}

	jmp	$LN15@OnInternal
$LN18@OnInternal:

; 132  : 
; 133  : 		}
; 134  : 		else if (internalPacket->data[0]==ID_RPC || (internalPacket->dataBitLength>(sizeof(unsigned char)+sizeof(RakNetTime))*8 && internalPacket->data[0]==ID_TIMESTAMP && internalPacket->data[sizeof(unsigned char)+sizeof(RakNetTime)]==ID_RPC))

	mov	eax, 1
	imul	ecx, eax, 0
	mov	edx, DWORD PTR _internalPacket$[ebp]
	mov	eax, DWORD PTR [edx+47]
	movzx	ecx, BYTE PTR [eax+ecx]
	cmp	ecx, 19					; 00000013H
	je	SHORT $LN13@OnInternal
	mov	eax, DWORD PTR _internalPacket$[ebp]
	cmp	DWORD PTR [eax+43], 40			; 00000028H
	jbe	$LN14@OnInternal
	mov	eax, 1
	imul	ecx, eax, 0
	mov	edx, DWORD PTR _internalPacket$[ebp]
	mov	eax, DWORD PTR [edx+47]
	movzx	ecx, BYTE PTR [eax+ecx]
	cmp	ecx, 36					; 00000024H
	jne	$LN14@OnInternal
	mov	eax, 1
	imul	ecx, eax, 5
	mov	edx, DWORD PTR _internalPacket$[ebp]
	mov	eax, DWORD PTR [edx+47]
	movzx	ecx, BYTE PTR [eax+ecx]
	cmp	ecx, 19					; 00000013H
	jne	$LN14@OnInternal
$LN13@OnInternal:

; 135  : 		{
; 136  : 			bool hasTimestamp;
; 137  : 			unsigned int bitsOfData;
; 138  : 			bool nameIsEncoded;
; 139  : 			unsigned char uniqueIdentifier[256];
; 140  : 			RPCIndex rpcIndex;
; 141  : 			RPCMap *rpcMap;
; 142  : 			RakNet::BitStream rpcDecode(internalPacket->data, BITS_TO_BYTES(internalPacket->dataBitLength), false);

	push	0
	mov	eax, DWORD PTR _internalPacket$[ebp]
	mov	ecx, DWORD PTR [eax+43]
	add	ecx, 7
	shr	ecx, 3
	push	ecx
	mov	edx, DWORD PTR _internalPacket$[ebp]
	mov	eax, DWORD PTR [edx+47]
	push	eax
	lea	ecx, DWORD PTR _rpcDecode$4[ebp]
	call	??0BitStream@RakNet@@QAE@PAEI_N@Z	; RakNet::BitStream::BitStream
	mov	DWORD PTR __$EHRec$[ebp+8], 0

; 143  : 			rpcDecode.IgnoreBits(8);

	push	8
	lea	ecx, DWORD PTR _rpcDecode$4[ebp]
	call	?IgnoreBits@BitStream@RakNet@@QAEXH@Z	; RakNet::BitStream::IgnoreBits

; 144  : 			if (internalPacket->data[0]==ID_TIMESTAMP)

	mov	eax, 1
	imul	ecx, eax, 0
	mov	edx, DWORD PTR _internalPacket$[ebp]
	mov	eax, DWORD PTR [edx+47]
	movzx	ecx, BYTE PTR [eax+ecx]
	cmp	ecx, 36					; 00000024H
	jne	SHORT $LN12@OnInternal

; 145  : 				rpcDecode.IgnoreBits(sizeof(unsigned char)+sizeof(RakNetTime));

	push	5
	lea	ecx, DWORD PTR _rpcDecode$4[ebp]
	call	?IgnoreBits@BitStream@RakNet@@QAEXH@Z	; RakNet::BitStream::IgnoreBits
$LN12@OnInternal:

; 146  : 			rpcDecode.Read(nameIsEncoded);

	lea	eax, DWORD PTR _nameIsEncoded$8[ebp]
	push	eax
	lea	ecx, DWORD PTR _rpcDecode$4[ebp]
	call	??$Read@_N@BitStream@RakNet@@QAE_NAA_N@Z ; RakNet::BitStream::Read<bool>

; 147  : 			if (nameIsEncoded)

	movzx	eax, BYTE PTR _nameIsEncoded$8[ebp]
	test	eax, eax
	je	SHORT $LN11@OnInternal

; 148  : 			{
; 149  : 				stringCompressor->DecodeString((char*)uniqueIdentifier, 256, &rpcDecode);

	push	0
	lea	eax, DWORD PTR _rpcDecode$4[ebp]
	push	eax
	push	256					; 00000100H
	lea	ecx, DWORD PTR _uniqueIdentifier$7[ebp]
	push	ecx
	call	?Instance@StringCompressor@@SAPAV1@XZ	; StringCompressor::Instance
	mov	ecx, eax
	call	?DecodeString@StringCompressor@@QAE_NPADHPAVBitStream@RakNet@@H@Z ; StringCompressor::DecodeString

; 150  : 			}
; 151  : 			else

	jmp	$LN10@OnInternal
$LN11@OnInternal:

; 152  : 			{
; 153  : 				rpcDecode.ReadCompressed( rpcIndex );

	lea	eax, DWORD PTR _rpcIndex$6[ebp]
	push	eax
	lea	ecx, DWORD PTR _rpcDecode$4[ebp]
	call	??$ReadCompressed@E@BitStream@RakNet@@QAE_NAAE@Z ; RakNet::BitStream::ReadCompressed<unsigned char>

; 154  : 				RPCNode *rpcNode;
; 155  : 				rpcMap = rakPeer->GetRPCMap(isSend==true ? remoteSystemID : UNASSIGNED_PLAYER_ID);

	movzx	eax, BYTE PTR _isSend$[ebp]
	cmp	eax, 1
	jne	SHORT $LN23@OnInternal
	lea	ecx, DWORD PTR _remoteSystemID$[ebp]
	mov	DWORD PTR tv228[ebp], ecx
	jmp	SHORT $LN24@OnInternal
$LN23@OnInternal:
	mov	DWORD PTR tv228[ebp], OFFSET _UNASSIGNED_PLAYER_ID
$LN24@OnInternal:
	mov	esi, esp
	mov	edx, DWORD PTR tv228[ebp]
	sub	esp, 8
	mov	eax, esp
	mov	ecx, DWORD PTR [edx]
	mov	DWORD PTR [eax], ecx
	mov	dx, WORD PTR [edx+4]
	mov	WORD PTR [eax+4], dx
	mov	eax, DWORD PTR _this$[ebp]
	mov	ecx, DWORD PTR [eax+4]
	mov	edx, DWORD PTR _this$[ebp]
	mov	eax, DWORD PTR [ecx]
	mov	ecx, DWORD PTR [edx+4]
	mov	edx, DWORD PTR [eax+264]
	call	edx
	cmp	esi, esp
	call	__RTC_CheckEsp
	mov	DWORD PTR _rpcMap$5[ebp], eax

; 156  : 				if (rpcMap)

	cmp	DWORD PTR _rpcMap$5[ebp], 0
	je	SHORT $LN9@OnInternal

; 157  : 					rpcNode = rpcMap->GetNodeFromIndex(rpcIndex);

	movzx	eax, BYTE PTR _rpcIndex$6[ebp]
	push	eax
	mov	ecx, DWORD PTR _rpcMap$5[ebp]
	call	?GetNodeFromIndex@RPCMap@@QAEPAURPCNode@@E@Z ; RPCMap::GetNodeFromIndex
	mov	DWORD PTR _rpcNode$3[ebp], eax

; 158  : 				else

	jmp	SHORT $LN8@OnInternal
$LN9@OnInternal:

; 159  : 					rpcNode=0;

	mov	DWORD PTR _rpcNode$3[ebp], 0
$LN8@OnInternal:

; 160  : 
; 161  : 				if (rpcMap && rpcNode)

	cmp	DWORD PTR _rpcMap$5[ebp], 0
	je	SHORT $LN7@OnInternal
	cmp	DWORD PTR _rpcNode$3[ebp], 0
	je	SHORT $LN7@OnInternal

; 162  : 					strcpy((char*)uniqueIdentifier, rpcNode->uniqueIdentifier);

	mov	eax, DWORD PTR _rpcNode$3[ebp]
	mov	ecx, DWORD PTR [eax]
	push	ecx
	lea	edx, DWORD PTR _uniqueIdentifier$7[ebp]
	push	edx
	call	_strcpy
	add	esp, 8

; 163  : 				else

	jmp	SHORT $LN10@OnInternal
$LN7@OnInternal:

; 164  : 					strcpy((char*)uniqueIdentifier, "[UNKNOWN]");

	push	OFFSET ??_C@_09NDGFAPBP@?$FLUNKNOWN?$FN?$AA@
	lea	eax, DWORD PTR _uniqueIdentifier$7[ebp]
	push	eax
	call	_strcpy
	add	esp, 8
$LN10@OnInternal:

; 165  : 			}
; 166  : 			rpcDecode.Read(hasTimestamp);

	lea	eax, DWORD PTR _hasTimestamp$10[ebp]
	push	eax
	lea	ecx, DWORD PTR _rpcDecode$4[ebp]
	call	??$Read@_N@BitStream@RakNet@@QAE_NAA_N@Z ; RakNet::BitStream::Read<bool>

; 167  : 			rpcDecode.ReadCompressed(bitsOfData);

	lea	eax, DWORD PTR _bitsOfData$9[ebp]
	push	eax
	lea	ecx, DWORD PTR _rpcDecode$4[ebp]
	call	??$ReadCompressed@I@BitStream@RakNet@@QAE_NAAI@Z ; RakNet::BitStream::ReadCompressed<unsigned int>

; 168  : 			
; 169  : 			if (hasTimestamp)

	movzx	eax, BYTE PTR _hasTimestamp$10[ebp]
	test	eax, eax
	je	SHORT $LN5@OnInternal

; 170  : 				sprintf(str, "%s,RpT,%5i,%5i,%s,%5i,%i,%u:%i,%u:%i\n",sendType, internalPacket->messageNumber,frameNumber,
; 171  : 				uniqueIdentifier, internalPacket->dataBitLength,time,
; 172  : 				localPlayerId.binaryAddress, localPlayerId.port, remoteSystemID.binaryAddress, remoteSystemID.port);

	movzx	eax, WORD PTR _remoteSystemID$[ebp+4]
	push	eax
	mov	ecx, DWORD PTR _remoteSystemID$[ebp]
	push	ecx
	movzx	edx, WORD PTR _localPlayerId$[ebp+4]
	push	edx
	mov	eax, DWORD PTR _localPlayerId$[ebp]
	push	eax
	mov	ecx, DWORD PTR _time$[ebp]
	push	ecx
	mov	edx, DWORD PTR _internalPacket$[ebp]
	mov	eax, DWORD PTR [edx+43]
	push	eax
	lea	ecx, DWORD PTR _uniqueIdentifier$7[ebp]
	push	ecx
	mov	edx, DWORD PTR _frameNumber$[ebp]
	push	edx
	mov	eax, DWORD PTR _internalPacket$[ebp]
	movzx	ecx, WORD PTR [eax]
	push	ecx
	lea	edx, DWORD PTR _sendType$[ebp]
	push	edx
	push	OFFSET ??_C@_0CG@NCBDBKCL@?$CFs?0RpT?0?$CF5i?0?$CF5i?0?$CFs?0?$CF5i?0?$CFi?0?$CFu?3?$CFi?0?$CF@
	lea	eax, DWORD PTR _str$[ebp]
	push	eax
	call	_sprintf
	add	esp, 48					; 00000030H

; 173  : 			else

	jmp	SHORT $LN4@OnInternal
$LN5@OnInternal:

; 174  : 				sprintf(str, "%s,Rpc,%5i,%5i,%s,%5i,%i,%u:%i,%u:%i\n",sendType, internalPacket->messageNumber,frameNumber,
; 175  : 				uniqueIdentifier, internalPacket->dataBitLength,time,
; 176  : 				localPlayerId.binaryAddress, localPlayerId.port, remoteSystemID.binaryAddress, remoteSystemID.port);

	movzx	eax, WORD PTR _remoteSystemID$[ebp+4]
	push	eax
	mov	ecx, DWORD PTR _remoteSystemID$[ebp]
	push	ecx
	movzx	edx, WORD PTR _localPlayerId$[ebp+4]
	push	edx
	mov	eax, DWORD PTR _localPlayerId$[ebp]
	push	eax
	mov	ecx, DWORD PTR _time$[ebp]
	push	ecx
	mov	edx, DWORD PTR _internalPacket$[ebp]
	mov	eax, DWORD PTR [edx+43]
	push	eax
	lea	ecx, DWORD PTR _uniqueIdentifier$7[ebp]
	push	ecx
	mov	edx, DWORD PTR _frameNumber$[ebp]
	push	edx
	mov	eax, DWORD PTR _internalPacket$[ebp]
	movzx	ecx, WORD PTR [eax]
	push	ecx
	lea	edx, DWORD PTR _sendType$[ebp]
	push	edx
	push	OFFSET ??_C@_0CG@ODOCOKGF@?$CFs?0Rpc?0?$CF5i?0?$CF5i?0?$CFs?0?$CF5i?0?$CFi?0?$CFu?3?$CFi?0?$CF@
	lea	eax, DWORD PTR _str$[ebp]
	push	eax
	call	_sprintf
	add	esp, 48					; 00000030H
$LN4@OnInternal:

; 177  : 		}

	mov	DWORD PTR __$EHRec$[ebp+8], -1
	lea	ecx, DWORD PTR _rpcDecode$4[ebp]
	call	??1BitStream@RakNet@@QAE@XZ		; RakNet::BitStream::~BitStream

; 178  : 		else

	jmp	$LN15@OnInternal
$LN14@OnInternal:

; 179  : 		{
; 180  : 			if (printId==false)

	mov	eax, DWORD PTR _this$[ebp]
	movzx	ecx, BYTE PTR [eax+8]
	test	ecx, ecx
	jne	SHORT $LN2@OnInternal

; 181  : 			{
; 182  : 				sprintf(str, "%s,Nrm,%5i,%5i,%5i,%5i,%i,%u:%i,%u:%i\n",sendType, internalPacket->messageNumber,frameNumber,
; 183  : 					internalPacket->data[0], internalPacket->dataBitLength,time,
; 184  : 					localPlayerId.binaryAddress, localPlayerId.port, remoteSystemID.binaryAddress, remoteSystemID.port);

	movzx	eax, WORD PTR _remoteSystemID$[ebp+4]
	push	eax
	mov	ecx, DWORD PTR _remoteSystemID$[ebp]
	push	ecx
	movzx	edx, WORD PTR _localPlayerId$[ebp+4]
	push	edx
	mov	eax, DWORD PTR _localPlayerId$[ebp]
	push	eax
	mov	ecx, DWORD PTR _time$[ebp]
	push	ecx
	mov	edx, DWORD PTR _internalPacket$[ebp]
	mov	eax, DWORD PTR [edx+43]
	push	eax
	mov	ecx, 1
	imul	edx, ecx, 0
	mov	eax, DWORD PTR _internalPacket$[ebp]
	mov	ecx, DWORD PTR [eax+47]
	movzx	edx, BYTE PTR [ecx+edx]
	push	edx
	mov	eax, DWORD PTR _frameNumber$[ebp]
	push	eax
	mov	ecx, DWORD PTR _internalPacket$[ebp]
	movzx	edx, WORD PTR [ecx]
	push	edx
	lea	eax, DWORD PTR _sendType$[ebp]
	push	eax
	push	OFFSET ??_C@_0CH@LPNMNBMM@?$CFs?0Nrm?0?$CF5i?0?$CF5i?0?$CF5i?0?$CF5i?0?$CFi?0?$CFu?3?$CFi?0@
	lea	ecx, DWORD PTR _str$[ebp]
	push	ecx
	call	_sprintf
	add	esp, 48					; 00000030H

; 185  : 			}
; 186  : 			else

	jmp	SHORT $LN15@OnInternal
$LN2@OnInternal:

; 187  : 			{
; 188  : 				sprintf(str, "%s,Nrm,%i,%i,%s,%i,%i,%u:%i,%u:%i\n",sendType, internalPacket->messageNumber,frameNumber,
; 189  : 					IDTOString(internalPacket->data[0]), internalPacket->dataBitLength,time,
; 190  : 					localPlayerId.binaryAddress, localPlayerId.port, remoteSystemID.binaryAddress, remoteSystemID.port);

	movzx	eax, WORD PTR _remoteSystemID$[ebp+4]
	push	eax
	mov	ecx, DWORD PTR _remoteSystemID$[ebp]
	push	ecx
	movzx	edx, WORD PTR _localPlayerId$[ebp+4]
	push	edx
	mov	eax, DWORD PTR _localPlayerId$[ebp]
	push	eax
	mov	ecx, DWORD PTR _time$[ebp]
	push	ecx
	mov	edx, DWORD PTR _internalPacket$[ebp]
	mov	eax, DWORD PTR [edx+43]
	push	eax
	mov	ecx, 1
	imul	edx, ecx, 0
	mov	eax, DWORD PTR _internalPacket$[ebp]
	mov	ecx, DWORD PTR [eax+47]
	movzx	edx, BYTE PTR [ecx+edx]
	push	edx
	mov	ecx, DWORD PTR _this$[ebp]
	call	?IDTOString@PacketLogger@@IAEPADE@Z	; PacketLogger::IDTOString
	push	eax
	mov	eax, DWORD PTR _frameNumber$[ebp]
	push	eax
	mov	ecx, DWORD PTR _internalPacket$[ebp]
	movzx	edx, WORD PTR [ecx]
	push	edx
	lea	eax, DWORD PTR _sendType$[ebp]
	push	eax
	push	OFFSET ??_C@_0CD@EJCGOEJ@?$CFs?0Nrm?0?$CFi?0?$CFi?0?$CFs?0?$CFi?0?$CFi?0?$CFu?3?$CFi?0?$CFu?3?$CF@
	lea	ecx, DWORD PTR _str$[ebp]
	push	ecx
	call	_sprintf
	add	esp, 48					; 00000030H
$LN15@OnInternal:

; 191  : 			}
; 192  : 		}
; 193  : 	}
; 194  : 
; 195  : 	WriteLog(str);

	mov	esi, esp
	lea	eax, DWORD PTR _str$[ebp]
	push	eax
	mov	ecx, DWORD PTR _this$[ebp]
	mov	edx, DWORD PTR [ecx]
	mov	ecx, DWORD PTR _this$[ebp]
	mov	eax, DWORD PTR [edx+48]
	call	eax
	cmp	esi, esp
	call	__RTC_CheckEsp

; 196  : }

	push	edx
	mov	ecx, ebp
	push	eax
	lea	edx, DWORD PTR $LN37@OnInternal
	call	@_RTC_CheckStackVars@8
	pop	eax
	pop	edx
	mov	ecx, DWORD PTR __$EHRec$[ebp]
	mov	DWORD PTR fs:0, ecx
	pop	ecx
	pop	edi
	pop	esi
	pop	ebx
	mov	ecx, DWORD PTR __$ArrayPad$[ebp]
	xor	ecx, ebp
	call	@__security_check_cookie@4
	add	esp, 1152				; 00000480H
	cmp	ebp, esp
	call	__RTC_CheckEsp
	mov	esp, ebp
	pop	ebp
	ret	24					; 00000018H
	npad	3
$LN37@OnInternal:
	DD	9
	DD	$LN36@OnInternal
$LN36@OnInternal:
	DD	-288					; fffffee0H
	DD	256					; 00000100H
	DD	$LN26@OnInternal
	DD	-300					; fffffed4H
	DD	4
	DD	$LN27@OnInternal
	DD	-316					; fffffec4H
	DD	6
	DD	$LN28@OnInternal
	DD	-325					; fffffebbH
	DD	1
	DD	$LN29@OnInternal
	DD	-340					; fffffeacH
	DD	4
	DD	$LN30@OnInternal
	DD	-349					; fffffea3H
	DD	1
	DD	$LN31@OnInternal
	DD	-616					; fffffd98H
	DD	256					; 00000100H
	DD	$LN32@OnInternal
	DD	-625					; fffffd8fH
	DD	1
	DD	$LN33@OnInternal
	DD	-924					; fffffc64H
	DD	273					; 00000111H
	DD	$LN34@OnInternal
$LN34@OnInternal:
	DB	114					; 00000072H
	DB	112					; 00000070H
	DB	99					; 00000063H
	DB	68					; 00000044H
	DB	101					; 00000065H
	DB	99					; 00000063H
	DB	111					; 0000006fH
	DB	100					; 00000064H
	DB	101					; 00000065H
	DB	0
$LN33@OnInternal:
	DB	114					; 00000072H
	DB	112					; 00000070H
	DB	99					; 00000063H
	DB	73					; 00000049H
	DB	110					; 0000006eH
	DB	100					; 00000064H
	DB	101					; 00000065H
	DB	120					; 00000078H
	DB	0
$LN32@OnInternal:
	DB	117					; 00000075H
	DB	110					; 0000006eH
	DB	105					; 00000069H
	DB	113					; 00000071H
	DB	117					; 00000075H
	DB	101					; 00000065H
	DB	73					; 00000049H
	DB	100					; 00000064H
	DB	101					; 00000065H
	DB	110					; 0000006eH
	DB	116					; 00000074H
	DB	105					; 00000069H
	DB	102					; 00000066H
	DB	105					; 00000069H
	DB	101					; 00000065H
	DB	114					; 00000072H
	DB	0
$LN31@OnInternal:
	DB	110					; 0000006eH
	DB	97					; 00000061H
	DB	109					; 0000006dH
	DB	101					; 00000065H
	DB	73					; 00000049H
	DB	115					; 00000073H
	DB	69					; 00000045H
	DB	110					; 0000006eH
	DB	99					; 00000063H
	DB	111					; 0000006fH
	DB	100					; 00000064H
	DB	101					; 00000065H
	DB	100					; 00000064H
	DB	0
$LN30@OnInternal:
	DB	98					; 00000062H
	DB	105					; 00000069H
	DB	116					; 00000074H
	DB	115					; 00000073H
	DB	79					; 0000004fH
	DB	102					; 00000066H
	DB	68					; 00000044H
	DB	97					; 00000061H
	DB	116					; 00000074H
	DB	97					; 00000061H
	DB	0
$LN29@OnInternal:
	DB	104					; 00000068H
	DB	97					; 00000061H
	DB	115					; 00000073H
	DB	84					; 00000054H
	DB	105					; 00000069H
	DB	109					; 0000006dH
	DB	101					; 00000065H
	DB	115					; 00000073H
	DB	116					; 00000074H
	DB	97					; 00000061H
	DB	109					; 0000006dH
	DB	112					; 00000070H
	DB	0
$LN28@OnInternal:
	DB	108					; 0000006cH
	DB	111					; 0000006fH
	DB	99					; 00000063H
	DB	97					; 00000061H
	DB	108					; 0000006cH
	DB	80					; 00000050H
	DB	108					; 0000006cH
	DB	97					; 00000061H
	DB	121					; 00000079H
	DB	101					; 00000065H
	DB	114					; 00000072H
	DB	73					; 00000049H
	DB	100					; 00000064H
	DB	0
$LN27@OnInternal:
	DB	115					; 00000073H
	DB	101					; 00000065H
	DB	110					; 0000006eH
	DB	100					; 00000064H
	DB	84					; 00000054H
	DB	121					; 00000079H
	DB	112					; 00000070H
	DB	101					; 00000065H
	DB	0
$LN26@OnInternal:
	DB	115					; 00000073H
	DB	116					; 00000074H
	DB	114					; 00000072H
	DB	0
_TEXT	ENDS
;	COMDAT text$x
text$x	SEGMENT
__unwindfunclet$?OnInternalPacket@PacketLogger@@UAEXPAUInternalPacket@@IUPlayerID@@I_N@Z$0:
	lea	ecx, DWORD PTR _rpcDecode$4[ebp]
	jmp	??1BitStream@RakNet@@QAE@XZ		; RakNet::BitStream::~BitStream
__ehhandler$?OnInternalPacket@PacketLogger@@UAEXPAUInternalPacket@@IUPlayerID@@I_N@Z:
	mov	edx, DWORD PTR [esp+8]
	lea	eax, DWORD PTR [edx+12]
	mov	ecx, DWORD PTR [edx-1156]
	xor	ecx, eax
	call	@__security_check_cookie@4
	mov	ecx, DWORD PTR [edx-4]
	xor	ecx, eax
	call	@__security_check_cookie@4
	mov	eax, OFFSET __ehfuncinfo$?OnInternalPacket@PacketLogger@@UAEXPAUInternalPacket@@IUPlayerID@@I_N@Z
	jmp	___CxxFrameHandler3
text$x	ENDS
?OnInternalPacket@PacketLogger@@UAEXPAUInternalPacket@@IUPlayerID@@I_N@Z ENDP ; PacketLogger::OnInternalPacket
; Function compile flags: /Odtp /RTCsu /ZI
; File z:\sampsrc\02xu1\raknet\packetlogger.cpp
;	COMDAT ?OnDirectSocketReceive@PacketLogger@@UAEXPBDIUPlayerID@@@Z
_TEXT	SEGMENT
$T1 = -498						; size = 6
_localPlayerId$ = -292					; size = 6
_str$ = -276						; size = 256
_this$ = -12						; size = 4
__$ArrayPad$ = -4					; size = 4
_data$ = 8						; size = 4
_bitsUsed$ = 12						; size = 4
_remoteSystemID$ = 16					; size = 6
?OnDirectSocketReceive@PacketLogger@@UAEXPBDIUPlayerID@@@Z PROC ; PacketLogger::OnDirectSocketReceive, COMDAT
; _this$ = ecx

; 70   : {

	push	ebp
	mov	ebp, esp
	sub	esp, 504				; 000001f8H
	push	ebx
	push	esi
	push	edi
	push	ecx
	lea	edi, DWORD PTR [ebp-504]
	mov	ecx, 126				; 0000007eH
	mov	eax, -858993460				; ccccccccH
	rep stosd
	pop	ecx
	mov	eax, DWORD PTR ___security_cookie
	xor	eax, ebp
	mov	DWORD PTR __$ArrayPad$[ebp], eax
	mov	DWORD PTR _this$[ebp], ecx

; 71   : 	char str[256];
; 72   : 	PlayerID localPlayerId;
; 73   : 	localPlayerId = rakPeer->GetInternalID();

	mov	esi, esp
	lea	eax, DWORD PTR $T1[ebp]
	push	eax
	mov	ecx, DWORD PTR _this$[ebp]
	mov	edx, DWORD PTR [ecx+4]
	mov	eax, DWORD PTR _this$[ebp]
	mov	edx, DWORD PTR [edx]
	mov	ecx, DWORD PTR [eax+4]
	mov	eax, DWORD PTR [edx+156]
	call	eax
	cmp	esi, esp
	call	__RTC_CheckEsp
	push	eax
	lea	ecx, DWORD PTR _localPlayerId$[ebp]
	call	??4PlayerID@@QAEAAU0@ABU0@@Z		; PlayerID::operator=

; 74   : 	if (printId==false)

	mov	eax, DWORD PTR _this$[ebp]
	movzx	ecx, BYTE PTR [eax+8]
	test	ecx, ecx
	jne	SHORT $LN2@OnDirectSo

; 75   : 	{
; 76   : 		sprintf(str, "Rcv,Raw,  NIL,  NIL,%5i,%5i,%i,%u:%i,%u:%i\n", data[0], bitsUsed,RakNet::GetTime(),
; 77   : 			localPlayerId.binaryAddress, localPlayerId.port, remoteSystemID.binaryAddress, remoteSystemID.port);

	movzx	eax, WORD PTR _remoteSystemID$[ebp+4]
	push	eax
	mov	ecx, DWORD PTR _remoteSystemID$[ebp]
	push	ecx
	movzx	edx, WORD PTR _localPlayerId$[ebp+4]
	push	edx
	mov	eax, DWORD PTR _localPlayerId$[ebp]
	push	eax
	call	?GetTime@RakNet@@YAIXZ			; RakNet::GetTime
	push	eax
	mov	ecx, DWORD PTR _bitsUsed$[ebp]
	push	ecx
	mov	edx, 1
	imul	eax, edx, 0
	mov	ecx, DWORD PTR _data$[ebp]
	movsx	edx, BYTE PTR [ecx+eax]
	push	edx
	push	OFFSET ??_C@_0CM@BNINLJOL@Rcv?0Raw?0?5?5NIL?0?5?5NIL?0?$CF5i?0?$CF5i?0?$CFi?0?$CF@
	lea	eax, DWORD PTR _str$[ebp]
	push	eax
	call	_sprintf
	add	esp, 36					; 00000024H

; 78   : 	}
; 79   : 	else

	jmp	SHORT $LN1@OnDirectSo
$LN2@OnDirectSo:

; 80   : 	{
; 81   : 		sprintf(str, "Rcv,Raw,NIL,NIL,%s,%i,%i,%u:%i,%u:%i\n", IDTOString(data[0]), bitsUsed,RakNet::GetTime(),
; 82   : 			localPlayerId.binaryAddress, localPlayerId.port, remoteSystemID.binaryAddress, remoteSystemID.port);

	movzx	eax, WORD PTR _remoteSystemID$[ebp+4]
	push	eax
	mov	ecx, DWORD PTR _remoteSystemID$[ebp]
	push	ecx
	movzx	edx, WORD PTR _localPlayerId$[ebp+4]
	push	edx
	mov	eax, DWORD PTR _localPlayerId$[ebp]
	push	eax
	call	?GetTime@RakNet@@YAIXZ			; RakNet::GetTime
	push	eax
	mov	ecx, DWORD PTR _bitsUsed$[ebp]
	push	ecx
	mov	edx, 1
	imul	eax, edx, 0
	mov	ecx, DWORD PTR _data$[ebp]
	movzx	edx, BYTE PTR [ecx+eax]
	push	edx
	mov	ecx, DWORD PTR _this$[ebp]
	call	?IDTOString@PacketLogger@@IAEPADE@Z	; PacketLogger::IDTOString
	push	eax
	push	OFFSET ??_C@_0CG@HEOPLHNJ@Rcv?0Raw?0NIL?0NIL?0?$CFs?0?$CFi?0?$CFi?0?$CFu?3?$CFi?0?$CF@
	lea	eax, DWORD PTR _str$[ebp]
	push	eax
	call	_sprintf
	add	esp, 36					; 00000024H
$LN1@OnDirectSo:

; 83   : 	}
; 84   : 
; 85   : 	WriteLog(str);

	mov	esi, esp
	lea	eax, DWORD PTR _str$[ebp]
	push	eax
	mov	ecx, DWORD PTR _this$[ebp]
	mov	edx, DWORD PTR [ecx]
	mov	ecx, DWORD PTR _this$[ebp]
	mov	eax, DWORD PTR [edx+48]
	call	eax
	cmp	esi, esp
	call	__RTC_CheckEsp

; 86   : }

	push	edx
	mov	ecx, ebp
	push	eax
	lea	edx, DWORD PTR $LN8@OnDirectSo
	call	@_RTC_CheckStackVars@8
	pop	eax
	pop	edx
	pop	edi
	pop	esi
	pop	ebx
	mov	ecx, DWORD PTR __$ArrayPad$[ebp]
	xor	ecx, ebp
	call	@__security_check_cookie@4
	add	esp, 504				; 000001f8H
	cmp	ebp, esp
	call	__RTC_CheckEsp
	mov	esp, ebp
	pop	ebp
	ret	16					; 00000010H
	npad	1
$LN8@OnDirectSo:
	DD	2
	DD	$LN7@OnDirectSo
$LN7@OnDirectSo:
	DD	-276					; fffffeecH
	DD	256					; 00000100H
	DD	$LN5@OnDirectSo
	DD	-292					; fffffedcH
	DD	6
	DD	$LN6@OnDirectSo
$LN6@OnDirectSo:
	DB	108					; 0000006cH
	DB	111					; 0000006fH
	DB	99					; 00000063H
	DB	97					; 00000061H
	DB	108					; 0000006cH
	DB	80					; 00000050H
	DB	108					; 0000006cH
	DB	97					; 00000061H
	DB	121					; 00000079H
	DB	101					; 00000065H
	DB	114					; 00000072H
	DB	73					; 00000049H
	DB	100					; 00000064H
	DB	0
$LN5@OnDirectSo:
	DB	115					; 00000073H
	DB	116					; 00000074H
	DB	114					; 00000072H
	DB	0
?OnDirectSocketReceive@PacketLogger@@UAEXPBDIUPlayerID@@@Z ENDP ; PacketLogger::OnDirectSocketReceive
_TEXT	ENDS
; Function compile flags: /Odtp /RTCsu /ZI
; File z:\sampsrc\02xu1\raknet\packetlogger.cpp
;	COMDAT ?OnDirectSocketSend@PacketLogger@@UAEXPBDIUPlayerID@@@Z
_TEXT	SEGMENT
$T1 = -498						; size = 6
_localPlayerId$ = -292					; size = 6
_str$ = -276						; size = 256
_this$ = -12						; size = 4
__$ArrayPad$ = -4					; size = 4
_data$ = 8						; size = 4
_bitsUsed$ = 12						; size = 4
_remoteSystemID$ = 16					; size = 6
?OnDirectSocketSend@PacketLogger@@UAEXPBDIUPlayerID@@@Z PROC ; PacketLogger::OnDirectSocketSend, COMDAT
; _this$ = ecx

; 47   : {

	push	ebp
	mov	ebp, esp
	sub	esp, 504				; 000001f8H
	push	ebx
	push	esi
	push	edi
	push	ecx
	lea	edi, DWORD PTR [ebp-504]
	mov	ecx, 126				; 0000007eH
	mov	eax, -858993460				; ccccccccH
	rep stosd
	pop	ecx
	mov	eax, DWORD PTR ___security_cookie
	xor	eax, ebp
	mov	DWORD PTR __$ArrayPad$[ebp], eax
	mov	DWORD PTR _this$[ebp], ecx

; 48   : 	char str[256];
; 49   : 	PlayerID localPlayerId;
; 50   : 	localPlayerId = rakPeer->GetInternalID();

	mov	esi, esp
	lea	eax, DWORD PTR $T1[ebp]
	push	eax
	mov	ecx, DWORD PTR _this$[ebp]
	mov	edx, DWORD PTR [ecx+4]
	mov	eax, DWORD PTR _this$[ebp]
	mov	edx, DWORD PTR [edx]
	mov	ecx, DWORD PTR [eax+4]
	mov	eax, DWORD PTR [edx+156]
	call	eax
	cmp	esi, esp
	call	__RTC_CheckEsp
	push	eax
	lea	ecx, DWORD PTR _localPlayerId$[ebp]
	call	??4PlayerID@@QAEAAU0@ABU0@@Z		; PlayerID::operator=

; 51   : 
; 52   : 	if (printId==false)

	mov	eax, DWORD PTR _this$[ebp]
	movzx	ecx, BYTE PTR [eax+8]
	test	ecx, ecx
	jne	SHORT $LN2@OnDirectSo

; 53   : 	{
; 54   : 		sprintf(str, "Snd,Raw,  NIL,  NIL,%5i,%5i,%i,%u:%i,%u:%i\n", data[0], bitsUsed,RakNet::GetTime(),
; 55   : 			localPlayerId.binaryAddress, localPlayerId.port, remoteSystemID.binaryAddress, remoteSystemID.port);

	movzx	eax, WORD PTR _remoteSystemID$[ebp+4]
	push	eax
	mov	ecx, DWORD PTR _remoteSystemID$[ebp]
	push	ecx
	movzx	edx, WORD PTR _localPlayerId$[ebp+4]
	push	edx
	mov	eax, DWORD PTR _localPlayerId$[ebp]
	push	eax
	call	?GetTime@RakNet@@YAIXZ			; RakNet::GetTime
	push	eax
	mov	ecx, DWORD PTR _bitsUsed$[ebp]
	push	ecx
	mov	edx, 1
	imul	eax, edx, 0
	mov	ecx, DWORD PTR _data$[ebp]
	movsx	edx, BYTE PTR [ecx+eax]
	push	edx
	push	OFFSET ??_C@_0CM@GILAHBDH@Snd?0Raw?0?5?5NIL?0?5?5NIL?0?$CF5i?0?$CF5i?0?$CFi?0?$CF@
	lea	eax, DWORD PTR _str$[ebp]
	push	eax
	call	_sprintf
	add	esp, 36					; 00000024H

; 56   : 	}
; 57   : 	else

	jmp	SHORT $LN1@OnDirectSo
$LN2@OnDirectSo:

; 58   : 	{
; 59   : 		sprintf(str, "Snd,Raw,NIL,NIL,%s,%i,%i,%u:%i,%u:%i\n",IDTOString(data[0]), bitsUsed,RakNet::GetTime(),
; 60   : 			localPlayerId.binaryAddress, localPlayerId.port, remoteSystemID.binaryAddress, remoteSystemID.port);

	movzx	eax, WORD PTR _remoteSystemID$[ebp+4]
	push	eax
	mov	ecx, DWORD PTR _remoteSystemID$[ebp]
	push	ecx
	movzx	edx, WORD PTR _localPlayerId$[ebp+4]
	push	edx
	mov	eax, DWORD PTR _localPlayerId$[ebp]
	push	eax
	call	?GetTime@RakNet@@YAIXZ			; RakNet::GetTime
	push	eax
	mov	ecx, DWORD PTR _bitsUsed$[ebp]
	push	ecx
	mov	edx, 1
	imul	eax, edx, 0
	mov	ecx, DWORD PTR _data$[ebp]
	movzx	edx, BYTE PTR [ecx+eax]
	push	edx
	mov	ecx, DWORD PTR _this$[ebp]
	call	?IDTOString@PacketLogger@@IAEPADE@Z	; PacketLogger::IDTOString
	push	eax
	push	OFFSET ??_C@_0CG@NLLDGLNC@Snd?0Raw?0NIL?0NIL?0?$CFs?0?$CFi?0?$CFi?0?$CFu?3?$CFi?0?$CF@
	lea	eax, DWORD PTR _str$[ebp]
	push	eax
	call	_sprintf
	add	esp, 36					; 00000024H
$LN1@OnDirectSo:

; 61   : 	}
; 62   : 	WriteLog(str);

	mov	esi, esp
	lea	eax, DWORD PTR _str$[ebp]
	push	eax
	mov	ecx, DWORD PTR _this$[ebp]
	mov	edx, DWORD PTR [ecx]
	mov	ecx, DWORD PTR _this$[ebp]
	mov	eax, DWORD PTR [edx+48]
	call	eax
	cmp	esi, esp
	call	__RTC_CheckEsp

; 63   : }

	push	edx
	mov	ecx, ebp
	push	eax
	lea	edx, DWORD PTR $LN8@OnDirectSo
	call	@_RTC_CheckStackVars@8
	pop	eax
	pop	edx
	pop	edi
	pop	esi
	pop	ebx
	mov	ecx, DWORD PTR __$ArrayPad$[ebp]
	xor	ecx, ebp
	call	@__security_check_cookie@4
	add	esp, 504				; 000001f8H
	cmp	ebp, esp
	call	__RTC_CheckEsp
	mov	esp, ebp
	pop	ebp
	ret	16					; 00000010H
	npad	1
$LN8@OnDirectSo:
	DD	2
	DD	$LN7@OnDirectSo
$LN7@OnDirectSo:
	DD	-276					; fffffeecH
	DD	256					; 00000100H
	DD	$LN5@OnDirectSo
	DD	-292					; fffffedcH
	DD	6
	DD	$LN6@OnDirectSo
$LN6@OnDirectSo:
	DB	108					; 0000006cH
	DB	111					; 0000006fH
	DB	99					; 00000063H
	DB	97					; 00000061H
	DB	108					; 0000006cH
	DB	80					; 00000050H
	DB	108					; 0000006cH
	DB	97					; 00000061H
	DB	121					; 00000079H
	DB	101					; 00000065H
	DB	114					; 00000072H
	DB	73					; 00000049H
	DB	100					; 00000064H
	DB	0
$LN5@OnDirectSo:
	DB	115					; 00000073H
	DB	116					; 00000074H
	DB	114					; 00000072H
	DB	0
?OnDirectSocketSend@PacketLogger@@UAEXPBDIUPlayerID@@@Z ENDP ; PacketLogger::OnDirectSocketSend
_TEXT	ENDS
; Function compile flags: /Odtp /RTCsu /ZI
; File z:\sampsrc\02xu1\raknet\packetlogger.cpp
;	COMDAT ?OnAttach@PacketLogger@@UAEXPAVRakPeerInterface@@@Z
_TEXT	SEGMENT
_this$ = -8						; size = 4
_peer$ = 8						; size = 4
?OnAttach@PacketLogger@@UAEXPAVRakPeerInterface@@@Z PROC ; PacketLogger::OnAttach, COMDAT
; _this$ = ecx

; 43   : {

	push	ebp
	mov	ebp, esp
	sub	esp, 204				; 000000ccH
	push	ebx
	push	esi
	push	edi
	push	ecx
	lea	edi, DWORD PTR [ebp-204]
	mov	ecx, 51					; 00000033H
	mov	eax, -858993460				; ccccccccH
	rep stosd
	pop	ecx
	mov	DWORD PTR _this$[ebp], ecx

; 44   : 	rakPeer=peer;

	mov	eax, DWORD PTR _this$[ebp]
	mov	ecx, DWORD PTR _peer$[ebp]
	mov	DWORD PTR [eax+4], ecx

; 45   : }

	pop	edi
	pop	esi
	pop	ebx
	mov	esp, ebp
	pop	ebp
	ret	4
?OnAttach@PacketLogger@@UAEXPAVRakPeerInterface@@@Z ENDP ; PacketLogger::OnAttach
_TEXT	ENDS
; Function compile flags: /Odtp /RTCsu /ZI
; File z:\sampsrc\02xu1\raknet\packetlogger.cpp
;	COMDAT ??1PacketLogger@@UAE@XZ
_TEXT	SEGMENT
_this$ = -8						; size = 4
??1PacketLogger@@UAE@XZ PROC				; PacketLogger::~PacketLogger, COMDAT
; _this$ = ecx

; 40   : {

	push	ebp
	mov	ebp, esp
	sub	esp, 204				; 000000ccH
	push	ebx
	push	esi
	push	edi
	push	ecx
	lea	edi, DWORD PTR [ebp-204]
	mov	ecx, 51					; 00000033H
	mov	eax, -858993460				; ccccccccH
	rep stosd
	pop	ecx
	mov	DWORD PTR _this$[ebp], ecx
	mov	eax, DWORD PTR _this$[ebp]
	mov	DWORD PTR [eax], OFFSET ??_7PacketLogger@@6B@

; 41   : }

	pop	edi
	pop	esi
	pop	ebx
	mov	esp, ebp
	pop	ebp
	ret	0
??1PacketLogger@@UAE@XZ ENDP				; PacketLogger::~PacketLogger
_TEXT	ENDS
; Function compile flags: /Odtp /RTCsu /ZI
; File z:\sampsrc\02xu1\raknet\packetlogger.cpp
;	COMDAT ??0PacketLogger@@QAE@XZ
_TEXT	SEGMENT
_this$ = -8						; size = 4
??0PacketLogger@@QAE@XZ PROC				; PacketLogger::PacketLogger, COMDAT
; _this$ = ecx

; 34   : {

	push	ebp
	mov	ebp, esp
	sub	esp, 204				; 000000ccH
	push	ebx
	push	esi
	push	edi
	push	ecx
	lea	edi, DWORD PTR [ebp-204]
	mov	ecx, 51					; 00000033H
	mov	eax, -858993460				; ccccccccH
	rep stosd
	pop	ecx
	mov	DWORD PTR _this$[ebp], ecx
	mov	ecx, DWORD PTR _this$[ebp]
	call	??0PluginInterface@@QAE@XZ
	mov	eax, DWORD PTR _this$[ebp]
	mov	DWORD PTR [eax], OFFSET ??_7PacketLogger@@6B@

; 35   : 	rakPeer=0;

	mov	eax, DWORD PTR _this$[ebp]
	mov	DWORD PTR [eax+4], 0

; 36   : 	printId=true;

	mov	eax, DWORD PTR _this$[ebp]
	mov	BYTE PTR [eax+8], 1

; 37   : 	printAcks=true;

	mov	eax, DWORD PTR _this$[ebp]
	mov	BYTE PTR [eax+9], 1

; 38   : }

	mov	eax, DWORD PTR _this$[ebp]
	pop	edi
	pop	esi
	pop	ebx
	add	esp, 204				; 000000ccH
	cmp	ebp, esp
	call	__RTC_CheckEsp
	mov	esp, ebp
	pop	ebp
	ret	0
??0PacketLogger@@QAE@XZ ENDP				; PacketLogger::PacketLogger
_TEXT	ENDS
; Function compile flags: /Odtp /RTCsu /ZI
;	COMDAT ??0PluginInterface@@QAE@XZ
_TEXT	SEGMENT
_this$ = -8						; size = 4
??0PluginInterface@@QAE@XZ PROC				; PluginInterface::PluginInterface, COMDAT
; _this$ = ecx
	push	ebp
	mov	ebp, esp
	sub	esp, 204				; 000000ccH
	push	ebx
	push	esi
	push	edi
	push	ecx
	lea	edi, DWORD PTR [ebp-204]
	mov	ecx, 51					; 00000033H
	mov	eax, -858993460				; ccccccccH
	rep stosd
	pop	ecx
	mov	DWORD PTR _this$[ebp], ecx
	mov	eax, DWORD PTR _this$[ebp]
	mov	DWORD PTR [eax], OFFSET ??_7PluginInterface@@6B@
	mov	eax, DWORD PTR _this$[ebp]
	pop	edi
	pop	esi
	pop	ebx
	mov	esp, ebp
	pop	ebp
	ret	0
??0PluginInterface@@QAE@XZ ENDP				; PluginInterface::PluginInterface
_TEXT	ENDS
; Function compile flags: /Odtp /RTCsu /ZI
; File z:\sampsrc\02xu1\raknet\networktypes.h
;	COMDAT ??4PlayerID@@QAEAAU0@ABU0@@Z
_TEXT	SEGMENT
_this$ = -8						; size = 4
_input$ = 8						; size = 4
??4PlayerID@@QAEAAU0@ABU0@@Z PROC			; PlayerID::operator=, COMDAT
; _this$ = ecx

; 74   : 	{

	push	ebp
	mov	ebp, esp
	sub	esp, 204				; 000000ccH
	push	ebx
	push	esi
	push	edi
	push	ecx
	lea	edi, DWORD PTR [ebp-204]
	mov	ecx, 51					; 00000033H
	mov	eax, -858993460				; ccccccccH
	rep stosd
	pop	ecx
	mov	DWORD PTR _this$[ebp], ecx

; 75   : 		binaryAddress = input.binaryAddress;

	mov	eax, DWORD PTR _this$[ebp]
	mov	ecx, DWORD PTR _input$[ebp]
	mov	edx, DWORD PTR [ecx]
	mov	DWORD PTR [eax], edx

; 76   : 		port = input.port;

	mov	eax, DWORD PTR _this$[ebp]
	mov	ecx, DWORD PTR _input$[ebp]
	mov	dx, WORD PTR [ecx+4]
	mov	WORD PTR [eax+4], dx

; 77   : 		return *this;

	mov	eax, DWORD PTR _this$[ebp]

; 78   : 	}

	pop	edi
	pop	esi
	pop	ebx
	mov	esp, ebp
	pop	ebp
	ret	4
??4PlayerID@@QAEAAU0@ABU0@@Z ENDP			; PlayerID::operator=
_TEXT	ENDS
END
