; Listing generated by Microsoft (R) Optimizing Compiler Version 18.00.31101.0 

	TITLE	Z:\sampsrc\02Xu1\raknet\PacketConsoleLogger.cpp
	.686P
	.XMM
	include listing.inc
	.model	flat

INCLUDELIB LIBCMTD
INCLUDELIB OLDNAMES

PUBLIC	??0PacketConsoleLogger@@QAE@XZ			; PacketConsoleLogger::PacketConsoleLogger
PUBLIC	?SetLogCommandParser@PacketConsoleLogger@@UAEXPAVLogCommandParser@@@Z ; PacketConsoleLogger::SetLogCommandParser
PUBLIC	?WriteLog@PacketConsoleLogger@@UAEXPBD@Z	; PacketConsoleLogger::WriteLog
PUBLIC	??1PacketConsoleLogger@@UAE@XZ			; PacketConsoleLogger::~PacketConsoleLogger
PUBLIC	??_GPacketConsoleLogger@@UAEPAXI@Z		; PacketConsoleLogger::`scalar deleting destructor'
PUBLIC	??_7PacketConsoleLogger@@6B@			; PacketConsoleLogger::`vftable'
PUBLIC	??_C@_0BE@IJNHMNLA@PacketConsoleLogger?$AA@	; `string'
PUBLIC	??_R4PacketConsoleLogger@@6B@			; PacketConsoleLogger::`RTTI Complete Object Locator'
PUBLIC	??_R0?AVPacketConsoleLogger@@@8			; PacketConsoleLogger `RTTI Type Descriptor'
PUBLIC	??_R3PacketConsoleLogger@@8			; PacketConsoleLogger::`RTTI Class Hierarchy Descriptor'
PUBLIC	??_R2PacketConsoleLogger@@8			; PacketConsoleLogger::`RTTI Base Class Array'
PUBLIC	??_R1A@?0A@EA@PacketConsoleLogger@@8		; PacketConsoleLogger::`RTTI Base Class Descriptor at (0,-1,0,64)'
PUBLIC	??_R1A@?0A@EA@PacketLogger@@8			; PacketLogger::`RTTI Base Class Descriptor at (0,-1,0,64)'
PUBLIC	??_R0?AVPacketLogger@@@8			; PacketLogger `RTTI Type Descriptor'
PUBLIC	??_R3PacketLogger@@8				; PacketLogger::`RTTI Class Hierarchy Descriptor'
PUBLIC	??_R2PacketLogger@@8				; PacketLogger::`RTTI Base Class Array'
PUBLIC	??_R1A@?0A@EA@PluginInterface@@8		; PluginInterface::`RTTI Base Class Descriptor at (0,-1,0,64)'
PUBLIC	??_R0?AVPluginInterface@@@8			; PluginInterface `RTTI Type Descriptor'
PUBLIC	??_R3PluginInterface@@8				; PluginInterface::`RTTI Class Hierarchy Descriptor'
PUBLIC	??_R2PluginInterface@@8				; PluginInterface::`RTTI Base Class Array'
EXTRN	??3@YAXPAX@Z:PROC				; operator delete
EXTRN	?OnDetach@PluginInterface@@UAEXPAVRakPeerInterface@@@Z:PROC ; PluginInterface::OnDetach
EXTRN	?OnInitialize@PluginInterface@@UAEXPAVRakPeerInterface@@@Z:PROC ; PluginInterface::OnInitialize
EXTRN	?Update@PluginInterface@@UAEXPAVRakPeerInterface@@@Z:PROC ; PluginInterface::Update
EXTRN	?OnReceive@PluginInterface@@UAE?AW4PluginReceiveResult@@PAVRakPeerInterface@@PAUPacket@@@Z:PROC ; PluginInterface::OnReceive
EXTRN	?OnDisconnect@PluginInterface@@UAEXPAVRakPeerInterface@@@Z:PROC ; PluginInterface::OnDisconnect
EXTRN	?OnCloseConnection@PluginInterface@@UAEXPAVRakPeerInterface@@UPlayerID@@@Z:PROC ; PluginInterface::OnCloseConnection
EXTRN	??0PacketLogger@@QAE@XZ:PROC			; PacketLogger::PacketLogger
EXTRN	??1PacketLogger@@UAE@XZ:PROC			; PacketLogger::~PacketLogger
EXTRN	?OnAttach@PacketLogger@@UAEXPAVRakPeerInterface@@@Z:PROC ; PacketLogger::OnAttach
EXTRN	?OnDirectSocketSend@PacketLogger@@UAEXPBDIUPlayerID@@@Z:PROC ; PacketLogger::OnDirectSocketSend
EXTRN	?OnDirectSocketReceive@PacketLogger@@UAEXPBDIUPlayerID@@@Z:PROC ; PacketLogger::OnDirectSocketReceive
EXTRN	?OnInternalPacket@PacketLogger@@UAEXPAUInternalPacket@@IUPlayerID@@I_N@Z:PROC ; PacketLogger::OnInternalPacket
EXTRN	?LogHeader@PacketLogger@@UAEXXZ:PROC		; PacketLogger::LogHeader
EXTRN	?SetPrintID@PacketLogger@@UAEX_N@Z:PROC		; PacketLogger::SetPrintID
EXTRN	?SetPrintAcks@PacketLogger@@UAEX_N@Z:PROC	; PacketLogger::SetPrintAcks
EXTRN	?UserIDTOString@PacketLogger@@MAEPADE@Z:PROC	; PacketLogger::UserIDTOString
EXTRN	??_EPacketConsoleLogger@@UAEPAXI@Z:PROC		; PacketConsoleLogger::`vector deleting destructor'
EXTRN	?AddChannel@LogCommandParser@@QAEXPBD@Z:PROC	; LogCommandParser::AddChannel
EXTRN	?WriteLog@LogCommandParser@@QAAXPBD0ZZ:PROC	; LogCommandParser::WriteLog
EXTRN	__RTC_CheckEsp:PROC
EXTRN	__RTC_InitBase:PROC
EXTRN	__RTC_Shutdown:PROC
EXTRN	??_7type_info@@6B@:QWORD			; type_info::`vftable'
;	COMDAT rtc$TMZ
rtc$TMZ	SEGMENT
__RTC_Shutdown.rtc$TMZ DD FLAT:__RTC_Shutdown
rtc$TMZ	ENDS
;	COMDAT rtc$IMZ
rtc$IMZ	SEGMENT
__RTC_InitBase.rtc$IMZ DD FLAT:__RTC_InitBase
rtc$IMZ	ENDS
;	COMDAT ??_R2PluginInterface@@8
rdata$r	SEGMENT
??_R2PluginInterface@@8 DD FLAT:??_R1A@?0A@EA@PluginInterface@@8 ; PluginInterface::`RTTI Base Class Array'
rdata$r	ENDS
;	COMDAT ??_R3PluginInterface@@8
rdata$r	SEGMENT
??_R3PluginInterface@@8 DD 00H				; PluginInterface::`RTTI Class Hierarchy Descriptor'
	DD	00H
	DD	01H
	DD	FLAT:??_R2PluginInterface@@8
rdata$r	ENDS
;	COMDAT ??_R0?AVPluginInterface@@@8
data$r	SEGMENT
??_R0?AVPluginInterface@@@8 DD FLAT:??_7type_info@@6B@	; PluginInterface `RTTI Type Descriptor'
	DD	00H
	DB	'.?AVPluginInterface@@', 00H
data$r	ENDS
;	COMDAT ??_R1A@?0A@EA@PluginInterface@@8
rdata$r	SEGMENT
??_R1A@?0A@EA@PluginInterface@@8 DD FLAT:??_R0?AVPluginInterface@@@8 ; PluginInterface::`RTTI Base Class Descriptor at (0,-1,0,64)'
	DD	00H
	DD	00H
	DD	0ffffffffH
	DD	00H
	DD	040H
	DD	FLAT:??_R3PluginInterface@@8
rdata$r	ENDS
;	COMDAT ??_R2PacketLogger@@8
rdata$r	SEGMENT
??_R2PacketLogger@@8 DD FLAT:??_R1A@?0A@EA@PacketLogger@@8 ; PacketLogger::`RTTI Base Class Array'
	DD	FLAT:??_R1A@?0A@EA@PluginInterface@@8
rdata$r	ENDS
;	COMDAT ??_R3PacketLogger@@8
rdata$r	SEGMENT
??_R3PacketLogger@@8 DD 00H				; PacketLogger::`RTTI Class Hierarchy Descriptor'
	DD	00H
	DD	02H
	DD	FLAT:??_R2PacketLogger@@8
rdata$r	ENDS
;	COMDAT ??_R0?AVPacketLogger@@@8
data$r	SEGMENT
??_R0?AVPacketLogger@@@8 DD FLAT:??_7type_info@@6B@	; PacketLogger `RTTI Type Descriptor'
	DD	00H
	DB	'.?AVPacketLogger@@', 00H
data$r	ENDS
;	COMDAT ??_R1A@?0A@EA@PacketLogger@@8
rdata$r	SEGMENT
??_R1A@?0A@EA@PacketLogger@@8 DD FLAT:??_R0?AVPacketLogger@@@8 ; PacketLogger::`RTTI Base Class Descriptor at (0,-1,0,64)'
	DD	01H
	DD	00H
	DD	0ffffffffH
	DD	00H
	DD	040H
	DD	FLAT:??_R3PacketLogger@@8
rdata$r	ENDS
;	COMDAT ??_R1A@?0A@EA@PacketConsoleLogger@@8
rdata$r	SEGMENT
??_R1A@?0A@EA@PacketConsoleLogger@@8 DD FLAT:??_R0?AVPacketConsoleLogger@@@8 ; PacketConsoleLogger::`RTTI Base Class Descriptor at (0,-1,0,64)'
	DD	02H
	DD	00H
	DD	0ffffffffH
	DD	00H
	DD	040H
	DD	FLAT:??_R3PacketConsoleLogger@@8
rdata$r	ENDS
;	COMDAT ??_R2PacketConsoleLogger@@8
rdata$r	SEGMENT
??_R2PacketConsoleLogger@@8 DD FLAT:??_R1A@?0A@EA@PacketConsoleLogger@@8 ; PacketConsoleLogger::`RTTI Base Class Array'
	DD	FLAT:??_R1A@?0A@EA@PacketLogger@@8
	DD	FLAT:??_R1A@?0A@EA@PluginInterface@@8
rdata$r	ENDS
;	COMDAT ??_R3PacketConsoleLogger@@8
rdata$r	SEGMENT
??_R3PacketConsoleLogger@@8 DD 00H			; PacketConsoleLogger::`RTTI Class Hierarchy Descriptor'
	DD	00H
	DD	03H
	DD	FLAT:??_R2PacketConsoleLogger@@8
rdata$r	ENDS
;	COMDAT ??_R0?AVPacketConsoleLogger@@@8
data$r	SEGMENT
??_R0?AVPacketConsoleLogger@@@8 DD FLAT:??_7type_info@@6B@ ; PacketConsoleLogger `RTTI Type Descriptor'
	DD	00H
	DB	'.?AVPacketConsoleLogger@@', 00H
data$r	ENDS
;	COMDAT ??_R4PacketConsoleLogger@@6B@
rdata$r	SEGMENT
??_R4PacketConsoleLogger@@6B@ DD 00H			; PacketConsoleLogger::`RTTI Complete Object Locator'
	DD	00H
	DD	00H
	DD	FLAT:??_R0?AVPacketConsoleLogger@@@8
	DD	FLAT:??_R3PacketConsoleLogger@@8
rdata$r	ENDS
;	COMDAT ??_C@_0BE@IJNHMNLA@PacketConsoleLogger?$AA@
CONST	SEGMENT
??_C@_0BE@IJNHMNLA@PacketConsoleLogger?$AA@ DB 'PacketConsoleLogger', 00H ; `string'
CONST	ENDS
;	COMDAT ??_7PacketConsoleLogger@@6B@
CONST	SEGMENT
??_7PacketConsoleLogger@@6B@ DD FLAT:??_R4PacketConsoleLogger@@6B@ ; PacketConsoleLogger::`vftable'
	DD	FLAT:?OnAttach@PacketLogger@@UAEXPAVRakPeerInterface@@@Z
	DD	FLAT:?OnDetach@PluginInterface@@UAEXPAVRakPeerInterface@@@Z
	DD	FLAT:?OnInitialize@PluginInterface@@UAEXPAVRakPeerInterface@@@Z
	DD	FLAT:?Update@PluginInterface@@UAEXPAVRakPeerInterface@@@Z
	DD	FLAT:?OnReceive@PluginInterface@@UAE?AW4PluginReceiveResult@@PAVRakPeerInterface@@PAUPacket@@@Z
	DD	FLAT:?OnDisconnect@PluginInterface@@UAEXPAVRakPeerInterface@@@Z
	DD	FLAT:?OnCloseConnection@PluginInterface@@UAEXPAVRakPeerInterface@@UPlayerID@@@Z
	DD	FLAT:?OnDirectSocketSend@PacketLogger@@UAEXPBDIUPlayerID@@@Z
	DD	FLAT:?OnDirectSocketReceive@PacketLogger@@UAEXPBDIUPlayerID@@@Z
	DD	FLAT:?OnInternalPacket@PacketLogger@@UAEXPAUInternalPacket@@IUPlayerID@@I_N@Z
	DD	FLAT:??_EPacketConsoleLogger@@UAEPAXI@Z
	DD	FLAT:?LogHeader@PacketLogger@@UAEXXZ
	DD	FLAT:?WriteLog@PacketConsoleLogger@@UAEXPBD@Z
	DD	FLAT:?SetPrintID@PacketLogger@@UAEX_N@Z
	DD	FLAT:?SetPrintAcks@PacketLogger@@UAEX_N@Z
	DD	FLAT:?UserIDTOString@PacketLogger@@MAEPADE@Z
	DD	FLAT:?SetLogCommandParser@PacketConsoleLogger@@UAEXPAVLogCommandParser@@@Z
CONST	ENDS
; Function compile flags: /Odtp /RTCsu /ZI
;	COMDAT ??_GPacketConsoleLogger@@UAEPAXI@Z
_TEXT	SEGMENT
_this$ = -8						; size = 4
___flags$ = 8						; size = 4
??_GPacketConsoleLogger@@UAEPAXI@Z PROC			; PacketConsoleLogger::`scalar deleting destructor', COMDAT
; _this$ = ecx
	push	ebp
	mov	ebp, esp
	sub	esp, 204				; 000000ccH
	push	ebx
	push	esi
	push	edi
	push	ecx
	lea	edi, DWORD PTR [ebp-204]
	mov	ecx, 51					; 00000033H
	mov	eax, -858993460				; ccccccccH
	rep stosd
	pop	ecx
	mov	DWORD PTR _this$[ebp], ecx
	mov	ecx, DWORD PTR _this$[ebp]
	call	??1PacketConsoleLogger@@UAE@XZ
	mov	eax, DWORD PTR ___flags$[ebp]
	and	eax, 1
	je	SHORT $LN1@scalar
	mov	eax, DWORD PTR _this$[ebp]
	push	eax
	call	??3@YAXPAX@Z				; operator delete
	add	esp, 4
$LN1@scalar:
	mov	eax, DWORD PTR _this$[ebp]
	pop	edi
	pop	esi
	pop	ebx
	add	esp, 204				; 000000ccH
	cmp	ebp, esp
	call	__RTC_CheckEsp
	mov	esp, ebp
	pop	ebp
	ret	4
??_GPacketConsoleLogger@@UAEPAXI@Z ENDP			; PacketConsoleLogger::`scalar deleting destructor'
_TEXT	ENDS
; Function compile flags: /Odtp /RTCsu /ZI
;	COMDAT ??1PacketConsoleLogger@@UAE@XZ
_TEXT	SEGMENT
_this$ = -8						; size = 4
??1PacketConsoleLogger@@UAE@XZ PROC			; PacketConsoleLogger::~PacketConsoleLogger, COMDAT
; _this$ = ecx
	push	ebp
	mov	ebp, esp
	sub	esp, 204				; 000000ccH
	push	ebx
	push	esi
	push	edi
	push	ecx
	lea	edi, DWORD PTR [ebp-204]
	mov	ecx, 51					; 00000033H
	mov	eax, -858993460				; ccccccccH
	rep stosd
	pop	ecx
	mov	DWORD PTR _this$[ebp], ecx
	mov	ecx, DWORD PTR _this$[ebp]
	call	??1PacketLogger@@UAE@XZ			; PacketLogger::~PacketLogger
	pop	edi
	pop	esi
	pop	ebx
	add	esp, 204				; 000000ccH
	cmp	ebp, esp
	call	__RTC_CheckEsp
	mov	esp, ebp
	pop	ebp
	ret	0
??1PacketConsoleLogger@@UAE@XZ ENDP			; PacketConsoleLogger::~PacketConsoleLogger
_TEXT	ENDS
; Function compile flags: /Odtp /RTCsu /ZI
; File z:\sampsrc\02xu1\raknet\packetconsolelogger.cpp
;	COMDAT ?WriteLog@PacketConsoleLogger@@UAEXPBD@Z
_TEXT	SEGMENT
_this$ = -8						; size = 4
_str$ = 8						; size = 4
?WriteLog@PacketConsoleLogger@@UAEXPBD@Z PROC		; PacketConsoleLogger::WriteLog, COMDAT
; _this$ = ecx

; 16   : {

	push	ebp
	mov	ebp, esp
	sub	esp, 204				; 000000ccH
	push	ebx
	push	esi
	push	edi
	push	ecx
	lea	edi, DWORD PTR [ebp-204]
	mov	ecx, 51					; 00000033H
	mov	eax, -858993460				; ccccccccH
	rep stosd
	pop	ecx
	mov	DWORD PTR _this$[ebp], ecx

; 17   : 	if (logCommandParser)

	mov	eax, DWORD PTR _this$[ebp]
	cmp	DWORD PTR [eax+10], 0
	je	SHORT $LN2@WriteLog

; 18   : 		logCommandParser->WriteLog("PacketConsoleLogger", str);

	mov	eax, DWORD PTR _str$[ebp]
	push	eax
	push	OFFSET ??_C@_0BE@IJNHMNLA@PacketConsoleLogger?$AA@
	mov	ecx, DWORD PTR _this$[ebp]
	mov	edx, DWORD PTR [ecx+10]
	push	edx
	call	?WriteLog@LogCommandParser@@QAAXPBD0ZZ	; LogCommandParser::WriteLog
	add	esp, 12					; 0000000cH
$LN2@WriteLog:

; 19   : }

	pop	edi
	pop	esi
	pop	ebx
	add	esp, 204				; 000000ccH
	cmp	ebp, esp
	call	__RTC_CheckEsp
	mov	esp, ebp
	pop	ebp
	ret	4
?WriteLog@PacketConsoleLogger@@UAEXPBD@Z ENDP		; PacketConsoleLogger::WriteLog
_TEXT	ENDS
; Function compile flags: /Odtp /RTCsu /ZI
; File z:\sampsrc\02xu1\raknet\packetconsolelogger.cpp
;	COMDAT ?SetLogCommandParser@PacketConsoleLogger@@UAEXPAVLogCommandParser@@@Z
_TEXT	SEGMENT
_this$ = -8						; size = 4
_lcp$ = 8						; size = 4
?SetLogCommandParser@PacketConsoleLogger@@UAEXPAVLogCommandParser@@@Z PROC ; PacketConsoleLogger::SetLogCommandParser, COMDAT
; _this$ = ecx

; 10   : {

	push	ebp
	mov	ebp, esp
	sub	esp, 204				; 000000ccH
	push	ebx
	push	esi
	push	edi
	push	ecx
	lea	edi, DWORD PTR [ebp-204]
	mov	ecx, 51					; 00000033H
	mov	eax, -858993460				; ccccccccH
	rep stosd
	pop	ecx
	mov	DWORD PTR _this$[ebp], ecx

; 11   : 	logCommandParser=lcp;

	mov	eax, DWORD PTR _this$[ebp]
	mov	ecx, DWORD PTR _lcp$[ebp]
	mov	DWORD PTR [eax+10], ecx

; 12   : 	if (logCommandParser)

	mov	eax, DWORD PTR _this$[ebp]
	cmp	DWORD PTR [eax+10], 0
	je	SHORT $LN2@SetLogComm

; 13   : 		logCommandParser->AddChannel("PacketConsoleLogger");

	push	OFFSET ??_C@_0BE@IJNHMNLA@PacketConsoleLogger?$AA@
	mov	eax, DWORD PTR _this$[ebp]
	mov	ecx, DWORD PTR [eax+10]
	call	?AddChannel@LogCommandParser@@QAEXPBD@Z	; LogCommandParser::AddChannel
$LN2@SetLogComm:

; 14   : }

	pop	edi
	pop	esi
	pop	ebx
	add	esp, 204				; 000000ccH
	cmp	ebp, esp
	call	__RTC_CheckEsp
	mov	esp, ebp
	pop	ebp
	ret	4
?SetLogCommandParser@PacketConsoleLogger@@UAEXPAVLogCommandParser@@@Z ENDP ; PacketConsoleLogger::SetLogCommandParser
_TEXT	ENDS
; Function compile flags: /Odtp /RTCsu /ZI
; File z:\sampsrc\02xu1\raknet\packetconsolelogger.cpp
;	COMDAT ??0PacketConsoleLogger@@QAE@XZ
_TEXT	SEGMENT
_this$ = -8						; size = 4
??0PacketConsoleLogger@@QAE@XZ PROC			; PacketConsoleLogger::PacketConsoleLogger, COMDAT
; _this$ = ecx

; 5    : {

	push	ebp
	mov	ebp, esp
	sub	esp, 204				; 000000ccH
	push	ebx
	push	esi
	push	edi
	push	ecx
	lea	edi, DWORD PTR [ebp-204]
	mov	ecx, 51					; 00000033H
	mov	eax, -858993460				; ccccccccH
	rep stosd
	pop	ecx
	mov	DWORD PTR _this$[ebp], ecx
	mov	ecx, DWORD PTR _this$[ebp]
	call	??0PacketLogger@@QAE@XZ			; PacketLogger::PacketLogger
	mov	eax, DWORD PTR _this$[ebp]
	mov	DWORD PTR [eax], OFFSET ??_7PacketConsoleLogger@@6B@

; 6    : 	logCommandParser=0;

	mov	eax, DWORD PTR _this$[ebp]
	mov	DWORD PTR [eax+10], 0

; 7    : }

	mov	eax, DWORD PTR _this$[ebp]
	pop	edi
	pop	esi
	pop	ebx
	add	esp, 204				; 000000ccH
	cmp	ebp, esp
	call	__RTC_CheckEsp
	mov	esp, ebp
	pop	ebp
	ret	0
??0PacketConsoleLogger@@QAE@XZ ENDP			; PacketConsoleLogger::PacketConsoleLogger
_TEXT	ENDS
END
