; Listing generated by Microsoft (R) Optimizing Compiler Version 18.00.31101.0 

	TITLE	Z:\sampsrc\02Xu1\raknet\RakClient.cpp
	.686P
	.XMM
	include listing.inc
	.model	flat

INCLUDELIB LIBCMTD
INCLUDELIB OLDNAMES

CONST	SEGMENT
_UNASSIGNED_PLAYER_ID DD 0ffffffffH
	DW	0ffffH
	ORG $+2
_UNASSIGNED_NETWORK_ID DD 0ffffffffH
	DW	0ffffH
	DW	0ffffH
CONST	ENDS
PUBLIC	??4PlayerID@@QAEAAU0@ABU0@@Z			; PlayerID::operator=
PUBLIC	?Instance@SocketLayer@@SAPAV1@XZ		; SocketLayer::Instance
PUBLIC	?GetNumberOfBytesUsed@BitStream@RakNet@@QBEHXZ	; RakNet::BitStream::GetNumberOfBytesUsed
PUBLIC	?GetReadOffset@BitStream@RakNet@@QBEHXZ		; RakNet::BitStream::GetReadOffset
PUBLIC	?GetData@BitStream@RakNet@@QBEPAEXZ		; RakNet::BitStream::GetData
PUBLIC	??$Read@I@BitStream@RakNet@@QAE_NAAI@Z		; RakNet::BitStream::Read<unsigned int>
PUBLIC	??$Read@G@BitStream@RakNet@@QAE_NAAG@Z		; RakNet::BitStream::Read<unsigned short>
PUBLIC	??1RakClientInterface@@UAE@XZ			; RakClientInterface::~RakClientInterface
PUBLIC	??0RakClientInterface@@QAE@XZ			; RakClientInterface::RakClientInterface
PUBLIC	??_GRakClientInterface@@UAEPAXI@Z		; RakClientInterface::`scalar deleting destructor'
PUBLIC	??0RakClient@@QAE@XZ				; RakClient::RakClient
PUBLIC	??1RakClient@@UAE@XZ				; RakClient::~RakClient
PUBLIC	?Connect@RakClient@@UAE_NPBDGGIH@Z		; RakClient::Connect
PUBLIC	?Disconnect@RakClient@@UAEXIE@Z			; RakClient::Disconnect
PUBLIC	?InitializeSecurity@RakClient@@UAEXPBD0@Z	; RakClient::InitializeSecurity
PUBLIC	?SetPassword@RakClient@@UAEXPBD@Z		; RakClient::SetPassword
PUBLIC	?HasPassword@RakClient@@UBE_NXZ			; RakClient::HasPassword
PUBLIC	?Send@RakClient@@UAE_NPBDHW4PacketPriority@@W4PacketReliability@@D@Z ; RakClient::Send
PUBLIC	?Send@RakClient@@UAE_NPAVBitStream@RakNet@@W4PacketPriority@@W4PacketReliability@@D@Z ; RakClient::Send
PUBLIC	?Receive@RakClient@@UAEPAUPacket@@XZ		; RakClient::Receive
PUBLIC	?DeallocatePacket@RakClient@@UAEXPAUPacket@@@Z	; RakClient::DeallocatePacket
PUBLIC	?PingServer@RakClient@@UAEXXZ			; RakClient::PingServer
PUBLIC	?PingServer@RakClient@@UAEXPBDGG_N@Z		; RakClient::PingServer
PUBLIC	?GetAveragePing@RakClient@@UAEHXZ		; RakClient::GetAveragePing
PUBLIC	?GetLastPing@RakClient@@UBEHXZ			; RakClient::GetLastPing
PUBLIC	?GetLowestPing@RakClient@@UBEHXZ		; RakClient::GetLowestPing
PUBLIC	?GetPlayerPing@RakClient@@UAEHUPlayerID@@@Z	; RakClient::GetPlayerPing
PUBLIC	?StartOccasionalPing@RakClient@@UAEXXZ		; RakClient::StartOccasionalPing
PUBLIC	?StopOccasionalPing@RakClient@@UAEXXZ		; RakClient::StopOccasionalPing
PUBLIC	?IsConnected@RakClient@@UBE_NXZ			; RakClient::IsConnected
PUBLIC	?GetSynchronizedRandomInteger@RakClient@@UBEIXZ	; RakClient::GetSynchronizedRandomInteger
PUBLIC	?GenerateCompressionLayer@RakClient@@UAE_NQAI_N@Z ; RakClient::GenerateCompressionLayer
PUBLIC	?DeleteCompressionLayer@RakClient@@UAE_N_N@Z	; RakClient::DeleteCompressionLayer
PUBLIC	?RegisterAsRemoteProcedureCall@RakClient@@UAEXPADP6AXPAURPCParameters@@@Z@Z ; RakClient::RegisterAsRemoteProcedureCall
PUBLIC	?RegisterClassMemberRPC@RakClient@@UAEXPADPAX@Z	; RakClient::RegisterClassMemberRPC
PUBLIC	?UnregisterAsRemoteProcedureCall@RakClient@@UAEXPAD@Z ; RakClient::UnregisterAsRemoteProcedureCall
PUBLIC	?RPC@RakClient@@UAE_NPADPBDIW4PacketPriority@@W4PacketReliability@@D_NUNetworkID@@PAVBitStream@RakNet@@@Z ; RakClient::RPC
PUBLIC	?RPC@RakClient@@UAE_NPADPAVBitStream@RakNet@@W4PacketPriority@@W4PacketReliability@@D_NUNetworkID@@1@Z ; RakClient::RPC
PUBLIC	?RPC@RakClient@@UAE_NPADPAVBitStream@RakNet@@W4PacketPriority@@W4PacketReliability@@D_N@Z ; RakClient::RPC
PUBLIC	?SetTrackFrequencyTable@RakClient@@UAEX_N@Z	; RakClient::SetTrackFrequencyTable
PUBLIC	?GetSendFrequencyTable@RakClient@@UAE_NQAI@Z	; RakClient::GetSendFrequencyTable
PUBLIC	?GetCompressionRatio@RakClient@@UBEMXZ		; RakClient::GetCompressionRatio
PUBLIC	?GetDecompressionRatio@RakClient@@UBEMXZ	; RakClient::GetDecompressionRatio
PUBLIC	?AttachPlugin@RakClient@@UAEXPAVPluginInterface@@@Z ; RakClient::AttachPlugin
PUBLIC	?DetachPlugin@RakClient@@UAEXPAVPluginInterface@@@Z ; RakClient::DetachPlugin
PUBLIC	?GetStaticServerData@RakClient@@UAEPAVBitStream@RakNet@@XZ ; RakClient::GetStaticServerData
PUBLIC	?SetStaticServerData@RakClient@@UAEXPBDH@Z	; RakClient::SetStaticServerData
PUBLIC	?GetStaticClientData@RakClient@@UAEPAVBitStream@RakNet@@UPlayerID@@@Z ; RakClient::GetStaticClientData
PUBLIC	?SetStaticClientData@RakClient@@UAEXUPlayerID@@PBDH@Z ; RakClient::SetStaticClientData
PUBLIC	?SendStaticClientDataToServer@RakClient@@UAEXXZ	; RakClient::SendStaticClientDataToServer
PUBLIC	?GetServerID@RakClient@@UBE?AUPlayerID@@XZ	; RakClient::GetServerID
PUBLIC	?GetPlayerID@RakClient@@UBE?AUPlayerID@@XZ	; RakClient::GetPlayerID
PUBLIC	?GetInternalID@RakClient@@UBE?AUPlayerID@@XZ	; RakClient::GetInternalID
PUBLIC	?PlayerIDToDottedIP@RakClient@@UBEPBDUPlayerID@@@Z ; RakClient::PlayerIDToDottedIP
PUBLIC	?PushBackPacket@RakClient@@UAEXPAUPacket@@_N@Z	; RakClient::PushBackPacket
PUBLIC	?SetRouterInterface@RakClient@@UAEXPAVRouterInterface@@@Z ; RakClient::SetRouterInterface
PUBLIC	?RemoveRouterInterface@RakClient@@UAEXPAVRouterInterface@@@Z ; RakClient::RemoveRouterInterface
PUBLIC	?SetTimeoutTime@RakClient@@UAEXI@Z		; RakClient::SetTimeoutTime
PUBLIC	?SetMTUSize@RakClient@@UAE_NH@Z			; RakClient::SetMTUSize
PUBLIC	?GetMTUSize@RakClient@@UBEHXZ			; RakClient::GetMTUSize
PUBLIC	?AllowConnectionResponseIPMigration@RakClient@@UAEX_N@Z ; RakClient::AllowConnectionResponseIPMigration
PUBLIC	?AdvertiseSystem@RakClient@@UAEXPBDG0H@Z	; RakClient::AdvertiseSystem
PUBLIC	?GetStatistics@RakClient@@UAEQAURakNetStatisticsStruct@@XZ ; RakClient::GetStatistics
PUBLIC	?ApplyNetworkSimulator@RakClient@@UAEXNGG@Z	; RakClient::ApplyNetworkSimulator
PUBLIC	?IsNetworkSimulatorActive@RakClient@@UAE_NXZ	; RakClient::IsNetworkSimulatorActive
PUBLIC	?GetPlayerIndex@RakClient@@UAEGXZ		; RakClient::GetPlayerIndex
PUBLIC	?GetOtherClientIndexByPlayerID@RakClient@@AAEHUPlayerID@@@Z ; RakClient::GetOtherClientIndexByPlayerID
PUBLIC	?GetFreeOtherClientIndex@RakClient@@AAEHXZ	; RakClient::GetFreeOtherClientIndex
PUBLIC	??0OtherClientsStruct@RakClient@@QAE@XZ		; RakClient::OtherClientsStruct::OtherClientsStruct
PUBLIC	??1OtherClientsStruct@RakClient@@QAE@XZ		; RakClient::OtherClientsStruct::~OtherClientsStruct
PUBLIC	??_GRakClient@@UAEPAXI@Z			; RakClient::`scalar deleting destructor'
PUBLIC	??$Read@F@BitStream@RakNet@@QAE_NAAF@Z		; RakNet::BitStream::Read<short>
PUBLIC	??$Read@E@BitStream@RakNet@@QAE_NAAE@Z		; RakNet::BitStream::Read<unsigned char>
PUBLIC	??_ERakClient@@WJOK@AEPAXI@Z			; [thunk]:RakClient::`vector deleting destructor'
PUBLIC	?Disconnect@RakClient@@WJOK@AEXIE@Z		; [thunk]:RakClient::Disconnect`adjustor{2538}'
PUBLIC	?Receive@RakClient@@WJOK@AEPAUPacket@@XZ	; [thunk]:RakClient::Receive`adjustor{2538}'
PUBLIC	?DeallocatePacket@RakClient@@WJOK@AEXPAUPacket@@@Z ; [thunk]:RakClient::DeallocatePacket`adjustor{2538}'
PUBLIC	?GenerateCompressionLayer@RakClient@@WJOK@AE_NQAI_N@Z ; [thunk]:RakClient::GenerateCompressionLayer`adjustor{2538}'
PUBLIC	?DeleteCompressionLayer@RakClient@@WJOK@AE_N_N@Z ; [thunk]:RakClient::DeleteCompressionLayer`adjustor{2538}'
PUBLIC	?RegisterAsRemoteProcedureCall@RakClient@@WJOK@AEXPADP6AXPAURPCParameters@@@Z@Z ; [thunk]:RakClient::RegisterAsRemoteProcedureCall`adjustor{2538}'
PUBLIC	?RegisterClassMemberRPC@RakClient@@WJOK@AEXPADPAX@Z ; [thunk]:RakClient::RegisterClassMemberRPC`adjustor{2538}'
PUBLIC	?UnregisterAsRemoteProcedureCall@RakClient@@WJOK@AEXPAD@Z ; [thunk]:RakClient::UnregisterAsRemoteProcedureCall`adjustor{2538}'
PUBLIC	?GetCompressionRatio@RakClient@@WJOK@BEMXZ	; [thunk]:RakClient::GetCompressionRatio`adjustor{2538}'
PUBLIC	?GetDecompressionRatio@RakClient@@WJOK@BEMXZ	; [thunk]:RakClient::GetDecompressionRatio`adjustor{2538}'
PUBLIC	?AttachPlugin@RakClient@@WJOK@AEXPAVPluginInterface@@@Z ; [thunk]:RakClient::AttachPlugin`adjustor{2538}'
PUBLIC	?DetachPlugin@RakClient@@WJOK@AEXPAVPluginInterface@@@Z ; [thunk]:RakClient::DetachPlugin`adjustor{2538}'
PUBLIC	?GetInternalID@RakClient@@WJOK@BE?AUPlayerID@@XZ ; [thunk]:RakClient::GetInternalID`adjustor{2538}'
PUBLIC	?PlayerIDToDottedIP@RakClient@@WJOK@BEPBDUPlayerID@@@Z ; [thunk]:RakClient::PlayerIDToDottedIP`adjustor{2538}'
PUBLIC	?PushBackPacket@RakClient@@WJOK@AEXPAUPacket@@_N@Z ; [thunk]:RakClient::PushBackPacket`adjustor{2538}'
PUBLIC	?SetRouterInterface@RakClient@@WJOK@AEXPAVRouterInterface@@@Z ; [thunk]:RakClient::SetRouterInterface`adjustor{2538}'
PUBLIC	?RemoveRouterInterface@RakClient@@WJOK@AEXPAVRouterInterface@@@Z ; [thunk]:RakClient::RemoveRouterInterface`adjustor{2538}'
PUBLIC	?SetMTUSize@RakClient@@WJOK@AE_NH@Z		; [thunk]:RakClient::SetMTUSize`adjustor{2538}'
PUBLIC	?GetMTUSize@RakClient@@WJOK@BEHXZ		; [thunk]:RakClient::GetMTUSize`adjustor{2538}'
PUBLIC	?AllowConnectionResponseIPMigration@RakClient@@WJOK@AEX_N@Z ; [thunk]:RakClient::AllowConnectionResponseIPMigration`adjustor{2538}'
PUBLIC	?AdvertiseSystem@RakClient@@WJOK@AEXPBDG0H@Z	; [thunk]:RakClient::AdvertiseSystem`adjustor{2538}'
PUBLIC	?ApplyNetworkSimulator@RakClient@@WJOK@AEXNGG@Z	; [thunk]:RakClient::ApplyNetworkSimulator`adjustor{2538}'
PUBLIC	?IsNetworkSimulatorActive@RakClient@@WJOK@AE_NXZ ; [thunk]:RakClient::IsNetworkSimulatorActive`adjustor{2538}'
PUBLIC	??_7RakClientInterface@@6B@			; RakClientInterface::`vftable'
PUBLIC	??_7RakClient@@6BRakPeer@@@			; RakClient::`vftable'
PUBLIC	??_7RakClient@@6BRakClientInterface@@@		; RakClient::`vftable'
PUBLIC	??_R0?AVRakPeerInterface@@@8			; RakPeerInterface `RTTI Type Descriptor'
PUBLIC	??_R3RakPeerInterface@@8			; RakPeerInterface::`RTTI Class Hierarchy Descriptor'
PUBLIC	??_R2RakPeerInterface@@8			; RakPeerInterface::`RTTI Base Class Array'
PUBLIC	??_R1A@?0A@EA@RakPeerInterface@@8		; RakPeerInterface::`RTTI Base Class Descriptor at (0,-1,0,64)'
PUBLIC	??_R4RakClientInterface@@6B@			; RakClientInterface::`RTTI Complete Object Locator'
PUBLIC	??_R0?AVRakClientInterface@@@8			; RakClientInterface `RTTI Type Descriptor'
PUBLIC	??_R3RakClientInterface@@8			; RakClientInterface::`RTTI Class Hierarchy Descriptor'
PUBLIC	??_R2RakClientInterface@@8			; RakClientInterface::`RTTI Base Class Array'
PUBLIC	??_R1A@?0A@EA@RakClientInterface@@8		; RakClientInterface::`RTTI Base Class Descriptor at (0,-1,0,64)'
PUBLIC	??_R4RakClient@@6BRakPeer@@@			; RakClient::`RTTI Complete Object Locator'
PUBLIC	??_R0?AVRakClient@@@8				; RakClient `RTTI Type Descriptor'
PUBLIC	??_R3RakClient@@8				; RakClient::`RTTI Class Hierarchy Descriptor'
PUBLIC	??_R2RakClient@@8				; RakClient::`RTTI Base Class Array'
PUBLIC	??_R1A@?0A@EA@RakClient@@8			; RakClient::`RTTI Base Class Descriptor at (0,-1,0,64)'
PUBLIC	??_R1A@?0A@EA@RakPeer@@8			; RakPeer::`RTTI Base Class Descriptor at (0,-1,0,64)'
PUBLIC	??_R0?AVRakPeer@@@8				; RakPeer `RTTI Type Descriptor'
PUBLIC	??_R3RakPeer@@8					; RakPeer::`RTTI Class Hierarchy Descriptor'
PUBLIC	??_R2RakPeer@@8					; RakPeer::`RTTI Base Class Array'
PUBLIC	??_R1JOK@?0A@EA@RakClientInterface@@8		; RakClientInterface::`RTTI Base Class Descriptor at (2538,-1,0,64)'
PUBLIC	??_R4RakClient@@6BRakClientInterface@@@		; RakClient::`RTTI Complete Object Locator'
EXTRN	??_L@YGXPAXIHP6EX0@Z1@Z:PROC			; `eh vector constructor iterator'
EXTRN	??_M@YGXPAXIHP6EX0@Z@Z:PROC			; `eh vector destructor iterator'
EXTRN	__purecall:PROC
EXTRN	??3@YAXPAX@Z:PROC				; operator delete
EXTRN	??8PlayerID@@QBE_NABU0@@Z:PROC			; PlayerID::operator==
EXTRN	_strlen:PROC
EXTRN	?DomainNameToIP@SocketLayer@@QAEPBDPBD@Z:PROC	; SocketLayer::DomainNameToIP
EXTRN	??0BitStream@RakNet@@QAE@XZ:PROC		; RakNet::BitStream::BitStream
EXTRN	??0BitStream@RakNet@@QAE@PAEI_N@Z:PROC		; RakNet::BitStream::BitStream
EXTRN	??1BitStream@RakNet@@QAE@XZ:PROC		; RakNet::BitStream::~BitStream
EXTRN	?Reset@BitStream@RakNet@@QAEXXZ:PROC		; RakNet::BitStream::Reset
EXTRN	?Write@BitStream@RakNet@@QAEXPBDH@Z:PROC	; RakNet::BitStream::Write
EXTRN	?IgnoreBits@BitStream@RakNet@@QAEXH@Z:PROC	; RakNet::BitStream::IgnoreBits
EXTRN	?ReadBits@BitStream@RakNet@@QAE_NPAEH_N@Z:PROC	; RakNet::BitStream::ReadBits
EXTRN	??0RakPeer@@QAE@XZ:PROC				; RakPeer::RakPeer
EXTRN	??1RakPeer@@UAE@XZ:PROC				; RakPeer::~RakPeer
EXTRN	?Initialize@RakPeer@@UAE_NGGHPBD@Z:PROC		; RakPeer::Initialize
EXTRN	?InitializeSecurity@RakPeer@@UAEXPBD000@Z:PROC	; RakPeer::InitializeSecurity
EXTRN	?DisableSecurity@RakPeer@@UAEXXZ:PROC		; RakPeer::DisableSecurity
EXTRN	?SetMaximumIncomingConnections@RakPeer@@UAEXG@Z:PROC ; RakPeer::SetMaximumIncomingConnections
EXTRN	?GetMaximumIncomingConnections@RakPeer@@UBEGXZ:PROC ; RakPeer::GetMaximumIncomingConnections
EXTRN	?SetIncomingPassword@RakPeer@@UAEXPBDH@Z:PROC	; RakPeer::SetIncomingPassword
EXTRN	?GetIncomingPassword@RakPeer@@UAEXPADPAH@Z:PROC	; RakPeer::GetIncomingPassword
EXTRN	?Connect@RakPeer@@UAE_NPBDGPADH@Z:PROC		; RakPeer::Connect
EXTRN	?Disconnect@RakPeer@@UAEXIE@Z:PROC		; RakPeer::Disconnect
EXTRN	?IsActive@RakPeer@@UBE_NXZ:PROC			; RakPeer::IsActive
EXTRN	?GetConnectionList@RakPeer@@UBE_NPAUPlayerID@@PAG@Z:PROC ; RakPeer::GetConnectionList
EXTRN	?Send@RakPeer@@UAE_NPBDHW4PacketPriority@@W4PacketReliability@@DUPlayerID@@_N@Z:PROC ; RakPeer::Send
EXTRN	?Send@RakPeer@@UAE_NPAVBitStream@RakNet@@W4PacketPriority@@W4PacketReliability@@DUPlayerID@@_N@Z:PROC ; RakPeer::Send
EXTRN	?Receive@RakPeer@@UAEPAUPacket@@XZ:PROC		; RakPeer::Receive
EXTRN	?DeallocatePacket@RakPeer@@UAEXPAUPacket@@@Z:PROC ; RakPeer::DeallocatePacket
EXTRN	?GetMaximumNumberOfPeers@RakPeer@@UBEGXZ:PROC	; RakPeer::GetMaximumNumberOfPeers
EXTRN	?RegisterAsRemoteProcedureCall@RakPeer@@UAEXPADP6AXPAURPCParameters@@@Z@Z:PROC ; RakPeer::RegisterAsRemoteProcedureCall
EXTRN	?RegisterClassMemberRPC@RakPeer@@UAEXPADPAX@Z:PROC ; RakPeer::RegisterClassMemberRPC
EXTRN	?UnregisterAsRemoteProcedureCall@RakPeer@@UAEXPAD@Z:PROC ; RakPeer::UnregisterAsRemoteProcedureCall
EXTRN	?RPC@RakPeer@@UAE_NPADPBDIW4PacketPriority@@W4PacketReliability@@DUPlayerID@@_N5UNetworkID@@PAVBitStream@RakNet@@@Z:PROC ; RakPeer::RPC
EXTRN	?RPC@RakPeer@@UAE_NPADPAVBitStream@RakNet@@W4PacketPriority@@W4PacketReliability@@DUPlayerID@@_N5UNetworkID@@1@Z:PROC ; RakPeer::RPC
EXTRN	?CloseConnection@RakPeer@@UAEXUPlayerID@@_NE@Z:PROC ; RakPeer::CloseConnection
EXTRN	?GetIndexFromPlayerID@RakPeer@@UAEHUPlayerID@@@Z:PROC ; RakPeer::GetIndexFromPlayerID
EXTRN	?GetPlayerIDFromIndex@RakPeer@@UAE?AUPlayerID@@H@Z:PROC ; RakPeer::GetPlayerIDFromIndex
EXTRN	?AddToBanList@RakPeer@@UAEXPBDI@Z:PROC		; RakPeer::AddToBanList
EXTRN	?RemoveFromBanList@RakPeer@@UAEXPBD@Z:PROC	; RakPeer::RemoveFromBanList
EXTRN	?ClearBanList@RakPeer@@UAEXXZ:PROC		; RakPeer::ClearBanList
EXTRN	?IsBanned@RakPeer@@UAE_NPBD@Z:PROC		; RakPeer::IsBanned
EXTRN	?Ping@RakPeer@@UAEXUPlayerID@@@Z:PROC		; RakPeer::Ping
EXTRN	?Ping@RakPeer@@UAEXPBDG_N@Z:PROC		; RakPeer::Ping
EXTRN	?GetAveragePing@RakPeer@@UAEHUPlayerID@@@Z:PROC	; RakPeer::GetAveragePing
EXTRN	?GetLastPing@RakPeer@@UBEHUPlayerID@@@Z:PROC	; RakPeer::GetLastPing
EXTRN	?GetLowestPing@RakPeer@@UBEHUPlayerID@@@Z:PROC	; RakPeer::GetLowestPing
EXTRN	?SetOccasionalPing@RakPeer@@UAEX_N@Z:PROC	; RakPeer::SetOccasionalPing
EXTRN	?GetRemoteStaticData@RakPeer@@UAEPAVBitStream@RakNet@@UPlayerID@@@Z:PROC ; RakPeer::GetRemoteStaticData
EXTRN	?SetRemoteStaticData@RakPeer@@UAEXUPlayerID@@PBDH@Z:PROC ; RakPeer::SetRemoteStaticData
EXTRN	?SendStaticData@RakPeer@@UAEXUPlayerID@@@Z:PROC	; RakPeer::SendStaticData
EXTRN	?SetOfflinePingResponse@RakPeer@@UAEXPBDI@Z:PROC ; RakPeer::SetOfflinePingResponse
EXTRN	?GetInternalID@RakPeer@@UBE?AUPlayerID@@XZ:PROC	; RakPeer::GetInternalID
EXTRN	?GetExternalID@RakPeer@@UBE?AUPlayerID@@U2@@Z:PROC ; RakPeer::GetExternalID
EXTRN	?SetTimeoutTime@RakPeer@@UAEXIUPlayerID@@@Z:PROC ; RakPeer::SetTimeoutTime
EXTRN	?SetMTUSize@RakPeer@@UAE_NH@Z:PROC		; RakPeer::SetMTUSize
EXTRN	?GetMTUSize@RakPeer@@UBEHXZ:PROC		; RakPeer::GetMTUSize
EXTRN	?GetNumberOfAddresses@RakPeer@@UAEIXZ:PROC	; RakPeer::GetNumberOfAddresses
EXTRN	?GetLocalIP@RakPeer@@UAEPBDI@Z:PROC		; RakPeer::GetLocalIP
EXTRN	?PlayerIDToDottedIP@RakPeer@@UBEPBDUPlayerID@@@Z:PROC ; RakPeer::PlayerIDToDottedIP
EXTRN	?IPToPlayerID@RakPeer@@UAEXPBDGPAUPlayerID@@@Z:PROC ; RakPeer::IPToPlayerID
EXTRN	?AllowConnectionResponseIPMigration@RakPeer@@UAEX_N@Z:PROC ; RakPeer::AllowConnectionResponseIPMigration
EXTRN	?AdvertiseSystem@RakPeer@@UAEXPBDG0H@Z:PROC	; RakPeer::AdvertiseSystem
EXTRN	?SetSplitMessageProgressInterval@RakPeer@@UAEXH@Z:PROC ; RakPeer::SetSplitMessageProgressInterval
EXTRN	?SetUnreliableTimeout@RakPeer@@UAEXI@Z:PROC	; RakPeer::SetUnreliableTimeout
EXTRN	?SetCompileFrequencyTable@RakPeer@@UAEX_N@Z:PROC ; RakPeer::SetCompileFrequencyTable
EXTRN	?GetOutgoingFrequencyTable@RakPeer@@UAE_NQAI@Z:PROC ; RakPeer::GetOutgoingFrequencyTable
EXTRN	?GenerateCompressionLayer@RakPeer@@UAE_NQAI_N@Z:PROC ; RakPeer::GenerateCompressionLayer
EXTRN	?DeleteCompressionLayer@RakPeer@@UAE_N_N@Z:PROC	; RakPeer::DeleteCompressionLayer
EXTRN	?GetCompressionRatio@RakPeer@@UBEMXZ:PROC	; RakPeer::GetCompressionRatio
EXTRN	?GetDecompressionRatio@RakPeer@@UBEMXZ:PROC	; RakPeer::GetDecompressionRatio
EXTRN	?AttachPlugin@RakPeer@@UAEXPAVPluginInterface@@@Z:PROC ; RakPeer::AttachPlugin
EXTRN	?DetachPlugin@RakPeer@@UAEXPAVPluginInterface@@@Z:PROC ; RakPeer::DetachPlugin
EXTRN	?PushBackPacket@RakPeer@@UAEXPAUPacket@@_N@Z:PROC ; RakPeer::PushBackPacket
EXTRN	?SetRouterInterface@RakPeer@@UAEXPAVRouterInterface@@@Z:PROC ; RakPeer::SetRouterInterface
EXTRN	?RemoveRouterInterface@RakPeer@@UAEXPAVRouterInterface@@@Z:PROC ; RakPeer::RemoveRouterInterface
EXTRN	?ApplyNetworkSimulator@RakPeer@@UAEXNGG@Z:PROC	; RakPeer::ApplyNetworkSimulator
EXTRN	?IsNetworkSimulatorActive@RakPeer@@UAE_NXZ:PROC	; RakPeer::IsNetworkSimulatorActive
EXTRN	?GetStatistics@RakPeer@@UAEQAURakNetStatisticsStruct@@UPlayerID@@@Z:PROC ; RakPeer::GetStatistics
EXTRN	?GetRPCMap@RakPeer@@UAEPAURPCMap@@UPlayerID@@@Z:PROC ; RakPeer::GetRPCMap
EXTRN	??_ERakClientInterface@@UAEPAXI@Z:PROC		; RakClientInterface::`vector deleting destructor'
EXTRN	??_ERakClient@@UAEPAXI@Z:PROC			; RakClient::`vector deleting destructor'
EXTRN	?GetTime@RakNet@@YAIXZ:PROC			; RakNet::GetTime
EXTRN	@_RTC_CheckStackVars@8:PROC
EXTRN	@__security_check_cookie@4:PROC
EXTRN	__RTC_CheckEsp:PROC
EXTRN	__RTC_InitBase:PROC
EXTRN	__RTC_Shutdown:PROC
EXTRN	___CxxFrameHandler3:PROC
EXTRN	?I@SocketLayer@@0V1@A:BYTE			; SocketLayer::I
EXTRN	??_7type_info@@6B@:QWORD			; type_info::`vftable'
EXTRN	___security_cookie:DWORD
EXTRN	__fltused:DWORD
;	COMDAT rtc$TMZ
rtc$TMZ	SEGMENT
__RTC_Shutdown.rtc$TMZ DD FLAT:__RTC_Shutdown
rtc$TMZ	ENDS
;	COMDAT rtc$IMZ
rtc$IMZ	SEGMENT
__RTC_InitBase.rtc$IMZ DD FLAT:__RTC_InitBase
rtc$IMZ	ENDS
;	COMDAT ??_R4RakClient@@6BRakClientInterface@@@
rdata$r	SEGMENT
??_R4RakClient@@6BRakClientInterface@@@ DD 00H		; RakClient::`RTTI Complete Object Locator'
	DD	09eaH
	DD	00H
	DD	FLAT:??_R0?AVRakClient@@@8
	DD	FLAT:??_R3RakClient@@8
rdata$r	ENDS
;	COMDAT ??_R1JOK@?0A@EA@RakClientInterface@@8
rdata$r	SEGMENT
??_R1JOK@?0A@EA@RakClientInterface@@8 DD FLAT:??_R0?AVRakClientInterface@@@8 ; RakClientInterface::`RTTI Base Class Descriptor at (2538,-1,0,64)'
	DD	00H
	DD	09eaH
	DD	0ffffffffH
	DD	00H
	DD	040H
	DD	FLAT:??_R3RakClientInterface@@8
rdata$r	ENDS
;	COMDAT ??_R2RakPeer@@8
rdata$r	SEGMENT
??_R2RakPeer@@8 DD FLAT:??_R1A@?0A@EA@RakPeer@@8	; RakPeer::`RTTI Base Class Array'
	DD	FLAT:??_R1A@?0A@EA@RakPeerInterface@@8
rdata$r	ENDS
;	COMDAT ??_R3RakPeer@@8
rdata$r	SEGMENT
??_R3RakPeer@@8 DD 00H					; RakPeer::`RTTI Class Hierarchy Descriptor'
	DD	00H
	DD	02H
	DD	FLAT:??_R2RakPeer@@8
rdata$r	ENDS
;	COMDAT ??_R0?AVRakPeer@@@8
data$r	SEGMENT
??_R0?AVRakPeer@@@8 DD FLAT:??_7type_info@@6B@		; RakPeer `RTTI Type Descriptor'
	DD	00H
	DB	'.?AVRakPeer@@', 00H
data$r	ENDS
;	COMDAT ??_R1A@?0A@EA@RakPeer@@8
rdata$r	SEGMENT
??_R1A@?0A@EA@RakPeer@@8 DD FLAT:??_R0?AVRakPeer@@@8	; RakPeer::`RTTI Base Class Descriptor at (0,-1,0,64)'
	DD	01H
	DD	00H
	DD	0ffffffffH
	DD	00H
	DD	040H
	DD	FLAT:??_R3RakPeer@@8
rdata$r	ENDS
;	COMDAT ??_R1A@?0A@EA@RakClient@@8
rdata$r	SEGMENT
??_R1A@?0A@EA@RakClient@@8 DD FLAT:??_R0?AVRakClient@@@8 ; RakClient::`RTTI Base Class Descriptor at (0,-1,0,64)'
	DD	03H
	DD	00H
	DD	0ffffffffH
	DD	00H
	DD	040H
	DD	FLAT:??_R3RakClient@@8
rdata$r	ENDS
;	COMDAT ??_R2RakClient@@8
rdata$r	SEGMENT
??_R2RakClient@@8 DD FLAT:??_R1A@?0A@EA@RakClient@@8	; RakClient::`RTTI Base Class Array'
	DD	FLAT:??_R1A@?0A@EA@RakPeer@@8
	DD	FLAT:??_R1A@?0A@EA@RakPeerInterface@@8
	DD	FLAT:??_R1JOK@?0A@EA@RakClientInterface@@8
rdata$r	ENDS
;	COMDAT ??_R3RakClient@@8
rdata$r	SEGMENT
??_R3RakClient@@8 DD 00H				; RakClient::`RTTI Class Hierarchy Descriptor'
	DD	01H
	DD	04H
	DD	FLAT:??_R2RakClient@@8
rdata$r	ENDS
;	COMDAT ??_R0?AVRakClient@@@8
data$r	SEGMENT
??_R0?AVRakClient@@@8 DD FLAT:??_7type_info@@6B@	; RakClient `RTTI Type Descriptor'
	DD	00H
	DB	'.?AVRakClient@@', 00H
data$r	ENDS
;	COMDAT ??_R4RakClient@@6BRakPeer@@@
rdata$r	SEGMENT
??_R4RakClient@@6BRakPeer@@@ DD 00H			; RakClient::`RTTI Complete Object Locator'
	DD	00H
	DD	00H
	DD	FLAT:??_R0?AVRakClient@@@8
	DD	FLAT:??_R3RakClient@@8
rdata$r	ENDS
;	COMDAT ??_R1A@?0A@EA@RakClientInterface@@8
rdata$r	SEGMENT
??_R1A@?0A@EA@RakClientInterface@@8 DD FLAT:??_R0?AVRakClientInterface@@@8 ; RakClientInterface::`RTTI Base Class Descriptor at (0,-1,0,64)'
	DD	00H
	DD	00H
	DD	0ffffffffH
	DD	00H
	DD	040H
	DD	FLAT:??_R3RakClientInterface@@8
rdata$r	ENDS
;	COMDAT ??_R2RakClientInterface@@8
rdata$r	SEGMENT
??_R2RakClientInterface@@8 DD FLAT:??_R1A@?0A@EA@RakClientInterface@@8 ; RakClientInterface::`RTTI Base Class Array'
rdata$r	ENDS
;	COMDAT ??_R3RakClientInterface@@8
rdata$r	SEGMENT
??_R3RakClientInterface@@8 DD 00H			; RakClientInterface::`RTTI Class Hierarchy Descriptor'
	DD	00H
	DD	01H
	DD	FLAT:??_R2RakClientInterface@@8
rdata$r	ENDS
;	COMDAT ??_R0?AVRakClientInterface@@@8
data$r	SEGMENT
??_R0?AVRakClientInterface@@@8 DD FLAT:??_7type_info@@6B@ ; RakClientInterface `RTTI Type Descriptor'
	DD	00H
	DB	'.?AVRakClientInterface@@', 00H
data$r	ENDS
;	COMDAT ??_R4RakClientInterface@@6B@
rdata$r	SEGMENT
??_R4RakClientInterface@@6B@ DD 00H			; RakClientInterface::`RTTI Complete Object Locator'
	DD	00H
	DD	00H
	DD	FLAT:??_R0?AVRakClientInterface@@@8
	DD	FLAT:??_R3RakClientInterface@@8
rdata$r	ENDS
;	COMDAT ??_R1A@?0A@EA@RakPeerInterface@@8
rdata$r	SEGMENT
??_R1A@?0A@EA@RakPeerInterface@@8 DD FLAT:??_R0?AVRakPeerInterface@@@8 ; RakPeerInterface::`RTTI Base Class Descriptor at (0,-1,0,64)'
	DD	00H
	DD	00H
	DD	0ffffffffH
	DD	00H
	DD	040H
	DD	FLAT:??_R3RakPeerInterface@@8
rdata$r	ENDS
;	COMDAT ??_R2RakPeerInterface@@8
rdata$r	SEGMENT
??_R2RakPeerInterface@@8 DD FLAT:??_R1A@?0A@EA@RakPeerInterface@@8 ; RakPeerInterface::`RTTI Base Class Array'
rdata$r	ENDS
;	COMDAT ??_R3RakPeerInterface@@8
rdata$r	SEGMENT
??_R3RakPeerInterface@@8 DD 00H				; RakPeerInterface::`RTTI Class Hierarchy Descriptor'
	DD	00H
	DD	01H
	DD	FLAT:??_R2RakPeerInterface@@8
rdata$r	ENDS
;	COMDAT ??_R0?AVRakPeerInterface@@@8
data$r	SEGMENT
??_R0?AVRakPeerInterface@@@8 DD FLAT:??_7type_info@@6B@	; RakPeerInterface `RTTI Type Descriptor'
	DD	00H
	DB	'.?AVRakPeerInterface@@', 00H
data$r	ENDS
;	COMDAT ??_7RakClient@@6BRakClientInterface@@@
CONST	SEGMENT
??_7RakClient@@6BRakClientInterface@@@ DD FLAT:??_R4RakClient@@6BRakClientInterface@@@ ; RakClient::`vftable'
	DD	FLAT:??_ERakClient@@WJOK@AEPAXI@Z
	DD	FLAT:?Connect@RakClient@@UAE_NPBDGGIH@Z
	DD	FLAT:?Disconnect@RakClient@@WJOK@AEXIE@Z
	DD	FLAT:?InitializeSecurity@RakClient@@UAEXPBD0@Z
	DD	FLAT:?SetPassword@RakClient@@UAEXPBD@Z
	DD	FLAT:?HasPassword@RakClient@@UBE_NXZ
	DD	FLAT:?Send@RakClient@@UAE_NPAVBitStream@RakNet@@W4PacketPriority@@W4PacketReliability@@D@Z
	DD	FLAT:?Send@RakClient@@UAE_NPBDHW4PacketPriority@@W4PacketReliability@@D@Z
	DD	FLAT:?Receive@RakClient@@WJOK@AEPAUPacket@@XZ
	DD	FLAT:?DeallocatePacket@RakClient@@WJOK@AEXPAUPacket@@@Z
	DD	FLAT:?PingServer@RakClient@@UAEXPBDGG_N@Z
	DD	FLAT:?PingServer@RakClient@@UAEXXZ
	DD	FLAT:?GetAveragePing@RakClient@@UAEHXZ
	DD	FLAT:?GetLastPing@RakClient@@UBEHXZ
	DD	FLAT:?GetLowestPing@RakClient@@UBEHXZ
	DD	FLAT:?GetPlayerPing@RakClient@@UAEHUPlayerID@@@Z
	DD	FLAT:?StartOccasionalPing@RakClient@@UAEXXZ
	DD	FLAT:?StopOccasionalPing@RakClient@@UAEXXZ
	DD	FLAT:?IsConnected@RakClient@@UBE_NXZ
	DD	FLAT:?GetSynchronizedRandomInteger@RakClient@@UBEIXZ
	DD	FLAT:?GenerateCompressionLayer@RakClient@@WJOK@AE_NQAI_N@Z
	DD	FLAT:?DeleteCompressionLayer@RakClient@@WJOK@AE_N_N@Z
	DD	FLAT:?RegisterAsRemoteProcedureCall@RakClient@@WJOK@AEXPADP6AXPAURPCParameters@@@Z@Z
	DD	FLAT:?RegisterClassMemberRPC@RakClient@@WJOK@AEXPADPAX@Z
	DD	FLAT:?UnregisterAsRemoteProcedureCall@RakClient@@WJOK@AEXPAD@Z
	DD	FLAT:?RPC@RakClient@@UAE_NPADPAVBitStream@RakNet@@W4PacketPriority@@W4PacketReliability@@D_N@Z
	DD	FLAT:?RPC@RakClient@@UAE_NPADPAVBitStream@RakNet@@W4PacketPriority@@W4PacketReliability@@D_NUNetworkID@@1@Z
	DD	FLAT:?RPC@RakClient@@UAE_NPADPBDIW4PacketPriority@@W4PacketReliability@@D_NUNetworkID@@PAVBitStream@RakNet@@@Z
	DD	FLAT:?SetTrackFrequencyTable@RakClient@@UAEX_N@Z
	DD	FLAT:?GetSendFrequencyTable@RakClient@@UAE_NQAI@Z
	DD	FLAT:?GetCompressionRatio@RakClient@@WJOK@BEMXZ
	DD	FLAT:?GetDecompressionRatio@RakClient@@WJOK@BEMXZ
	DD	FLAT:?AttachPlugin@RakClient@@WJOK@AEXPAVPluginInterface@@@Z
	DD	FLAT:?DetachPlugin@RakClient@@WJOK@AEXPAVPluginInterface@@@Z
	DD	FLAT:?GetStaticServerData@RakClient@@UAEPAVBitStream@RakNet@@XZ
	DD	FLAT:?SetStaticServerData@RakClient@@UAEXPBDH@Z
	DD	FLAT:?GetStaticClientData@RakClient@@UAEPAVBitStream@RakNet@@UPlayerID@@@Z
	DD	FLAT:?SetStaticClientData@RakClient@@UAEXUPlayerID@@PBDH@Z
	DD	FLAT:?SendStaticClientDataToServer@RakClient@@UAEXXZ
	DD	FLAT:?GetServerID@RakClient@@UBE?AUPlayerID@@XZ
	DD	FLAT:?GetPlayerID@RakClient@@UBE?AUPlayerID@@XZ
	DD	FLAT:?GetInternalID@RakClient@@WJOK@BE?AUPlayerID@@XZ
	DD	FLAT:?PlayerIDToDottedIP@RakClient@@WJOK@BEPBDUPlayerID@@@Z
	DD	FLAT:?PushBackPacket@RakClient@@WJOK@AEXPAUPacket@@_N@Z
	DD	FLAT:?SetRouterInterface@RakClient@@WJOK@AEXPAVRouterInterface@@@Z
	DD	FLAT:?RemoveRouterInterface@RakClient@@WJOK@AEXPAVRouterInterface@@@Z
	DD	FLAT:?SetTimeoutTime@RakClient@@UAEXI@Z
	DD	FLAT:?SetMTUSize@RakClient@@WJOK@AE_NH@Z
	DD	FLAT:?GetMTUSize@RakClient@@WJOK@BEHXZ
	DD	FLAT:?AllowConnectionResponseIPMigration@RakClient@@WJOK@AEX_N@Z
	DD	FLAT:?AdvertiseSystem@RakClient@@WJOK@AEXPBDG0H@Z
	DD	FLAT:?GetStatistics@RakClient@@UAEQAURakNetStatisticsStruct@@XZ
	DD	FLAT:?ApplyNetworkSimulator@RakClient@@WJOK@AEXNGG@Z
	DD	FLAT:?IsNetworkSimulatorActive@RakClient@@WJOK@AE_NXZ
	DD	FLAT:?GetPlayerIndex@RakClient@@UAEGXZ
CONST	ENDS
;	COMDAT ??_7RakClient@@6BRakPeer@@@
CONST	SEGMENT
??_7RakClient@@6BRakPeer@@@ DD FLAT:??_R4RakClient@@6BRakPeer@@@ ; RakClient::`vftable'
	DD	FLAT:??_ERakClient@@UAEPAXI@Z
	DD	FLAT:?Initialize@RakPeer@@UAE_NGGHPBD@Z
	DD	FLAT:?InitializeSecurity@RakPeer@@UAEXPBD000@Z
	DD	FLAT:?DisableSecurity@RakPeer@@UAEXXZ
	DD	FLAT:?SetMaximumIncomingConnections@RakPeer@@UAEXG@Z
	DD	FLAT:?GetMaximumIncomingConnections@RakPeer@@UBEGXZ
	DD	FLAT:?SetIncomingPassword@RakPeer@@UAEXPBDH@Z
	DD	FLAT:?GetIncomingPassword@RakPeer@@UAEXPADPAH@Z
	DD	FLAT:?Connect@RakPeer@@UAE_NPBDGPADH@Z
	DD	FLAT:?Disconnect@RakClient@@UAEXIE@Z
	DD	FLAT:?IsActive@RakPeer@@UBE_NXZ
	DD	FLAT:?GetConnectionList@RakPeer@@UBE_NPAUPlayerID@@PAG@Z
	DD	FLAT:?Send@RakPeer@@UAE_NPAVBitStream@RakNet@@W4PacketPriority@@W4PacketReliability@@DUPlayerID@@_N@Z
	DD	FLAT:?Send@RakPeer@@UAE_NPBDHW4PacketPriority@@W4PacketReliability@@DUPlayerID@@_N@Z
	DD	FLAT:?Receive@RakClient@@UAEPAUPacket@@XZ
	DD	FLAT:?DeallocatePacket@RakClient@@UAEXPAUPacket@@@Z
	DD	FLAT:?GetMaximumNumberOfPeers@RakPeer@@UBEGXZ
	DD	FLAT:?RegisterAsRemoteProcedureCall@RakClient@@UAEXPADP6AXPAURPCParameters@@@Z@Z
	DD	FLAT:?RegisterClassMemberRPC@RakClient@@UAEXPADPAX@Z
	DD	FLAT:?UnregisterAsRemoteProcedureCall@RakClient@@UAEXPAD@Z
	DD	FLAT:?RPC@RakPeer@@UAE_NPADPAVBitStream@RakNet@@W4PacketPriority@@W4PacketReliability@@DUPlayerID@@_N5UNetworkID@@1@Z
	DD	FLAT:?RPC@RakPeer@@UAE_NPADPBDIW4PacketPriority@@W4PacketReliability@@DUPlayerID@@_N5UNetworkID@@PAVBitStream@RakNet@@@Z
	DD	FLAT:?CloseConnection@RakPeer@@UAEXUPlayerID@@_NE@Z
	DD	FLAT:?GetIndexFromPlayerID@RakPeer@@UAEHUPlayerID@@@Z
	DD	FLAT:?GetPlayerIDFromIndex@RakPeer@@UAE?AUPlayerID@@H@Z
	DD	FLAT:?AddToBanList@RakPeer@@UAEXPBDI@Z
	DD	FLAT:?RemoveFromBanList@RakPeer@@UAEXPBD@Z
	DD	FLAT:?ClearBanList@RakPeer@@UAEXXZ
	DD	FLAT:?IsBanned@RakPeer@@UAE_NPBD@Z
	DD	FLAT:?Ping@RakPeer@@UAEXPBDG_N@Z
	DD	FLAT:?Ping@RakPeer@@UAEXUPlayerID@@@Z
	DD	FLAT:?GetAveragePing@RakPeer@@UAEHUPlayerID@@@Z
	DD	FLAT:?GetLastPing@RakPeer@@UBEHUPlayerID@@@Z
	DD	FLAT:?GetLowestPing@RakPeer@@UBEHUPlayerID@@@Z
	DD	FLAT:?SetOccasionalPing@RakPeer@@UAEX_N@Z
	DD	FLAT:?GetRemoteStaticData@RakPeer@@UAEPAVBitStream@RakNet@@UPlayerID@@@Z
	DD	FLAT:?SetRemoteStaticData@RakPeer@@UAEXUPlayerID@@PBDH@Z
	DD	FLAT:?SendStaticData@RakPeer@@UAEXUPlayerID@@@Z
	DD	FLAT:?SetOfflinePingResponse@RakPeer@@UAEXPBDI@Z
	DD	FLAT:?GetInternalID@RakClient@@UBE?AUPlayerID@@XZ
	DD	FLAT:?GetExternalID@RakPeer@@UBE?AUPlayerID@@U2@@Z
	DD	FLAT:?SetTimeoutTime@RakPeer@@UAEXIUPlayerID@@@Z
	DD	FLAT:?SetMTUSize@RakClient@@UAE_NH@Z
	DD	FLAT:?GetMTUSize@RakClient@@UBEHXZ
	DD	FLAT:?GetNumberOfAddresses@RakPeer@@UAEIXZ
	DD	FLAT:?GetLocalIP@RakPeer@@UAEPBDI@Z
	DD	FLAT:?PlayerIDToDottedIP@RakClient@@UBEPBDUPlayerID@@@Z
	DD	FLAT:?IPToPlayerID@RakPeer@@UAEXPBDGPAUPlayerID@@@Z
	DD	FLAT:?AllowConnectionResponseIPMigration@RakClient@@UAEX_N@Z
	DD	FLAT:?AdvertiseSystem@RakClient@@UAEXPBDG0H@Z
	DD	FLAT:?SetSplitMessageProgressInterval@RakPeer@@UAEXH@Z
	DD	FLAT:?SetUnreliableTimeout@RakPeer@@UAEXI@Z
	DD	FLAT:?SetCompileFrequencyTable@RakPeer@@UAEX_N@Z
	DD	FLAT:?GetOutgoingFrequencyTable@RakPeer@@UAE_NQAI@Z
	DD	FLAT:?GenerateCompressionLayer@RakClient@@UAE_NQAI_N@Z
	DD	FLAT:?DeleteCompressionLayer@RakClient@@UAE_N_N@Z
	DD	FLAT:?GetCompressionRatio@RakClient@@UBEMXZ
	DD	FLAT:?GetDecompressionRatio@RakClient@@UBEMXZ
	DD	FLAT:?AttachPlugin@RakClient@@UAEXPAVPluginInterface@@@Z
	DD	FLAT:?DetachPlugin@RakClient@@UAEXPAVPluginInterface@@@Z
	DD	FLAT:?PushBackPacket@RakClient@@UAEXPAUPacket@@_N@Z
	DD	FLAT:?SetRouterInterface@RakClient@@UAEXPAVRouterInterface@@@Z
	DD	FLAT:?RemoveRouterInterface@RakClient@@UAEXPAVRouterInterface@@@Z
	DD	FLAT:?ApplyNetworkSimulator@RakClient@@UAEXNGG@Z
	DD	FLAT:?IsNetworkSimulatorActive@RakClient@@UAE_NXZ
	DD	FLAT:?GetStatistics@RakPeer@@UAEQAURakNetStatisticsStruct@@UPlayerID@@@Z
	DD	FLAT:?GetRPCMap@RakPeer@@UAEPAURPCMap@@UPlayerID@@@Z
CONST	ENDS
;	COMDAT ??_7RakClientInterface@@6B@
CONST	SEGMENT
??_7RakClientInterface@@6B@ DD FLAT:??_R4RakClientInterface@@6B@ ; RakClientInterface::`vftable'
	DD	FLAT:??_ERakClientInterface@@UAEPAXI@Z
	DD	FLAT:__purecall
	DD	FLAT:__purecall
	DD	FLAT:__purecall
	DD	FLAT:__purecall
	DD	FLAT:__purecall
	DD	FLAT:__purecall
	DD	FLAT:__purecall
	DD	FLAT:__purecall
	DD	FLAT:__purecall
	DD	FLAT:__purecall
	DD	FLAT:__purecall
	DD	FLAT:__purecall
	DD	FLAT:__purecall
	DD	FLAT:__purecall
	DD	FLAT:__purecall
	DD	FLAT:__purecall
	DD	FLAT:__purecall
	DD	FLAT:__purecall
	DD	FLAT:__purecall
	DD	FLAT:__purecall
	DD	FLAT:__purecall
	DD	FLAT:__purecall
	DD	FLAT:__purecall
	DD	FLAT:__purecall
	DD	FLAT:__purecall
	DD	FLAT:__purecall
	DD	FLAT:__purecall
	DD	FLAT:__purecall
	DD	FLAT:__purecall
	DD	FLAT:__purecall
	DD	FLAT:__purecall
	DD	FLAT:__purecall
	DD	FLAT:__purecall
	DD	FLAT:__purecall
	DD	FLAT:__purecall
	DD	FLAT:__purecall
	DD	FLAT:__purecall
	DD	FLAT:__purecall
	DD	FLAT:__purecall
	DD	FLAT:__purecall
	DD	FLAT:__purecall
	DD	FLAT:__purecall
	DD	FLAT:__purecall
	DD	FLAT:__purecall
	DD	FLAT:__purecall
	DD	FLAT:__purecall
	DD	FLAT:__purecall
	DD	FLAT:__purecall
	DD	FLAT:__purecall
	DD	FLAT:__purecall
	DD	FLAT:__purecall
	DD	FLAT:__purecall
	DD	FLAT:__purecall
	DD	FLAT:__purecall
CONST	ENDS
;	COMDAT xdata$x
xdata$x	SEGMENT
__unwindtable$?Receive@RakClient@@UAEPAUPacket@@XZ DD 0ffffffffH
	DD	FLAT:__unwindfunclet$?Receive@RakClient@@UAEPAUPacket@@XZ$0
	DD	00H
	DD	FLAT:__unwindfunclet$?Receive@RakClient@@UAEPAUPacket@@XZ$1
	DD	00H
	DD	FLAT:__unwindfunclet$?Receive@RakClient@@UAEPAUPacket@@XZ$2
__ehfuncinfo$?Receive@RakClient@@UAEPAUPacket@@XZ DD 019930522H
	DD	03H
	DD	FLAT:__unwindtable$?Receive@RakClient@@UAEPAUPacket@@XZ
	DD	2 DUP(00H)
	DD	2 DUP(00H)
	DD	00H
	DD	01H
xdata$x	ENDS
;	COMDAT xdata$x
xdata$x	SEGMENT
__unwindtable$??1RakClient@@UAE@XZ DD 0ffffffffH
	DD	FLAT:__unwindfunclet$??1RakClient@@UAE@XZ$0
	DD	00H
	DD	FLAT:__unwindfunclet$??1RakClient@@UAE@XZ$1
	DD	01H
	DD	FLAT:__unwindfunclet$??1RakClient@@UAE@XZ$2
__ehfuncinfo$??1RakClient@@UAE@XZ DD 019930522H
	DD	03H
	DD	FLAT:__unwindtable$??1RakClient@@UAE@XZ
	DD	2 DUP(00H)
	DD	2 DUP(00H)
	DD	00H
	DD	01H
xdata$x	ENDS
;	COMDAT xdata$x
xdata$x	SEGMENT
__unwindtable$??0RakClient@@QAE@XZ DD 0ffffffffH
	DD	FLAT:__unwindfunclet$??0RakClient@@QAE@XZ$0
	DD	00H
	DD	FLAT:__unwindfunclet$??0RakClient@@QAE@XZ$1
	DD	01H
	DD	FLAT:__unwindfunclet$??0RakClient@@QAE@XZ$2
__ehfuncinfo$??0RakClient@@QAE@XZ DD 019930522H
	DD	03H
	DD	FLAT:__unwindtable$??0RakClient@@QAE@XZ
	DD	2 DUP(00H)
	DD	2 DUP(00H)
	DD	00H
	DD	01H
xdata$x	ENDS
; Function compile flags: /Odsp /RTCsu /ZI
;	COMDAT ?IsNetworkSimulatorActive@RakClient@@WJOK@AE_NXZ
_TEXT	SEGMENT
?IsNetworkSimulatorActive@RakClient@@WJOK@AE_NXZ PROC	; [thunk]:RakClient::IsNetworkSimulatorActive`adjustor{2538}', COMDAT
	sub	ecx, 2538				; 000009eaH
	jmp	?IsNetworkSimulatorActive@RakClient@@UAE_NXZ ; RakClient::IsNetworkSimulatorActive
?IsNetworkSimulatorActive@RakClient@@WJOK@AE_NXZ ENDP	; [thunk]:RakClient::IsNetworkSimulatorActive`adjustor{2538}'
_TEXT	ENDS
; Function compile flags: /Odsp /RTCsu /ZI
;	COMDAT ?ApplyNetworkSimulator@RakClient@@WJOK@AEXNGG@Z
_TEXT	SEGMENT
?ApplyNetworkSimulator@RakClient@@WJOK@AEXNGG@Z PROC	; [thunk]:RakClient::ApplyNetworkSimulator`adjustor{2538}', COMDAT
	sub	ecx, 2538				; 000009eaH
	jmp	?ApplyNetworkSimulator@RakClient@@UAEXNGG@Z ; RakClient::ApplyNetworkSimulator
?ApplyNetworkSimulator@RakClient@@WJOK@AEXNGG@Z ENDP	; [thunk]:RakClient::ApplyNetworkSimulator`adjustor{2538}'
_TEXT	ENDS
; Function compile flags: /Odsp /RTCsu /ZI
;	COMDAT ?AdvertiseSystem@RakClient@@WJOK@AEXPBDG0H@Z
_TEXT	SEGMENT
?AdvertiseSystem@RakClient@@WJOK@AEXPBDG0H@Z PROC	; [thunk]:RakClient::AdvertiseSystem`adjustor{2538}', COMDAT
	sub	ecx, 2538				; 000009eaH
	jmp	?AdvertiseSystem@RakClient@@UAEXPBDG0H@Z ; RakClient::AdvertiseSystem
?AdvertiseSystem@RakClient@@WJOK@AEXPBDG0H@Z ENDP	; [thunk]:RakClient::AdvertiseSystem`adjustor{2538}'
_TEXT	ENDS
; Function compile flags: /Odsp /RTCsu /ZI
;	COMDAT ?AllowConnectionResponseIPMigration@RakClient@@WJOK@AEX_N@Z
_TEXT	SEGMENT
?AllowConnectionResponseIPMigration@RakClient@@WJOK@AEX_N@Z PROC ; [thunk]:RakClient::AllowConnectionResponseIPMigration`adjustor{2538}', COMDAT
	sub	ecx, 2538				; 000009eaH
	jmp	?AllowConnectionResponseIPMigration@RakClient@@UAEX_N@Z ; RakClient::AllowConnectionResponseIPMigration
?AllowConnectionResponseIPMigration@RakClient@@WJOK@AEX_N@Z ENDP ; [thunk]:RakClient::AllowConnectionResponseIPMigration`adjustor{2538}'
_TEXT	ENDS
; Function compile flags: /Odsp /RTCsu /ZI
;	COMDAT ?GetMTUSize@RakClient@@WJOK@BEHXZ
_TEXT	SEGMENT
?GetMTUSize@RakClient@@WJOK@BEHXZ PROC			; [thunk]:RakClient::GetMTUSize`adjustor{2538}', COMDAT
	sub	ecx, 2538				; 000009eaH
	jmp	?GetMTUSize@RakClient@@UBEHXZ		; RakClient::GetMTUSize
?GetMTUSize@RakClient@@WJOK@BEHXZ ENDP			; [thunk]:RakClient::GetMTUSize`adjustor{2538}'
_TEXT	ENDS
; Function compile flags: /Odsp /RTCsu /ZI
;	COMDAT ?SetMTUSize@RakClient@@WJOK@AE_NH@Z
_TEXT	SEGMENT
?SetMTUSize@RakClient@@WJOK@AE_NH@Z PROC		; [thunk]:RakClient::SetMTUSize`adjustor{2538}', COMDAT
	sub	ecx, 2538				; 000009eaH
	jmp	?SetMTUSize@RakClient@@UAE_NH@Z		; RakClient::SetMTUSize
?SetMTUSize@RakClient@@WJOK@AE_NH@Z ENDP		; [thunk]:RakClient::SetMTUSize`adjustor{2538}'
_TEXT	ENDS
; Function compile flags: /Odsp /RTCsu /ZI
;	COMDAT ?RemoveRouterInterface@RakClient@@WJOK@AEXPAVRouterInterface@@@Z
_TEXT	SEGMENT
?RemoveRouterInterface@RakClient@@WJOK@AEXPAVRouterInterface@@@Z PROC ; [thunk]:RakClient::RemoveRouterInterface`adjustor{2538}', COMDAT
	sub	ecx, 2538				; 000009eaH
	jmp	?RemoveRouterInterface@RakClient@@UAEXPAVRouterInterface@@@Z ; RakClient::RemoveRouterInterface
?RemoveRouterInterface@RakClient@@WJOK@AEXPAVRouterInterface@@@Z ENDP ; [thunk]:RakClient::RemoveRouterInterface`adjustor{2538}'
_TEXT	ENDS
; Function compile flags: /Odsp /RTCsu /ZI
;	COMDAT ?SetRouterInterface@RakClient@@WJOK@AEXPAVRouterInterface@@@Z
_TEXT	SEGMENT
?SetRouterInterface@RakClient@@WJOK@AEXPAVRouterInterface@@@Z PROC ; [thunk]:RakClient::SetRouterInterface`adjustor{2538}', COMDAT
	sub	ecx, 2538				; 000009eaH
	jmp	?SetRouterInterface@RakClient@@UAEXPAVRouterInterface@@@Z ; RakClient::SetRouterInterface
?SetRouterInterface@RakClient@@WJOK@AEXPAVRouterInterface@@@Z ENDP ; [thunk]:RakClient::SetRouterInterface`adjustor{2538}'
_TEXT	ENDS
; Function compile flags: /Odsp /RTCsu /ZI
;	COMDAT ?PushBackPacket@RakClient@@WJOK@AEXPAUPacket@@_N@Z
_TEXT	SEGMENT
?PushBackPacket@RakClient@@WJOK@AEXPAUPacket@@_N@Z PROC	; [thunk]:RakClient::PushBackPacket`adjustor{2538}', COMDAT
	sub	ecx, 2538				; 000009eaH
	jmp	?PushBackPacket@RakClient@@UAEXPAUPacket@@_N@Z ; RakClient::PushBackPacket
?PushBackPacket@RakClient@@WJOK@AEXPAUPacket@@_N@Z ENDP	; [thunk]:RakClient::PushBackPacket`adjustor{2538}'
_TEXT	ENDS
; Function compile flags: /Odsp /RTCsu /ZI
;	COMDAT ?PlayerIDToDottedIP@RakClient@@WJOK@BEPBDUPlayerID@@@Z
_TEXT	SEGMENT
?PlayerIDToDottedIP@RakClient@@WJOK@BEPBDUPlayerID@@@Z PROC ; [thunk]:RakClient::PlayerIDToDottedIP`adjustor{2538}', COMDAT
	sub	ecx, 2538				; 000009eaH
	jmp	?PlayerIDToDottedIP@RakClient@@UBEPBDUPlayerID@@@Z ; RakClient::PlayerIDToDottedIP
?PlayerIDToDottedIP@RakClient@@WJOK@BEPBDUPlayerID@@@Z ENDP ; [thunk]:RakClient::PlayerIDToDottedIP`adjustor{2538}'
_TEXT	ENDS
; Function compile flags: /Odsp /RTCsu /ZI
;	COMDAT ?GetInternalID@RakClient@@WJOK@BE?AUPlayerID@@XZ
_TEXT	SEGMENT
?GetInternalID@RakClient@@WJOK@BE?AUPlayerID@@XZ PROC	; [thunk]:RakClient::GetInternalID`adjustor{2538}', COMDAT
	sub	ecx, 2538				; 000009eaH
	jmp	?GetInternalID@RakClient@@UBE?AUPlayerID@@XZ ; RakClient::GetInternalID
?GetInternalID@RakClient@@WJOK@BE?AUPlayerID@@XZ ENDP	; [thunk]:RakClient::GetInternalID`adjustor{2538}'
_TEXT	ENDS
; Function compile flags: /Odsp /RTCsu /ZI
;	COMDAT ?DetachPlugin@RakClient@@WJOK@AEXPAVPluginInterface@@@Z
_TEXT	SEGMENT
?DetachPlugin@RakClient@@WJOK@AEXPAVPluginInterface@@@Z PROC ; [thunk]:RakClient::DetachPlugin`adjustor{2538}', COMDAT
	sub	ecx, 2538				; 000009eaH
	jmp	?DetachPlugin@RakClient@@UAEXPAVPluginInterface@@@Z ; RakClient::DetachPlugin
?DetachPlugin@RakClient@@WJOK@AEXPAVPluginInterface@@@Z ENDP ; [thunk]:RakClient::DetachPlugin`adjustor{2538}'
_TEXT	ENDS
; Function compile flags: /Odsp /RTCsu /ZI
;	COMDAT ?AttachPlugin@RakClient@@WJOK@AEXPAVPluginInterface@@@Z
_TEXT	SEGMENT
?AttachPlugin@RakClient@@WJOK@AEXPAVPluginInterface@@@Z PROC ; [thunk]:RakClient::AttachPlugin`adjustor{2538}', COMDAT
	sub	ecx, 2538				; 000009eaH
	jmp	?AttachPlugin@RakClient@@UAEXPAVPluginInterface@@@Z ; RakClient::AttachPlugin
?AttachPlugin@RakClient@@WJOK@AEXPAVPluginInterface@@@Z ENDP ; [thunk]:RakClient::AttachPlugin`adjustor{2538}'
_TEXT	ENDS
; Function compile flags: /Odsp /RTCsu /ZI
;	COMDAT ?GetDecompressionRatio@RakClient@@WJOK@BEMXZ
_TEXT	SEGMENT
?GetDecompressionRatio@RakClient@@WJOK@BEMXZ PROC	; [thunk]:RakClient::GetDecompressionRatio`adjustor{2538}', COMDAT
	sub	ecx, 2538				; 000009eaH
	jmp	?GetDecompressionRatio@RakClient@@UBEMXZ ; RakClient::GetDecompressionRatio
?GetDecompressionRatio@RakClient@@WJOK@BEMXZ ENDP	; [thunk]:RakClient::GetDecompressionRatio`adjustor{2538}'
_TEXT	ENDS
; Function compile flags: /Odsp /RTCsu /ZI
;	COMDAT ?GetCompressionRatio@RakClient@@WJOK@BEMXZ
_TEXT	SEGMENT
?GetCompressionRatio@RakClient@@WJOK@BEMXZ PROC		; [thunk]:RakClient::GetCompressionRatio`adjustor{2538}', COMDAT
	sub	ecx, 2538				; 000009eaH
	jmp	?GetCompressionRatio@RakClient@@UBEMXZ	; RakClient::GetCompressionRatio
?GetCompressionRatio@RakClient@@WJOK@BEMXZ ENDP		; [thunk]:RakClient::GetCompressionRatio`adjustor{2538}'
_TEXT	ENDS
; Function compile flags: /Odsp /RTCsu /ZI
;	COMDAT ?UnregisterAsRemoteProcedureCall@RakClient@@WJOK@AEXPAD@Z
_TEXT	SEGMENT
?UnregisterAsRemoteProcedureCall@RakClient@@WJOK@AEXPAD@Z PROC ; [thunk]:RakClient::UnregisterAsRemoteProcedureCall`adjustor{2538}', COMDAT
	sub	ecx, 2538				; 000009eaH
	jmp	?UnregisterAsRemoteProcedureCall@RakClient@@UAEXPAD@Z ; RakClient::UnregisterAsRemoteProcedureCall
?UnregisterAsRemoteProcedureCall@RakClient@@WJOK@AEXPAD@Z ENDP ; [thunk]:RakClient::UnregisterAsRemoteProcedureCall`adjustor{2538}'
_TEXT	ENDS
; Function compile flags: /Odsp /RTCsu /ZI
;	COMDAT ?RegisterClassMemberRPC@RakClient@@WJOK@AEXPADPAX@Z
_TEXT	SEGMENT
?RegisterClassMemberRPC@RakClient@@WJOK@AEXPADPAX@Z PROC ; [thunk]:RakClient::RegisterClassMemberRPC`adjustor{2538}', COMDAT
	sub	ecx, 2538				; 000009eaH
	jmp	?RegisterClassMemberRPC@RakClient@@UAEXPADPAX@Z ; RakClient::RegisterClassMemberRPC
?RegisterClassMemberRPC@RakClient@@WJOK@AEXPADPAX@Z ENDP ; [thunk]:RakClient::RegisterClassMemberRPC`adjustor{2538}'
_TEXT	ENDS
; Function compile flags: /Odsp /RTCsu /ZI
;	COMDAT ?RegisterAsRemoteProcedureCall@RakClient@@WJOK@AEXPADP6AXPAURPCParameters@@@Z@Z
_TEXT	SEGMENT
?RegisterAsRemoteProcedureCall@RakClient@@WJOK@AEXPADP6AXPAURPCParameters@@@Z@Z PROC ; [thunk]:RakClient::RegisterAsRemoteProcedureCall`adjustor{2538}', COMDAT
	sub	ecx, 2538				; 000009eaH
	jmp	?RegisterAsRemoteProcedureCall@RakClient@@UAEXPADP6AXPAURPCParameters@@@Z@Z ; RakClient::RegisterAsRemoteProcedureCall
?RegisterAsRemoteProcedureCall@RakClient@@WJOK@AEXPADP6AXPAURPCParameters@@@Z@Z ENDP ; [thunk]:RakClient::RegisterAsRemoteProcedureCall`adjustor{2538}'
_TEXT	ENDS
; Function compile flags: /Odsp /RTCsu /ZI
;	COMDAT ?DeleteCompressionLayer@RakClient@@WJOK@AE_N_N@Z
_TEXT	SEGMENT
?DeleteCompressionLayer@RakClient@@WJOK@AE_N_N@Z PROC	; [thunk]:RakClient::DeleteCompressionLayer`adjustor{2538}', COMDAT
	sub	ecx, 2538				; 000009eaH
	jmp	?DeleteCompressionLayer@RakClient@@UAE_N_N@Z ; RakClient::DeleteCompressionLayer
?DeleteCompressionLayer@RakClient@@WJOK@AE_N_N@Z ENDP	; [thunk]:RakClient::DeleteCompressionLayer`adjustor{2538}'
_TEXT	ENDS
; Function compile flags: /Odsp /RTCsu /ZI
;	COMDAT ?GenerateCompressionLayer@RakClient@@WJOK@AE_NQAI_N@Z
_TEXT	SEGMENT
?GenerateCompressionLayer@RakClient@@WJOK@AE_NQAI_N@Z PROC ; [thunk]:RakClient::GenerateCompressionLayer`adjustor{2538}', COMDAT
	sub	ecx, 2538				; 000009eaH
	jmp	?GenerateCompressionLayer@RakClient@@UAE_NQAI_N@Z ; RakClient::GenerateCompressionLayer
?GenerateCompressionLayer@RakClient@@WJOK@AE_NQAI_N@Z ENDP ; [thunk]:RakClient::GenerateCompressionLayer`adjustor{2538}'
_TEXT	ENDS
; Function compile flags: /Odsp /RTCsu /ZI
;	COMDAT ?DeallocatePacket@RakClient@@WJOK@AEXPAUPacket@@@Z
_TEXT	SEGMENT
?DeallocatePacket@RakClient@@WJOK@AEXPAUPacket@@@Z PROC	; [thunk]:RakClient::DeallocatePacket`adjustor{2538}', COMDAT
	sub	ecx, 2538				; 000009eaH
	jmp	?DeallocatePacket@RakClient@@UAEXPAUPacket@@@Z ; RakClient::DeallocatePacket
?DeallocatePacket@RakClient@@WJOK@AEXPAUPacket@@@Z ENDP	; [thunk]:RakClient::DeallocatePacket`adjustor{2538}'
_TEXT	ENDS
; Function compile flags: /Odsp /RTCsu /ZI
;	COMDAT ?Receive@RakClient@@WJOK@AEPAUPacket@@XZ
_TEXT	SEGMENT
?Receive@RakClient@@WJOK@AEPAUPacket@@XZ PROC		; [thunk]:RakClient::Receive`adjustor{2538}', COMDAT
	sub	ecx, 2538				; 000009eaH
	jmp	?Receive@RakClient@@UAEPAUPacket@@XZ	; RakClient::Receive
?Receive@RakClient@@WJOK@AEPAUPacket@@XZ ENDP		; [thunk]:RakClient::Receive`adjustor{2538}'
_TEXT	ENDS
; Function compile flags: /Odsp /RTCsu /ZI
;	COMDAT ?Disconnect@RakClient@@WJOK@AEXIE@Z
_TEXT	SEGMENT
?Disconnect@RakClient@@WJOK@AEXIE@Z PROC		; [thunk]:RakClient::Disconnect`adjustor{2538}', COMDAT
	sub	ecx, 2538				; 000009eaH
	jmp	?Disconnect@RakClient@@UAEXIE@Z		; RakClient::Disconnect
?Disconnect@RakClient@@WJOK@AEXIE@Z ENDP		; [thunk]:RakClient::Disconnect`adjustor{2538}'
_TEXT	ENDS
; Function compile flags: /Odsp /RTCsu /ZI
;	COMDAT ??_ERakClient@@WJOK@AEPAXI@Z
_TEXT	SEGMENT
??_ERakClient@@WJOK@AEPAXI@Z PROC			; [thunk]:RakClient::`vector deleting destructor', COMDAT
	sub	ecx, 2538				; 000009eaH
	jmp	??_ERakClient@@UAEPAXI@Z
??_ERakClient@@WJOK@AEPAXI@Z ENDP			; [thunk]:RakClient::`vector deleting destructor'
_TEXT	ENDS
; Function compile flags: /Odtp /RTCsu /ZI
; File z:\sampsrc\02xu1\raknet\bitstream.h
;	COMDAT ??$Read@E@BitStream@RakNet@@QAE_NAAE@Z
_TEXT	SEGMENT
_this$ = -8						; size = 4
_var$ = 8						; size = 4
??$Read@E@BitStream@RakNet@@QAE_NAAE@Z PROC		; RakNet::BitStream::Read<unsigned char>, COMDAT
; _this$ = ecx

; 987  : 	{

	push	ebp
	mov	ebp, esp
	sub	esp, 204				; 000000ccH
	push	ebx
	push	esi
	push	edi
	push	ecx
	lea	edi, DWORD PTR [ebp-204]
	mov	ecx, 51					; 00000033H
	mov	eax, -858993460				; ccccccccH
	rep stosd
	pop	ecx
	mov	DWORD PTR _this$[ebp], ecx

; 988  : #ifdef _MSC_VER
; 989  : #pragma warning(disable:4127)   // conditional expression is constant
; 990  : #endif
; 991  : 		if (sizeof(var)==1)

	mov	eax, 1
	test	eax, eax
	je	SHORT $LN2@Read

; 992  : 			return ReadBits( ( unsigned char* ) &var, sizeof(templateType) * 8, true );

	push	1
	push	8
	mov	eax, DWORD PTR _var$[ebp]
	push	eax
	mov	ecx, DWORD PTR _this$[ebp]
	call	?ReadBits@BitStream@RakNet@@QAE_NPAEH_N@Z ; RakNet::BitStream::ReadBits
	jmp	SHORT $LN3@Read

; 993  : 		else

	jmp	SHORT $LN3@Read
$LN2@Read:

; 994  : 		{
; 995  : #ifndef __BITSTREAM_NATIVE_END
; 996  : #ifdef _MSC_VER
; 997  : #pragma warning(disable:4244)   // '=' : conversion from 'unsigned long' to 'unsigned short', possible loss of data
; 998  : #endif
; 999  : 			if (DoEndianSwap())
; 1000 : 			{
; 1001 : 				unsigned char output[sizeof(templateType)];
; 1002 : 				if (ReadBits( ( unsigned char* ) output, sizeof(templateType) * 8, true ))
; 1003 : 				{
; 1004 : 					ReverseBytes(output, (unsigned char*)&var, sizeof(templateType));
; 1005 : 					return true;
; 1006 : 				}
; 1007 : 				return false;
; 1008 : 			}
; 1009 : 			else
; 1010 : #endif
; 1011 : 				return ReadBits( ( unsigned char* ) & var, sizeof(templateType) * 8, true );

	push	1
	push	8
	mov	eax, DWORD PTR _var$[ebp]
	push	eax
	mov	ecx, DWORD PTR _this$[ebp]
	call	?ReadBits@BitStream@RakNet@@QAE_NPAEH_N@Z ; RakNet::BitStream::ReadBits
$LN3@Read:

; 1012 : 		}
; 1013 : 	}

	pop	edi
	pop	esi
	pop	ebx
	add	esp, 204				; 000000ccH
	cmp	ebp, esp
	call	__RTC_CheckEsp
	mov	esp, ebp
	pop	ebp
	ret	4
??$Read@E@BitStream@RakNet@@QAE_NAAE@Z ENDP		; RakNet::BitStream::Read<unsigned char>
_TEXT	ENDS
; Function compile flags: /Odtp /RTCsu /ZI
; File z:\sampsrc\02xu1\raknet\bitstream.h
;	COMDAT ??$Read@F@BitStream@RakNet@@QAE_NAAF@Z
_TEXT	SEGMENT
_this$ = -8						; size = 4
_var$ = 8						; size = 4
??$Read@F@BitStream@RakNet@@QAE_NAAF@Z PROC		; RakNet::BitStream::Read<short>, COMDAT
; _this$ = ecx

; 987  : 	{

	push	ebp
	mov	ebp, esp
	sub	esp, 204				; 000000ccH
	push	ebx
	push	esi
	push	edi
	push	ecx
	lea	edi, DWORD PTR [ebp-204]
	mov	ecx, 51					; 00000033H
	mov	eax, -858993460				; ccccccccH
	rep stosd
	pop	ecx
	mov	DWORD PTR _this$[ebp], ecx

; 988  : #ifdef _MSC_VER
; 989  : #pragma warning(disable:4127)   // conditional expression is constant
; 990  : #endif
; 991  : 		if (sizeof(var)==1)

	xor	eax, eax
	je	SHORT $LN2@Read

; 992  : 			return ReadBits( ( unsigned char* ) &var, sizeof(templateType) * 8, true );

	push	1
	push	16					; 00000010H
	mov	eax, DWORD PTR _var$[ebp]
	push	eax
	mov	ecx, DWORD PTR _this$[ebp]
	call	?ReadBits@BitStream@RakNet@@QAE_NPAEH_N@Z ; RakNet::BitStream::ReadBits
	jmp	SHORT $LN3@Read

; 993  : 		else

	jmp	SHORT $LN3@Read
$LN2@Read:

; 994  : 		{
; 995  : #ifndef __BITSTREAM_NATIVE_END
; 996  : #ifdef _MSC_VER
; 997  : #pragma warning(disable:4244)   // '=' : conversion from 'unsigned long' to 'unsigned short', possible loss of data
; 998  : #endif
; 999  : 			if (DoEndianSwap())
; 1000 : 			{
; 1001 : 				unsigned char output[sizeof(templateType)];
; 1002 : 				if (ReadBits( ( unsigned char* ) output, sizeof(templateType) * 8, true ))
; 1003 : 				{
; 1004 : 					ReverseBytes(output, (unsigned char*)&var, sizeof(templateType));
; 1005 : 					return true;
; 1006 : 				}
; 1007 : 				return false;
; 1008 : 			}
; 1009 : 			else
; 1010 : #endif
; 1011 : 				return ReadBits( ( unsigned char* ) & var, sizeof(templateType) * 8, true );

	push	1
	push	16					; 00000010H
	mov	eax, DWORD PTR _var$[ebp]
	push	eax
	mov	ecx, DWORD PTR _this$[ebp]
	call	?ReadBits@BitStream@RakNet@@QAE_NPAEH_N@Z ; RakNet::BitStream::ReadBits
$LN3@Read:

; 1012 : 		}
; 1013 : 	}

	pop	edi
	pop	esi
	pop	ebx
	add	esp, 204				; 000000ccH
	cmp	ebp, esp
	call	__RTC_CheckEsp
	mov	esp, ebp
	pop	ebp
	ret	4
??$Read@F@BitStream@RakNet@@QAE_NAAF@Z ENDP		; RakNet::BitStream::Read<short>
_TEXT	ENDS
; Function compile flags: /Odtp /RTCsu /ZI
;	COMDAT ??_GRakClient@@UAEPAXI@Z
_TEXT	SEGMENT
_this$ = -8						; size = 4
___flags$ = 8						; size = 4
??_GRakClient@@UAEPAXI@Z PROC				; RakClient::`scalar deleting destructor', COMDAT
; _this$ = ecx
	push	ebp
	mov	ebp, esp
	sub	esp, 204				; 000000ccH
	push	ebx
	push	esi
	push	edi
	push	ecx
	lea	edi, DWORD PTR [ebp-204]
	mov	ecx, 51					; 00000033H
	mov	eax, -858993460				; ccccccccH
	rep stosd
	pop	ecx
	mov	DWORD PTR _this$[ebp], ecx
	mov	ecx, DWORD PTR _this$[ebp]
	call	??1RakClient@@UAE@XZ			; RakClient::~RakClient
	mov	eax, DWORD PTR ___flags$[ebp]
	and	eax, 1
	je	SHORT $LN1@scalar
	mov	eax, DWORD PTR _this$[ebp]
	push	eax
	call	??3@YAXPAX@Z				; operator delete
	add	esp, 4
$LN1@scalar:
	mov	eax, DWORD PTR _this$[ebp]
	pop	edi
	pop	esi
	pop	ebx
	add	esp, 204				; 000000ccH
	cmp	ebp, esp
	call	__RTC_CheckEsp
	mov	esp, ebp
	pop	ebp
	ret	4
??_GRakClient@@UAEPAXI@Z ENDP				; RakClient::`scalar deleting destructor'
_TEXT	ENDS
; Function compile flags: /Odtp /RTCsu /ZI
;	COMDAT ??1OtherClientsStruct@RakClient@@QAE@XZ
_TEXT	SEGMENT
_this$ = -8						; size = 4
??1OtherClientsStruct@RakClient@@QAE@XZ PROC		; RakClient::OtherClientsStruct::~OtherClientsStruct, COMDAT
; _this$ = ecx
	push	ebp
	mov	ebp, esp
	sub	esp, 204				; 000000ccH
	push	ebx
	push	esi
	push	edi
	push	ecx
	lea	edi, DWORD PTR [ebp-204]
	mov	ecx, 51					; 00000033H
	mov	eax, -858993460				; ccccccccH
	rep stosd
	pop	ecx
	mov	DWORD PTR _this$[ebp], ecx
	mov	ecx, DWORD PTR _this$[ebp]
	add	ecx, 8
	call	??1BitStream@RakNet@@QAE@XZ		; RakNet::BitStream::~BitStream
	pop	edi
	pop	esi
	pop	ebx
	add	esp, 204				; 000000ccH
	cmp	ebp, esp
	call	__RTC_CheckEsp
	mov	esp, ebp
	pop	ebp
	ret	0
??1OtherClientsStruct@RakClient@@QAE@XZ ENDP		; RakClient::OtherClientsStruct::~OtherClientsStruct
_TEXT	ENDS
; Function compile flags: /Odtp /RTCsu /ZI
;	COMDAT ??0OtherClientsStruct@RakClient@@QAE@XZ
_TEXT	SEGMENT
_this$ = -8						; size = 4
??0OtherClientsStruct@RakClient@@QAE@XZ PROC		; RakClient::OtherClientsStruct::OtherClientsStruct, COMDAT
; _this$ = ecx
	push	ebp
	mov	ebp, esp
	sub	esp, 204				; 000000ccH
	push	ebx
	push	esi
	push	edi
	push	ecx
	lea	edi, DWORD PTR [ebp-204]
	mov	ecx, 51					; 00000033H
	mov	eax, -858993460				; ccccccccH
	rep stosd
	pop	ecx
	mov	DWORD PTR _this$[ebp], ecx
	mov	ecx, DWORD PTR _this$[ebp]
	add	ecx, 8
	call	??0BitStream@RakNet@@QAE@XZ		; RakNet::BitStream::BitStream
	mov	eax, DWORD PTR _this$[ebp]
	pop	edi
	pop	esi
	pop	ebx
	add	esp, 204				; 000000ccH
	cmp	ebp, esp
	call	__RTC_CheckEsp
	mov	esp, ebp
	pop	ebp
	ret	0
??0OtherClientsStruct@RakClient@@QAE@XZ ENDP		; RakClient::OtherClientsStruct::OtherClientsStruct
_TEXT	ENDS
; Function compile flags: /Odtp /RTCsu /ZI
; File z:\sampsrc\02xu1\raknet\rakclient.cpp
;	COMDAT ?GetFreeOtherClientIndex@RakClient@@AAEHXZ
_TEXT	SEGMENT
_i$ = -20						; size = 4
_this$ = -8						; size = 4
?GetFreeOtherClientIndex@RakClient@@AAEHXZ PROC		; RakClient::GetFreeOtherClientIndex, COMDAT
; _this$ = ecx

; 598  : {

	push	ebp
	mov	ebp, esp
	sub	esp, 216				; 000000d8H
	push	ebx
	push	esi
	push	edi
	push	ecx
	lea	edi, DWORD PTR [ebp-216]
	mov	ecx, 54					; 00000036H
	mov	eax, -858993460				; ccccccccH
	rep stosd
	pop	ecx
	mov	DWORD PTR _this$[ebp], ecx

; 599  : 	unsigned i;
; 600  : 	
; 601  : 	for ( i = 0; i < 32; i++ )

	mov	DWORD PTR _i$[ebp], 0
	jmp	SHORT $LN4@GetFreeOth
$LN3@GetFreeOth:
	mov	eax, DWORD PTR _i$[ebp]
	add	eax, 1
	mov	DWORD PTR _i$[ebp], eax
$LN4@GetFreeOth:
	cmp	DWORD PTR _i$[ebp], 32			; 00000020H
	jae	SHORT $LN2@GetFreeOth

; 602  : 	{
; 603  : 		if ( otherClients[ i ].isActive == false )

	imul	eax, DWORD PTR _i$[ebp], 282
	mov	ecx, DWORD PTR _this$[ebp]
	movzx	edx, BYTE PTR [ecx+eax+3096]
	test	edx, edx
	jne	SHORT $LN1@GetFreeOth

; 604  : 			return i;

	mov	eax, DWORD PTR _i$[ebp]
	jmp	SHORT $LN5@GetFreeOth
$LN1@GetFreeOth:

; 605  : 	}

	jmp	SHORT $LN3@GetFreeOth
$LN2@GetFreeOth:

; 606  : 	
; 607  : 	return -1;

	or	eax, -1
$LN5@GetFreeOth:

; 608  : }

	pop	edi
	pop	esi
	pop	ebx
	mov	esp, ebp
	pop	ebp
	ret	0
?GetFreeOtherClientIndex@RakClient@@AAEHXZ ENDP		; RakClient::GetFreeOtherClientIndex
_TEXT	ENDS
; Function compile flags: /Odtp /RTCsu /ZI
; File z:\sampsrc\02xu1\raknet\rakclient.cpp
;	COMDAT ?GetOtherClientIndexByPlayerID@RakClient@@AAEHUPlayerID@@@Z
_TEXT	SEGMENT
_i$ = -20						; size = 4
_this$ = -8						; size = 4
_playerId$ = 8						; size = 6
?GetOtherClientIndexByPlayerID@RakClient@@AAEHUPlayerID@@@Z PROC ; RakClient::GetOtherClientIndexByPlayerID, COMDAT
; _this$ = ecx

; 585  : {

	push	ebp
	mov	ebp, esp
	sub	esp, 216				; 000000d8H
	push	ebx
	push	esi
	push	edi
	push	ecx
	lea	edi, DWORD PTR [ebp-216]
	mov	ecx, 54					; 00000036H
	mov	eax, -858993460				; ccccccccH
	rep stosd
	pop	ecx
	mov	DWORD PTR _this$[ebp], ecx

; 586  : 	unsigned i;
; 587  : 	
; 588  : 	for ( i = 0; i < 32; i++ )

	mov	DWORD PTR _i$[ebp], 0
	jmp	SHORT $LN4@GetOtherCl
$LN3@GetOtherCl:
	mov	eax, DWORD PTR _i$[ebp]
	add	eax, 1
	mov	DWORD PTR _i$[ebp], eax
$LN4@GetOtherCl:
	cmp	DWORD PTR _i$[ebp], 32			; 00000020H
	jae	SHORT $LN2@GetOtherCl

; 589  : 	{
; 590  : 		if ( otherClients[ i ].playerId == playerId )

	lea	eax, DWORD PTR _playerId$[ebp]
	push	eax
	imul	ecx, DWORD PTR _i$[ebp], 282
	mov	edx, DWORD PTR _this$[ebp]
	lea	ecx, DWORD PTR [edx+ecx+2815]
	call	??8PlayerID@@QBE_NABU0@@Z		; PlayerID::operator==
	movzx	eax, al
	test	eax, eax
	je	SHORT $LN1@GetOtherCl

; 591  : 			return i;

	mov	eax, DWORD PTR _i$[ebp]
	jmp	SHORT $LN5@GetOtherCl
$LN1@GetOtherCl:

; 592  : 	}

	jmp	SHORT $LN3@GetOtherCl
$LN2@GetOtherCl:

; 593  : 	
; 594  : 	return -1;

	or	eax, -1
$LN5@GetOtherCl:

; 595  : }

	pop	edi
	pop	esi
	pop	ebx
	add	esp, 216				; 000000d8H
	cmp	ebp, esp
	call	__RTC_CheckEsp
	mov	esp, ebp
	pop	ebp
	ret	8
?GetOtherClientIndexByPlayerID@RakClient@@AAEHUPlayerID@@@Z ENDP ; RakClient::GetOtherClientIndexByPlayerID
_TEXT	ENDS
; Function compile flags: /Odtp /RTCsu /ZI
; File z:\sampsrc\02xu1\raknet\rakclient.cpp
;	COMDAT ?GetPlayerIndex@RakClient@@UAEGXZ
_TEXT	SEGMENT
_this$ = -8						; size = 4
?GetPlayerIndex@RakClient@@UAEGXZ PROC			; RakClient::GetPlayerIndex, COMDAT
; _this$ = ecx

; 611  : {

	push	ebp
	mov	ebp, esp
	sub	esp, 204				; 000000ccH
	push	ebx
	push	esi
	push	edi
	push	ecx
	lea	edi, DWORD PTR [ebp-204]
	mov	ecx, 51					; 00000033H
	mov	eax, -858993460				; ccccccccH
	rep stosd
	pop	ecx
	mov	DWORD PTR _this$[ebp], ecx

; 612  : 	return localPlayerIndex;

	mov	eax, DWORD PTR _this$[ebp]
	mov	ax, WORD PTR [eax+9313]

; 613  : }

	pop	edi
	pop	esi
	pop	ebx
	mov	esp, ebp
	pop	ebp
	ret	0
?GetPlayerIndex@RakClient@@UAEGXZ ENDP			; RakClient::GetPlayerIndex
_TEXT	ENDS
; Function compile flags: /Odtp /RTCsu /ZI
; File z:\sampsrc\02xu1\raknet\rakclient.cpp
;	COMDAT ?IsNetworkSimulatorActive@RakClient@@UAE_NXZ
_TEXT	SEGMENT
_this$ = -8						; size = 4
?IsNetworkSimulatorActive@RakClient@@UAE_NXZ PROC	; RakClient::IsNetworkSimulatorActive, COMDAT
; _this$ = ecx

; 580  : {

	push	ebp
	mov	ebp, esp
	sub	esp, 204				; 000000ccH
	push	ebx
	push	esi
	push	edi
	push	ecx
	lea	edi, DWORD PTR [ebp-204]
	mov	ecx, 51					; 00000033H
	mov	eax, -858993460				; ccccccccH
	rep stosd
	pop	ecx
	mov	DWORD PTR _this$[ebp], ecx

; 581  : 	return RakPeer::IsNetworkSimulatorActive();

	mov	ecx, DWORD PTR _this$[ebp]
	call	?IsNetworkSimulatorActive@RakPeer@@UAE_NXZ ; RakPeer::IsNetworkSimulatorActive

; 582  : }

	pop	edi
	pop	esi
	pop	ebx
	add	esp, 204				; 000000ccH
	cmp	ebp, esp
	call	__RTC_CheckEsp
	mov	esp, ebp
	pop	ebp
	ret	0
?IsNetworkSimulatorActive@RakClient@@UAE_NXZ ENDP	; RakClient::IsNetworkSimulatorActive
_TEXT	ENDS
; Function compile flags: /Odtp /RTCsu /ZI
; File z:\sampsrc\02xu1\raknet\rakclient.cpp
;	COMDAT ?ApplyNetworkSimulator@RakClient@@UAEXNGG@Z
_TEXT	SEGMENT
_this$ = -8						; size = 4
_maxSendBPS$ = 8					; size = 8
_minExtraPing$ = 16					; size = 2
_extraPingVariance$ = 20				; size = 2
?ApplyNetworkSimulator@RakClient@@UAEXNGG@Z PROC	; RakClient::ApplyNetworkSimulator, COMDAT
; _this$ = ecx

; 575  : {

	push	ebp
	mov	ebp, esp
	sub	esp, 204				; 000000ccH
	push	ebx
	push	esi
	push	edi
	push	ecx
	lea	edi, DWORD PTR [ebp-204]
	mov	ecx, 51					; 00000033H
	mov	eax, -858993460				; ccccccccH
	rep stosd
	pop	ecx
	mov	DWORD PTR _this$[ebp], ecx

; 576  : 	RakPeer::ApplyNetworkSimulator( maxSendBPS, minExtraPing, extraPingVariance );

	movzx	eax, WORD PTR _extraPingVariance$[ebp]
	push	eax
	movzx	ecx, WORD PTR _minExtraPing$[ebp]
	push	ecx
	sub	esp, 8
	movsd	xmm0, QWORD PTR _maxSendBPS$[ebp]
	movsd	QWORD PTR [esp], xmm0
	mov	ecx, DWORD PTR _this$[ebp]
	call	?ApplyNetworkSimulator@RakPeer@@UAEXNGG@Z ; RakPeer::ApplyNetworkSimulator

; 577  : }

	pop	edi
	pop	esi
	pop	ebx
	add	esp, 204				; 000000ccH
	cmp	ebp, esp
	call	__RTC_CheckEsp
	mov	esp, ebp
	pop	ebp
	ret	16					; 00000010H
?ApplyNetworkSimulator@RakClient@@UAEXNGG@Z ENDP	; RakClient::ApplyNetworkSimulator
_TEXT	ENDS
; Function compile flags: /Odtp /RTCsu /ZI
; File z:\sampsrc\02xu1\raknet\rakclient.cpp
;	COMDAT ?GetStatistics@RakClient@@UAEQAURakNetStatisticsStruct@@XZ
_TEXT	SEGMENT
_this$ = -8						; size = 4
?GetStatistics@RakClient@@UAEQAURakNetStatisticsStruct@@XZ PROC ; RakClient::GetStatistics, COMDAT
; _this$ = ecx

; 570  : {

	push	ebp
	mov	ebp, esp
	sub	esp, 204				; 000000ccH
	push	ebx
	push	esi
	push	edi
	push	ecx
	lea	edi, DWORD PTR [ebp-204]
	mov	ecx, 51					; 00000033H
	mov	eax, -858993460				; ccccccccH
	rep stosd
	pop	ecx
	mov	DWORD PTR _this$[ebp], ecx

; 571  : 	return RakPeer::GetStatistics( remoteSystemList[ 0 ].playerId );

	mov	eax, 2058				; 0000080aH
	imul	ecx, eax, 0
	mov	edx, DWORD PTR _this$[ebp]
	mov	eax, DWORD PTR [edx-1718]
	lea	ecx, DWORD PTR [eax+ecx+1]
	sub	esp, 8
	mov	edx, esp
	mov	eax, DWORD PTR [ecx]
	mov	DWORD PTR [edx], eax
	mov	cx, WORD PTR [ecx+4]
	mov	WORD PTR [edx+4], cx
	mov	ecx, DWORD PTR _this$[ebp]
	sub	ecx, 2538				; 000009eaH
	call	?GetStatistics@RakPeer@@UAEQAURakNetStatisticsStruct@@UPlayerID@@@Z ; RakPeer::GetStatistics

; 572  : }

	pop	edi
	pop	esi
	pop	ebx
	add	esp, 204				; 000000ccH
	cmp	ebp, esp
	call	__RTC_CheckEsp
	mov	esp, ebp
	pop	ebp
	ret	0
?GetStatistics@RakClient@@UAEQAURakNetStatisticsStruct@@XZ ENDP ; RakClient::GetStatistics
_TEXT	ENDS
; Function compile flags: /Odtp /RTCsu /ZI
; File z:\sampsrc\02xu1\raknet\rakclient.cpp
;	COMDAT ?AdvertiseSystem@RakClient@@UAEXPBDG0H@Z
_TEXT	SEGMENT
_this$ = -8						; size = 4
_host$ = 8						; size = 4
_remotePort$ = 12					; size = 2
_data$ = 16						; size = 4
_dataLength$ = 20					; size = 4
?AdvertiseSystem@RakClient@@UAEXPBDG0H@Z PROC		; RakClient::AdvertiseSystem, COMDAT
; _this$ = ecx

; 565  : {

	push	ebp
	mov	ebp, esp
	sub	esp, 204				; 000000ccH
	push	ebx
	push	esi
	push	edi
	push	ecx
	lea	edi, DWORD PTR [ebp-204]
	mov	ecx, 51					; 00000033H
	mov	eax, -858993460				; ccccccccH
	rep stosd
	pop	ecx
	mov	DWORD PTR _this$[ebp], ecx

; 566  : 	RakPeer::AdvertiseSystem( host, remotePort, data, dataLength );

	mov	eax, DWORD PTR _dataLength$[ebp]
	push	eax
	mov	ecx, DWORD PTR _data$[ebp]
	push	ecx
	movzx	edx, WORD PTR _remotePort$[ebp]
	push	edx
	mov	eax, DWORD PTR _host$[ebp]
	push	eax
	mov	ecx, DWORD PTR _this$[ebp]
	call	?AdvertiseSystem@RakPeer@@UAEXPBDG0H@Z	; RakPeer::AdvertiseSystem

; 567  : }

	pop	edi
	pop	esi
	pop	ebx
	add	esp, 204				; 000000ccH
	cmp	ebp, esp
	call	__RTC_CheckEsp
	mov	esp, ebp
	pop	ebp
	ret	16					; 00000010H
?AdvertiseSystem@RakClient@@UAEXPBDG0H@Z ENDP		; RakClient::AdvertiseSystem
_TEXT	ENDS
; Function compile flags: /Odtp /RTCsu /ZI
; File z:\sampsrc\02xu1\raknet\rakclient.cpp
;	COMDAT ?AllowConnectionResponseIPMigration@RakClient@@UAEX_N@Z
_TEXT	SEGMENT
_this$ = -8						; size = 4
_allow$ = 8						; size = 1
?AllowConnectionResponseIPMigration@RakClient@@UAEX_N@Z PROC ; RakClient::AllowConnectionResponseIPMigration, COMDAT
; _this$ = ecx

; 560  : {

	push	ebp
	mov	ebp, esp
	sub	esp, 204				; 000000ccH
	push	ebx
	push	esi
	push	edi
	push	ecx
	lea	edi, DWORD PTR [ebp-204]
	mov	ecx, 51					; 00000033H
	mov	eax, -858993460				; ccccccccH
	rep stosd
	pop	ecx
	mov	DWORD PTR _this$[ebp], ecx

; 561  : 	RakPeer::AllowConnectionResponseIPMigration( allow );

	movzx	eax, BYTE PTR _allow$[ebp]
	push	eax
	mov	ecx, DWORD PTR _this$[ebp]
	call	?AllowConnectionResponseIPMigration@RakPeer@@UAEX_N@Z ; RakPeer::AllowConnectionResponseIPMigration

; 562  : }

	pop	edi
	pop	esi
	pop	ebx
	add	esp, 204				; 000000ccH
	cmp	ebp, esp
	call	__RTC_CheckEsp
	mov	esp, ebp
	pop	ebp
	ret	4
?AllowConnectionResponseIPMigration@RakClient@@UAEX_N@Z ENDP ; RakClient::AllowConnectionResponseIPMigration
_TEXT	ENDS
; Function compile flags: /Odtp /RTCsu /ZI
; File z:\sampsrc\02xu1\raknet\rakclient.cpp
;	COMDAT ?GetMTUSize@RakClient@@UBEHXZ
_TEXT	SEGMENT
_this$ = -8						; size = 4
?GetMTUSize@RakClient@@UBEHXZ PROC			; RakClient::GetMTUSize, COMDAT
; _this$ = ecx

; 555  : {

	push	ebp
	mov	ebp, esp
	sub	esp, 204				; 000000ccH
	push	ebx
	push	esi
	push	edi
	push	ecx
	lea	edi, DWORD PTR [ebp-204]
	mov	ecx, 51					; 00000033H
	mov	eax, -858993460				; ccccccccH
	rep stosd
	pop	ecx
	mov	DWORD PTR _this$[ebp], ecx

; 556  : 	return RakPeer::GetMTUSize();

	mov	ecx, DWORD PTR _this$[ebp]
	call	?GetMTUSize@RakPeer@@UBEHXZ		; RakPeer::GetMTUSize

; 557  : }

	pop	edi
	pop	esi
	pop	ebx
	add	esp, 204				; 000000ccH
	cmp	ebp, esp
	call	__RTC_CheckEsp
	mov	esp, ebp
	pop	ebp
	ret	0
?GetMTUSize@RakClient@@UBEHXZ ENDP			; RakClient::GetMTUSize
_TEXT	ENDS
; Function compile flags: /Odtp /RTCsu /ZI
; File z:\sampsrc\02xu1\raknet\rakclient.cpp
;	COMDAT ?SetMTUSize@RakClient@@UAE_NH@Z
_TEXT	SEGMENT
_this$ = -8						; size = 4
_size$ = 8						; size = 4
?SetMTUSize@RakClient@@UAE_NH@Z PROC			; RakClient::SetMTUSize, COMDAT
; _this$ = ecx

; 550  : {

	push	ebp
	mov	ebp, esp
	sub	esp, 204				; 000000ccH
	push	ebx
	push	esi
	push	edi
	push	ecx
	lea	edi, DWORD PTR [ebp-204]
	mov	ecx, 51					; 00000033H
	mov	eax, -858993460				; ccccccccH
	rep stosd
	pop	ecx
	mov	DWORD PTR _this$[ebp], ecx

; 551  : 	return RakPeer::SetMTUSize( size );

	mov	eax, DWORD PTR _size$[ebp]
	push	eax
	mov	ecx, DWORD PTR _this$[ebp]
	call	?SetMTUSize@RakPeer@@UAE_NH@Z		; RakPeer::SetMTUSize

; 552  : }

	pop	edi
	pop	esi
	pop	ebx
	add	esp, 204				; 000000ccH
	cmp	ebp, esp
	call	__RTC_CheckEsp
	mov	esp, ebp
	pop	ebp
	ret	4
?SetMTUSize@RakClient@@UAE_NH@Z ENDP			; RakClient::SetMTUSize
_TEXT	ENDS
; Function compile flags: /Odtp /RTCsu /ZI
; File z:\sampsrc\02xu1\raknet\rakclient.cpp
;	COMDAT ?SetTimeoutTime@RakClient@@UAEXI@Z
_TEXT	SEGMENT
$T1 = -214						; size = 6
_this$ = -8						; size = 4
_timeMS$ = 8						; size = 4
?SetTimeoutTime@RakClient@@UAEXI@Z PROC			; RakClient::SetTimeoutTime, COMDAT
; _this$ = ecx

; 545  : {

	push	ebp
	mov	ebp, esp
	sub	esp, 220				; 000000dcH
	push	ebx
	push	esi
	push	edi
	push	ecx
	lea	edi, DWORD PTR [ebp-220]
	mov	ecx, 55					; 00000037H
	mov	eax, -858993460				; ccccccccH
	rep stosd
	pop	ecx
	mov	DWORD PTR _this$[ebp], ecx

; 546  : 	RakPeer::SetTimeoutTime( timeMS, GetServerID() );

	mov	esi, esp
	lea	eax, DWORD PTR $T1[ebp]
	push	eax
	mov	ecx, DWORD PTR _this$[ebp]
	mov	edx, DWORD PTR [ecx]
	mov	ecx, DWORD PTR _this$[ebp]
	mov	eax, DWORD PTR [edx+156]
	call	eax
	cmp	esi, esp
	call	__RTC_CheckEsp
	sub	esp, 8
	mov	ecx, esp
	mov	edx, DWORD PTR [eax]
	mov	DWORD PTR [ecx], edx
	mov	ax, WORD PTR [eax+4]
	mov	WORD PTR [ecx+4], ax
	mov	ecx, DWORD PTR _timeMS$[ebp]
	push	ecx
	mov	ecx, DWORD PTR _this$[ebp]
	sub	ecx, 2538				; 000009eaH
	call	?SetTimeoutTime@RakPeer@@UAEXIUPlayerID@@@Z ; RakPeer::SetTimeoutTime

; 547  : }

	pop	edi
	pop	esi
	pop	ebx
	add	esp, 220				; 000000dcH
	cmp	ebp, esp
	call	__RTC_CheckEsp
	mov	esp, ebp
	pop	ebp
	ret	4
?SetTimeoutTime@RakClient@@UAEXI@Z ENDP			; RakClient::SetTimeoutTime
_TEXT	ENDS
; Function compile flags: /Odtp /RTCsu /ZI
; File z:\sampsrc\02xu1\raknet\rakclient.cpp
;	COMDAT ?RemoveRouterInterface@RakClient@@UAEXPAVRouterInterface@@@Z
_TEXT	SEGMENT
_this$ = -8						; size = 4
_routerInterface$ = 8					; size = 4
?RemoveRouterInterface@RakClient@@UAEXPAVRouterInterface@@@Z PROC ; RakClient::RemoveRouterInterface, COMDAT
; _this$ = ecx

; 540  : {

	push	ebp
	mov	ebp, esp
	sub	esp, 204				; 000000ccH
	push	ebx
	push	esi
	push	edi
	push	ecx
	lea	edi, DWORD PTR [ebp-204]
	mov	ecx, 51					; 00000033H
	mov	eax, -858993460				; ccccccccH
	rep stosd
	pop	ecx
	mov	DWORD PTR _this$[ebp], ecx

; 541  : 	RakPeer::RemoveRouterInterface(routerInterface);

	mov	eax, DWORD PTR _routerInterface$[ebp]
	push	eax
	mov	ecx, DWORD PTR _this$[ebp]
	call	?RemoveRouterInterface@RakPeer@@UAEXPAVRouterInterface@@@Z ; RakPeer::RemoveRouterInterface

; 542  : }

	pop	edi
	pop	esi
	pop	ebx
	add	esp, 204				; 000000ccH
	cmp	ebp, esp
	call	__RTC_CheckEsp
	mov	esp, ebp
	pop	ebp
	ret	4
?RemoveRouterInterface@RakClient@@UAEXPAVRouterInterface@@@Z ENDP ; RakClient::RemoveRouterInterface
_TEXT	ENDS
; Function compile flags: /Odtp /RTCsu /ZI
; File z:\sampsrc\02xu1\raknet\rakclient.cpp
;	COMDAT ?SetRouterInterface@RakClient@@UAEXPAVRouterInterface@@@Z
_TEXT	SEGMENT
_this$ = -8						; size = 4
_routerInterface$ = 8					; size = 4
?SetRouterInterface@RakClient@@UAEXPAVRouterInterface@@@Z PROC ; RakClient::SetRouterInterface, COMDAT
; _this$ = ecx

; 536  : {

	push	ebp
	mov	ebp, esp
	sub	esp, 204				; 000000ccH
	push	ebx
	push	esi
	push	edi
	push	ecx
	lea	edi, DWORD PTR [ebp-204]
	mov	ecx, 51					; 00000033H
	mov	eax, -858993460				; ccccccccH
	rep stosd
	pop	ecx
	mov	DWORD PTR _this$[ebp], ecx

; 537  : 	RakPeer::SetRouterInterface(routerInterface);

	mov	eax, DWORD PTR _routerInterface$[ebp]
	push	eax
	mov	ecx, DWORD PTR _this$[ebp]
	call	?SetRouterInterface@RakPeer@@UAEXPAVRouterInterface@@@Z ; RakPeer::SetRouterInterface

; 538  : }

	pop	edi
	pop	esi
	pop	ebx
	add	esp, 204				; 000000ccH
	cmp	ebp, esp
	call	__RTC_CheckEsp
	mov	esp, ebp
	pop	ebp
	ret	4
?SetRouterInterface@RakClient@@UAEXPAVRouterInterface@@@Z ENDP ; RakClient::SetRouterInterface
_TEXT	ENDS
; Function compile flags: /Odtp /RTCsu /ZI
; File z:\sampsrc\02xu1\raknet\rakclient.cpp
;	COMDAT ?PushBackPacket@RakClient@@UAEXPAUPacket@@_N@Z
_TEXT	SEGMENT
_this$ = -8						; size = 4
_packet$ = 8						; size = 4
_pushAtHead$ = 12					; size = 1
?PushBackPacket@RakClient@@UAEXPAUPacket@@_N@Z PROC	; RakClient::PushBackPacket, COMDAT
; _this$ = ecx

; 531  : {

	push	ebp
	mov	ebp, esp
	sub	esp, 204				; 000000ccH
	push	ebx
	push	esi
	push	edi
	push	ecx
	lea	edi, DWORD PTR [ebp-204]
	mov	ecx, 51					; 00000033H
	mov	eax, -858993460				; ccccccccH
	rep stosd
	pop	ecx
	mov	DWORD PTR _this$[ebp], ecx

; 532  : 	RakPeer::PushBackPacket(packet, pushAtHead);

	movzx	eax, BYTE PTR _pushAtHead$[ebp]
	push	eax
	mov	ecx, DWORD PTR _packet$[ebp]
	push	ecx
	mov	ecx, DWORD PTR _this$[ebp]
	call	?PushBackPacket@RakPeer@@UAEXPAUPacket@@_N@Z ; RakPeer::PushBackPacket

; 533  : }

	pop	edi
	pop	esi
	pop	ebx
	add	esp, 204				; 000000ccH
	cmp	ebp, esp
	call	__RTC_CheckEsp
	mov	esp, ebp
	pop	ebp
	ret	8
?PushBackPacket@RakClient@@UAEXPAUPacket@@_N@Z ENDP	; RakClient::PushBackPacket
_TEXT	ENDS
; Function compile flags: /Odtp /RTCsu /ZI
; File z:\sampsrc\02xu1\raknet\rakclient.cpp
;	COMDAT ?PlayerIDToDottedIP@RakClient@@UBEPBDUPlayerID@@@Z
_TEXT	SEGMENT
_this$ = -8						; size = 4
_playerId$ = 8						; size = 6
?PlayerIDToDottedIP@RakClient@@UBEPBDUPlayerID@@@Z PROC	; RakClient::PlayerIDToDottedIP, COMDAT
; _this$ = ecx

; 526  : {

	push	ebp
	mov	ebp, esp
	sub	esp, 204				; 000000ccH
	push	ebx
	push	esi
	push	edi
	push	ecx
	lea	edi, DWORD PTR [ebp-204]
	mov	ecx, 51					; 00000033H
	mov	eax, -858993460				; ccccccccH
	rep stosd
	pop	ecx
	mov	DWORD PTR _this$[ebp], ecx

; 527  : 	return RakPeer::PlayerIDToDottedIP( playerId );

	sub	esp, 8
	mov	eax, esp
	mov	ecx, DWORD PTR _playerId$[ebp]
	mov	DWORD PTR [eax], ecx
	mov	dx, WORD PTR _playerId$[ebp+4]
	mov	WORD PTR [eax+4], dx
	mov	ecx, DWORD PTR _this$[ebp]
	call	?PlayerIDToDottedIP@RakPeer@@UBEPBDUPlayerID@@@Z ; RakPeer::PlayerIDToDottedIP

; 528  : }

	pop	edi
	pop	esi
	pop	ebx
	add	esp, 204				; 000000ccH
	cmp	ebp, esp
	call	__RTC_CheckEsp
	mov	esp, ebp
	pop	ebp
	ret	8
?PlayerIDToDottedIP@RakClient@@UBEPBDUPlayerID@@@Z ENDP	; RakClient::PlayerIDToDottedIP
_TEXT	ENDS
; Function compile flags: /Odtp /RTCsu /ZI
; File z:\sampsrc\02xu1\raknet\rakclient.cpp
;	COMDAT ?GetInternalID@RakClient@@UBE?AUPlayerID@@XZ
_TEXT	SEGMENT
_this$ = -8						; size = 4
___$ReturnUdt$ = 8					; size = 4
?GetInternalID@RakClient@@UBE?AUPlayerID@@XZ PROC	; RakClient::GetInternalID, COMDAT
; _this$ = ecx

; 521  : {

	push	ebp
	mov	ebp, esp
	sub	esp, 204				; 000000ccH
	push	ebx
	push	esi
	push	edi
	push	ecx
	lea	edi, DWORD PTR [ebp-204]
	mov	ecx, 51					; 00000033H
	mov	eax, -858993460				; ccccccccH
	rep stosd
	pop	ecx
	mov	DWORD PTR _this$[ebp], ecx

; 522  : 	return RakPeer::GetInternalID();

	mov	eax, DWORD PTR ___$ReturnUdt$[ebp]
	push	eax
	mov	ecx, DWORD PTR _this$[ebp]
	call	?GetInternalID@RakPeer@@UBE?AUPlayerID@@XZ ; RakPeer::GetInternalID
	mov	eax, DWORD PTR ___$ReturnUdt$[ebp]

; 523  : }

	pop	edi
	pop	esi
	pop	ebx
	add	esp, 204				; 000000ccH
	cmp	ebp, esp
	call	__RTC_CheckEsp
	mov	esp, ebp
	pop	ebp
	ret	4
?GetInternalID@RakClient@@UBE?AUPlayerID@@XZ ENDP	; RakClient::GetInternalID
_TEXT	ENDS
; Function compile flags: /Odtp /RTCsu /ZI
; File z:\sampsrc\02xu1\raknet\rakclient.cpp
;	COMDAT ?GetPlayerID@RakClient@@UBE?AUPlayerID@@XZ
_TEXT	SEGMENT
_myID$ = -24						; size = 6
_this$ = -8						; size = 4
___$ReturnUdt$ = 8					; size = 4
?GetPlayerID@RakClient@@UBE?AUPlayerID@@XZ PROC		; RakClient::GetPlayerID, COMDAT
; _this$ = ecx

; 506  : {

	push	ebp
	mov	ebp, esp
	sub	esp, 220				; 000000dcH
	push	ebx
	push	esi
	push	edi
	push	ecx
	lea	edi, DWORD PTR [ebp-220]
	mov	ecx, 55					; 00000037H
	mov	eax, -858993460				; ccccccccH
	rep stosd
	pop	ecx
	mov	DWORD PTR _this$[ebp], ecx

; 507  : 	if ( remoteSystemList == 0 )

	mov	eax, DWORD PTR _this$[ebp]
	cmp	DWORD PTR [eax-1718], 0
	jne	SHORT $LN3@GetPlayerI

; 508  : 		return UNASSIGNED_PLAYER_ID;

	mov	eax, DWORD PTR ___$ReturnUdt$[ebp]
	mov	ecx, DWORD PTR _UNASSIGNED_PLAYER_ID
	mov	DWORD PTR [eax], ecx
	mov	dx, WORD PTR _UNASSIGNED_PLAYER_ID+4
	mov	WORD PTR [eax+4], dx
	mov	eax, DWORD PTR ___$ReturnUdt$[ebp]
	jmp	SHORT $LN4@GetPlayerI
$LN3@GetPlayerI:

; 509  : 		
; 510  : 	// GetExternalID is more accurate because it reflects our external IP and port to the server.
; 511  : 	// GetInternalID only matches the parameters we passed
; 512  : 	PlayerID myID = RakPeer::GetExternalID( remoteSystemList[ 0 ].playerId );

	mov	eax, 2058				; 0000080aH
	imul	ecx, eax, 0
	mov	edx, DWORD PTR _this$[ebp]
	mov	eax, DWORD PTR [edx-1718]
	lea	ecx, DWORD PTR [eax+ecx+1]
	sub	esp, 8
	mov	edx, esp
	mov	eax, DWORD PTR [ecx]
	mov	DWORD PTR [edx], eax
	mov	cx, WORD PTR [ecx+4]
	mov	WORD PTR [edx+4], cx
	lea	edx, DWORD PTR _myID$[ebp]
	push	edx
	mov	ecx, DWORD PTR _this$[ebp]
	sub	ecx, 2538				; 000009eaH
	call	?GetExternalID@RakPeer@@UBE?AUPlayerID@@U2@@Z ; RakPeer::GetExternalID

; 513  : 	
; 514  : 	if ( myID == UNASSIGNED_PLAYER_ID )

	push	OFFSET _UNASSIGNED_PLAYER_ID
	lea	ecx, DWORD PTR _myID$[ebp]
	call	??8PlayerID@@QBE_NABU0@@Z		; PlayerID::operator==
	movzx	eax, al
	test	eax, eax
	je	SHORT $LN2@GetPlayerI

; 515  : 		return RakPeer::GetInternalID();

	mov	eax, DWORD PTR ___$ReturnUdt$[ebp]
	push	eax
	mov	ecx, DWORD PTR _this$[ebp]
	sub	ecx, 2538				; 000009eaH
	call	?GetInternalID@RakPeer@@UBE?AUPlayerID@@XZ ; RakPeer::GetInternalID
	mov	eax, DWORD PTR ___$ReturnUdt$[ebp]
	jmp	SHORT $LN4@GetPlayerI

; 516  : 	else

	jmp	SHORT $LN4@GetPlayerI
$LN2@GetPlayerI:

; 517  : 		return myID;

	mov	eax, DWORD PTR ___$ReturnUdt$[ebp]
	mov	ecx, DWORD PTR _myID$[ebp]
	mov	DWORD PTR [eax], ecx
	mov	dx, WORD PTR _myID$[ebp+4]
	mov	WORD PTR [eax+4], dx
	mov	eax, DWORD PTR ___$ReturnUdt$[ebp]
$LN4@GetPlayerI:

; 518  : }

	push	edx
	mov	ecx, ebp
	push	eax
	lea	edx, DWORD PTR $LN8@GetPlayerI
	call	@_RTC_CheckStackVars@8
	pop	eax
	pop	edx
	pop	edi
	pop	esi
	pop	ebx
	add	esp, 220				; 000000dcH
	cmp	ebp, esp
	call	__RTC_CheckEsp
	mov	esp, ebp
	pop	ebp
	ret	4
	npad	3
$LN8@GetPlayerI:
	DD	1
	DD	$LN7@GetPlayerI
$LN7@GetPlayerI:
	DD	-24					; ffffffe8H
	DD	6
	DD	$LN6@GetPlayerI
$LN6@GetPlayerI:
	DB	109					; 0000006dH
	DB	121					; 00000079H
	DB	73					; 00000049H
	DB	68					; 00000044H
	DB	0
?GetPlayerID@RakClient@@UBE?AUPlayerID@@XZ ENDP		; RakClient::GetPlayerID
_TEXT	ENDS
; Function compile flags: /Odtp /RTCsu /ZI
; File z:\sampsrc\02xu1\raknet\rakclient.cpp
;	COMDAT ?GetServerID@RakClient@@UBE?AUPlayerID@@XZ
_TEXT	SEGMENT
_this$ = -8						; size = 4
___$ReturnUdt$ = 8					; size = 4
?GetServerID@RakClient@@UBE?AUPlayerID@@XZ PROC		; RakClient::GetServerID, COMDAT
; _this$ = ecx

; 498  : {

	push	ebp
	mov	ebp, esp
	sub	esp, 204				; 000000ccH
	push	ebx
	push	esi
	push	edi
	push	ecx
	lea	edi, DWORD PTR [ebp-204]
	mov	ecx, 51					; 00000033H
	mov	eax, -858993460				; ccccccccH
	rep stosd
	pop	ecx
	mov	DWORD PTR _this$[ebp], ecx

; 499  : 	if ( remoteSystemList == 0 )

	mov	eax, DWORD PTR _this$[ebp]
	cmp	DWORD PTR [eax-1718], 0
	jne	SHORT $LN1@GetServerI

; 500  : 		return UNASSIGNED_PLAYER_ID;

	mov	eax, DWORD PTR ___$ReturnUdt$[ebp]
	mov	ecx, DWORD PTR _UNASSIGNED_PLAYER_ID
	mov	DWORD PTR [eax], ecx
	mov	dx, WORD PTR _UNASSIGNED_PLAYER_ID+4
	mov	WORD PTR [eax+4], dx
	mov	eax, DWORD PTR ___$ReturnUdt$[ebp]
	jmp	SHORT $LN2@GetServerI
$LN1@GetServerI:

; 501  : 		
; 502  : 	return remoteSystemList[ 0 ].playerId;

	mov	eax, 2058				; 0000080aH
	imul	ecx, eax, 0
	mov	edx, DWORD PTR _this$[ebp]
	mov	eax, DWORD PTR [edx-1718]
	lea	ecx, DWORD PTR [eax+ecx+1]
	mov	edx, DWORD PTR ___$ReturnUdt$[ebp]
	mov	eax, DWORD PTR [ecx]
	mov	DWORD PTR [edx], eax
	mov	cx, WORD PTR [ecx+4]
	mov	WORD PTR [edx+4], cx
	mov	eax, DWORD PTR ___$ReturnUdt$[ebp]
$LN2@GetServerI:

; 503  : }

	pop	edi
	pop	esi
	pop	ebx
	mov	esp, ebp
	pop	ebp
	ret	4
?GetServerID@RakClient@@UBE?AUPlayerID@@XZ ENDP		; RakClient::GetServerID
_TEXT	ENDS
; Function compile flags: /Odtp /RTCsu /ZI
; File z:\sampsrc\02xu1\raknet\rakclient.cpp
;	COMDAT ?SendStaticClientDataToServer@RakClient@@UAEXXZ
_TEXT	SEGMENT
_this$ = -8						; size = 4
?SendStaticClientDataToServer@RakClient@@UAEXXZ PROC	; RakClient::SendStaticClientDataToServer, COMDAT
; _this$ = ecx

; 490  : {

	push	ebp
	mov	ebp, esp
	sub	esp, 204				; 000000ccH
	push	ebx
	push	esi
	push	edi
	push	ecx
	lea	edi, DWORD PTR [ebp-204]
	mov	ecx, 51					; 00000033H
	mov	eax, -858993460				; ccccccccH
	rep stosd
	pop	ecx
	mov	DWORD PTR _this$[ebp], ecx

; 491  : 	if ( remoteSystemList == 0 )

	mov	eax, DWORD PTR _this$[ebp]
	cmp	DWORD PTR [eax-1718], 0
	jne	SHORT $LN1@SendStatic

; 492  : 		return ;

	jmp	SHORT $LN2@SendStatic
$LN1@SendStatic:

; 493  : 		
; 494  : 	RakPeer::SendStaticData( remoteSystemList[ 0 ].playerId );

	mov	eax, 2058				; 0000080aH
	imul	ecx, eax, 0
	mov	edx, DWORD PTR _this$[ebp]
	mov	eax, DWORD PTR [edx-1718]
	lea	ecx, DWORD PTR [eax+ecx+1]
	sub	esp, 8
	mov	edx, esp
	mov	eax, DWORD PTR [ecx]
	mov	DWORD PTR [edx], eax
	mov	cx, WORD PTR [ecx+4]
	mov	WORD PTR [edx+4], cx
	mov	ecx, DWORD PTR _this$[ebp]
	sub	ecx, 2538				; 000009eaH
	call	?SendStaticData@RakPeer@@UAEXUPlayerID@@@Z ; RakPeer::SendStaticData
$LN2@SendStatic:

; 495  : }

	pop	edi
	pop	esi
	pop	ebx
	add	esp, 204				; 000000ccH
	cmp	ebp, esp
	call	__RTC_CheckEsp
	mov	esp, ebp
	pop	ebp
	ret	0
?SendStaticClientDataToServer@RakClient@@UAEXXZ ENDP	; RakClient::SendStaticClientDataToServer
_TEXT	ENDS
; Function compile flags: /Odtp /RTCsu /ZI
; File z:\sampsrc\02xu1\raknet\rakclient.cpp
;	COMDAT ?SetStaticClientData@RakClient@@UAEXUPlayerID@@PBDH@Z
_TEXT	SEGMENT
_i$ = -20						; size = 4
_this$ = -8						; size = 4
_playerId$ = 8						; size = 6
_data$ = 16						; size = 4
_length$ = 20						; size = 4
?SetStaticClientData@RakClient@@UAEXUPlayerID@@PBDH@Z PROC ; RakClient::SetStaticClientData, COMDAT
; _this$ = ecx

; 464  : {

	push	ebp
	mov	ebp, esp
	sub	esp, 216				; 000000d8H
	push	ebx
	push	esi
	push	edi
	push	ecx
	lea	edi, DWORD PTR [ebp-216]
	mov	ecx, 54					; 00000036H
	mov	eax, -858993460				; ccccccccH
	rep stosd
	pop	ecx
	mov	DWORD PTR _this$[ebp], ecx

; 465  : 	int i;
; 466  : 	
; 467  : 	if ( playerId == UNASSIGNED_PLAYER_ID )

	push	OFFSET _UNASSIGNED_PLAYER_ID
	lea	ecx, DWORD PTR _playerId$[ebp]
	call	??8PlayerID@@QBE_NABU0@@Z		; PlayerID::operator==
	movzx	eax, al
	test	eax, eax
	je	SHORT $LN4@SetStaticC

; 468  : 	{
; 469  : 		localStaticData.Reset();

	mov	ecx, DWORD PTR _this$[ebp]
	sub	ecx, 2527				; 000009dfH
	call	?Reset@BitStream@RakNet@@QAEXXZ		; RakNet::BitStream::Reset

; 470  : 		localStaticData.Write( data, length );

	mov	eax, DWORD PTR _length$[ebp]
	push	eax
	mov	ecx, DWORD PTR _data$[ebp]
	push	ecx
	mov	ecx, DWORD PTR _this$[ebp]
	sub	ecx, 2527				; 000009dfH
	call	?Write@BitStream@RakNet@@QAEXPBDH@Z	; RakNet::BitStream::Write

; 471  : 	}
; 472  : 	
; 473  : 	else

	jmp	$LN5@SetStaticC
$LN4@SetStaticC:

; 474  : 	{
; 475  : 		i = GetOtherClientIndexByPlayerID( playerId );

	sub	esp, 8
	mov	eax, esp
	mov	ecx, DWORD PTR _playerId$[ebp]
	mov	DWORD PTR [eax], ecx
	mov	dx, WORD PTR _playerId$[ebp+4]
	mov	WORD PTR [eax+4], dx
	mov	ecx, DWORD PTR _this$[ebp]
	sub	ecx, 2538				; 000009eaH
	call	?GetOtherClientIndexByPlayerID@RakClient@@AAEHUPlayerID@@@Z ; RakClient::GetOtherClientIndexByPlayerID
	mov	DWORD PTR _i$[ebp], eax

; 476  : 		
; 477  : 		if ( i >= 0 )

	cmp	DWORD PTR _i$[ebp], 0
	jl	SHORT $LN2@SetStaticC

; 478  : 		{
; 479  : 			otherClients[ i ].staticData.Reset();

	imul	eax, DWORD PTR _i$[ebp], 282
	mov	ecx, DWORD PTR _this$[ebp]
	lea	ecx, DWORD PTR [ecx+eax+285]
	call	?Reset@BitStream@RakNet@@QAEXXZ		; RakNet::BitStream::Reset

; 480  : 			otherClients[ i ].staticData.Write( data, length );

	mov	eax, DWORD PTR _length$[ebp]
	push	eax
	mov	ecx, DWORD PTR _data$[ebp]
	push	ecx
	imul	edx, DWORD PTR _i$[ebp], 282
	mov	eax, DWORD PTR _this$[ebp]
	lea	ecx, DWORD PTR [eax+edx+285]
	call	?Write@BitStream@RakNet@@QAEXPBDH@Z	; RakNet::BitStream::Write

; 481  : 		}
; 482  : 		
; 483  : 		else

	jmp	SHORT $LN5@SetStaticC
$LN2@SetStaticC:

; 484  : 			RakPeer::SetRemoteStaticData( playerId, data, length );

	mov	eax, DWORD PTR _length$[ebp]
	push	eax
	mov	ecx, DWORD PTR _data$[ebp]
	push	ecx
	sub	esp, 8
	mov	edx, esp
	mov	eax, DWORD PTR _playerId$[ebp]
	mov	DWORD PTR [edx], eax
	mov	cx, WORD PTR _playerId$[ebp+4]
	mov	WORD PTR [edx+4], cx
	mov	ecx, DWORD PTR _this$[ebp]
	sub	ecx, 2538				; 000009eaH
	call	?SetRemoteStaticData@RakPeer@@UAEXUPlayerID@@PBDH@Z ; RakPeer::SetRemoteStaticData
$LN5@SetStaticC:

; 485  : 	}
; 486  : 	
; 487  : }

	pop	edi
	pop	esi
	pop	ebx
	add	esp, 216				; 000000d8H
	cmp	ebp, esp
	call	__RTC_CheckEsp
	mov	esp, ebp
	pop	ebp
	ret	16					; 00000010H
?SetStaticClientData@RakClient@@UAEXUPlayerID@@PBDH@Z ENDP ; RakClient::SetStaticClientData
_TEXT	ENDS
; Function compile flags: /Odtp /RTCsu /ZI
; File z:\sampsrc\02xu1\raknet\rakclient.cpp
;	COMDAT ?GetStaticClientData@RakClient@@UAEPAVBitStream@RakNet@@UPlayerID@@@Z
_TEXT	SEGMENT
_i$ = -20						; size = 4
_this$ = -8						; size = 4
_playerId$ = 8						; size = 6
?GetStaticClientData@RakClient@@UAEPAVBitStream@RakNet@@UPlayerID@@@Z PROC ; RakClient::GetStaticClientData, COMDAT
; _this$ = ecx

; 441  : {

	push	ebp
	mov	ebp, esp
	sub	esp, 216				; 000000d8H
	push	ebx
	push	esi
	push	edi
	push	ecx
	lea	edi, DWORD PTR [ebp-216]
	mov	ecx, 54					; 00000036H
	mov	eax, -858993460				; ccccccccH
	rep stosd
	pop	ecx
	mov	DWORD PTR _this$[ebp], ecx

; 442  : 	int i;
; 443  : 	
; 444  : 	if ( playerId == UNASSIGNED_PLAYER_ID )

	push	OFFSET _UNASSIGNED_PLAYER_ID
	lea	ecx, DWORD PTR _playerId$[ebp]
	call	??8PlayerID@@QBE_NABU0@@Z		; PlayerID::operator==
	movzx	eax, al
	test	eax, eax
	je	SHORT $LN3@GetStaticC

; 445  : 	{
; 446  : 		return & localStaticData;

	mov	eax, DWORD PTR _this$[ebp]
	sub	eax, 2527				; 000009dfH
	jmp	SHORT $LN4@GetStaticC

; 447  : 	}
; 448  : 	
; 449  : 	else

	jmp	SHORT $LN2@GetStaticC
$LN3@GetStaticC:

; 450  : 	{
; 451  : 		i = GetOtherClientIndexByPlayerID( playerId );

	sub	esp, 8
	mov	eax, esp
	mov	ecx, DWORD PTR _playerId$[ebp]
	mov	DWORD PTR [eax], ecx
	mov	dx, WORD PTR _playerId$[ebp+4]
	mov	WORD PTR [eax+4], dx
	mov	ecx, DWORD PTR _this$[ebp]
	sub	ecx, 2538				; 000009eaH
	call	?GetOtherClientIndexByPlayerID@RakClient@@AAEHUPlayerID@@@Z ; RakClient::GetOtherClientIndexByPlayerID
	mov	DWORD PTR _i$[ebp], eax

; 452  : 		
; 453  : 		if ( i >= 0 )

	cmp	DWORD PTR _i$[ebp], 0
	jl	SHORT $LN2@GetStaticC

; 454  : 		{
; 455  : 			return & ( otherClients[ i ].staticData );

	imul	eax, DWORD PTR _i$[ebp], 282
	mov	ecx, DWORD PTR _this$[ebp]
	lea	eax, DWORD PTR [ecx+eax+285]
	jmp	SHORT $LN4@GetStaticC
$LN2@GetStaticC:

; 456  : 		}
; 457  : 
; 458  : 	}
; 459  : 	
; 460  : 	return 0;

	xor	eax, eax
$LN4@GetStaticC:

; 461  : }

	pop	edi
	pop	esi
	pop	ebx
	add	esp, 216				; 000000d8H
	cmp	ebp, esp
	call	__RTC_CheckEsp
	mov	esp, ebp
	pop	ebp
	ret	8
?GetStaticClientData@RakClient@@UAEPAVBitStream@RakNet@@UPlayerID@@@Z ENDP ; RakClient::GetStaticClientData
_TEXT	ENDS
; Function compile flags: /Odtp /RTCsu /ZI
; File z:\sampsrc\02xu1\raknet\rakclient.cpp
;	COMDAT ?SetStaticServerData@RakClient@@UAEXPBDH@Z
_TEXT	SEGMENT
_this$ = -8						; size = 4
_data$ = 8						; size = 4
_length$ = 12						; size = 4
?SetStaticServerData@RakClient@@UAEXPBDH@Z PROC		; RakClient::SetStaticServerData, COMDAT
; _this$ = ecx

; 433  : {

	push	ebp
	mov	ebp, esp
	sub	esp, 204				; 000000ccH
	push	ebx
	push	esi
	push	edi
	push	ecx
	lea	edi, DWORD PTR [ebp-204]
	mov	ecx, 51					; 00000033H
	mov	eax, -858993460				; ccccccccH
	rep stosd
	pop	ecx
	mov	DWORD PTR _this$[ebp], ecx

; 434  : 	if ( remoteSystemList == 0 )

	mov	eax, DWORD PTR _this$[ebp]
	cmp	DWORD PTR [eax-1718], 0
	jne	SHORT $LN1@SetStaticS

; 435  : 		return ;

	jmp	SHORT $LN2@SetStaticS
$LN1@SetStaticS:

; 436  : 		
; 437  : 	RakPeer::SetRemoteStaticData( remoteSystemList[ 0 ].playerId, data, length );

	mov	eax, DWORD PTR _length$[ebp]
	push	eax
	mov	ecx, DWORD PTR _data$[ebp]
	push	ecx
	mov	edx, 2058				; 0000080aH
	imul	eax, edx, 0
	mov	ecx, DWORD PTR _this$[ebp]
	mov	edx, DWORD PTR [ecx-1718]
	lea	eax, DWORD PTR [edx+eax+1]
	sub	esp, 8
	mov	ecx, esp
	mov	edx, DWORD PTR [eax]
	mov	DWORD PTR [ecx], edx
	mov	ax, WORD PTR [eax+4]
	mov	WORD PTR [ecx+4], ax
	mov	ecx, DWORD PTR _this$[ebp]
	sub	ecx, 2538				; 000009eaH
	call	?SetRemoteStaticData@RakPeer@@UAEXUPlayerID@@PBDH@Z ; RakPeer::SetRemoteStaticData
$LN2@SetStaticS:

; 438  : }

	pop	edi
	pop	esi
	pop	ebx
	add	esp, 204				; 000000ccH
	cmp	ebp, esp
	call	__RTC_CheckEsp
	mov	esp, ebp
	pop	ebp
	ret	8
?SetStaticServerData@RakClient@@UAEXPBDH@Z ENDP		; RakClient::SetStaticServerData
_TEXT	ENDS
; Function compile flags: /Odtp /RTCsu /ZI
; File z:\sampsrc\02xu1\raknet\rakclient.cpp
;	COMDAT ?GetStaticServerData@RakClient@@UAEPAVBitStream@RakNet@@XZ
_TEXT	SEGMENT
_this$ = -8						; size = 4
?GetStaticServerData@RakClient@@UAEPAVBitStream@RakNet@@XZ PROC ; RakClient::GetStaticServerData, COMDAT
; _this$ = ecx

; 425  : {

	push	ebp
	mov	ebp, esp
	sub	esp, 204				; 000000ccH
	push	ebx
	push	esi
	push	edi
	push	ecx
	lea	edi, DWORD PTR [ebp-204]
	mov	ecx, 51					; 00000033H
	mov	eax, -858993460				; ccccccccH
	rep stosd
	pop	ecx
	mov	DWORD PTR _this$[ebp], ecx

; 426  : 	if ( remoteSystemList == 0 )

	mov	eax, DWORD PTR _this$[ebp]
	cmp	DWORD PTR [eax-1718], 0
	jne	SHORT $LN1@GetStaticS

; 427  : 		return 0;

	xor	eax, eax
	jmp	SHORT $LN2@GetStaticS
$LN1@GetStaticS:

; 428  : 		
; 429  : 	return RakPeer::GetRemoteStaticData( remoteSystemList[ 0 ].playerId );

	mov	eax, 2058				; 0000080aH
	imul	ecx, eax, 0
	mov	edx, DWORD PTR _this$[ebp]
	mov	eax, DWORD PTR [edx-1718]
	lea	ecx, DWORD PTR [eax+ecx+1]
	sub	esp, 8
	mov	edx, esp
	mov	eax, DWORD PTR [ecx]
	mov	DWORD PTR [edx], eax
	mov	cx, WORD PTR [ecx+4]
	mov	WORD PTR [edx+4], cx
	mov	ecx, DWORD PTR _this$[ebp]
	sub	ecx, 2538				; 000009eaH
	call	?GetRemoteStaticData@RakPeer@@UAEPAVBitStream@RakNet@@UPlayerID@@@Z ; RakPeer::GetRemoteStaticData
$LN2@GetStaticS:

; 430  : }

	pop	edi
	pop	esi
	pop	ebx
	add	esp, 204				; 000000ccH
	cmp	ebp, esp
	call	__RTC_CheckEsp
	mov	esp, ebp
	pop	ebp
	ret	0
?GetStaticServerData@RakClient@@UAEPAVBitStream@RakNet@@XZ ENDP ; RakClient::GetStaticServerData
_TEXT	ENDS
; Function compile flags: /Odtp /RTCsu /ZI
; File z:\sampsrc\02xu1\raknet\rakclient.cpp
;	COMDAT ?DetachPlugin@RakClient@@UAEXPAVPluginInterface@@@Z
_TEXT	SEGMENT
_this$ = -8						; size = 4
_messageHandler$ = 8					; size = 4
?DetachPlugin@RakClient@@UAEXPAVPluginInterface@@@Z PROC ; RakClient::DetachPlugin, COMDAT
; _this$ = ecx

; 420  : {

	push	ebp
	mov	ebp, esp
	sub	esp, 204				; 000000ccH
	push	ebx
	push	esi
	push	edi
	push	ecx
	lea	edi, DWORD PTR [ebp-204]
	mov	ecx, 51					; 00000033H
	mov	eax, -858993460				; ccccccccH
	rep stosd
	pop	ecx
	mov	DWORD PTR _this$[ebp], ecx

; 421  : 	RakPeer::DetachPlugin(messageHandler);

	mov	eax, DWORD PTR _messageHandler$[ebp]
	push	eax
	mov	ecx, DWORD PTR _this$[ebp]
	call	?DetachPlugin@RakPeer@@UAEXPAVPluginInterface@@@Z ; RakPeer::DetachPlugin

; 422  : }

	pop	edi
	pop	esi
	pop	ebx
	add	esp, 204				; 000000ccH
	cmp	ebp, esp
	call	__RTC_CheckEsp
	mov	esp, ebp
	pop	ebp
	ret	4
?DetachPlugin@RakClient@@UAEXPAVPluginInterface@@@Z ENDP ; RakClient::DetachPlugin
_TEXT	ENDS
; Function compile flags: /Odtp /RTCsu /ZI
; File z:\sampsrc\02xu1\raknet\rakclient.cpp
;	COMDAT ?AttachPlugin@RakClient@@UAEXPAVPluginInterface@@@Z
_TEXT	SEGMENT
_this$ = -8						; size = 4
_messageHandler$ = 8					; size = 4
?AttachPlugin@RakClient@@UAEXPAVPluginInterface@@@Z PROC ; RakClient::AttachPlugin, COMDAT
; _this$ = ecx

; 415  : {

	push	ebp
	mov	ebp, esp
	sub	esp, 204				; 000000ccH
	push	ebx
	push	esi
	push	edi
	push	ecx
	lea	edi, DWORD PTR [ebp-204]
	mov	ecx, 51					; 00000033H
	mov	eax, -858993460				; ccccccccH
	rep stosd
	pop	ecx
	mov	DWORD PTR _this$[ebp], ecx

; 416  : 	RakPeer::AttachPlugin(messageHandler);

	mov	eax, DWORD PTR _messageHandler$[ebp]
	push	eax
	mov	ecx, DWORD PTR _this$[ebp]
	call	?AttachPlugin@RakPeer@@UAEXPAVPluginInterface@@@Z ; RakPeer::AttachPlugin

; 417  : }

	pop	edi
	pop	esi
	pop	ebx
	add	esp, 204				; 000000ccH
	cmp	ebp, esp
	call	__RTC_CheckEsp
	mov	esp, ebp
	pop	ebp
	ret	4
?AttachPlugin@RakClient@@UAEXPAVPluginInterface@@@Z ENDP ; RakClient::AttachPlugin
_TEXT	ENDS
; Function compile flags: /Odtp /RTCsu /ZI
; File z:\sampsrc\02xu1\raknet\rakclient.cpp
;	COMDAT ?GetDecompressionRatio@RakClient@@UBEMXZ
_TEXT	SEGMENT
_this$ = -8						; size = 4
?GetDecompressionRatio@RakClient@@UBEMXZ PROC		; RakClient::GetDecompressionRatio, COMDAT
; _this$ = ecx

; 410  : {

	push	ebp
	mov	ebp, esp
	sub	esp, 204				; 000000ccH
	push	ebx
	push	esi
	push	edi
	push	ecx
	lea	edi, DWORD PTR [ebp-204]
	mov	ecx, 51					; 00000033H
	mov	eax, -858993460				; ccccccccH
	rep stosd
	pop	ecx
	mov	DWORD PTR _this$[ebp], ecx

; 411  : 	return RakPeer::GetDecompressionRatio();

	mov	ecx, DWORD PTR _this$[ebp]
	call	?GetDecompressionRatio@RakPeer@@UBEMXZ	; RakPeer::GetDecompressionRatio

; 412  : }

	pop	edi
	pop	esi
	pop	ebx
	add	esp, 204				; 000000ccH
	cmp	ebp, esp
	call	__RTC_CheckEsp
	mov	esp, ebp
	pop	ebp
	ret	0
?GetDecompressionRatio@RakClient@@UBEMXZ ENDP		; RakClient::GetDecompressionRatio
_TEXT	ENDS
; Function compile flags: /Odtp /RTCsu /ZI
; File z:\sampsrc\02xu1\raknet\rakclient.cpp
;	COMDAT ?GetCompressionRatio@RakClient@@UBEMXZ
_TEXT	SEGMENT
_this$ = -8						; size = 4
?GetCompressionRatio@RakClient@@UBEMXZ PROC		; RakClient::GetCompressionRatio, COMDAT
; _this$ = ecx

; 405  : {

	push	ebp
	mov	ebp, esp
	sub	esp, 204				; 000000ccH
	push	ebx
	push	esi
	push	edi
	push	ecx
	lea	edi, DWORD PTR [ebp-204]
	mov	ecx, 51					; 00000033H
	mov	eax, -858993460				; ccccccccH
	rep stosd
	pop	ecx
	mov	DWORD PTR _this$[ebp], ecx

; 406  : 	return RakPeer::GetCompressionRatio();

	mov	ecx, DWORD PTR _this$[ebp]
	call	?GetCompressionRatio@RakPeer@@UBEMXZ	; RakPeer::GetCompressionRatio

; 407  : }

	pop	edi
	pop	esi
	pop	ebx
	add	esp, 204				; 000000ccH
	cmp	ebp, esp
	call	__RTC_CheckEsp
	mov	esp, ebp
	pop	ebp
	ret	0
?GetCompressionRatio@RakClient@@UBEMXZ ENDP		; RakClient::GetCompressionRatio
_TEXT	ENDS
; Function compile flags: /Odtp /RTCsu /ZI
; File z:\sampsrc\02xu1\raknet\rakclient.cpp
;	COMDAT ?GetSendFrequencyTable@RakClient@@UAE_NQAI@Z
_TEXT	SEGMENT
_this$ = -8						; size = 4
_outputFrequencyTable$ = 8				; size = 4
?GetSendFrequencyTable@RakClient@@UAE_NQAI@Z PROC	; RakClient::GetSendFrequencyTable, COMDAT
; _this$ = ecx

; 400  : {

	push	ebp
	mov	ebp, esp
	sub	esp, 204				; 000000ccH
	push	ebx
	push	esi
	push	edi
	push	ecx
	lea	edi, DWORD PTR [ebp-204]
	mov	ecx, 51					; 00000033H
	mov	eax, -858993460				; ccccccccH
	rep stosd
	pop	ecx
	mov	DWORD PTR _this$[ebp], ecx

; 401  : 	return RakPeer::GetOutgoingFrequencyTable( outputFrequencyTable );

	mov	eax, DWORD PTR _outputFrequencyTable$[ebp]
	push	eax
	mov	ecx, DWORD PTR _this$[ebp]
	sub	ecx, 2538				; 000009eaH
	call	?GetOutgoingFrequencyTable@RakPeer@@UAE_NQAI@Z ; RakPeer::GetOutgoingFrequencyTable

; 402  : }

	pop	edi
	pop	esi
	pop	ebx
	add	esp, 204				; 000000ccH
	cmp	ebp, esp
	call	__RTC_CheckEsp
	mov	esp, ebp
	pop	ebp
	ret	4
?GetSendFrequencyTable@RakClient@@UAE_NQAI@Z ENDP	; RakClient::GetSendFrequencyTable
_TEXT	ENDS
; Function compile flags: /Odtp /RTCsu /ZI
; File z:\sampsrc\02xu1\raknet\rakclient.cpp
;	COMDAT ?SetTrackFrequencyTable@RakClient@@UAEX_N@Z
_TEXT	SEGMENT
_this$ = -8						; size = 4
_b$ = 8							; size = 1
?SetTrackFrequencyTable@RakClient@@UAEX_N@Z PROC	; RakClient::SetTrackFrequencyTable, COMDAT
; _this$ = ecx

; 395  : {

	push	ebp
	mov	ebp, esp
	sub	esp, 204				; 000000ccH
	push	ebx
	push	esi
	push	edi
	push	ecx
	lea	edi, DWORD PTR [ebp-204]
	mov	ecx, 51					; 00000033H
	mov	eax, -858993460				; ccccccccH
	rep stosd
	pop	ecx
	mov	DWORD PTR _this$[ebp], ecx

; 396  : 	RakPeer::SetCompileFrequencyTable( b );

	movzx	eax, BYTE PTR _b$[ebp]
	push	eax
	mov	ecx, DWORD PTR _this$[ebp]
	sub	ecx, 2538				; 000009eaH
	call	?SetCompileFrequencyTable@RakPeer@@UAEX_N@Z ; RakPeer::SetCompileFrequencyTable

; 397  : }

	pop	edi
	pop	esi
	pop	ebx
	add	esp, 204				; 000000ccH
	cmp	ebp, esp
	call	__RTC_CheckEsp
	mov	esp, ebp
	pop	ebp
	ret	4
?SetTrackFrequencyTable@RakClient@@UAEX_N@Z ENDP	; RakClient::SetTrackFrequencyTable
_TEXT	ENDS
; Function compile flags: /Odtp /RTCsu /ZI
; File z:\sampsrc\02xu1\raknet\rakclient.cpp
;	COMDAT ?RPC@RakClient@@UAE_NPADPAVBitStream@RakNet@@W4PacketPriority@@W4PacketReliability@@D_N@Z
_TEXT	SEGMENT
_this$ = -8						; size = 4
_uniqueID$ = 8						; size = 4
_parameters$ = 12					; size = 4
_priority$ = 16						; size = 4
_reliability$ = 20					; size = 4
_orderingChannel$ = 24					; size = 1
_shiftTimestamp$ = 28					; size = 1
?RPC@RakClient@@UAE_NPADPAVBitStream@RakNet@@W4PacketPriority@@W4PacketReliability@@D_N@Z PROC ; RakClient::RPC, COMDAT
; _this$ = ecx

; 386  : {

	push	ebp
	mov	ebp, esp
	sub	esp, 204				; 000000ccH
	push	ebx
	push	esi
	push	edi
	push	ecx
	lea	edi, DWORD PTR [ebp-204]
	mov	ecx, 51					; 00000033H
	mov	eax, -858993460				; ccccccccH
	rep stosd
	pop	ecx
	mov	DWORD PTR _this$[ebp], ecx

; 387  : 	if ( remoteSystemList == 0 )

	mov	eax, DWORD PTR _this$[ebp]
	cmp	DWORD PTR [eax-1718], 0
	jne	SHORT $LN1@RPC

; 388  : 		return false;

	xor	al, al
	jmp	SHORT $LN2@RPC
$LN1@RPC:

; 389  : 		
; 390  : 	return RakPeer::RPC( uniqueID, parameters, priority, reliability, orderingChannel, remoteSystemList[ 0 ].playerId, false, shiftTimestamp, UNASSIGNED_NETWORK_ID, 0 );

	push	0
	mov	eax, DWORD PTR _UNASSIGNED_NETWORK_ID+4
	push	eax
	mov	ecx, DWORD PTR _UNASSIGNED_NETWORK_ID
	push	ecx
	movzx	edx, BYTE PTR _shiftTimestamp$[ebp]
	push	edx
	push	0
	mov	eax, 2058				; 0000080aH
	imul	ecx, eax, 0
	mov	edx, DWORD PTR _this$[ebp]
	mov	eax, DWORD PTR [edx-1718]
	lea	ecx, DWORD PTR [eax+ecx+1]
	sub	esp, 8
	mov	edx, esp
	mov	eax, DWORD PTR [ecx]
	mov	DWORD PTR [edx], eax
	mov	cx, WORD PTR [ecx+4]
	mov	WORD PTR [edx+4], cx
	movzx	edx, BYTE PTR _orderingChannel$[ebp]
	push	edx
	mov	eax, DWORD PTR _reliability$[ebp]
	push	eax
	mov	ecx, DWORD PTR _priority$[ebp]
	push	ecx
	mov	edx, DWORD PTR _parameters$[ebp]
	push	edx
	mov	eax, DWORD PTR _uniqueID$[ebp]
	push	eax
	mov	ecx, DWORD PTR _this$[ebp]
	sub	ecx, 2538				; 000009eaH
	call	?RPC@RakPeer@@UAE_NPADPAVBitStream@RakNet@@W4PacketPriority@@W4PacketReliability@@DUPlayerID@@_N5UNetworkID@@1@Z ; RakPeer::RPC
$LN2@RPC:

; 391  : }

	pop	edi
	pop	esi
	pop	ebx
	add	esp, 204				; 000000ccH
	cmp	ebp, esp
	call	__RTC_CheckEsp
	mov	esp, ebp
	pop	ebp
	ret	24					; 00000018H
?RPC@RakClient@@UAE_NPADPAVBitStream@RakNet@@W4PacketPriority@@W4PacketReliability@@D_N@Z ENDP ; RakClient::RPC
_TEXT	ENDS
; Function compile flags: /Odtp /RTCsu /ZI
; File z:\sampsrc\02xu1\raknet\rakclient.cpp
;	COMDAT ?RPC@RakClient@@UAE_NPADPAVBitStream@RakNet@@W4PacketPriority@@W4PacketReliability@@D_NUNetworkID@@1@Z
_TEXT	SEGMENT
_this$ = -8						; size = 4
_uniqueID$ = 8						; size = 4
_parameters$ = 12					; size = 4
_priority$ = 16						; size = 4
_reliability$ = 20					; size = 4
_orderingChannel$ = 24					; size = 1
_shiftTimestamp$ = 28					; size = 1
_networkID$ = 32					; size = 8
_replyFromTarget$ = 40					; size = 4
?RPC@RakClient@@UAE_NPADPAVBitStream@RakNet@@W4PacketPriority@@W4PacketReliability@@D_NUNetworkID@@1@Z PROC ; RakClient::RPC, COMDAT
; _this$ = ecx

; 377  : {

	push	ebp
	mov	ebp, esp
	sub	esp, 204				; 000000ccH
	push	ebx
	push	esi
	push	edi
	push	ecx
	lea	edi, DWORD PTR [ebp-204]
	mov	ecx, 51					; 00000033H
	mov	eax, -858993460				; ccccccccH
	rep stosd
	pop	ecx
	mov	DWORD PTR _this$[ebp], ecx

; 378  : 	if ( remoteSystemList == 0 )

	mov	eax, DWORD PTR _this$[ebp]
	cmp	DWORD PTR [eax-1718], 0
	jne	SHORT $LN1@RPC

; 379  : 		return false;

	xor	al, al
	jmp	SHORT $LN2@RPC
$LN1@RPC:

; 380  : 		
; 381  : 	return RakPeer::RPC( uniqueID, parameters, priority, reliability, orderingChannel, remoteSystemList[ 0 ].playerId, false, shiftTimestamp, networkID, replyFromTarget );

	mov	eax, DWORD PTR _replyFromTarget$[ebp]
	push	eax
	mov	ecx, DWORD PTR _networkID$[ebp+4]
	push	ecx
	mov	edx, DWORD PTR _networkID$[ebp]
	push	edx
	movzx	eax, BYTE PTR _shiftTimestamp$[ebp]
	push	eax
	push	0
	mov	ecx, 2058				; 0000080aH
	imul	edx, ecx, 0
	mov	eax, DWORD PTR _this$[ebp]
	mov	ecx, DWORD PTR [eax-1718]
	lea	edx, DWORD PTR [ecx+edx+1]
	sub	esp, 8
	mov	eax, esp
	mov	ecx, DWORD PTR [edx]
	mov	DWORD PTR [eax], ecx
	mov	dx, WORD PTR [edx+4]
	mov	WORD PTR [eax+4], dx
	movzx	eax, BYTE PTR _orderingChannel$[ebp]
	push	eax
	mov	ecx, DWORD PTR _reliability$[ebp]
	push	ecx
	mov	edx, DWORD PTR _priority$[ebp]
	push	edx
	mov	eax, DWORD PTR _parameters$[ebp]
	push	eax
	mov	ecx, DWORD PTR _uniqueID$[ebp]
	push	ecx
	mov	ecx, DWORD PTR _this$[ebp]
	sub	ecx, 2538				; 000009eaH
	call	?RPC@RakPeer@@UAE_NPADPAVBitStream@RakNet@@W4PacketPriority@@W4PacketReliability@@DUPlayerID@@_N5UNetworkID@@1@Z ; RakPeer::RPC
$LN2@RPC:

; 382  : }

	pop	edi
	pop	esi
	pop	ebx
	add	esp, 204				; 000000ccH
	cmp	ebp, esp
	call	__RTC_CheckEsp
	mov	esp, ebp
	pop	ebp
	ret	36					; 00000024H
?RPC@RakClient@@UAE_NPADPAVBitStream@RakNet@@W4PacketPriority@@W4PacketReliability@@D_NUNetworkID@@1@Z ENDP ; RakClient::RPC
_TEXT	ENDS
; Function compile flags: /Odtp /RTCsu /ZI
; File z:\sampsrc\02xu1\raknet\rakclient.cpp
;	COMDAT ?RPC@RakClient@@UAE_NPADPBDIW4PacketPriority@@W4PacketReliability@@D_NUNetworkID@@PAVBitStream@RakNet@@@Z
_TEXT	SEGMENT
_this$ = -8						; size = 4
_uniqueID$ = 8						; size = 4
_data$ = 12						; size = 4
_bitLength$ = 16					; size = 4
_priority$ = 20						; size = 4
_reliability$ = 24					; size = 4
_orderingChannel$ = 28					; size = 1
_shiftTimestamp$ = 32					; size = 1
_networkID$ = 36					; size = 8
_replyFromTarget$ = 44					; size = 4
?RPC@RakClient@@UAE_NPADPBDIW4PacketPriority@@W4PacketReliability@@D_NUNetworkID@@PAVBitStream@RakNet@@@Z PROC ; RakClient::RPC, COMDAT
; _this$ = ecx

; 369  : {

	push	ebp
	mov	ebp, esp
	sub	esp, 204				; 000000ccH
	push	ebx
	push	esi
	push	edi
	push	ecx
	lea	edi, DWORD PTR [ebp-204]
	mov	ecx, 51					; 00000033H
	mov	eax, -858993460				; ccccccccH
	rep stosd
	pop	ecx
	mov	DWORD PTR _this$[ebp], ecx

; 370  : 	if ( remoteSystemList == 0 )

	mov	eax, DWORD PTR _this$[ebp]
	cmp	DWORD PTR [eax-1718], 0
	jne	SHORT $LN1@RPC

; 371  : 		return false;

	xor	al, al
	jmp	SHORT $LN2@RPC
$LN1@RPC:

; 372  : 		
; 373  : 	return RakPeer::RPC( uniqueID, data, bitLength, priority, reliability, orderingChannel, remoteSystemList[ 0 ].playerId, false, shiftTimestamp, networkID, replyFromTarget );

	mov	eax, DWORD PTR _replyFromTarget$[ebp]
	push	eax
	mov	ecx, DWORD PTR _networkID$[ebp+4]
	push	ecx
	mov	edx, DWORD PTR _networkID$[ebp]
	push	edx
	movzx	eax, BYTE PTR _shiftTimestamp$[ebp]
	push	eax
	push	0
	mov	ecx, 2058				; 0000080aH
	imul	edx, ecx, 0
	mov	eax, DWORD PTR _this$[ebp]
	mov	ecx, DWORD PTR [eax-1718]
	lea	edx, DWORD PTR [ecx+edx+1]
	sub	esp, 8
	mov	eax, esp
	mov	ecx, DWORD PTR [edx]
	mov	DWORD PTR [eax], ecx
	mov	dx, WORD PTR [edx+4]
	mov	WORD PTR [eax+4], dx
	movzx	eax, BYTE PTR _orderingChannel$[ebp]
	push	eax
	mov	ecx, DWORD PTR _reliability$[ebp]
	push	ecx
	mov	edx, DWORD PTR _priority$[ebp]
	push	edx
	mov	eax, DWORD PTR _bitLength$[ebp]
	push	eax
	mov	ecx, DWORD PTR _data$[ebp]
	push	ecx
	mov	edx, DWORD PTR _uniqueID$[ebp]
	push	edx
	mov	ecx, DWORD PTR _this$[ebp]
	sub	ecx, 2538				; 000009eaH
	call	?RPC@RakPeer@@UAE_NPADPBDIW4PacketPriority@@W4PacketReliability@@DUPlayerID@@_N5UNetworkID@@PAVBitStream@RakNet@@@Z ; RakPeer::RPC
$LN2@RPC:

; 374  : }

	pop	edi
	pop	esi
	pop	ebx
	add	esp, 204				; 000000ccH
	cmp	ebp, esp
	call	__RTC_CheckEsp
	mov	esp, ebp
	pop	ebp
	ret	40					; 00000028H
?RPC@RakClient@@UAE_NPADPBDIW4PacketPriority@@W4PacketReliability@@D_NUNetworkID@@PAVBitStream@RakNet@@@Z ENDP ; RakClient::RPC
_TEXT	ENDS
; Function compile flags: /Odtp /RTCsu /ZI
; File z:\sampsrc\02xu1\raknet\rakclient.cpp
;	COMDAT ?UnregisterAsRemoteProcedureCall@RakClient@@UAEXPAD@Z
_TEXT	SEGMENT
_this$ = -8						; size = 4
_uniqueID$ = 8						; size = 4
?UnregisterAsRemoteProcedureCall@RakClient@@UAEXPAD@Z PROC ; RakClient::UnregisterAsRemoteProcedureCall, COMDAT
; _this$ = ecx

; 364  : {

	push	ebp
	mov	ebp, esp
	sub	esp, 204				; 000000ccH
	push	ebx
	push	esi
	push	edi
	push	ecx
	lea	edi, DWORD PTR [ebp-204]
	mov	ecx, 51					; 00000033H
	mov	eax, -858993460				; ccccccccH
	rep stosd
	pop	ecx
	mov	DWORD PTR _this$[ebp], ecx

; 365  : 	RakPeer::UnregisterAsRemoteProcedureCall( uniqueID );

	mov	eax, DWORD PTR _uniqueID$[ebp]
	push	eax
	mov	ecx, DWORD PTR _this$[ebp]
	call	?UnregisterAsRemoteProcedureCall@RakPeer@@UAEXPAD@Z ; RakPeer::UnregisterAsRemoteProcedureCall

; 366  : }

	pop	edi
	pop	esi
	pop	ebx
	add	esp, 204				; 000000ccH
	cmp	ebp, esp
	call	__RTC_CheckEsp
	mov	esp, ebp
	pop	ebp
	ret	4
?UnregisterAsRemoteProcedureCall@RakClient@@UAEXPAD@Z ENDP ; RakClient::UnregisterAsRemoteProcedureCall
_TEXT	ENDS
; Function compile flags: /Odtp /RTCsu /ZI
; File z:\sampsrc\02xu1\raknet\rakclient.cpp
;	COMDAT ?RegisterClassMemberRPC@RakClient@@UAEXPADPAX@Z
_TEXT	SEGMENT
_this$ = -8						; size = 4
_uniqueID$ = 8						; size = 4
_functionPointer$ = 12					; size = 4
?RegisterClassMemberRPC@RakClient@@UAEXPADPAX@Z PROC	; RakClient::RegisterClassMemberRPC, COMDAT
; _this$ = ecx

; 359  : {

	push	ebp
	mov	ebp, esp
	sub	esp, 204				; 000000ccH
	push	ebx
	push	esi
	push	edi
	push	ecx
	lea	edi, DWORD PTR [ebp-204]
	mov	ecx, 51					; 00000033H
	mov	eax, -858993460				; ccccccccH
	rep stosd
	pop	ecx
	mov	DWORD PTR _this$[ebp], ecx

; 360  : 	RakPeer::RegisterClassMemberRPC( uniqueID, functionPointer );

	mov	eax, DWORD PTR _functionPointer$[ebp]
	push	eax
	mov	ecx, DWORD PTR _uniqueID$[ebp]
	push	ecx
	mov	ecx, DWORD PTR _this$[ebp]
	call	?RegisterClassMemberRPC@RakPeer@@UAEXPADPAX@Z ; RakPeer::RegisterClassMemberRPC

; 361  : }

	pop	edi
	pop	esi
	pop	ebx
	add	esp, 204				; 000000ccH
	cmp	ebp, esp
	call	__RTC_CheckEsp
	mov	esp, ebp
	pop	ebp
	ret	8
?RegisterClassMemberRPC@RakClient@@UAEXPADPAX@Z ENDP	; RakClient::RegisterClassMemberRPC
_TEXT	ENDS
; Function compile flags: /Odtp /RTCsu /ZI
; File z:\sampsrc\02xu1\raknet\rakclient.cpp
;	COMDAT ?RegisterAsRemoteProcedureCall@RakClient@@UAEXPADP6AXPAURPCParameters@@@Z@Z
_TEXT	SEGMENT
_this$ = -8						; size = 4
_uniqueID$ = 8						; size = 4
_functionPointer$ = 12					; size = 4
?RegisterAsRemoteProcedureCall@RakClient@@UAEXPADP6AXPAURPCParameters@@@Z@Z PROC ; RakClient::RegisterAsRemoteProcedureCall, COMDAT
; _this$ = ecx

; 354  : {

	push	ebp
	mov	ebp, esp
	sub	esp, 204				; 000000ccH
	push	ebx
	push	esi
	push	edi
	push	ecx
	lea	edi, DWORD PTR [ebp-204]
	mov	ecx, 51					; 00000033H
	mov	eax, -858993460				; ccccccccH
	rep stosd
	pop	ecx
	mov	DWORD PTR _this$[ebp], ecx

; 355  : 	RakPeer::RegisterAsRemoteProcedureCall( uniqueID, functionPointer );

	mov	eax, DWORD PTR _functionPointer$[ebp]
	push	eax
	mov	ecx, DWORD PTR _uniqueID$[ebp]
	push	ecx
	mov	ecx, DWORD PTR _this$[ebp]
	call	?RegisterAsRemoteProcedureCall@RakPeer@@UAEXPADP6AXPAURPCParameters@@@Z@Z ; RakPeer::RegisterAsRemoteProcedureCall

; 356  : }

	pop	edi
	pop	esi
	pop	ebx
	add	esp, 204				; 000000ccH
	cmp	ebp, esp
	call	__RTC_CheckEsp
	mov	esp, ebp
	pop	ebp
	ret	8
?RegisterAsRemoteProcedureCall@RakClient@@UAEXPADP6AXPAURPCParameters@@@Z@Z ENDP ; RakClient::RegisterAsRemoteProcedureCall
_TEXT	ENDS
; Function compile flags: /Odtp /RTCsu /ZI
; File z:\sampsrc\02xu1\raknet\rakclient.cpp
;	COMDAT ?DeleteCompressionLayer@RakClient@@UAE_N_N@Z
_TEXT	SEGMENT
_this$ = -8						; size = 4
_inputLayer$ = 8					; size = 1
?DeleteCompressionLayer@RakClient@@UAE_N_N@Z PROC	; RakClient::DeleteCompressionLayer, COMDAT
; _this$ = ecx

; 349  : {

	push	ebp
	mov	ebp, esp
	sub	esp, 204				; 000000ccH
	push	ebx
	push	esi
	push	edi
	push	ecx
	lea	edi, DWORD PTR [ebp-204]
	mov	ecx, 51					; 00000033H
	mov	eax, -858993460				; ccccccccH
	rep stosd
	pop	ecx
	mov	DWORD PTR _this$[ebp], ecx

; 350  : 	return RakPeer::DeleteCompressionLayer( inputLayer );

	movzx	eax, BYTE PTR _inputLayer$[ebp]
	push	eax
	mov	ecx, DWORD PTR _this$[ebp]
	call	?DeleteCompressionLayer@RakPeer@@UAE_N_N@Z ; RakPeer::DeleteCompressionLayer

; 351  : }

	pop	edi
	pop	esi
	pop	ebx
	add	esp, 204				; 000000ccH
	cmp	ebp, esp
	call	__RTC_CheckEsp
	mov	esp, ebp
	pop	ebp
	ret	4
?DeleteCompressionLayer@RakClient@@UAE_N_N@Z ENDP	; RakClient::DeleteCompressionLayer
_TEXT	ENDS
; Function compile flags: /Odtp /RTCsu /ZI
; File z:\sampsrc\02xu1\raknet\rakclient.cpp
;	COMDAT ?GenerateCompressionLayer@RakClient@@UAE_NQAI_N@Z
_TEXT	SEGMENT
_this$ = -8						; size = 4
_inputFrequencyTable$ = 8				; size = 4
_inputLayer$ = 12					; size = 1
?GenerateCompressionLayer@RakClient@@UAE_NQAI_N@Z PROC	; RakClient::GenerateCompressionLayer, COMDAT
; _this$ = ecx

; 344  : {

	push	ebp
	mov	ebp, esp
	sub	esp, 204				; 000000ccH
	push	ebx
	push	esi
	push	edi
	push	ecx
	lea	edi, DWORD PTR [ebp-204]
	mov	ecx, 51					; 00000033H
	mov	eax, -858993460				; ccccccccH
	rep stosd
	pop	ecx
	mov	DWORD PTR _this$[ebp], ecx

; 345  : 	return RakPeer::GenerateCompressionLayer( inputFrequencyTable, inputLayer );

	movzx	eax, BYTE PTR _inputLayer$[ebp]
	push	eax
	mov	ecx, DWORD PTR _inputFrequencyTable$[ebp]
	push	ecx
	mov	ecx, DWORD PTR _this$[ebp]
	call	?GenerateCompressionLayer@RakPeer@@UAE_NQAI_N@Z ; RakPeer::GenerateCompressionLayer

; 346  : }

	pop	edi
	pop	esi
	pop	ebx
	add	esp, 204				; 000000ccH
	cmp	ebp, esp
	call	__RTC_CheckEsp
	mov	esp, ebp
	pop	ebp
	ret	8
?GenerateCompressionLayer@RakClient@@UAE_NQAI_N@Z ENDP	; RakClient::GenerateCompressionLayer
_TEXT	ENDS
; Function compile flags: /Odtp /RTCsu /ZI
; File z:\sampsrc\02xu1\raknet\rakclient.cpp
;	COMDAT ?GetSynchronizedRandomInteger@RakClient@@UBEIXZ
_TEXT	SEGMENT
_this$ = -8						; size = 4
?GetSynchronizedRandomInteger@RakClient@@UBEIXZ PROC	; RakClient::GetSynchronizedRandomInteger, COMDAT
; _this$ = ecx

; 336  : {

	push	ebp
	mov	ebp, esp
	sub	esp, 204				; 000000ccH
	push	ebx
	push	esi
	push	edi
	push	ecx
	lea	edi, DWORD PTR [ebp-204]
	mov	ecx, 51					; 00000033H
	mov	eax, -858993460				; ccccccccH
	rep stosd
	pop	ecx
	mov	DWORD PTR _this$[ebp], ecx

; 337  : 	if ( RakNet::GetTime() > nextSeedUpdate )

	call	?GetTime@RakNet@@YAIXZ			; RakNet::GetTime
	mov	ecx, DWORD PTR _this$[ebp]
	cmp	eax, DWORD PTR [ecx+9309]
	jbe	SHORT $LN2@GetSynchro

; 338  : 		return nextSeed;

	mov	eax, DWORD PTR _this$[ebp]
	mov	eax, DWORD PTR [eax+9305]
	jmp	SHORT $LN3@GetSynchro

; 339  : 	else

	jmp	SHORT $LN3@GetSynchro
$LN2@GetSynchro:

; 340  : 		return seed;

	mov	eax, DWORD PTR _this$[ebp]
	mov	eax, DWORD PTR [eax+9301]
$LN3@GetSynchro:

; 341  : }

	pop	edi
	pop	esi
	pop	ebx
	add	esp, 204				; 000000ccH
	cmp	ebp, esp
	call	__RTC_CheckEsp
	mov	esp, ebp
	pop	ebp
	ret	0
?GetSynchronizedRandomInteger@RakClient@@UBEIXZ ENDP	; RakClient::GetSynchronizedRandomInteger
_TEXT	ENDS
; Function compile flags: /Odtp /RTCsu /ZI
; File z:\sampsrc\02xu1\raknet\rakclient.cpp
;	COMDAT ?IsConnected@RakClient@@UBE_NXZ
_TEXT	SEGMENT
tv74 = -220						; size = 4
_numberOfSystems$ = -20					; size = 2
_this$ = -8						; size = 4
?IsConnected@RakClient@@UBE_NXZ PROC			; RakClient::IsConnected, COMDAT
; _this$ = ecx

; 328  : {

	push	ebp
	mov	ebp, esp
	sub	esp, 220				; 000000dcH
	push	ebx
	push	esi
	push	edi
	push	ecx
	lea	edi, DWORD PTR [ebp-220]
	mov	ecx, 55					; 00000037H
	mov	eax, -858993460				; ccccccccH
	rep stosd
	pop	ecx
	mov	DWORD PTR _this$[ebp], ecx

; 329  : 	unsigned short numberOfSystems;
; 330  : 	
; 331  : 	RakPeer::GetConnectionList( 0, &numberOfSystems );

	lea	eax, DWORD PTR _numberOfSystems$[ebp]
	push	eax
	push	0
	mov	ecx, DWORD PTR _this$[ebp]
	sub	ecx, 2538				; 000009eaH
	call	?GetConnectionList@RakPeer@@UBE_NPAUPlayerID@@PAG@Z ; RakPeer::GetConnectionList

; 332  : 	return numberOfSystems == 1;

	movzx	eax, WORD PTR _numberOfSystems$[ebp]
	cmp	eax, 1
	jne	SHORT $LN3@IsConnecte
	mov	DWORD PTR tv74[ebp], 1
	jmp	SHORT $LN4@IsConnecte
$LN3@IsConnecte:
	mov	DWORD PTR tv74[ebp], 0
$LN4@IsConnecte:
	mov	al, BYTE PTR tv74[ebp]

; 333  : }

	push	edx
	mov	ecx, ebp
	push	eax
	lea	edx, DWORD PTR $LN7@IsConnecte
	call	@_RTC_CheckStackVars@8
	pop	eax
	pop	edx
	pop	edi
	pop	esi
	pop	ebx
	add	esp, 220				; 000000dcH
	cmp	ebp, esp
	call	__RTC_CheckEsp
	mov	esp, ebp
	pop	ebp
	ret	0
	npad	3
$LN7@IsConnecte:
	DD	1
	DD	$LN6@IsConnecte
$LN6@IsConnecte:
	DD	-20					; ffffffecH
	DD	2
	DD	$LN5@IsConnecte
$LN5@IsConnecte:
	DB	110					; 0000006eH
	DB	117					; 00000075H
	DB	109					; 0000006dH
	DB	98					; 00000062H
	DB	101					; 00000065H
	DB	114					; 00000072H
	DB	79					; 0000004fH
	DB	102					; 00000066H
	DB	83					; 00000053H
	DB	121					; 00000079H
	DB	115					; 00000073H
	DB	116					; 00000074H
	DB	101					; 00000065H
	DB	109					; 0000006dH
	DB	115					; 00000073H
	DB	0
?IsConnected@RakClient@@UBE_NXZ ENDP			; RakClient::IsConnected
_TEXT	ENDS
; Function compile flags: /Odtp /RTCsu /ZI
; File z:\sampsrc\02xu1\raknet\rakclient.cpp
;	COMDAT ?StopOccasionalPing@RakClient@@UAEXXZ
_TEXT	SEGMENT
_this$ = -8						; size = 4
?StopOccasionalPing@RakClient@@UAEXXZ PROC		; RakClient::StopOccasionalPing, COMDAT
; _this$ = ecx

; 323  : {

	push	ebp
	mov	ebp, esp
	sub	esp, 204				; 000000ccH
	push	ebx
	push	esi
	push	edi
	push	ecx
	lea	edi, DWORD PTR [ebp-204]
	mov	ecx, 51					; 00000033H
	mov	eax, -858993460				; ccccccccH
	rep stosd
	pop	ecx
	mov	DWORD PTR _this$[ebp], ecx

; 324  : 	RakPeer::SetOccasionalPing( false );

	push	0
	mov	ecx, DWORD PTR _this$[ebp]
	sub	ecx, 2538				; 000009eaH
	call	?SetOccasionalPing@RakPeer@@UAEX_N@Z	; RakPeer::SetOccasionalPing

; 325  : }

	pop	edi
	pop	esi
	pop	ebx
	add	esp, 204				; 000000ccH
	cmp	ebp, esp
	call	__RTC_CheckEsp
	mov	esp, ebp
	pop	ebp
	ret	0
?StopOccasionalPing@RakClient@@UAEXXZ ENDP		; RakClient::StopOccasionalPing
_TEXT	ENDS
; Function compile flags: /Odtp /RTCsu /ZI
; File z:\sampsrc\02xu1\raknet\rakclient.cpp
;	COMDAT ?StartOccasionalPing@RakClient@@UAEXXZ
_TEXT	SEGMENT
_this$ = -8						; size = 4
?StartOccasionalPing@RakClient@@UAEXXZ PROC		; RakClient::StartOccasionalPing, COMDAT
; _this$ = ecx

; 318  : {

	push	ebp
	mov	ebp, esp
	sub	esp, 204				; 000000ccH
	push	ebx
	push	esi
	push	edi
	push	ecx
	lea	edi, DWORD PTR [ebp-204]
	mov	ecx, 51					; 00000033H
	mov	eax, -858993460				; ccccccccH
	rep stosd
	pop	ecx
	mov	DWORD PTR _this$[ebp], ecx

; 319  : 	RakPeer::SetOccasionalPing( true );

	push	1
	mov	ecx, DWORD PTR _this$[ebp]
	sub	ecx, 2538				; 000009eaH
	call	?SetOccasionalPing@RakPeer@@UAEX_N@Z	; RakPeer::SetOccasionalPing

; 320  : }

	pop	edi
	pop	esi
	pop	ebx
	add	esp, 204				; 000000ccH
	cmp	ebp, esp
	call	__RTC_CheckEsp
	mov	esp, ebp
	pop	ebp
	ret	0
?StartOccasionalPing@RakClient@@UAEXXZ ENDP		; RakClient::StartOccasionalPing
_TEXT	ENDS
; Function compile flags: /Odtp /RTCsu /ZI
; File z:\sampsrc\02xu1\raknet\rakclient.cpp
;	COMDAT ?GetPlayerPing@RakClient@@UAEHUPlayerID@@@Z
_TEXT	SEGMENT
_i$ = -20						; size = 4
_this$ = -8						; size = 4
_playerId$ = 8						; size = 6
?GetPlayerPing@RakClient@@UAEHUPlayerID@@@Z PROC	; RakClient::GetPlayerPing, COMDAT
; _this$ = ecx

; 307  : {

	push	ebp
	mov	ebp, esp
	sub	esp, 216				; 000000d8H
	push	ebx
	push	esi
	push	edi
	push	ecx
	lea	edi, DWORD PTR [ebp-216]
	mov	ecx, 54					; 00000036H
	mov	eax, -858993460				; ccccccccH
	rep stosd
	pop	ecx
	mov	DWORD PTR _this$[ebp], ecx

; 308  : 	int i;
; 309  : 	
; 310  : 	for ( i = 0; i < 32; i++ )

	mov	DWORD PTR _i$[ebp], 0
	jmp	SHORT $LN4@GetPlayerP
$LN3@GetPlayerP:
	mov	eax, DWORD PTR _i$[ebp]
	add	eax, 1
	mov	DWORD PTR _i$[ebp], eax
$LN4@GetPlayerP:
	cmp	DWORD PTR _i$[ebp], 32			; 00000020H
	jge	SHORT $LN2@GetPlayerP

; 311  : 		if ( otherClients[ i ].playerId == playerId )

	lea	eax, DWORD PTR _playerId$[ebp]
	push	eax
	imul	ecx, DWORD PTR _i$[ebp], 282
	mov	edx, DWORD PTR _this$[ebp]
	lea	ecx, DWORD PTR [edx+ecx+277]
	call	??8PlayerID@@QBE_NABU0@@Z		; PlayerID::operator==
	movzx	eax, al
	test	eax, eax
	je	SHORT $LN1@GetPlayerP

; 312  : 			return otherClients[ i ].ping;

	imul	eax, DWORD PTR _i$[ebp], 282
	mov	ecx, DWORD PTR _this$[ebp]
	movsx	eax, WORD PTR [ecx+eax+283]
	jmp	SHORT $LN5@GetPlayerP
$LN1@GetPlayerP:

; 313  : 			
; 314  : 	return -1;

	jmp	SHORT $LN3@GetPlayerP
$LN2@GetPlayerP:
	or	eax, -1
$LN5@GetPlayerP:

; 315  : }

	pop	edi
	pop	esi
	pop	ebx
	add	esp, 216				; 000000d8H
	cmp	ebp, esp
	call	__RTC_CheckEsp
	mov	esp, ebp
	pop	ebp
	ret	8
?GetPlayerPing@RakClient@@UAEHUPlayerID@@@Z ENDP	; RakClient::GetPlayerPing
_TEXT	ENDS
; Function compile flags: /Odtp /RTCsu /ZI
; File z:\sampsrc\02xu1\raknet\rakclient.cpp
;	COMDAT ?GetLowestPing@RakClient@@UBEHXZ
_TEXT	SEGMENT
_this$ = -8						; size = 4
?GetLowestPing@RakClient@@UBEHXZ PROC			; RakClient::GetLowestPing, COMDAT
; _this$ = ecx

; 299  : {

	push	ebp
	mov	ebp, esp
	sub	esp, 204				; 000000ccH
	push	ebx
	push	esi
	push	edi
	push	ecx
	lea	edi, DWORD PTR [ebp-204]
	mov	ecx, 51					; 00000033H
	mov	eax, -858993460				; ccccccccH
	rep stosd
	pop	ecx
	mov	DWORD PTR _this$[ebp], ecx

; 300  : 	if ( remoteSystemList == 0 )

	mov	eax, DWORD PTR _this$[ebp]
	cmp	DWORD PTR [eax-1718], 0
	jne	SHORT $LN1@GetLowestP

; 301  : 		return -1;

	or	eax, -1
	jmp	SHORT $LN2@GetLowestP
$LN1@GetLowestP:

; 302  : 		
; 303  : 	return RakPeer::GetLowestPing( remoteSystemList[ 0 ].playerId );

	mov	eax, 2058				; 0000080aH
	imul	ecx, eax, 0
	mov	edx, DWORD PTR _this$[ebp]
	mov	eax, DWORD PTR [edx-1718]
	lea	ecx, DWORD PTR [eax+ecx+1]
	sub	esp, 8
	mov	edx, esp
	mov	eax, DWORD PTR [ecx]
	mov	DWORD PTR [edx], eax
	mov	cx, WORD PTR [ecx+4]
	mov	WORD PTR [edx+4], cx
	mov	ecx, DWORD PTR _this$[ebp]
	sub	ecx, 2538				; 000009eaH
	call	?GetLowestPing@RakPeer@@UBEHUPlayerID@@@Z ; RakPeer::GetLowestPing
$LN2@GetLowestP:

; 304  : }

	pop	edi
	pop	esi
	pop	ebx
	add	esp, 204				; 000000ccH
	cmp	ebp, esp
	call	__RTC_CheckEsp
	mov	esp, ebp
	pop	ebp
	ret	0
?GetLowestPing@RakClient@@UBEHXZ ENDP			; RakClient::GetLowestPing
_TEXT	ENDS
; Function compile flags: /Odtp /RTCsu /ZI
; File z:\sampsrc\02xu1\raknet\rakclient.cpp
;	COMDAT ?GetLastPing@RakClient@@UBEHXZ
_TEXT	SEGMENT
_this$ = -8						; size = 4
?GetLastPing@RakClient@@UBEHXZ PROC			; RakClient::GetLastPing, COMDAT
; _this$ = ecx

; 291  : {

	push	ebp
	mov	ebp, esp
	sub	esp, 204				; 000000ccH
	push	ebx
	push	esi
	push	edi
	push	ecx
	lea	edi, DWORD PTR [ebp-204]
	mov	ecx, 51					; 00000033H
	mov	eax, -858993460				; ccccccccH
	rep stosd
	pop	ecx
	mov	DWORD PTR _this$[ebp], ecx

; 292  : 	if ( remoteSystemList == 0 )

	mov	eax, DWORD PTR _this$[ebp]
	cmp	DWORD PTR [eax-1718], 0
	jne	SHORT $LN1@GetLastPin

; 293  : 		return -1;

	or	eax, -1
	jmp	SHORT $LN2@GetLastPin
$LN1@GetLastPin:

; 294  : 		
; 295  : 	return RakPeer::GetLastPing( remoteSystemList[ 0 ].playerId );

	mov	eax, 2058				; 0000080aH
	imul	ecx, eax, 0
	mov	edx, DWORD PTR _this$[ebp]
	mov	eax, DWORD PTR [edx-1718]
	lea	ecx, DWORD PTR [eax+ecx+1]
	sub	esp, 8
	mov	edx, esp
	mov	eax, DWORD PTR [ecx]
	mov	DWORD PTR [edx], eax
	mov	cx, WORD PTR [ecx+4]
	mov	WORD PTR [edx+4], cx
	mov	ecx, DWORD PTR _this$[ebp]
	sub	ecx, 2538				; 000009eaH
	call	?GetLastPing@RakPeer@@UBEHUPlayerID@@@Z	; RakPeer::GetLastPing
$LN2@GetLastPin:

; 296  : }

	pop	edi
	pop	esi
	pop	ebx
	add	esp, 204				; 000000ccH
	cmp	ebp, esp
	call	__RTC_CheckEsp
	mov	esp, ebp
	pop	ebp
	ret	0
?GetLastPing@RakClient@@UBEHXZ ENDP			; RakClient::GetLastPing
_TEXT	ENDS
; Function compile flags: /Odtp /RTCsu /ZI
; File z:\sampsrc\02xu1\raknet\rakclient.cpp
;	COMDAT ?GetAveragePing@RakClient@@UAEHXZ
_TEXT	SEGMENT
_this$ = -8						; size = 4
?GetAveragePing@RakClient@@UAEHXZ PROC			; RakClient::GetAveragePing, COMDAT
; _this$ = ecx

; 283  : {

	push	ebp
	mov	ebp, esp
	sub	esp, 204				; 000000ccH
	push	ebx
	push	esi
	push	edi
	push	ecx
	lea	edi, DWORD PTR [ebp-204]
	mov	ecx, 51					; 00000033H
	mov	eax, -858993460				; ccccccccH
	rep stosd
	pop	ecx
	mov	DWORD PTR _this$[ebp], ecx

; 284  : 	if ( remoteSystemList == 0 )

	mov	eax, DWORD PTR _this$[ebp]
	cmp	DWORD PTR [eax-1718], 0
	jne	SHORT $LN1@GetAverage

; 285  : 		return -1;

	or	eax, -1
	jmp	SHORT $LN2@GetAverage
$LN1@GetAverage:

; 286  : 		
; 287  : 	return RakPeer::GetAveragePing( remoteSystemList[ 0 ].playerId );

	mov	eax, 2058				; 0000080aH
	imul	ecx, eax, 0
	mov	edx, DWORD PTR _this$[ebp]
	mov	eax, DWORD PTR [edx-1718]
	lea	ecx, DWORD PTR [eax+ecx+1]
	sub	esp, 8
	mov	edx, esp
	mov	eax, DWORD PTR [ecx]
	mov	DWORD PTR [edx], eax
	mov	cx, WORD PTR [ecx+4]
	mov	WORD PTR [edx+4], cx
	mov	ecx, DWORD PTR _this$[ebp]
	sub	ecx, 2538				; 000009eaH
	call	?GetAveragePing@RakPeer@@UAEHUPlayerID@@@Z ; RakPeer::GetAveragePing
$LN2@GetAverage:

; 288  : }

	pop	edi
	pop	esi
	pop	ebx
	add	esp, 204				; 000000ccH
	cmp	ebp, esp
	call	__RTC_CheckEsp
	mov	esp, ebp
	pop	ebp
	ret	0
?GetAveragePing@RakClient@@UAEHXZ ENDP			; RakClient::GetAveragePing
_TEXT	ENDS
; Function compile flags: /Odtp /RTCsu /ZI
; File z:\sampsrc\02xu1\raknet\rakclient.cpp
;	COMDAT ?PingServer@RakClient@@UAEXPBDGG_N@Z
_TEXT	SEGMENT
_this$ = -8						; size = 4
_host$ = 8						; size = 4
_serverPort$ = 12					; size = 2
_clientPort$ = 16					; size = 2
_onlyReplyOnAcceptingConnections$ = 20			; size = 1
?PingServer@RakClient@@UAEXPBDGG_N@Z PROC		; RakClient::PingServer, COMDAT
; _this$ = ecx

; 277  : {

	push	ebp
	mov	ebp, esp
	sub	esp, 204				; 000000ccH
	push	ebx
	push	esi
	push	edi
	push	ecx
	lea	edi, DWORD PTR [ebp-204]
	mov	ecx, 51					; 00000033H
	mov	eax, -858993460				; ccccccccH
	rep stosd
	pop	ecx
	mov	DWORD PTR _this$[ebp], ecx

; 278  : 	RakPeer::Initialize( 1, clientPort, 0 );

	push	0
	push	0
	movzx	eax, WORD PTR _clientPort$[ebp]
	push	eax
	push	1
	mov	ecx, DWORD PTR _this$[ebp]
	sub	ecx, 2538				; 000009eaH
	call	?Initialize@RakPeer@@UAE_NGGHPBD@Z	; RakPeer::Initialize

; 279  : 	RakPeer::Ping( host, serverPort, onlyReplyOnAcceptingConnections );

	movzx	eax, BYTE PTR _onlyReplyOnAcceptingConnections$[ebp]
	push	eax
	movzx	ecx, WORD PTR _serverPort$[ebp]
	push	ecx
	mov	edx, DWORD PTR _host$[ebp]
	push	edx
	mov	ecx, DWORD PTR _this$[ebp]
	sub	ecx, 2538				; 000009eaH
	call	?Ping@RakPeer@@UAEXPBDG_N@Z		; RakPeer::Ping

; 280  : }

	pop	edi
	pop	esi
	pop	ebx
	add	esp, 204				; 000000ccH
	cmp	ebp, esp
	call	__RTC_CheckEsp
	mov	esp, ebp
	pop	ebp
	ret	16					; 00000010H
?PingServer@RakClient@@UAEXPBDGG_N@Z ENDP		; RakClient::PingServer
_TEXT	ENDS
; Function compile flags: /Odtp /RTCsu /ZI
; File z:\sampsrc\02xu1\raknet\rakclient.cpp
;	COMDAT ?PingServer@RakClient@@UAEXXZ
_TEXT	SEGMENT
_this$ = -8						; size = 4
?PingServer@RakClient@@UAEXXZ PROC			; RakClient::PingServer, COMDAT
; _this$ = ecx

; 269  : {

	push	ebp
	mov	ebp, esp
	sub	esp, 204				; 000000ccH
	push	ebx
	push	esi
	push	edi
	push	ecx
	lea	edi, DWORD PTR [ebp-204]
	mov	ecx, 51					; 00000033H
	mov	eax, -858993460				; ccccccccH
	rep stosd
	pop	ecx
	mov	DWORD PTR _this$[ebp], ecx

; 270  : 	if ( remoteSystemList == 0 )

	mov	eax, DWORD PTR _this$[ebp]
	cmp	DWORD PTR [eax-1718], 0
	jne	SHORT $LN1@PingServer

; 271  : 		return ;

	jmp	SHORT $LN2@PingServer
$LN1@PingServer:

; 272  : 		
; 273  : 	RakPeer::Ping( remoteSystemList[ 0 ].playerId );

	mov	eax, 2058				; 0000080aH
	imul	ecx, eax, 0
	mov	edx, DWORD PTR _this$[ebp]
	mov	eax, DWORD PTR [edx-1718]
	lea	ecx, DWORD PTR [eax+ecx+1]
	sub	esp, 8
	mov	edx, esp
	mov	eax, DWORD PTR [ecx]
	mov	DWORD PTR [edx], eax
	mov	cx, WORD PTR [ecx+4]
	mov	WORD PTR [edx+4], cx
	mov	ecx, DWORD PTR _this$[ebp]
	sub	ecx, 2538				; 000009eaH
	call	?Ping@RakPeer@@UAEXUPlayerID@@@Z	; RakPeer::Ping
$LN2@PingServer:

; 274  : }

	pop	edi
	pop	esi
	pop	ebx
	add	esp, 204				; 000000ccH
	cmp	ebp, esp
	call	__RTC_CheckEsp
	mov	esp, ebp
	pop	ebp
	ret	0
?PingServer@RakClient@@UAEXXZ ENDP			; RakClient::PingServer
_TEXT	ENDS
; Function compile flags: /Odtp /RTCsu /ZI
; File z:\sampsrc\02xu1\raknet\rakclient.cpp
;	COMDAT ?DeallocatePacket@RakClient@@UAEXPAUPacket@@@Z
_TEXT	SEGMENT
_this$ = -8						; size = 4
_packet$ = 8						; size = 4
?DeallocatePacket@RakClient@@UAEXPAUPacket@@@Z PROC	; RakClient::DeallocatePacket, COMDAT
; _this$ = ecx

; 264  : {

	push	ebp
	mov	ebp, esp
	sub	esp, 204				; 000000ccH
	push	ebx
	push	esi
	push	edi
	push	ecx
	lea	edi, DWORD PTR [ebp-204]
	mov	ecx, 51					; 00000033H
	mov	eax, -858993460				; ccccccccH
	rep stosd
	pop	ecx
	mov	DWORD PTR _this$[ebp], ecx

; 265  : 	RakPeer::DeallocatePacket( packet );

	mov	eax, DWORD PTR _packet$[ebp]
	push	eax
	mov	ecx, DWORD PTR _this$[ebp]
	call	?DeallocatePacket@RakPeer@@UAEXPAUPacket@@@Z ; RakPeer::DeallocatePacket

; 266  : }

	pop	edi
	pop	esi
	pop	ebx
	add	esp, 204				; 000000ccH
	cmp	ebp, esp
	call	__RTC_CheckEsp
	mov	esp, ebp
	pop	ebp
	ret	4
?DeallocatePacket@RakClient@@UAEXPAUPacket@@@Z ENDP	; RakClient::DeallocatePacket
_TEXT	ENDS
; Function compile flags: /Odtp /RTCsu /ZI
; File z:\sampsrc\02xu1\raknet\rakclient.cpp
;	COMDAT ?Receive@RakClient@@UAEPAUPacket@@XZ
_TEXT	SEGMENT
$T2 = -1228						; size = 4
$T3 = -1216						; size = 4
$T4 = -1204						; size = 4
$T5 = -1192						; size = 4
_in_nextSeed$6 = -988					; size = 4
_in_seed$7 = -976					; size = 4
_typeId$8 = -961					; size = 1
_timeStamp$9 = -952					; size = 4
_inBitStream$10 = -940					; size = 273
_index$11 = -656					; size = 4
_playerId$12 = -644					; size = 6
_inBitStream$13 = -628					; size = 273
_playerIndex$14 = -344					; size = 2
_i$15 = -332						; size = 4
_bitStream$16 = -320					; size = 273
_packet$ = -36						; size = 4
_this$ = -24						; size = 4
__$ArrayPad$ = -16					; size = 4
__$EHRec$ = -12						; size = 12
?Receive@RakClient@@UAEPAUPacket@@XZ PROC		; RakClient::Receive, COMDAT
; _this$ = ecx

; 114  : {

	push	ebp
	mov	ebp, esp
	push	-1
	push	__ehhandler$?Receive@RakClient@@UAEPAUPacket@@XZ
	mov	eax, DWORD PTR fs:0
	push	eax
	sub	esp, 1220				; 000004c4H
	push	ebx
	push	esi
	push	edi
	push	ecx
	lea	edi, DWORD PTR [ebp-1232]
	mov	ecx, 305				; 00000131H
	mov	eax, -858993460				; ccccccccH
	rep stosd
	pop	ecx
	mov	eax, DWORD PTR ___security_cookie
	xor	eax, ebp
	mov	DWORD PTR __$ArrayPad$[ebp], eax
	push	eax
	lea	eax, DWORD PTR __$EHRec$[ebp]
	mov	DWORD PTR fs:0, eax
	mov	DWORD PTR _this$[ebp], ecx

; 115  : 	Packet * packet = RakPeer::Receive();

	mov	ecx, DWORD PTR _this$[ebp]
	call	?Receive@RakPeer@@UAEPAUPacket@@XZ	; RakPeer::Receive
	mov	DWORD PTR _packet$[ebp], eax

; 116  : 	
; 117  : 	// Intercept specific client / server feature packets
; 118  : 	
; 119  : 	if ( packet )

	cmp	DWORD PTR _packet$[ebp], 0
	je	$LN26@Receive

; 120  : 	{
; 121  : 		RakNet::BitStream bitStream( packet->data, packet->length, false );

	push	0
	mov	eax, DWORD PTR _packet$[ebp]
	mov	ecx, DWORD PTR [eax+8]
	push	ecx
	mov	edx, DWORD PTR _packet$[ebp]
	mov	eax, DWORD PTR [edx+16]
	push	eax
	lea	ecx, DWORD PTR _bitStream$16[ebp]
	call	??0BitStream@RakNet@@QAE@PAEI_N@Z	; RakNet::BitStream::BitStream
	mov	DWORD PTR __$EHRec$[ebp+8], 0

; 122  : 		int i;
; 123  : 		
; 124  : 		if ( packet->data[ 0 ] == ID_CONNECTION_REQUEST_ACCEPTED )

	mov	eax, 1
	imul	ecx, eax, 0
	mov	edx, DWORD PTR _packet$[ebp]
	mov	eax, DWORD PTR [edx+16]
	movzx	ecx, BYTE PTR [eax+ecx]
	cmp	ecx, 23					; 00000017H
	jne	$LN25@Receive

; 125  : 		{
; 126  : //			ConnectionAcceptStruct cas;
; 127  : //			cas.Deserialize(bitStream);
; 128  : 		//	unsigned short remotePort;
; 129  : 		//	PlayerID externalID;
; 130  : 			PlayerIndex playerIndex;
; 131  : 
; 132  : 			RakNet::BitStream inBitStream(packet->data, packet->length, false);

	push	0
	mov	eax, DWORD PTR _packet$[ebp]
	mov	ecx, DWORD PTR [eax+8]
	push	ecx
	mov	edx, DWORD PTR _packet$[ebp]
	mov	eax, DWORD PTR [edx+16]
	push	eax
	lea	ecx, DWORD PTR _inBitStream$13[ebp]
	call	??0BitStream@RakNet@@QAE@PAEI_N@Z	; RakNet::BitStream::BitStream
	mov	BYTE PTR __$EHRec$[ebp+8], 1

; 133  : 			inBitStream.IgnoreBits(8); // ID_CONNECTION_REQUEST_ACCEPTED

	push	8
	lea	ecx, DWORD PTR _inBitStream$13[ebp]
	call	?IgnoreBits@BitStream@RakNet@@QAEXH@Z	; RakNet::BitStream::IgnoreBits

; 134  : 			inBitStream.IgnoreBits(8 * sizeof(unsigned short)); //inBitStream.Read(remotePort);

	push	16					; 00000010H
	lea	ecx, DWORD PTR _inBitStream$13[ebp]
	call	?IgnoreBits@BitStream@RakNet@@QAEXH@Z	; RakNet::BitStream::IgnoreBits

; 135  : 			inBitStream.IgnoreBits(8 * sizeof(unsigned int)); //inBitStream.Read(externalID.binaryAddress);

	push	32					; 00000020H
	lea	ecx, DWORD PTR _inBitStream$13[ebp]
	call	?IgnoreBits@BitStream@RakNet@@QAEXH@Z	; RakNet::BitStream::IgnoreBits

; 136  : 			inBitStream.IgnoreBits(8 * sizeof(unsigned short)); //inBitStream.Read(externalID.port);			

	push	16					; 00000010H
	lea	ecx, DWORD PTR _inBitStream$13[ebp]
	call	?IgnoreBits@BitStream@RakNet@@QAEXH@Z	; RakNet::BitStream::IgnoreBits

; 137  : 			inBitStream.Read(playerIndex);

	lea	eax, DWORD PTR _playerIndex$14[ebp]
	push	eax
	lea	ecx, DWORD PTR _inBitStream$13[ebp]
	call	??$Read@G@BitStream@RakNet@@QAE_NAAG@Z	; RakNet::BitStream::Read<unsigned short>

; 138  : 
; 139  : 			localPlayerIndex = playerIndex;

	mov	eax, DWORD PTR _this$[ebp]
	mov	cx, WORD PTR _playerIndex$14[ebp]
	mov	WORD PTR [eax+11851], cx

; 140  : 			packet->playerIndex = playerIndex;

	mov	eax, DWORD PTR _packet$[ebp]
	mov	cx, WORD PTR _playerIndex$14[ebp]
	mov	WORD PTR [eax], cx

; 141  : 		}

	mov	BYTE PTR __$EHRec$[ebp+8], 0
	lea	ecx, DWORD PTR _inBitStream$13[ebp]
	call	??1BitStream@RakNet@@QAE@XZ		; RakNet::BitStream::~BitStream

; 142  : 		else if (

	jmp	$LN24@Receive
$LN25@Receive:

; 143  : 				packet->data[ 0 ] == ID_REMOTE_NEW_INCOMING_CONNECTION ||
; 144  : 				packet->data[ 0 ] == ID_REMOTE_EXISTING_CONNECTION ||
; 145  : 				packet->data[ 0 ] == ID_REMOTE_DISCONNECTION_NOTIFICATION ||
; 146  : 				packet->data[ 0 ] == ID_REMOTE_CONNECTION_LOST )

	mov	eax, 1
	imul	ecx, eax, 0
	mov	edx, DWORD PTR _packet$[ebp]
	mov	eax, DWORD PTR [edx+16]
	movzx	ecx, BYTE PTR [eax+ecx]
	cmp	ecx, 42					; 0000002aH
	je	SHORT $LN22@Receive
	mov	eax, 1
	imul	ecx, eax, 0
	mov	edx, DWORD PTR _packet$[ebp]
	mov	eax, DWORD PTR [edx+16]
	movzx	ecx, BYTE PTR [eax+ecx]
	cmp	ecx, 44					; 0000002cH
	je	SHORT $LN22@Receive
	mov	eax, 1
	imul	ecx, eax, 0
	mov	edx, DWORD PTR _packet$[ebp]
	mov	eax, DWORD PTR [edx+16]
	movzx	ecx, BYTE PTR [eax+ecx]
	cmp	ecx, 39					; 00000027H
	je	SHORT $LN22@Receive
	mov	eax, 1
	imul	ecx, eax, 0
	mov	edx, DWORD PTR _packet$[ebp]
	mov	eax, DWORD PTR [edx+16]
	movzx	ecx, BYTE PTR [eax+ecx]
	cmp	ecx, 40					; 00000028H
	jne	$LN23@Receive
$LN22@Receive:

; 147  : 		{
; 148  : 			bitStream.IgnoreBits( 8 ); // Ignore identifier

	push	8
	lea	ecx, DWORD PTR _bitStream$16[ebp]
	call	?IgnoreBits@BitStream@RakNet@@QAEXH@Z	; RakNet::BitStream::IgnoreBits

; 149  : 			bitStream.Read( packet->playerId.binaryAddress );

	mov	eax, DWORD PTR _packet$[ebp]
	add	eax, 2
	push	eax
	lea	ecx, DWORD PTR _bitStream$16[ebp]
	call	??$Read@I@BitStream@RakNet@@QAE_NAAI@Z	; RakNet::BitStream::Read<unsigned int>

; 150  : 			bitStream.Read( packet->playerId.port );

	mov	eax, DWORD PTR _packet$[ebp]
	add	eax, 6
	push	eax
	lea	ecx, DWORD PTR _bitStream$16[ebp]
	call	??$Read@G@BitStream@RakNet@@QAE_NAAG@Z	; RakNet::BitStream::Read<unsigned short>

; 151  : 			
; 152  : 			if ( bitStream.Read( ( unsigned short& ) packet->playerIndex ) == false )

	mov	eax, DWORD PTR _packet$[ebp]
	push	eax
	lea	ecx, DWORD PTR _bitStream$16[ebp]
	call	??$Read@G@BitStream@RakNet@@QAE_NAAG@Z	; RakNet::BitStream::Read<unsigned short>
	movzx	ecx, al
	test	ecx, ecx
	jne	SHORT $LN21@Receive

; 153  : 			{
; 154  : 				DeallocatePacket( packet );

	mov	esi, esp
	mov	eax, DWORD PTR _packet$[ebp]
	push	eax
	mov	ecx, DWORD PTR _this$[ebp]
	mov	edx, DWORD PTR [ecx]
	mov	ecx, DWORD PTR _this$[ebp]
	mov	eax, DWORD PTR [edx+60]
	call	eax
	cmp	esi, esp
	call	__RTC_CheckEsp

; 155  : 				return 0;

	mov	DWORD PTR $T2[ebp], 0
	mov	DWORD PTR __$EHRec$[ebp+8], -1
	lea	ecx, DWORD PTR _bitStream$16[ebp]
	call	??1BitStream@RakNet@@QAE@XZ		; RakNet::BitStream::~BitStream
	mov	eax, DWORD PTR $T2[ebp]
	jmp	$LN27@Receive
$LN21@Receive:

; 156  : 			}
; 157  : 			
; 158  : 			
; 159  : 			if ( packet->data[ 0 ] == ID_REMOTE_DISCONNECTION_NOTIFICATION ||
; 160  : 				packet->data[ 0 ] == ID_REMOTE_CONNECTION_LOST )

	mov	eax, 1
	imul	ecx, eax, 0
	mov	edx, DWORD PTR _packet$[ebp]
	mov	eax, DWORD PTR [edx+16]
	movzx	ecx, BYTE PTR [eax+ecx]
	cmp	ecx, 39					; 00000027H
	je	SHORT $LN19@Receive
	mov	eax, 1
	imul	ecx, eax, 0
	mov	edx, DWORD PTR _packet$[ebp]
	mov	eax, DWORD PTR [edx+16]
	movzx	ecx, BYTE PTR [eax+ecx]
	cmp	ecx, 40					; 00000028H
	jne	SHORT $LN20@Receive
$LN19@Receive:

; 161  : 			{
; 162  : 				i = GetOtherClientIndexByPlayerID( packet->playerId );

	mov	eax, DWORD PTR _packet$[ebp]
	add	eax, 2
	sub	esp, 8
	mov	ecx, esp
	mov	edx, DWORD PTR [eax]
	mov	DWORD PTR [ecx], edx
	mov	ax, WORD PTR [eax+4]
	mov	WORD PTR [ecx+4], ax
	mov	ecx, DWORD PTR _this$[ebp]
	call	?GetOtherClientIndexByPlayerID@RakClient@@AAEHUPlayerID@@@Z ; RakClient::GetOtherClientIndexByPlayerID
	mov	DWORD PTR _i$15[ebp], eax

; 163  : 				
; 164  : 				if ( i >= 0 )

	cmp	DWORD PTR _i$15[ebp], 0
	jl	SHORT $LN20@Receive

; 165  : 					otherClients[ i ].isActive = false;

	imul	eax, DWORD PTR _i$15[ebp], 282
	mov	ecx, DWORD PTR _this$[ebp]
	mov	BYTE PTR [ecx+eax+3096], 0
$LN20@Receive:

; 166  : 			}
; 167  : 		}			

	jmp	$LN24@Receive
$LN23@Receive:

; 168  : 		else if ( packet->data[ 0 ] == ID_REMOTE_STATIC_DATA )

	mov	eax, 1
	imul	ecx, eax, 0
	mov	edx, DWORD PTR _packet$[ebp]
	mov	eax, DWORD PTR [edx+16]
	movzx	ecx, BYTE PTR [eax+ecx]
	cmp	ecx, 45					; 0000002dH
	jne	$LN16@Receive

; 169  : 		{
; 170  : 			bitStream.IgnoreBits( 8 ); // Ignore identifier

	push	8
	lea	ecx, DWORD PTR _bitStream$16[ebp]
	call	?IgnoreBits@BitStream@RakNet@@QAEXH@Z	; RakNet::BitStream::IgnoreBits

; 171  : 			bitStream.Read( packet->playerId.binaryAddress );

	mov	eax, DWORD PTR _packet$[ebp]
	add	eax, 2
	push	eax
	lea	ecx, DWORD PTR _bitStream$16[ebp]
	call	??$Read@I@BitStream@RakNet@@QAE_NAAI@Z	; RakNet::BitStream::Read<unsigned int>

; 172  : 			bitStream.Read( packet->playerId.port );

	mov	eax, DWORD PTR _packet$[ebp]
	add	eax, 6
	push	eax
	lea	ecx, DWORD PTR _bitStream$16[ebp]
	call	??$Read@G@BitStream@RakNet@@QAE_NAAG@Z	; RakNet::BitStream::Read<unsigned short>

; 173  : 			bitStream.Read( packet->playerIndex ); // ADDED BY KURI 

	mov	eax, DWORD PTR _packet$[ebp]
	push	eax
	lea	ecx, DWORD PTR _bitStream$16[ebp]
	call	??$Read@G@BitStream@RakNet@@QAE_NAAG@Z	; RakNet::BitStream::Read<unsigned short>

; 174  : 			
; 175  : 			i = GetOtherClientIndexByPlayerID( packet->playerId );

	mov	eax, DWORD PTR _packet$[ebp]
	add	eax, 2
	sub	esp, 8
	mov	ecx, esp
	mov	edx, DWORD PTR [eax]
	mov	DWORD PTR [ecx], edx
	mov	ax, WORD PTR [eax+4]
	mov	WORD PTR [ecx+4], ax
	mov	ecx, DWORD PTR _this$[ebp]
	call	?GetOtherClientIndexByPlayerID@RakClient@@AAEHUPlayerID@@@Z ; RakClient::GetOtherClientIndexByPlayerID
	mov	DWORD PTR _i$15[ebp], eax

; 176  : 			
; 177  : 			if ( i < 0 )

	cmp	DWORD PTR _i$15[ebp], 0
	jge	SHORT $LN15@Receive

; 178  : 				i = GetFreeOtherClientIndex();

	mov	ecx, DWORD PTR _this$[ebp]
	call	?GetFreeOtherClientIndex@RakClient@@AAEHXZ ; RakClient::GetFreeOtherClientIndex
	mov	DWORD PTR _i$15[ebp], eax
$LN15@Receive:

; 179  : 				
; 180  : 			if ( i >= 0 )

	cmp	DWORD PTR _i$15[ebp], 0
	jl	$LN14@Receive

; 181  : 			{
; 182  : 				otherClients[ i ].playerId = packet->playerId;

	mov	eax, DWORD PTR _packet$[ebp]
	add	eax, 2
	push	eax
	imul	ecx, DWORD PTR _i$15[ebp], 282
	mov	edx, DWORD PTR _this$[ebp]
	lea	ecx, DWORD PTR [edx+ecx+2815]
	call	??4PlayerID@@QAEAAU0@ABU0@@Z		; PlayerID::operator=

; 183  : 				otherClients[ i ].isActive = true;

	imul	eax, DWORD PTR _i$15[ebp], 282
	mov	ecx, DWORD PTR _this$[ebp]
	mov	BYTE PTR [ecx+eax+3096], 1

; 184  : 				otherClients[ i ].staticData.Reset();

	imul	eax, DWORD PTR _i$15[ebp], 282
	mov	ecx, DWORD PTR _this$[ebp]
	lea	ecx, DWORD PTR [ecx+eax+2823]
	call	?Reset@BitStream@RakNet@@QAEXXZ		; RakNet::BitStream::Reset

; 185  : 				// The static data is what is left over in the stream
; 186  : 				otherClients[ i ].staticData.Write( ( char* ) bitStream.GetData() + BITS_TO_BYTES( bitStream.GetReadOffset() ), bitStream.GetNumberOfBytesUsed() - BITS_TO_BYTES( bitStream.GetReadOffset() ) );

	lea	ecx, DWORD PTR _bitStream$16[ebp]
	call	?GetNumberOfBytesUsed@BitStream@RakNet@@QBEHXZ ; RakNet::BitStream::GetNumberOfBytesUsed
	mov	esi, eax
	lea	ecx, DWORD PTR _bitStream$16[ebp]
	call	?GetReadOffset@BitStream@RakNet@@QBEHXZ	; RakNet::BitStream::GetReadOffset
	add	eax, 7
	sar	eax, 3
	sub	esi, eax
	push	esi
	lea	ecx, DWORD PTR _bitStream$16[ebp]
	call	?GetData@BitStream@RakNet@@QBEPAEXZ	; RakNet::BitStream::GetData
	mov	esi, eax
	lea	ecx, DWORD PTR _bitStream$16[ebp]
	call	?GetReadOffset@BitStream@RakNet@@QBEHXZ	; RakNet::BitStream::GetReadOffset
	add	eax, 7
	sar	eax, 3
	add	esi, eax
	push	esi
	imul	eax, DWORD PTR _i$15[ebp], 282
	mov	ecx, DWORD PTR _this$[ebp]
	lea	ecx, DWORD PTR [ecx+eax+2823]
	call	?Write@BitStream@RakNet@@QAEXPBDH@Z	; RakNet::BitStream::Write
$LN14@Receive:

; 187  : 			}
; 188  : 		}

	jmp	$LN24@Receive
$LN16@Receive:

; 189  : 		else if ( packet->data[ 0 ] == ID_BROADCAST_PINGS )

	mov	eax, 1
	imul	ecx, eax, 0
	mov	edx, DWORD PTR _packet$[ebp]
	mov	eax, DWORD PTR [edx+16]
	movzx	ecx, BYTE PTR [eax+ecx]
	cmp	ecx, 21					; 00000015H
	jne	$LN12@Receive

; 190  : 		{
; 191  : 			PlayerID playerId;
; 192  : 			int index;
; 193  : 
; 194  : 			bitStream.IgnoreBits( 8 ); // Ignore identifier

	push	8
	lea	ecx, DWORD PTR _bitStream$16[ebp]
	call	?IgnoreBits@BitStream@RakNet@@QAEXH@Z	; RakNet::BitStream::IgnoreBits

; 195  : 			
; 196  : 			for ( i = 0; i < 32; i++ )

	mov	DWORD PTR _i$15[ebp], 0
	jmp	SHORT $LN11@Receive
$LN10@Receive:
	mov	eax, DWORD PTR _i$15[ebp]
	add	eax, 1
	mov	DWORD PTR _i$15[ebp], eax
$LN11@Receive:
	cmp	DWORD PTR _i$15[ebp], 32		; 00000020H
	jge	$LN9@Receive

; 197  : 			{
; 198  : 				if ( bitStream.Read( playerId.binaryAddress ) == false )

	lea	eax, DWORD PTR _playerId$12[ebp]
	push	eax
	lea	ecx, DWORD PTR _bitStream$16[ebp]
	call	??$Read@I@BitStream@RakNet@@QAE_NAAI@Z	; RakNet::BitStream::Read<unsigned int>
	movzx	ecx, al
	test	ecx, ecx
	jne	SHORT $LN8@Receive

; 199  : 					break; // No remaining data!

	jmp	$LN9@Receive
$LN8@Receive:

; 200  : 					
; 201  : 				bitStream.Read( playerId.port );

	lea	eax, DWORD PTR _playerId$12[ebp+4]
	push	eax
	lea	ecx, DWORD PTR _bitStream$16[ebp]
	call	??$Read@G@BitStream@RakNet@@QAE_NAAG@Z	; RakNet::BitStream::Read<unsigned short>

; 202  : 				
; 203  : 				index = GetOtherClientIndexByPlayerID( playerId );

	sub	esp, 8
	mov	eax, esp
	mov	ecx, DWORD PTR _playerId$12[ebp]
	mov	DWORD PTR [eax], ecx
	mov	dx, WORD PTR _playerId$12[ebp+4]
	mov	WORD PTR [eax+4], dx
	mov	ecx, DWORD PTR _this$[ebp]
	call	?GetOtherClientIndexByPlayerID@RakClient@@AAEHUPlayerID@@@Z ; RakClient::GetOtherClientIndexByPlayerID
	mov	DWORD PTR _index$11[ebp], eax

; 204  : 				
; 205  : 				if ( index >= 0 )

	cmp	DWORD PTR _index$11[ebp], 0
	jl	SHORT $LN7@Receive

; 206  : 					bitStream.Read( otherClients[ index ].ping );

	imul	eax, DWORD PTR _index$11[ebp], 282
	mov	ecx, DWORD PTR _this$[ebp]
	lea	edx, DWORD PTR [ecx+eax+2821]
	push	edx
	lea	ecx, DWORD PTR _bitStream$16[ebp]
	call	??$Read@F@BitStream@RakNet@@QAE_NAAF@Z	; RakNet::BitStream::Read<short>

; 207  : 				else

	jmp	$LN6@Receive
$LN7@Receive:

; 208  : 				{
; 209  : 					index = GetFreeOtherClientIndex();

	mov	ecx, DWORD PTR _this$[ebp]
	call	?GetFreeOtherClientIndex@RakClient@@AAEHXZ ; RakClient::GetFreeOtherClientIndex
	mov	DWORD PTR _index$11[ebp], eax

; 210  : 					
; 211  : 					if ( index >= 0 )

	cmp	DWORD PTR _index$11[ebp], 0
	jl	SHORT $LN5@Receive

; 212  : 					{
; 213  : 						otherClients[ index ].isActive = true;

	imul	eax, DWORD PTR _index$11[ebp], 282
	mov	ecx, DWORD PTR _this$[ebp]
	mov	BYTE PTR [ecx+eax+3096], 1

; 214  : 						bitStream.Read( otherClients[ index ].ping );

	imul	eax, DWORD PTR _index$11[ebp], 282
	mov	ecx, DWORD PTR _this$[ebp]
	lea	edx, DWORD PTR [ecx+eax+2821]
	push	edx
	lea	ecx, DWORD PTR _bitStream$16[ebp]
	call	??$Read@F@BitStream@RakNet@@QAE_NAAF@Z	; RakNet::BitStream::Read<short>

; 215  : 						otherClients[ index ].playerId = playerId;

	lea	eax, DWORD PTR _playerId$12[ebp]
	push	eax
	imul	ecx, DWORD PTR _index$11[ebp], 282
	mov	edx, DWORD PTR _this$[ebp]
	lea	ecx, DWORD PTR [edx+ecx+2815]
	call	??4PlayerID@@QAEAAU0@ABU0@@Z		; PlayerID::operator=

; 216  : 						otherClients[ index ].staticData.Reset();

	imul	eax, DWORD PTR _index$11[ebp], 282
	mov	ecx, DWORD PTR _this$[ebp]
	lea	ecx, DWORD PTR [ecx+eax+2823]
	call	?Reset@BitStream@RakNet@@QAEXXZ		; RakNet::BitStream::Reset

; 217  : 					}
; 218  : 					
; 219  : 					else

	jmp	SHORT $LN6@Receive
$LN5@Receive:

; 220  : 						bitStream.IgnoreBits( sizeof( short ) * 8 );

	push	16					; 00000010H
	lea	ecx, DWORD PTR _bitStream$16[ebp]
	call	?IgnoreBits@BitStream@RakNet@@QAEXH@Z	; RakNet::BitStream::IgnoreBits
$LN6@Receive:

; 221  : 				}
; 222  : 			}

	jmp	$LN10@Receive
$LN9@Receive:

; 223  : 			
; 224  : 			DeallocatePacket( packet );

	mov	esi, esp
	mov	eax, DWORD PTR _packet$[ebp]
	push	eax
	mov	ecx, DWORD PTR _this$[ebp]
	mov	edx, DWORD PTR [ecx]
	mov	ecx, DWORD PTR _this$[ebp]
	mov	eax, DWORD PTR [edx+60]
	call	eax
	cmp	esi, esp
	call	__RTC_CheckEsp

; 225  : 			return 0;

	mov	DWORD PTR $T3[ebp], 0
	mov	DWORD PTR __$EHRec$[ebp+8], -1
	lea	ecx, DWORD PTR _bitStream$16[ebp]
	call	??1BitStream@RakNet@@QAE@XZ		; RakNet::BitStream::~BitStream
	mov	eax, DWORD PTR $T3[ebp]
	jmp	$LN27@Receive

; 226  : 		}
; 227  :         else

	jmp	$LN24@Receive
$LN12@Receive:

; 228  : 		if ( packet->data[ 0 ] == ID_TIMESTAMP &&
; 229  : 			packet->length == sizeof(unsigned char)+sizeof(unsigned int)+sizeof(unsigned char)+sizeof(unsigned int)+sizeof(unsigned int) )

	mov	eax, 1
	imul	ecx, eax, 0
	mov	edx, DWORD PTR _packet$[ebp]
	mov	eax, DWORD PTR [edx+16]
	movzx	ecx, BYTE PTR [eax+ecx]
	cmp	ecx, 36					; 00000024H
	jne	$LN24@Receive
	mov	eax, DWORD PTR _packet$[ebp]
	cmp	DWORD PTR [eax+8], 14			; 0000000eH
	jne	$LN24@Receive

; 230  : 		{
; 231  : 			
; 232  : 
; 233  : 			RakNet::BitStream inBitStream(packet->data, packet->length, false);

	push	0
	mov	eax, DWORD PTR _packet$[ebp]
	mov	ecx, DWORD PTR [eax+8]
	push	ecx
	mov	edx, DWORD PTR _packet$[ebp]
	mov	eax, DWORD PTR [edx+16]
	push	eax
	lea	ecx, DWORD PTR _inBitStream$10[ebp]
	call	??0BitStream@RakNet@@QAE@PAEI_N@Z	; RakNet::BitStream::BitStream
	mov	BYTE PTR __$EHRec$[ebp+8], 2

; 234  : 		
; 235  : 			RakNetTime timeStamp;
; 236  : 			unsigned char typeId;
; 237  : 			unsigned int in_seed;
; 238  : 			unsigned int in_nextSeed;
; 239  : 			inBitStream.IgnoreBits(8); // ID_TIMESTAMP

	push	8
	lea	ecx, DWORD PTR _inBitStream$10[ebp]
	call	?IgnoreBits@BitStream@RakNet@@QAEXH@Z	; RakNet::BitStream::IgnoreBits

; 240  : 			inBitStream.Read(timeStamp);

	lea	eax, DWORD PTR _timeStamp$9[ebp]
	push	eax
	lea	ecx, DWORD PTR _inBitStream$10[ebp]
	call	??$Read@I@BitStream@RakNet@@QAE_NAAI@Z	; RakNet::BitStream::Read<unsigned int>

; 241  : 			inBitStream.Read(typeId); // ID_SET_RANDOM_NUMBER_SEED ?

	lea	eax, DWORD PTR _typeId$8[ebp]
	push	eax
	lea	ecx, DWORD PTR _inBitStream$10[ebp]
	call	??$Read@E@BitStream@RakNet@@QAE_NAAE@Z	; RakNet::BitStream::Read<unsigned char>

; 242  : 
; 243  : 			// Check to see if this is a user TIMESTAMP message which
; 244  : 			// accidentally has length SetRandomNumberSeedStruct_Size
; 245  : 			if ( typeId != ID_SET_RANDOM_NUMBER_SEED )

	movzx	eax, BYTE PTR _typeId$8[ebp]
	cmp	eax, 22					; 00000016H
	je	SHORT $LN1@Receive

; 246  : 				return packet;

	mov	eax, DWORD PTR _packet$[ebp]
	mov	DWORD PTR $T4[ebp], eax
	mov	BYTE PTR __$EHRec$[ebp+8], 0
	lea	ecx, DWORD PTR _inBitStream$10[ebp]
	call	??1BitStream@RakNet@@QAE@XZ		; RakNet::BitStream::~BitStream
	mov	DWORD PTR __$EHRec$[ebp+8], -1
	lea	ecx, DWORD PTR _bitStream$16[ebp]
	call	??1BitStream@RakNet@@QAE@XZ		; RakNet::BitStream::~BitStream
	mov	eax, DWORD PTR $T4[ebp]
	jmp	$LN27@Receive
$LN1@Receive:

; 247  : 
; 248  : 			inBitStream.Read(in_seed);

	lea	eax, DWORD PTR _in_seed$7[ebp]
	push	eax
	lea	ecx, DWORD PTR _inBitStream$10[ebp]
	call	??$Read@I@BitStream@RakNet@@QAE_NAAI@Z	; RakNet::BitStream::Read<unsigned int>

; 249  : 			inBitStream.Read(in_nextSeed);

	lea	eax, DWORD PTR _in_nextSeed$6[ebp]
	push	eax
	lea	ecx, DWORD PTR _inBitStream$10[ebp]
	call	??$Read@I@BitStream@RakNet@@QAE_NAAI@Z	; RakNet::BitStream::Read<unsigned int>

; 250  : 			
; 251  : 			seed = in_seed;

	mov	eax, DWORD PTR _this$[ebp]
	mov	ecx, DWORD PTR _in_seed$7[ebp]
	mov	DWORD PTR [eax+11839], ecx

; 252  : 			nextSeed = in_nextSeed;

	mov	eax, DWORD PTR _this$[ebp]
	mov	ecx, DWORD PTR _in_nextSeed$6[ebp]
	mov	DWORD PTR [eax+11843], ecx

; 253  : 			nextSeedUpdate = timeStamp + 9000; // Seeds are updated every 9 seconds

	mov	eax, DWORD PTR _timeStamp$9[ebp]
	add	eax, 9000				; 00002328H
	mov	ecx, DWORD PTR _this$[ebp]
	mov	DWORD PTR [ecx+11847], eax

; 254  : 			
; 255  : 			DeallocatePacket( packet );

	mov	esi, esp
	mov	eax, DWORD PTR _packet$[ebp]
	push	eax
	mov	ecx, DWORD PTR _this$[ebp]
	mov	edx, DWORD PTR [ecx]
	mov	ecx, DWORD PTR _this$[ebp]
	mov	eax, DWORD PTR [edx+60]
	call	eax
	cmp	esi, esp
	call	__RTC_CheckEsp

; 256  : 			return 0;

	mov	DWORD PTR $T5[ebp], 0
	mov	BYTE PTR __$EHRec$[ebp+8], 0
	lea	ecx, DWORD PTR _inBitStream$10[ebp]
	call	??1BitStream@RakNet@@QAE@XZ		; RakNet::BitStream::~BitStream
	mov	DWORD PTR __$EHRec$[ebp+8], -1
	lea	ecx, DWORD PTR _bitStream$16[ebp]
	call	??1BitStream@RakNet@@QAE@XZ		; RakNet::BitStream::~BitStream
	mov	eax, DWORD PTR $T5[ebp]
	jmp	SHORT $LN27@Receive
$LN24@Receive:

; 257  : 		}
; 258  : 	}

	mov	DWORD PTR __$EHRec$[ebp+8], -1
	lea	ecx, DWORD PTR _bitStream$16[ebp]
	call	??1BitStream@RakNet@@QAE@XZ		; RakNet::BitStream::~BitStream
$LN26@Receive:

; 259  : 	
; 260  : 	return packet;

	mov	eax, DWORD PTR _packet$[ebp]
$LN27@Receive:

; 261  : }

	push	edx
	mov	ecx, ebp
	push	eax
	lea	edx, DWORD PTR $LN43@Receive
	call	@_RTC_CheckStackVars@8
	pop	eax
	pop	edx
	mov	ecx, DWORD PTR __$EHRec$[ebp]
	mov	DWORD PTR fs:0, ecx
	pop	ecx
	pop	edi
	pop	esi
	pop	ebx
	mov	ecx, DWORD PTR __$ArrayPad$[ebp]
	xor	ecx, ebp
	call	@__security_check_cookie@4
	add	esp, 1232				; 000004d0H
	cmp	ebp, esp
	call	__RTC_CheckEsp
	mov	esp, ebp
	pop	ebp
	ret	0
$LN43@Receive:
	DD	9
	DD	$LN42@Receive
$LN42@Receive:
	DD	-320					; fffffec0H
	DD	273					; 00000111H
	DD	$LN32@Receive
	DD	-344					; fffffea8H
	DD	2
	DD	$LN33@Receive
	DD	-628					; fffffd8cH
	DD	273					; 00000111H
	DD	$LN34@Receive
	DD	-644					; fffffd7cH
	DD	6
	DD	$LN35@Receive
	DD	-940					; fffffc54H
	DD	273					; 00000111H
	DD	$LN36@Receive
	DD	-952					; fffffc48H
	DD	4
	DD	$LN37@Receive
	DD	-961					; fffffc3fH
	DD	1
	DD	$LN38@Receive
	DD	-976					; fffffc30H
	DD	4
	DD	$LN39@Receive
	DD	-988					; fffffc24H
	DD	4
	DD	$LN40@Receive
$LN40@Receive:
	DB	105					; 00000069H
	DB	110					; 0000006eH
	DB	95					; 0000005fH
	DB	110					; 0000006eH
	DB	101					; 00000065H
	DB	120					; 00000078H
	DB	116					; 00000074H
	DB	83					; 00000053H
	DB	101					; 00000065H
	DB	101					; 00000065H
	DB	100					; 00000064H
	DB	0
$LN39@Receive:
	DB	105					; 00000069H
	DB	110					; 0000006eH
	DB	95					; 0000005fH
	DB	115					; 00000073H
	DB	101					; 00000065H
	DB	101					; 00000065H
	DB	100					; 00000064H
	DB	0
$LN38@Receive:
	DB	116					; 00000074H
	DB	121					; 00000079H
	DB	112					; 00000070H
	DB	101					; 00000065H
	DB	73					; 00000049H
	DB	100					; 00000064H
	DB	0
$LN37@Receive:
	DB	116					; 00000074H
	DB	105					; 00000069H
	DB	109					; 0000006dH
	DB	101					; 00000065H
	DB	83					; 00000053H
	DB	116					; 00000074H
	DB	97					; 00000061H
	DB	109					; 0000006dH
	DB	112					; 00000070H
	DB	0
$LN36@Receive:
	DB	105					; 00000069H
	DB	110					; 0000006eH
	DB	66					; 00000042H
	DB	105					; 00000069H
	DB	116					; 00000074H
	DB	83					; 00000053H
	DB	116					; 00000074H
	DB	114					; 00000072H
	DB	101					; 00000065H
	DB	97					; 00000061H
	DB	109					; 0000006dH
	DB	0
$LN35@Receive:
	DB	112					; 00000070H
	DB	108					; 0000006cH
	DB	97					; 00000061H
	DB	121					; 00000079H
	DB	101					; 00000065H
	DB	114					; 00000072H
	DB	73					; 00000049H
	DB	100					; 00000064H
	DB	0
$LN34@Receive:
	DB	105					; 00000069H
	DB	110					; 0000006eH
	DB	66					; 00000042H
	DB	105					; 00000069H
	DB	116					; 00000074H
	DB	83					; 00000053H
	DB	116					; 00000074H
	DB	114					; 00000072H
	DB	101					; 00000065H
	DB	97					; 00000061H
	DB	109					; 0000006dH
	DB	0
$LN33@Receive:
	DB	112					; 00000070H
	DB	108					; 0000006cH
	DB	97					; 00000061H
	DB	121					; 00000079H
	DB	101					; 00000065H
	DB	114					; 00000072H
	DB	73					; 00000049H
	DB	110					; 0000006eH
	DB	100					; 00000064H
	DB	101					; 00000065H
	DB	120					; 00000078H
	DB	0
$LN32@Receive:
	DB	98					; 00000062H
	DB	105					; 00000069H
	DB	116					; 00000074H
	DB	83					; 00000053H
	DB	116					; 00000074H
	DB	114					; 00000072H
	DB	101					; 00000065H
	DB	97					; 00000061H
	DB	109					; 0000006dH
	DB	0
_TEXT	ENDS
;	COMDAT text$x
text$x	SEGMENT
__unwindfunclet$?Receive@RakClient@@UAEPAUPacket@@XZ$0:
	lea	ecx, DWORD PTR _bitStream$16[ebp]
	jmp	??1BitStream@RakNet@@QAE@XZ		; RakNet::BitStream::~BitStream
__unwindfunclet$?Receive@RakClient@@UAEPAUPacket@@XZ$1:
	lea	ecx, DWORD PTR _inBitStream$13[ebp]
	jmp	??1BitStream@RakNet@@QAE@XZ		; RakNet::BitStream::~BitStream
__unwindfunclet$?Receive@RakClient@@UAEPAUPacket@@XZ$2:
	lea	ecx, DWORD PTR _inBitStream$10[ebp]
	jmp	??1BitStream@RakNet@@QAE@XZ		; RakNet::BitStream::~BitStream
__ehhandler$?Receive@RakClient@@UAEPAUPacket@@XZ:
	mov	edx, DWORD PTR [esp+8]
	lea	eax, DWORD PTR [edx+12]
	mov	ecx, DWORD PTR [edx-1236]
	xor	ecx, eax
	call	@__security_check_cookie@4
	mov	ecx, DWORD PTR [edx-4]
	xor	ecx, eax
	call	@__security_check_cookie@4
	mov	eax, OFFSET __ehfuncinfo$?Receive@RakClient@@UAEPAUPacket@@XZ
	jmp	___CxxFrameHandler3
text$x	ENDS
?Receive@RakClient@@UAEPAUPacket@@XZ ENDP		; RakClient::Receive
; Function compile flags: /Odtp /RTCsu /ZI
; File z:\sampsrc\02xu1\raknet\rakclient.cpp
;	COMDAT ?Send@RakClient@@UAE_NPAVBitStream@RakNet@@W4PacketPriority@@W4PacketReliability@@D@Z
_TEXT	SEGMENT
_this$ = -8						; size = 4
_bitStream$ = 8						; size = 4
_priority$ = 12						; size = 4
_reliability$ = 16					; size = 4
_orderingChannel$ = 20					; size = 1
?Send@RakClient@@UAE_NPAVBitStream@RakNet@@W4PacketPriority@@W4PacketReliability@@D@Z PROC ; RakClient::Send, COMDAT
; _this$ = ecx

; 106  : {

	push	ebp
	mov	ebp, esp
	sub	esp, 204				; 000000ccH
	push	ebx
	push	esi
	push	edi
	push	ecx
	lea	edi, DWORD PTR [ebp-204]
	mov	ecx, 51					; 00000033H
	mov	eax, -858993460				; ccccccccH
	rep stosd
	pop	ecx
	mov	DWORD PTR _this$[ebp], ecx

; 107  : 	if ( remoteSystemList == 0 )

	mov	eax, DWORD PTR _this$[ebp]
	cmp	DWORD PTR [eax-1718], 0
	jne	SHORT $LN1@Send

; 108  : 		return false;

	xor	al, al
	jmp	SHORT $LN2@Send
$LN1@Send:

; 109  : 		
; 110  : 	return RakPeer::Send( bitStream, priority, reliability, orderingChannel, remoteSystemList[ 0 ].playerId, false );

	push	0
	mov	eax, 2058				; 0000080aH
	imul	ecx, eax, 0
	mov	edx, DWORD PTR _this$[ebp]
	mov	eax, DWORD PTR [edx-1718]
	lea	ecx, DWORD PTR [eax+ecx+1]
	sub	esp, 8
	mov	edx, esp
	mov	eax, DWORD PTR [ecx]
	mov	DWORD PTR [edx], eax
	mov	cx, WORD PTR [ecx+4]
	mov	WORD PTR [edx+4], cx
	movzx	edx, BYTE PTR _orderingChannel$[ebp]
	push	edx
	mov	eax, DWORD PTR _reliability$[ebp]
	push	eax
	mov	ecx, DWORD PTR _priority$[ebp]
	push	ecx
	mov	edx, DWORD PTR _bitStream$[ebp]
	push	edx
	mov	ecx, DWORD PTR _this$[ebp]
	sub	ecx, 2538				; 000009eaH
	call	?Send@RakPeer@@UAE_NPAVBitStream@RakNet@@W4PacketPriority@@W4PacketReliability@@DUPlayerID@@_N@Z ; RakPeer::Send
$LN2@Send:

; 111  : }

	pop	edi
	pop	esi
	pop	ebx
	add	esp, 204				; 000000ccH
	cmp	ebp, esp
	call	__RTC_CheckEsp
	mov	esp, ebp
	pop	ebp
	ret	16					; 00000010H
?Send@RakClient@@UAE_NPAVBitStream@RakNet@@W4PacketPriority@@W4PacketReliability@@D@Z ENDP ; RakClient::Send
_TEXT	ENDS
; Function compile flags: /Odtp /RTCsu /ZI
; File z:\sampsrc\02xu1\raknet\rakclient.cpp
;	COMDAT ?Send@RakClient@@UAE_NPBDHW4PacketPriority@@W4PacketReliability@@D@Z
_TEXT	SEGMENT
_this$ = -8						; size = 4
_data$ = 8						; size = 4
_length$ = 12						; size = 4
_priority$ = 16						; size = 4
_reliability$ = 20					; size = 4
_orderingChannel$ = 24					; size = 1
?Send@RakClient@@UAE_NPBDHW4PacketPriority@@W4PacketReliability@@D@Z PROC ; RakClient::Send, COMDAT
; _this$ = ecx

; 98   : {

	push	ebp
	mov	ebp, esp
	sub	esp, 204				; 000000ccH
	push	ebx
	push	esi
	push	edi
	push	ecx
	lea	edi, DWORD PTR [ebp-204]
	mov	ecx, 51					; 00000033H
	mov	eax, -858993460				; ccccccccH
	rep stosd
	pop	ecx
	mov	DWORD PTR _this$[ebp], ecx

; 99   : 	if ( remoteSystemList == 0 )

	mov	eax, DWORD PTR _this$[ebp]
	cmp	DWORD PTR [eax-1718], 0
	jne	SHORT $LN1@Send

; 100  : 		return false;

	xor	al, al
	jmp	SHORT $LN2@Send
$LN1@Send:

; 101  : 		
; 102  : 	return RakPeer::Send( data, length, priority, reliability, orderingChannel, remoteSystemList[ 0 ].playerId, false );

	push	0
	mov	eax, 2058				; 0000080aH
	imul	ecx, eax, 0
	mov	edx, DWORD PTR _this$[ebp]
	mov	eax, DWORD PTR [edx-1718]
	lea	ecx, DWORD PTR [eax+ecx+1]
	sub	esp, 8
	mov	edx, esp
	mov	eax, DWORD PTR [ecx]
	mov	DWORD PTR [edx], eax
	mov	cx, WORD PTR [ecx+4]
	mov	WORD PTR [edx+4], cx
	movzx	edx, BYTE PTR _orderingChannel$[ebp]
	push	edx
	mov	eax, DWORD PTR _reliability$[ebp]
	push	eax
	mov	ecx, DWORD PTR _priority$[ebp]
	push	ecx
	mov	edx, DWORD PTR _length$[ebp]
	push	edx
	mov	eax, DWORD PTR _data$[ebp]
	push	eax
	mov	ecx, DWORD PTR _this$[ebp]
	sub	ecx, 2538				; 000009eaH
	call	?Send@RakPeer@@UAE_NPBDHW4PacketPriority@@W4PacketReliability@@DUPlayerID@@_N@Z ; RakPeer::Send
$LN2@Send:

; 103  : }

	pop	edi
	pop	esi
	pop	ebx
	add	esp, 204				; 000000ccH
	cmp	ebp, esp
	call	__RTC_CheckEsp
	mov	esp, ebp
	pop	ebp
	ret	20					; 00000014H
?Send@RakClient@@UAE_NPBDHW4PacketPriority@@W4PacketReliability@@D@Z ENDP ; RakClient::Send
_TEXT	ENDS
; Function compile flags: /Odtp /RTCsu /ZI
; File z:\sampsrc\02xu1\raknet\rakclient.cpp
;	COMDAT ?HasPassword@RakClient@@UBE_NXZ
_TEXT	SEGMENT
tv69 = -208						; size = 4
_this$ = -8						; size = 4
?HasPassword@RakClient@@UBE_NXZ PROC			; RakClient::HasPassword, COMDAT
; _this$ = ecx

; 93   : {

	push	ebp
	mov	ebp, esp
	sub	esp, 208				; 000000d0H
	push	ebx
	push	esi
	push	edi
	push	ecx
	lea	edi, DWORD PTR [ebp-208]
	mov	ecx, 52					; 00000034H
	mov	eax, -858993460				; ccccccccH
	rep stosd
	pop	ecx
	mov	DWORD PTR _this$[ebp], ecx

; 94   : 	return password.GetNumberOfBytesUsed() > 0;

	mov	ecx, DWORD PTR _this$[ebp]
	add	ecx, 4
	call	?GetNumberOfBytesUsed@BitStream@RakNet@@QBEHXZ ; RakNet::BitStream::GetNumberOfBytesUsed
	test	eax, eax
	jle	SHORT $LN3@HasPasswor
	mov	DWORD PTR tv69[ebp], 1
	jmp	SHORT $LN4@HasPasswor
$LN3@HasPasswor:
	mov	DWORD PTR tv69[ebp], 0
$LN4@HasPasswor:
	mov	al, BYTE PTR tv69[ebp]

; 95   : }

	pop	edi
	pop	esi
	pop	ebx
	add	esp, 208				; 000000d0H
	cmp	ebp, esp
	call	__RTC_CheckEsp
	mov	esp, ebp
	pop	ebp
	ret	0
?HasPassword@RakClient@@UBE_NXZ ENDP			; RakClient::HasPassword
_TEXT	ENDS
; Function compile flags: /Odtp /RTCsu /ZI
; File z:\sampsrc\02xu1\raknet\rakclient.cpp
;	COMDAT ?SetPassword@RakClient@@UAEXPBD@Z
_TEXT	SEGMENT
_this$ = -8						; size = 4
__password$ = 8						; size = 4
?SetPassword@RakClient@@UAEXPBD@Z PROC			; RakClient::SetPassword, COMDAT
; _this$ = ecx

; 82   : {

	push	ebp
	mov	ebp, esp
	sub	esp, 204				; 000000ccH
	push	ebx
	push	esi
	push	edi
	push	ecx
	lea	edi, DWORD PTR [ebp-204]
	mov	ecx, 51					; 00000033H
	mov	eax, -858993460				; ccccccccH
	rep stosd
	pop	ecx
	mov	DWORD PTR _this$[ebp], ecx

; 83   : 	if ( _password == 0 || _password[ 0 ] == 0 )

	cmp	DWORD PTR __password$[ebp], 0
	je	SHORT $LN2@SetPasswor
	mov	eax, 1
	imul	ecx, eax, 0
	mov	edx, DWORD PTR __password$[ebp]
	movsx	eax, BYTE PTR [edx+ecx]
	test	eax, eax
	jne	SHORT $LN3@SetPasswor
$LN2@SetPasswor:

; 84   : 		password.Reset();

	mov	ecx, DWORD PTR _this$[ebp]
	add	ecx, 4
	call	?Reset@BitStream@RakNet@@QAEXXZ		; RakNet::BitStream::Reset

; 85   : 	else

	jmp	SHORT $LN4@SetPasswor
$LN3@SetPasswor:

; 86   : 	{
; 87   : 		password.Reset();

	mov	ecx, DWORD PTR _this$[ebp]
	add	ecx, 4
	call	?Reset@BitStream@RakNet@@QAEXXZ		; RakNet::BitStream::Reset

; 88   : 		password.Write( _password, ( int ) strlen( _password ) + 1 );

	mov	eax, DWORD PTR __password$[ebp]
	push	eax
	call	_strlen
	add	esp, 4
	add	eax, 1
	push	eax
	mov	ecx, DWORD PTR __password$[ebp]
	push	ecx
	mov	ecx, DWORD PTR _this$[ebp]
	add	ecx, 4
	call	?Write@BitStream@RakNet@@QAEXPBDH@Z	; RakNet::BitStream::Write
$LN4@SetPasswor:

; 89   : 	}
; 90   : }

	pop	edi
	pop	esi
	pop	ebx
	add	esp, 204				; 000000ccH
	cmp	ebp, esp
	call	__RTC_CheckEsp
	mov	esp, ebp
	pop	ebp
	ret	4
?SetPassword@RakClient@@UAEXPBD@Z ENDP			; RakClient::SetPassword
_TEXT	ENDS
; Function compile flags: /Odtp /RTCsu /ZI
; File z:\sampsrc\02xu1\raknet\rakclient.cpp
;	COMDAT ?InitializeSecurity@RakClient@@UAEXPBD0@Z
_TEXT	SEGMENT
_this$ = -8						; size = 4
_privKeyP$ = 8						; size = 4
_privKeyQ$ = 12						; size = 4
?InitializeSecurity@RakClient@@UAEXPBD0@Z PROC		; RakClient::InitializeSecurity, COMDAT
; _this$ = ecx

; 77   : {

	push	ebp
	mov	ebp, esp
	sub	esp, 204				; 000000ccH
	push	ebx
	push	esi
	push	edi
	push	ecx
	lea	edi, DWORD PTR [ebp-204]
	mov	ecx, 51					; 00000033H
	mov	eax, -858993460				; ccccccccH
	rep stosd
	pop	ecx
	mov	DWORD PTR _this$[ebp], ecx

; 78   : 	RakPeer::InitializeSecurity( privKeyP, privKeyQ, 0, 0 );

	push	0
	push	0
	mov	eax, DWORD PTR _privKeyQ$[ebp]
	push	eax
	mov	ecx, DWORD PTR _privKeyP$[ebp]
	push	ecx
	mov	ecx, DWORD PTR _this$[ebp]
	sub	ecx, 2538				; 000009eaH
	call	?InitializeSecurity@RakPeer@@UAEXPBD000@Z ; RakPeer::InitializeSecurity

; 79   : }

	pop	edi
	pop	esi
	pop	ebx
	add	esp, 204				; 000000ccH
	cmp	ebp, esp
	call	__RTC_CheckEsp
	mov	esp, ebp
	pop	ebp
	ret	8
?InitializeSecurity@RakClient@@UAEXPBD0@Z ENDP		; RakClient::InitializeSecurity
_TEXT	ENDS
; Function compile flags: /Odtp /RTCsu /ZI
; File z:\sampsrc\02xu1\raknet\rakclient.cpp
;	COMDAT ?Disconnect@RakClient@@UAEXIE@Z
_TEXT	SEGMENT
_this$ = -8						; size = 4
_blockDuration$ = 8					; size = 4
_orderingChannel$ = 12					; size = 1
?Disconnect@RakClient@@UAEXIE@Z PROC			; RakClient::Disconnect, COMDAT
; _this$ = ecx

; 72   : {

	push	ebp
	mov	ebp, esp
	sub	esp, 204				; 000000ccH
	push	ebx
	push	esi
	push	edi
	push	ecx
	lea	edi, DWORD PTR [ebp-204]
	mov	ecx, 51					; 00000033H
	mov	eax, -858993460				; ccccccccH
	rep stosd
	pop	ecx
	mov	DWORD PTR _this$[ebp], ecx

; 73   : 	RakPeer::Disconnect( blockDuration, orderingChannel );

	movzx	eax, BYTE PTR _orderingChannel$[ebp]
	push	eax
	mov	ecx, DWORD PTR _blockDuration$[ebp]
	push	ecx
	mov	ecx, DWORD PTR _this$[ebp]
	call	?Disconnect@RakPeer@@UAEXIE@Z		; RakPeer::Disconnect

; 74   : }

	pop	edi
	pop	esi
	pop	ebx
	add	esp, 204				; 000000ccH
	cmp	ebp, esp
	call	__RTC_CheckEsp
	mov	esp, ebp
	pop	ebp
	ret	8
?Disconnect@RakClient@@UAEXIE@Z ENDP			; RakClient::Disconnect
_TEXT	ENDS
; Function compile flags: /Odtp /RTCsu /ZI
; File z:\sampsrc\02xu1\raknet\rakclient.cpp
;	COMDAT ?Connect@RakClient@@UAE_NPBDGGIH@Z
_TEXT	SEGMENT
_i$ = -20						; size = 4
_this$ = -8						; size = 4
_host$ = 8						; size = 4
_serverPort$ = 12					; size = 2
_clientPort$ = 16					; size = 2
_depreciated$ = 20					; size = 4
_threadSleepTimer$ = 24					; size = 4
?Connect@RakClient@@UAE_NPBDGGIH@Z PROC			; RakClient::Connect, COMDAT
; _this$ = ecx

; 44   : {

	push	ebp
	mov	ebp, esp
	sub	esp, 216				; 000000d8H
	push	ebx
	push	esi
	push	edi
	push	ecx
	lea	edi, DWORD PTR [ebp-216]
	mov	ecx, 54					; 00000036H
	mov	eax, -858993460				; ccccccccH
	rep stosd
	pop	ecx
	mov	DWORD PTR _this$[ebp], ecx

; 45   : 	RakPeer::Disconnect( 100 );

	push	0
	push	100					; 00000064H
	mov	ecx, DWORD PTR _this$[ebp]
	sub	ecx, 2538				; 000009eaH
	call	?Disconnect@RakPeer@@UAEXIE@Z		; RakPeer::Disconnect

; 46   : 	
; 47   : 	RakPeer::Initialize( 1, clientPort, threadSleepTimer );

	push	0
	mov	eax, DWORD PTR _threadSleepTimer$[ebp]
	push	eax
	movzx	ecx, WORD PTR _clientPort$[ebp]
	push	ecx
	push	1
	mov	ecx, DWORD PTR _this$[ebp]
	sub	ecx, 2538				; 000009eaH
	call	?Initialize@RakPeer@@UAE_NGGHPBD@Z	; RakPeer::Initialize

; 48   : 	
; 49   : 	if ( host[ 0 ] < '0' || host[ 0 ] > '2' )

	mov	eax, 1
	imul	ecx, eax, 0
	mov	edx, DWORD PTR _host$[ebp]
	movsx	eax, BYTE PTR [edx+ecx]
	cmp	eax, 48					; 00000030H
	jl	SHORT $LN4@Connect
	mov	eax, 1
	imul	ecx, eax, 0
	mov	edx, DWORD PTR _host$[ebp]
	movsx	eax, BYTE PTR [edx+ecx]
	cmp	eax, 50					; 00000032H
	jle	SHORT $LN5@Connect
$LN4@Connect:

; 50   : 	{
; 51   : #if !defined(_COMPATIBILITY_1)
; 52   : 		host = ( char* ) SocketLayer::Instance()->DomainNameToIP( host );

	mov	eax, DWORD PTR _host$[ebp]
	push	eax
	call	?Instance@SocketLayer@@SAPAV1@XZ	; SocketLayer::Instance
	mov	ecx, eax
	call	?DomainNameToIP@SocketLayer@@QAEPBDPBD@Z ; SocketLayer::DomainNameToIP
	mov	DWORD PTR _host$[ebp], eax
$LN5@Connect:

; 53   : #else
; 54   : 		return false;
; 55   : #endif
; 56   : 	}
; 57   : 	
; 58   : 	unsigned i;
; 59   : 	
; 60   : 	for ( i = 0; i < 32; i++ )

	mov	DWORD PTR _i$[ebp], 0
	jmp	SHORT $LN3@Connect
$LN2@Connect:
	mov	eax, DWORD PTR _i$[ebp]
	add	eax, 1
	mov	DWORD PTR _i$[ebp], eax
$LN3@Connect:
	cmp	DWORD PTR _i$[ebp], 32			; 00000020H
	jae	SHORT $LN1@Connect

; 61   : 	{
; 62   : 		otherClients[ i ].isActive = false;

	imul	eax, DWORD PTR _i$[ebp], 282
	mov	ecx, DWORD PTR _this$[ebp]
	mov	BYTE PTR [ecx+eax+558], 0

; 63   : 		otherClients[ i ].playerId = UNASSIGNED_PLAYER_ID;

	push	OFFSET _UNASSIGNED_PLAYER_ID
	imul	eax, DWORD PTR _i$[ebp], 282
	mov	ecx, DWORD PTR _this$[ebp]
	lea	ecx, DWORD PTR [ecx+eax+277]
	call	??4PlayerID@@QAEAAU0@ABU0@@Z		; PlayerID::operator=

; 64   : 		otherClients[ i ].staticData.Reset();

	imul	eax, DWORD PTR _i$[ebp], 282
	mov	ecx, DWORD PTR _this$[ebp]
	lea	ecx, DWORD PTR [ecx+eax+285]
	call	?Reset@BitStream@RakNet@@QAEXXZ		; RakNet::BitStream::Reset

; 65   : 	}

	jmp	SHORT $LN2@Connect
$LN1@Connect:

; 66   : 	
; 67   : 	// ignore depreciated. A pointless variable
; 68   : 	return RakPeer::Connect( host, serverPort, ( char* ) password.GetData(), password.GetNumberOfBytesUsed() );

	mov	ecx, DWORD PTR _this$[ebp]
	add	ecx, 4
	call	?GetNumberOfBytesUsed@BitStream@RakNet@@QBEHXZ ; RakNet::BitStream::GetNumberOfBytesUsed
	push	eax
	mov	ecx, DWORD PTR _this$[ebp]
	add	ecx, 4
	call	?GetData@BitStream@RakNet@@QBEPAEXZ	; RakNet::BitStream::GetData
	push	eax
	movzx	eax, WORD PTR _serverPort$[ebp]
	push	eax
	mov	ecx, DWORD PTR _host$[ebp]
	push	ecx
	mov	ecx, DWORD PTR _this$[ebp]
	sub	ecx, 2538				; 000009eaH
	call	?Connect@RakPeer@@UAE_NPBDGPADH@Z	; RakPeer::Connect

; 69   : }

	pop	edi
	pop	esi
	pop	ebx
	add	esp, 216				; 000000d8H
	cmp	ebp, esp
	call	__RTC_CheckEsp
	mov	esp, ebp
	pop	ebp
	ret	20					; 00000014H
?Connect@RakClient@@UAE_NPBDGGIH@Z ENDP			; RakClient::Connect
_TEXT	ENDS
; Function compile flags: /Odtp /RTCsu /ZI
; File z:\sampsrc\02xu1\raknet\rakclient.cpp
;	COMDAT ??1RakClient@@UAE@XZ
_TEXT	SEGMENT
_this$ = -20						; size = 4
__$EHRec$ = -12						; size = 12
??1RakClient@@UAE@XZ PROC				; RakClient::~RakClient, COMDAT
; _this$ = ecx

; 38   : {}

	push	ebp
	mov	ebp, esp
	push	-1
	push	__ehhandler$??1RakClient@@UAE@XZ
	mov	eax, DWORD PTR fs:0
	push	eax
	sub	esp, 204				; 000000ccH
	push	ebx
	push	esi
	push	edi
	push	ecx
	lea	edi, DWORD PTR [ebp-216]
	mov	ecx, 51					; 00000033H
	mov	eax, -858993460				; ccccccccH
	rep stosd
	pop	ecx
	mov	eax, DWORD PTR ___security_cookie
	xor	eax, ebp
	push	eax
	lea	eax, DWORD PTR __$EHRec$[ebp]
	mov	DWORD PTR fs:0, eax
	mov	DWORD PTR _this$[ebp], ecx
	mov	eax, DWORD PTR _this$[ebp]
	mov	DWORD PTR [eax], OFFSET ??_7RakClient@@6BRakPeer@@@
	mov	eax, DWORD PTR _this$[ebp]
	mov	DWORD PTR [eax+2538], OFFSET ??_7RakClient@@6BRakClientInterface@@@
	mov	DWORD PTR __$EHRec$[ebp+8], 2
	push	OFFSET ??1OtherClientsStruct@RakClient@@QAE@XZ
	push	32					; 00000020H
	push	282					; 0000011aH
	mov	eax, DWORD PTR _this$[ebp]
	add	eax, 2815				; 00000affH
	push	eax
	call	??_M@YGXPAXIHP6EX0@Z@Z
	mov	BYTE PTR __$EHRec$[ebp+8], 1
	mov	ecx, DWORD PTR _this$[ebp]
	add	ecx, 2542				; 000009eeH
	call	??1BitStream@RakNet@@QAE@XZ		; RakNet::BitStream::~BitStream
	mov	BYTE PTR __$EHRec$[ebp+8], 0
	mov	ecx, DWORD PTR _this$[ebp]
	add	ecx, 2538				; 000009eaH
	call	??1RakClientInterface@@UAE@XZ		; RakClientInterface::~RakClientInterface
	mov	DWORD PTR __$EHRec$[ebp+8], -1
	mov	ecx, DWORD PTR _this$[ebp]
	call	??1RakPeer@@UAE@XZ			; RakPeer::~RakPeer
	mov	ecx, DWORD PTR __$EHRec$[ebp]
	mov	DWORD PTR fs:0, ecx
	pop	ecx
	pop	edi
	pop	esi
	pop	ebx
	add	esp, 216				; 000000d8H
	cmp	ebp, esp
	call	__RTC_CheckEsp
	mov	esp, ebp
	pop	ebp
	ret	0
_TEXT	ENDS
;	COMDAT text$x
text$x	SEGMENT
__unwindfunclet$??1RakClient@@UAE@XZ$0:
	mov	ecx, DWORD PTR _this$[ebp]
	jmp	??1RakPeer@@UAE@XZ			; RakPeer::~RakPeer
__unwindfunclet$??1RakClient@@UAE@XZ$1:
	mov	ecx, DWORD PTR _this$[ebp]
	add	ecx, 2538				; 000009eaH
	jmp	??1RakClientInterface@@UAE@XZ		; RakClientInterface::~RakClientInterface
__unwindfunclet$??1RakClient@@UAE@XZ$2:
	mov	ecx, DWORD PTR _this$[ebp]
	add	ecx, 2542				; 000009eeH
	jmp	??1BitStream@RakNet@@QAE@XZ		; RakNet::BitStream::~BitStream
__ehhandler$??1RakClient@@UAE@XZ:
	mov	edx, DWORD PTR [esp+8]
	lea	eax, DWORD PTR [edx+12]
	mov	ecx, DWORD PTR [edx-220]
	xor	ecx, eax
	call	@__security_check_cookie@4
	mov	eax, OFFSET __ehfuncinfo$??1RakClient@@UAE@XZ
	jmp	___CxxFrameHandler3
text$x	ENDS
??1RakClient@@UAE@XZ ENDP				; RakClient::~RakClient
; Function compile flags: /Odtp /RTCsu /ZI
; File z:\sampsrc\02xu1\raknet\rakclient.cpp
;	COMDAT ??0RakClient@@QAE@XZ
_TEXT	SEGMENT
_i$ = -32						; size = 4
_this$ = -20						; size = 4
__$EHRec$ = -12						; size = 12
??0RakClient@@QAE@XZ PROC				; RakClient::RakClient, COMDAT
; _this$ = ecx

; 27   : {

	push	ebp
	mov	ebp, esp
	push	-1
	push	__ehhandler$??0RakClient@@QAE@XZ
	mov	eax, DWORD PTR fs:0
	push	eax
	sub	esp, 216				; 000000d8H
	push	ebx
	push	esi
	push	edi
	push	ecx
	lea	edi, DWORD PTR [ebp-228]
	mov	ecx, 54					; 00000036H
	mov	eax, -858993460				; ccccccccH
	rep stosd
	pop	ecx
	mov	eax, DWORD PTR ___security_cookie
	xor	eax, ebp
	push	eax
	lea	eax, DWORD PTR __$EHRec$[ebp]
	mov	DWORD PTR fs:0, eax
	mov	DWORD PTR _this$[ebp], ecx
	mov	ecx, DWORD PTR _this$[ebp]
	call	??0RakPeer@@QAE@XZ			; RakPeer::RakPeer
	mov	DWORD PTR __$EHRec$[ebp+8], 0
	mov	ecx, DWORD PTR _this$[ebp]
	add	ecx, 2538				; 000009eaH
	call	??0RakClientInterface@@QAE@XZ
	mov	BYTE PTR __$EHRec$[ebp+8], 1
	mov	eax, DWORD PTR _this$[ebp]
	mov	DWORD PTR [eax], OFFSET ??_7RakClient@@6BRakPeer@@@
	mov	eax, DWORD PTR _this$[ebp]
	mov	DWORD PTR [eax+2538], OFFSET ??_7RakClient@@6BRakClientInterface@@@
	mov	ecx, DWORD PTR _this$[ebp]
	add	ecx, 2542				; 000009eeH
	call	??0BitStream@RakNet@@QAE@XZ		; RakNet::BitStream::BitStream
	mov	BYTE PTR __$EHRec$[ebp+8], 2
	push	OFFSET ??1OtherClientsStruct@RakClient@@QAE@XZ
	push	OFFSET ??0OtherClientsStruct@RakClient@@QAE@XZ
	push	32					; 00000020H
	push	282					; 0000011aH
	mov	eax, DWORD PTR _this$[ebp]
	add	eax, 2815				; 00000affH
	push	eax
	call	??_L@YGXPAXIHP6EX0@Z1@Z

; 28   : 	unsigned i;
; 29   : 	
; 30   : 	for ( i = 0; i < 32; i++ )

	mov	DWORD PTR _i$[ebp], 0
	jmp	SHORT $LN3@RakClient
$LN2@RakClient:
	mov	eax, DWORD PTR _i$[ebp]
	add	eax, 1
	mov	DWORD PTR _i$[ebp], eax
$LN3@RakClient:
	cmp	DWORD PTR _i$[ebp], 32			; 00000020H
	jae	SHORT $LN1@RakClient

; 31   : 		otherClients[ i ].isActive = false;

	imul	eax, DWORD PTR _i$[ebp], 282
	mov	ecx, DWORD PTR _this$[ebp]
	mov	BYTE PTR [ecx+eax+3096], 0
	jmp	SHORT $LN2@RakClient
$LN1@RakClient:

; 32   : 		
; 33   : 	nextSeedUpdate = 0;

	mov	eax, DWORD PTR _this$[ebp]
	mov	DWORD PTR [eax+11847], 0

; 34   : }

	mov	DWORD PTR __$EHRec$[ebp+8], -1
	mov	eax, DWORD PTR _this$[ebp]
	mov	ecx, DWORD PTR __$EHRec$[ebp]
	mov	DWORD PTR fs:0, ecx
	pop	ecx
	pop	edi
	pop	esi
	pop	ebx
	add	esp, 228				; 000000e4H
	cmp	ebp, esp
	call	__RTC_CheckEsp
	mov	esp, ebp
	pop	ebp
	ret	0
_TEXT	ENDS
;	COMDAT text$x
text$x	SEGMENT
__unwindfunclet$??0RakClient@@QAE@XZ$0:
	mov	ecx, DWORD PTR _this$[ebp]
	jmp	??1RakPeer@@UAE@XZ			; RakPeer::~RakPeer
__unwindfunclet$??0RakClient@@QAE@XZ$1:
	mov	ecx, DWORD PTR _this$[ebp]
	add	ecx, 2538				; 000009eaH
	jmp	??1RakClientInterface@@UAE@XZ		; RakClientInterface::~RakClientInterface
__unwindfunclet$??0RakClient@@QAE@XZ$2:
	mov	ecx, DWORD PTR _this$[ebp]
	add	ecx, 2542				; 000009eeH
	jmp	??1BitStream@RakNet@@QAE@XZ		; RakNet::BitStream::~BitStream
__ehhandler$??0RakClient@@QAE@XZ:
	mov	edx, DWORD PTR [esp+8]
	lea	eax, DWORD PTR [edx+12]
	mov	ecx, DWORD PTR [edx-232]
	xor	ecx, eax
	call	@__security_check_cookie@4
	mov	eax, OFFSET __ehfuncinfo$??0RakClient@@QAE@XZ
	jmp	___CxxFrameHandler3
text$x	ENDS
??0RakClient@@QAE@XZ ENDP				; RakClient::RakClient
; Function compile flags: /Odtp /RTCsu /ZI
;	COMDAT ??_GRakClientInterface@@UAEPAXI@Z
_TEXT	SEGMENT
_this$ = -8						; size = 4
___flags$ = 8						; size = 4
??_GRakClientInterface@@UAEPAXI@Z PROC			; RakClientInterface::`scalar deleting destructor', COMDAT
; _this$ = ecx
	push	ebp
	mov	ebp, esp
	sub	esp, 204				; 000000ccH
	push	ebx
	push	esi
	push	edi
	push	ecx
	lea	edi, DWORD PTR [ebp-204]
	mov	ecx, 51					; 00000033H
	mov	eax, -858993460				; ccccccccH
	rep stosd
	pop	ecx
	mov	DWORD PTR _this$[ebp], ecx
	mov	ecx, DWORD PTR _this$[ebp]
	call	??1RakClientInterface@@UAE@XZ		; RakClientInterface::~RakClientInterface
	mov	eax, DWORD PTR ___flags$[ebp]
	and	eax, 1
	je	SHORT $LN1@scalar
	mov	eax, DWORD PTR _this$[ebp]
	push	eax
	call	??3@YAXPAX@Z				; operator delete
	add	esp, 4
$LN1@scalar:
	mov	eax, DWORD PTR _this$[ebp]
	pop	edi
	pop	esi
	pop	ebx
	add	esp, 204				; 000000ccH
	cmp	ebp, esp
	call	__RTC_CheckEsp
	mov	esp, ebp
	pop	ebp
	ret	4
??_GRakClientInterface@@UAEPAXI@Z ENDP			; RakClientInterface::`scalar deleting destructor'
_TEXT	ENDS
; Function compile flags: /Odtp /RTCsu /ZI
;	COMDAT ??0RakClientInterface@@QAE@XZ
_TEXT	SEGMENT
_this$ = -8						; size = 4
??0RakClientInterface@@QAE@XZ PROC			; RakClientInterface::RakClientInterface, COMDAT
; _this$ = ecx
	push	ebp
	mov	ebp, esp
	sub	esp, 204				; 000000ccH
	push	ebx
	push	esi
	push	edi
	push	ecx
	lea	edi, DWORD PTR [ebp-204]
	mov	ecx, 51					; 00000033H
	mov	eax, -858993460				; ccccccccH
	rep stosd
	pop	ecx
	mov	DWORD PTR _this$[ebp], ecx
	mov	eax, DWORD PTR _this$[ebp]
	mov	DWORD PTR [eax], OFFSET ??_7RakClientInterface@@6B@
	mov	eax, DWORD PTR _this$[ebp]
	pop	edi
	pop	esi
	pop	ebx
	mov	esp, ebp
	pop	ebp
	ret	0
??0RakClientInterface@@QAE@XZ ENDP			; RakClientInterface::RakClientInterface
_TEXT	ENDS
; Function compile flags: /Odtp /RTCsu /ZI
; File z:\sampsrc\02xu1\raknet\rakclientinterface.h
;	COMDAT ??1RakClientInterface@@UAE@XZ
_TEXT	SEGMENT
_this$ = -8						; size = 4
??1RakClientInterface@@UAE@XZ PROC			; RakClientInterface::~RakClientInterface, COMDAT
; _this$ = ecx

; 35   : 	virtual ~RakClientInterface() {}

	push	ebp
	mov	ebp, esp
	sub	esp, 204				; 000000ccH
	push	ebx
	push	esi
	push	edi
	push	ecx
	lea	edi, DWORD PTR [ebp-204]
	mov	ecx, 51					; 00000033H
	mov	eax, -858993460				; ccccccccH
	rep stosd
	pop	ecx
	mov	DWORD PTR _this$[ebp], ecx
	mov	eax, DWORD PTR _this$[ebp]
	mov	DWORD PTR [eax], OFFSET ??_7RakClientInterface@@6B@
	pop	edi
	pop	esi
	pop	ebx
	mov	esp, ebp
	pop	ebp
	ret	0
??1RakClientInterface@@UAE@XZ ENDP			; RakClientInterface::~RakClientInterface
_TEXT	ENDS
; Function compile flags: /Odtp /RTCsu /ZI
; File z:\sampsrc\02xu1\raknet\bitstream.h
;	COMDAT ??$Read@G@BitStream@RakNet@@QAE_NAAG@Z
_TEXT	SEGMENT
_this$ = -8						; size = 4
_var$ = 8						; size = 4
??$Read@G@BitStream@RakNet@@QAE_NAAG@Z PROC		; RakNet::BitStream::Read<unsigned short>, COMDAT
; _this$ = ecx

; 987  : 	{

	push	ebp
	mov	ebp, esp
	sub	esp, 204				; 000000ccH
	push	ebx
	push	esi
	push	edi
	push	ecx
	lea	edi, DWORD PTR [ebp-204]
	mov	ecx, 51					; 00000033H
	mov	eax, -858993460				; ccccccccH
	rep stosd
	pop	ecx
	mov	DWORD PTR _this$[ebp], ecx

; 988  : #ifdef _MSC_VER
; 989  : #pragma warning(disable:4127)   // conditional expression is constant
; 990  : #endif
; 991  : 		if (sizeof(var)==1)

	xor	eax, eax
	je	SHORT $LN2@Read

; 992  : 			return ReadBits( ( unsigned char* ) &var, sizeof(templateType) * 8, true );

	push	1
	push	16					; 00000010H
	mov	eax, DWORD PTR _var$[ebp]
	push	eax
	mov	ecx, DWORD PTR _this$[ebp]
	call	?ReadBits@BitStream@RakNet@@QAE_NPAEH_N@Z ; RakNet::BitStream::ReadBits
	jmp	SHORT $LN3@Read

; 993  : 		else

	jmp	SHORT $LN3@Read
$LN2@Read:

; 994  : 		{
; 995  : #ifndef __BITSTREAM_NATIVE_END
; 996  : #ifdef _MSC_VER
; 997  : #pragma warning(disable:4244)   // '=' : conversion from 'unsigned long' to 'unsigned short', possible loss of data
; 998  : #endif
; 999  : 			if (DoEndianSwap())
; 1000 : 			{
; 1001 : 				unsigned char output[sizeof(templateType)];
; 1002 : 				if (ReadBits( ( unsigned char* ) output, sizeof(templateType) * 8, true ))
; 1003 : 				{
; 1004 : 					ReverseBytes(output, (unsigned char*)&var, sizeof(templateType));
; 1005 : 					return true;
; 1006 : 				}
; 1007 : 				return false;
; 1008 : 			}
; 1009 : 			else
; 1010 : #endif
; 1011 : 				return ReadBits( ( unsigned char* ) & var, sizeof(templateType) * 8, true );

	push	1
	push	16					; 00000010H
	mov	eax, DWORD PTR _var$[ebp]
	push	eax
	mov	ecx, DWORD PTR _this$[ebp]
	call	?ReadBits@BitStream@RakNet@@QAE_NPAEH_N@Z ; RakNet::BitStream::ReadBits
$LN3@Read:

; 1012 : 		}
; 1013 : 	}

	pop	edi
	pop	esi
	pop	ebx
	add	esp, 204				; 000000ccH
	cmp	ebp, esp
	call	__RTC_CheckEsp
	mov	esp, ebp
	pop	ebp
	ret	4
??$Read@G@BitStream@RakNet@@QAE_NAAG@Z ENDP		; RakNet::BitStream::Read<unsigned short>
_TEXT	ENDS
; Function compile flags: /Odtp /RTCsu /ZI
; File z:\sampsrc\02xu1\raknet\bitstream.h
;	COMDAT ??$Read@I@BitStream@RakNet@@QAE_NAAI@Z
_TEXT	SEGMENT
_this$ = -8						; size = 4
_var$ = 8						; size = 4
??$Read@I@BitStream@RakNet@@QAE_NAAI@Z PROC		; RakNet::BitStream::Read<unsigned int>, COMDAT
; _this$ = ecx

; 987  : 	{

	push	ebp
	mov	ebp, esp
	sub	esp, 204				; 000000ccH
	push	ebx
	push	esi
	push	edi
	push	ecx
	lea	edi, DWORD PTR [ebp-204]
	mov	ecx, 51					; 00000033H
	mov	eax, -858993460				; ccccccccH
	rep stosd
	pop	ecx
	mov	DWORD PTR _this$[ebp], ecx

; 988  : #ifdef _MSC_VER
; 989  : #pragma warning(disable:4127)   // conditional expression is constant
; 990  : #endif
; 991  : 		if (sizeof(var)==1)

	xor	eax, eax
	je	SHORT $LN2@Read

; 992  : 			return ReadBits( ( unsigned char* ) &var, sizeof(templateType) * 8, true );

	push	1
	push	32					; 00000020H
	mov	eax, DWORD PTR _var$[ebp]
	push	eax
	mov	ecx, DWORD PTR _this$[ebp]
	call	?ReadBits@BitStream@RakNet@@QAE_NPAEH_N@Z ; RakNet::BitStream::ReadBits
	jmp	SHORT $LN3@Read

; 993  : 		else

	jmp	SHORT $LN3@Read
$LN2@Read:

; 994  : 		{
; 995  : #ifndef __BITSTREAM_NATIVE_END
; 996  : #ifdef _MSC_VER
; 997  : #pragma warning(disable:4244)   // '=' : conversion from 'unsigned long' to 'unsigned short', possible loss of data
; 998  : #endif
; 999  : 			if (DoEndianSwap())
; 1000 : 			{
; 1001 : 				unsigned char output[sizeof(templateType)];
; 1002 : 				if (ReadBits( ( unsigned char* ) output, sizeof(templateType) * 8, true ))
; 1003 : 				{
; 1004 : 					ReverseBytes(output, (unsigned char*)&var, sizeof(templateType));
; 1005 : 					return true;
; 1006 : 				}
; 1007 : 				return false;
; 1008 : 			}
; 1009 : 			else
; 1010 : #endif
; 1011 : 				return ReadBits( ( unsigned char* ) & var, sizeof(templateType) * 8, true );

	push	1
	push	32					; 00000020H
	mov	eax, DWORD PTR _var$[ebp]
	push	eax
	mov	ecx, DWORD PTR _this$[ebp]
	call	?ReadBits@BitStream@RakNet@@QAE_NPAEH_N@Z ; RakNet::BitStream::ReadBits
$LN3@Read:

; 1012 : 		}
; 1013 : 	}

	pop	edi
	pop	esi
	pop	ebx
	add	esp, 204				; 000000ccH
	cmp	ebp, esp
	call	__RTC_CheckEsp
	mov	esp, ebp
	pop	ebp
	ret	4
??$Read@I@BitStream@RakNet@@QAE_NAAI@Z ENDP		; RakNet::BitStream::Read<unsigned int>
_TEXT	ENDS
; Function compile flags: /Odtp /RTCsu /ZI
; File z:\sampsrc\02xu1\raknet\bitstream.h
;	COMDAT ?GetData@BitStream@RakNet@@QBEPAEXZ
_TEXT	SEGMENT
_this$ = -8						; size = 4
?GetData@BitStream@RakNet@@QBEPAEXZ PROC		; RakNet::BitStream::GetData, COMDAT
; _this$ = ecx

; 397  : 		inline unsigned char* GetData( void ) const {return data;}

	push	ebp
	mov	ebp, esp
	sub	esp, 204				; 000000ccH
	push	ebx
	push	esi
	push	edi
	push	ecx
	lea	edi, DWORD PTR [ebp-204]
	mov	ecx, 51					; 00000033H
	mov	eax, -858993460				; ccccccccH
	rep stosd
	pop	ecx
	mov	DWORD PTR _this$[ebp], ecx
	mov	eax, DWORD PTR _this$[ebp]
	mov	eax, DWORD PTR [eax+12]
	pop	edi
	pop	esi
	pop	ebx
	mov	esp, ebp
	pop	ebp
	ret	0
?GetData@BitStream@RakNet@@QBEPAEXZ ENDP		; RakNet::BitStream::GetData
_TEXT	ENDS
; Function compile flags: /Odtp /RTCsu /ZI
; File z:\sampsrc\02xu1\raknet\bitstream.h
;	COMDAT ?GetReadOffset@BitStream@RakNet@@QBEHXZ
_TEXT	SEGMENT
_this$ = -8						; size = 4
?GetReadOffset@BitStream@RakNet@@QBEHXZ PROC		; RakNet::BitStream::GetReadOffset, COMDAT
; _this$ = ecx

; 376  : 		inline int GetReadOffset( void ) const {return readOffset;}

	push	ebp
	mov	ebp, esp
	sub	esp, 204				; 000000ccH
	push	ebx
	push	esi
	push	edi
	push	ecx
	lea	edi, DWORD PTR [ebp-204]
	mov	ecx, 51					; 00000033H
	mov	eax, -858993460				; ccccccccH
	rep stosd
	pop	ecx
	mov	DWORD PTR _this$[ebp], ecx
	mov	eax, DWORD PTR _this$[ebp]
	mov	eax, DWORD PTR [eax+8]
	pop	edi
	pop	esi
	pop	ebx
	mov	esp, ebp
	pop	ebp
	ret	0
?GetReadOffset@BitStream@RakNet@@QBEHXZ ENDP		; RakNet::BitStream::GetReadOffset
_TEXT	ENDS
; Function compile flags: /Odtp /RTCsu /ZI
; File z:\sampsrc\02xu1\raknet\bitstream.h
;	COMDAT ?GetNumberOfBytesUsed@BitStream@RakNet@@QBEHXZ
_TEXT	SEGMENT
_this$ = -8						; size = 4
?GetNumberOfBytesUsed@BitStream@RakNet@@QBEHXZ PROC	; RakNet::BitStream::GetNumberOfBytesUsed, COMDAT
; _this$ = ecx

; 373  : 		inline int GetNumberOfBytesUsed( void ) const {return BITS_TO_BYTES( numberOfBitsUsed );}

	push	ebp
	mov	ebp, esp
	sub	esp, 204				; 000000ccH
	push	ebx
	push	esi
	push	edi
	push	ecx
	lea	edi, DWORD PTR [ebp-204]
	mov	ecx, 51					; 00000033H
	mov	eax, -858993460				; ccccccccH
	rep stosd
	pop	ecx
	mov	DWORD PTR _this$[ebp], ecx
	mov	eax, DWORD PTR _this$[ebp]
	mov	eax, DWORD PTR [eax]
	add	eax, 7
	sar	eax, 3
	pop	edi
	pop	esi
	pop	ebx
	mov	esp, ebp
	pop	ebp
	ret	0
?GetNumberOfBytesUsed@BitStream@RakNet@@QBEHXZ ENDP	; RakNet::BitStream::GetNumberOfBytesUsed
_TEXT	ENDS
; Function compile flags: /Odtp /RTCsu /ZI
; File z:\sampsrc\02xu1\raknet\socketlayer.h
;	COMDAT ?Instance@SocketLayer@@SAPAV1@XZ
_TEXT	SEGMENT
?Instance@SocketLayer@@SAPAV1@XZ PROC			; SocketLayer::Instance, COMDAT

; 60   : 	{

	push	ebp
	mov	ebp, esp
	sub	esp, 192				; 000000c0H
	push	ebx
	push	esi
	push	edi
	lea	edi, DWORD PTR [ebp-192]
	mov	ecx, 48					; 00000030H
	mov	eax, -858993460				; ccccccccH
	rep stosd

; 61   : 		return & I;

	mov	eax, OFFSET ?I@SocketLayer@@0V1@A	; SocketLayer::I

; 62   : 	}

	pop	edi
	pop	esi
	pop	ebx
	mov	esp, ebp
	pop	ebp
	ret	0
?Instance@SocketLayer@@SAPAV1@XZ ENDP			; SocketLayer::Instance
_TEXT	ENDS
; Function compile flags: /Odtp /RTCsu /ZI
; File z:\sampsrc\02xu1\raknet\networktypes.h
;	COMDAT ??4PlayerID@@QAEAAU0@ABU0@@Z
_TEXT	SEGMENT
_this$ = -8						; size = 4
_input$ = 8						; size = 4
??4PlayerID@@QAEAAU0@ABU0@@Z PROC			; PlayerID::operator=, COMDAT
; _this$ = ecx

; 74   : 	{

	push	ebp
	mov	ebp, esp
	sub	esp, 204				; 000000ccH
	push	ebx
	push	esi
	push	edi
	push	ecx
	lea	edi, DWORD PTR [ebp-204]
	mov	ecx, 51					; 00000033H
	mov	eax, -858993460				; ccccccccH
	rep stosd
	pop	ecx
	mov	DWORD PTR _this$[ebp], ecx

; 75   : 		binaryAddress = input.binaryAddress;

	mov	eax, DWORD PTR _this$[ebp]
	mov	ecx, DWORD PTR _input$[ebp]
	mov	edx, DWORD PTR [ecx]
	mov	DWORD PTR [eax], edx

; 76   : 		port = input.port;

	mov	eax, DWORD PTR _this$[ebp]
	mov	ecx, DWORD PTR _input$[ebp]
	mov	dx, WORD PTR [ecx+4]
	mov	WORD PTR [eax+4], dx

; 77   : 		return *this;

	mov	eax, DWORD PTR _this$[ebp]

; 78   : 	}

	pop	edi
	pop	esi
	pop	ebx
	mov	esp, ebp
	pop	ebp
	ret	4
??4PlayerID@@QAEAAU0@ABU0@@Z ENDP			; PlayerID::operator=
_TEXT	ENDS
END
