; Listing generated by Microsoft (R) Optimizing Compiler Version 18.00.31101.0 

	TITLE	Z:\sampsrc\02Xu1\raknet\RakNetworkFactory.cpp
	.686P
	.XMM
	include listing.inc
	.model	flat

INCLUDELIB LIBCMTD
INCLUDELIB OLDNAMES

PUBLIC	?GetRakClientInterface@RakNetworkFactory@@SAPAVRakClientInterface@@XZ ; RakNetworkFactory::GetRakClientInterface
PUBLIC	?GetRakServerInterface@RakNetworkFactory@@SAPAVRakServerInterface@@XZ ; RakNetworkFactory::GetRakServerInterface
PUBLIC	?GetRakPeerInterface@RakNetworkFactory@@SAPAVRakPeerInterface@@XZ ; RakNetworkFactory::GetRakPeerInterface
PUBLIC	?GetConsoleServer@RakNetworkFactory@@SAPAVConsoleServer@@XZ ; RakNetworkFactory::GetConsoleServer
PUBLIC	?GetReplicaManager@RakNetworkFactory@@SAPAVReplicaManager@@XZ ; RakNetworkFactory::GetReplicaManager
PUBLIC	?GetLogCommandParser@RakNetworkFactory@@SAPAVLogCommandParser@@XZ ; RakNetworkFactory::GetLogCommandParser
PUBLIC	?GetPacketLogger@RakNetworkFactory@@SAPAVPacketLogger@@XZ ; RakNetworkFactory::GetPacketLogger
PUBLIC	?GetRakNetCommandParser@RakNetworkFactory@@SAPAVRakNetCommandParser@@XZ ; RakNetworkFactory::GetRakNetCommandParser
PUBLIC	?GetRakNetTransport@RakNetworkFactory@@SAPAVRakNetTransport@@XZ ; RakNetworkFactory::GetRakNetTransport
PUBLIC	?GetTelnetTransport@RakNetworkFactory@@SAPAVTelnetTransport@@XZ ; RakNetworkFactory::GetTelnetTransport
PUBLIC	?GetPacketConsoleLogger@RakNetworkFactory@@SAPAVPacketConsoleLogger@@XZ ; RakNetworkFactory::GetPacketConsoleLogger
PUBLIC	?GetPacketFileLogger@RakNetworkFactory@@SAPAVPacketFileLogger@@XZ ; RakNetworkFactory::GetPacketFileLogger
PUBLIC	?GetRouter@RakNetworkFactory@@SAPAVRouter@@XZ	; RakNetworkFactory::GetRouter
PUBLIC	?GetConnectionGraph@RakNetworkFactory@@SAPAVConnectionGraph@@XZ ; RakNetworkFactory::GetConnectionGraph
PUBLIC	?DestroyRakClientInterface@RakNetworkFactory@@SAXPAVRakClientInterface@@@Z ; RakNetworkFactory::DestroyRakClientInterface
PUBLIC	?DestroyRakServerInterface@RakNetworkFactory@@SAXPAVRakServerInterface@@@Z ; RakNetworkFactory::DestroyRakServerInterface
PUBLIC	?DestroyRakPeerInterface@RakNetworkFactory@@SAXPAVRakPeerInterface@@@Z ; RakNetworkFactory::DestroyRakPeerInterface
PUBLIC	?DestroyConsoleServer@RakNetworkFactory@@SAXPAVConsoleServer@@@Z ; RakNetworkFactory::DestroyConsoleServer
PUBLIC	?DestroyReplicaManager@RakNetworkFactory@@SAXPAVReplicaManager@@@Z ; RakNetworkFactory::DestroyReplicaManager
PUBLIC	?DestroyLogCommandParser@RakNetworkFactory@@SAXPAVLogCommandParser@@@Z ; RakNetworkFactory::DestroyLogCommandParser
PUBLIC	?DestroyPacketLogger@RakNetworkFactory@@SAXPAVPacketLogger@@@Z ; RakNetworkFactory::DestroyPacketLogger
PUBLIC	?DestroyRakNetCommandParser@RakNetworkFactory@@SAXPAVRakNetCommandParser@@@Z ; RakNetworkFactory::DestroyRakNetCommandParser
PUBLIC	?DestroyRakNetTransport@RakNetworkFactory@@SAXPAVRakNetTransport@@@Z ; RakNetworkFactory::DestroyRakNetTransport
PUBLIC	?DestroyTelnetTransport@RakNetworkFactory@@SAXPAVTelnetTransport@@@Z ; RakNetworkFactory::DestroyTelnetTransport
PUBLIC	?DestroyPacketConsoleLogger@RakNetworkFactory@@SAXPAVPacketConsoleLogger@@@Z ; RakNetworkFactory::DestroyPacketConsoleLogger
PUBLIC	?DestroyPacketFileLogger@RakNetworkFactory@@SAXPAVPacketFileLogger@@@Z ; RakNetworkFactory::DestroyPacketFileLogger
PUBLIC	?DestroyRouter@RakNetworkFactory@@SAXPAVRouter@@@Z ; RakNetworkFactory::DestroyRouter
PUBLIC	?DestroyConnectionGraph@RakNetworkFactory@@SAXPAVConnectionGraph@@@Z ; RakNetworkFactory::DestroyConnectionGraph
PUBLIC	??_GConsoleServer@@QAEPAXI@Z			; ConsoleServer::`scalar deleting destructor'
PUBLIC	??_GReplicaManager@@QAEPAXI@Z			; ReplicaManager::`scalar deleting destructor'
PUBLIC	??_GRakNetTransport@@QAEPAXI@Z			; RakNetTransport::`scalar deleting destructor'
PUBLIC	??_GTelnetTransport@@QAEPAXI@Z			; TelnetTransport::`scalar deleting destructor'
PUBLIC	??0PacketFileLogger@@QAE@XZ			; PacketFileLogger::PacketFileLogger
PUBLIC	??_GPacketFileLogger@@UAEPAXI@Z			; PacketFileLogger::`scalar deleting destructor'
PUBLIC	??_GConnectionGraph@@QAEPAXI@Z			; ConnectionGraph::`scalar deleting destructor'
PUBLIC	??_GRouter@@QAEPAXI@Z				; Router::`scalar deleting destructor'
PUBLIC	??_7PacketFileLogger@@6B@			; PacketFileLogger::`vftable'
PUBLIC	??_R4PacketFileLogger@@6B@			; PacketFileLogger::`RTTI Complete Object Locator'
PUBLIC	??_R0?AVPacketFileLogger@@@8			; PacketFileLogger `RTTI Type Descriptor'
PUBLIC	??_R3PacketFileLogger@@8			; PacketFileLogger::`RTTI Class Hierarchy Descriptor'
PUBLIC	??_R2PacketFileLogger@@8			; PacketFileLogger::`RTTI Base Class Array'
PUBLIC	??_R1A@?0A@EA@PacketFileLogger@@8		; PacketFileLogger::`RTTI Base Class Descriptor at (0,-1,0,64)'
PUBLIC	??_R1A@?0A@EA@PacketLogger@@8			; PacketLogger::`RTTI Base Class Descriptor at (0,-1,0,64)'
PUBLIC	??_R0?AVPacketLogger@@@8			; PacketLogger `RTTI Type Descriptor'
PUBLIC	??_R3PacketLogger@@8				; PacketLogger::`RTTI Class Hierarchy Descriptor'
PUBLIC	??_R2PacketLogger@@8				; PacketLogger::`RTTI Base Class Array'
PUBLIC	??_R1A@?0A@EA@PluginInterface@@8		; PluginInterface::`RTTI Base Class Descriptor at (0,-1,0,64)'
PUBLIC	??_R0?AVPluginInterface@@@8			; PluginInterface `RTTI Type Descriptor'
PUBLIC	??_R3PluginInterface@@8				; PluginInterface::`RTTI Class Hierarchy Descriptor'
PUBLIC	??_R2PluginInterface@@8				; PluginInterface::`RTTI Base Class Array'
EXTRN	??2@YAPAXI@Z:PROC				; operator new
EXTRN	??3@YAXPAX@Z:PROC				; operator delete
EXTRN	??0LogCommandParser@@QAE@XZ:PROC		; LogCommandParser::LogCommandParser
EXTRN	??0RakPeer@@QAE@XZ:PROC				; RakPeer::RakPeer
EXTRN	??0RakServer@@QAE@XZ:PROC			; RakServer::RakServer
EXTRN	??0RakClient@@QAE@XZ:PROC			; RakClient::RakClient
EXTRN	??0ConsoleServer@@QAE@XZ:PROC			; ConsoleServer::ConsoleServer
EXTRN	??1ConsoleServer@@QAE@XZ:PROC			; ConsoleServer::~ConsoleServer
EXTRN	?OnDetach@PluginInterface@@UAEXPAVRakPeerInterface@@@Z:PROC ; PluginInterface::OnDetach
EXTRN	?OnInitialize@PluginInterface@@UAEXPAVRakPeerInterface@@@Z:PROC ; PluginInterface::OnInitialize
EXTRN	?Update@PluginInterface@@UAEXPAVRakPeerInterface@@@Z:PROC ; PluginInterface::Update
EXTRN	?OnReceive@PluginInterface@@UAE?AW4PluginReceiveResult@@PAVRakPeerInterface@@PAUPacket@@@Z:PROC ; PluginInterface::OnReceive
EXTRN	?OnDisconnect@PluginInterface@@UAEXPAVRakPeerInterface@@@Z:PROC ; PluginInterface::OnDisconnect
EXTRN	?OnCloseConnection@PluginInterface@@UAEXPAVRakPeerInterface@@UPlayerID@@@Z:PROC ; PluginInterface::OnCloseConnection
EXTRN	??0PacketLogger@@QAE@XZ:PROC			; PacketLogger::PacketLogger
EXTRN	?OnDirectSocketSend@PacketLogger@@UAEXPBDIUPlayerID@@@Z:PROC ; PacketLogger::OnDirectSocketSend
EXTRN	?OnDirectSocketReceive@PacketLogger@@UAEXPBDIUPlayerID@@@Z:PROC ; PacketLogger::OnDirectSocketReceive
EXTRN	?OnInternalPacket@PacketLogger@@UAEXPAUInternalPacket@@IUPlayerID@@I_N@Z:PROC ; PacketLogger::OnInternalPacket
EXTRN	?LogHeader@PacketLogger@@UAEXXZ:PROC		; PacketLogger::LogHeader
EXTRN	?SetPrintID@PacketLogger@@UAEX_N@Z:PROC		; PacketLogger::SetPrintID
EXTRN	?SetPrintAcks@PacketLogger@@UAEX_N@Z:PROC	; PacketLogger::SetPrintAcks
EXTRN	?UserIDTOString@PacketLogger@@MAEPADE@Z:PROC	; PacketLogger::UserIDTOString
EXTRN	??0RakNetCommandParser@@QAE@XZ:PROC		; RakNetCommandParser::RakNetCommandParser
EXTRN	??0ReplicaManager@@QAE@XZ:PROC			; ReplicaManager::ReplicaManager
EXTRN	??1ReplicaManager@@QAE@XZ:PROC			; ReplicaManager::~ReplicaManager
EXTRN	??0RakNetTransport@@QAE@XZ:PROC			; RakNetTransport::RakNetTransport
EXTRN	??1RakNetTransport@@QAE@XZ:PROC			; RakNetTransport::~RakNetTransport
EXTRN	??0TelnetTransport@@QAE@XZ:PROC			; TelnetTransport::TelnetTransport
EXTRN	??1TelnetTransport@@QAE@XZ:PROC			; TelnetTransport::~TelnetTransport
EXTRN	??0PacketConsoleLogger@@QAE@XZ:PROC		; PacketConsoleLogger::PacketConsoleLogger
EXTRN	??1PacketFileLogger@@UAE@XZ:PROC		; PacketFileLogger::~PacketFileLogger
EXTRN	?OnAttach@PacketFileLogger@@UAEXPAVRakPeerInterface@@@Z:PROC ; PacketFileLogger::OnAttach
EXTRN	?WriteLog@PacketFileLogger@@UAEXPBD@Z:PROC	; PacketFileLogger::WriteLog
EXTRN	??_EPacketFileLogger@@UAEPAXI@Z:PROC		; PacketFileLogger::`vector deleting destructor'
EXTRN	??0ConnectionGraph@@QAE@XZ:PROC			; ConnectionGraph::ConnectionGraph
EXTRN	??1ConnectionGraph@@QAE@XZ:PROC			; ConnectionGraph::~ConnectionGraph
EXTRN	??0Router@@QAE@XZ:PROC				; Router::Router
EXTRN	??1Router@@QAE@XZ:PROC				; Router::~Router
EXTRN	@__security_check_cookie@4:PROC
EXTRN	__RTC_CheckEsp:PROC
EXTRN	__RTC_InitBase:PROC
EXTRN	__RTC_Shutdown:PROC
EXTRN	___CxxFrameHandler3:PROC
EXTRN	??_7type_info@@6B@:QWORD			; type_info::`vftable'
EXTRN	___security_cookie:DWORD
;	COMDAT rtc$TMZ
rtc$TMZ	SEGMENT
__RTC_Shutdown.rtc$TMZ DD FLAT:__RTC_Shutdown
rtc$TMZ	ENDS
;	COMDAT rtc$IMZ
rtc$IMZ	SEGMENT
__RTC_InitBase.rtc$IMZ DD FLAT:__RTC_InitBase
rtc$IMZ	ENDS
;	COMDAT ??_R2PluginInterface@@8
rdata$r	SEGMENT
??_R2PluginInterface@@8 DD FLAT:??_R1A@?0A@EA@PluginInterface@@8 ; PluginInterface::`RTTI Base Class Array'
rdata$r	ENDS
;	COMDAT ??_R3PluginInterface@@8
rdata$r	SEGMENT
??_R3PluginInterface@@8 DD 00H				; PluginInterface::`RTTI Class Hierarchy Descriptor'
	DD	00H
	DD	01H
	DD	FLAT:??_R2PluginInterface@@8
rdata$r	ENDS
;	COMDAT ??_R0?AVPluginInterface@@@8
data$r	SEGMENT
??_R0?AVPluginInterface@@@8 DD FLAT:??_7type_info@@6B@	; PluginInterface `RTTI Type Descriptor'
	DD	00H
	DB	'.?AVPluginInterface@@', 00H
data$r	ENDS
;	COMDAT ??_R1A@?0A@EA@PluginInterface@@8
rdata$r	SEGMENT
??_R1A@?0A@EA@PluginInterface@@8 DD FLAT:??_R0?AVPluginInterface@@@8 ; PluginInterface::`RTTI Base Class Descriptor at (0,-1,0,64)'
	DD	00H
	DD	00H
	DD	0ffffffffH
	DD	00H
	DD	040H
	DD	FLAT:??_R3PluginInterface@@8
rdata$r	ENDS
;	COMDAT ??_R2PacketLogger@@8
rdata$r	SEGMENT
??_R2PacketLogger@@8 DD FLAT:??_R1A@?0A@EA@PacketLogger@@8 ; PacketLogger::`RTTI Base Class Array'
	DD	FLAT:??_R1A@?0A@EA@PluginInterface@@8
rdata$r	ENDS
;	COMDAT ??_R3PacketLogger@@8
rdata$r	SEGMENT
??_R3PacketLogger@@8 DD 00H				; PacketLogger::`RTTI Class Hierarchy Descriptor'
	DD	00H
	DD	02H
	DD	FLAT:??_R2PacketLogger@@8
rdata$r	ENDS
;	COMDAT ??_R0?AVPacketLogger@@@8
data$r	SEGMENT
??_R0?AVPacketLogger@@@8 DD FLAT:??_7type_info@@6B@	; PacketLogger `RTTI Type Descriptor'
	DD	00H
	DB	'.?AVPacketLogger@@', 00H
data$r	ENDS
;	COMDAT ??_R1A@?0A@EA@PacketLogger@@8
rdata$r	SEGMENT
??_R1A@?0A@EA@PacketLogger@@8 DD FLAT:??_R0?AVPacketLogger@@@8 ; PacketLogger::`RTTI Base Class Descriptor at (0,-1,0,64)'
	DD	01H
	DD	00H
	DD	0ffffffffH
	DD	00H
	DD	040H
	DD	FLAT:??_R3PacketLogger@@8
rdata$r	ENDS
;	COMDAT ??_R1A@?0A@EA@PacketFileLogger@@8
rdata$r	SEGMENT
??_R1A@?0A@EA@PacketFileLogger@@8 DD FLAT:??_R0?AVPacketFileLogger@@@8 ; PacketFileLogger::`RTTI Base Class Descriptor at (0,-1,0,64)'
	DD	02H
	DD	00H
	DD	0ffffffffH
	DD	00H
	DD	040H
	DD	FLAT:??_R3PacketFileLogger@@8
rdata$r	ENDS
;	COMDAT ??_R2PacketFileLogger@@8
rdata$r	SEGMENT
??_R2PacketFileLogger@@8 DD FLAT:??_R1A@?0A@EA@PacketFileLogger@@8 ; PacketFileLogger::`RTTI Base Class Array'
	DD	FLAT:??_R1A@?0A@EA@PacketLogger@@8
	DD	FLAT:??_R1A@?0A@EA@PluginInterface@@8
rdata$r	ENDS
;	COMDAT ??_R3PacketFileLogger@@8
rdata$r	SEGMENT
??_R3PacketFileLogger@@8 DD 00H				; PacketFileLogger::`RTTI Class Hierarchy Descriptor'
	DD	00H
	DD	03H
	DD	FLAT:??_R2PacketFileLogger@@8
rdata$r	ENDS
;	COMDAT ??_R0?AVPacketFileLogger@@@8
data$r	SEGMENT
??_R0?AVPacketFileLogger@@@8 DD FLAT:??_7type_info@@6B@	; PacketFileLogger `RTTI Type Descriptor'
	DD	00H
	DB	'.?AVPacketFileLogger@@', 00H
data$r	ENDS
;	COMDAT ??_R4PacketFileLogger@@6B@
rdata$r	SEGMENT
??_R4PacketFileLogger@@6B@ DD 00H			; PacketFileLogger::`RTTI Complete Object Locator'
	DD	00H
	DD	00H
	DD	FLAT:??_R0?AVPacketFileLogger@@@8
	DD	FLAT:??_R3PacketFileLogger@@8
rdata$r	ENDS
;	COMDAT ??_7PacketFileLogger@@6B@
CONST	SEGMENT
??_7PacketFileLogger@@6B@ DD FLAT:??_R4PacketFileLogger@@6B@ ; PacketFileLogger::`vftable'
	DD	FLAT:?OnAttach@PacketFileLogger@@UAEXPAVRakPeerInterface@@@Z
	DD	FLAT:?OnDetach@PluginInterface@@UAEXPAVRakPeerInterface@@@Z
	DD	FLAT:?OnInitialize@PluginInterface@@UAEXPAVRakPeerInterface@@@Z
	DD	FLAT:?Update@PluginInterface@@UAEXPAVRakPeerInterface@@@Z
	DD	FLAT:?OnReceive@PluginInterface@@UAE?AW4PluginReceiveResult@@PAVRakPeerInterface@@PAUPacket@@@Z
	DD	FLAT:?OnDisconnect@PluginInterface@@UAEXPAVRakPeerInterface@@@Z
	DD	FLAT:?OnCloseConnection@PluginInterface@@UAEXPAVRakPeerInterface@@UPlayerID@@@Z
	DD	FLAT:?OnDirectSocketSend@PacketLogger@@UAEXPBDIUPlayerID@@@Z
	DD	FLAT:?OnDirectSocketReceive@PacketLogger@@UAEXPBDIUPlayerID@@@Z
	DD	FLAT:?OnInternalPacket@PacketLogger@@UAEXPAUInternalPacket@@IUPlayerID@@I_N@Z
	DD	FLAT:??_EPacketFileLogger@@UAEPAXI@Z
	DD	FLAT:?LogHeader@PacketLogger@@UAEXXZ
	DD	FLAT:?WriteLog@PacketFileLogger@@UAEXPBD@Z
	DD	FLAT:?SetPrintID@PacketLogger@@UAEX_N@Z
	DD	FLAT:?SetPrintAcks@PacketLogger@@UAEX_N@Z
	DD	FLAT:?UserIDTOString@PacketLogger@@MAEPADE@Z
CONST	ENDS
;	COMDAT xdata$x
xdata$x	SEGMENT
__unwindtable$?GetConnectionGraph@RakNetworkFactory@@SAPAVConnectionGraph@@XZ DD 0ffffffffH
	DD	FLAT:__unwindfunclet$?GetConnectionGraph@RakNetworkFactory@@SAPAVConnectionGraph@@XZ$0
__ehfuncinfo$?GetConnectionGraph@RakNetworkFactory@@SAPAVConnectionGraph@@XZ DD 019930522H
	DD	01H
	DD	FLAT:__unwindtable$?GetConnectionGraph@RakNetworkFactory@@SAPAVConnectionGraph@@XZ
	DD	2 DUP(00H)
	DD	2 DUP(00H)
	DD	00H
	DD	01H
xdata$x	ENDS
;	COMDAT xdata$x
xdata$x	SEGMENT
__unwindtable$?GetRouter@RakNetworkFactory@@SAPAVRouter@@XZ DD 0ffffffffH
	DD	FLAT:__unwindfunclet$?GetRouter@RakNetworkFactory@@SAPAVRouter@@XZ$0
__ehfuncinfo$?GetRouter@RakNetworkFactory@@SAPAVRouter@@XZ DD 019930522H
	DD	01H
	DD	FLAT:__unwindtable$?GetRouter@RakNetworkFactory@@SAPAVRouter@@XZ
	DD	2 DUP(00H)
	DD	2 DUP(00H)
	DD	00H
	DD	01H
xdata$x	ENDS
;	COMDAT xdata$x
xdata$x	SEGMENT
__unwindtable$?GetPacketFileLogger@RakNetworkFactory@@SAPAVPacketFileLogger@@XZ DD 0ffffffffH
	DD	FLAT:__unwindfunclet$?GetPacketFileLogger@RakNetworkFactory@@SAPAVPacketFileLogger@@XZ$0
__ehfuncinfo$?GetPacketFileLogger@RakNetworkFactory@@SAPAVPacketFileLogger@@XZ DD 019930522H
	DD	01H
	DD	FLAT:__unwindtable$?GetPacketFileLogger@RakNetworkFactory@@SAPAVPacketFileLogger@@XZ
	DD	2 DUP(00H)
	DD	2 DUP(00H)
	DD	00H
	DD	01H
xdata$x	ENDS
;	COMDAT xdata$x
xdata$x	SEGMENT
__unwindtable$?GetPacketConsoleLogger@RakNetworkFactory@@SAPAVPacketConsoleLogger@@XZ DD 0ffffffffH
	DD	FLAT:__unwindfunclet$?GetPacketConsoleLogger@RakNetworkFactory@@SAPAVPacketConsoleLogger@@XZ$0
__ehfuncinfo$?GetPacketConsoleLogger@RakNetworkFactory@@SAPAVPacketConsoleLogger@@XZ DD 019930522H
	DD	01H
	DD	FLAT:__unwindtable$?GetPacketConsoleLogger@RakNetworkFactory@@SAPAVPacketConsoleLogger@@XZ
	DD	2 DUP(00H)
	DD	2 DUP(00H)
	DD	00H
	DD	01H
xdata$x	ENDS
;	COMDAT xdata$x
xdata$x	SEGMENT
__unwindtable$?GetTelnetTransport@RakNetworkFactory@@SAPAVTelnetTransport@@XZ DD 0ffffffffH
	DD	FLAT:__unwindfunclet$?GetTelnetTransport@RakNetworkFactory@@SAPAVTelnetTransport@@XZ$0
__ehfuncinfo$?GetTelnetTransport@RakNetworkFactory@@SAPAVTelnetTransport@@XZ DD 019930522H
	DD	01H
	DD	FLAT:__unwindtable$?GetTelnetTransport@RakNetworkFactory@@SAPAVTelnetTransport@@XZ
	DD	2 DUP(00H)
	DD	2 DUP(00H)
	DD	00H
	DD	01H
xdata$x	ENDS
;	COMDAT xdata$x
xdata$x	SEGMENT
__unwindtable$?GetRakNetTransport@RakNetworkFactory@@SAPAVRakNetTransport@@XZ DD 0ffffffffH
	DD	FLAT:__unwindfunclet$?GetRakNetTransport@RakNetworkFactory@@SAPAVRakNetTransport@@XZ$0
__ehfuncinfo$?GetRakNetTransport@RakNetworkFactory@@SAPAVRakNetTransport@@XZ DD 019930522H
	DD	01H
	DD	FLAT:__unwindtable$?GetRakNetTransport@RakNetworkFactory@@SAPAVRakNetTransport@@XZ
	DD	2 DUP(00H)
	DD	2 DUP(00H)
	DD	00H
	DD	01H
xdata$x	ENDS
;	COMDAT xdata$x
xdata$x	SEGMENT
__unwindtable$?GetRakNetCommandParser@RakNetworkFactory@@SAPAVRakNetCommandParser@@XZ DD 0ffffffffH
	DD	FLAT:__unwindfunclet$?GetRakNetCommandParser@RakNetworkFactory@@SAPAVRakNetCommandParser@@XZ$0
__ehfuncinfo$?GetRakNetCommandParser@RakNetworkFactory@@SAPAVRakNetCommandParser@@XZ DD 019930522H
	DD	01H
	DD	FLAT:__unwindtable$?GetRakNetCommandParser@RakNetworkFactory@@SAPAVRakNetCommandParser@@XZ
	DD	2 DUP(00H)
	DD	2 DUP(00H)
	DD	00H
	DD	01H
xdata$x	ENDS
;	COMDAT xdata$x
xdata$x	SEGMENT
__unwindtable$?GetPacketLogger@RakNetworkFactory@@SAPAVPacketLogger@@XZ DD 0ffffffffH
	DD	FLAT:__unwindfunclet$?GetPacketLogger@RakNetworkFactory@@SAPAVPacketLogger@@XZ$0
__ehfuncinfo$?GetPacketLogger@RakNetworkFactory@@SAPAVPacketLogger@@XZ DD 019930522H
	DD	01H
	DD	FLAT:__unwindtable$?GetPacketLogger@RakNetworkFactory@@SAPAVPacketLogger@@XZ
	DD	2 DUP(00H)
	DD	2 DUP(00H)
	DD	00H
	DD	01H
xdata$x	ENDS
;	COMDAT xdata$x
xdata$x	SEGMENT
__unwindtable$?GetLogCommandParser@RakNetworkFactory@@SAPAVLogCommandParser@@XZ DD 0ffffffffH
	DD	FLAT:__unwindfunclet$?GetLogCommandParser@RakNetworkFactory@@SAPAVLogCommandParser@@XZ$0
__ehfuncinfo$?GetLogCommandParser@RakNetworkFactory@@SAPAVLogCommandParser@@XZ DD 019930522H
	DD	01H
	DD	FLAT:__unwindtable$?GetLogCommandParser@RakNetworkFactory@@SAPAVLogCommandParser@@XZ
	DD	2 DUP(00H)
	DD	2 DUP(00H)
	DD	00H
	DD	01H
xdata$x	ENDS
;	COMDAT xdata$x
xdata$x	SEGMENT
__unwindtable$?GetReplicaManager@RakNetworkFactory@@SAPAVReplicaManager@@XZ DD 0ffffffffH
	DD	FLAT:__unwindfunclet$?GetReplicaManager@RakNetworkFactory@@SAPAVReplicaManager@@XZ$0
__ehfuncinfo$?GetReplicaManager@RakNetworkFactory@@SAPAVReplicaManager@@XZ DD 019930522H
	DD	01H
	DD	FLAT:__unwindtable$?GetReplicaManager@RakNetworkFactory@@SAPAVReplicaManager@@XZ
	DD	2 DUP(00H)
	DD	2 DUP(00H)
	DD	00H
	DD	01H
xdata$x	ENDS
;	COMDAT xdata$x
xdata$x	SEGMENT
__unwindtable$?GetConsoleServer@RakNetworkFactory@@SAPAVConsoleServer@@XZ DD 0ffffffffH
	DD	FLAT:__unwindfunclet$?GetConsoleServer@RakNetworkFactory@@SAPAVConsoleServer@@XZ$0
__ehfuncinfo$?GetConsoleServer@RakNetworkFactory@@SAPAVConsoleServer@@XZ DD 019930522H
	DD	01H
	DD	FLAT:__unwindtable$?GetConsoleServer@RakNetworkFactory@@SAPAVConsoleServer@@XZ
	DD	2 DUP(00H)
	DD	2 DUP(00H)
	DD	00H
	DD	01H
xdata$x	ENDS
;	COMDAT xdata$x
xdata$x	SEGMENT
__unwindtable$?GetRakPeerInterface@RakNetworkFactory@@SAPAVRakPeerInterface@@XZ DD 0ffffffffH
	DD	FLAT:__unwindfunclet$?GetRakPeerInterface@RakNetworkFactory@@SAPAVRakPeerInterface@@XZ$0
__ehfuncinfo$?GetRakPeerInterface@RakNetworkFactory@@SAPAVRakPeerInterface@@XZ DD 019930522H
	DD	01H
	DD	FLAT:__unwindtable$?GetRakPeerInterface@RakNetworkFactory@@SAPAVRakPeerInterface@@XZ
	DD	2 DUP(00H)
	DD	2 DUP(00H)
	DD	00H
	DD	01H
xdata$x	ENDS
;	COMDAT xdata$x
xdata$x	SEGMENT
__unwindtable$?GetRakServerInterface@RakNetworkFactory@@SAPAVRakServerInterface@@XZ DD 0ffffffffH
	DD	FLAT:__unwindfunclet$?GetRakServerInterface@RakNetworkFactory@@SAPAVRakServerInterface@@XZ$0
__ehfuncinfo$?GetRakServerInterface@RakNetworkFactory@@SAPAVRakServerInterface@@XZ DD 019930522H
	DD	01H
	DD	FLAT:__unwindtable$?GetRakServerInterface@RakNetworkFactory@@SAPAVRakServerInterface@@XZ
	DD	2 DUP(00H)
	DD	2 DUP(00H)
	DD	00H
	DD	01H
xdata$x	ENDS
;	COMDAT xdata$x
xdata$x	SEGMENT
__unwindtable$?GetRakClientInterface@RakNetworkFactory@@SAPAVRakClientInterface@@XZ DD 0ffffffffH
	DD	FLAT:__unwindfunclet$?GetRakClientInterface@RakNetworkFactory@@SAPAVRakClientInterface@@XZ$0
__ehfuncinfo$?GetRakClientInterface@RakNetworkFactory@@SAPAVRakClientInterface@@XZ DD 019930522H
	DD	01H
	DD	FLAT:__unwindtable$?GetRakClientInterface@RakNetworkFactory@@SAPAVRakClientInterface@@XZ
	DD	2 DUP(00H)
	DD	2 DUP(00H)
	DD	00H
	DD	01H
xdata$x	ENDS
; Function compile flags: /Odtp /RTCsu /ZI
;	COMDAT ??_GRouter@@QAEPAXI@Z
_TEXT	SEGMENT
_this$ = -8						; size = 4
___flags$ = 8						; size = 4
??_GRouter@@QAEPAXI@Z PROC				; Router::`scalar deleting destructor', COMDAT
; _this$ = ecx
	push	ebp
	mov	ebp, esp
	sub	esp, 204				; 000000ccH
	push	ebx
	push	esi
	push	edi
	push	ecx
	lea	edi, DWORD PTR [ebp-204]
	mov	ecx, 51					; 00000033H
	mov	eax, -858993460				; ccccccccH
	rep stosd
	pop	ecx
	mov	DWORD PTR _this$[ebp], ecx
	mov	ecx, DWORD PTR _this$[ebp]
	call	??1Router@@QAE@XZ			; Router::~Router
	mov	eax, DWORD PTR ___flags$[ebp]
	and	eax, 1
	je	SHORT $LN1@scalar
	mov	eax, DWORD PTR _this$[ebp]
	push	eax
	call	??3@YAXPAX@Z				; operator delete
	add	esp, 4
$LN1@scalar:
	mov	eax, DWORD PTR _this$[ebp]
	pop	edi
	pop	esi
	pop	ebx
	add	esp, 204				; 000000ccH
	cmp	ebp, esp
	call	__RTC_CheckEsp
	mov	esp, ebp
	pop	ebp
	ret	4
??_GRouter@@QAEPAXI@Z ENDP				; Router::`scalar deleting destructor'
_TEXT	ENDS
; Function compile flags: /Odtp /RTCsu /ZI
;	COMDAT ??_GConnectionGraph@@QAEPAXI@Z
_TEXT	SEGMENT
_this$ = -8						; size = 4
___flags$ = 8						; size = 4
??_GConnectionGraph@@QAEPAXI@Z PROC			; ConnectionGraph::`scalar deleting destructor', COMDAT
; _this$ = ecx
	push	ebp
	mov	ebp, esp
	sub	esp, 204				; 000000ccH
	push	ebx
	push	esi
	push	edi
	push	ecx
	lea	edi, DWORD PTR [ebp-204]
	mov	ecx, 51					; 00000033H
	mov	eax, -858993460				; ccccccccH
	rep stosd
	pop	ecx
	mov	DWORD PTR _this$[ebp], ecx
	mov	ecx, DWORD PTR _this$[ebp]
	call	??1ConnectionGraph@@QAE@XZ		; ConnectionGraph::~ConnectionGraph
	mov	eax, DWORD PTR ___flags$[ebp]
	and	eax, 1
	je	SHORT $LN1@scalar
	mov	eax, DWORD PTR _this$[ebp]
	push	eax
	call	??3@YAXPAX@Z				; operator delete
	add	esp, 4
$LN1@scalar:
	mov	eax, DWORD PTR _this$[ebp]
	pop	edi
	pop	esi
	pop	ebx
	add	esp, 204				; 000000ccH
	cmp	ebp, esp
	call	__RTC_CheckEsp
	mov	esp, ebp
	pop	ebp
	ret	4
??_GConnectionGraph@@QAEPAXI@Z ENDP			; ConnectionGraph::`scalar deleting destructor'
_TEXT	ENDS
; Function compile flags: /Odtp /RTCsu /ZI
;	COMDAT ??_GPacketFileLogger@@UAEPAXI@Z
_TEXT	SEGMENT
_this$ = -8						; size = 4
___flags$ = 8						; size = 4
??_GPacketFileLogger@@UAEPAXI@Z PROC			; PacketFileLogger::`scalar deleting destructor', COMDAT
; _this$ = ecx
	push	ebp
	mov	ebp, esp
	sub	esp, 204				; 000000ccH
	push	ebx
	push	esi
	push	edi
	push	ecx
	lea	edi, DWORD PTR [ebp-204]
	mov	ecx, 51					; 00000033H
	mov	eax, -858993460				; ccccccccH
	rep stosd
	pop	ecx
	mov	DWORD PTR _this$[ebp], ecx
	mov	ecx, DWORD PTR _this$[ebp]
	call	??1PacketFileLogger@@UAE@XZ		; PacketFileLogger::~PacketFileLogger
	mov	eax, DWORD PTR ___flags$[ebp]
	and	eax, 1
	je	SHORT $LN1@scalar
	mov	eax, DWORD PTR _this$[ebp]
	push	eax
	call	??3@YAXPAX@Z				; operator delete
	add	esp, 4
$LN1@scalar:
	mov	eax, DWORD PTR _this$[ebp]
	pop	edi
	pop	esi
	pop	ebx
	add	esp, 204				; 000000ccH
	cmp	ebp, esp
	call	__RTC_CheckEsp
	mov	esp, ebp
	pop	ebp
	ret	4
??_GPacketFileLogger@@UAEPAXI@Z ENDP			; PacketFileLogger::`scalar deleting destructor'
_TEXT	ENDS
; Function compile flags: /Odtp /RTCsu /ZI
;	COMDAT ??0PacketFileLogger@@QAE@XZ
_TEXT	SEGMENT
_this$ = -8						; size = 4
??0PacketFileLogger@@QAE@XZ PROC			; PacketFileLogger::PacketFileLogger, COMDAT
; _this$ = ecx
	push	ebp
	mov	ebp, esp
	sub	esp, 204				; 000000ccH
	push	ebx
	push	esi
	push	edi
	push	ecx
	lea	edi, DWORD PTR [ebp-204]
	mov	ecx, 51					; 00000033H
	mov	eax, -858993460				; ccccccccH
	rep stosd
	pop	ecx
	mov	DWORD PTR _this$[ebp], ecx
	mov	ecx, DWORD PTR _this$[ebp]
	call	??0PacketLogger@@QAE@XZ			; PacketLogger::PacketLogger
	mov	eax, DWORD PTR _this$[ebp]
	mov	DWORD PTR [eax], OFFSET ??_7PacketFileLogger@@6B@
	mov	eax, DWORD PTR _this$[ebp]
	pop	edi
	pop	esi
	pop	ebx
	add	esp, 204				; 000000ccH
	cmp	ebp, esp
	call	__RTC_CheckEsp
	mov	esp, ebp
	pop	ebp
	ret	0
??0PacketFileLogger@@QAE@XZ ENDP			; PacketFileLogger::PacketFileLogger
_TEXT	ENDS
; Function compile flags: /Odtp /RTCsu /ZI
;	COMDAT ??_GTelnetTransport@@QAEPAXI@Z
_TEXT	SEGMENT
_this$ = -8						; size = 4
___flags$ = 8						; size = 4
??_GTelnetTransport@@QAEPAXI@Z PROC			; TelnetTransport::`scalar deleting destructor', COMDAT
; _this$ = ecx
	push	ebp
	mov	ebp, esp
	sub	esp, 204				; 000000ccH
	push	ebx
	push	esi
	push	edi
	push	ecx
	lea	edi, DWORD PTR [ebp-204]
	mov	ecx, 51					; 00000033H
	mov	eax, -858993460				; ccccccccH
	rep stosd
	pop	ecx
	mov	DWORD PTR _this$[ebp], ecx
	mov	ecx, DWORD PTR _this$[ebp]
	call	??1TelnetTransport@@QAE@XZ		; TelnetTransport::~TelnetTransport
	mov	eax, DWORD PTR ___flags$[ebp]
	and	eax, 1
	je	SHORT $LN1@scalar
	mov	eax, DWORD PTR _this$[ebp]
	push	eax
	call	??3@YAXPAX@Z				; operator delete
	add	esp, 4
$LN1@scalar:
	mov	eax, DWORD PTR _this$[ebp]
	pop	edi
	pop	esi
	pop	ebx
	add	esp, 204				; 000000ccH
	cmp	ebp, esp
	call	__RTC_CheckEsp
	mov	esp, ebp
	pop	ebp
	ret	4
??_GTelnetTransport@@QAEPAXI@Z ENDP			; TelnetTransport::`scalar deleting destructor'
_TEXT	ENDS
; Function compile flags: /Odtp /RTCsu /ZI
;	COMDAT ??_GRakNetTransport@@QAEPAXI@Z
_TEXT	SEGMENT
_this$ = -8						; size = 4
___flags$ = 8						; size = 4
??_GRakNetTransport@@QAEPAXI@Z PROC			; RakNetTransport::`scalar deleting destructor', COMDAT
; _this$ = ecx
	push	ebp
	mov	ebp, esp
	sub	esp, 204				; 000000ccH
	push	ebx
	push	esi
	push	edi
	push	ecx
	lea	edi, DWORD PTR [ebp-204]
	mov	ecx, 51					; 00000033H
	mov	eax, -858993460				; ccccccccH
	rep stosd
	pop	ecx
	mov	DWORD PTR _this$[ebp], ecx
	mov	ecx, DWORD PTR _this$[ebp]
	call	??1RakNetTransport@@QAE@XZ		; RakNetTransport::~RakNetTransport
	mov	eax, DWORD PTR ___flags$[ebp]
	and	eax, 1
	je	SHORT $LN1@scalar
	mov	eax, DWORD PTR _this$[ebp]
	push	eax
	call	??3@YAXPAX@Z				; operator delete
	add	esp, 4
$LN1@scalar:
	mov	eax, DWORD PTR _this$[ebp]
	pop	edi
	pop	esi
	pop	ebx
	add	esp, 204				; 000000ccH
	cmp	ebp, esp
	call	__RTC_CheckEsp
	mov	esp, ebp
	pop	ebp
	ret	4
??_GRakNetTransport@@QAEPAXI@Z ENDP			; RakNetTransport::`scalar deleting destructor'
_TEXT	ENDS
; Function compile flags: /Odtp /RTCsu /ZI
;	COMDAT ??_GReplicaManager@@QAEPAXI@Z
_TEXT	SEGMENT
_this$ = -8						; size = 4
___flags$ = 8						; size = 4
??_GReplicaManager@@QAEPAXI@Z PROC			; ReplicaManager::`scalar deleting destructor', COMDAT
; _this$ = ecx
	push	ebp
	mov	ebp, esp
	sub	esp, 204				; 000000ccH
	push	ebx
	push	esi
	push	edi
	push	ecx
	lea	edi, DWORD PTR [ebp-204]
	mov	ecx, 51					; 00000033H
	mov	eax, -858993460				; ccccccccH
	rep stosd
	pop	ecx
	mov	DWORD PTR _this$[ebp], ecx
	mov	ecx, DWORD PTR _this$[ebp]
	call	??1ReplicaManager@@QAE@XZ		; ReplicaManager::~ReplicaManager
	mov	eax, DWORD PTR ___flags$[ebp]
	and	eax, 1
	je	SHORT $LN1@scalar
	mov	eax, DWORD PTR _this$[ebp]
	push	eax
	call	??3@YAXPAX@Z				; operator delete
	add	esp, 4
$LN1@scalar:
	mov	eax, DWORD PTR _this$[ebp]
	pop	edi
	pop	esi
	pop	ebx
	add	esp, 204				; 000000ccH
	cmp	ebp, esp
	call	__RTC_CheckEsp
	mov	esp, ebp
	pop	ebp
	ret	4
??_GReplicaManager@@QAEPAXI@Z ENDP			; ReplicaManager::`scalar deleting destructor'
_TEXT	ENDS
; Function compile flags: /Odtp /RTCsu /ZI
;	COMDAT ??_GConsoleServer@@QAEPAXI@Z
_TEXT	SEGMENT
_this$ = -8						; size = 4
___flags$ = 8						; size = 4
??_GConsoleServer@@QAEPAXI@Z PROC			; ConsoleServer::`scalar deleting destructor', COMDAT
; _this$ = ecx
	push	ebp
	mov	ebp, esp
	sub	esp, 204				; 000000ccH
	push	ebx
	push	esi
	push	edi
	push	ecx
	lea	edi, DWORD PTR [ebp-204]
	mov	ecx, 51					; 00000033H
	mov	eax, -858993460				; ccccccccH
	rep stosd
	pop	ecx
	mov	DWORD PTR _this$[ebp], ecx
	mov	ecx, DWORD PTR _this$[ebp]
	call	??1ConsoleServer@@QAE@XZ		; ConsoleServer::~ConsoleServer
	mov	eax, DWORD PTR ___flags$[ebp]
	and	eax, 1
	je	SHORT $LN1@scalar
	mov	eax, DWORD PTR _this$[ebp]
	push	eax
	call	??3@YAXPAX@Z				; operator delete
	add	esp, 4
$LN1@scalar:
	mov	eax, DWORD PTR _this$[ebp]
	pop	edi
	pop	esi
	pop	ebx
	add	esp, 204				; 000000ccH
	cmp	ebp, esp
	call	__RTC_CheckEsp
	mov	esp, ebp
	pop	ebp
	ret	4
??_GConsoleServer@@QAEPAXI@Z ENDP			; ConsoleServer::`scalar deleting destructor'
_TEXT	ENDS
; Function compile flags: /Odtp /RTCsu /ZI
; File z:\sampsrc\02xu1\raknet\raknetworkfactory.cpp
;	COMDAT ?DestroyConnectionGraph@RakNetworkFactory@@SAXPAVConnectionGraph@@@Z
_TEXT	SEGMENT
tv68 = -220						; size = 4
$T1 = -212						; size = 4
$T2 = -200						; size = 4
_i$ = 8							; size = 4
?DestroyConnectionGraph@RakNetworkFactory@@SAXPAVConnectionGraph@@@Z PROC ; RakNetworkFactory::DestroyConnectionGraph, COMDAT

; 145  : {

	push	ebp
	mov	ebp, esp
	sub	esp, 220				; 000000dcH
	push	ebx
	push	esi
	push	edi
	lea	edi, DWORD PTR [ebp-220]
	mov	ecx, 55					; 00000037H
	mov	eax, -858993460				; ccccccccH
	rep stosd

; 146  : 	delete ( ConnectionGraph* ) i;

	mov	eax, DWORD PTR _i$[ebp]
	mov	DWORD PTR $T2[ebp], eax
	mov	ecx, DWORD PTR $T2[ebp]
	mov	DWORD PTR $T1[ebp], ecx
	cmp	DWORD PTR $T1[ebp], 0
	je	SHORT $LN3@DestroyCon
	push	1
	mov	ecx, DWORD PTR $T1[ebp]
	call	??_GConnectionGraph@@QAEPAXI@Z
	mov	DWORD PTR tv68[ebp], eax
	jmp	SHORT $LN1@DestroyCon
$LN3@DestroyCon:
	mov	DWORD PTR tv68[ebp], 0
$LN1@DestroyCon:

; 147  : }

	pop	edi
	pop	esi
	pop	ebx
	add	esp, 220				; 000000dcH
	cmp	ebp, esp
	call	__RTC_CheckEsp
	mov	esp, ebp
	pop	ebp
	ret	0
?DestroyConnectionGraph@RakNetworkFactory@@SAXPAVConnectionGraph@@@Z ENDP ; RakNetworkFactory::DestroyConnectionGraph
_TEXT	ENDS
; Function compile flags: /Odtp /RTCsu /ZI
; File z:\sampsrc\02xu1\raknet\raknetworkfactory.cpp
;	COMDAT ?DestroyRouter@RakNetworkFactory@@SAXPAVRouter@@@Z
_TEXT	SEGMENT
tv68 = -220						; size = 4
$T1 = -212						; size = 4
$T2 = -200						; size = 4
_i$ = 8							; size = 4
?DestroyRouter@RakNetworkFactory@@SAXPAVRouter@@@Z PROC	; RakNetworkFactory::DestroyRouter, COMDAT

; 141  : {

	push	ebp
	mov	ebp, esp
	sub	esp, 220				; 000000dcH
	push	ebx
	push	esi
	push	edi
	lea	edi, DWORD PTR [ebp-220]
	mov	ecx, 55					; 00000037H
	mov	eax, -858993460				; ccccccccH
	rep stosd

; 142  : 	delete ( Router* ) i;

	mov	eax, DWORD PTR _i$[ebp]
	mov	DWORD PTR $T2[ebp], eax
	mov	ecx, DWORD PTR $T2[ebp]
	mov	DWORD PTR $T1[ebp], ecx
	cmp	DWORD PTR $T1[ebp], 0
	je	SHORT $LN3@DestroyRou
	push	1
	mov	ecx, DWORD PTR $T1[ebp]
	call	??_GRouter@@QAEPAXI@Z
	mov	DWORD PTR tv68[ebp], eax
	jmp	SHORT $LN1@DestroyRou
$LN3@DestroyRou:
	mov	DWORD PTR tv68[ebp], 0
$LN1@DestroyRou:

; 143  : }

	pop	edi
	pop	esi
	pop	ebx
	add	esp, 220				; 000000dcH
	cmp	ebp, esp
	call	__RTC_CheckEsp
	mov	esp, ebp
	pop	ebp
	ret	0
?DestroyRouter@RakNetworkFactory@@SAXPAVRouter@@@Z ENDP	; RakNetworkFactory::DestroyRouter
_TEXT	ENDS
; Function compile flags: /Odtp /RTCsu /ZI
; File z:\sampsrc\02xu1\raknet\raknetworkfactory.cpp
;	COMDAT ?DestroyPacketFileLogger@RakNetworkFactory@@SAXPAVPacketFileLogger@@@Z
_TEXT	SEGMENT
tv74 = -220						; size = 4
$T1 = -212						; size = 4
$T2 = -200						; size = 4
_i$ = 8							; size = 4
?DestroyPacketFileLogger@RakNetworkFactory@@SAXPAVPacketFileLogger@@@Z PROC ; RakNetworkFactory::DestroyPacketFileLogger, COMDAT

; 137  : {

	push	ebp
	mov	ebp, esp
	sub	esp, 220				; 000000dcH
	push	ebx
	push	esi
	push	edi
	lea	edi, DWORD PTR [ebp-220]
	mov	ecx, 55					; 00000037H
	mov	eax, -858993460				; ccccccccH
	rep stosd

; 138  : 	delete ( PacketFileLogger* ) i;

	mov	eax, DWORD PTR _i$[ebp]
	mov	DWORD PTR $T2[ebp], eax
	mov	ecx, DWORD PTR $T2[ebp]
	mov	DWORD PTR $T1[ebp], ecx
	cmp	DWORD PTR $T1[ebp], 0
	je	SHORT $LN3@DestroyPac
	mov	esi, esp
	push	1
	mov	edx, DWORD PTR $T1[ebp]
	mov	eax, DWORD PTR [edx]
	mov	ecx, DWORD PTR $T1[ebp]
	mov	edx, DWORD PTR [eax+40]
	call	edx
	cmp	esi, esp
	call	__RTC_CheckEsp
	mov	DWORD PTR tv74[ebp], eax
	jmp	SHORT $LN1@DestroyPac
$LN3@DestroyPac:
	mov	DWORD PTR tv74[ebp], 0
$LN1@DestroyPac:

; 139  : }

	pop	edi
	pop	esi
	pop	ebx
	add	esp, 220				; 000000dcH
	cmp	ebp, esp
	call	__RTC_CheckEsp
	mov	esp, ebp
	pop	ebp
	ret	0
?DestroyPacketFileLogger@RakNetworkFactory@@SAXPAVPacketFileLogger@@@Z ENDP ; RakNetworkFactory::DestroyPacketFileLogger
_TEXT	ENDS
; Function compile flags: /Odtp /RTCsu /ZI
; File z:\sampsrc\02xu1\raknet\raknetworkfactory.cpp
;	COMDAT ?DestroyPacketConsoleLogger@RakNetworkFactory@@SAXPAVPacketConsoleLogger@@@Z
_TEXT	SEGMENT
tv74 = -220						; size = 4
$T1 = -212						; size = 4
$T2 = -200						; size = 4
_i$ = 8							; size = 4
?DestroyPacketConsoleLogger@RakNetworkFactory@@SAXPAVPacketConsoleLogger@@@Z PROC ; RakNetworkFactory::DestroyPacketConsoleLogger, COMDAT

; 133  : {

	push	ebp
	mov	ebp, esp
	sub	esp, 220				; 000000dcH
	push	ebx
	push	esi
	push	edi
	lea	edi, DWORD PTR [ebp-220]
	mov	ecx, 55					; 00000037H
	mov	eax, -858993460				; ccccccccH
	rep stosd

; 134  : 	delete ( PacketConsoleLogger* ) i;

	mov	eax, DWORD PTR _i$[ebp]
	mov	DWORD PTR $T2[ebp], eax
	mov	ecx, DWORD PTR $T2[ebp]
	mov	DWORD PTR $T1[ebp], ecx
	cmp	DWORD PTR $T1[ebp], 0
	je	SHORT $LN3@DestroyPac
	mov	esi, esp
	push	1
	mov	edx, DWORD PTR $T1[ebp]
	mov	eax, DWORD PTR [edx]
	mov	ecx, DWORD PTR $T1[ebp]
	mov	edx, DWORD PTR [eax+40]
	call	edx
	cmp	esi, esp
	call	__RTC_CheckEsp
	mov	DWORD PTR tv74[ebp], eax
	jmp	SHORT $LN1@DestroyPac
$LN3@DestroyPac:
	mov	DWORD PTR tv74[ebp], 0
$LN1@DestroyPac:

; 135  : }

	pop	edi
	pop	esi
	pop	ebx
	add	esp, 220				; 000000dcH
	cmp	ebp, esp
	call	__RTC_CheckEsp
	mov	esp, ebp
	pop	ebp
	ret	0
?DestroyPacketConsoleLogger@RakNetworkFactory@@SAXPAVPacketConsoleLogger@@@Z ENDP ; RakNetworkFactory::DestroyPacketConsoleLogger
_TEXT	ENDS
; Function compile flags: /Odtp /RTCsu /ZI
; File z:\sampsrc\02xu1\raknet\raknetworkfactory.cpp
;	COMDAT ?DestroyTelnetTransport@RakNetworkFactory@@SAXPAVTelnetTransport@@@Z
_TEXT	SEGMENT
tv68 = -220						; size = 4
$T1 = -212						; size = 4
$T2 = -200						; size = 4
_i$ = 8							; size = 4
?DestroyTelnetTransport@RakNetworkFactory@@SAXPAVTelnetTransport@@@Z PROC ; RakNetworkFactory::DestroyTelnetTransport, COMDAT

; 129  : {

	push	ebp
	mov	ebp, esp
	sub	esp, 220				; 000000dcH
	push	ebx
	push	esi
	push	edi
	lea	edi, DWORD PTR [ebp-220]
	mov	ecx, 55					; 00000037H
	mov	eax, -858993460				; ccccccccH
	rep stosd

; 130  : 	delete ( TelnetTransport* ) i;

	mov	eax, DWORD PTR _i$[ebp]
	mov	DWORD PTR $T2[ebp], eax
	mov	ecx, DWORD PTR $T2[ebp]
	mov	DWORD PTR $T1[ebp], ecx
	cmp	DWORD PTR $T1[ebp], 0
	je	SHORT $LN3@DestroyTel
	push	1
	mov	ecx, DWORD PTR $T1[ebp]
	call	??_GTelnetTransport@@QAEPAXI@Z
	mov	DWORD PTR tv68[ebp], eax
	jmp	SHORT $LN1@DestroyTel
$LN3@DestroyTel:
	mov	DWORD PTR tv68[ebp], 0
$LN1@DestroyTel:

; 131  : }

	pop	edi
	pop	esi
	pop	ebx
	add	esp, 220				; 000000dcH
	cmp	ebp, esp
	call	__RTC_CheckEsp
	mov	esp, ebp
	pop	ebp
	ret	0
?DestroyTelnetTransport@RakNetworkFactory@@SAXPAVTelnetTransport@@@Z ENDP ; RakNetworkFactory::DestroyTelnetTransport
_TEXT	ENDS
; Function compile flags: /Odtp /RTCsu /ZI
; File z:\sampsrc\02xu1\raknet\raknetworkfactory.cpp
;	COMDAT ?DestroyRakNetTransport@RakNetworkFactory@@SAXPAVRakNetTransport@@@Z
_TEXT	SEGMENT
tv68 = -220						; size = 4
$T1 = -212						; size = 4
$T2 = -200						; size = 4
_i$ = 8							; size = 4
?DestroyRakNetTransport@RakNetworkFactory@@SAXPAVRakNetTransport@@@Z PROC ; RakNetworkFactory::DestroyRakNetTransport, COMDAT

; 125  : {

	push	ebp
	mov	ebp, esp
	sub	esp, 220				; 000000dcH
	push	ebx
	push	esi
	push	edi
	lea	edi, DWORD PTR [ebp-220]
	mov	ecx, 55					; 00000037H
	mov	eax, -858993460				; ccccccccH
	rep stosd

; 126  : 	delete ( RakNetTransport* ) i;

	mov	eax, DWORD PTR _i$[ebp]
	mov	DWORD PTR $T2[ebp], eax
	mov	ecx, DWORD PTR $T2[ebp]
	mov	DWORD PTR $T1[ebp], ecx
	cmp	DWORD PTR $T1[ebp], 0
	je	SHORT $LN3@DestroyRak
	push	1
	mov	ecx, DWORD PTR $T1[ebp]
	call	??_GRakNetTransport@@QAEPAXI@Z
	mov	DWORD PTR tv68[ebp], eax
	jmp	SHORT $LN1@DestroyRak
$LN3@DestroyRak:
	mov	DWORD PTR tv68[ebp], 0
$LN1@DestroyRak:

; 127  : }

	pop	edi
	pop	esi
	pop	ebx
	add	esp, 220				; 000000dcH
	cmp	ebp, esp
	call	__RTC_CheckEsp
	mov	esp, ebp
	pop	ebp
	ret	0
?DestroyRakNetTransport@RakNetworkFactory@@SAXPAVRakNetTransport@@@Z ENDP ; RakNetworkFactory::DestroyRakNetTransport
_TEXT	ENDS
; Function compile flags: /Odtp /RTCsu /ZI
; File z:\sampsrc\02xu1\raknet\raknetworkfactory.cpp
;	COMDAT ?DestroyRakNetCommandParser@RakNetworkFactory@@SAXPAVRakNetCommandParser@@@Z
_TEXT	SEGMENT
tv74 = -220						; size = 4
$T1 = -212						; size = 4
$T2 = -200						; size = 4
_i$ = 8							; size = 4
?DestroyRakNetCommandParser@RakNetworkFactory@@SAXPAVRakNetCommandParser@@@Z PROC ; RakNetworkFactory::DestroyRakNetCommandParser, COMDAT

; 121  : {

	push	ebp
	mov	ebp, esp
	sub	esp, 220				; 000000dcH
	push	ebx
	push	esi
	push	edi
	lea	edi, DWORD PTR [ebp-220]
	mov	ecx, 55					; 00000037H
	mov	eax, -858993460				; ccccccccH
	rep stosd

; 122  : 	delete ( RakNetCommandParser* ) i;

	mov	eax, DWORD PTR _i$[ebp]
	mov	DWORD PTR $T2[ebp], eax
	mov	ecx, DWORD PTR $T2[ebp]
	mov	DWORD PTR $T1[ebp], ecx
	cmp	DWORD PTR $T1[ebp], 0
	je	SHORT $LN3@DestroyRak
	mov	esi, esp
	push	1
	mov	edx, DWORD PTR $T1[ebp]
	mov	eax, DWORD PTR [edx]
	mov	ecx, DWORD PTR $T1[ebp]
	mov	edx, DWORD PTR [eax]
	call	edx
	cmp	esi, esp
	call	__RTC_CheckEsp
	mov	DWORD PTR tv74[ebp], eax
	jmp	SHORT $LN1@DestroyRak
$LN3@DestroyRak:
	mov	DWORD PTR tv74[ebp], 0
$LN1@DestroyRak:

; 123  : }

	pop	edi
	pop	esi
	pop	ebx
	add	esp, 220				; 000000dcH
	cmp	ebp, esp
	call	__RTC_CheckEsp
	mov	esp, ebp
	pop	ebp
	ret	0
?DestroyRakNetCommandParser@RakNetworkFactory@@SAXPAVRakNetCommandParser@@@Z ENDP ; RakNetworkFactory::DestroyRakNetCommandParser
_TEXT	ENDS
; Function compile flags: /Odtp /RTCsu /ZI
; File z:\sampsrc\02xu1\raknet\raknetworkfactory.cpp
;	COMDAT ?DestroyPacketLogger@RakNetworkFactory@@SAXPAVPacketLogger@@@Z
_TEXT	SEGMENT
tv70 = -220						; size = 4
$T1 = -212						; size = 4
$T2 = -200						; size = 4
_i$ = 8							; size = 4
?DestroyPacketLogger@RakNetworkFactory@@SAXPAVPacketLogger@@@Z PROC ; RakNetworkFactory::DestroyPacketLogger, COMDAT

; 117  : {

	push	ebp
	mov	ebp, esp
	sub	esp, 220				; 000000dcH
	push	ebx
	push	esi
	push	edi
	lea	edi, DWORD PTR [ebp-220]
	mov	ecx, 55					; 00000037H
	mov	eax, -858993460				; ccccccccH
	rep stosd

; 118  : 	delete ( PacketLogger* ) i;

	mov	eax, DWORD PTR _i$[ebp]
	mov	DWORD PTR $T2[ebp], eax
	mov	ecx, DWORD PTR $T2[ebp]
	mov	DWORD PTR $T1[ebp], ecx
	cmp	DWORD PTR $T1[ebp], 0
	je	SHORT $LN3@DestroyPac
	mov	esi, esp
	push	1
	mov	edx, DWORD PTR $T1[ebp]
	mov	eax, DWORD PTR [edx]
	mov	ecx, DWORD PTR $T1[ebp]
	mov	edx, DWORD PTR [eax+40]
	call	edx
	cmp	esi, esp
	call	__RTC_CheckEsp
	mov	DWORD PTR tv70[ebp], eax
	jmp	SHORT $LN1@DestroyPac
$LN3@DestroyPac:
	mov	DWORD PTR tv70[ebp], 0
$LN1@DestroyPac:

; 119  : }

	pop	edi
	pop	esi
	pop	ebx
	add	esp, 220				; 000000dcH
	cmp	ebp, esp
	call	__RTC_CheckEsp
	mov	esp, ebp
	pop	ebp
	ret	0
?DestroyPacketLogger@RakNetworkFactory@@SAXPAVPacketLogger@@@Z ENDP ; RakNetworkFactory::DestroyPacketLogger
_TEXT	ENDS
; Function compile flags: /Odtp /RTCsu /ZI
; File z:\sampsrc\02xu1\raknet\raknetworkfactory.cpp
;	COMDAT ?DestroyLogCommandParser@RakNetworkFactory@@SAXPAVLogCommandParser@@@Z
_TEXT	SEGMENT
tv74 = -220						; size = 4
$T1 = -212						; size = 4
$T2 = -200						; size = 4
_i$ = 8							; size = 4
?DestroyLogCommandParser@RakNetworkFactory@@SAXPAVLogCommandParser@@@Z PROC ; RakNetworkFactory::DestroyLogCommandParser, COMDAT

; 113  : {

	push	ebp
	mov	ebp, esp
	sub	esp, 220				; 000000dcH
	push	ebx
	push	esi
	push	edi
	lea	edi, DWORD PTR [ebp-220]
	mov	ecx, 55					; 00000037H
	mov	eax, -858993460				; ccccccccH
	rep stosd

; 114  : 	delete ( LogCommandParser* ) i;

	mov	eax, DWORD PTR _i$[ebp]
	mov	DWORD PTR $T2[ebp], eax
	mov	ecx, DWORD PTR $T2[ebp]
	mov	DWORD PTR $T1[ebp], ecx
	cmp	DWORD PTR $T1[ebp], 0
	je	SHORT $LN3@DestroyLog
	mov	esi, esp
	push	1
	mov	edx, DWORD PTR $T1[ebp]
	mov	eax, DWORD PTR [edx]
	mov	ecx, DWORD PTR $T1[ebp]
	mov	edx, DWORD PTR [eax]
	call	edx
	cmp	esi, esp
	call	__RTC_CheckEsp
	mov	DWORD PTR tv74[ebp], eax
	jmp	SHORT $LN1@DestroyLog
$LN3@DestroyLog:
	mov	DWORD PTR tv74[ebp], 0
$LN1@DestroyLog:

; 115  : }

	pop	edi
	pop	esi
	pop	ebx
	add	esp, 220				; 000000dcH
	cmp	ebp, esp
	call	__RTC_CheckEsp
	mov	esp, ebp
	pop	ebp
	ret	0
?DestroyLogCommandParser@RakNetworkFactory@@SAXPAVLogCommandParser@@@Z ENDP ; RakNetworkFactory::DestroyLogCommandParser
_TEXT	ENDS
; Function compile flags: /Odtp /RTCsu /ZI
; File z:\sampsrc\02xu1\raknet\raknetworkfactory.cpp
;	COMDAT ?DestroyReplicaManager@RakNetworkFactory@@SAXPAVReplicaManager@@@Z
_TEXT	SEGMENT
tv68 = -220						; size = 4
$T1 = -212						; size = 4
$T2 = -200						; size = 4
_i$ = 8							; size = 4
?DestroyReplicaManager@RakNetworkFactory@@SAXPAVReplicaManager@@@Z PROC ; RakNetworkFactory::DestroyReplicaManager, COMDAT

; 109  : {

	push	ebp
	mov	ebp, esp
	sub	esp, 220				; 000000dcH
	push	ebx
	push	esi
	push	edi
	lea	edi, DWORD PTR [ebp-220]
	mov	ecx, 55					; 00000037H
	mov	eax, -858993460				; ccccccccH
	rep stosd

; 110  : 	delete ( ReplicaManager* ) i;

	mov	eax, DWORD PTR _i$[ebp]
	mov	DWORD PTR $T2[ebp], eax
	mov	ecx, DWORD PTR $T2[ebp]
	mov	DWORD PTR $T1[ebp], ecx
	cmp	DWORD PTR $T1[ebp], 0
	je	SHORT $LN3@DestroyRep
	push	1
	mov	ecx, DWORD PTR $T1[ebp]
	call	??_GReplicaManager@@QAEPAXI@Z
	mov	DWORD PTR tv68[ebp], eax
	jmp	SHORT $LN1@DestroyRep
$LN3@DestroyRep:
	mov	DWORD PTR tv68[ebp], 0
$LN1@DestroyRep:

; 111  : }

	pop	edi
	pop	esi
	pop	ebx
	add	esp, 220				; 000000dcH
	cmp	ebp, esp
	call	__RTC_CheckEsp
	mov	esp, ebp
	pop	ebp
	ret	0
?DestroyReplicaManager@RakNetworkFactory@@SAXPAVReplicaManager@@@Z ENDP ; RakNetworkFactory::DestroyReplicaManager
_TEXT	ENDS
; Function compile flags: /Odtp /RTCsu /ZI
; File z:\sampsrc\02xu1\raknet\raknetworkfactory.cpp
;	COMDAT ?DestroyConsoleServer@RakNetworkFactory@@SAXPAVConsoleServer@@@Z
_TEXT	SEGMENT
tv68 = -220						; size = 4
$T1 = -212						; size = 4
$T2 = -200						; size = 4
_i$ = 8							; size = 4
?DestroyConsoleServer@RakNetworkFactory@@SAXPAVConsoleServer@@@Z PROC ; RakNetworkFactory::DestroyConsoleServer, COMDAT

; 105  : {

	push	ebp
	mov	ebp, esp
	sub	esp, 220				; 000000dcH
	push	ebx
	push	esi
	push	edi
	lea	edi, DWORD PTR [ebp-220]
	mov	ecx, 55					; 00000037H
	mov	eax, -858993460				; ccccccccH
	rep stosd

; 106  : 	delete ( ConsoleServer* ) i;

	mov	eax, DWORD PTR _i$[ebp]
	mov	DWORD PTR $T2[ebp], eax
	mov	ecx, DWORD PTR $T2[ebp]
	mov	DWORD PTR $T1[ebp], ecx
	cmp	DWORD PTR $T1[ebp], 0
	je	SHORT $LN3@DestroyCon
	push	1
	mov	ecx, DWORD PTR $T1[ebp]
	call	??_GConsoleServer@@QAEPAXI@Z
	mov	DWORD PTR tv68[ebp], eax
	jmp	SHORT $LN1@DestroyCon
$LN3@DestroyCon:
	mov	DWORD PTR tv68[ebp], 0
$LN1@DestroyCon:

; 107  : }

	pop	edi
	pop	esi
	pop	ebx
	add	esp, 220				; 000000dcH
	cmp	ebp, esp
	call	__RTC_CheckEsp
	mov	esp, ebp
	pop	ebp
	ret	0
?DestroyConsoleServer@RakNetworkFactory@@SAXPAVConsoleServer@@@Z ENDP ; RakNetworkFactory::DestroyConsoleServer
_TEXT	ENDS
; Function compile flags: /Odtp /RTCsu /ZI
; File z:\sampsrc\02xu1\raknet\raknetworkfactory.cpp
;	COMDAT ?DestroyRakPeerInterface@RakNetworkFactory@@SAXPAVRakPeerInterface@@@Z
_TEXT	SEGMENT
tv78 = -220						; size = 4
$T1 = -212						; size = 4
$T2 = -200						; size = 4
_i$ = 8							; size = 4
?DestroyRakPeerInterface@RakNetworkFactory@@SAXPAVRakPeerInterface@@@Z PROC ; RakNetworkFactory::DestroyRakPeerInterface, COMDAT

; 101  : {

	push	ebp
	mov	ebp, esp
	sub	esp, 220				; 000000dcH
	push	ebx
	push	esi
	push	edi
	lea	edi, DWORD PTR [ebp-220]
	mov	ecx, 55					; 00000037H
	mov	eax, -858993460				; ccccccccH
	rep stosd

; 102  : 	delete ( RakPeer* ) i;

	mov	eax, DWORD PTR _i$[ebp]
	mov	DWORD PTR $T2[ebp], eax
	mov	ecx, DWORD PTR $T2[ebp]
	mov	DWORD PTR $T1[ebp], ecx
	cmp	DWORD PTR $T1[ebp], 0
	je	SHORT $LN3@DestroyRak
	mov	esi, esp
	push	1
	mov	edx, DWORD PTR $T1[ebp]
	mov	eax, DWORD PTR [edx]
	mov	ecx, DWORD PTR $T1[ebp]
	mov	edx, DWORD PTR [eax]
	call	edx
	cmp	esi, esp
	call	__RTC_CheckEsp
	mov	DWORD PTR tv78[ebp], eax
	jmp	SHORT $LN1@DestroyRak
$LN3@DestroyRak:
	mov	DWORD PTR tv78[ebp], 0
$LN1@DestroyRak:

; 103  : }

	pop	edi
	pop	esi
	pop	ebx
	add	esp, 220				; 000000dcH
	cmp	ebp, esp
	call	__RTC_CheckEsp
	mov	esp, ebp
	pop	ebp
	ret	0
?DestroyRakPeerInterface@RakNetworkFactory@@SAXPAVRakPeerInterface@@@Z ENDP ; RakNetworkFactory::DestroyRakPeerInterface
_TEXT	ENDS
; Function compile flags: /Odtp /RTCsu /ZI
; File z:\sampsrc\02xu1\raknet\raknetworkfactory.cpp
;	COMDAT ?DestroyRakServerInterface@RakNetworkFactory@@SAXPAVRakServerInterface@@@Z
_TEXT	SEGMENT
tv78 = -220						; size = 4
$T1 = -212						; size = 4
$T2 = -200						; size = 4
_i$ = 8							; size = 4
?DestroyRakServerInterface@RakNetworkFactory@@SAXPAVRakServerInterface@@@Z PROC ; RakNetworkFactory::DestroyRakServerInterface, COMDAT

; 97   : {

	push	ebp
	mov	ebp, esp
	sub	esp, 220				; 000000dcH
	push	ebx
	push	esi
	push	edi
	lea	edi, DWORD PTR [ebp-220]
	mov	ecx, 55					; 00000037H
	mov	eax, -858993460				; ccccccccH
	rep stosd

; 98   : 	delete ( RakServer* ) i;

	mov	eax, DWORD PTR _i$[ebp]
	mov	DWORD PTR $T2[ebp], eax
	mov	ecx, DWORD PTR $T2[ebp]
	mov	DWORD PTR $T1[ebp], ecx
	cmp	DWORD PTR $T1[ebp], 0
	je	SHORT $LN3@DestroyRak
	mov	esi, esp
	push	1
	mov	edx, DWORD PTR $T1[ebp]
	mov	eax, DWORD PTR [edx]
	mov	ecx, DWORD PTR $T1[ebp]
	mov	edx, DWORD PTR [eax]
	call	edx
	cmp	esi, esp
	call	__RTC_CheckEsp
	mov	DWORD PTR tv78[ebp], eax
	jmp	SHORT $LN1@DestroyRak
$LN3@DestroyRak:
	mov	DWORD PTR tv78[ebp], 0
$LN1@DestroyRak:

; 99   : }

	pop	edi
	pop	esi
	pop	ebx
	add	esp, 220				; 000000dcH
	cmp	ebp, esp
	call	__RTC_CheckEsp
	mov	esp, ebp
	pop	ebp
	ret	0
?DestroyRakServerInterface@RakNetworkFactory@@SAXPAVRakServerInterface@@@Z ENDP ; RakNetworkFactory::DestroyRakServerInterface
_TEXT	ENDS
; Function compile flags: /Odtp /RTCsu /ZI
; File z:\sampsrc\02xu1\raknet\raknetworkfactory.cpp
;	COMDAT ?DestroyRakClientInterface@RakNetworkFactory@@SAXPAVRakClientInterface@@@Z
_TEXT	SEGMENT
tv80 = -224						; size = 4
tv68 = -220						; size = 4
$T1 = -212						; size = 4
$T2 = -200						; size = 4
_i$ = 8							; size = 4
?DestroyRakClientInterface@RakNetworkFactory@@SAXPAVRakClientInterface@@@Z PROC ; RakNetworkFactory::DestroyRakClientInterface, COMDAT

; 93   : {

	push	ebp
	mov	ebp, esp
	sub	esp, 224				; 000000e0H
	push	ebx
	push	esi
	push	edi
	lea	edi, DWORD PTR [ebp-224]
	mov	ecx, 56					; 00000038H
	mov	eax, -858993460				; ccccccccH
	rep stosd

; 94   : 	delete ( RakClient* ) i;

	cmp	DWORD PTR _i$[ebp], 0
	je	SHORT $LN3@DestroyRak
	mov	eax, DWORD PTR _i$[ebp]
	sub	eax, 2538				; 000009eaH
	mov	DWORD PTR tv68[ebp], eax
	jmp	SHORT $LN4@DestroyRak
$LN3@DestroyRak:
	mov	DWORD PTR tv68[ebp], 0
$LN4@DestroyRak:
	mov	ecx, DWORD PTR tv68[ebp]
	mov	DWORD PTR $T2[ebp], ecx
	mov	edx, DWORD PTR $T2[ebp]
	mov	DWORD PTR $T1[ebp], edx
	cmp	DWORD PTR $T1[ebp], 0
	je	SHORT $LN5@DestroyRak
	mov	esi, esp
	push	1
	mov	eax, DWORD PTR $T1[ebp]
	mov	edx, DWORD PTR [eax]
	mov	ecx, DWORD PTR $T1[ebp]
	mov	eax, DWORD PTR [edx]
	call	eax
	cmp	esi, esp
	call	__RTC_CheckEsp
	mov	DWORD PTR tv80[ebp], eax
	jmp	SHORT $LN1@DestroyRak
$LN5@DestroyRak:
	mov	DWORD PTR tv80[ebp], 0
$LN1@DestroyRak:

; 95   : }

	pop	edi
	pop	esi
	pop	ebx
	add	esp, 224				; 000000e0H
	cmp	ebp, esp
	call	__RTC_CheckEsp
	mov	esp, ebp
	pop	ebp
	ret	0
?DestroyRakClientInterface@RakNetworkFactory@@SAXPAVRakClientInterface@@@Z ENDP ; RakNetworkFactory::DestroyRakClientInterface
_TEXT	ENDS
; Function compile flags: /Odtp /RTCsu /ZI
; File z:\sampsrc\02xu1\raknet\raknetworkfactory.cpp
;	COMDAT ?GetConnectionGraph@RakNetworkFactory@@SAPAVConnectionGraph@@XZ
_TEXT	SEGMENT
tv71 = -232						; size = 4
$T2 = -224						; size = 4
$T3 = -212						; size = 4
__$EHRec$ = -12						; size = 12
?GetConnectionGraph@RakNetworkFactory@@SAPAVConnectionGraph@@XZ PROC ; RakNetworkFactory::GetConnectionGraph, COMDAT

; 89   : {

	push	ebp
	mov	ebp, esp
	push	-1
	push	__ehhandler$?GetConnectionGraph@RakNetworkFactory@@SAPAVConnectionGraph@@XZ
	mov	eax, DWORD PTR fs:0
	push	eax
	sub	esp, 220				; 000000dcH
	push	ebx
	push	esi
	push	edi
	lea	edi, DWORD PTR [ebp-232]
	mov	ecx, 55					; 00000037H
	mov	eax, -858993460				; ccccccccH
	rep stosd
	mov	eax, DWORD PTR ___security_cookie
	xor	eax, ebp
	push	eax
	lea	eax, DWORD PTR __$EHRec$[ebp]
	mov	DWORD PTR fs:0, eax

; 90   : 	return new ConnectionGraph;

	push	90					; 0000005aH
	call	??2@YAPAXI@Z				; operator new
	add	esp, 4
	mov	DWORD PTR $T3[ebp], eax
	mov	DWORD PTR __$EHRec$[ebp+8], 0
	cmp	DWORD PTR $T3[ebp], 0
	je	SHORT $LN3@GetConnect
	mov	ecx, DWORD PTR $T3[ebp]
	call	??0ConnectionGraph@@QAE@XZ		; ConnectionGraph::ConnectionGraph
	mov	DWORD PTR tv71[ebp], eax
	jmp	SHORT $LN4@GetConnect
$LN3@GetConnect:
	mov	DWORD PTR tv71[ebp], 0
$LN4@GetConnect:
	mov	eax, DWORD PTR tv71[ebp]
	mov	DWORD PTR $T2[ebp], eax
	mov	DWORD PTR __$EHRec$[ebp+8], -1
	mov	eax, DWORD PTR $T2[ebp]

; 91   : }

	mov	ecx, DWORD PTR __$EHRec$[ebp]
	mov	DWORD PTR fs:0, ecx
	pop	ecx
	pop	edi
	pop	esi
	pop	ebx
	add	esp, 232				; 000000e8H
	cmp	ebp, esp
	call	__RTC_CheckEsp
	mov	esp, ebp
	pop	ebp
	ret	0
_TEXT	ENDS
;	COMDAT text$x
text$x	SEGMENT
__unwindfunclet$?GetConnectionGraph@RakNetworkFactory@@SAPAVConnectionGraph@@XZ$0:
	mov	eax, DWORD PTR $T3[ebp]
	push	eax
	call	??3@YAXPAX@Z				; operator delete
	pop	ecx
	ret	0
__ehhandler$?GetConnectionGraph@RakNetworkFactory@@SAPAVConnectionGraph@@XZ:
	mov	edx, DWORD PTR [esp+8]
	lea	eax, DWORD PTR [edx+12]
	mov	ecx, DWORD PTR [edx-236]
	xor	ecx, eax
	call	@__security_check_cookie@4
	mov	eax, OFFSET __ehfuncinfo$?GetConnectionGraph@RakNetworkFactory@@SAPAVConnectionGraph@@XZ
	jmp	___CxxFrameHandler3
text$x	ENDS
?GetConnectionGraph@RakNetworkFactory@@SAPAVConnectionGraph@@XZ ENDP ; RakNetworkFactory::GetConnectionGraph
; Function compile flags: /Odtp /RTCsu /ZI
; File z:\sampsrc\02xu1\raknet\raknetworkfactory.cpp
;	COMDAT ?GetRouter@RakNetworkFactory@@SAPAVRouter@@XZ
_TEXT	SEGMENT
tv71 = -232						; size = 4
$T2 = -224						; size = 4
$T3 = -212						; size = 4
__$EHRec$ = -12						; size = 12
?GetRouter@RakNetworkFactory@@SAPAVRouter@@XZ PROC	; RakNetworkFactory::GetRouter, COMDAT

; 85   : {

	push	ebp
	mov	ebp, esp
	push	-1
	push	__ehhandler$?GetRouter@RakNetworkFactory@@SAPAVRouter@@XZ
	mov	eax, DWORD PTR fs:0
	push	eax
	sub	esp, 220				; 000000dcH
	push	ebx
	push	esi
	push	edi
	lea	edi, DWORD PTR [ebp-232]
	mov	ecx, 55					; 00000037H
	mov	eax, -858993460				; ccccccccH
	rep stosd
	mov	eax, DWORD PTR ___security_cookie
	xor	eax, ebp
	push	eax
	lea	eax, DWORD PTR __$EHRec$[ebp]
	mov	DWORD PTR fs:0, eax

; 86   : 	return new Router;

	push	29					; 0000001dH
	call	??2@YAPAXI@Z				; operator new
	add	esp, 4
	mov	DWORD PTR $T3[ebp], eax
	mov	DWORD PTR __$EHRec$[ebp+8], 0
	cmp	DWORD PTR $T3[ebp], 0
	je	SHORT $LN3@GetRouter
	mov	ecx, DWORD PTR $T3[ebp]
	call	??0Router@@QAE@XZ			; Router::Router
	mov	DWORD PTR tv71[ebp], eax
	jmp	SHORT $LN4@GetRouter
$LN3@GetRouter:
	mov	DWORD PTR tv71[ebp], 0
$LN4@GetRouter:
	mov	eax, DWORD PTR tv71[ebp]
	mov	DWORD PTR $T2[ebp], eax
	mov	DWORD PTR __$EHRec$[ebp+8], -1
	mov	eax, DWORD PTR $T2[ebp]

; 87   : }

	mov	ecx, DWORD PTR __$EHRec$[ebp]
	mov	DWORD PTR fs:0, ecx
	pop	ecx
	pop	edi
	pop	esi
	pop	ebx
	add	esp, 232				; 000000e8H
	cmp	ebp, esp
	call	__RTC_CheckEsp
	mov	esp, ebp
	pop	ebp
	ret	0
_TEXT	ENDS
;	COMDAT text$x
text$x	SEGMENT
__unwindfunclet$?GetRouter@RakNetworkFactory@@SAPAVRouter@@XZ$0:
	mov	eax, DWORD PTR $T3[ebp]
	push	eax
	call	??3@YAXPAX@Z				; operator delete
	pop	ecx
	ret	0
__ehhandler$?GetRouter@RakNetworkFactory@@SAPAVRouter@@XZ:
	mov	edx, DWORD PTR [esp+8]
	lea	eax, DWORD PTR [edx+12]
	mov	ecx, DWORD PTR [edx-236]
	xor	ecx, eax
	call	@__security_check_cookie@4
	mov	eax, OFFSET __ehfuncinfo$?GetRouter@RakNetworkFactory@@SAPAVRouter@@XZ
	jmp	___CxxFrameHandler3
text$x	ENDS
?GetRouter@RakNetworkFactory@@SAPAVRouter@@XZ ENDP	; RakNetworkFactory::GetRouter
; Function compile flags: /Odtp /RTCsu /ZI
; File z:\sampsrc\02xu1\raknet\raknetworkfactory.cpp
;	COMDAT ?GetPacketFileLogger@RakNetworkFactory@@SAPAVPacketFileLogger@@XZ
_TEXT	SEGMENT
tv71 = -232						; size = 4
$T2 = -224						; size = 4
$T3 = -212						; size = 4
__$EHRec$ = -12						; size = 12
?GetPacketFileLogger@RakNetworkFactory@@SAPAVPacketFileLogger@@XZ PROC ; RakNetworkFactory::GetPacketFileLogger, COMDAT

; 81   : {

	push	ebp
	mov	ebp, esp
	push	-1
	push	__ehhandler$?GetPacketFileLogger@RakNetworkFactory@@SAPAVPacketFileLogger@@XZ
	mov	eax, DWORD PTR fs:0
	push	eax
	sub	esp, 220				; 000000dcH
	push	ebx
	push	esi
	push	edi
	lea	edi, DWORD PTR [ebp-232]
	mov	ecx, 55					; 00000037H
	mov	eax, -858993460				; ccccccccH
	rep stosd
	mov	eax, DWORD PTR ___security_cookie
	xor	eax, ebp
	push	eax
	lea	eax, DWORD PTR __$EHRec$[ebp]
	mov	DWORD PTR fs:0, eax

; 82   : 	return new PacketFileLogger;

	push	14					; 0000000eH
	call	??2@YAPAXI@Z				; operator new
	add	esp, 4
	mov	DWORD PTR $T3[ebp], eax
	mov	DWORD PTR __$EHRec$[ebp+8], 0
	cmp	DWORD PTR $T3[ebp], 0
	je	SHORT $LN3@GetPacketF
	mov	ecx, DWORD PTR $T3[ebp]
	call	??0PacketFileLogger@@QAE@XZ
	mov	DWORD PTR tv71[ebp], eax
	jmp	SHORT $LN4@GetPacketF
$LN3@GetPacketF:
	mov	DWORD PTR tv71[ebp], 0
$LN4@GetPacketF:
	mov	eax, DWORD PTR tv71[ebp]
	mov	DWORD PTR $T2[ebp], eax
	mov	DWORD PTR __$EHRec$[ebp+8], -1
	mov	eax, DWORD PTR $T2[ebp]

; 83   : }

	mov	ecx, DWORD PTR __$EHRec$[ebp]
	mov	DWORD PTR fs:0, ecx
	pop	ecx
	pop	edi
	pop	esi
	pop	ebx
	add	esp, 232				; 000000e8H
	cmp	ebp, esp
	call	__RTC_CheckEsp
	mov	esp, ebp
	pop	ebp
	ret	0
_TEXT	ENDS
;	COMDAT text$x
text$x	SEGMENT
__unwindfunclet$?GetPacketFileLogger@RakNetworkFactory@@SAPAVPacketFileLogger@@XZ$0:
	mov	eax, DWORD PTR $T3[ebp]
	push	eax
	call	??3@YAXPAX@Z				; operator delete
	pop	ecx
	ret	0
__ehhandler$?GetPacketFileLogger@RakNetworkFactory@@SAPAVPacketFileLogger@@XZ:
	mov	edx, DWORD PTR [esp+8]
	lea	eax, DWORD PTR [edx+12]
	mov	ecx, DWORD PTR [edx-236]
	xor	ecx, eax
	call	@__security_check_cookie@4
	mov	eax, OFFSET __ehfuncinfo$?GetPacketFileLogger@RakNetworkFactory@@SAPAVPacketFileLogger@@XZ
	jmp	___CxxFrameHandler3
text$x	ENDS
?GetPacketFileLogger@RakNetworkFactory@@SAPAVPacketFileLogger@@XZ ENDP ; RakNetworkFactory::GetPacketFileLogger
; Function compile flags: /Odtp /RTCsu /ZI
; File z:\sampsrc\02xu1\raknet\raknetworkfactory.cpp
;	COMDAT ?GetPacketConsoleLogger@RakNetworkFactory@@SAPAVPacketConsoleLogger@@XZ
_TEXT	SEGMENT
tv71 = -232						; size = 4
$T2 = -224						; size = 4
$T3 = -212						; size = 4
__$EHRec$ = -12						; size = 12
?GetPacketConsoleLogger@RakNetworkFactory@@SAPAVPacketConsoleLogger@@XZ PROC ; RakNetworkFactory::GetPacketConsoleLogger, COMDAT

; 77   : {

	push	ebp
	mov	ebp, esp
	push	-1
	push	__ehhandler$?GetPacketConsoleLogger@RakNetworkFactory@@SAPAVPacketConsoleLogger@@XZ
	mov	eax, DWORD PTR fs:0
	push	eax
	sub	esp, 220				; 000000dcH
	push	ebx
	push	esi
	push	edi
	lea	edi, DWORD PTR [ebp-232]
	mov	ecx, 55					; 00000037H
	mov	eax, -858993460				; ccccccccH
	rep stosd
	mov	eax, DWORD PTR ___security_cookie
	xor	eax, ebp
	push	eax
	lea	eax, DWORD PTR __$EHRec$[ebp]
	mov	DWORD PTR fs:0, eax

; 78   : 	return new PacketConsoleLogger;

	push	14					; 0000000eH
	call	??2@YAPAXI@Z				; operator new
	add	esp, 4
	mov	DWORD PTR $T3[ebp], eax
	mov	DWORD PTR __$EHRec$[ebp+8], 0
	cmp	DWORD PTR $T3[ebp], 0
	je	SHORT $LN3@GetPacketC
	mov	ecx, DWORD PTR $T3[ebp]
	call	??0PacketConsoleLogger@@QAE@XZ		; PacketConsoleLogger::PacketConsoleLogger
	mov	DWORD PTR tv71[ebp], eax
	jmp	SHORT $LN4@GetPacketC
$LN3@GetPacketC:
	mov	DWORD PTR tv71[ebp], 0
$LN4@GetPacketC:
	mov	eax, DWORD PTR tv71[ebp]
	mov	DWORD PTR $T2[ebp], eax
	mov	DWORD PTR __$EHRec$[ebp+8], -1
	mov	eax, DWORD PTR $T2[ebp]

; 79   : }

	mov	ecx, DWORD PTR __$EHRec$[ebp]
	mov	DWORD PTR fs:0, ecx
	pop	ecx
	pop	edi
	pop	esi
	pop	ebx
	add	esp, 232				; 000000e8H
	cmp	ebp, esp
	call	__RTC_CheckEsp
	mov	esp, ebp
	pop	ebp
	ret	0
_TEXT	ENDS
;	COMDAT text$x
text$x	SEGMENT
__unwindfunclet$?GetPacketConsoleLogger@RakNetworkFactory@@SAPAVPacketConsoleLogger@@XZ$0:
	mov	eax, DWORD PTR $T3[ebp]
	push	eax
	call	??3@YAXPAX@Z				; operator delete
	pop	ecx
	ret	0
__ehhandler$?GetPacketConsoleLogger@RakNetworkFactory@@SAPAVPacketConsoleLogger@@XZ:
	mov	edx, DWORD PTR [esp+8]
	lea	eax, DWORD PTR [edx+12]
	mov	ecx, DWORD PTR [edx-236]
	xor	ecx, eax
	call	@__security_check_cookie@4
	mov	eax, OFFSET __ehfuncinfo$?GetPacketConsoleLogger@RakNetworkFactory@@SAPAVPacketConsoleLogger@@XZ
	jmp	___CxxFrameHandler3
text$x	ENDS
?GetPacketConsoleLogger@RakNetworkFactory@@SAPAVPacketConsoleLogger@@XZ ENDP ; RakNetworkFactory::GetPacketConsoleLogger
; Function compile flags: /Odtp /RTCsu /ZI
; File z:\sampsrc\02xu1\raknet\raknetworkfactory.cpp
;	COMDAT ?GetTelnetTransport@RakNetworkFactory@@SAPAVTelnetTransport@@XZ
_TEXT	SEGMENT
tv71 = -232						; size = 4
$T2 = -224						; size = 4
$T3 = -212						; size = 4
__$EHRec$ = -12						; size = 12
?GetTelnetTransport@RakNetworkFactory@@SAPAVTelnetTransport@@XZ PROC ; RakNetworkFactory::GetTelnetTransport, COMDAT

; 73   : {

	push	ebp
	mov	ebp, esp
	push	-1
	push	__ehhandler$?GetTelnetTransport@RakNetworkFactory@@SAPAVTelnetTransport@@XZ
	mov	eax, DWORD PTR fs:0
	push	eax
	sub	esp, 220				; 000000dcH
	push	ebx
	push	esi
	push	edi
	lea	edi, DWORD PTR [ebp-232]
	mov	ecx, 55					; 00000037H
	mov	eax, -858993460				; ccccccccH
	rep stosd
	mov	eax, DWORD PTR ___security_cookie
	xor	eax, ebp
	push	eax
	lea	eax, DWORD PTR __$EHRec$[ebp]
	mov	DWORD PTR fs:0, eax

; 74   : 	return new TelnetTransport;

	push	20					; 00000014H
	call	??2@YAPAXI@Z				; operator new
	add	esp, 4
	mov	DWORD PTR $T3[ebp], eax
	mov	DWORD PTR __$EHRec$[ebp+8], 0
	cmp	DWORD PTR $T3[ebp], 0
	je	SHORT $LN3@GetTelnetT
	mov	ecx, DWORD PTR $T3[ebp]
	call	??0TelnetTransport@@QAE@XZ		; TelnetTransport::TelnetTransport
	mov	DWORD PTR tv71[ebp], eax
	jmp	SHORT $LN4@GetTelnetT
$LN3@GetTelnetT:
	mov	DWORD PTR tv71[ebp], 0
$LN4@GetTelnetT:
	mov	eax, DWORD PTR tv71[ebp]
	mov	DWORD PTR $T2[ebp], eax
	mov	DWORD PTR __$EHRec$[ebp+8], -1
	mov	eax, DWORD PTR $T2[ebp]

; 75   : }

	mov	ecx, DWORD PTR __$EHRec$[ebp]
	mov	DWORD PTR fs:0, ecx
	pop	ecx
	pop	edi
	pop	esi
	pop	ebx
	add	esp, 232				; 000000e8H
	cmp	ebp, esp
	call	__RTC_CheckEsp
	mov	esp, ebp
	pop	ebp
	ret	0
_TEXT	ENDS
;	COMDAT text$x
text$x	SEGMENT
__unwindfunclet$?GetTelnetTransport@RakNetworkFactory@@SAPAVTelnetTransport@@XZ$0:
	mov	eax, DWORD PTR $T3[ebp]
	push	eax
	call	??3@YAXPAX@Z				; operator delete
	pop	ecx
	ret	0
__ehhandler$?GetTelnetTransport@RakNetworkFactory@@SAPAVTelnetTransport@@XZ:
	mov	edx, DWORD PTR [esp+8]
	lea	eax, DWORD PTR [edx+12]
	mov	ecx, DWORD PTR [edx-236]
	xor	ecx, eax
	call	@__security_check_cookie@4
	mov	eax, OFFSET __ehfuncinfo$?GetTelnetTransport@RakNetworkFactory@@SAPAVTelnetTransport@@XZ
	jmp	___CxxFrameHandler3
text$x	ENDS
?GetTelnetTransport@RakNetworkFactory@@SAPAVTelnetTransport@@XZ ENDP ; RakNetworkFactory::GetTelnetTransport
; Function compile flags: /Odtp /RTCsu /ZI
; File z:\sampsrc\02xu1\raknet\raknetworkfactory.cpp
;	COMDAT ?GetRakNetTransport@RakNetworkFactory@@SAPAVRakNetTransport@@XZ
_TEXT	SEGMENT
tv71 = -232						; size = 4
$T2 = -224						; size = 4
$T3 = -212						; size = 4
__$EHRec$ = -12						; size = 12
?GetRakNetTransport@RakNetworkFactory@@SAPAVRakNetTransport@@XZ PROC ; RakNetworkFactory::GetRakNetTransport, COMDAT

; 69   : {

	push	ebp
	mov	ebp, esp
	push	-1
	push	__ehhandler$?GetRakNetTransport@RakNetworkFactory@@SAPAVRakNetTransport@@XZ
	mov	eax, DWORD PTR fs:0
	push	eax
	sub	esp, 220				; 000000dcH
	push	ebx
	push	esi
	push	edi
	lea	edi, DWORD PTR [ebp-232]
	mov	ecx, 55					; 00000037H
	mov	eax, -858993460				; ccccccccH
	rep stosd
	mov	eax, DWORD PTR ___security_cookie
	xor	eax, ebp
	push	eax
	lea	eax, DWORD PTR __$EHRec$[ebp]
	mov	DWORD PTR fs:0, eax

; 70   : 	return new RakNetTransport;

	push	56					; 00000038H
	call	??2@YAPAXI@Z				; operator new
	add	esp, 4
	mov	DWORD PTR $T3[ebp], eax
	mov	DWORD PTR __$EHRec$[ebp+8], 0
	cmp	DWORD PTR $T3[ebp], 0
	je	SHORT $LN3@GetRakNetT
	mov	ecx, DWORD PTR $T3[ebp]
	call	??0RakNetTransport@@QAE@XZ		; RakNetTransport::RakNetTransport
	mov	DWORD PTR tv71[ebp], eax
	jmp	SHORT $LN4@GetRakNetT
$LN3@GetRakNetT:
	mov	DWORD PTR tv71[ebp], 0
$LN4@GetRakNetT:
	mov	eax, DWORD PTR tv71[ebp]
	mov	DWORD PTR $T2[ebp], eax
	mov	DWORD PTR __$EHRec$[ebp+8], -1
	mov	eax, DWORD PTR $T2[ebp]

; 71   : }

	mov	ecx, DWORD PTR __$EHRec$[ebp]
	mov	DWORD PTR fs:0, ecx
	pop	ecx
	pop	edi
	pop	esi
	pop	ebx
	add	esp, 232				; 000000e8H
	cmp	ebp, esp
	call	__RTC_CheckEsp
	mov	esp, ebp
	pop	ebp
	ret	0
_TEXT	ENDS
;	COMDAT text$x
text$x	SEGMENT
__unwindfunclet$?GetRakNetTransport@RakNetworkFactory@@SAPAVRakNetTransport@@XZ$0:
	mov	eax, DWORD PTR $T3[ebp]
	push	eax
	call	??3@YAXPAX@Z				; operator delete
	pop	ecx
	ret	0
__ehhandler$?GetRakNetTransport@RakNetworkFactory@@SAPAVRakNetTransport@@XZ:
	mov	edx, DWORD PTR [esp+8]
	lea	eax, DWORD PTR [edx+12]
	mov	ecx, DWORD PTR [edx-236]
	xor	ecx, eax
	call	@__security_check_cookie@4
	mov	eax, OFFSET __ehfuncinfo$?GetRakNetTransport@RakNetworkFactory@@SAPAVRakNetTransport@@XZ
	jmp	___CxxFrameHandler3
text$x	ENDS
?GetRakNetTransport@RakNetworkFactory@@SAPAVRakNetTransport@@XZ ENDP ; RakNetworkFactory::GetRakNetTransport
; Function compile flags: /Odtp /RTCsu /ZI
; File z:\sampsrc\02xu1\raknet\raknetworkfactory.cpp
;	COMDAT ?GetRakNetCommandParser@RakNetworkFactory@@SAPAVRakNetCommandParser@@XZ
_TEXT	SEGMENT
tv71 = -232						; size = 4
$T2 = -224						; size = 4
$T3 = -212						; size = 4
__$EHRec$ = -12						; size = 12
?GetRakNetCommandParser@RakNetworkFactory@@SAPAVRakNetCommandParser@@XZ PROC ; RakNetworkFactory::GetRakNetCommandParser, COMDAT

; 65   : {

	push	ebp
	mov	ebp, esp
	push	-1
	push	__ehhandler$?GetRakNetCommandParser@RakNetworkFactory@@SAPAVRakNetCommandParser@@XZ
	mov	eax, DWORD PTR fs:0
	push	eax
	sub	esp, 220				; 000000dcH
	push	ebx
	push	esi
	push	edi
	lea	edi, DWORD PTR [ebp-232]
	mov	ecx, 55					; 00000037H
	mov	eax, -858993460				; ccccccccH
	rep stosd
	mov	eax, DWORD PTR ___security_cookie
	xor	eax, ebp
	push	eax
	lea	eax, DWORD PTR __$EHRec$[ebp]
	mov	DWORD PTR fs:0, eax

; 66   : 	return new RakNetCommandParser;

	push	20					; 00000014H
	call	??2@YAPAXI@Z				; operator new
	add	esp, 4
	mov	DWORD PTR $T3[ebp], eax
	mov	DWORD PTR __$EHRec$[ebp+8], 0
	cmp	DWORD PTR $T3[ebp], 0
	je	SHORT $LN3@GetRakNetC
	mov	ecx, DWORD PTR $T3[ebp]
	call	??0RakNetCommandParser@@QAE@XZ		; RakNetCommandParser::RakNetCommandParser
	mov	DWORD PTR tv71[ebp], eax
	jmp	SHORT $LN4@GetRakNetC
$LN3@GetRakNetC:
	mov	DWORD PTR tv71[ebp], 0
$LN4@GetRakNetC:
	mov	eax, DWORD PTR tv71[ebp]
	mov	DWORD PTR $T2[ebp], eax
	mov	DWORD PTR __$EHRec$[ebp+8], -1
	mov	eax, DWORD PTR $T2[ebp]

; 67   : }

	mov	ecx, DWORD PTR __$EHRec$[ebp]
	mov	DWORD PTR fs:0, ecx
	pop	ecx
	pop	edi
	pop	esi
	pop	ebx
	add	esp, 232				; 000000e8H
	cmp	ebp, esp
	call	__RTC_CheckEsp
	mov	esp, ebp
	pop	ebp
	ret	0
_TEXT	ENDS
;	COMDAT text$x
text$x	SEGMENT
__unwindfunclet$?GetRakNetCommandParser@RakNetworkFactory@@SAPAVRakNetCommandParser@@XZ$0:
	mov	eax, DWORD PTR $T3[ebp]
	push	eax
	call	??3@YAXPAX@Z				; operator delete
	pop	ecx
	ret	0
__ehhandler$?GetRakNetCommandParser@RakNetworkFactory@@SAPAVRakNetCommandParser@@XZ:
	mov	edx, DWORD PTR [esp+8]
	lea	eax, DWORD PTR [edx+12]
	mov	ecx, DWORD PTR [edx-236]
	xor	ecx, eax
	call	@__security_check_cookie@4
	mov	eax, OFFSET __ehfuncinfo$?GetRakNetCommandParser@RakNetworkFactory@@SAPAVRakNetCommandParser@@XZ
	jmp	___CxxFrameHandler3
text$x	ENDS
?GetRakNetCommandParser@RakNetworkFactory@@SAPAVRakNetCommandParser@@XZ ENDP ; RakNetworkFactory::GetRakNetCommandParser
; Function compile flags: /Odtp /RTCsu /ZI
; File z:\sampsrc\02xu1\raknet\raknetworkfactory.cpp
;	COMDAT ?GetPacketLogger@RakNetworkFactory@@SAPAVPacketLogger@@XZ
_TEXT	SEGMENT
tv71 = -232						; size = 4
$T2 = -224						; size = 4
$T3 = -212						; size = 4
__$EHRec$ = -12						; size = 12
?GetPacketLogger@RakNetworkFactory@@SAPAVPacketLogger@@XZ PROC ; RakNetworkFactory::GetPacketLogger, COMDAT

; 61   : {

	push	ebp
	mov	ebp, esp
	push	-1
	push	__ehhandler$?GetPacketLogger@RakNetworkFactory@@SAPAVPacketLogger@@XZ
	mov	eax, DWORD PTR fs:0
	push	eax
	sub	esp, 220				; 000000dcH
	push	ebx
	push	esi
	push	edi
	lea	edi, DWORD PTR [ebp-232]
	mov	ecx, 55					; 00000037H
	mov	eax, -858993460				; ccccccccH
	rep stosd
	mov	eax, DWORD PTR ___security_cookie
	xor	eax, ebp
	push	eax
	lea	eax, DWORD PTR __$EHRec$[ebp]
	mov	DWORD PTR fs:0, eax

; 62   : 	return new PacketLogger;

	push	10					; 0000000aH
	call	??2@YAPAXI@Z				; operator new
	add	esp, 4
	mov	DWORD PTR $T3[ebp], eax
	mov	DWORD PTR __$EHRec$[ebp+8], 0
	cmp	DWORD PTR $T3[ebp], 0
	je	SHORT $LN3@GetPacketL
	mov	ecx, DWORD PTR $T3[ebp]
	call	??0PacketLogger@@QAE@XZ			; PacketLogger::PacketLogger
	mov	DWORD PTR tv71[ebp], eax
	jmp	SHORT $LN4@GetPacketL
$LN3@GetPacketL:
	mov	DWORD PTR tv71[ebp], 0
$LN4@GetPacketL:
	mov	eax, DWORD PTR tv71[ebp]
	mov	DWORD PTR $T2[ebp], eax
	mov	DWORD PTR __$EHRec$[ebp+8], -1
	mov	eax, DWORD PTR $T2[ebp]

; 63   : }

	mov	ecx, DWORD PTR __$EHRec$[ebp]
	mov	DWORD PTR fs:0, ecx
	pop	ecx
	pop	edi
	pop	esi
	pop	ebx
	add	esp, 232				; 000000e8H
	cmp	ebp, esp
	call	__RTC_CheckEsp
	mov	esp, ebp
	pop	ebp
	ret	0
_TEXT	ENDS
;	COMDAT text$x
text$x	SEGMENT
__unwindfunclet$?GetPacketLogger@RakNetworkFactory@@SAPAVPacketLogger@@XZ$0:
	mov	eax, DWORD PTR $T3[ebp]
	push	eax
	call	??3@YAXPAX@Z				; operator delete
	pop	ecx
	ret	0
__ehhandler$?GetPacketLogger@RakNetworkFactory@@SAPAVPacketLogger@@XZ:
	mov	edx, DWORD PTR [esp+8]
	lea	eax, DWORD PTR [edx+12]
	mov	ecx, DWORD PTR [edx-236]
	xor	ecx, eax
	call	@__security_check_cookie@4
	mov	eax, OFFSET __ehfuncinfo$?GetPacketLogger@RakNetworkFactory@@SAPAVPacketLogger@@XZ
	jmp	___CxxFrameHandler3
text$x	ENDS
?GetPacketLogger@RakNetworkFactory@@SAPAVPacketLogger@@XZ ENDP ; RakNetworkFactory::GetPacketLogger
; Function compile flags: /Odtp /RTCsu /ZI
; File z:\sampsrc\02xu1\raknet\raknetworkfactory.cpp
;	COMDAT ?GetLogCommandParser@RakNetworkFactory@@SAPAVLogCommandParser@@XZ
_TEXT	SEGMENT
tv71 = -232						; size = 4
$T2 = -224						; size = 4
$T3 = -212						; size = 4
__$EHRec$ = -12						; size = 12
?GetLogCommandParser@RakNetworkFactory@@SAPAVLogCommandParser@@XZ PROC ; RakNetworkFactory::GetLogCommandParser, COMDAT

; 57   : {

	push	ebp
	mov	ebp, esp
	push	-1
	push	__ehhandler$?GetLogCommandParser@RakNetworkFactory@@SAPAVLogCommandParser@@XZ
	mov	eax, DWORD PTR fs:0
	push	eax
	sub	esp, 220				; 000000dcH
	push	ebx
	push	esi
	push	edi
	lea	edi, DWORD PTR [ebp-232]
	mov	ecx, 55					; 00000037H
	mov	eax, -858993460				; ccccccccH
	rep stosd
	mov	eax, DWORD PTR ___security_cookie
	xor	eax, ebp
	push	eax
	lea	eax, DWORD PTR __$EHRec$[ebp]
	mov	DWORD PTR fs:0, eax

; 58   : 	return new LogCommandParser;

	push	160					; 000000a0H
	call	??2@YAPAXI@Z				; operator new
	add	esp, 4
	mov	DWORD PTR $T3[ebp], eax
	mov	DWORD PTR __$EHRec$[ebp+8], 0
	cmp	DWORD PTR $T3[ebp], 0
	je	SHORT $LN3@GetLogComm
	mov	ecx, DWORD PTR $T3[ebp]
	call	??0LogCommandParser@@QAE@XZ		; LogCommandParser::LogCommandParser
	mov	DWORD PTR tv71[ebp], eax
	jmp	SHORT $LN4@GetLogComm
$LN3@GetLogComm:
	mov	DWORD PTR tv71[ebp], 0
$LN4@GetLogComm:
	mov	eax, DWORD PTR tv71[ebp]
	mov	DWORD PTR $T2[ebp], eax
	mov	DWORD PTR __$EHRec$[ebp+8], -1
	mov	eax, DWORD PTR $T2[ebp]

; 59   : }

	mov	ecx, DWORD PTR __$EHRec$[ebp]
	mov	DWORD PTR fs:0, ecx
	pop	ecx
	pop	edi
	pop	esi
	pop	ebx
	add	esp, 232				; 000000e8H
	cmp	ebp, esp
	call	__RTC_CheckEsp
	mov	esp, ebp
	pop	ebp
	ret	0
_TEXT	ENDS
;	COMDAT text$x
text$x	SEGMENT
__unwindfunclet$?GetLogCommandParser@RakNetworkFactory@@SAPAVLogCommandParser@@XZ$0:
	mov	eax, DWORD PTR $T3[ebp]
	push	eax
	call	??3@YAXPAX@Z				; operator delete
	pop	ecx
	ret	0
__ehhandler$?GetLogCommandParser@RakNetworkFactory@@SAPAVLogCommandParser@@XZ:
	mov	edx, DWORD PTR [esp+8]
	lea	eax, DWORD PTR [edx+12]
	mov	ecx, DWORD PTR [edx-236]
	xor	ecx, eax
	call	@__security_check_cookie@4
	mov	eax, OFFSET __ehfuncinfo$?GetLogCommandParser@RakNetworkFactory@@SAPAVLogCommandParser@@XZ
	jmp	___CxxFrameHandler3
text$x	ENDS
?GetLogCommandParser@RakNetworkFactory@@SAPAVLogCommandParser@@XZ ENDP ; RakNetworkFactory::GetLogCommandParser
; Function compile flags: /Odtp /RTCsu /ZI
; File z:\sampsrc\02xu1\raknet\raknetworkfactory.cpp
;	COMDAT ?GetReplicaManager@RakNetworkFactory@@SAPAVReplicaManager@@XZ
_TEXT	SEGMENT
tv71 = -232						; size = 4
$T2 = -224						; size = 4
$T3 = -212						; size = 4
__$EHRec$ = -12						; size = 12
?GetReplicaManager@RakNetworkFactory@@SAPAVReplicaManager@@XZ PROC ; RakNetworkFactory::GetReplicaManager, COMDAT

; 53   : {

	push	ebp
	mov	ebp, esp
	push	-1
	push	__ehhandler$?GetReplicaManager@RakNetworkFactory@@SAPAVReplicaManager@@XZ
	mov	eax, DWORD PTR fs:0
	push	eax
	sub	esp, 220				; 000000dcH
	push	ebx
	push	esi
	push	edi
	lea	edi, DWORD PTR [ebp-232]
	mov	ecx, 55					; 00000037H
	mov	eax, -858993460				; ccccccccH
	rep stosd
	mov	eax, DWORD PTR ___security_cookie
	xor	eax, ebp
	push	eax
	lea	eax, DWORD PTR __$EHRec$[ebp]
	mov	DWORD PTR fs:0, eax

; 54   : 	return new ReplicaManager;

	push	48					; 00000030H
	call	??2@YAPAXI@Z				; operator new
	add	esp, 4
	mov	DWORD PTR $T3[ebp], eax
	mov	DWORD PTR __$EHRec$[ebp+8], 0
	cmp	DWORD PTR $T3[ebp], 0
	je	SHORT $LN3@GetReplica
	mov	ecx, DWORD PTR $T3[ebp]
	call	??0ReplicaManager@@QAE@XZ		; ReplicaManager::ReplicaManager
	mov	DWORD PTR tv71[ebp], eax
	jmp	SHORT $LN4@GetReplica
$LN3@GetReplica:
	mov	DWORD PTR tv71[ebp], 0
$LN4@GetReplica:
	mov	eax, DWORD PTR tv71[ebp]
	mov	DWORD PTR $T2[ebp], eax
	mov	DWORD PTR __$EHRec$[ebp+8], -1
	mov	eax, DWORD PTR $T2[ebp]

; 55   : }

	mov	ecx, DWORD PTR __$EHRec$[ebp]
	mov	DWORD PTR fs:0, ecx
	pop	ecx
	pop	edi
	pop	esi
	pop	ebx
	add	esp, 232				; 000000e8H
	cmp	ebp, esp
	call	__RTC_CheckEsp
	mov	esp, ebp
	pop	ebp
	ret	0
_TEXT	ENDS
;	COMDAT text$x
text$x	SEGMENT
__unwindfunclet$?GetReplicaManager@RakNetworkFactory@@SAPAVReplicaManager@@XZ$0:
	mov	eax, DWORD PTR $T3[ebp]
	push	eax
	call	??3@YAXPAX@Z				; operator delete
	pop	ecx
	ret	0
__ehhandler$?GetReplicaManager@RakNetworkFactory@@SAPAVReplicaManager@@XZ:
	mov	edx, DWORD PTR [esp+8]
	lea	eax, DWORD PTR [edx+12]
	mov	ecx, DWORD PTR [edx-236]
	xor	ecx, eax
	call	@__security_check_cookie@4
	mov	eax, OFFSET __ehfuncinfo$?GetReplicaManager@RakNetworkFactory@@SAPAVReplicaManager@@XZ
	jmp	___CxxFrameHandler3
text$x	ENDS
?GetReplicaManager@RakNetworkFactory@@SAPAVReplicaManager@@XZ ENDP ; RakNetworkFactory::GetReplicaManager
; Function compile flags: /Odtp /RTCsu /ZI
; File z:\sampsrc\02xu1\raknet\raknetworkfactory.cpp
;	COMDAT ?GetConsoleServer@RakNetworkFactory@@SAPAVConsoleServer@@XZ
_TEXT	SEGMENT
tv71 = -232						; size = 4
$T2 = -224						; size = 4
$T3 = -212						; size = 4
__$EHRec$ = -12						; size = 12
?GetConsoleServer@RakNetworkFactory@@SAPAVConsoleServer@@XZ PROC ; RakNetworkFactory::GetConsoleServer, COMDAT

; 49   : {

	push	ebp
	mov	ebp, esp
	push	-1
	push	__ehhandler$?GetConsoleServer@RakNetworkFactory@@SAPAVConsoleServer@@XZ
	mov	eax, DWORD PTR fs:0
	push	eax
	sub	esp, 220				; 000000dcH
	push	ebx
	push	esi
	push	edi
	lea	edi, DWORD PTR [ebp-232]
	mov	ecx, 55					; 00000037H
	mov	eax, -858993460				; ccccccccH
	rep stosd
	mov	eax, DWORD PTR ___security_cookie
	xor	eax, ebp
	push	eax
	lea	eax, DWORD PTR __$EHRec$[ebp]
	mov	DWORD PTR fs:0, eax

; 50   : 	return new ConsoleServer;

	push	1040					; 00000410H
	call	??2@YAPAXI@Z				; operator new
	add	esp, 4
	mov	DWORD PTR $T3[ebp], eax
	mov	DWORD PTR __$EHRec$[ebp+8], 0
	cmp	DWORD PTR $T3[ebp], 0
	je	SHORT $LN3@GetConsole
	mov	ecx, DWORD PTR $T3[ebp]
	call	??0ConsoleServer@@QAE@XZ		; ConsoleServer::ConsoleServer
	mov	DWORD PTR tv71[ebp], eax
	jmp	SHORT $LN4@GetConsole
$LN3@GetConsole:
	mov	DWORD PTR tv71[ebp], 0
$LN4@GetConsole:
	mov	eax, DWORD PTR tv71[ebp]
	mov	DWORD PTR $T2[ebp], eax
	mov	DWORD PTR __$EHRec$[ebp+8], -1
	mov	eax, DWORD PTR $T2[ebp]

; 51   : }

	mov	ecx, DWORD PTR __$EHRec$[ebp]
	mov	DWORD PTR fs:0, ecx
	pop	ecx
	pop	edi
	pop	esi
	pop	ebx
	add	esp, 232				; 000000e8H
	cmp	ebp, esp
	call	__RTC_CheckEsp
	mov	esp, ebp
	pop	ebp
	ret	0
_TEXT	ENDS
;	COMDAT text$x
text$x	SEGMENT
__unwindfunclet$?GetConsoleServer@RakNetworkFactory@@SAPAVConsoleServer@@XZ$0:
	mov	eax, DWORD PTR $T3[ebp]
	push	eax
	call	??3@YAXPAX@Z				; operator delete
	pop	ecx
	ret	0
__ehhandler$?GetConsoleServer@RakNetworkFactory@@SAPAVConsoleServer@@XZ:
	mov	edx, DWORD PTR [esp+8]
	lea	eax, DWORD PTR [edx+12]
	mov	ecx, DWORD PTR [edx-236]
	xor	ecx, eax
	call	@__security_check_cookie@4
	mov	eax, OFFSET __ehfuncinfo$?GetConsoleServer@RakNetworkFactory@@SAPAVConsoleServer@@XZ
	jmp	___CxxFrameHandler3
text$x	ENDS
?GetConsoleServer@RakNetworkFactory@@SAPAVConsoleServer@@XZ ENDP ; RakNetworkFactory::GetConsoleServer
; Function compile flags: /Odtp /RTCsu /ZI
; File z:\sampsrc\02xu1\raknet\raknetworkfactory.cpp
;	COMDAT ?GetRakPeerInterface@RakNetworkFactory@@SAPAVRakPeerInterface@@XZ
_TEXT	SEGMENT
tv74 = -232						; size = 4
$T2 = -224						; size = 4
$T3 = -212						; size = 4
__$EHRec$ = -12						; size = 12
?GetRakPeerInterface@RakNetworkFactory@@SAPAVRakPeerInterface@@XZ PROC ; RakNetworkFactory::GetRakPeerInterface, COMDAT

; 45   : {

	push	ebp
	mov	ebp, esp
	push	-1
	push	__ehhandler$?GetRakPeerInterface@RakNetworkFactory@@SAPAVRakPeerInterface@@XZ
	mov	eax, DWORD PTR fs:0
	push	eax
	sub	esp, 220				; 000000dcH
	push	ebx
	push	esi
	push	edi
	lea	edi, DWORD PTR [ebp-232]
	mov	ecx, 55					; 00000037H
	mov	eax, -858993460				; ccccccccH
	rep stosd
	mov	eax, DWORD PTR ___security_cookie
	xor	eax, ebp
	push	eax
	lea	eax, DWORD PTR __$EHRec$[ebp]
	mov	DWORD PTR fs:0, eax

; 46   : 	return new RakPeer;

	push	2538					; 000009eaH
	call	??2@YAPAXI@Z				; operator new
	add	esp, 4
	mov	DWORD PTR $T3[ebp], eax
	mov	DWORD PTR __$EHRec$[ebp+8], 0
	cmp	DWORD PTR $T3[ebp], 0
	je	SHORT $LN3@GetRakPeer
	mov	ecx, DWORD PTR $T3[ebp]
	call	??0RakPeer@@QAE@XZ			; RakPeer::RakPeer
	mov	DWORD PTR tv74[ebp], eax
	jmp	SHORT $LN4@GetRakPeer
$LN3@GetRakPeer:
	mov	DWORD PTR tv74[ebp], 0
$LN4@GetRakPeer:
	mov	eax, DWORD PTR tv74[ebp]
	mov	DWORD PTR $T2[ebp], eax
	mov	DWORD PTR __$EHRec$[ebp+8], -1
	mov	eax, DWORD PTR $T2[ebp]

; 47   : }

	mov	ecx, DWORD PTR __$EHRec$[ebp]
	mov	DWORD PTR fs:0, ecx
	pop	ecx
	pop	edi
	pop	esi
	pop	ebx
	add	esp, 232				; 000000e8H
	cmp	ebp, esp
	call	__RTC_CheckEsp
	mov	esp, ebp
	pop	ebp
	ret	0
_TEXT	ENDS
;	COMDAT text$x
text$x	SEGMENT
__unwindfunclet$?GetRakPeerInterface@RakNetworkFactory@@SAPAVRakPeerInterface@@XZ$0:
	mov	eax, DWORD PTR $T3[ebp]
	push	eax
	call	??3@YAXPAX@Z				; operator delete
	pop	ecx
	ret	0
__ehhandler$?GetRakPeerInterface@RakNetworkFactory@@SAPAVRakPeerInterface@@XZ:
	mov	edx, DWORD PTR [esp+8]
	lea	eax, DWORD PTR [edx+12]
	mov	ecx, DWORD PTR [edx-236]
	xor	ecx, eax
	call	@__security_check_cookie@4
	mov	eax, OFFSET __ehfuncinfo$?GetRakPeerInterface@RakNetworkFactory@@SAPAVRakPeerInterface@@XZ
	jmp	___CxxFrameHandler3
text$x	ENDS
?GetRakPeerInterface@RakNetworkFactory@@SAPAVRakPeerInterface@@XZ ENDP ; RakNetworkFactory::GetRakPeerInterface
; Function compile flags: /Odtp /RTCsu /ZI
; File z:\sampsrc\02xu1\raknet\raknetworkfactory.cpp
;	COMDAT ?GetRakServerInterface@RakNetworkFactory@@SAPAVRakServerInterface@@XZ
_TEXT	SEGMENT
tv74 = -232						; size = 4
$T2 = -224						; size = 4
$T3 = -212						; size = 4
__$EHRec$ = -12						; size = 12
?GetRakServerInterface@RakNetworkFactory@@SAPAVRakServerInterface@@XZ PROC ; RakNetworkFactory::GetRakServerInterface, COMDAT

; 41   : {

	push	ebp
	mov	ebp, esp
	push	-1
	push	__ehhandler$?GetRakServerInterface@RakNetworkFactory@@SAPAVRakServerInterface@@XZ
	mov	eax, DWORD PTR fs:0
	push	eax
	sub	esp, 220				; 000000dcH
	push	ebx
	push	esi
	push	edi
	lea	edi, DWORD PTR [ebp-232]
	mov	ecx, 55					; 00000037H
	mov	eax, -858993460				; ccccccccH
	rep stosd
	mov	eax, DWORD PTR ___security_cookie
	xor	eax, ebp
	push	eax
	lea	eax, DWORD PTR __$EHRec$[ebp]
	mov	DWORD PTR fs:0, eax

; 42   : 	return new RakServer;

	push	2560					; 00000a00H
	call	??2@YAPAXI@Z				; operator new
	add	esp, 4
	mov	DWORD PTR $T3[ebp], eax
	mov	DWORD PTR __$EHRec$[ebp+8], 0
	cmp	DWORD PTR $T3[ebp], 0
	je	SHORT $LN3@GetRakServ
	mov	ecx, DWORD PTR $T3[ebp]
	call	??0RakServer@@QAE@XZ			; RakServer::RakServer
	mov	DWORD PTR tv74[ebp], eax
	jmp	SHORT $LN4@GetRakServ
$LN3@GetRakServ:
	mov	DWORD PTR tv74[ebp], 0
$LN4@GetRakServ:
	mov	eax, DWORD PTR tv74[ebp]
	mov	DWORD PTR $T2[ebp], eax
	mov	DWORD PTR __$EHRec$[ebp+8], -1
	mov	eax, DWORD PTR $T2[ebp]

; 43   : }

	mov	ecx, DWORD PTR __$EHRec$[ebp]
	mov	DWORD PTR fs:0, ecx
	pop	ecx
	pop	edi
	pop	esi
	pop	ebx
	add	esp, 232				; 000000e8H
	cmp	ebp, esp
	call	__RTC_CheckEsp
	mov	esp, ebp
	pop	ebp
	ret	0
_TEXT	ENDS
;	COMDAT text$x
text$x	SEGMENT
__unwindfunclet$?GetRakServerInterface@RakNetworkFactory@@SAPAVRakServerInterface@@XZ$0:
	mov	eax, DWORD PTR $T3[ebp]
	push	eax
	call	??3@YAXPAX@Z				; operator delete
	pop	ecx
	ret	0
__ehhandler$?GetRakServerInterface@RakNetworkFactory@@SAPAVRakServerInterface@@XZ:
	mov	edx, DWORD PTR [esp+8]
	lea	eax, DWORD PTR [edx+12]
	mov	ecx, DWORD PTR [edx-236]
	xor	ecx, eax
	call	@__security_check_cookie@4
	mov	eax, OFFSET __ehfuncinfo$?GetRakServerInterface@RakNetworkFactory@@SAPAVRakServerInterface@@XZ
	jmp	___CxxFrameHandler3
text$x	ENDS
?GetRakServerInterface@RakNetworkFactory@@SAPAVRakServerInterface@@XZ ENDP ; RakNetworkFactory::GetRakServerInterface
; Function compile flags: /Odtp /RTCsu /ZI
; File z:\sampsrc\02xu1\raknet\raknetworkfactory.cpp
;	COMDAT ?GetRakClientInterface@RakNetworkFactory@@SAPAVRakClientInterface@@XZ
_TEXT	SEGMENT
tv75 = -236						; size = 4
tv74 = -232						; size = 4
$T2 = -224						; size = 4
$T3 = -212						; size = 4
__$EHRec$ = -12						; size = 12
?GetRakClientInterface@RakNetworkFactory@@SAPAVRakClientInterface@@XZ PROC ; RakNetworkFactory::GetRakClientInterface, COMDAT

; 37   : {

	push	ebp
	mov	ebp, esp
	push	-1
	push	__ehhandler$?GetRakClientInterface@RakNetworkFactory@@SAPAVRakClientInterface@@XZ
	mov	eax, DWORD PTR fs:0
	push	eax
	sub	esp, 224				; 000000e0H
	push	ebx
	push	esi
	push	edi
	lea	edi, DWORD PTR [ebp-236]
	mov	ecx, 56					; 00000038H
	mov	eax, -858993460				; ccccccccH
	rep stosd
	mov	eax, DWORD PTR ___security_cookie
	xor	eax, ebp
	push	eax
	lea	eax, DWORD PTR __$EHRec$[ebp]
	mov	DWORD PTR fs:0, eax

; 38   : 	return new RakClient;

	push	11859					; 00002e53H
	call	??2@YAPAXI@Z				; operator new
	add	esp, 4
	mov	DWORD PTR $T3[ebp], eax
	mov	DWORD PTR __$EHRec$[ebp+8], 0
	cmp	DWORD PTR $T3[ebp], 0
	je	SHORT $LN3@GetRakClie
	mov	ecx, DWORD PTR $T3[ebp]
	call	??0RakClient@@QAE@XZ			; RakClient::RakClient
	mov	DWORD PTR tv74[ebp], eax
	jmp	SHORT $LN4@GetRakClie
$LN3@GetRakClie:
	mov	DWORD PTR tv74[ebp], 0
$LN4@GetRakClie:
	mov	eax, DWORD PTR tv74[ebp]
	mov	DWORD PTR $T2[ebp], eax
	mov	DWORD PTR __$EHRec$[ebp+8], -1
	cmp	DWORD PTR $T2[ebp], 0
	je	SHORT $LN5@GetRakClie
	mov	ecx, DWORD PTR $T2[ebp]
	add	ecx, 2538				; 000009eaH
	mov	DWORD PTR tv75[ebp], ecx
	jmp	SHORT $LN6@GetRakClie
$LN5@GetRakClie:
	mov	DWORD PTR tv75[ebp], 0
$LN6@GetRakClie:
	mov	eax, DWORD PTR tv75[ebp]

; 39   : }

	mov	ecx, DWORD PTR __$EHRec$[ebp]
	mov	DWORD PTR fs:0, ecx
	pop	ecx
	pop	edi
	pop	esi
	pop	ebx
	add	esp, 236				; 000000ecH
	cmp	ebp, esp
	call	__RTC_CheckEsp
	mov	esp, ebp
	pop	ebp
	ret	0
_TEXT	ENDS
;	COMDAT text$x
text$x	SEGMENT
__unwindfunclet$?GetRakClientInterface@RakNetworkFactory@@SAPAVRakClientInterface@@XZ$0:
	mov	eax, DWORD PTR $T3[ebp]
	push	eax
	call	??3@YAXPAX@Z				; operator delete
	pop	ecx
	ret	0
__ehhandler$?GetRakClientInterface@RakNetworkFactory@@SAPAVRakClientInterface@@XZ:
	mov	edx, DWORD PTR [esp+8]
	lea	eax, DWORD PTR [edx+12]
	mov	ecx, DWORD PTR [edx-240]
	xor	ecx, eax
	call	@__security_check_cookie@4
	mov	eax, OFFSET __ehfuncinfo$?GetRakClientInterface@RakNetworkFactory@@SAPAVRakClientInterface@@XZ
	jmp	___CxxFrameHandler3
text$x	ENDS
?GetRakClientInterface@RakNetworkFactory@@SAPAVRakClientInterface@@XZ ENDP ; RakNetworkFactory::GetRakClientInterface
END
