; Listing generated by Microsoft (R) Optimizing Compiler Version 18.00.31101.0 

	TITLE	Z:\sampsrc\02Xu1\raknet\RakPeer.cpp
	.686P
	.XMM
	include listing.inc
	.model	flat

INCLUDELIB LIBCMTD
INCLUDELIB OLDNAMES

CONST	SEGMENT
_UNASSIGNED_PLAYER_ID DD 0ffffffffH
	DW	0ffffH
	ORG $+2
_UNASSIGNED_NETWORK_ID DD 0ffffffffH
	DW	0ffffH
	DW	0ffffH
_PRIME_TABLE DW	03H
	DW	05H
	DW	07H
	DW	0bH
	DW	0dH
	DW	011H
	DW	013H
	DW	017H
	DW	01dH
	DW	01fH
	DW	025H
	DW	029H
	DW	02bH
	DW	02fH
	DW	035H
	DW	03bH
	DW	03dH
	DW	043H
	DW	047H
	DW	049H
	DW	04fH
	DW	053H
	DW	059H
	DW	061H
	DW	065H
	DW	067H
	DW	06bH
	DW	06dH
	DW	071H
	DW	07fH
	DW	083H
	DW	089H
	DW	08bH
	DW	095H
	DW	097H
	DW	09dH
	DW	0a3H
	DW	0a7H
	DW	0adH
	DW	0b3H
	DW	0b5H
	DW	0bfH
	DW	0c1H
	DW	0c5H
	DW	0c7H
	DW	0d3H
	DW	0dfH
	DW	0e3H
	DW	0e5H
	DW	0e9H
	DW	0efH
	DW	0f1H
	DW	0fbH
	DW	0101H
	DW	0107H
	DW	010dH
	DW	010fH
	DW	0115H
	DW	0119H
	DW	011bH
	DW	0125H
	DW	0133H
	DW	0137H
	DW	0139H
	DW	013dH
	DW	014bH
	DW	0151H
	DW	015bH
	DW	015dH
	DW	0161H
	DW	0167H
	DW	016fH
	DW	0175H
	DW	017bH
	DW	017fH
	DW	0185H
	DW	018dH
	DW	0191H
	DW	0199H
	DW	01a3H
	DW	01a5H
	DW	01afH
	DW	01b1H
	DW	01b7H
	DW	01bbH
	DW	01c1H
	DW	01c9H
	DW	01cdH
	DW	01cfH
	DW	01d3H
	DW	01dfH
	DW	01e7H
	DW	01ebH
	DW	01f3H
	DW	01f7H
	DW	01fdH
	DW	0209H
	DW	020bH
	DW	021dH
	DW	0223H
	DW	022dH
	DW	0233H
	DW	0239H
	DW	023bH
	DW	0241H
	DW	024bH
	DW	0251H
	DW	0257H
	DW	0259H
	DW	025fH
	DW	0265H
	DW	0269H
	DW	026bH
	DW	0277H
	DW	0281H
	DW	0283H
	DW	0287H
	DW	028dH
	DW	0293H
	DW	0295H
	DW	02a1H
	DW	02a5H
	DW	02abH
	DW	02b3H
	DW	02bdH
	DW	02c5H
	DW	02cfH
	DW	02d7H
	DW	02ddH
	DW	02e3H
	DW	02e7H
	DW	02efH
	DW	02f5H
	DW	02f9H
	DW	0301H
	DW	0305H
	DW	0313H
	DW	031dH
	DW	0329H
	DW	032bH
	DW	0335H
	DW	0337H
	DW	033bH
	DW	033dH
	DW	0347H
	DW	0355H
	DW	0359H
	DW	035bH
	DW	035fH
	DW	036dH
	DW	0371H
	DW	0373H
	DW	0377H
	DW	038bH
	DW	038fH
	DW	0397H
	DW	03a1H
	DW	03a9H
	DW	03adH
	DW	03b3H
	DW	03b9H
	DW	03c7H
	DW	03cbH
	DW	03d1H
	DW	03d7H
	DW	03dfH
	DW	03e5H
	DW	03f1H
	DW	03f5H
	DW	03fbH
	DW	03fdH
	DW	0407H
	DW	0409H
	DW	040fH
	DW	0419H
	DW	041bH
	DW	0425H
	DW	0427H
	DW	042dH
	DW	043fH
	DW	0443H
	DW	0445H
	DW	0449H
	DW	044fH
	DW	0455H
	DW	045dH
	DW	0463H
	DW	0469H
	DW	047fH
	DW	0481H
	DW	048bH
	DW	0493H
	DW	049dH
	DW	04a3H
	DW	04a9H
	DW	04b1H
	DW	04bdH
	DW	04c1H
	DW	04c7H
	DW	04cdH
	DW	04cfH
	DW	04d5H
	DW	04e1H
	DW	04ebH
	DW	04fdH
	DW	04ffH
	DW	0503H
	DW	0509H
	DW	050bH
	DW	0511H
	DW	0515H
	DW	0517H
	DW	051bH
	DW	0527H
	DW	0529H
	DW	052fH
	DW	0551H
	DW	0557H
	DW	055dH
	DW	0565H
	DW	0577H
	DW	0581H
	DW	058fH
	DW	0593H
	DW	0595H
	DW	0599H
	DW	059fH
	DW	05a7H
	DW	05abH
	DW	05adH
	DW	05b3H
	DW	05bfH
	DW	05c9H
	DW	05cbH
	DW	05cfH
	DW	05d1H
	DW	05d5H
	DW	05dbH
	DW	05e7H
	DW	05f3H
	DW	05fbH
	DW	0607H
	DW	060dH
	DW	0611H
	DW	0617H
	DW	061fH
	DW	0623H
	DW	062bH
	DW	062fH
	DW	063dH
	DW	0641H
	DW	0647H
	DW	0649H
	DW	064dH
	DW	0653H
	DW	0655H
CONST	ENDS
PUBLIC	??4PlayerID@@QAEAAU0@ABU0@@Z			; PlayerID::operator=
PUBLIC	??1RakPeerInterface@@UAE@XZ			; RakPeerInterface::~RakPeerInterface
PUBLIC	??0RakPeerInterface@@QAE@XZ			; RakPeerInterface::RakPeerInterface
PUBLIC	??_GRakPeerInterface@@UAEPAXI@Z			; RakPeerInterface::`scalar deleting destructor'
PUBLIC	?Instance@SocketLayer@@SAPAV1@XZ		; SocketLayer::Instance
PUBLIC	?GetNumberOfBitsUsed@BitStream@RakNet@@QBEHXZ	; RakNet::BitStream::GetNumberOfBitsUsed
PUBLIC	?GetWriteOffset@BitStream@RakNet@@QBEHXZ	; RakNet::BitStream::GetWriteOffset
PUBLIC	?GetNumberOfBytesUsed@BitStream@RakNet@@QBEHXZ	; RakNet::BitStream::GetNumberOfBytesUsed
PUBLIC	?GetNumberOfUnreadBits@BitStream@RakNet@@QBEHXZ	; RakNet::BitStream::GetNumberOfUnreadBits
PUBLIC	?GetData@BitStream@RakNet@@QBEPAEXZ		; RakNet::BitStream::GetData
PUBLIC	??$Write@_N@BitStream@RakNet@@QAEX_N@Z		; RakNet::BitStream::Write<bool>
PUBLIC	??$Write@UPlayerID@@@BitStream@RakNet@@QAEXUPlayerID@@@Z ; RakNet::BitStream::Write<PlayerID>
PUBLIC	??$Write@I@BitStream@RakNet@@QAEXI@Z		; RakNet::BitStream::Write<unsigned int>
PUBLIC	??$Write@G@BitStream@RakNet@@QAEXG@Z		; RakNet::BitStream::Write<unsigned short>
PUBLIC	??$Write@UNetworkID@@@BitStream@RakNet@@QAEXUNetworkID@@@Z ; RakNet::BitStream::Write<NetworkID>
PUBLIC	??$Read@_N@BitStream@RakNet@@QAE_NAA_N@Z	; RakNet::BitStream::Read<bool>
PUBLIC	??$Read@UPlayerID@@@BitStream@RakNet@@QAE_NAAUPlayerID@@@Z ; RakNet::BitStream::Read<PlayerID>
PUBLIC	??$Read@I@BitStream@RakNet@@QAE_NAAI@Z		; RakNet::BitStream::Read<unsigned int>
PUBLIC	??$Read@G@BitStream@RakNet@@QAE_NAAG@Z		; RakNet::BitStream::Read<unsigned short>
PUBLIC	??$Read@UNetworkID@@@BitStream@RakNet@@QAE_NAAUNetworkID@@@Z ; RakNet::BitStream::Read<NetworkID>
PUBLIC	??YRakNetStatisticsStruct@@QAE?AU0@ABU0@@Z	; RakNetStatisticsStruct::operator+=
PUBLIC	??4PlayerIDAndIndex@@QAEAAU0@ABU0@@Z		; PlayerIDAndIndex::operator=
PUBLIC	?PlayerIDAndIndexComp@@YAHABUPlayerID@@ABUPlayerIDAndIndex@@@Z ; PlayerIDAndIndexComp
PUBLIC	??0RakPeer@@QAE@XZ				; RakPeer::RakPeer
PUBLIC	??1RakPeer@@UAE@XZ				; RakPeer::~RakPeer
PUBLIC	?Initialize@RakPeer@@UAE_NGGHPBD@Z		; RakPeer::Initialize
PUBLIC	?InitializeSecurity@RakPeer@@UAEXPBD000@Z	; RakPeer::InitializeSecurity
PUBLIC	?DisableSecurity@RakPeer@@UAEXXZ		; RakPeer::DisableSecurity
PUBLIC	?SetMaximumIncomingConnections@RakPeer@@UAEXG@Z	; RakPeer::SetMaximumIncomingConnections
PUBLIC	?GetMaximumIncomingConnections@RakPeer@@UBEGXZ	; RakPeer::GetMaximumIncomingConnections
PUBLIC	?SetIncomingPassword@RakPeer@@UAEXPBDH@Z	; RakPeer::SetIncomingPassword
PUBLIC	?GetIncomingPassword@RakPeer@@UAEXPADPAH@Z	; RakPeer::GetIncomingPassword
PUBLIC	?Connect@RakPeer@@UAE_NPBDGPADH@Z		; RakPeer::Connect
PUBLIC	?Disconnect@RakPeer@@UAEXIE@Z			; RakPeer::Disconnect
PUBLIC	?IsActive@RakPeer@@UBE_NXZ			; RakPeer::IsActive
PUBLIC	?GetConnectionList@RakPeer@@UBE_NPAUPlayerID@@PAG@Z ; RakPeer::GetConnectionList
PUBLIC	?Send@RakPeer@@UAE_NPBDHW4PacketPriority@@W4PacketReliability@@DUPlayerID@@_N@Z ; RakPeer::Send
PUBLIC	?Send@RakPeer@@UAE_NPAVBitStream@RakNet@@W4PacketPriority@@W4PacketReliability@@DUPlayerID@@_N@Z ; RakPeer::Send
PUBLIC	?Receive@RakPeer@@UAEPAUPacket@@XZ		; RakPeer::Receive
PUBLIC	?DeallocatePacket@RakPeer@@UAEXPAUPacket@@@Z	; RakPeer::DeallocatePacket
PUBLIC	?GetMaximumNumberOfPeers@RakPeer@@UBEGXZ	; RakPeer::GetMaximumNumberOfPeers
PUBLIC	?RegisterAsRemoteProcedureCall@RakPeer@@UAEXPADP6AXPAURPCParameters@@@Z@Z ; RakPeer::RegisterAsRemoteProcedureCall
PUBLIC	?RegisterClassMemberRPC@RakPeer@@UAEXPADPAX@Z	; RakPeer::RegisterClassMemberRPC
PUBLIC	?UnregisterAsRemoteProcedureCall@RakPeer@@UAEXPAD@Z ; RakPeer::UnregisterAsRemoteProcedureCall
PUBLIC	?RPC@RakPeer@@UAE_NPADPBDIW4PacketPriority@@W4PacketReliability@@DUPlayerID@@_N5UNetworkID@@PAVBitStream@RakNet@@@Z ; RakPeer::RPC
PUBLIC	?RPC@RakPeer@@UAE_NPADPAVBitStream@RakNet@@W4PacketPriority@@W4PacketReliability@@DUPlayerID@@_N5UNetworkID@@1@Z ; RakPeer::RPC
PUBLIC	?CloseConnection@RakPeer@@UAEXUPlayerID@@_NE@Z	; RakPeer::CloseConnection
PUBLIC	?GetIndexFromPlayerID@RakPeer@@UAEHUPlayerID@@@Z ; RakPeer::GetIndexFromPlayerID
PUBLIC	?GetPlayerIDFromIndex@RakPeer@@UAE?AUPlayerID@@H@Z ; RakPeer::GetPlayerIDFromIndex
PUBLIC	?AddToBanList@RakPeer@@UAEXPBDI@Z		; RakPeer::AddToBanList
PUBLIC	?RemoveFromBanList@RakPeer@@UAEXPBD@Z		; RakPeer::RemoveFromBanList
PUBLIC	?ClearBanList@RakPeer@@UAEXXZ			; RakPeer::ClearBanList
PUBLIC	?IsBanned@RakPeer@@UAE_NPBD@Z			; RakPeer::IsBanned
PUBLIC	?Ping@RakPeer@@UAEXUPlayerID@@@Z		; RakPeer::Ping
PUBLIC	?Ping@RakPeer@@UAEXPBDG_N@Z			; RakPeer::Ping
PUBLIC	?GetAveragePing@RakPeer@@UAEHUPlayerID@@@Z	; RakPeer::GetAveragePing
PUBLIC	?GetLastPing@RakPeer@@UBEHUPlayerID@@@Z		; RakPeer::GetLastPing
PUBLIC	?GetLowestPing@RakPeer@@UBEHUPlayerID@@@Z	; RakPeer::GetLowestPing
PUBLIC	?SetOccasionalPing@RakPeer@@UAEX_N@Z		; RakPeer::SetOccasionalPing
PUBLIC	?GetRemoteStaticData@RakPeer@@UAEPAVBitStream@RakNet@@UPlayerID@@@Z ; RakPeer::GetRemoteStaticData
PUBLIC	?SetRemoteStaticData@RakPeer@@UAEXUPlayerID@@PBDH@Z ; RakPeer::SetRemoteStaticData
PUBLIC	?SendStaticData@RakPeer@@UAEXUPlayerID@@@Z	; RakPeer::SendStaticData
PUBLIC	?SetOfflinePingResponse@RakPeer@@UAEXPBDI@Z	; RakPeer::SetOfflinePingResponse
PUBLIC	?GetInternalID@RakPeer@@UBE?AUPlayerID@@XZ	; RakPeer::GetInternalID
PUBLIC	?GetExternalID@RakPeer@@UBE?AUPlayerID@@U2@@Z	; RakPeer::GetExternalID
PUBLIC	?SetTimeoutTime@RakPeer@@UAEXIUPlayerID@@@Z	; RakPeer::SetTimeoutTime
PUBLIC	?SetMTUSize@RakPeer@@UAE_NH@Z			; RakPeer::SetMTUSize
PUBLIC	?GetMTUSize@RakPeer@@UBEHXZ			; RakPeer::GetMTUSize
PUBLIC	?GetNumberOfAddresses@RakPeer@@UAEIXZ		; RakPeer::GetNumberOfAddresses
PUBLIC	?GetLocalIP@RakPeer@@UAEPBDI@Z			; RakPeer::GetLocalIP
PUBLIC	?PlayerIDToDottedIP@RakPeer@@UBEPBDUPlayerID@@@Z ; RakPeer::PlayerIDToDottedIP
PUBLIC	?IPToPlayerID@RakPeer@@UAEXPBDGPAUPlayerID@@@Z	; RakPeer::IPToPlayerID
PUBLIC	?AllowConnectionResponseIPMigration@RakPeer@@UAEX_N@Z ; RakPeer::AllowConnectionResponseIPMigration
PUBLIC	?AdvertiseSystem@RakPeer@@UAEXPBDG0H@Z		; RakPeer::AdvertiseSystem
PUBLIC	?SetSplitMessageProgressInterval@RakPeer@@UAEXH@Z ; RakPeer::SetSplitMessageProgressInterval
PUBLIC	?SetUnreliableTimeout@RakPeer@@UAEXI@Z		; RakPeer::SetUnreliableTimeout
PUBLIC	?SetCompileFrequencyTable@RakPeer@@UAEX_N@Z	; RakPeer::SetCompileFrequencyTable
PUBLIC	?GetOutgoingFrequencyTable@RakPeer@@UAE_NQAI@Z	; RakPeer::GetOutgoingFrequencyTable
PUBLIC	?GenerateCompressionLayer@RakPeer@@UAE_NQAI_N@Z	; RakPeer::GenerateCompressionLayer
PUBLIC	?DeleteCompressionLayer@RakPeer@@UAE_N_N@Z	; RakPeer::DeleteCompressionLayer
PUBLIC	?GetCompressionRatio@RakPeer@@UBEMXZ		; RakPeer::GetCompressionRatio
PUBLIC	?GetDecompressionRatio@RakPeer@@UBEMXZ		; RakPeer::GetDecompressionRatio
PUBLIC	?AttachPlugin@RakPeer@@UAEXPAVPluginInterface@@@Z ; RakPeer::AttachPlugin
PUBLIC	?DetachPlugin@RakPeer@@UAEXPAVPluginInterface@@@Z ; RakPeer::DetachPlugin
PUBLIC	?PushBackPacket@RakPeer@@UAEXPAUPacket@@_N@Z	; RakPeer::PushBackPacket
PUBLIC	?SetRouterInterface@RakPeer@@UAEXPAVRouterInterface@@@Z ; RakPeer::SetRouterInterface
PUBLIC	?RemoveRouterInterface@RakPeer@@UAEXPAVRouterInterface@@@Z ; RakPeer::RemoveRouterInterface
PUBLIC	?ApplyNetworkSimulator@RakPeer@@UAEXNGG@Z	; RakPeer::ApplyNetworkSimulator
PUBLIC	?IsNetworkSimulatorActive@RakPeer@@UAE_NXZ	; RakPeer::IsNetworkSimulatorActive
PUBLIC	?GetStatistics@RakPeer@@UAEQAURakNetStatisticsStruct@@UPlayerID@@@Z ; RakPeer::GetStatistics
PUBLIC	?GetRPCMap@RakPeer@@UAEPAURPCMap@@UPlayerID@@@Z	; RakPeer::GetRPCMap
PUBLIC	??0RemoteSystemStruct@RakPeer@@QAE@XZ		; RakPeer::RemoteSystemStruct::RemoteSystemStruct
PUBLIC	??1RemoteSystemStruct@RakPeer@@QAE@XZ		; RakPeer::RemoteSystemStruct::~RemoteSystemStruct
PUBLIC	??_ERemoteSystemStruct@RakPeer@@QAEPAXI@Z	; RakPeer::RemoteSystemStruct::`vector deleting destructor'
PUBLIC	?ProcessPortUnreachable@@YGXIGPAVRakPeer@@@Z	; ProcessPortUnreachable
PUBLIC	?ProcessNetworkPacket@@YGXIGPBDHPAVRakPeer@@@Z	; ProcessNetworkPacket
PUBLIC	?UpdateNetworkLoop@@YGIPAX@Z			; UpdateNetworkLoop
PUBLIC	?ReceiveIgnoreRPC@RakPeer@@IAEPAUPacket@@XZ	; RakPeer::ReceiveIgnoreRPC
PUBLIC	?GetIndexFromPlayerID@RakPeer@@IAEHUPlayerID@@_N@Z ; RakPeer::GetIndexFromPlayerID
PUBLIC	?SendConnectionRequest@RakPeer@@IAE_NPBDGPADH@Z	; RakPeer::SendConnectionRequest
PUBLIC	?GetRemoteSystemFromPlayerID@RakPeer@@IBEPAURemoteSystemStruct@1@UPlayerID@@_N1@Z ; RakPeer::GetRemoteSystemFromPlayerID
PUBLIC	?ParseConnectionRequestPacket@RakPeer@@IAEXPAURemoteSystemStruct@1@UPlayerID@@PBDH@Z ; RakPeer::ParseConnectionRequestPacket
PUBLIC	?OnConnectionRequest@RakPeer@@IAEXPAURemoteSystemStruct@1@PAE_N@Z ; RakPeer::OnConnectionRequest
PUBLIC	?NotifyAndFlagForDisconnect@RakPeer@@IAEXUPlayerID@@_NE@Z ; RakPeer::NotifyAndFlagForDisconnect
PUBLIC	?GetNumberOfRemoteInitiatedConnections@RakPeer@@IBEGXZ ; RakPeer::GetNumberOfRemoteInitiatedConnections
PUBLIC	?AssignPlayerIDToRemoteSystemList@RakPeer@@IAEPAURemoteSystemStruct@1@UPlayerID@@W4ConnectMode@21@@Z ; RakPeer::AssignPlayerIDToRemoteSystemList
PUBLIC	?ShiftIncomingTimestamp@RakPeer@@IBEXPAEUPlayerID@@@Z ; RakPeer::ShiftIncomingTimestamp
PUBLIC	?GetBestClockDifferential@RakPeer@@IBEIUPlayerID@@@Z ; RakPeer::GetBestClockDifferential
PUBLIC	?HandleRPCPacket@RakPeer@@IAE_NPBDHUPlayerID@@@Z ; RakPeer::HandleRPCPacket
PUBLIC	?HandleRPCReplyPacket@RakPeer@@IAEXPBDHUPlayerID@@@Z ; RakPeer::HandleRPCReplyPacket
PUBLIC	??0?$OrderedList@UPlayerID@@UPlayerIDAndIndex@@$1?PlayerIDAndIndexComp@@YAHABU1@ABU2@@Z@DataStructures@@QAE@XZ ; DataStructures::OrderedList<PlayerID,PlayerIDAndIndex,&PlayerIDAndIndexComp>::OrderedList<PlayerID,PlayerIDAndIndex,&PlayerIDAndIndexComp>
PUBLIC	??1?$OrderedList@UPlayerID@@UPlayerIDAndIndex@@$1?PlayerIDAndIndexComp@@YAHABU1@ABU2@@Z@DataStructures@@QAE@XZ ; DataStructures::OrderedList<PlayerID,PlayerIDAndIndex,&PlayerIDAndIndexComp>::~OrderedList<PlayerID,PlayerIDAndIndex,&PlayerIDAndIndexComp>
PUBLIC	?GetIndexFromKey@?$OrderedList@UPlayerID@@UPlayerIDAndIndex@@$1?PlayerIDAndIndexComp@@YAHABU1@ABU2@@Z@DataStructures@@QBEIABUPlayerID@@PA_N@Z ; DataStructures::OrderedList<PlayerID,PlayerIDAndIndex,&PlayerIDAndIndexComp>::GetIndexFromKey
PUBLIC	?Insert@?$OrderedList@UPlayerID@@UPlayerIDAndIndex@@$1?PlayerIDAndIndexComp@@YAHABU1@ABU2@@Z@DataStructures@@QAEIABUPlayerID@@ABUPlayerIDAndIndex@@@Z ; DataStructures::OrderedList<PlayerID,PlayerIDAndIndex,&PlayerIDAndIndexComp>::Insert
PUBLIC	?Remove@?$OrderedList@UPlayerID@@UPlayerIDAndIndex@@$1?PlayerIDAndIndexComp@@YAHABU1@ABU2@@Z@DataStructures@@QAEIABUPlayerID@@@Z ; DataStructures::OrderedList<PlayerID,PlayerIDAndIndex,&PlayerIDAndIndexComp>::Remove
PUBLIC	??A?$OrderedList@UPlayerID@@UPlayerIDAndIndex@@$1?PlayerIDAndIndexComp@@YAHABU1@ABU2@@Z@DataStructures@@QBEAAUPlayerIDAndIndex@@I@Z ; DataStructures::OrderedList<PlayerID,PlayerIDAndIndex,&PlayerIDAndIndexComp>::operator[]
PUBLIC	?Clear@?$OrderedList@UPlayerID@@UPlayerIDAndIndex@@$1?PlayerIDAndIndexComp@@YAHABU1@ABU2@@Z@DataStructures@@QAEXXZ ; DataStructures::OrderedList<PlayerID,PlayerIDAndIndex,&PlayerIDAndIndexComp>::Clear
PUBLIC	??0?$List@UPlayerIDAndIndex@@@DataStructures@@QAE@XZ ; DataStructures::List<PlayerIDAndIndex>::List<PlayerIDAndIndex>
PUBLIC	??1?$List@UPlayerIDAndIndex@@@DataStructures@@QAE@XZ ; DataStructures::List<PlayerIDAndIndex>::~List<PlayerIDAndIndex>
PUBLIC	??A?$List@UPlayerIDAndIndex@@@DataStructures@@QBEAAUPlayerIDAndIndex@@I@Z ; DataStructures::List<PlayerIDAndIndex>::operator[]
PUBLIC	?Insert@?$List@UPlayerIDAndIndex@@@DataStructures@@QAEXUPlayerIDAndIndex@@I@Z ; DataStructures::List<PlayerIDAndIndex>::Insert
PUBLIC	?Insert@?$List@UPlayerIDAndIndex@@@DataStructures@@QAEXUPlayerIDAndIndex@@@Z ; DataStructures::List<PlayerIDAndIndex>::Insert
PUBLIC	?RemoveAtIndex@?$List@UPlayerIDAndIndex@@@DataStructures@@QAEXI@Z ; DataStructures::List<PlayerIDAndIndex>::RemoveAtIndex
PUBLIC	?Del@?$List@UPlayerIDAndIndex@@@DataStructures@@QAEXI@Z ; DataStructures::List<PlayerIDAndIndex>::Del
PUBLIC	?Size@?$List@UPlayerIDAndIndex@@@DataStructures@@QBEIXZ ; DataStructures::List<PlayerIDAndIndex>::Size
PUBLIC	?Clear@?$List@UPlayerIDAndIndex@@@DataStructures@@QAEX_N@Z ; DataStructures::List<PlayerIDAndIndex>::Clear
PUBLIC	??0?$List@PAUBanStruct@RakPeer@@@DataStructures@@QAE@XZ ; DataStructures::List<RakPeer::BanStruct *>::List<RakPeer::BanStruct *>
PUBLIC	??1?$List@PAUBanStruct@RakPeer@@@DataStructures@@QAE@XZ ; DataStructures::List<RakPeer::BanStruct *>::~List<RakPeer::BanStruct *>
PUBLIC	??A?$List@PAUBanStruct@RakPeer@@@DataStructures@@QBEAAPAUBanStruct@RakPeer@@I@Z ; DataStructures::List<RakPeer::BanStruct *>::operator[]
PUBLIC	?Insert@?$List@PAUBanStruct@RakPeer@@@DataStructures@@QAEXQAUBanStruct@RakPeer@@@Z ; DataStructures::List<RakPeer::BanStruct *>::Insert
PUBLIC	?RemoveAtIndex@?$List@PAUBanStruct@RakPeer@@@DataStructures@@QAEXI@Z ; DataStructures::List<RakPeer::BanStruct *>::RemoveAtIndex
PUBLIC	?Del@?$List@PAUBanStruct@RakPeer@@@DataStructures@@QAEXI@Z ; DataStructures::List<RakPeer::BanStruct *>::Del
PUBLIC	?Size@?$List@PAUBanStruct@RakPeer@@@DataStructures@@QBEIXZ ; DataStructures::List<RakPeer::BanStruct *>::Size
PUBLIC	?Clear@?$List@PAUBanStruct@RakPeer@@@DataStructures@@QAEX_N@Z ; DataStructures::List<RakPeer::BanStruct *>::Clear
PUBLIC	??0?$List@PAVPluginInterface@@@DataStructures@@QAE@XZ ; DataStructures::List<PluginInterface *>::List<PluginInterface *>
PUBLIC	??1?$List@PAVPluginInterface@@@DataStructures@@QAE@XZ ; DataStructures::List<PluginInterface *>::~List<PluginInterface *>
PUBLIC	??A?$List@PAVPluginInterface@@@DataStructures@@QBEAAPAVPluginInterface@@I@Z ; DataStructures::List<PluginInterface *>::operator[]
PUBLIC	?Insert@?$List@PAVPluginInterface@@@DataStructures@@QAEXQAVPluginInterface@@@Z ; DataStructures::List<PluginInterface *>::Insert
PUBLIC	?Del@?$List@PAVPluginInterface@@@DataStructures@@QAEXI@Z ; DataStructures::List<PluginInterface *>::Del
PUBLIC	?GetIndexOf@?$List@PAVPluginInterface@@@DataStructures@@QAEIQAVPluginInterface@@@Z ; DataStructures::List<PluginInterface *>::GetIndexOf
PUBLIC	?Size@?$List@PAVPluginInterface@@@DataStructures@@QBEIXZ ; DataStructures::List<PluginInterface *>::Size
PUBLIC	??0?$SingleProducerConsumer@URequestedConnectionStruct@RakPeer@@@DataStructures@@QAE@XZ ; DataStructures::SingleProducerConsumer<RakPeer::RequestedConnectionStruct>::SingleProducerConsumer<RakPeer::RequestedConnectionStruct>
PUBLIC	??1?$SingleProducerConsumer@URequestedConnectionStruct@RakPeer@@@DataStructures@@QAE@XZ ; DataStructures::SingleProducerConsumer<RakPeer::RequestedConnectionStruct>::~SingleProducerConsumer<RakPeer::RequestedConnectionStruct>
PUBLIC	?WriteLock@?$SingleProducerConsumer@URequestedConnectionStruct@RakPeer@@@DataStructures@@QAEPAURequestedConnectionStruct@RakPeer@@XZ ; DataStructures::SingleProducerConsumer<RakPeer::RequestedConnectionStruct>::WriteLock
PUBLIC	?WriteUnlock@?$SingleProducerConsumer@URequestedConnectionStruct@RakPeer@@@DataStructures@@QAEXXZ ; DataStructures::SingleProducerConsumer<RakPeer::RequestedConnectionStruct>::WriteUnlock
PUBLIC	?ReadLock@?$SingleProducerConsumer@URequestedConnectionStruct@RakPeer@@@DataStructures@@QAEPAURequestedConnectionStruct@RakPeer@@XZ ; DataStructures::SingleProducerConsumer<RakPeer::RequestedConnectionStruct>::ReadLock
PUBLIC	?CancelReadLock@?$SingleProducerConsumer@URequestedConnectionStruct@RakPeer@@@DataStructures@@QAEXPAURequestedConnectionStruct@RakPeer@@@Z ; DataStructures::SingleProducerConsumer<RakPeer::RequestedConnectionStruct>::CancelReadLock
PUBLIC	?ReadUnlock@?$SingleProducerConsumer@URequestedConnectionStruct@RakPeer@@@DataStructures@@QAEXXZ ; DataStructures::SingleProducerConsumer<RakPeer::RequestedConnectionStruct>::ReadUnlock
PUBLIC	?Clear@?$SingleProducerConsumer@URequestedConnectionStruct@RakPeer@@@DataStructures@@QAEXXZ ; DataStructures::SingleProducerConsumer<RakPeer::RequestedConnectionStruct>::Clear
PUBLIC	?GenerateSYNCookieRandomNumber@RakPeer@@IAEXXZ	; RakPeer::GenerateSYNCookieRandomNumber
PUBLIC	?SecuredConnectionResponse@RakPeer@@IAEXUPlayerID@@@Z ; RakPeer::SecuredConnectionResponse
PUBLIC	?SecuredConnectionConfirmation@RakPeer@@IAEXPAURemoteSystemStruct@1@PAD@Z ; RakPeer::SecuredConnectionConfirmation
PUBLIC	?RunUpdateCycle@RakPeer@@IAE_NXZ		; RakPeer::RunUpdateCycle
PUBLIC	??0?$SingleProducerConsumer@UBufferedCommandStruct@RakPeer@@@DataStructures@@QAE@XZ ; DataStructures::SingleProducerConsumer<RakPeer::BufferedCommandStruct>::SingleProducerConsumer<RakPeer::BufferedCommandStruct>
PUBLIC	??1?$SingleProducerConsumer@UBufferedCommandStruct@RakPeer@@@DataStructures@@QAE@XZ ; DataStructures::SingleProducerConsumer<RakPeer::BufferedCommandStruct>::~SingleProducerConsumer<RakPeer::BufferedCommandStruct>
PUBLIC	?WriteLock@?$SingleProducerConsumer@UBufferedCommandStruct@RakPeer@@@DataStructures@@QAEPAUBufferedCommandStruct@RakPeer@@XZ ; DataStructures::SingleProducerConsumer<RakPeer::BufferedCommandStruct>::WriteLock
PUBLIC	?WriteUnlock@?$SingleProducerConsumer@UBufferedCommandStruct@RakPeer@@@DataStructures@@QAEXXZ ; DataStructures::SingleProducerConsumer<RakPeer::BufferedCommandStruct>::WriteUnlock
PUBLIC	?ReadLock@?$SingleProducerConsumer@UBufferedCommandStruct@RakPeer@@@DataStructures@@QAEPAUBufferedCommandStruct@RakPeer@@XZ ; DataStructures::SingleProducerConsumer<RakPeer::BufferedCommandStruct>::ReadLock
PUBLIC	?ReadUnlock@?$SingleProducerConsumer@UBufferedCommandStruct@RakPeer@@@DataStructures@@QAEXXZ ; DataStructures::SingleProducerConsumer<RakPeer::BufferedCommandStruct>::ReadUnlock
PUBLIC	?Clear@?$SingleProducerConsumer@UBufferedCommandStruct@RakPeer@@@DataStructures@@QAEXXZ ; DataStructures::SingleProducerConsumer<RakPeer::BufferedCommandStruct>::Clear
PUBLIC	?AllowIncomingConnections@RakPeer@@IBE_NXZ	; RakPeer::AllowIncomingConnections
PUBLIC	?SendStaticDataInternal@RakPeer@@IAEXUPlayerID@@_N@Z ; RakPeer::SendStaticDataInternal
PUBLIC	?PingInternal@RakPeer@@IAEXUPlayerID@@_N@Z	; RakPeer::PingInternal
PUBLIC	?ValidSendTarget@RakPeer@@IAE_NUPlayerID@@_N@Z	; RakPeer::ValidSendTarget
PUBLIC	?CloseConnectionInternal@RakPeer@@IAEXUPlayerID@@_N1E@Z ; RakPeer::CloseConnectionInternal
PUBLIC	?SendBuffered@RakPeer@@IAEXPBDHW4PacketPriority@@W4PacketReliability@@DUPlayerID@@_NW4ConnectMode@RemoteSystemStruct@1@@Z ; RakPeer::SendBuffered
PUBLIC	?SendImmediate@RakPeer@@IAE_NPADHW4PacketPriority@@W4PacketReliability@@DUPlayerID@@_N4_J@Z ; RakPeer::SendImmediate
PUBLIC	?ClearBufferedCommands@RakPeer@@IAEXXZ		; RakPeer::ClearBufferedCommands
PUBLIC	?ClearRequestedConnectionList@RakPeer@@IAEXXZ	; RakPeer::ClearRequestedConnectionList
PUBLIC	?AddPacketToProducer@RakPeer@@IAEXPAUPacket@@@Z	; RakPeer::AddPacketToProducer
PUBLIC	??0?$RSACrypt@$$BY07I@big@@QAE@XZ		; big::RSACrypt<unsigned int [8]>::RSACrypt<unsigned int [8]>
PUBLIC	??1?$RSACrypt@$$BY07I@big@@QAE@XZ		; big::RSACrypt<unsigned int [8]>::~RSACrypt<unsigned int [8]>
PUBLIC	?reset@?$RSACrypt@$$BY07I@big@@QAEXXZ		; big::RSACrypt<unsigned int [8]>::reset
PUBLIC	?generateKeys@?$RSACrypt@$$BY07I@big@@QAEXXZ	; big::RSACrypt<unsigned int [8]>::generateKeys
PUBLIC	?setPublicKey@?$RSACrypt@$$BY07I@big@@QAEXIAAY07I@Z ; big::RSACrypt<unsigned int [8]>::setPublicKey
PUBLIC	?getPublicKey@?$RSACrypt@$$BY07I@big@@QAEXAAIAAY07I@Z ; big::RSACrypt<unsigned int [8]>::getPublicKey
PUBLIC	?encrypt@?$RSACrypt@$$BY07I@big@@QAEXAAY07I0@Z	; big::RSACrypt<unsigned int [8]>::encrypt
PUBLIC	?decrypt@?$RSACrypt@$$BY07I@big@@QAEXAAY07I0@Z	; big::RSACrypt<unsigned int [8]>::decrypt
PUBLIC	??0?$SingleProducerConsumer@PAUPacket@@@DataStructures@@QAE@XZ ; DataStructures::SingleProducerConsumer<Packet *>::SingleProducerConsumer<Packet *>
PUBLIC	??1?$SingleProducerConsumer@PAUPacket@@@DataStructures@@QAE@XZ ; DataStructures::SingleProducerConsumer<Packet *>::~SingleProducerConsumer<Packet *>
PUBLIC	?WriteLock@?$SingleProducerConsumer@PAUPacket@@@DataStructures@@QAEPAPAUPacket@@XZ ; DataStructures::SingleProducerConsumer<Packet *>::WriteLock
PUBLIC	?WriteUnlock@?$SingleProducerConsumer@PAUPacket@@@DataStructures@@QAEXXZ ; DataStructures::SingleProducerConsumer<Packet *>::WriteUnlock
PUBLIC	?ReadLock@?$SingleProducerConsumer@PAUPacket@@@DataStructures@@QAEPAPAUPacket@@XZ ; DataStructures::SingleProducerConsumer<Packet *>::ReadLock
PUBLIC	?ReadUnlock@?$SingleProducerConsumer@PAUPacket@@@DataStructures@@QAEXXZ ; DataStructures::SingleProducerConsumer<Packet *>::ReadUnlock
PUBLIC	?Clear@?$SingleProducerConsumer@PAUPacket@@@DataStructures@@QAEXXZ ; DataStructures::SingleProducerConsumer<Packet *>::Clear
PUBLIC	??0?$Queue@PAUPacket@@@DataStructures@@QAE@XZ	; DataStructures::Queue<Packet *>::Queue<Packet *>
PUBLIC	??1?$Queue@PAUPacket@@@DataStructures@@QAE@XZ	; DataStructures::Queue<Packet *>::~Queue<Packet *>
PUBLIC	?Push@?$Queue@PAUPacket@@@DataStructures@@QAEXABQAUPacket@@@Z ; DataStructures::Queue<Packet *>::Push
PUBLIC	?PushAtHead@?$Queue@PAUPacket@@@DataStructures@@QAEXABQAUPacket@@I@Z ; DataStructures::Queue<Packet *>::PushAtHead
PUBLIC	??A?$Queue@PAUPacket@@@DataStructures@@QBEAAPAUPacket@@I@Z ; DataStructures::Queue<Packet *>::operator[]
PUBLIC	?Pop@?$Queue@PAUPacket@@@DataStructures@@QAEPAUPacket@@XZ ; DataStructures::Queue<Packet *>::Pop
PUBLIC	?Size@?$Queue@PAUPacket@@@DataStructures@@QBEIXZ ; DataStructures::Queue<Packet *>::Size
PUBLIC	?Clear@?$Queue@PAUPacket@@@DataStructures@@QAEXXZ ; DataStructures::Queue<Packet *>::Clear
PUBLIC	??_GRakPeer@@UAEPAXI@Z				; RakPeer::`scalar deleting destructor'
PUBLIC	??_GHuffmanEncodingTree@@QAEPAXI@Z		; HuffmanEncodingTree::`scalar deleting destructor'
PUBLIC	?AllocPacket@@YAPAUPacket@@I@Z			; AllocPacket
PUBLIC	?AllocPacket@@YAPAUPacket@@IPAE@Z		; AllocPacket
PUBLIC	??$setPrivateKey@$$BY03I@?$RSACrypt@$$BY07I@big@@QAEXAAY03I0@Z ; big::RSACrypt<unsigned int [8]>::setPrivateKey<unsigned int [4]>
PUBLIC	??$Write@E@BitStream@RakNet@@QAEXE@Z		; RakNet::BitStream::Write<unsigned char>
PUBLIC	??$WriteCompressed@E@BitStream@RakNet@@QAEXE@Z	; RakNet::BitStream::WriteCompressed<unsigned char>
PUBLIC	??$WriteCompressed@I@BitStream@RakNet@@QAEXI@Z	; RakNet::BitStream::WriteCompressed<unsigned int>
PUBLIC	??$ReadCompressed@E@BitStream@RakNet@@QAE_NAAE@Z ; RakNet::BitStream::ReadCompressed<unsigned char>
PUBLIC	??$ReadCompressed@I@BitStream@RakNet@@QAE_NAAI@Z ; RakNet::BitStream::ReadCompressed<unsigned int>
PUBLIC	??$generateStrongPseudoPrime@$$BY03I@big@@YAXAAY03I@Z ; big::generateStrongPseudoPrime<unsigned int [4]>
PUBLIC	??$usetw@$$BY07I@big@@YAXAAY07II@Z		; big::usetw<unsigned int [8]>
PUBLIC	??$set@$$BY07I@big@@YAXAAY07I0@Z		; big::set<unsigned int [8]>
PUBLIC	??$computeNRinverse@$$BY07I@big@@YAXAAY07I0@Z	; big::computeNRinverse<unsigned int [8]>
PUBLIC	??$rModn@$$BY07I@big@@YAXAAY07I0@Z		; big::rModn<unsigned int [8]>
PUBLIC	??$CRTModExp@$$BY03I$$BY07I@big@@YAXAAY07I00AAY03I111111@Z ; big::CRTModExp<unsigned int [4],unsigned int [8]>
PUBLIC	??$simpleModExp@$$BY07I@big@@YAXAAY07I000@Z	; big::simpleModExp<unsigned int [8]>
PUBLIC	??$zero@$$BY07I@big@@YAXAAY07I@Z		; big::zero<unsigned int [8]>
PUBLIC	??$zero@$$BY03I@big@@YAXAAY03I@Z		; big::zero<unsigned int [4]>
PUBLIC	??$ugreater@$$BY03I@big@@YA_NAAY03I0@Z		; big::ugreater<unsigned int [4]>
PUBLIC	??$set@$$BY03I@big@@YAXAAY03I0@Z		; big::set<unsigned int [4]>
PUBLIC	??$decrement@$$BY03I@big@@YAXAAY03I@Z		; big::decrement<unsigned int [4]>
PUBLIC	??$umultiply@$$BY03I$$BY07I@big@@YAXAAY03I0AAY07I@Z ; big::umultiply<unsigned int [4],unsigned int [8]>
PUBLIC	??$computePublicExponent@$$BY07I@big@@YAXAAY07I0@Z ; big::computePublicExponent<unsigned int [8]>
PUBLIC	??$computePrivateExponent@$$BY07I@big@@YAXAAY07I00@Z ; big::computePrivateExponent<unsigned int [8]>
PUBLIC	??$computeModularInverse@$$BY03I@big@@YAXAAY03I00@Z ; big::computeModularInverse<unsigned int [4]>
PUBLIC	??$computeNRinverse@$$BY03I@big@@YAXAAY03I0@Z	; big::computeNRinverse<unsigned int [4]>
PUBLIC	??$rModn@$$BY03I@big@@YAXAAY03I0@Z		; big::rModn<unsigned int [4]>
PUBLIC	??$RabinMillerPrimalityTest@$$BY03I@big@@YA_NAAY03II@Z ; big::RabinMillerPrimalityTest<unsigned int [4]>
PUBLIC	??$computeRinverse@$$BY07I@big@@YAXAAY07I0@Z	; big::computeRinverse<unsigned int [8]>
PUBLIC	??$sethigh@$$BY07I$$BY0BA@I@big@@YAXAAY0BA@IAAY07I@Z ; big::sethigh<unsigned int [8],unsigned int [16]>
PUBLIC	??$decrement@$$BY0BA@I@big@@YAXAAY0BA@I@Z	; big::decrement<unsigned int [16]>
PUBLIC	??$usetlow@$$BY07I$$BY0BA@I@big@@YAXAAY0BA@IAAY07I@Z ; big::usetlow<unsigned int [8],unsigned int [16]>
PUBLIC	??$udivide@$$BY0BA@I@big@@YAXAAY0BA@I000@Z	; big::udivide<unsigned int [16]>
PUBLIC	??$takelow@$$BY07I$$BY0BA@I@big@@YAXAAY07IAAY0BA@I@Z ; big::takelow<unsigned int [8],unsigned int [16]>
PUBLIC	??$umodulo@$$BY0BA@I@big@@YAXAAY0BA@I00@Z	; big::umodulo<unsigned int [16]>
PUBLIC	??$usetlow@$$BY03I$$BY07I@big@@YAXAAY07IAAY03I@Z ; big::usetlow<unsigned int [4],unsigned int [8]>
PUBLIC	??$decrement@$$BY07I@big@@YAXAAY07I@Z		; big::decrement<unsigned int [8]>
PUBLIC	??$umodulo@$$BY07I@big@@YAXAAY07I00@Z		; big::umodulo<unsigned int [8]>
PUBLIC	??$takelow@$$BY03I$$BY07I@big@@YAXAAY03IAAY07I@Z ; big::takelow<unsigned int [4],unsigned int [8]>
PUBLIC	??$simpleModExp@$$BY03I@big@@YAXAAY03I000@Z	; big::simpleModExp<unsigned int [4]>
PUBLIC	??$subtract@$$BY03I@big@@YAXAAY03I0@Z		; big::subtract<unsigned int [4]>
PUBLIC	??$add@$$BY03I@big@@YAXAAY03I0@Z		; big::add<unsigned int [4]>
PUBLIC	??$umultiply@$$BY07I$$BY07I@big@@YAXAAY07I0@Z	; big::umultiply<unsigned int [8],unsigned int [8]>
PUBLIC	??$add@$$BY07I@big@@YAXAAY07I0@Z		; big::add<unsigned int [8]>
PUBLIC	??$usetw@$$BY0BA@I@big@@YAXAAY0BA@II@Z		; big::usetw<unsigned int [16]>
PUBLIC	??$usquare@$$BY0BA@I@big@@YAXAAY0BA@I@Z		; big::usquare<unsigned int [16]>
PUBLIC	??$umultiply@$$BY0BA@I$$BY0BA@I@big@@YAXAAY0BA@I00@Z ; big::umultiply<unsigned int [16],unsigned int [16]>
PUBLIC	??$shiftLeft@$$BY07I@big@@YAXAAY07II@Z		; big::shiftLeft<unsigned int [8]>
PUBLIC	??$ugreater@$$BY07I@big@@YA_NAAY07I0@Z		; big::ugreater<unsigned int [8]>
PUBLIC	??$GCD@$$BY07I@big@@YAXAAY07I00@Z		; big::GCD<unsigned int [8]>
PUBLIC	??$equal@$$BY07I@big@@YA_NAAY07I0@Z		; big::equal<unsigned int [8]>
PUBLIC	??$computeModularInverse@$$BY07I@big@@YAXAAY07I00@Z ; big::computeModularInverse<unsigned int [8]>
PUBLIC	??$usetw@$$BY03I@big@@YAXAAY03II@Z		; big::usetw<unsigned int [4]>
PUBLIC	??$udivide@$$BY03I@big@@YAXAAY03I000@Z		; big::udivide<unsigned int [4]>
PUBLIC	??$isZero@$$BY03I@big@@YA_NAAY03I@Z		; big::isZero<unsigned int [4]>
PUBLIC	??$SubMulMod@$$BY03I@big@@YAXAAY03I0000@Z	; big::SubMulMod<unsigned int [4]>
PUBLIC	??$computeRinverse@$$BY03I@big@@YAXAAY03I0@Z	; big::computeRinverse<unsigned int [4]>
PUBLIC	??$sethigh@$$BY03I$$BY07I@big@@YAXAAY07IAAY03I@Z ; big::sethigh<unsigned int [4],unsigned int [8]>
PUBLIC	??$udivide@$$BY07I@big@@YAXAAY07I000@Z		; big::udivide<unsigned int [8]>
PUBLIC	??$umodulo@$$BY03I@big@@YAXAAY03I00@Z		; big::umodulo<unsigned int [4]>
PUBLIC	??$ushiftRight1@$$BY03I@big@@YAXAAY03I@Z	; big::ushiftRight1<unsigned int [4]>
PUBLIC	??$equal@$$BY03I@big@@YA_NAAY03I0@Z		; big::equal<unsigned int [4]>
PUBLIC	??$isZero@$$BY07I@big@@YA_NAAY07I@Z		; big::isZero<unsigned int [8]>
PUBLIC	??$subtract@$$BY07I@big@@YAXAAY07I0@Z		; big::subtract<unsigned int [8]>
PUBLIC	??$SubMulMod@$$BY07I@big@@YAXAAY07I0000@Z	; big::SubMulMod<unsigned int [8]>
PUBLIC	??$set@$$BY0BA@I@big@@YAXAAY0BA@I0@Z		; big::set<unsigned int [16]>
PUBLIC	??$zero@$$BY0BA@I@big@@YAXAAY0BA@I@Z		; big::zero<unsigned int [16]>
PUBLIC	??$ugreater@$$BY0BA@I@big@@YA_NAAY0BA@I0@Z	; big::ugreater<unsigned int [16]>
PUBLIC	??$shiftLeft@$$BY0BA@I@big@@YAXAAY0BA@II@Z	; big::shiftLeft<unsigned int [16]>
PUBLIC	??$shiftLeft1@$$BY0BA@I@big@@YAXAAY0BA@I@Z	; big::shiftLeft1<unsigned int [16]>
PUBLIC	??$ushiftRight1@$$BY0BA@I@big@@YAXAAY0BA@I@Z	; big::ushiftRight1<unsigned int [16]>
PUBLIC	??$subtract@$$BY0BA@I@big@@YAXAAY0BA@I0@Z	; big::subtract<unsigned int [16]>
PUBLIC	??$shiftLeft1@$$BY07I@big@@YAXAAY07I@Z		; big::shiftLeft1<unsigned int [8]>
PUBLIC	??$ushiftRight1@$$BY07I@big@@YAXAAY07I@Z	; big::ushiftRight1<unsigned int [8]>
PUBLIC	??$usquare@$$BY07I@big@@YAXAAY07I@Z		; big::usquare<unsigned int [8]>
PUBLIC	??$umultiply@$$BY07I$$BY07I@big@@YAXAAY07I00@Z	; big::umultiply<unsigned int [8],unsigned int [8]>
PUBLIC	??$add@$$BY0BA@I@big@@YAXAAY0BA@I0@Z		; big::add<unsigned int [16]>
PUBLIC	??$usetlow@$$BY0BA@I$$BY0BA@I@big@@YAXAAY0BA@I0@Z ; big::usetlow<unsigned int [16],unsigned int [16]>
PUBLIC	??$shiftLeft@$$BY03I@big@@YAXAAY03II@Z		; big::shiftLeft<unsigned int [4]>
PUBLIC	??$shiftLeft1@$$BY03I@big@@YAXAAY03I@Z		; big::shiftLeft1<unsigned int [4]>
PUBLIC	??$umultiply@$$BY03I$$BY07I@big@@YAXAAY07IAAY03I@Z ; big::umultiply<unsigned int [4],unsigned int [8]>
PUBLIC	??$umultiply@$$BY07I$$BY0BA@I@big@@YAXAAY0BA@IAAY07I@Z ; big::umultiply<unsigned int [8],unsigned int [16]>
PUBLIC	??$usetlow@$$BY07I$$BY07I@big@@YAXAAY07I0@Z	; big::usetlow<unsigned int [8],unsigned int [8]>
PUBLIC	??_7RakPeerInterface@@6B@			; RakPeerInterface::`vftable'
PUBLIC	??_7RakPeer@@6B@				; RakPeer::`vftable'
PUBLIC	?__LINE__Var@?1??Initialize@RakPeer@@UAE_NGGHPBD@Z@4JA ; `RakPeer::Initialize'::`2'::__LINE__Var
PUBLIC	??_C@_1EI@HJOFFNLF@?$AAz?$AA?3?$AA?2?$AAs?$AAa?$AAm?$AAp?$AAs?$AAr?$AAc?$AA?2?$AA0?$AA2?$AAx?$AAu?$AA1?$AA?2?$AAr?$AAa?$AAk?$AAn?$AAe?$AAt?$AA?2?$AAr?$AAa?$AAk?$AAp?$AAe?$AAe?$AAr?$AA?4@ ; `string'
PUBLIC	??_C@_1CG@FBMJBJBI@?$AAm?$AAa?$AAx?$AAC?$AAo?$AAn?$AAn?$AAe?$AAc?$AAt?$AAi?$AAo?$AAn?$AAs?$AA?5?$AA?$DO?$AA?5?$AA0?$AA?$AA@ ; `string'
PUBLIC	?__LINE__Var@?1??InitializeSecurity@RakPeer@@UAEXPBD000@Z@4JA ; `RakPeer::InitializeSecurity'::`2'::__LINE__Var
PUBLIC	??_C@_13COJANIEC@?$AA0?$AA?$AA@			; `string'
PUBLIC	??_C@_09PFCHIMEP@127?40?40?41?$AA@		; `string'
PUBLIC	??_C@_07OHKHACFK@0?40?40?40?$AA@		; `string'
PUBLIC	?__LINE__Var@?1??Send@RakPeer@@UAE_NPBDHW4PacketPriority@@W4PacketReliability@@DUPlayerID@@_N@Z@4JA ; `RakPeer::Send'::`2'::__LINE__Var
PUBLIC	??_C@_1CG@KMHNBCAF@?$AAd?$AAa?$AAt?$AAa?$AA?5?$AA?$CG?$AA?$CG?$AA?5?$AAl?$AAe?$AAn?$AAg?$AAt?$AAh?$AA?5?$AA?$DO?$AA?5?$AA0?$AA?$AA@ ; `string'
PUBLIC	?__LINE__Var@?1??Send@RakPeer@@UAE_NPAVBitStream@RakNet@@W4PacketPriority@@W4PacketReliability@@DUPlayerID@@_N@Z@4JA ; `RakPeer::Send'::`2'::__LINE__Var
PUBLIC	??_C@_1EM@PPKFOLDM@?$AAb?$AAi?$AAt?$AAS?$AAt?$AAr?$AAe?$AAa?$AAm?$AA?9?$AA?$DO?$AAG?$AAe?$AAt?$AAN?$AAu?$AAm?$AAb?$AAe?$AAr?$AAO?$AAf?$AAB?$AAy?$AAt?$AAe?$AAs?$AAU?$AAs?$AAe?$AAd?$AA?$CI@ ; `string'
PUBLIC	?__LINE__Var@?1??ReceiveIgnoreRPC@RakPeer@@IAEPAUPacket@@XZ@4JA ; `RakPeer::ReceiveIgnoreRPC'::`2'::__LINE__Var
PUBLIC	??_C@_1BK@NGDKLLMA@?$AAp?$AAa?$AAc?$AAk?$AAe?$AAt?$AA?9?$AA?$DO?$AAd?$AAa?$AAt?$AAa?$AA?$AA@ ; `string'
PUBLIC	?__LINE__Var@?1??UnregisterAsRemoteProcedureCall@RakPeer@@UAEXPAD@Z@4JA ; `RakPeer::UnregisterAsRemoteProcedureCall'::`2'::__LINE__Var
PUBLIC	??_C@_1CE@HHNGILKN@?$AAI?$AAs?$AAA?$AAc?$AAt?$AAi?$AAv?$AAe?$AA?$CI?$AA?$CJ?$AA?$DN?$AA?$DN?$AAf?$AAa?$AAl?$AAs?$AAe?$AA?$AA@ ; `string'
PUBLIC	?__LINE__Var@?1??RPC@RakPeer@@UAE_NPADPBDIW4PacketPriority@@W4PacketReliability@@DUPlayerID@@_N5UNetworkID@@PAVBitStream@RakNet@@@Z@4JA ; `RakPeer::RPC'::`2'::__LINE__Var
PUBLIC	??_C@_1DE@MNMFCGFF@?$AAu?$AAn?$AAi?$AAq?$AAu?$AAe?$AAI?$AAD?$AA?5?$AA?$CG?$AA?$CG?$AA?5?$AAu?$AAn?$AAi?$AAq?$AAu?$AAe?$AAI?$AAD?$AA?$FL?$AA?5?$AA0?$AA?5?$AA?$FN?$AA?$AA@ ; `string'
PUBLIC	??_C@_1FI@DAMMCKDJ@?$AAo?$AAr?$AAd?$AAe?$AAr?$AAi?$AAn?$AAg?$AAC?$AAh?$AAa?$AAn?$AAn?$AAe?$AAl?$AA?5?$AA?$DO?$AA?$DN?$AA0?$AA?5?$AA?$CG?$AA?$CG?$AA?5?$AAo?$AAr?$AAd?$AAe?$AAr?$AAi?$AAn?$AAg?$AAC@ ; `string'
PUBLIC	?__LINE__Var@?1??SetOfflinePingResponse@RakPeer@@UAEXPBDI@Z@4JA ; `RakPeer::SetOfflinePingResponse'::`2'::__LINE__Var
PUBLIC	??_C@_1BK@PNPFLKAA@?$AAl?$AAe?$AAn?$AAg?$AAt?$AAh?$AA?5?$AA?$DM?$AA?5?$AA4?$AA0?$AA0?$AA?$AA@ ; `string'
PUBLIC	?__LINE__Var@?1??AdvertiseSystem@RakPeer@@UAEXPBDG0H@Z@4JA ; `RakPeer::AdvertiseSystem'::`2'::__LINE__Var
PUBLIC	??_C@_1EM@PPGDKCEI@?$AAd?$AAa?$AAt?$AAa?$AAL?$AAe?$AAn?$AAg?$AAt?$AAh?$AA?5?$AA?$DM?$AA?$DN?$AA?5?$AAM?$AAA?$AAX?$AA_?$AAO?$AAF?$AAF?$AAL?$AAI?$AAN?$AAE?$AA_?$AAD?$AAA?$AAT?$AAA?$AA_?$AAL@ ; `string'
PUBLIC	??_C@_1BM@DNMMOAPD@?$AAd?$AAa?$AAt?$AAa?$AAL?$AAe?$AAn?$AAg?$AAt?$AAh?$AA?$DO?$AA?$DN?$AA0?$AA?$AA@ ; `string'
PUBLIC	?__LINE__Var@?1??SetSplitMessageProgressInterval@RakPeer@@UAEXH@Z@4JA ; `RakPeer::SetSplitMessageProgressInterval'::`2'::__LINE__Var
PUBLIC	??_C@_1BI@DGKOLLFG@?$AAi?$AAn?$AAt?$AAe?$AAr?$AAv?$AAa?$AAl?$AA?$DO?$AA?$DN?$AA0?$AA?$AA@ ; `string'
PUBLIC	?__LINE__Var@?1??SetUnreliableTimeout@RakPeer@@UAEXI@Z@4JA ; `RakPeer::SetUnreliableTimeout'::`2'::__LINE__Var
PUBLIC	??_C@_1BK@MHECFOMI@?$AAt?$AAi?$AAm?$AAe?$AAo?$AAu?$AAt?$AAM?$AAS?$AA?$DO?$AA?$DN?$AA0?$AA?$AA@ ; `string'
PUBLIC	?__LINE__Var@?1??PushBackPacket@RakPeer@@UAEXPAUPacket@@_N@Z@4JA ; `RakPeer::PushBackPacket'::`2'::__LINE__Var
PUBLIC	??_C@_1O@HMOJLPKG@?$AAp?$AAa?$AAc?$AAk?$AAe?$AAt?$AA?$AA@ ; `string'
PUBLIC	?__LINE__Var@?1??GetIndexFromPlayerID@RakPeer@@IAEHUPlayerID@@_N@Z@4JA ; `RakPeer::GetIndexFromPlayerID'::`2'::__LINE__Var
PUBLIC	??_C@_1IK@PCGACABH@?$AAr?$AAe?$AAm?$AAo?$AAt?$AAe?$AAS?$AAy?$AAs?$AAt?$AAe?$AAm?$AAL?$AAi?$AAs?$AAt?$AA?$FL?$AAr?$AAe?$AAm?$AAo?$AAt?$AAe?$AAS?$AAy?$AAs?$AAt?$AAe?$AAm?$AAL?$AAo?$AAo@ ; `string'
PUBLIC	?__LINE__Var@?1??SendConnectionRequest@RakPeer@@IAE_NPBDGPADH@Z@4JA ; `RakPeer::SendConnectionRequest'::`2'::__LINE__Var
PUBLIC	??_C@_1DE@MHEPBEIO@?$AAp?$AAa?$AAs?$AAs?$AAw?$AAo?$AAr?$AAd?$AAD?$AAa?$AAt?$AAa?$AAL?$AAe?$AAn?$AAg?$AAt?$AAh?$AA?5?$AA?$DM?$AA?$DN?$AA?5?$AA2?$AA5?$AA6?$AA?$AA@ ; `string'
PUBLIC	?__LINE__Var@?1??GetRemoteSystemFromPlayerID@RakPeer@@IBEPAURemoteSystemStruct@2@UPlayerID@@_N1@Z@4JA ; `RakPeer::GetRemoteSystemFromPlayerID'::`2'::__LINE__Var
PUBLIC	??_C@_1IO@IHOLNDOE@?$AAr?$AAe?$AAm?$AAo?$AAt?$AAe?$AAS?$AAy?$AAs?$AAt?$AAe?$AAm?$AAL?$AAi?$AAs?$AAt?$AA?$FL?$AA?5?$AAr?$AAe?$AAm?$AAo?$AAt?$AAe?$AAS?$AAy?$AAs?$AAt?$AAe?$AAm?$AAL?$AAo@ ; `string'
PUBLIC	?__LINE__Var@?1??AssignPlayerIDToRemoteSystemList@RakPeer@@IAEPAURemoteSystemStruct@2@UPlayerID@@W4ConnectMode@32@@Z@4JA ; `RakPeer::AssignPlayerIDToRemoteSystemList'::`2'::__LINE__Var
PUBLIC	??_C@_1DO@FONFJDEJ@?$AAp?$AAl?$AAa?$AAy?$AAe?$AAr?$AAI?$AAd?$AA?$CB?$AA?$DN?$AAU?$AAN?$AAA?$AAS?$AAS?$AAI?$AAG?$AAN?$AAE?$AAD?$AA_?$AAP?$AAL?$AAA?$AAY?$AAE?$AAR?$AA_?$AAI?$AAD?$AA?$AA@ ; `string'
PUBLIC	?__LINE__Var@?1??ShiftIncomingTimestamp@RakPeer@@IBEXPAEUPlayerID@@@Z@4JA ; `RakPeer::ShiftIncomingTimestamp'::`2'::__LINE__Var
PUBLIC	??_C@_1BG@FGPJADG@?$AAI?$AAs?$AAA?$AAc?$AAt?$AAi?$AAv?$AAe?$AA?$CI?$AA?$CJ?$AA?$AA@ ; `string'
PUBLIC	??_C@_19MLBBEMBH@?$AAd?$AAa?$AAt?$AAa?$AA?$AA@	; `string'
PUBLIC	?__LINE__Var@?1??HandleRPCPacket@RakPeer@@IAE_NPBDHUPlayerID@@@Z@4JA ; `RakPeer::HandleRPCPacket'::`2'::__LINE__Var
PUBLIC	?__LINE__Var@?1??CloseConnectionInternal@RakPeer@@IAEXUPlayerID@@_N1E@Z@4JA ; `RakPeer::CloseConnectionInternal'::`2'::__LINE__Var
PUBLIC	?__LINE__Var@?1??SendBuffered@RakPeer@@IAEXPBDHW4PacketPriority@@W4PacketReliability@@DUPlayerID@@_NW4ConnectMode@RemoteSystemStruct@2@@Z@4JA ; `RakPeer::SendBuffered'::`2'::__LINE__Var
PUBLIC	??_C@_1BE@LOOBMGDN@?$AAb?$AAc?$AAs?$AA?9?$AA?$DO?$AAd?$AAa?$AAt?$AAa?$AA?$AA@ ; `string'
PUBLIC	?__LINE__Var@?1??ProcessNetworkPacket@@YGXIGPBDHPAVRakPeer@@@Z@4JA ; `ProcessNetworkPacket'::`2'::__LINE__Var
PUBLIC	??_C@_1HO@KBDHKDHK@?$AAr?$AAc?$AAs?$AA?9?$AA?$DO?$AAa?$AAc?$AAt?$AAi?$AAo?$AAn?$AAT?$AAo?$AAT?$AAa?$AAk?$AAe?$AA?$DN?$AA?$DN?$AAR?$AAa?$AAk?$AAP?$AAe?$AAe?$AAr?$AA?3?$AA?3?$AAR?$AAe?$AAq?$AAu@ ; `string'
PUBLIC	?__LINE__Var@?1??RunUpdateCycle@RakPeer@@IAE_NXZ@4JA ; `RakPeer::RunUpdateCycle'::`2'::__LINE__Var
PUBLIC	??_C@_1HE@GIGKOHOC@?$AAb?$AAc?$AAs?$AA?9?$AA?$DO?$AAc?$AAo?$AAm?$AAm?$AAa?$AAn?$AAd?$AA?$DN?$AA?$DN?$AAB?$AAu?$AAf?$AAf?$AAe?$AAr?$AAe?$AAd?$AAC?$AAo?$AAm?$AAm?$AAa?$AAn?$AAd?$AAS?$AAt?$AAr@ ; `string'
PUBLIC	??_C@_1BK@CNLEAJJK@?$AAp?$AAi?$AAn?$AAg?$AA?5?$AA?$DM?$AA?5?$AA1?$AA0?$AA0?$AA0?$AA0?$AA?$AA@ ; `string'
PUBLIC	?__LINE__Var@?1??UpdateNetworkLoop@@YGIPAX@Z@4JA ; `UpdateNetworkLoop'::`2'::__LINE__Var
PUBLIC	??_C@_1BI@JFBHHBPJ@?$AAt?$AAi?$AAm?$AAe?$AAr?$AAH?$AAa?$AAn?$AAd?$AAl?$AAe?$AA?$AA@ ; `string'
PUBLIC	??_C@_1BA@ICANLBCA@?$AAs?$AAu?$AAc?$AAc?$AAe?$AAs?$AAs?$AA?$AA@ ; `string'
PUBLIC	??_C@_1EG@DIEEECKO@?$AAz?$AA?3?$AA?2?$AAs?$AAa?$AAm?$AAp?$AAs?$AAr?$AAc?$AA?2?$AA0?$AA2?$AAx?$AAu?$AA1?$AA?2?$AAr?$AAa?$AAk?$AAn?$AAe?$AAt?$AA?2?$AAd?$AAs?$AA_?$AAq?$AAu?$AAe?$AAu?$AAe@ ; `string'
PUBLIC	??_C@_1GG@JDEIIJCO@?$AAa?$AAl?$AAl?$AAo?$AAc?$AAa?$AAt?$AAi?$AAo?$AAn?$AA_?$AAs?$AAi?$AAz?$AAe?$AA?5?$AA?$DO?$AA?5?$AA0?$AA?5?$AA?$CG?$AA?$CG?$AA?5?$AAS?$AAi?$AAz?$AAe?$AA?$CI?$AA?$CJ?$AA?5?$AA?$DO?$AA?$DN@ ; `string'
PUBLIC	??_C@_1FC@PKHPOOLI@?$AAz?$AA?3?$AA?2?$AAs?$AAa?$AAm?$AAp?$AAs?$AAr?$AAc?$AA?2?$AA0?$AA2?$AAx?$AAu?$AA1?$AA?2?$AAr?$AAa?$AAk?$AAn?$AAe?$AAt?$AA?2?$AAd?$AAs?$AA_?$AAo?$AAr?$AAd?$AAe?$AAr@ ; `string'
PUBLIC	??_C@_1CG@FNLJFNDG@?$AAo?$AAb?$AAj?$AAe?$AAc?$AAt?$AAE?$AAx?$AAi?$AAs?$AAt?$AAs?$AA?$DN?$AA?$DN?$AAt?$AAr?$AAu?$AAe?$AA?$AA@ ; `string'
PUBLIC	??_C@_1EE@MBOIAKFO@?$AAz?$AA?3?$AA?2?$AAs?$AAa?$AAm?$AAp?$AAs?$AAr?$AAc?$AA?2?$AA0?$AA2?$AAx?$AAu?$AA1?$AA?2?$AAr?$AAa?$AAk?$AAn?$AAe?$AAt?$AA?2?$AAd?$AAs?$AA_?$AAl?$AAi?$AAs?$AAt?$AA?4@ ; `string'
PUBLIC	??_C@_1CK@HINNGFPG@?$AAp?$AAo?$AAs?$AAi?$AAt?$AAi?$AAo?$AAn?$AA?5?$AA?$DM?$AA?5?$AAl?$AAi?$AAs?$AAt?$AA_?$AAs?$AAi?$AAz?$AAe?$AA?$AA@ ; `string'
PUBLIC	??_C@_1BO@JBFMBKMD@?$AAl?$AAi?$AAs?$AAt?$AA_?$AAs?$AAi?$AAz?$AAe?$AA?$DO?$AA?$DN?$AAn?$AAu?$AAm?$AA?$AA@ ; `string'
PUBLIC	??_C@_1GC@EGJKEKIF@?$AAz?$AA?3?$AA?2?$AAs?$AAa?$AAm?$AAp?$AAs?$AAr?$AAc?$AA?2?$AA0?$AA2?$AAx?$AAu?$AA1?$AA?2?$AAr?$AAa?$AAk?$AAn?$AAe?$AAt?$AA?2?$AAs?$AAi?$AAn?$AAg?$AAl?$AAe?$AAp?$AAr@ ; `string'
PUBLIC	??_C@_1DA@FABPCGM@?$AAw?$AAr?$AAi?$AAt?$AAe?$AAA?$AAh?$AAe?$AAa?$AAd?$AAP?$AAo?$AAi?$AAn?$AAt?$AAe?$AAr?$AA?9?$AA?$DO?$AAn?$AAe?$AAx?$AAt?$AA?$AA@ ; `string'
PUBLIC	??_C@_1EA@OAIJHOON@?$AAw?$AAr?$AAi?$AAt?$AAe?$AAP?$AAo?$AAi?$AAn?$AAt?$AAe?$AAr?$AA?9?$AA?$DO?$AAn?$AAe?$AAx?$AAt?$AA?$CB?$AA?$DN?$AAr?$AAe?$AAa?$AAd?$AAP?$AAo?$AAi?$AAn?$AAt?$AAe?$AAr?$AA?$AA@ ; `string'
PUBLIC	??_C@_1EA@LEKNHFBP@?$AAw?$AAr?$AAi?$AAt?$AAe?$AAP?$AAo?$AAi?$AAn?$AAt?$AAe?$AAr?$AA?$CB?$AA?$DN?$AAw?$AAr?$AAi?$AAt?$AAe?$AAA?$AAh?$AAe?$AAa?$AAd?$AAP?$AAo?$AAi?$AAn?$AAt?$AAe?$AAr?$AA?$AA@ ; `string'
PUBLIC	??_C@_1DE@PPJJMKJI@?$AAr?$AAe?$AAa?$AAd?$AAP?$AAo?$AAi?$AAn?$AAt?$AAe?$AAr?$AA?$CB?$AA?$DN?$AAw?$AAr?$AAi?$AAt?$AAe?$AAP?$AAo?$AAi?$AAn?$AAt?$AAe?$AAr?$AA?$AA@ ; `string'
PUBLIC	??_C@_1DM@HLMOCDPL@?$AAr?$AAe?$AAa?$AAd?$AAA?$AAh?$AAe?$AAa?$AAd?$AAP?$AAo?$AAi?$AAn?$AAt?$AAe?$AAr?$AA?$CB?$AA?$DN?$AAr?$AAe?$AAa?$AAd?$AAP?$AAo?$AAi?$AAn?$AAt?$AAe?$AAr?$AA?$AA@ ; `string'
PUBLIC	??_C@_1DE@FCOMCLAG@?$AAw?$AAr?$AAi?$AAt?$AAe?$AAP?$AAo?$AAi?$AAn?$AAt?$AAe?$AAr?$AA?$CB?$AA?$DN?$AAr?$AAe?$AAa?$AAd?$AAP?$AAo?$AAi?$AAn?$AAt?$AAe?$AAr?$AA?$AA@ ; `string'
PUBLIC	??_C@_1BE@OMEGJCHO@?$AAn?$AAe?$AAw?$AA_?$AAa?$AAr?$AAr?$AAa?$AAy?$AA?$AA@ ; `string'
PUBLIC	??_C@_1CE@CLDOPLDF@?$AAp?$AAo?$AAs?$AAi?$AAt?$AAi?$AAo?$AAn?$AA?5?$AA?$DM?$AA?5?$AAS?$AAi?$AAz?$AAe?$AA?$CI?$AA?$CJ?$AA?$AA@ ; `string'
PUBLIC	??_C@_1CM@FMCFHBCK@?$AAp?$AAo?$AAs?$AAi?$AAt?$AAi?$AAo?$AAn?$AA?5?$AA?$DM?$AA?$DN?$AA?5?$AAl?$AAi?$AAs?$AAt?$AA_?$AAs?$AAi?$AAz?$AAe?$AA?$AA@ ; `string'
PUBLIC	??_R4RakPeerInterface@@6B@			; RakPeerInterface::`RTTI Complete Object Locator'
PUBLIC	??_R0?AVRakPeerInterface@@@8			; RakPeerInterface `RTTI Type Descriptor'
PUBLIC	??_R3RakPeerInterface@@8			; RakPeerInterface::`RTTI Class Hierarchy Descriptor'
PUBLIC	??_R2RakPeerInterface@@8			; RakPeerInterface::`RTTI Base Class Array'
PUBLIC	??_R1A@?0A@EA@RakPeerInterface@@8		; RakPeerInterface::`RTTI Base Class Descriptor at (0,-1,0,64)'
PUBLIC	??_R4RakPeer@@6B@				; RakPeer::`RTTI Complete Object Locator'
PUBLIC	??_R0?AVRakPeer@@@8				; RakPeer `RTTI Type Descriptor'
PUBLIC	??_R3RakPeer@@8					; RakPeer::`RTTI Class Hierarchy Descriptor'
PUBLIC	??_R2RakPeer@@8					; RakPeer::`RTTI Base Class Array'
PUBLIC	??_R1A@?0A@EA@RakPeer@@8			; RakPeer::`RTTI Base Class Descriptor at (0,-1,0,64)'
PUBLIC	__real@00000000
PUBLIC	__real@0000000000000000
PUBLIC	__xmm@41f00000000000000000000000000000
EXTRN	??_L@YGXPAXIHP6EX0@Z1@Z:PROC			; `eh vector constructor iterator'
EXTRN	??_M@YGXPAXIHP6EX0@Z@Z:PROC			; `eh vector destructor iterator'
EXTRN	__purecall:PROC
EXTRN	??2@YAPAXI@Z:PROC				; operator new
EXTRN	??3@YAXPAX@Z:PROC				; operator delete
EXTRN	___report_rangecheckfailure:PROC
EXTRN	??8PlayerID@@QBE_NABU0@@Z:PROC			; PlayerID::operator==
EXTRN	??9PlayerID@@QBE_NABU0@@Z:PROC			; PlayerID::operator!=
EXTRN	??MPlayerID@@QBE_NABU0@@Z:PROC			; PlayerID::operator<
EXTRN	?IsPeerToPeerMode@NetworkID@@SA_NXZ:PROC	; NetworkID::IsPeerToPeerMode
EXTRN	??8NetworkID@@QBE_NABU0@@Z:PROC			; NetworkID::operator==
EXTRN	??_ERakPeerInterface@@UAEPAXI@Z:PROC		; RakPeerInterface::`vector deleting destructor'
EXTRN	_memcmp:PROC
EXTRN	_memcpy:PROC
EXTRN	_memset:PROC
EXTRN	_strcpy:PROC
EXTRN	_strcmp:PROC
EXTRN	_strlen:PROC
EXTRN	_memmove:PROC
EXTRN	__imp__CloseHandle@4:PROC
EXTRN	__imp__SetWaitableTimer@24:PROC
EXTRN	__imp__CreateWaitableTimerA@12:PROC
EXTRN	_free:PROC
EXTRN	_malloc:PROC
EXTRN	__imp__closesocket@4:PROC
EXTRN	__imp__inet_addr@4:PROC
EXTRN	__imp__inet_ntoa@4:PROC
EXTRN	?CreateBoundSocket@SocketLayer@@QAEIG_NPBD@Z:PROC ; SocketLayer::CreateBoundSocket
EXTRN	?DomainNameToIP@SocketLayer@@QAEPBDPBD@Z:PROC	; SocketLayer::DomainNameToIP
EXTRN	?RecvFrom@SocketLayer@@QAEHIPAVRakPeer@@PAH@Z:PROC ; SocketLayer::RecvFrom
EXTRN	?GetMyIP@SocketLayer@@QAEXQAY0BA@D@Z:PROC	; SocketLayer::GetMyIP
EXTRN	?SendTo@SocketLayer@@QAEHIPBDHQADG@Z:PROC	; SocketLayer::SendTo
EXTRN	?SendTo@SocketLayer@@QAEHIPBDHIG@Z:PROC		; SocketLayer::SendTo
EXTRN	?GetLocalPort@SocketLayer@@QAEGI@Z:PROC		; SocketLayer::GetLocalPort
EXTRN	__wassert:PROC
EXTRN	??0BitStream@RakNet@@QAE@XZ:PROC		; RakNet::BitStream::BitStream
EXTRN	??0BitStream@RakNet@@QAE@H@Z:PROC		; RakNet::BitStream::BitStream
EXTRN	??0BitStream@RakNet@@QAE@PAEI_N@Z:PROC		; RakNet::BitStream::BitStream
EXTRN	??1BitStream@RakNet@@QAE@XZ:PROC		; RakNet::BitStream::~BitStream
EXTRN	?Reset@BitStream@RakNet@@QAEXXZ:PROC		; RakNet::BitStream::Reset
EXTRN	?Write@BitStream@RakNet@@QAEXPBDH@Z:PROC	; RakNet::BitStream::Write
EXTRN	?ResetWritePointer@BitStream@RakNet@@QAEXXZ:PROC ; RakNet::BitStream::ResetWritePointer
EXTRN	?IgnoreBits@BitStream@RakNet@@QAEXH@Z:PROC	; RakNet::BitStream::IgnoreBits
EXTRN	?SetWriteOffset@BitStream@RakNet@@QAEXH@Z:PROC	; RakNet::BitStream::SetWriteOffset
EXTRN	?WriteBits@BitStream@RakNet@@QAEXPBEH_N@Z:PROC	; RakNet::BitStream::WriteBits
EXTRN	?WriteAlignedBytes@BitStream@RakNet@@QAEXPBEH@Z:PROC ; RakNet::BitStream::WriteAlignedBytes
EXTRN	?ReadBits@BitStream@RakNet@@QAE_NPAEH_N@Z:PROC	; RakNet::BitStream::ReadBits
EXTRN	?Write0@BitStream@RakNet@@QAEXXZ:PROC		; RakNet::BitStream::Write0
EXTRN	?Write1@BitStream@RakNet@@QAEXXZ:PROC		; RakNet::BitStream::Write1
EXTRN	?WriteCompressed@BitStream@RakNet@@AAEXPBEH_N@Z:PROC ; RakNet::BitStream::WriteCompressed
EXTRN	?ReadCompressed@BitStream@RakNet@@AAE_NPAEH_N@Z:PROC ; RakNet::BitStream::ReadCompressed
EXTRN	??0CSHA1@@QAE@XZ:PROC				; CSHA1::CSHA1
EXTRN	??1CSHA1@@UAE@XZ:PROC				; CSHA1::~CSHA1
EXTRN	?Reset@CSHA1@@QAEXXZ:PROC			; CSHA1::Reset
EXTRN	?Update@CSHA1@@QAEXPAEI@Z:PROC			; CSHA1::Update
EXTRN	?Final@CSHA1@@QAEXXZ:PROC			; CSHA1::Final
EXTRN	?GetHash@CSHA1@@QBEPAEXZ:PROC			; CSHA1::GetHash
EXTRN	??0ReliabilityLayer@@QAE@XZ:PROC		; ReliabilityLayer::ReliabilityLayer
EXTRN	??1ReliabilityLayer@@QAE@XZ:PROC		; ReliabilityLayer::~ReliabilityLayer
EXTRN	?Reset@ReliabilityLayer@@QAEX_N@Z:PROC		; ReliabilityLayer::Reset
EXTRN	?SetEncryptionKey@ReliabilityLayer@@QAEXPBE@Z:PROC ; ReliabilityLayer::SetEncryptionKey
EXTRN	?SetTimeoutTime@ReliabilityLayer@@QAEXI@Z:PROC	; ReliabilityLayer::SetTimeoutTime
EXTRN	?GetTimeoutTime@ReliabilityLayer@@QAEIXZ:PROC	; ReliabilityLayer::GetTimeoutTime
EXTRN	?HandleSocketReceiveFromConnectedPlayer@ReliabilityLayer@@QAE_NPBDHUPlayerID@@AAV?$List@PAVPluginInterface@@@DataStructures@@H@Z:PROC ; ReliabilityLayer::HandleSocketReceiveFromConnectedPlayer
EXTRN	?Receive@ReliabilityLayer@@QAEHPAPAE@Z:PROC	; ReliabilityLayer::Receive
EXTRN	?Send@ReliabilityLayer@@QAE_NPADHW4PacketPriority@@W4PacketReliability@@E_NH_J@Z:PROC ; ReliabilityLayer::Send
EXTRN	?Update@ReliabilityLayer@@QAEXIUPlayerID@@H_JAAV?$List@PAVPluginInterface@@@DataStructures@@@Z:PROC ; ReliabilityLayer::Update
EXTRN	?IsCheater@ReliabilityLayer@@QBE_NXZ:PROC	; ReliabilityLayer::IsCheater
EXTRN	?IsDeadConnection@ReliabilityLayer@@QBE_NXZ:PROC ; ReliabilityLayer::IsDeadConnection
EXTRN	?SetPing@ReliabilityLayer@@QAEXI@Z:PROC		; ReliabilityLayer::SetPing
EXTRN	?GetStatistics@ReliabilityLayer@@QAEQAURakNetStatisticsStruct@@XZ:PROC ; ReliabilityLayer::GetStatistics
EXTRN	?IsDataWaiting@ReliabilityLayer@@QAE_NXZ:PROC	; ReliabilityLayer::IsDataWaiting
EXTRN	?AreAcksWaiting@ReliabilityLayer@@QAE_NXZ:PROC	; ReliabilityLayer::AreAcksWaiting
EXTRN	?ApplyNetworkSimulator@ReliabilityLayer@@QAEXNII@Z:PROC ; ReliabilityLayer::ApplyNetworkSimulator
EXTRN	?SetSplitMessageProgressInterval@ReliabilityLayer@@QAEXH@Z:PROC ; ReliabilityLayer::SetSplitMessageProgressInterval
EXTRN	?SetUnreliableTimeout@ReliabilityLayer@@QAEXI@Z:PROC ; ReliabilityLayer::SetUnreliableTimeout
EXTRN	?seedMT@@YAXI@Z:PROC				; seedMT
EXTRN	?randomMT@@YAIXZ:PROC				; randomMT
EXTRN	??0RPCMap@@QAE@XZ:PROC				; RPCMap::RPCMap
EXTRN	??1RPCMap@@QAE@XZ:PROC				; RPCMap::~RPCMap
EXTRN	?Clear@RPCMap@@QAEXXZ:PROC			; RPCMap::Clear
EXTRN	?GetNodeFromIndex@RPCMap@@QAEPAURPCNode@@E@Z:PROC ; RPCMap::GetNodeFromIndex
EXTRN	?GetIndexFromFunctionName@RPCMap@@QAEEPAD@Z:PROC ; RPCMap::GetIndexFromFunctionName
EXTRN	?AddIdentifierWithFunction@RPCMap@@QAEXPADPAX_N@Z:PROC ; RPCMap::AddIdentifierWithFunction
EXTRN	?AddIdentifierAtIndex@RPCMap@@QAEXPADE@Z:PROC	; RPCMap::AddIdentifierAtIndex
EXTRN	?RemoveNode@RPCMap@@QAEXPAD@Z:PROC		; RPCMap::RemoveNode
EXTRN	??0SimpleMutex@@QAE@XZ:PROC			; SimpleMutex::SimpleMutex
EXTRN	??1SimpleMutex@@QAE@XZ:PROC			; SimpleMutex::~SimpleMutex
EXTRN	?Lock@SimpleMutex@@QAEXXZ:PROC			; SimpleMutex::Lock
EXTRN	?Unlock@SimpleMutex@@QAEXXZ:PROC		; SimpleMutex::Unlock
EXTRN	??_ERakPeer@@UAEPAXI@Z:PROC			; RakPeer::`vector deleting destructor'
EXTRN	__beginthreadex:PROC
EXTRN	?GetTime@RakNet@@YAIXZ:PROC			; RakNet::GetTime
EXTRN	?GetTimeNS@RakNet@@YA_JXZ:PROC			; RakNet::GetTimeNS
EXTRN	??0HuffmanEncodingTree@@QAE@XZ:PROC		; HuffmanEncodingTree::HuffmanEncodingTree
EXTRN	??1HuffmanEncodingTree@@QAE@XZ:PROC		; HuffmanEncodingTree::~HuffmanEncodingTree
EXTRN	?EncodeArray@HuffmanEncodingTree@@QAEXPAEIPAVBitStream@RakNet@@@Z:PROC ; HuffmanEncodingTree::EncodeArray
EXTRN	?DecodeArray@HuffmanEncodingTree@@QAEXPAEIPAVBitStream@RakNet@@@Z:PROC ; HuffmanEncodingTree::DecodeArray
EXTRN	?GenerateFromFrequencyTable@HuffmanEncodingTree@@QAEXQAI@Z:PROC ; HuffmanEncodingTree::GenerateFromFrequencyTable
EXTRN	?Instance@StringCompressor@@SAPAV1@XZ:PROC	; StringCompressor::Instance
EXTRN	?EncodeString@StringCompressor@@QAEXPBDHPAVBitStream@RakNet@@H@Z:PROC ; StringCompressor::EncodeString
EXTRN	?DecodeString@StringCompressor@@QAE_NPADHPAVBitStream@RakNet@@H@Z:PROC ; StringCompressor::DecodeString
EXTRN	?AddReference@StringCompressor@@SAXXZ:PROC	; StringCompressor::AddReference
EXTRN	?RemoveReference@StringCompressor@@SAXXZ:PROC	; StringCompressor::RemoveReference
EXTRN	?AddReference@StringTable@@SAXXZ:PROC		; StringTable::AddReference
EXTRN	?RemoveReference@StringTable@@SAXXZ:PROC	; StringTable::RemoveReference
EXTRN	?GET_OBJECT_FROM_ID@NetworkIDGenerator@@SAPAXUNetworkID@@@Z:PROC ; NetworkIDGenerator::GET_OBJECT_FROM_ID
EXTRN	?RakSleep@@YAXI@Z:PROC				; RakSleep
EXTRN	@_RTC_AllocaHelper@12:PROC
EXTRN	@_RTC_CheckStackVars2@12:PROC
EXTRN	@_RTC_CheckStackVars@8:PROC
EXTRN	@__security_check_cookie@4:PROC
EXTRN	__RTC_CheckEsp:PROC
EXTRN	__RTC_InitBase:PROC
EXTRN	__RTC_Shutdown:PROC
EXTRN	__RTC_UninitUse:PROC
EXTRN	___CxxFrameHandler3:PROC
EXTRN	__alldiv:PROC
EXTRN	__alloca_probe_16:PROC
EXTRN	?I@SocketLayer@@0V1@A:BYTE			; SocketLayer::I
EXTRN	??_7type_info@@6B@:QWORD			; type_info::`vftable'
EXTRN	___security_cookie:DWORD
EXTRN	__fltused:DWORD
_BSS	SEGMENT
?ipList@?1??GetLocalIP@RakPeer@@UAEPBDI@Z@4PAY0BA@DA DB 0a0H DUP (?) ; `RakPeer::GetLocalIP'::`2'::ipList
?sum@?4??GetStatistics@RakPeer@@UAEQAURakNetStatisticsStruct@@UPlayerID@@@Z@4U3@A DB 0c4H DUP (?) ; `RakPeer::GetStatistics'::`5'::sum
_BSS	ENDS
;	COMDAT __xmm@41f00000000000000000000000000000
CONST	SEGMENT
__xmm@41f00000000000000000000000000000 DB 00H, 00H, 00H, 00H, 00H, 00H, 00H
	DB	00H, 00H, 00H, 00H, 00H, 00H, 00H, 0f0H, 'A'
CONST	ENDS
;	COMDAT __real@0000000000000000
CONST	SEGMENT
__real@0000000000000000 DQ 00000000000000000r	; 0
CONST	ENDS
;	COMDAT __real@00000000
CONST	SEGMENT
__real@00000000 DD 000000000r			; 0
CONST	ENDS
;	COMDAT rtc$TMZ
rtc$TMZ	SEGMENT
__RTC_Shutdown.rtc$TMZ DD FLAT:__RTC_Shutdown
rtc$TMZ	ENDS
;	COMDAT rtc$IMZ
rtc$IMZ	SEGMENT
__RTC_InitBase.rtc$IMZ DD FLAT:__RTC_InitBase
rtc$IMZ	ENDS
;	COMDAT ??_R1A@?0A@EA@RakPeer@@8
rdata$r	SEGMENT
??_R1A@?0A@EA@RakPeer@@8 DD FLAT:??_R0?AVRakPeer@@@8	; RakPeer::`RTTI Base Class Descriptor at (0,-1,0,64)'
	DD	01H
	DD	00H
	DD	0ffffffffH
	DD	00H
	DD	040H
	DD	FLAT:??_R3RakPeer@@8
rdata$r	ENDS
;	COMDAT ??_R2RakPeer@@8
rdata$r	SEGMENT
??_R2RakPeer@@8 DD FLAT:??_R1A@?0A@EA@RakPeer@@8	; RakPeer::`RTTI Base Class Array'
	DD	FLAT:??_R1A@?0A@EA@RakPeerInterface@@8
rdata$r	ENDS
;	COMDAT ??_R3RakPeer@@8
rdata$r	SEGMENT
??_R3RakPeer@@8 DD 00H					; RakPeer::`RTTI Class Hierarchy Descriptor'
	DD	00H
	DD	02H
	DD	FLAT:??_R2RakPeer@@8
rdata$r	ENDS
;	COMDAT ??_R0?AVRakPeer@@@8
data$r	SEGMENT
??_R0?AVRakPeer@@@8 DD FLAT:??_7type_info@@6B@		; RakPeer `RTTI Type Descriptor'
	DD	00H
	DB	'.?AVRakPeer@@', 00H
data$r	ENDS
;	COMDAT ??_R4RakPeer@@6B@
rdata$r	SEGMENT
??_R4RakPeer@@6B@ DD 00H				; RakPeer::`RTTI Complete Object Locator'
	DD	00H
	DD	00H
	DD	FLAT:??_R0?AVRakPeer@@@8
	DD	FLAT:??_R3RakPeer@@8
rdata$r	ENDS
;	COMDAT ??_R1A@?0A@EA@RakPeerInterface@@8
rdata$r	SEGMENT
??_R1A@?0A@EA@RakPeerInterface@@8 DD FLAT:??_R0?AVRakPeerInterface@@@8 ; RakPeerInterface::`RTTI Base Class Descriptor at (0,-1,0,64)'
	DD	00H
	DD	00H
	DD	0ffffffffH
	DD	00H
	DD	040H
	DD	FLAT:??_R3RakPeerInterface@@8
rdata$r	ENDS
;	COMDAT ??_R2RakPeerInterface@@8
rdata$r	SEGMENT
??_R2RakPeerInterface@@8 DD FLAT:??_R1A@?0A@EA@RakPeerInterface@@8 ; RakPeerInterface::`RTTI Base Class Array'
rdata$r	ENDS
;	COMDAT ??_R3RakPeerInterface@@8
rdata$r	SEGMENT
??_R3RakPeerInterface@@8 DD 00H				; RakPeerInterface::`RTTI Class Hierarchy Descriptor'
	DD	00H
	DD	01H
	DD	FLAT:??_R2RakPeerInterface@@8
rdata$r	ENDS
;	COMDAT ??_R0?AVRakPeerInterface@@@8
data$r	SEGMENT
??_R0?AVRakPeerInterface@@@8 DD FLAT:??_7type_info@@6B@	; RakPeerInterface `RTTI Type Descriptor'
	DD	00H
	DB	'.?AVRakPeerInterface@@', 00H
data$r	ENDS
;	COMDAT ??_R4RakPeerInterface@@6B@
rdata$r	SEGMENT
??_R4RakPeerInterface@@6B@ DD 00H			; RakPeerInterface::`RTTI Complete Object Locator'
	DD	00H
	DD	00H
	DD	FLAT:??_R0?AVRakPeerInterface@@@8
	DD	FLAT:??_R3RakPeerInterface@@8
rdata$r	ENDS
;	COMDAT ??_C@_1CM@FMCFHBCK@?$AAp?$AAo?$AAs?$AAi?$AAt?$AAi?$AAo?$AAn?$AA?5?$AA?$DM?$AA?$DN?$AA?5?$AAl?$AAi?$AAs?$AAt?$AA_?$AAs?$AAi?$AAz?$AAe?$AA?$AA@
CONST	SEGMENT
??_C@_1CM@FMCFHBCK@?$AAp?$AAo?$AAs?$AAi?$AAt?$AAi?$AAo?$AAn?$AA?5?$AA?$DM?$AA?$DN?$AA?5?$AAl?$AAi?$AAs?$AAt?$AA_?$AAs?$AAi?$AAz?$AAe?$AA?$AA@ DB 'p'
	DB	00H, 'o', 00H, 's', 00H, 'i', 00H, 't', 00H, 'i', 00H, 'o', 00H
	DB	'n', 00H, ' ', 00H, '<', 00H, '=', 00H, ' ', 00H, 'l', 00H, 'i'
	DB	00H, 's', 00H, 't', 00H, '_', 00H, 's', 00H, 'i', 00H, 'z', 00H
	DB	'e', 00H, 00H, 00H				; `string'
CONST	ENDS
;	COMDAT ??_C@_1CE@CLDOPLDF@?$AAp?$AAo?$AAs?$AAi?$AAt?$AAi?$AAo?$AAn?$AA?5?$AA?$DM?$AA?5?$AAS?$AAi?$AAz?$AAe?$AA?$CI?$AA?$CJ?$AA?$AA@
CONST	SEGMENT
??_C@_1CE@CLDOPLDF@?$AAp?$AAo?$AAs?$AAi?$AAt?$AAi?$AAo?$AAn?$AA?5?$AA?$DM?$AA?5?$AAS?$AAi?$AAz?$AAe?$AA?$CI?$AA?$CJ?$AA?$AA@ DB 'p'
	DB	00H, 'o', 00H, 's', 00H, 'i', 00H, 't', 00H, 'i', 00H, 'o', 00H
	DB	'n', 00H, ' ', 00H, '<', 00H, ' ', 00H, 'S', 00H, 'i', 00H, 'z'
	DB	00H, 'e', 00H, '(', 00H, ')', 00H, 00H, 00H	; `string'
CONST	ENDS
;	COMDAT ??_C@_1BE@OMEGJCHO@?$AAn?$AAe?$AAw?$AA_?$AAa?$AAr?$AAr?$AAa?$AAy?$AA?$AA@
CONST	SEGMENT
??_C@_1BE@OMEGJCHO@?$AAn?$AAe?$AAw?$AA_?$AAa?$AAr?$AAr?$AAa?$AAy?$AA?$AA@ DB 'n'
	DB	00H, 'e', 00H, 'w', 00H, '_', 00H, 'a', 00H, 'r', 00H, 'r', 00H
	DB	'a', 00H, 'y', 00H, 00H, 00H			; `string'
CONST	ENDS
;	COMDAT ??_C@_1DE@FCOMCLAG@?$AAw?$AAr?$AAi?$AAt?$AAe?$AAP?$AAo?$AAi?$AAn?$AAt?$AAe?$AAr?$AA?$CB?$AA?$DN?$AAr?$AAe?$AAa?$AAd?$AAP?$AAo?$AAi?$AAn?$AAt?$AAe?$AAr?$AA?$AA@
CONST	SEGMENT
??_C@_1DE@FCOMCLAG@?$AAw?$AAr?$AAi?$AAt?$AAe?$AAP?$AAo?$AAi?$AAn?$AAt?$AAe?$AAr?$AA?$CB?$AA?$DN?$AAr?$AAe?$AAa?$AAd?$AAP?$AAo?$AAi?$AAn?$AAt?$AAe?$AAr?$AA?$AA@ DB 'w'
	DB	00H, 'r', 00H, 'i', 00H, 't', 00H, 'e', 00H, 'P', 00H, 'o', 00H
	DB	'i', 00H, 'n', 00H, 't', 00H, 'e', 00H, 'r', 00H, '!', 00H, '='
	DB	00H, 'r', 00H, 'e', 00H, 'a', 00H, 'd', 00H, 'P', 00H, 'o', 00H
	DB	'i', 00H, 'n', 00H, 't', 00H, 'e', 00H, 'r', 00H, 00H, 00H ; `string'
CONST	ENDS
;	COMDAT ??_C@_1DM@HLMOCDPL@?$AAr?$AAe?$AAa?$AAd?$AAA?$AAh?$AAe?$AAa?$AAd?$AAP?$AAo?$AAi?$AAn?$AAt?$AAe?$AAr?$AA?$CB?$AA?$DN?$AAr?$AAe?$AAa?$AAd?$AAP?$AAo?$AAi?$AAn?$AAt?$AAe?$AAr?$AA?$AA@
CONST	SEGMENT
??_C@_1DM@HLMOCDPL@?$AAr?$AAe?$AAa?$AAd?$AAA?$AAh?$AAe?$AAa?$AAd?$AAP?$AAo?$AAi?$AAn?$AAt?$AAe?$AAr?$AA?$CB?$AA?$DN?$AAr?$AAe?$AAa?$AAd?$AAP?$AAo?$AAi?$AAn?$AAt?$AAe?$AAr?$AA?$AA@ DB 'r'
	DB	00H, 'e', 00H, 'a', 00H, 'd', 00H, 'A', 00H, 'h', 00H, 'e', 00H
	DB	'a', 00H, 'd', 00H, 'P', 00H, 'o', 00H, 'i', 00H, 'n', 00H, 't'
	DB	00H, 'e', 00H, 'r', 00H, '!', 00H, '=', 00H, 'r', 00H, 'e', 00H
	DB	'a', 00H, 'd', 00H, 'P', 00H, 'o', 00H, 'i', 00H, 'n', 00H, 't'
	DB	00H, 'e', 00H, 'r', 00H, 00H, 00H		; `string'
CONST	ENDS
;	COMDAT ??_C@_1DE@PPJJMKJI@?$AAr?$AAe?$AAa?$AAd?$AAP?$AAo?$AAi?$AAn?$AAt?$AAe?$AAr?$AA?$CB?$AA?$DN?$AAw?$AAr?$AAi?$AAt?$AAe?$AAP?$AAo?$AAi?$AAn?$AAt?$AAe?$AAr?$AA?$AA@
CONST	SEGMENT
??_C@_1DE@PPJJMKJI@?$AAr?$AAe?$AAa?$AAd?$AAP?$AAo?$AAi?$AAn?$AAt?$AAe?$AAr?$AA?$CB?$AA?$DN?$AAw?$AAr?$AAi?$AAt?$AAe?$AAP?$AAo?$AAi?$AAn?$AAt?$AAe?$AAr?$AA?$AA@ DB 'r'
	DB	00H, 'e', 00H, 'a', 00H, 'd', 00H, 'P', 00H, 'o', 00H, 'i', 00H
	DB	'n', 00H, 't', 00H, 'e', 00H, 'r', 00H, '!', 00H, '=', 00H, 'w'
	DB	00H, 'r', 00H, 'i', 00H, 't', 00H, 'e', 00H, 'P', 00H, 'o', 00H
	DB	'i', 00H, 'n', 00H, 't', 00H, 'e', 00H, 'r', 00H, 00H, 00H ; `string'
CONST	ENDS
;	COMDAT ??_C@_1EA@LEKNHFBP@?$AAw?$AAr?$AAi?$AAt?$AAe?$AAP?$AAo?$AAi?$AAn?$AAt?$AAe?$AAr?$AA?$CB?$AA?$DN?$AAw?$AAr?$AAi?$AAt?$AAe?$AAA?$AAh?$AAe?$AAa?$AAd?$AAP?$AAo?$AAi?$AAn?$AAt?$AAe?$AAr?$AA?$AA@
CONST	SEGMENT
??_C@_1EA@LEKNHFBP@?$AAw?$AAr?$AAi?$AAt?$AAe?$AAP?$AAo?$AAi?$AAn?$AAt?$AAe?$AAr?$AA?$CB?$AA?$DN?$AAw?$AAr?$AAi?$AAt?$AAe?$AAA?$AAh?$AAe?$AAa?$AAd?$AAP?$AAo?$AAi?$AAn?$AAt?$AAe?$AAr?$AA?$AA@ DB 'w'
	DB	00H, 'r', 00H, 'i', 00H, 't', 00H, 'e', 00H, 'P', 00H, 'o', 00H
	DB	'i', 00H, 'n', 00H, 't', 00H, 'e', 00H, 'r', 00H, '!', 00H, '='
	DB	00H, 'w', 00H, 'r', 00H, 'i', 00H, 't', 00H, 'e', 00H, 'A', 00H
	DB	'h', 00H, 'e', 00H, 'a', 00H, 'd', 00H, 'P', 00H, 'o', 00H, 'i'
	DB	00H, 'n', 00H, 't', 00H, 'e', 00H, 'r', 00H, 00H, 00H ; `string'
CONST	ENDS
;	COMDAT ??_C@_1EA@OAIJHOON@?$AAw?$AAr?$AAi?$AAt?$AAe?$AAP?$AAo?$AAi?$AAn?$AAt?$AAe?$AAr?$AA?9?$AA?$DO?$AAn?$AAe?$AAx?$AAt?$AA?$CB?$AA?$DN?$AAr?$AAe?$AAa?$AAd?$AAP?$AAo?$AAi?$AAn?$AAt?$AAe?$AAr?$AA?$AA@
CONST	SEGMENT
??_C@_1EA@OAIJHOON@?$AAw?$AAr?$AAi?$AAt?$AAe?$AAP?$AAo?$AAi?$AAn?$AAt?$AAe?$AAr?$AA?9?$AA?$DO?$AAn?$AAe?$AAx?$AAt?$AA?$CB?$AA?$DN?$AAr?$AAe?$AAa?$AAd?$AAP?$AAo?$AAi?$AAn?$AAt?$AAe?$AAr?$AA?$AA@ DB 'w'
	DB	00H, 'r', 00H, 'i', 00H, 't', 00H, 'e', 00H, 'P', 00H, 'o', 00H
	DB	'i', 00H, 'n', 00H, 't', 00H, 'e', 00H, 'r', 00H, '-', 00H, '>'
	DB	00H, 'n', 00H, 'e', 00H, 'x', 00H, 't', 00H, '!', 00H, '=', 00H
	DB	'r', 00H, 'e', 00H, 'a', 00H, 'd', 00H, 'P', 00H, 'o', 00H, 'i'
	DB	00H, 'n', 00H, 't', 00H, 'e', 00H, 'r', 00H, 00H, 00H ; `string'
CONST	ENDS
;	COMDAT ??_C@_1DA@FABPCGM@?$AAw?$AAr?$AAi?$AAt?$AAe?$AAA?$AAh?$AAe?$AAa?$AAd?$AAP?$AAo?$AAi?$AAn?$AAt?$AAe?$AAr?$AA?9?$AA?$DO?$AAn?$AAe?$AAx?$AAt?$AA?$AA@
CONST	SEGMENT
??_C@_1DA@FABPCGM@?$AAw?$AAr?$AAi?$AAt?$AAe?$AAA?$AAh?$AAe?$AAa?$AAd?$AAP?$AAo?$AAi?$AAn?$AAt?$AAe?$AAr?$AA?9?$AA?$DO?$AAn?$AAe?$AAx?$AAt?$AA?$AA@ DB 'w'
	DB	00H, 'r', 00H, 'i', 00H, 't', 00H, 'e', 00H, 'A', 00H, 'h', 00H
	DB	'e', 00H, 'a', 00H, 'd', 00H, 'P', 00H, 'o', 00H, 'i', 00H, 'n'
	DB	00H, 't', 00H, 'e', 00H, 'r', 00H, '-', 00H, '>', 00H, 'n', 00H
	DB	'e', 00H, 'x', 00H, 't', 00H, 00H, 00H	; `string'
CONST	ENDS
;	COMDAT ??_C@_1GC@EGJKEKIF@?$AAz?$AA?3?$AA?2?$AAs?$AAa?$AAm?$AAp?$AAs?$AAr?$AAc?$AA?2?$AA0?$AA2?$AAx?$AAu?$AA1?$AA?2?$AAr?$AAa?$AAk?$AAn?$AAe?$AAt?$AA?2?$AAs?$AAi?$AAn?$AAg?$AAl?$AAe?$AAp?$AAr@
CONST	SEGMENT
??_C@_1GC@EGJKEKIF@?$AAz?$AA?3?$AA?2?$AAs?$AAa?$AAm?$AAp?$AAs?$AAr?$AAc?$AA?2?$AA0?$AA2?$AAx?$AAu?$AA1?$AA?2?$AAr?$AAa?$AAk?$AAn?$AAe?$AAt?$AA?2?$AAs?$AAi?$AAn?$AAg?$AAl?$AAe?$AAp?$AAr@ DB 'z'
	DB	00H, ':', 00H, '\', 00H, 's', 00H, 'a', 00H, 'm', 00H, 'p', 00H
	DB	's', 00H, 'r', 00H, 'c', 00H, '\', 00H, '0', 00H, '2', 00H, 'x'
	DB	00H, 'u', 00H, '1', 00H, '\', 00H, 'r', 00H, 'a', 00H, 'k', 00H
	DB	'n', 00H, 'e', 00H, 't', 00H, '\', 00H, 's', 00H, 'i', 00H, 'n'
	DB	00H, 'g', 00H, 'l', 00H, 'e', 00H, 'p', 00H, 'r', 00H, 'o', 00H
	DB	'd', 00H, 'u', 00H, 'c', 00H, 'e', 00H, 'r', 00H, 'c', 00H, 'o'
	DB	00H, 'n', 00H, 's', 00H, 'u', 00H, 'm', 00H, 'e', 00H, 'r', 00H
	DB	'.', 00H, 'h', 00H, 00H, 00H			; `string'
CONST	ENDS
;	COMDAT ??_C@_1BO@JBFMBKMD@?$AAl?$AAi?$AAs?$AAt?$AA_?$AAs?$AAi?$AAz?$AAe?$AA?$DO?$AA?$DN?$AAn?$AAu?$AAm?$AA?$AA@
CONST	SEGMENT
??_C@_1BO@JBFMBKMD@?$AAl?$AAi?$AAs?$AAt?$AA_?$AAs?$AAi?$AAz?$AAe?$AA?$DO?$AA?$DN?$AAn?$AAu?$AAm?$AA?$AA@ DB 'l'
	DB	00H, 'i', 00H, 's', 00H, 't', 00H, '_', 00H, 's', 00H, 'i', 00H
	DB	'z', 00H, 'e', 00H, '>', 00H, '=', 00H, 'n', 00H, 'u', 00H, 'm'
	DB	00H, 00H, 00H				; `string'
CONST	ENDS
;	COMDAT ??_C@_1CK@HINNGFPG@?$AAp?$AAo?$AAs?$AAi?$AAt?$AAi?$AAo?$AAn?$AA?5?$AA?$DM?$AA?5?$AAl?$AAi?$AAs?$AAt?$AA_?$AAs?$AAi?$AAz?$AAe?$AA?$AA@
CONST	SEGMENT
??_C@_1CK@HINNGFPG@?$AAp?$AAo?$AAs?$AAi?$AAt?$AAi?$AAo?$AAn?$AA?5?$AA?$DM?$AA?5?$AAl?$AAi?$AAs?$AAt?$AA_?$AAs?$AAi?$AAz?$AAe?$AA?$AA@ DB 'p'
	DB	00H, 'o', 00H, 's', 00H, 'i', 00H, 't', 00H, 'i', 00H, 'o', 00H
	DB	'n', 00H, ' ', 00H, '<', 00H, ' ', 00H, 'l', 00H, 'i', 00H, 's'
	DB	00H, 't', 00H, '_', 00H, 's', 00H, 'i', 00H, 'z', 00H, 'e', 00H
	DB	00H, 00H					; `string'
CONST	ENDS
;	COMDAT ??_C@_1EE@MBOIAKFO@?$AAz?$AA?3?$AA?2?$AAs?$AAa?$AAm?$AAp?$AAs?$AAr?$AAc?$AA?2?$AA0?$AA2?$AAx?$AAu?$AA1?$AA?2?$AAr?$AAa?$AAk?$AAn?$AAe?$AAt?$AA?2?$AAd?$AAs?$AA_?$AAl?$AAi?$AAs?$AAt?$AA?4@
CONST	SEGMENT
??_C@_1EE@MBOIAKFO@?$AAz?$AA?3?$AA?2?$AAs?$AAa?$AAm?$AAp?$AAs?$AAr?$AAc?$AA?2?$AA0?$AA2?$AAx?$AAu?$AA1?$AA?2?$AAr?$AAa?$AAk?$AAn?$AAe?$AAt?$AA?2?$AAd?$AAs?$AA_?$AAl?$AAi?$AAs?$AAt?$AA?4@ DB 'z'
	DB	00H, ':', 00H, '\', 00H, 's', 00H, 'a', 00H, 'm', 00H, 'p', 00H
	DB	's', 00H, 'r', 00H, 'c', 00H, '\', 00H, '0', 00H, '2', 00H, 'x'
	DB	00H, 'u', 00H, '1', 00H, '\', 00H, 'r', 00H, 'a', 00H, 'k', 00H
	DB	'n', 00H, 'e', 00H, 't', 00H, '\', 00H, 'd', 00H, 's', 00H, '_'
	DB	00H, 'l', 00H, 'i', 00H, 's', 00H, 't', 00H, '.', 00H, 'h', 00H
	DB	00H, 00H					; `string'
CONST	ENDS
;	COMDAT ??_C@_1CG@FNLJFNDG@?$AAo?$AAb?$AAj?$AAe?$AAc?$AAt?$AAE?$AAx?$AAi?$AAs?$AAt?$AAs?$AA?$DN?$AA?$DN?$AAt?$AAr?$AAu?$AAe?$AA?$AA@
CONST	SEGMENT
??_C@_1CG@FNLJFNDG@?$AAo?$AAb?$AAj?$AAe?$AAc?$AAt?$AAE?$AAx?$AAi?$AAs?$AAt?$AAs?$AA?$DN?$AA?$DN?$AAt?$AAr?$AAu?$AAe?$AA?$AA@ DB 'o'
	DB	00H, 'b', 00H, 'j', 00H, 'e', 00H, 'c', 00H, 't', 00H, 'E', 00H
	DB	'x', 00H, 'i', 00H, 's', 00H, 't', 00H, 's', 00H, '=', 00H, '='
	DB	00H, 't', 00H, 'r', 00H, 'u', 00H, 'e', 00H, 00H, 00H ; `string'
CONST	ENDS
;	COMDAT ??_C@_1FC@PKHPOOLI@?$AAz?$AA?3?$AA?2?$AAs?$AAa?$AAm?$AAp?$AAs?$AAr?$AAc?$AA?2?$AA0?$AA2?$AAx?$AAu?$AA1?$AA?2?$AAr?$AAa?$AAk?$AAn?$AAe?$AAt?$AA?2?$AAd?$AAs?$AA_?$AAo?$AAr?$AAd?$AAe?$AAr@
CONST	SEGMENT
??_C@_1FC@PKHPOOLI@?$AAz?$AA?3?$AA?2?$AAs?$AAa?$AAm?$AAp?$AAs?$AAr?$AAc?$AA?2?$AA0?$AA2?$AAx?$AAu?$AA1?$AA?2?$AAr?$AAa?$AAk?$AAn?$AAe?$AAt?$AA?2?$AAd?$AAs?$AA_?$AAo?$AAr?$AAd?$AAe?$AAr@ DB 'z'
	DB	00H, ':', 00H, '\', 00H, 's', 00H, 'a', 00H, 'm', 00H, 'p', 00H
	DB	's', 00H, 'r', 00H, 'c', 00H, '\', 00H, '0', 00H, '2', 00H, 'x'
	DB	00H, 'u', 00H, '1', 00H, '\', 00H, 'r', 00H, 'a', 00H, 'k', 00H
	DB	'n', 00H, 'e', 00H, 't', 00H, '\', 00H, 'd', 00H, 's', 00H, '_'
	DB	00H, 'o', 00H, 'r', 00H, 'd', 00H, 'e', 00H, 'r', 00H, 'e', 00H
	DB	'd', 00H, 'l', 00H, 'i', 00H, 's', 00H, 't', 00H, '.', 00H, 'h'
	DB	00H, 00H, 00H				; `string'
CONST	ENDS
;	COMDAT ??_C@_1GG@JDEIIJCO@?$AAa?$AAl?$AAl?$AAo?$AAc?$AAa?$AAt?$AAi?$AAo?$AAn?$AA_?$AAs?$AAi?$AAz?$AAe?$AA?5?$AA?$DO?$AA?5?$AA0?$AA?5?$AA?$CG?$AA?$CG?$AA?5?$AAS?$AAi?$AAz?$AAe?$AA?$CI?$AA?$CJ?$AA?5?$AA?$DO?$AA?$DN@
CONST	SEGMENT
??_C@_1GG@JDEIIJCO@?$AAa?$AAl?$AAl?$AAo?$AAc?$AAa?$AAt?$AAi?$AAo?$AAn?$AA_?$AAs?$AAi?$AAz?$AAe?$AA?5?$AA?$DO?$AA?5?$AA0?$AA?5?$AA?$CG?$AA?$CG?$AA?5?$AAS?$AAi?$AAz?$AAe?$AA?$CI?$AA?$CJ?$AA?5?$AA?$DO?$AA?$DN@ DB 'a'
	DB	00H, 'l', 00H, 'l', 00H, 'o', 00H, 'c', 00H, 'a', 00H, 't', 00H
	DB	'i', 00H, 'o', 00H, 'n', 00H, '_', 00H, 's', 00H, 'i', 00H, 'z'
	DB	00H, 'e', 00H, ' ', 00H, '>', 00H, ' ', 00H, '0', 00H, ' ', 00H
	DB	'&', 00H, '&', 00H, ' ', 00H, 'S', 00H, 'i', 00H, 'z', 00H, 'e'
	DB	00H, '(', 00H, ')', 00H, ' ', 00H, '>', 00H, '=', 00H, ' ', 00H
	DB	'0', 00H, ' ', 00H, '&', 00H, '&', 00H, ' ', 00H, 'h', 00H, 'e'
	DB	00H, 'a', 00H, 'd', 00H, ' ', 00H, '!', 00H, '=', 00H, ' ', 00H
	DB	't', 00H, 'a', 00H, 'i', 00H, 'l', 00H, 00H, 00H ; `string'
CONST	ENDS
;	COMDAT ??_C@_1EG@DIEEECKO@?$AAz?$AA?3?$AA?2?$AAs?$AAa?$AAm?$AAp?$AAs?$AAr?$AAc?$AA?2?$AA0?$AA2?$AAx?$AAu?$AA1?$AA?2?$AAr?$AAa?$AAk?$AAn?$AAe?$AAt?$AA?2?$AAd?$AAs?$AA_?$AAq?$AAu?$AAe?$AAu?$AAe@
CONST	SEGMENT
??_C@_1EG@DIEEECKO@?$AAz?$AA?3?$AA?2?$AAs?$AAa?$AAm?$AAp?$AAs?$AAr?$AAc?$AA?2?$AA0?$AA2?$AAx?$AAu?$AA1?$AA?2?$AAr?$AAa?$AAk?$AAn?$AAe?$AAt?$AA?2?$AAd?$AAs?$AA_?$AAq?$AAu?$AAe?$AAu?$AAe@ DB 'z'
	DB	00H, ':', 00H, '\', 00H, 's', 00H, 'a', 00H, 'm', 00H, 'p', 00H
	DB	's', 00H, 'r', 00H, 'c', 00H, '\', 00H, '0', 00H, '2', 00H, 'x'
	DB	00H, 'u', 00H, '1', 00H, '\', 00H, 'r', 00H, 'a', 00H, 'k', 00H
	DB	'n', 00H, 'e', 00H, 't', 00H, '\', 00H, 'd', 00H, 's', 00H, '_'
	DB	00H, 'q', 00H, 'u', 00H, 'e', 00H, 'u', 00H, 'e', 00H, '.', 00H
	DB	'h', 00H, 00H, 00H				; `string'
CONST	ENDS
;	COMDAT ??_C@_1BA@ICANLBCA@?$AAs?$AAu?$AAc?$AAc?$AAe?$AAs?$AAs?$AA?$AA@
CONST	SEGMENT
??_C@_1BA@ICANLBCA@?$AAs?$AAu?$AAc?$AAc?$AAe?$AAs?$AAs?$AA?$AA@ DB 's', 00H
	DB	'u', 00H, 'c', 00H, 'c', 00H, 'e', 00H, 's', 00H, 's', 00H, 00H
	DB	00H						; `string'
CONST	ENDS
;	COMDAT ??_C@_1BI@JFBHHBPJ@?$AAt?$AAi?$AAm?$AAe?$AAr?$AAH?$AAa?$AAn?$AAd?$AAl?$AAe?$AA?$AA@
CONST	SEGMENT
??_C@_1BI@JFBHHBPJ@?$AAt?$AAi?$AAm?$AAe?$AAr?$AAH?$AAa?$AAn?$AAd?$AAl?$AAe?$AA?$AA@ DB 't'
	DB	00H, 'i', 00H, 'm', 00H, 'e', 00H, 'r', 00H, 'H', 00H, 'a', 00H
	DB	'n', 00H, 'd', 00H, 'l', 00H, 'e', 00H, 00H, 00H ; `string'
CONST	ENDS
;	COMDAT ?__LINE__Var@?1??UpdateNetworkLoop@@YGIPAX@Z@4JA
_DATA	SEGMENT
?__LINE__Var@?1??UpdateNetworkLoop@@YGIPAX@Z@4JA DD 01361H ; `UpdateNetworkLoop'::`2'::__LINE__Var
_DATA	ENDS
;	COMDAT ??_C@_1BK@CNLEAJJK@?$AAp?$AAi?$AAn?$AAg?$AA?5?$AA?$DM?$AA?5?$AA1?$AA0?$AA0?$AA0?$AA0?$AA?$AA@
CONST	SEGMENT
??_C@_1BK@CNLEAJJK@?$AAp?$AAi?$AAn?$AAg?$AA?5?$AA?$DM?$AA?5?$AA1?$AA0?$AA0?$AA0?$AA0?$AA?$AA@ DB 'p'
	DB	00H, 'i', 00H, 'n', 00H, 'g', 00H, ' ', 00H, '<', 00H, ' ', 00H
	DB	'1', 00H, '0', 00H, '0', 00H, '0', 00H, '0', 00H, 00H, 00H ; `string'
CONST	ENDS
;	COMDAT ??_C@_1HE@GIGKOHOC@?$AAb?$AAc?$AAs?$AA?9?$AA?$DO?$AAc?$AAo?$AAm?$AAm?$AAa?$AAn?$AAd?$AA?$DN?$AA?$DN?$AAB?$AAu?$AAf?$AAf?$AAe?$AAr?$AAe?$AAd?$AAC?$AAo?$AAm?$AAm?$AAa?$AAn?$AAd?$AAS?$AAt?$AAr@
CONST	SEGMENT
??_C@_1HE@GIGKOHOC@?$AAb?$AAc?$AAs?$AA?9?$AA?$DO?$AAc?$AAo?$AAm?$AAm?$AAa?$AAn?$AAd?$AA?$DN?$AA?$DN?$AAB?$AAu?$AAf?$AAf?$AAe?$AAr?$AAe?$AAd?$AAC?$AAo?$AAm?$AAm?$AAa?$AAn?$AAd?$AAS?$AAt?$AAr@ DB 'b'
	DB	00H, 'c', 00H, 's', 00H, '-', 00H, '>', 00H, 'c', 00H, 'o', 00H
	DB	'm', 00H, 'm', 00H, 'a', 00H, 'n', 00H, 'd', 00H, '=', 00H, '='
	DB	00H, 'B', 00H, 'u', 00H, 'f', 00H, 'f', 00H, 'e', 00H, 'r', 00H
	DB	'e', 00H, 'd', 00H, 'C', 00H, 'o', 00H, 'm', 00H, 'm', 00H, 'a'
	DB	00H, 'n', 00H, 'd', 00H, 'S', 00H, 't', 00H, 'r', 00H, 'u', 00H
	DB	'c', 00H, 't', 00H, ':', 00H, ':', 00H, 'B', 00H, 'C', 00H, 'S'
	DB	00H, '_', 00H, 'C', 00H, 'L', 00H, 'O', 00H, 'S', 00H, 'E', 00H
	DB	'_', 00H, 'C', 00H, 'O', 00H, 'N', 00H, 'N', 00H, 'E', 00H, 'C'
	DB	00H, 'T', 00H, 'I', 00H, 'O', 00H, 'N', 00H, 00H, 00H ; `string'
CONST	ENDS
;	COMDAT ?__LINE__Var@?1??RunUpdateCycle@RakPeer@@IAE_NXZ@4JA
_DATA	SEGMENT
?__LINE__Var@?1??RunUpdateCycle@RakPeer@@IAE_NXZ@4JA DD 0107dH ; `RakPeer::RunUpdateCycle'::`2'::__LINE__Var
_DATA	ENDS
;	COMDAT ??_C@_1HO@KBDHKDHK@?$AAr?$AAc?$AAs?$AA?9?$AA?$DO?$AAa?$AAc?$AAt?$AAi?$AAo?$AAn?$AAT?$AAo?$AAT?$AAa?$AAk?$AAe?$AA?$DN?$AA?$DN?$AAR?$AAa?$AAk?$AAP?$AAe?$AAe?$AAr?$AA?3?$AA?3?$AAR?$AAe?$AAq?$AAu@
CONST	SEGMENT
??_C@_1HO@KBDHKDHK@?$AAr?$AAc?$AAs?$AA?9?$AA?$DO?$AAa?$AAc?$AAt?$AAi?$AAo?$AAn?$AAT?$AAo?$AAT?$AAa?$AAk?$AAe?$AA?$DN?$AA?$DN?$AAR?$AAa?$AAk?$AAP?$AAe?$AAe?$AAr?$AA?3?$AA?3?$AAR?$AAe?$AAq?$AAu@ DB 'r'
	DB	00H, 'c', 00H, 's', 00H, '-', 00H, '>', 00H, 'a', 00H, 'c', 00H
	DB	't', 00H, 'i', 00H, 'o', 00H, 'n', 00H, 'T', 00H, 'o', 00H, 'T'
	DB	00H, 'a', 00H, 'k', 00H, 'e', 00H, '=', 00H, '=', 00H, 'R', 00H
	DB	'a', 00H, 'k', 00H, 'P', 00H, 'e', 00H, 'e', 00H, 'r', 00H, ':'
	DB	00H, ':', 00H, 'R', 00H, 'e', 00H, 'q', 00H, 'u', 00H, 'e', 00H
	DB	's', 00H, 't', 00H, 'e', 00H, 'd', 00H, 'C', 00H, 'o', 00H, 'n'
	DB	00H, 'n', 00H, 'e', 00H, 'c', 00H, 't', 00H, 'i', 00H, 'o', 00H
	DB	'n', 00H, 'S', 00H, 't', 00H, 'r', 00H, 'u', 00H, 'c', 00H, 't'
	DB	00H, ':', 00H, ':', 00H, 'C', 00H, 'O', 00H, 'N', 00H, 'N', 00H
	DB	'E', 00H, 'C', 00H, 'T', 00H, 00H, 00H	; `string'
CONST	ENDS
;	COMDAT ?__LINE__Var@?1??ProcessNetworkPacket@@YGXIGPBDHPAVRakPeer@@@Z@4JA
_DATA	SEGMENT
?__LINE__Var@?1??ProcessNetworkPacket@@YGXIGPBDHPAVRakPeer@@@Z@4JA DD 0f1fH ; `ProcessNetworkPacket'::`2'::__LINE__Var
_DATA	ENDS
;	COMDAT ??_C@_1BE@LOOBMGDN@?$AAb?$AAc?$AAs?$AA?9?$AA?$DO?$AAd?$AAa?$AAt?$AAa?$AA?$AA@
CONST	SEGMENT
??_C@_1BE@LOOBMGDN@?$AAb?$AAc?$AAs?$AA?9?$AA?$DO?$AAd?$AAa?$AAt?$AAa?$AA?$AA@ DB 'b'
	DB	00H, 'c', 00H, 's', 00H, '-', 00H, '>', 00H, 'd', 00H, 'a', 00H
	DB	't', 00H, 'a', 00H, 00H, 00H			; `string'
CONST	ENDS
;	COMDAT ?__LINE__Var@?1??SendBuffered@RakPeer@@IAEXPBDHW4PacketPriority@@W4PacketReliability@@DUPlayerID@@_NW4ConnectMode@RemoteSystemStruct@2@@Z@4JA
_DATA	SEGMENT
?__LINE__Var@?1??SendBuffered@RakPeer@@IAEXPBDHW4PacketPriority@@W4PacketReliability@@DUPlayerID@@_NW4ConnectMode@RemoteSystemStruct@2@@Z@4JA DD 0da7H ; `RakPeer::SendBuffered'::`2'::__LINE__Var
_DATA	ENDS
;	COMDAT ?__LINE__Var@?1??CloseConnectionInternal@RakPeer@@IAEXUPlayerID@@_N1E@Z@4JA
_DATA	SEGMENT
?__LINE__Var@?1??CloseConnectionInternal@RakPeer@@IAEXUPlayerID@@_N1E@Z@4JA DD 0d4fH ; `RakPeer::CloseConnectionInternal'::`2'::__LINE__Var
_DATA	ENDS
;	COMDAT ?__LINE__Var@?1??HandleRPCPacket@RakPeer@@IAE_NPBDHUPlayerID@@@Z@4JA
_DATA	SEGMENT
?__LINE__Var@?1??HandleRPCPacket@RakPeer@@IAE_NPBDHUPlayerID@@@Z@4JA DD 0b62H ; `RakPeer::HandleRPCPacket'::`2'::__LINE__Var
_DATA	ENDS
;	COMDAT ??_C@_19MLBBEMBH@?$AAd?$AAa?$AAt?$AAa?$AA?$AA@
CONST	SEGMENT
??_C@_19MLBBEMBH@?$AAd?$AAa?$AAt?$AAa?$AA?$AA@ DB 'd', 00H, 'a', 00H, 't', 00H
	DB	'a', 00H, 00H, 00H				; `string'
CONST	ENDS
;	COMDAT ??_C@_1BG@FGPJADG@?$AAI?$AAs?$AAA?$AAc?$AAt?$AAi?$AAv?$AAe?$AA?$CI?$AA?$CJ?$AA?$AA@
CONST	SEGMENT
??_C@_1BG@FGPJADG@?$AAI?$AAs?$AAA?$AAc?$AAt?$AAi?$AAv?$AAe?$AA?$CI?$AA?$CJ?$AA?$AA@ DB 'I'
	DB	00H, 's', 00H, 'A', 00H, 'c', 00H, 't', 00H, 'i', 00H, 'v', 00H
	DB	'e', 00H, '(', 00H, ')', 00H, 00H, 00H	; `string'
CONST	ENDS
;	COMDAT ?__LINE__Var@?1??ShiftIncomingTimestamp@RakPeer@@IBEXPAEUPlayerID@@@Z@4JA
_DATA	SEGMENT
?__LINE__Var@?1??ShiftIncomingTimestamp@RakPeer@@IBEXPAEUPlayerID@@@Z@4JA DD 0b26H ; `RakPeer::ShiftIncomingTimestamp'::`2'::__LINE__Var
_DATA	ENDS
;	COMDAT ??_C@_1DO@FONFJDEJ@?$AAp?$AAl?$AAa?$AAy?$AAe?$AAr?$AAI?$AAd?$AA?$CB?$AA?$DN?$AAU?$AAN?$AAA?$AAS?$AAS?$AAI?$AAG?$AAN?$AAE?$AAD?$AA_?$AAP?$AAL?$AAA?$AAY?$AAE?$AAR?$AA_?$AAI?$AAD?$AA?$AA@
CONST	SEGMENT
??_C@_1DO@FONFJDEJ@?$AAp?$AAl?$AAa?$AAy?$AAe?$AAr?$AAI?$AAd?$AA?$CB?$AA?$DN?$AAU?$AAN?$AAA?$AAS?$AAS?$AAI?$AAG?$AAN?$AAE?$AAD?$AA_?$AAP?$AAL?$AAA?$AAY?$AAE?$AAR?$AA_?$AAI?$AAD?$AA?$AA@ DB 'p'
	DB	00H, 'l', 00H, 'a', 00H, 'y', 00H, 'e', 00H, 'r', 00H, 'I', 00H
	DB	'd', 00H, '!', 00H, '=', 00H, 'U', 00H, 'N', 00H, 'A', 00H, 'S'
	DB	00H, 'S', 00H, 'I', 00H, 'G', 00H, 'N', 00H, 'E', 00H, 'D', 00H
	DB	'_', 00H, 'P', 00H, 'L', 00H, 'A', 00H, 'Y', 00H, 'E', 00H, 'R'
	DB	00H, '_', 00H, 'I', 00H, 'D', 00H, 00H, 00H	; `string'
CONST	ENDS
;	COMDAT ?__LINE__Var@?1??AssignPlayerIDToRemoteSystemList@RakPeer@@IAEPAURemoteSystemStruct@2@UPlayerID@@W4ConnectMode@32@@Z@4JA
_DATA	SEGMENT
?__LINE__Var@?1??AssignPlayerIDToRemoteSystemList@RakPeer@@IAEPAURemoteSystemStruct@2@UPlayerID@@W4ConnectMode@32@@Z@4JA DD 0aebH ; `RakPeer::AssignPlayerIDToRemoteSystemList'::`2'::__LINE__Var
_DATA	ENDS
;	COMDAT ??_C@_1IO@IHOLNDOE@?$AAr?$AAe?$AAm?$AAo?$AAt?$AAe?$AAS?$AAy?$AAs?$AAt?$AAe?$AAm?$AAL?$AAi?$AAs?$AAt?$AA?$FL?$AA?5?$AAr?$AAe?$AAm?$AAo?$AAt?$AAe?$AAS?$AAy?$AAs?$AAt?$AAe?$AAm?$AAL?$AAo@
CONST	SEGMENT
??_C@_1IO@IHOLNDOE@?$AAr?$AAe?$AAm?$AAo?$AAt?$AAe?$AAS?$AAy?$AAs?$AAt?$AAe?$AAm?$AAL?$AAi?$AAs?$AAt?$AA?$FL?$AA?5?$AAr?$AAe?$AAm?$AAo?$AAt?$AAe?$AAS?$AAy?$AAs?$AAt?$AAe?$AAm?$AAL?$AAo@ DB 'r'
	DB	00H, 'e', 00H, 'm', 00H, 'o', 00H, 't', 00H, 'e', 00H, 'S', 00H
	DB	'y', 00H, 's', 00H, 't', 00H, 'e', 00H, 'm', 00H, 'L', 00H, 'i'
	DB	00H, 's', 00H, 't', 00H, '[', 00H, ' ', 00H, 'r', 00H, 'e', 00H
	DB	'm', 00H, 'o', 00H, 't', 00H, 'e', 00H, 'S', 00H, 'y', 00H, 's'
	DB	00H, 't', 00H, 'e', 00H, 'm', 00H, 'L', 00H, 'o', 00H, 'o', 00H
	DB	'k', 00H, 'u', 00H, 'p', 00H, '[', 00H, 'i', 00H, 'n', 00H, 'd'
	DB	00H, 'e', 00H, 'x', 00H, ']', 00H, '.', 00H, 'i', 00H, 'n', 00H
	DB	'd', 00H, 'e', 00H, 'x', 00H, ' ', 00H, ']', 00H, '.', 00H, 'p'
	DB	00H, 'l', 00H, 'a', 00H, 'y', 00H, 'e', 00H, 'r', 00H, 'I', 00H
	DB	'd', 00H, '=', 00H, '=', 00H, 'p', 00H, 'l', 00H, 'a', 00H, 'y'
	DB	00H, 'e', 00H, 'r', 00H, 'I', 00H, 'D', 00H, 00H, 00H ; `string'
CONST	ENDS
;	COMDAT ?__LINE__Var@?1??GetRemoteSystemFromPlayerID@RakPeer@@IBEPAURemoteSystemStruct@2@UPlayerID@@_N1@Z@4JA
_DATA	SEGMENT
?__LINE__Var@?1??GetRemoteSystemFromPlayerID@RakPeer@@IBEPAURemoteSystemStruct@2@UPlayerID@@_N1@Z@4JA DD 0a27H ; `RakPeer::GetRemoteSystemFromPlayerID'::`2'::__LINE__Var
_DATA	ENDS
;	COMDAT ??_C@_1DE@MHEPBEIO@?$AAp?$AAa?$AAs?$AAs?$AAw?$AAo?$AAr?$AAd?$AAD?$AAa?$AAt?$AAa?$AAL?$AAe?$AAn?$AAg?$AAt?$AAh?$AA?5?$AA?$DM?$AA?$DN?$AA?5?$AA2?$AA5?$AA6?$AA?$AA@
CONST	SEGMENT
??_C@_1DE@MHEPBEIO@?$AAp?$AAa?$AAs?$AAs?$AAw?$AAo?$AAr?$AAd?$AAD?$AAa?$AAt?$AAa?$AAL?$AAe?$AAn?$AAg?$AAt?$AAh?$AA?5?$AA?$DM?$AA?$DN?$AA?5?$AA2?$AA5?$AA6?$AA?$AA@ DB 'p'
	DB	00H, 'a', 00H, 's', 00H, 's', 00H, 'w', 00H, 'o', 00H, 'r', 00H
	DB	'd', 00H, 'D', 00H, 'a', 00H, 't', 00H, 'a', 00H, 'L', 00H, 'e'
	DB	00H, 'n', 00H, 'g', 00H, 't', 00H, 'h', 00H, ' ', 00H, '<', 00H
	DB	'=', 00H, ' ', 00H, '2', 00H, '5', 00H, '6', 00H, 00H, 00H ; `string'
CONST	ENDS
;	COMDAT ?__LINE__Var@?1??SendConnectionRequest@RakPeer@@IAE_NPBDGPADH@Z@4JA
_DATA	SEGMENT
?__LINE__Var@?1??SendConnectionRequest@RakPeer@@IAE_NPBDGPADH@Z@4JA DD 09fcH ; `RakPeer::SendConnectionRequest'::`2'::__LINE__Var
_DATA	ENDS
;	COMDAT ??_C@_1IK@PCGACABH@?$AAr?$AAe?$AAm?$AAo?$AAt?$AAe?$AAS?$AAy?$AAs?$AAt?$AAe?$AAm?$AAL?$AAi?$AAs?$AAt?$AA?$FL?$AAr?$AAe?$AAm?$AAo?$AAt?$AAe?$AAS?$AAy?$AAs?$AAt?$AAe?$AAm?$AAL?$AAo?$AAo@
CONST	SEGMENT
??_C@_1IK@PCGACABH@?$AAr?$AAe?$AAm?$AAo?$AAt?$AAe?$AAS?$AAy?$AAs?$AAt?$AAe?$AAm?$AAL?$AAi?$AAs?$AAt?$AA?$FL?$AAr?$AAe?$AAm?$AAo?$AAt?$AAe?$AAS?$AAy?$AAs?$AAt?$AAe?$AAm?$AAL?$AAo?$AAo@ DB 'r'
	DB	00H, 'e', 00H, 'm', 00H, 'o', 00H, 't', 00H, 'e', 00H, 'S', 00H
	DB	'y', 00H, 's', 00H, 't', 00H, 'e', 00H, 'm', 00H, 'L', 00H, 'i'
	DB	00H, 's', 00H, 't', 00H, '[', 00H, 'r', 00H, 'e', 00H, 'm', 00H
	DB	'o', 00H, 't', 00H, 'e', 00H, 'S', 00H, 'y', 00H, 's', 00H, 't'
	DB	00H, 'e', 00H, 'm', 00H, 'L', 00H, 'o', 00H, 'o', 00H, 'k', 00H
	DB	'u', 00H, 'p', 00H, '[', 00H, 'i', 00H, 'n', 00H, 'd', 00H, 'e'
	DB	00H, 'x', 00H, ']', 00H, '.', 00H, 'i', 00H, 'n', 00H, 'd', 00H
	DB	'e', 00H, 'x', 00H, ']', 00H, '.', 00H, 'p', 00H, 'l', 00H, 'a'
	DB	00H, 'y', 00H, 'e', 00H, 'r', 00H, 'I', 00H, 'd', 00H, '=', 00H
	DB	'=', 00H, 'p', 00H, 'l', 00H, 'a', 00H, 'y', 00H, 'e', 00H, 'r'
	DB	00H, 'I', 00H, 'd', 00H, 00H, 00H		; `string'
CONST	ENDS
;	COMDAT ?__LINE__Var@?1??GetIndexFromPlayerID@RakPeer@@IAEHUPlayerID@@_N@Z@4JA
_DATA	SEGMENT
?__LINE__Var@?1??GetIndexFromPlayerID@RakPeer@@IAEHUPlayerID@@_N@Z@4JA DD 09ddH ; `RakPeer::GetIndexFromPlayerID'::`2'::__LINE__Var
_DATA	ENDS
;	COMDAT ??_C@_1O@HMOJLPKG@?$AAp?$AAa?$AAc?$AAk?$AAe?$AAt?$AA?$AA@
CONST	SEGMENT
??_C@_1O@HMOJLPKG@?$AAp?$AAa?$AAc?$AAk?$AAe?$AAt?$AA?$AA@ DB 'p', 00H, 'a'
	DB	00H, 'c', 00H, 'k', 00H, 'e', 00H, 't', 00H, 00H, 00H ; `string'
CONST	ENDS
;	COMDAT ?__LINE__Var@?1??PushBackPacket@RakPeer@@UAEXPAUPacket@@_N@Z@4JA
_DATA	SEGMENT
?__LINE__Var@?1??PushBackPacket@RakPeer@@UAEXPAUPacket@@_N@Z@4JA DD 095cH ; `RakPeer::PushBackPacket'::`2'::__LINE__Var
_DATA	ENDS
;	COMDAT ??_C@_1BK@MHECFOMI@?$AAt?$AAi?$AAm?$AAe?$AAo?$AAu?$AAt?$AAM?$AAS?$AA?$DO?$AA?$DN?$AA0?$AA?$AA@
CONST	SEGMENT
??_C@_1BK@MHECFOMI@?$AAt?$AAi?$AAm?$AAe?$AAo?$AAu?$AAt?$AAM?$AAS?$AA?$DO?$AA?$DN?$AA0?$AA?$AA@ DB 't'
	DB	00H, 'i', 00H, 'm', 00H, 'e', 00H, 'o', 00H, 'u', 00H, 't', 00H
	DB	'M', 00H, 'S', 00H, '>', 00H, '=', 00H, '0', 00H, 00H, 00H ; `string'
CONST	ENDS
;	COMDAT ?__LINE__Var@?1??SetUnreliableTimeout@RakPeer@@UAEXI@Z@4JA
_DATA	SEGMENT
?__LINE__Var@?1??SetUnreliableTimeout@RakPeer@@UAEXI@Z@4JA DD 0897H ; `RakPeer::SetUnreliableTimeout'::`2'::__LINE__Var
_DATA	ENDS
;	COMDAT ??_C@_1BI@DGKOLLFG@?$AAi?$AAn?$AAt?$AAe?$AAr?$AAv?$AAa?$AAl?$AA?$DO?$AA?$DN?$AA0?$AA?$AA@
CONST	SEGMENT
??_C@_1BI@DGKOLLFG@?$AAi?$AAn?$AAt?$AAe?$AAr?$AAv?$AAa?$AAl?$AA?$DO?$AA?$DN?$AA0?$AA?$AA@ DB 'i'
	DB	00H, 'n', 00H, 't', 00H, 'e', 00H, 'r', 00H, 'v', 00H, 'a', 00H
	DB	'l', 00H, '>', 00H, '=', 00H, '0', 00H, 00H, 00H ; `string'
CONST	ENDS
;	COMDAT ?__LINE__Var@?1??SetSplitMessageProgressInterval@RakPeer@@UAEXH@Z@4JA
_DATA	SEGMENT
?__LINE__Var@?1??SetSplitMessageProgressInterval@RakPeer@@UAEXH@Z@4JA DD 0889H ; `RakPeer::SetSplitMessageProgressInterval'::`2'::__LINE__Var
_DATA	ENDS
;	COMDAT ??_C@_1BM@DNMMOAPD@?$AAd?$AAa?$AAt?$AAa?$AAL?$AAe?$AAn?$AAg?$AAt?$AAh?$AA?$DO?$AA?$DN?$AA0?$AA?$AA@
CONST	SEGMENT
??_C@_1BM@DNMMOAPD@?$AAd?$AAa?$AAt?$AAa?$AAL?$AAe?$AAn?$AAg?$AAt?$AAh?$AA?$DO?$AA?$DN?$AA0?$AA?$AA@ DB 'd'
	DB	00H, 'a', 00H, 't', 00H, 'a', 00H, 'L', 00H, 'e', 00H, 'n', 00H
	DB	'g', 00H, 't', 00H, 'h', 00H, '>', 00H, '=', 00H, '0', 00H, 00H
	DB	00H						; `string'
CONST	ENDS
;	COMDAT ??_C@_1EM@PPGDKCEI@?$AAd?$AAa?$AAt?$AAa?$AAL?$AAe?$AAn?$AAg?$AAt?$AAh?$AA?5?$AA?$DM?$AA?$DN?$AA?5?$AAM?$AAA?$AAX?$AA_?$AAO?$AAF?$AAF?$AAL?$AAI?$AAN?$AAE?$AA_?$AAD?$AAA?$AAT?$AAA?$AA_?$AAL@
CONST	SEGMENT
??_C@_1EM@PPGDKCEI@?$AAd?$AAa?$AAt?$AAa?$AAL?$AAe?$AAn?$AAg?$AAt?$AAh?$AA?5?$AA?$DM?$AA?$DN?$AA?5?$AAM?$AAA?$AAX?$AA_?$AAO?$AAF?$AAF?$AAL?$AAI?$AAN?$AAE?$AA_?$AAD?$AAA?$AAT?$AAA?$AA_?$AAL@ DB 'd'
	DB	00H, 'a', 00H, 't', 00H, 'a', 00H, 'L', 00H, 'e', 00H, 'n', 00H
	DB	'g', 00H, 't', 00H, 'h', 00H, ' ', 00H, '<', 00H, '=', 00H, ' '
	DB	00H, 'M', 00H, 'A', 00H, 'X', 00H, '_', 00H, 'O', 00H, 'F', 00H
	DB	'F', 00H, 'L', 00H, 'I', 00H, 'N', 00H, 'E', 00H, '_', 00H, 'D'
	DB	00H, 'A', 00H, 'T', 00H, 'A', 00H, '_', 00H, 'L', 00H, 'E', 00H
	DB	'N', 00H, 'G', 00H, 'T', 00H, 'H', 00H, 00H, 00H ; `string'
CONST	ENDS
;	COMDAT ?__LINE__Var@?1??AdvertiseSystem@RakPeer@@UAEXPBDG0H@Z@4JA
_DATA	SEGMENT
?__LINE__Var@?1??AdvertiseSystem@RakPeer@@UAEXPBDG0H@Z@4JA DD 0833H ; `RakPeer::AdvertiseSystem'::`2'::__LINE__Var
_DATA	ENDS
;	COMDAT ??_C@_1BK@PNPFLKAA@?$AAl?$AAe?$AAn?$AAg?$AAt?$AAh?$AA?5?$AA?$DM?$AA?5?$AA4?$AA0?$AA0?$AA?$AA@
CONST	SEGMENT
??_C@_1BK@PNPFLKAA@?$AAl?$AAe?$AAn?$AAg?$AAt?$AAh?$AA?5?$AA?$DM?$AA?5?$AA4?$AA0?$AA0?$AA?$AA@ DB 'l'
	DB	00H, 'e', 00H, 'n', 00H, 'g', 00H, 't', 00H, 'h', 00H, ' ', 00H
	DB	'<', 00H, ' ', 00H, '4', 00H, '0', 00H, '0', 00H, 00H, 00H ; `string'
CONST	ENDS
;	COMDAT ?__LINE__Var@?1??SetOfflinePingResponse@RakPeer@@UAEXPBDI@Z@4JA
_DATA	SEGMENT
?__LINE__Var@?1??SetOfflinePingResponse@RakPeer@@UAEXPBDI@Z@4JA DD 0767H ; `RakPeer::SetOfflinePingResponse'::`2'::__LINE__Var
_DATA	ENDS
;	COMDAT ??_C@_1FI@DAMMCKDJ@?$AAo?$AAr?$AAd?$AAe?$AAr?$AAi?$AAn?$AAg?$AAC?$AAh?$AAa?$AAn?$AAn?$AAe?$AAl?$AA?5?$AA?$DO?$AA?$DN?$AA0?$AA?5?$AA?$CG?$AA?$CG?$AA?5?$AAo?$AAr?$AAd?$AAe?$AAr?$AAi?$AAn?$AAg?$AAC@
CONST	SEGMENT
??_C@_1FI@DAMMCKDJ@?$AAo?$AAr?$AAd?$AAe?$AAr?$AAi?$AAn?$AAg?$AAC?$AAh?$AAa?$AAn?$AAn?$AAe?$AAl?$AA?5?$AA?$DO?$AA?$DN?$AA0?$AA?5?$AA?$CG?$AA?$CG?$AA?5?$AAo?$AAr?$AAd?$AAe?$AAr?$AAi?$AAn?$AAg?$AAC@ DB 'o'
	DB	00H, 'r', 00H, 'd', 00H, 'e', 00H, 'r', 00H, 'i', 00H, 'n', 00H
	DB	'g', 00H, 'C', 00H, 'h', 00H, 'a', 00H, 'n', 00H, 'n', 00H, 'e'
	DB	00H, 'l', 00H, ' ', 00H, '>', 00H, '=', 00H, '0', 00H, ' ', 00H
	DB	'&', 00H, '&', 00H, ' ', 00H, 'o', 00H, 'r', 00H, 'd', 00H, 'e'
	DB	00H, 'r', 00H, 'i', 00H, 'n', 00H, 'g', 00H, 'C', 00H, 'h', 00H
	DB	'a', 00H, 'n', 00H, 'n', 00H, 'e', 00H, 'l', 00H, ' ', 00H, '<'
	DB	00H, ' ', 00H, '3', 00H, '2', 00H, 00H, 00H	; `string'
CONST	ENDS
;	COMDAT ??_C@_1DE@MNMFCGFF@?$AAu?$AAn?$AAi?$AAq?$AAu?$AAe?$AAI?$AAD?$AA?5?$AA?$CG?$AA?$CG?$AA?5?$AAu?$AAn?$AAi?$AAq?$AAu?$AAe?$AAI?$AAD?$AA?$FL?$AA?5?$AA0?$AA?5?$AA?$FN?$AA?$AA@
CONST	SEGMENT
??_C@_1DE@MNMFCGFF@?$AAu?$AAn?$AAi?$AAq?$AAu?$AAe?$AAI?$AAD?$AA?5?$AA?$CG?$AA?$CG?$AA?5?$AAu?$AAn?$AAi?$AAq?$AAu?$AAe?$AAI?$AAD?$AA?$FL?$AA?5?$AA0?$AA?5?$AA?$FN?$AA?$AA@ DB 'u'
	DB	00H, 'n', 00H, 'i', 00H, 'q', 00H, 'u', 00H, 'e', 00H, 'I', 00H
	DB	'D', 00H, ' ', 00H, '&', 00H, '&', 00H, ' ', 00H, 'u', 00H, 'n'
	DB	00H, 'i', 00H, 'q', 00H, 'u', 00H, 'e', 00H, 'I', 00H, 'D', 00H
	DB	'[', 00H, ' ', 00H, '0', 00H, ' ', 00H, ']', 00H, 00H, 00H ; `string'
CONST	ENDS
;	COMDAT ?__LINE__Var@?1??RPC@RakPeer@@UAE_NPADPBDIW4PacketPriority@@W4PacketReliability@@DUPlayerID@@_N5UNetworkID@@PAVBitStream@RakNet@@@Z@4JA
_DATA	SEGMENT
?__LINE__Var@?1??RPC@RakPeer@@UAE_NPADPBDIW4PacketPriority@@W4PacketReliability@@DUPlayerID@@_N5UNetworkID@@PAVBitStream@RakNet@@@Z@4JA DD 0488H ; `RakPeer::RPC'::`2'::__LINE__Var
_DATA	ENDS
;	COMDAT ??_C@_1CE@HHNGILKN@?$AAI?$AAs?$AAA?$AAc?$AAt?$AAi?$AAv?$AAe?$AA?$CI?$AA?$CJ?$AA?$DN?$AA?$DN?$AAf?$AAa?$AAl?$AAs?$AAe?$AA?$AA@
CONST	SEGMENT
??_C@_1CE@HHNGILKN@?$AAI?$AAs?$AAA?$AAc?$AAt?$AAi?$AAv?$AAe?$AA?$CI?$AA?$CJ?$AA?$DN?$AA?$DN?$AAf?$AAa?$AAl?$AAs?$AAe?$AA?$AA@ DB 'I'
	DB	00H, 's', 00H, 'A', 00H, 'c', 00H, 't', 00H, 'i', 00H, 'v', 00H
	DB	'e', 00H, '(', 00H, ')', 00H, '=', 00H, '=', 00H, 'f', 00H, 'a'
	DB	00H, 'l', 00H, 's', 00H, 'e', 00H, 00H, 00H	; `string'
CONST	ENDS
;	COMDAT ?__LINE__Var@?1??UnregisterAsRemoteProcedureCall@RakPeer@@UAEXPAD@Z@4JA
_DATA	SEGMENT
?__LINE__Var@?1??UnregisterAsRemoteProcedureCall@RakPeer@@UAEXPAD@Z@4JA DD 044fH ; `RakPeer::UnregisterAsRemoteProcedureCall'::`2'::__LINE__Var
_DATA	ENDS
;	COMDAT ??_C@_1BK@NGDKLLMA@?$AAp?$AAa?$AAc?$AAk?$AAe?$AAt?$AA?9?$AA?$DO?$AAd?$AAa?$AAt?$AAa?$AA?$AA@
CONST	SEGMENT
??_C@_1BK@NGDKLLMA@?$AAp?$AAa?$AAc?$AAk?$AAe?$AAt?$AA?9?$AA?$DO?$AAd?$AAa?$AAt?$AAa?$AA?$AA@ DB 'p'
	DB	00H, 'a', 00H, 'c', 00H, 'k', 00H, 'e', 00H, 't', 00H, '-', 00H
	DB	'>', 00H, 'd', 00H, 'a', 00H, 't', 00H, 'a', 00H, 00H, 00H ; `string'
CONST	ENDS
;	COMDAT ?__LINE__Var@?1??ReceiveIgnoreRPC@RakPeer@@IAEPAUPacket@@XZ@4JA
_DATA	SEGMENT
?__LINE__Var@?1??ReceiveIgnoreRPC@RakPeer@@IAEPAUPacket@@XZ@4JA DD 039fH ; `RakPeer::ReceiveIgnoreRPC'::`2'::__LINE__Var
_DATA	ENDS
;	COMDAT ??_C@_1EM@PPKFOLDM@?$AAb?$AAi?$AAt?$AAS?$AAt?$AAr?$AAe?$AAa?$AAm?$AA?9?$AA?$DO?$AAG?$AAe?$AAt?$AAN?$AAu?$AAm?$AAb?$AAe?$AAr?$AAO?$AAf?$AAB?$AAy?$AAt?$AAe?$AAs?$AAU?$AAs?$AAe?$AAd?$AA?$CI@
CONST	SEGMENT
??_C@_1EM@PPKFOLDM@?$AAb?$AAi?$AAt?$AAS?$AAt?$AAr?$AAe?$AAa?$AAm?$AA?9?$AA?$DO?$AAG?$AAe?$AAt?$AAN?$AAu?$AAm?$AAb?$AAe?$AAr?$AAO?$AAf?$AAB?$AAy?$AAt?$AAe?$AAs?$AAU?$AAs?$AAe?$AAd?$AA?$CI@ DB 'b'
	DB	00H, 'i', 00H, 't', 00H, 'S', 00H, 't', 00H, 'r', 00H, 'e', 00H
	DB	'a', 00H, 'm', 00H, '-', 00H, '>', 00H, 'G', 00H, 'e', 00H, 't'
	DB	00H, 'N', 00H, 'u', 00H, 'm', 00H, 'b', 00H, 'e', 00H, 'r', 00H
	DB	'O', 00H, 'f', 00H, 'B', 00H, 'y', 00H, 't', 00H, 'e', 00H, 's'
	DB	00H, 'U', 00H, 's', 00H, 'e', 00H, 'd', 00H, '(', 00H, ')', 00H
	DB	' ', 00H, '>', 00H, ' ', 00H, '0', 00H, 00H, 00H ; `string'
CONST	ENDS
;	COMDAT ?__LINE__Var@?1??Send@RakPeer@@UAE_NPAVBitStream@RakNet@@W4PacketPriority@@W4PacketReliability@@DUPlayerID@@_N@Z@4JA
_DATA	SEGMENT
?__LINE__Var@?1??Send@RakPeer@@UAE_NPAVBitStream@RakNet@@W4PacketPriority@@W4PacketReliability@@DUPlayerID@@_N@Z@4JA DD 0362H ; `RakPeer::Send'::`2'::__LINE__Var
_DATA	ENDS
;	COMDAT ??_C@_1CG@KMHNBCAF@?$AAd?$AAa?$AAt?$AAa?$AA?5?$AA?$CG?$AA?$CG?$AA?5?$AAl?$AAe?$AAn?$AAg?$AAt?$AAh?$AA?5?$AA?$DO?$AA?5?$AA0?$AA?$AA@
CONST	SEGMENT
??_C@_1CG@KMHNBCAF@?$AAd?$AAa?$AAt?$AAa?$AA?5?$AA?$CG?$AA?$CG?$AA?5?$AAl?$AAe?$AAn?$AAg?$AAt?$AAh?$AA?5?$AA?$DO?$AA?5?$AA0?$AA?$AA@ DB 'd'
	DB	00H, 'a', 00H, 't', 00H, 'a', 00H, ' ', 00H, '&', 00H, '&', 00H
	DB	' ', 00H, 'l', 00H, 'e', 00H, 'n', 00H, 'g', 00H, 't', 00H, 'h'
	DB	00H, ' ', 00H, '>', 00H, ' ', 00H, '0', 00H, 00H, 00H ; `string'
CONST	ENDS
;	COMDAT ?__LINE__Var@?1??Send@RakPeer@@UAE_NPBDHW4PacketPriority@@W4PacketReliability@@DUPlayerID@@_N@Z@4JA
_DATA	SEGMENT
?__LINE__Var@?1??Send@RakPeer@@UAE_NPBDHW4PacketPriority@@W4PacketReliability@@DUPlayerID@@_N@Z@4JA DD 0347H ; `RakPeer::Send'::`2'::__LINE__Var
_DATA	ENDS
;	COMDAT ??_C@_07OHKHACFK@0?40?40?40?$AA@
CONST	SEGMENT
??_C@_07OHKHACFK@0?40?40?40?$AA@ DB '0.0.0.0', 00H	; `string'
CONST	ENDS
;	COMDAT ??_C@_09PFCHIMEP@127?40?40?41?$AA@
CONST	SEGMENT
??_C@_09PFCHIMEP@127?40?40?41?$AA@ DB '127.0.0.1', 00H	; `string'
CONST	ENDS
;	COMDAT ??_C@_13COJANIEC@?$AA0?$AA?$AA@
CONST	SEGMENT
??_C@_13COJANIEC@?$AA0?$AA?$AA@ DB '0', 00H, 00H, 00H	; `string'
CONST	ENDS
;	COMDAT ?__LINE__Var@?1??InitializeSecurity@RakPeer@@UAEXPBD000@Z@4JA
_DATA	SEGMENT
?__LINE__Var@?1??InitializeSecurity@RakPeer@@UAEXPBD000@Z@4JA DD 01a9H ; `RakPeer::InitializeSecurity'::`2'::__LINE__Var
_DATA	ENDS
;	COMDAT ??_C@_1CG@FBMJBJBI@?$AAm?$AAa?$AAx?$AAC?$AAo?$AAn?$AAn?$AAe?$AAc?$AAt?$AAi?$AAo?$AAn?$AAs?$AA?5?$AA?$DO?$AA?5?$AA0?$AA?$AA@
CONST	SEGMENT
??_C@_1CG@FBMJBJBI@?$AAm?$AAa?$AAx?$AAC?$AAo?$AAn?$AAn?$AAe?$AAc?$AAt?$AAi?$AAo?$AAn?$AAs?$AA?5?$AA?$DO?$AA?5?$AA0?$AA?$AA@ DB 'm'
	DB	00H, 'a', 00H, 'x', 00H, 'C', 00H, 'o', 00H, 'n', 00H, 'n', 00H
	DB	'e', 00H, 'c', 00H, 't', 00H, 'i', 00H, 'o', 00H, 'n', 00H, 's'
	DB	00H, ' ', 00H, '>', 00H, ' ', 00H, '0', 00H, 00H, 00H ; `string'
CONST	ENDS
;	COMDAT ??_C@_1EI@HJOFFNLF@?$AAz?$AA?3?$AA?2?$AAs?$AAa?$AAm?$AAp?$AAs?$AAr?$AAc?$AA?2?$AA0?$AA2?$AAx?$AAu?$AA1?$AA?2?$AAr?$AAa?$AAk?$AAn?$AAe?$AAt?$AA?2?$AAr?$AAa?$AAk?$AAp?$AAe?$AAe?$AAr?$AA?4@
CONST	SEGMENT
??_C@_1EI@HJOFFNLF@?$AAz?$AA?3?$AA?2?$AAs?$AAa?$AAm?$AAp?$AAs?$AAr?$AAc?$AA?2?$AA0?$AA2?$AAx?$AAu?$AA1?$AA?2?$AAr?$AAa?$AAk?$AAn?$AAe?$AAt?$AA?2?$AAr?$AAa?$AAk?$AAp?$AAe?$AAe?$AAr?$AA?4@ DB 'z'
	DB	00H, ':', 00H, '\', 00H, 's', 00H, 'a', 00H, 'm', 00H, 'p', 00H
	DB	's', 00H, 'r', 00H, 'c', 00H, '\', 00H, '0', 00H, '2', 00H, 'x'
	DB	00H, 'u', 00H, '1', 00H, '\', 00H, 'r', 00H, 'a', 00H, 'k', 00H
	DB	'n', 00H, 'e', 00H, 't', 00H, '\', 00H, 'r', 00H, 'a', 00H, 'k'
	DB	00H, 'p', 00H, 'e', 00H, 'e', 00H, 'r', 00H, '.', 00H, 'c', 00H
	DB	'p', 00H, 'p', 00H, 00H, 00H			; `string'
CONST	ENDS
;	COMDAT ?__LINE__Var@?1??Initialize@RakPeer@@UAE_NGGHPBD@Z@4JA
_DATA	SEGMENT
?__LINE__Var@?1??Initialize@RakPeer@@UAE_NGGHPBD@Z@4JA DD 0efH ; `RakPeer::Initialize'::`2'::__LINE__Var
_DATA	ENDS
;	COMDAT ??_7RakPeer@@6B@
CONST	SEGMENT
??_7RakPeer@@6B@ DD FLAT:??_R4RakPeer@@6B@		; RakPeer::`vftable'
	DD	FLAT:??_ERakPeer@@UAEPAXI@Z
	DD	FLAT:?Initialize@RakPeer@@UAE_NGGHPBD@Z
	DD	FLAT:?InitializeSecurity@RakPeer@@UAEXPBD000@Z
	DD	FLAT:?DisableSecurity@RakPeer@@UAEXXZ
	DD	FLAT:?SetMaximumIncomingConnections@RakPeer@@UAEXG@Z
	DD	FLAT:?GetMaximumIncomingConnections@RakPeer@@UBEGXZ
	DD	FLAT:?SetIncomingPassword@RakPeer@@UAEXPBDH@Z
	DD	FLAT:?GetIncomingPassword@RakPeer@@UAEXPADPAH@Z
	DD	FLAT:?Connect@RakPeer@@UAE_NPBDGPADH@Z
	DD	FLAT:?Disconnect@RakPeer@@UAEXIE@Z
	DD	FLAT:?IsActive@RakPeer@@UBE_NXZ
	DD	FLAT:?GetConnectionList@RakPeer@@UBE_NPAUPlayerID@@PAG@Z
	DD	FLAT:?Send@RakPeer@@UAE_NPAVBitStream@RakNet@@W4PacketPriority@@W4PacketReliability@@DUPlayerID@@_N@Z
	DD	FLAT:?Send@RakPeer@@UAE_NPBDHW4PacketPriority@@W4PacketReliability@@DUPlayerID@@_N@Z
	DD	FLAT:?Receive@RakPeer@@UAEPAUPacket@@XZ
	DD	FLAT:?DeallocatePacket@RakPeer@@UAEXPAUPacket@@@Z
	DD	FLAT:?GetMaximumNumberOfPeers@RakPeer@@UBEGXZ
	DD	FLAT:?RegisterAsRemoteProcedureCall@RakPeer@@UAEXPADP6AXPAURPCParameters@@@Z@Z
	DD	FLAT:?RegisterClassMemberRPC@RakPeer@@UAEXPADPAX@Z
	DD	FLAT:?UnregisterAsRemoteProcedureCall@RakPeer@@UAEXPAD@Z
	DD	FLAT:?RPC@RakPeer@@UAE_NPADPAVBitStream@RakNet@@W4PacketPriority@@W4PacketReliability@@DUPlayerID@@_N5UNetworkID@@1@Z
	DD	FLAT:?RPC@RakPeer@@UAE_NPADPBDIW4PacketPriority@@W4PacketReliability@@DUPlayerID@@_N5UNetworkID@@PAVBitStream@RakNet@@@Z
	DD	FLAT:?CloseConnection@RakPeer@@UAEXUPlayerID@@_NE@Z
	DD	FLAT:?GetIndexFromPlayerID@RakPeer@@UAEHUPlayerID@@@Z
	DD	FLAT:?GetPlayerIDFromIndex@RakPeer@@UAE?AUPlayerID@@H@Z
	DD	FLAT:?AddToBanList@RakPeer@@UAEXPBDI@Z
	DD	FLAT:?RemoveFromBanList@RakPeer@@UAEXPBD@Z
	DD	FLAT:?ClearBanList@RakPeer@@UAEXXZ
	DD	FLAT:?IsBanned@RakPeer@@UAE_NPBD@Z
	DD	FLAT:?Ping@RakPeer@@UAEXPBDG_N@Z
	DD	FLAT:?Ping@RakPeer@@UAEXUPlayerID@@@Z
	DD	FLAT:?GetAveragePing@RakPeer@@UAEHUPlayerID@@@Z
	DD	FLAT:?GetLastPing@RakPeer@@UBEHUPlayerID@@@Z
	DD	FLAT:?GetLowestPing@RakPeer@@UBEHUPlayerID@@@Z
	DD	FLAT:?SetOccasionalPing@RakPeer@@UAEX_N@Z
	DD	FLAT:?GetRemoteStaticData@RakPeer@@UAEPAVBitStream@RakNet@@UPlayerID@@@Z
	DD	FLAT:?SetRemoteStaticData@RakPeer@@UAEXUPlayerID@@PBDH@Z
	DD	FLAT:?SendStaticData@RakPeer@@UAEXUPlayerID@@@Z
	DD	FLAT:?SetOfflinePingResponse@RakPeer@@UAEXPBDI@Z
	DD	FLAT:?GetInternalID@RakPeer@@UBE?AUPlayerID@@XZ
	DD	FLAT:?GetExternalID@RakPeer@@UBE?AUPlayerID@@U2@@Z
	DD	FLAT:?SetTimeoutTime@RakPeer@@UAEXIUPlayerID@@@Z
	DD	FLAT:?SetMTUSize@RakPeer@@UAE_NH@Z
	DD	FLAT:?GetMTUSize@RakPeer@@UBEHXZ
	DD	FLAT:?GetNumberOfAddresses@RakPeer@@UAEIXZ
	DD	FLAT:?GetLocalIP@RakPeer@@UAEPBDI@Z
	DD	FLAT:?PlayerIDToDottedIP@RakPeer@@UBEPBDUPlayerID@@@Z
	DD	FLAT:?IPToPlayerID@RakPeer@@UAEXPBDGPAUPlayerID@@@Z
	DD	FLAT:?AllowConnectionResponseIPMigration@RakPeer@@UAEX_N@Z
	DD	FLAT:?AdvertiseSystem@RakPeer@@UAEXPBDG0H@Z
	DD	FLAT:?SetSplitMessageProgressInterval@RakPeer@@UAEXH@Z
	DD	FLAT:?SetUnreliableTimeout@RakPeer@@UAEXI@Z
	DD	FLAT:?SetCompileFrequencyTable@RakPeer@@UAEX_N@Z
	DD	FLAT:?GetOutgoingFrequencyTable@RakPeer@@UAE_NQAI@Z
	DD	FLAT:?GenerateCompressionLayer@RakPeer@@UAE_NQAI_N@Z
	DD	FLAT:?DeleteCompressionLayer@RakPeer@@UAE_N_N@Z
	DD	FLAT:?GetCompressionRatio@RakPeer@@UBEMXZ
	DD	FLAT:?GetDecompressionRatio@RakPeer@@UBEMXZ
	DD	FLAT:?AttachPlugin@RakPeer@@UAEXPAVPluginInterface@@@Z
	DD	FLAT:?DetachPlugin@RakPeer@@UAEXPAVPluginInterface@@@Z
	DD	FLAT:?PushBackPacket@RakPeer@@UAEXPAUPacket@@_N@Z
	DD	FLAT:?SetRouterInterface@RakPeer@@UAEXPAVRouterInterface@@@Z
	DD	FLAT:?RemoveRouterInterface@RakPeer@@UAEXPAVRouterInterface@@@Z
	DD	FLAT:?ApplyNetworkSimulator@RakPeer@@UAEXNGG@Z
	DD	FLAT:?IsNetworkSimulatorActive@RakPeer@@UAE_NXZ
	DD	FLAT:?GetStatistics@RakPeer@@UAEQAURakNetStatisticsStruct@@UPlayerID@@@Z
	DD	FLAT:?GetRPCMap@RakPeer@@UAEPAURPCMap@@UPlayerID@@@Z
CONST	ENDS
;	COMDAT ??_7RakPeerInterface@@6B@
CONST	SEGMENT
??_7RakPeerInterface@@6B@ DD FLAT:??_R4RakPeerInterface@@6B@ ; RakPeerInterface::`vftable'
	DD	FLAT:??_ERakPeerInterface@@UAEPAXI@Z
	DD	FLAT:__purecall
	DD	FLAT:__purecall
	DD	FLAT:__purecall
	DD	FLAT:__purecall
	DD	FLAT:__purecall
	DD	FLAT:__purecall
	DD	FLAT:__purecall
	DD	FLAT:__purecall
	DD	FLAT:__purecall
	DD	FLAT:__purecall
	DD	FLAT:__purecall
	DD	FLAT:__purecall
	DD	FLAT:__purecall
	DD	FLAT:__purecall
	DD	FLAT:__purecall
	DD	FLAT:__purecall
	DD	FLAT:__purecall
	DD	FLAT:__purecall
	DD	FLAT:__purecall
	DD	FLAT:__purecall
	DD	FLAT:__purecall
	DD	FLAT:__purecall
	DD	FLAT:__purecall
	DD	FLAT:__purecall
	DD	FLAT:__purecall
	DD	FLAT:__purecall
	DD	FLAT:__purecall
	DD	FLAT:__purecall
	DD	FLAT:__purecall
	DD	FLAT:__purecall
	DD	FLAT:__purecall
	DD	FLAT:__purecall
	DD	FLAT:__purecall
	DD	FLAT:__purecall
	DD	FLAT:__purecall
	DD	FLAT:__purecall
	DD	FLAT:__purecall
	DD	FLAT:__purecall
	DD	FLAT:__purecall
	DD	FLAT:__purecall
	DD	FLAT:__purecall
	DD	FLAT:__purecall
	DD	FLAT:__purecall
	DD	FLAT:__purecall
	DD	FLAT:__purecall
	DD	FLAT:__purecall
	DD	FLAT:__purecall
	DD	FLAT:__purecall
	DD	FLAT:__purecall
	DD	FLAT:__purecall
	DD	FLAT:__purecall
	DD	FLAT:__purecall
	DD	FLAT:__purecall
	DD	FLAT:__purecall
	DD	FLAT:__purecall
	DD	FLAT:__purecall
	DD	FLAT:__purecall
	DD	FLAT:__purecall
	DD	FLAT:__purecall
	DD	FLAT:__purecall
	DD	FLAT:__purecall
	DD	FLAT:__purecall
	DD	FLAT:__purecall
	DD	FLAT:__purecall
	DD	FLAT:__purecall
	DD	FLAT:__purecall
CONST	ENDS
;	COMDAT xdata$x
xdata$x	SEGMENT
__unwindtable$?SendImmediate@RakPeer@@IAE_NPADHW4PacketPriority@@W4PacketReliability@@DUPlayerID@@_N4_J@Z DD 0ffffffffH
	DD	FLAT:__unwindfunclet$?SendImmediate@RakPeer@@IAE_NPADHW4PacketPriority@@W4PacketReliability@@DUPlayerID@@_N4_J@Z$0
__ehfuncinfo$?SendImmediate@RakPeer@@IAE_NPADHW4PacketPriority@@W4PacketReliability@@DUPlayerID@@_N4_J@Z DD 019930522H
	DD	01H
	DD	FLAT:__unwindtable$?SendImmediate@RakPeer@@IAE_NPADHW4PacketPriority@@W4PacketReliability@@DUPlayerID@@_N4_J@Z
	DD	2 DUP(00H)
	DD	2 DUP(00H)
	DD	00H
	DD	01H
xdata$x	ENDS
;	COMDAT xdata$x
xdata$x	SEGMENT
__unwindtable$?PingInternal@RakPeer@@IAEXUPlayerID@@_N@Z DD 0ffffffffH
	DD	FLAT:__unwindfunclet$?PingInternal@RakPeer@@IAEXUPlayerID@@_N@Z$0
__ehfuncinfo$?PingInternal@RakPeer@@IAEXUPlayerID@@_N@Z DD 019930522H
	DD	01H
	DD	FLAT:__unwindtable$?PingInternal@RakPeer@@IAEXUPlayerID@@_N@Z
	DD	2 DUP(00H)
	DD	2 DUP(00H)
	DD	00H
	DD	01H
xdata$x	ENDS
;	COMDAT xdata$x
xdata$x	SEGMENT
__unwindtable$?SendStaticDataInternal@RakPeer@@IAEXUPlayerID@@_N@Z DD 0ffffffffH
	DD	FLAT:__unwindfunclet$?SendStaticDataInternal@RakPeer@@IAEXUPlayerID@@_N@Z$0
__ehfuncinfo$?SendStaticDataInternal@RakPeer@@IAEXUPlayerID@@_N@Z DD 019930522H
	DD	01H
	DD	FLAT:__unwindtable$?SendStaticDataInternal@RakPeer@@IAEXUPlayerID@@_N@Z
	DD	2 DUP(00H)
	DD	2 DUP(00H)
	DD	00H
	DD	01H
xdata$x	ENDS
;	COMDAT xdata$x
xdata$x	SEGMENT
__ehfuncinfo$?RunUpdateCycle@RakPeer@@IAE_NXZ DD 019930522H
	DD	09H
	DD	FLAT:__unwindtable$?RunUpdateCycle@RakPeer@@IAE_NXZ
	DD	2 DUP(00H)
	DD	2 DUP(00H)
	DD	00H
	DD	01H
__unwindtable$?RunUpdateCycle@RakPeer@@IAE_NXZ DD 0ffffffffH
	DD	FLAT:__unwindfunclet$?RunUpdateCycle@RakPeer@@IAE_NXZ$0
	DD	0ffffffffH
	DD	FLAT:__unwindfunclet$?RunUpdateCycle@RakPeer@@IAE_NXZ$1
	DD	0ffffffffH
	DD	FLAT:__unwindfunclet$?RunUpdateCycle@RakPeer@@IAE_NXZ$2
	DD	0ffffffffH
	DD	FLAT:__unwindfunclet$?RunUpdateCycle@RakPeer@@IAE_NXZ$3
	DD	03H
	DD	FLAT:__unwindfunclet$?RunUpdateCycle@RakPeer@@IAE_NXZ$4
	DD	0ffffffffH
	DD	FLAT:__unwindfunclet$?RunUpdateCycle@RakPeer@@IAE_NXZ$5
	DD	0ffffffffH
	DD	FLAT:__unwindfunclet$?RunUpdateCycle@RakPeer@@IAE_NXZ$6
	DD	0ffffffffH
	DD	FLAT:__unwindfunclet$?RunUpdateCycle@RakPeer@@IAE_NXZ$7
	DD	07H
	DD	FLAT:__unwindfunclet$?RunUpdateCycle@RakPeer@@IAE_NXZ$8
xdata$x	ENDS
;	COMDAT xdata$x
xdata$x	SEGMENT
__unwindtable$?SecuredConnectionConfirmation@RakPeer@@IAEXPAURemoteSystemStruct@1@PAD@Z DD 0ffffffffH
	DD	FLAT:__unwindfunclet$?SecuredConnectionConfirmation@RakPeer@@IAEXPAURemoteSystemStruct@1@PAD@Z$0
__ehfuncinfo$?SecuredConnectionConfirmation@RakPeer@@IAEXPAURemoteSystemStruct@1@PAD@Z DD 019930522H
	DD	01H
	DD	FLAT:__unwindtable$?SecuredConnectionConfirmation@RakPeer@@IAEXPAURemoteSystemStruct@1@PAD@Z
	DD	2 DUP(00H)
	DD	2 DUP(00H)
	DD	00H
	DD	01H
xdata$x	ENDS
;	COMDAT xdata$x
xdata$x	SEGMENT
__unwindtable$?SecuredConnectionResponse@RakPeer@@IAEXUPlayerID@@@Z DD 0ffffffffH
	DD	FLAT:__unwindfunclet$?SecuredConnectionResponse@RakPeer@@IAEXUPlayerID@@@Z$0
__ehfuncinfo$?SecuredConnectionResponse@RakPeer@@IAEXUPlayerID@@@Z DD 019930522H
	DD	01H
	DD	FLAT:__unwindtable$?SecuredConnectionResponse@RakPeer@@IAEXUPlayerID@@@Z
	DD	2 DUP(00H)
	DD	2 DUP(00H)
	DD	00H
	DD	01H
xdata$x	ENDS
;	COMDAT xdata$x
xdata$x	SEGMENT
__unwindtable$??1?$OrderedList@UPlayerID@@UPlayerIDAndIndex@@$1?PlayerIDAndIndexComp@@YAHABU1@ABU2@@Z@DataStructures@@QAE@XZ DD 0ffffffffH
	DD	FLAT:__unwindfunclet$??1?$OrderedList@UPlayerID@@UPlayerIDAndIndex@@$1?PlayerIDAndIndexComp@@YAHABU1@ABU2@@Z@DataStructures@@QAE@XZ$0
__ehfuncinfo$??1?$OrderedList@UPlayerID@@UPlayerIDAndIndex@@$1?PlayerIDAndIndexComp@@YAHABU1@ABU2@@Z@DataStructures@@QAE@XZ DD 019930522H
	DD	01H
	DD	FLAT:__unwindtable$??1?$OrderedList@UPlayerID@@UPlayerIDAndIndex@@$1?PlayerIDAndIndexComp@@YAHABU1@ABU2@@Z@DataStructures@@QAE@XZ
	DD	2 DUP(00H)
	DD	2 DUP(00H)
	DD	00H
	DD	01H
xdata$x	ENDS
;	COMDAT xdata$x
xdata$x	SEGMENT
__unwindtable$?HandleRPCPacket@RakPeer@@IAE_NPBDHUPlayerID@@@Z DD 0ffffffffH
	DD	FLAT:__unwindfunclet$?HandleRPCPacket@RakPeer@@IAE_NPBDHUPlayerID@@@Z$0
	DD	00H
	DD	FLAT:__unwindfunclet$?HandleRPCPacket@RakPeer@@IAE_NPBDHUPlayerID@@@Z$1
	DD	01H
	DD	FLAT:__unwindfunclet$?HandleRPCPacket@RakPeer@@IAE_NPBDHUPlayerID@@@Z$2
	DD	01H
	DD	FLAT:__unwindfunclet$?HandleRPCPacket@RakPeer@@IAE_NPBDHUPlayerID@@@Z$3
__ehfuncinfo$?HandleRPCPacket@RakPeer@@IAE_NPBDHUPlayerID@@@Z DD 019930522H
	DD	04H
	DD	FLAT:__unwindtable$?HandleRPCPacket@RakPeer@@IAE_NPBDHUPlayerID@@@Z
	DD	2 DUP(00H)
	DD	2 DUP(00H)
	DD	00H
	DD	01H
xdata$x	ENDS
;	COMDAT xdata$x
xdata$x	SEGMENT
__unwindtable$?ShiftIncomingTimestamp@RakPeer@@IBEXPAEUPlayerID@@@Z DD 0ffffffffH
	DD	FLAT:__unwindfunclet$?ShiftIncomingTimestamp@RakPeer@@IBEXPAEUPlayerID@@@Z$0
__ehfuncinfo$?ShiftIncomingTimestamp@RakPeer@@IBEXPAEUPlayerID@@@Z DD 019930522H
	DD	01H
	DD	FLAT:__unwindtable$?ShiftIncomingTimestamp@RakPeer@@IBEXPAEUPlayerID@@@Z
	DD	2 DUP(00H)
	DD	2 DUP(00H)
	DD	00H
	DD	01H
xdata$x	ENDS
;	COMDAT xdata$x
xdata$x	SEGMENT
__unwindtable$?NotifyAndFlagForDisconnect@RakPeer@@IAEXUPlayerID@@_NE@Z DD 0ffffffffH
	DD	FLAT:__unwindfunclet$?NotifyAndFlagForDisconnect@RakPeer@@IAEXUPlayerID@@_NE@Z$0
__ehfuncinfo$?NotifyAndFlagForDisconnect@RakPeer@@IAEXUPlayerID@@_NE@Z DD 019930522H
	DD	01H
	DD	FLAT:__unwindtable$?NotifyAndFlagForDisconnect@RakPeer@@IAEXUPlayerID@@_NE@Z
	DD	2 DUP(00H)
	DD	2 DUP(00H)
	DD	00H
	DD	01H
xdata$x	ENDS
;	COMDAT xdata$x
xdata$x	SEGMENT
__unwindtable$?OnConnectionRequest@RakPeer@@IAEXPAURemoteSystemStruct@1@PAE_N@Z DD 0ffffffffH
	DD	FLAT:__unwindfunclet$?OnConnectionRequest@RakPeer@@IAEXPAURemoteSystemStruct@1@PAE_N@Z$0
__ehfuncinfo$?OnConnectionRequest@RakPeer@@IAEXPAURemoteSystemStruct@1@PAE_N@Z DD 019930522H
	DD	01H
	DD	FLAT:__unwindtable$?OnConnectionRequest@RakPeer@@IAEXPAURemoteSystemStruct@1@PAE_N@Z
	DD	2 DUP(00H)
	DD	2 DUP(00H)
	DD	00H
	DD	01H
xdata$x	ENDS
;	COMDAT xdata$x
xdata$x	SEGMENT
__unwindtable$?ProcessNetworkPacket@@YGXIGPBDHPAVRakPeer@@@Z DD 0ffffffffH
	DD	FLAT:__unwindfunclet$?ProcessNetworkPacket@@YGXIGPBDHPAVRakPeer@@@Z$0
	DD	0ffffffffH
	DD	FLAT:__unwindfunclet$?ProcessNetworkPacket@@YGXIGPBDHPAVRakPeer@@@Z$1
	DD	01H
	DD	FLAT:__unwindfunclet$?ProcessNetworkPacket@@YGXIGPBDHPAVRakPeer@@@Z$2
__ehfuncinfo$?ProcessNetworkPacket@@YGXIGPBDHPAVRakPeer@@@Z DD 019930522H
	DD	03H
	DD	FLAT:__unwindtable$?ProcessNetworkPacket@@YGXIGPBDHPAVRakPeer@@@Z
	DD	2 DUP(00H)
	DD	2 DUP(00H)
	DD	00H
	DD	01H
xdata$x	ENDS
;	COMDAT xdata$x
xdata$x	SEGMENT
__unwindtable$??1RemoteSystemStruct@RakPeer@@QAE@XZ DD 0ffffffffH
	DD	FLAT:__unwindfunclet$??1RemoteSystemStruct@RakPeer@@QAE@XZ$0
	DD	00H
	DD	FLAT:__unwindfunclet$??1RemoteSystemStruct@RakPeer@@QAE@XZ$1
__ehfuncinfo$??1RemoteSystemStruct@RakPeer@@QAE@XZ DD 019930522H
	DD	02H
	DD	FLAT:__unwindtable$??1RemoteSystemStruct@RakPeer@@QAE@XZ
	DD	2 DUP(00H)
	DD	2 DUP(00H)
	DD	00H
	DD	01H
xdata$x	ENDS
;	COMDAT xdata$x
xdata$x	SEGMENT
__unwindtable$??0RemoteSystemStruct@RakPeer@@QAE@XZ DD 0ffffffffH
	DD	FLAT:__unwindfunclet$??0RemoteSystemStruct@RakPeer@@QAE@XZ$0
	DD	00H
	DD	FLAT:__unwindfunclet$??0RemoteSystemStruct@RakPeer@@QAE@XZ$1
__ehfuncinfo$??0RemoteSystemStruct@RakPeer@@QAE@XZ DD 019930522H
	DD	02H
	DD	FLAT:__unwindtable$??0RemoteSystemStruct@RakPeer@@QAE@XZ
	DD	2 DUP(00H)
	DD	2 DUP(00H)
	DD	00H
	DD	01H
xdata$x	ENDS
;	COMDAT xdata$x
xdata$x	SEGMENT
__unwindtable$?GenerateCompressionLayer@RakPeer@@UAE_NQAI_N@Z DD 0ffffffffH
	DD	FLAT:__unwindfunclet$?GenerateCompressionLayer@RakPeer@@UAE_NQAI_N@Z$0
	DD	0ffffffffH
	DD	FLAT:__unwindfunclet$?GenerateCompressionLayer@RakPeer@@UAE_NQAI_N@Z$1
__ehfuncinfo$?GenerateCompressionLayer@RakPeer@@UAE_NQAI_N@Z DD 019930522H
	DD	02H
	DD	FLAT:__unwindtable$?GenerateCompressionLayer@RakPeer@@UAE_NQAI_N@Z
	DD	2 DUP(00H)
	DD	2 DUP(00H)
	DD	00H
	DD	01H
xdata$x	ENDS
;	COMDAT xdata$x
xdata$x	SEGMENT
__unwindtable$?AdvertiseSystem@RakPeer@@UAEXPBDG0H@Z DD 0ffffffffH
	DD	FLAT:__unwindfunclet$?AdvertiseSystem@RakPeer@@UAEXPBDG0H@Z$0
__ehfuncinfo$?AdvertiseSystem@RakPeer@@UAEXPBDG0H@Z DD 019930522H
	DD	01H
	DD	FLAT:__unwindtable$?AdvertiseSystem@RakPeer@@UAEXPBDG0H@Z
	DD	2 DUP(00H)
	DD	2 DUP(00H)
	DD	00H
	DD	01H
xdata$x	ENDS
;	COMDAT xdata$x
xdata$x	SEGMENT
__unwindtable$?Ping@RakPeer@@UAEXPBDG_N@Z DD 0ffffffffH
	DD	FLAT:__unwindfunclet$?Ping@RakPeer@@UAEXPBDG_N@Z$0
__ehfuncinfo$?Ping@RakPeer@@UAEXPBDG_N@Z DD 019930522H
	DD	01H
	DD	FLAT:__unwindtable$?Ping@RakPeer@@UAEXPBDG_N@Z
	DD	2 DUP(00H)
	DD	2 DUP(00H)
	DD	00H
	DD	01H
xdata$x	ENDS
;	COMDAT xdata$x
xdata$x	SEGMENT
__unwindtable$?RPC@RakPeer@@UAE_NPADPBDIW4PacketPriority@@W4PacketReliability@@DUPlayerID@@_N5UNetworkID@@PAVBitStream@RakNet@@@Z DD 0ffffffffH
	DD	FLAT:__unwindfunclet$?RPC@RakPeer@@UAE_NPADPBDIW4PacketPriority@@W4PacketReliability@@DUPlayerID@@_N5UNetworkID@@PAVBitStream@RakNet@@@Z$0
__ehfuncinfo$?RPC@RakPeer@@UAE_NPADPBDIW4PacketPriority@@W4PacketReliability@@DUPlayerID@@_N5UNetworkID@@PAVBitStream@RakNet@@@Z DD 019930522H
	DD	01H
	DD	FLAT:__unwindtable$?RPC@RakPeer@@UAE_NPADPBDIW4PacketPriority@@W4PacketReliability@@DUPlayerID@@_N5UNetworkID@@PAVBitStream@RakNet@@@Z
	DD	2 DUP(00H)
	DD	2 DUP(00H)
	DD	00H
	DD	01H
xdata$x	ENDS
;	COMDAT xdata$x
xdata$x	SEGMENT
__unwindtable$?Initialize@RakPeer@@UAE_NGGHPBD@Z DD 0ffffffffH
	DD	FLAT:__unwindfunclet$?Initialize@RakPeer@@UAE_NGGHPBD@Z$0
__ehfuncinfo$?Initialize@RakPeer@@UAE_NGGHPBD@Z DD 019930522H
	DD	01H
	DD	FLAT:__unwindtable$?Initialize@RakPeer@@UAE_NGGHPBD@Z
	DD	2 DUP(00H)
	DD	2 DUP(00H)
	DD	00H
	DD	01H
xdata$x	ENDS
;	COMDAT xdata$x
xdata$x	SEGMENT
__ehfuncinfo$??1RakPeer@@UAE@XZ DD 019930522H
	DD	0fH
	DD	FLAT:__unwindtable$??1RakPeer@@UAE@XZ
	DD	2 DUP(00H)
	DD	2 DUP(00H)
	DD	00H
	DD	01H
__unwindtable$??1RakPeer@@UAE@XZ DD 0ffffffffH
	DD	FLAT:__unwindfunclet$??1RakPeer@@UAE@XZ$0
	DD	00H
	DD	FLAT:__unwindfunclet$??1RakPeer@@UAE@XZ$1
	DD	01H
	DD	FLAT:__unwindfunclet$??1RakPeer@@UAE@XZ$2
	DD	02H
	DD	FLAT:__unwindfunclet$??1RakPeer@@UAE@XZ$3
	DD	03H
	DD	FLAT:__unwindfunclet$??1RakPeer@@UAE@XZ$4
	DD	04H
	DD	FLAT:__unwindfunclet$??1RakPeer@@UAE@XZ$5
	DD	05H
	DD	FLAT:__unwindfunclet$??1RakPeer@@UAE@XZ$6
	DD	06H
	DD	FLAT:__unwindfunclet$??1RakPeer@@UAE@XZ$7
	DD	07H
	DD	FLAT:__unwindfunclet$??1RakPeer@@UAE@XZ$8
	DD	08H
	DD	FLAT:__unwindfunclet$??1RakPeer@@UAE@XZ$9
	DD	09H
	DD	FLAT:__unwindfunclet$??1RakPeer@@UAE@XZ$10
	DD	0aH
	DD	FLAT:__unwindfunclet$??1RakPeer@@UAE@XZ$11
	DD	0bH
	DD	FLAT:__unwindfunclet$??1RakPeer@@UAE@XZ$12
	DD	0cH
	DD	FLAT:__unwindfunclet$??1RakPeer@@UAE@XZ$13
	DD	0dH
	DD	FLAT:__unwindfunclet$??1RakPeer@@UAE@XZ$14
xdata$x	ENDS
;	COMDAT xdata$x
xdata$x	SEGMENT
__ehfuncinfo$??0RakPeer@@QAE@XZ DD 019930522H
	DD	0fH
	DD	FLAT:__unwindtable$??0RakPeer@@QAE@XZ
	DD	2 DUP(00H)
	DD	2 DUP(00H)
	DD	00H
	DD	01H
__unwindtable$??0RakPeer@@QAE@XZ DD 0ffffffffH
	DD	FLAT:__unwindfunclet$??0RakPeer@@QAE@XZ$0
	DD	00H
	DD	FLAT:__unwindfunclet$??0RakPeer@@QAE@XZ$1
	DD	01H
	DD	FLAT:__unwindfunclet$??0RakPeer@@QAE@XZ$2
	DD	02H
	DD	FLAT:__unwindfunclet$??0RakPeer@@QAE@XZ$3
	DD	03H
	DD	FLAT:__unwindfunclet$??0RakPeer@@QAE@XZ$4
	DD	04H
	DD	FLAT:__unwindfunclet$??0RakPeer@@QAE@XZ$5
	DD	05H
	DD	FLAT:__unwindfunclet$??0RakPeer@@QAE@XZ$6
	DD	06H
	DD	FLAT:__unwindfunclet$??0RakPeer@@QAE@XZ$7
	DD	07H
	DD	FLAT:__unwindfunclet$??0RakPeer@@QAE@XZ$8
	DD	08H
	DD	FLAT:__unwindfunclet$??0RakPeer@@QAE@XZ$9
	DD	09H
	DD	FLAT:__unwindfunclet$??0RakPeer@@QAE@XZ$10
	DD	0aH
	DD	FLAT:__unwindfunclet$??0RakPeer@@QAE@XZ$11
	DD	0bH
	DD	FLAT:__unwindfunclet$??0RakPeer@@QAE@XZ$12
	DD	0cH
	DD	FLAT:__unwindfunclet$??0RakPeer@@QAE@XZ$13
	DD	0dH
	DD	FLAT:__unwindfunclet$??0RakPeer@@QAE@XZ$14
xdata$x	ENDS
; Function compile flags: /Odtp /RTCsu /ZI
; File z:\sampsrc\02xu1\raknet\bigtypes.h
;	COMDAT ??$usetlow@$$BY07I$$BY07I@big@@YAXAAY07I0@Z
_TEXT	SEGMENT
_a$ = 8							; size = 4
_b$ = 12						; size = 4
??$usetlow@$$BY07I$$BY07I@big@@YAXAAY07I0@Z PROC	; big::usetlow<unsigned int [8],unsigned int [8]>, COMDAT

; 314  : 	{

	push	ebp
	mov	ebp, esp
	sub	esp, 192				; 000000c0H
	push	ebx
	push	esi
	push	edi
	lea	edi, DWORD PTR [ebp-192]
	mov	ecx, 48					; 00000030H
	mov	eax, -858993460				; ccccccccH
	rep stosd

; 315  : 		memcpy( a, b, sizeof( T ) );

	push	32					; 00000020H
	mov	eax, DWORD PTR _b$[ebp]
	push	eax
	mov	ecx, DWORD PTR _a$[ebp]
	push	ecx
	call	_memcpy
	add	esp, 12					; 0000000cH

; 316  : #ifdef _MSC_VER
; 317  : #pragma warning( disable : 4318 ) // warning C4318: passing constant zero as the length to memset
; 318  : #endif
; 319  : 		memset( a + BIGWORDCOUNT( T ), 0, sizeof( Bigger ) - sizeof( T ) );

	push	0
	push	0
	mov	eax, DWORD PTR _a$[ebp]
	add	eax, 32					; 00000020H
	push	eax
	call	_memset
	add	esp, 12					; 0000000cH

; 320  : 	}

	pop	edi
	pop	esi
	pop	ebx
	add	esp, 192				; 000000c0H
	cmp	ebp, esp
	call	__RTC_CheckEsp
	mov	esp, ebp
	pop	ebp
	ret	0
??$usetlow@$$BY07I$$BY07I@big@@YAXAAY07I0@Z ENDP	; big::usetlow<unsigned int [8],unsigned int [8]>
_TEXT	ENDS
; Function compile flags: /Odtp /RTCsu /ZI
; File z:\sampsrc\02xu1\raknet\bigtypes.h
;	COMDAT ??$umultiply@$$BY07I$$BY0BA@I@big@@YAXAAY0BA@IAAY07I@Z
_TEXT	SEGMENT
_ctr$1 = -120						; size = 2
_w_i$2 = -108						; size = 4
_ii$3 = -96						; size = 4
_shifts$ = -84						; size = 4
_a$ = -72						; size = 64
__$ArrayPad$ = -4					; size = 4
_a0$ = 8						; size = 4
_b0$ = 12						; size = 4
??$umultiply@$$BY07I$$BY0BA@I@big@@YAXAAY0BA@IAAY07I@Z PROC ; big::umultiply<unsigned int [8],unsigned int [16]>, COMDAT

; 956  : 	{

	push	ebp
	mov	ebp, esp
	sub	esp, 316				; 0000013cH
	push	ebx
	push	esi
	push	edi
	lea	edi, DWORD PTR [ebp-316]
	mov	ecx, 79					; 0000004fH
	mov	eax, -858993460				; ccccccccH
	rep stosd
	mov	eax, DWORD PTR ___security_cookie
	xor	eax, ebp
	mov	DWORD PTR __$ArrayPad$[ebp], eax

; 957  : 		Bigger a;
; 958  : 		
; 959  : 		set ( a, a0 )
; 960  : 		
; 961  : 		;

	mov	eax, DWORD PTR _a0$[ebp]
	push	eax
	lea	ecx, DWORD PTR _a$[ebp]
	push	ecx
	call	??$set@$$BY0BA@I@big@@YAXAAY0BA@I0@Z	; big::set<unsigned int [16]>
	add	esp, 8

; 962  : 		
; 963  : 		zero( a0 );

	mov	eax, DWORD PTR _a0$[ebp]
	push	eax
	call	??$zero@$$BY0BA@I@big@@YAXAAY0BA@I@Z	; big::zero<unsigned int [16]>
	add	esp, 4

; 964  : 		
; 965  : 		u32 shifts = 0;

	mov	DWORD PTR _shifts$[ebp], 0

; 966  : 		
; 967  : 		for ( u32 ii = 0; ii < BIGWORDCOUNT( T ); ++ii )

	mov	DWORD PTR _ii$3[ebp], 0
	jmp	SHORT $LN7@umultiply
$LN6@umultiply:
	mov	eax, DWORD PTR _ii$3[ebp]
	add	eax, 1
	mov	DWORD PTR _ii$3[ebp], eax
$LN7@umultiply:
	cmp	DWORD PTR _ii$3[ebp], 8
	jae	SHORT $LN8@umultiply

; 968  : 		{
; 969  : 			word w_i = b0[ ii ];

	mov	eax, DWORD PTR _ii$3[ebp]
	mov	ecx, DWORD PTR _b0$[ebp]
	mov	edx, DWORD PTR [ecx+eax*4]
	mov	DWORD PTR _w_i$2[ebp], edx

; 970  : 			
; 971  : 			u16 ctr = WORDBITS;

	mov	eax, 32					; 00000020H
	mov	WORD PTR _ctr$1[ebp], ax
$LN4@umultiply:

; 972  : 			
; 973  : 			while ( w_i )

	cmp	DWORD PTR _w_i$2[ebp], 0
	je	SHORT $LN3@umultiply

; 974  : 			{
; 975  : 				if ( w_i & 1 )

	mov	eax, DWORD PTR _w_i$2[ebp]
	and	eax, 1
	je	SHORT $LN2@umultiply

; 976  : 				{
; 977  : 					if ( shifts )

	cmp	DWORD PTR _shifts$[ebp], 0
	je	SHORT $LN1@umultiply

; 978  : 					{
; 979  : 						shiftLeft( a, shifts );

	mov	eax, DWORD PTR _shifts$[ebp]
	push	eax
	lea	ecx, DWORD PTR _a$[ebp]
	push	ecx
	call	??$shiftLeft@$$BY0BA@I@big@@YAXAAY0BA@II@Z ; big::shiftLeft<unsigned int [16]>
	add	esp, 8

; 980  : 						shifts = 0;

	mov	DWORD PTR _shifts$[ebp], 0
$LN1@umultiply:

; 981  : 					}
; 982  : 					
; 983  : 					add ( a0, a )
; 984  : 					
; 985  : 					;

	lea	eax, DWORD PTR _a$[ebp]
	push	eax
	mov	ecx, DWORD PTR _a0$[ebp]
	push	ecx
	call	??$add@$$BY0BA@I@big@@YAXAAY0BA@I0@Z	; big::add<unsigned int [16]>
	add	esp, 8
$LN2@umultiply:

; 986  : 				}
; 987  : 				
; 988  : 				w_i >>= 1;

	mov	eax, DWORD PTR _w_i$2[ebp]
	shr	eax, 1
	mov	DWORD PTR _w_i$2[ebp], eax

; 989  : 				++shifts;

	mov	eax, DWORD PTR _shifts$[ebp]
	add	eax, 1
	mov	DWORD PTR _shifts$[ebp], eax

; 990  : 				--ctr;

	mov	ax, WORD PTR _ctr$1[ebp]
	sub	ax, 1
	mov	WORD PTR _ctr$1[ebp], ax

; 991  : 			}

	jmp	SHORT $LN4@umultiply
$LN3@umultiply:

; 992  : 			
; 993  : 			shifts += ctr;

	movzx	eax, WORD PTR _ctr$1[ebp]
	add	eax, DWORD PTR _shifts$[ebp]
	mov	DWORD PTR _shifts$[ebp], eax

; 994  : 		}

	jmp	$LN6@umultiply
$LN8@umultiply:

; 995  : 	}

	push	edx
	mov	ecx, ebp
	push	eax
	lea	edx, DWORD PTR $LN12@umultiply
	call	@_RTC_CheckStackVars@8
	pop	eax
	pop	edx
	pop	edi
	pop	esi
	pop	ebx
	mov	ecx, DWORD PTR __$ArrayPad$[ebp]
	xor	ecx, ebp
	call	@__security_check_cookie@4
	add	esp, 316				; 0000013cH
	cmp	ebp, esp
	call	__RTC_CheckEsp
	mov	esp, ebp
	pop	ebp
	ret	0
$LN12@umultiply:
	DD	1
	DD	$LN11@umultiply
$LN11@umultiply:
	DD	-72					; ffffffb8H
	DD	64					; 00000040H
	DD	$LN10@umultiply
$LN10@umultiply:
	DB	97					; 00000061H
	DB	0
??$umultiply@$$BY07I$$BY0BA@I@big@@YAXAAY0BA@IAAY07I@Z ENDP ; big::umultiply<unsigned int [8],unsigned int [16]>
_TEXT	ENDS
; Function compile flags: /Odtp /RTCsu /ZI
; File z:\sampsrc\02xu1\raknet\bigtypes.h
;	COMDAT ??$umultiply@$$BY03I$$BY07I@big@@YAXAAY07IAAY03I@Z
_TEXT	SEGMENT
_ctr$1 = -88						; size = 2
_w_i$2 = -76						; size = 4
_ii$3 = -64						; size = 4
_shifts$ = -52						; size = 4
_a$ = -40						; size = 32
__$ArrayPad$ = -4					; size = 4
_a0$ = 8						; size = 4
_b0$ = 12						; size = 4
??$umultiply@$$BY03I$$BY07I@big@@YAXAAY07IAAY03I@Z PROC	; big::umultiply<unsigned int [4],unsigned int [8]>, COMDAT

; 956  : 	{

	push	ebp
	mov	ebp, esp
	sub	esp, 284				; 0000011cH
	push	ebx
	push	esi
	push	edi
	lea	edi, DWORD PTR [ebp-284]
	mov	ecx, 71					; 00000047H
	mov	eax, -858993460				; ccccccccH
	rep stosd
	mov	eax, DWORD PTR ___security_cookie
	xor	eax, ebp
	mov	DWORD PTR __$ArrayPad$[ebp], eax

; 957  : 		Bigger a;
; 958  : 		
; 959  : 		set ( a, a0 )
; 960  : 		
; 961  : 		;

	mov	eax, DWORD PTR _a0$[ebp]
	push	eax
	lea	ecx, DWORD PTR _a$[ebp]
	push	ecx
	call	??$set@$$BY07I@big@@YAXAAY07I0@Z	; big::set<unsigned int [8]>
	add	esp, 8

; 962  : 		
; 963  : 		zero( a0 );

	mov	eax, DWORD PTR _a0$[ebp]
	push	eax
	call	??$zero@$$BY07I@big@@YAXAAY07I@Z	; big::zero<unsigned int [8]>
	add	esp, 4

; 964  : 		
; 965  : 		u32 shifts = 0;

	mov	DWORD PTR _shifts$[ebp], 0

; 966  : 		
; 967  : 		for ( u32 ii = 0; ii < BIGWORDCOUNT( T ); ++ii )

	mov	DWORD PTR _ii$3[ebp], 0
	jmp	SHORT $LN7@umultiply
$LN6@umultiply:
	mov	eax, DWORD PTR _ii$3[ebp]
	add	eax, 1
	mov	DWORD PTR _ii$3[ebp], eax
$LN7@umultiply:
	cmp	DWORD PTR _ii$3[ebp], 4
	jae	SHORT $LN8@umultiply

; 968  : 		{
; 969  : 			word w_i = b0[ ii ];

	mov	eax, DWORD PTR _ii$3[ebp]
	mov	ecx, DWORD PTR _b0$[ebp]
	mov	edx, DWORD PTR [ecx+eax*4]
	mov	DWORD PTR _w_i$2[ebp], edx

; 970  : 			
; 971  : 			u16 ctr = WORDBITS;

	mov	eax, 32					; 00000020H
	mov	WORD PTR _ctr$1[ebp], ax
$LN4@umultiply:

; 972  : 			
; 973  : 			while ( w_i )

	cmp	DWORD PTR _w_i$2[ebp], 0
	je	SHORT $LN3@umultiply

; 974  : 			{
; 975  : 				if ( w_i & 1 )

	mov	eax, DWORD PTR _w_i$2[ebp]
	and	eax, 1
	je	SHORT $LN2@umultiply

; 976  : 				{
; 977  : 					if ( shifts )

	cmp	DWORD PTR _shifts$[ebp], 0
	je	SHORT $LN1@umultiply

; 978  : 					{
; 979  : 						shiftLeft( a, shifts );

	mov	eax, DWORD PTR _shifts$[ebp]
	push	eax
	lea	ecx, DWORD PTR _a$[ebp]
	push	ecx
	call	??$shiftLeft@$$BY07I@big@@YAXAAY07II@Z	; big::shiftLeft<unsigned int [8]>
	add	esp, 8

; 980  : 						shifts = 0;

	mov	DWORD PTR _shifts$[ebp], 0
$LN1@umultiply:

; 981  : 					}
; 982  : 					
; 983  : 					add ( a0, a )
; 984  : 					
; 985  : 					;

	lea	eax, DWORD PTR _a$[ebp]
	push	eax
	mov	ecx, DWORD PTR _a0$[ebp]
	push	ecx
	call	??$add@$$BY07I@big@@YAXAAY07I0@Z	; big::add<unsigned int [8]>
	add	esp, 8
$LN2@umultiply:

; 986  : 				}
; 987  : 				
; 988  : 				w_i >>= 1;

	mov	eax, DWORD PTR _w_i$2[ebp]
	shr	eax, 1
	mov	DWORD PTR _w_i$2[ebp], eax

; 989  : 				++shifts;

	mov	eax, DWORD PTR _shifts$[ebp]
	add	eax, 1
	mov	DWORD PTR _shifts$[ebp], eax

; 990  : 				--ctr;

	mov	ax, WORD PTR _ctr$1[ebp]
	sub	ax, 1
	mov	WORD PTR _ctr$1[ebp], ax

; 991  : 			}

	jmp	SHORT $LN4@umultiply
$LN3@umultiply:

; 992  : 			
; 993  : 			shifts += ctr;

	movzx	eax, WORD PTR _ctr$1[ebp]
	add	eax, DWORD PTR _shifts$[ebp]
	mov	DWORD PTR _shifts$[ebp], eax

; 994  : 		}

	jmp	$LN6@umultiply
$LN8@umultiply:

; 995  : 	}

	push	edx
	mov	ecx, ebp
	push	eax
	lea	edx, DWORD PTR $LN12@umultiply
	call	@_RTC_CheckStackVars@8
	pop	eax
	pop	edx
	pop	edi
	pop	esi
	pop	ebx
	mov	ecx, DWORD PTR __$ArrayPad$[ebp]
	xor	ecx, ebp
	call	@__security_check_cookie@4
	add	esp, 284				; 0000011cH
	cmp	ebp, esp
	call	__RTC_CheckEsp
	mov	esp, ebp
	pop	ebp
	ret	0
$LN12@umultiply:
	DD	1
	DD	$LN11@umultiply
$LN11@umultiply:
	DD	-40					; ffffffd8H
	DD	32					; 00000020H
	DD	$LN10@umultiply
$LN10@umultiply:
	DB	97					; 00000061H
	DB	0
??$umultiply@$$BY03I$$BY07I@big@@YAXAAY07IAAY03I@Z ENDP	; big::umultiply<unsigned int [4],unsigned int [8]>
_TEXT	ENDS
; Function compile flags: /Odtp /RTCsu /ZI
; File z:\sampsrc\02xu1\raknet\bigtypes.h
;	COMDAT ??$shiftLeft1@$$BY03I@big@@YAXAAY03I@Z
_TEXT	SEGMENT
_ii$1 = -32						; size = 4
_carry$ = -20						; size = 4
_w_i$ = -8						; size = 4
_n$ = 8							; size = 4
??$shiftLeft1@$$BY03I@big@@YAXAAY03I@Z PROC		; big::shiftLeft1<unsigned int [4]>, COMDAT

; 463  : 	{

	push	ebp
	mov	ebp, esp
	sub	esp, 228				; 000000e4H
	push	ebx
	push	esi
	push	edi
	lea	edi, DWORD PTR [ebp-228]
	mov	ecx, 57					; 00000039H
	mov	eax, -858993460				; ccccccccH
	rep stosd

; 464  : 		register word w_i, carry = 0;

	mov	DWORD PTR _carry$[ebp], 0

; 465  : 		
; 466  : 		for ( u32 ii = 0; ii < BIGWORDCOUNT( T ); ++ii )

	mov	DWORD PTR _ii$1[ebp], 0
	jmp	SHORT $LN3@shiftLeft1
$LN2@shiftLeft1:
	mov	eax, DWORD PTR _ii$1[ebp]
	add	eax, 1
	mov	DWORD PTR _ii$1[ebp], eax
$LN3@shiftLeft1:
	cmp	DWORD PTR _ii$1[ebp], 4
	jae	SHORT $LN4@shiftLeft1

; 467  : 		{
; 468  : 			w_i = n[ ii ];

	mov	eax, DWORD PTR _ii$1[ebp]
	mov	ecx, DWORD PTR _n$[ebp]
	mov	edx, DWORD PTR [ecx+eax*4]
	mov	DWORD PTR _w_i$[ebp], edx

; 469  : 			
; 470  : 			n[ ii ] = ( w_i << 1 ) | carry;

	mov	eax, DWORD PTR _w_i$[ebp]
	shl	eax, 1
	or	eax, DWORD PTR _carry$[ebp]
	mov	ecx, DWORD PTR _ii$1[ebp]
	mov	edx, DWORD PTR _n$[ebp]
	mov	DWORD PTR [edx+ecx*4], eax

; 471  : 			carry = w_i >> ( WORDBITS - 1 );

	mov	eax, DWORD PTR _w_i$[ebp]
	shr	eax, 31					; 0000001fH
	mov	DWORD PTR _carry$[ebp], eax

; 472  : 		}

	jmp	SHORT $LN2@shiftLeft1
$LN4@shiftLeft1:

; 473  : 	}

	pop	edi
	pop	esi
	pop	ebx
	mov	esp, ebp
	pop	ebp
	ret	0
??$shiftLeft1@$$BY03I@big@@YAXAAY03I@Z ENDP		; big::shiftLeft1<unsigned int [4]>
_TEXT	ENDS
; Function compile flags: /Odtp /RTCsu /ZI
; File z:\sampsrc\02xu1\raknet\bigtypes.h
;	COMDAT ??$shiftLeft@$$BY03I@big@@YAXAAY03II@Z
_TEXT	SEGMENT
_ii$1 = -68						; size = 4
_carry$2 = -56						; size = 4
_w_i$3 = -44						; size = 4
_bits$ = -32						; size = 4
_bases$ = -20						; size = 4
_ii$ = -8						; size = 4
_n$ = 8							; size = 4
_s$ = 12						; size = 4
??$shiftLeft@$$BY03I@big@@YAXAAY03II@Z PROC		; big::shiftLeft<unsigned int [4]>, COMDAT

; 477  : 	{

	push	ebp
	mov	ebp, esp
	sub	esp, 264				; 00000108H
	push	ebx
	push	esi
	push	edi
	lea	edi, DWORD PTR [ebp-264]
	mov	ecx, 66					; 00000042H
	mov	eax, -858993460				; ccccccccH
	rep stosd

; 478  : 		register s32 ii;
; 479  : 		register u32 bases = s / WORDBITS;

	mov	eax, DWORD PTR _s$[ebp]
	shr	eax, 5
	mov	DWORD PTR _bases$[ebp], eax

; 480  : 		u32 bits = s % WORDBITS;

	mov	eax, DWORD PTR _s$[ebp]
	xor	edx, edx
	mov	ecx, 32					; 00000020H
	div	ecx
	mov	DWORD PTR _bits$[ebp], edx

; 481  : 		
; 482  : 		// move whole bases first
; 483  : 		
; 484  : 		if ( bases )

	cmp	DWORD PTR _bases$[ebp], 0
	je	SHORT $LN8@shiftLeft

; 485  : 		{
; 486  : 			// shift bases
; 487  : 			
; 488  : 			for ( ii = BIGWORDCOUNT( T ) - 1 - bases; ii >= 0; --ii )

	mov	eax, 3
	sub	eax, DWORD PTR _bases$[ebp]
	mov	DWORD PTR _ii$[ebp], eax
	jmp	SHORT $LN7@shiftLeft
$LN6@shiftLeft:
	mov	eax, DWORD PTR _ii$[ebp]
	sub	eax, 1
	mov	DWORD PTR _ii$[ebp], eax
$LN7@shiftLeft:
	cmp	DWORD PTR _ii$[ebp], 0
	jl	SHORT $LN5@shiftLeft

; 489  : 				n[ ii + bases ] = n[ ii ];

	mov	eax, DWORD PTR _ii$[ebp]
	add	eax, DWORD PTR _bases$[ebp]
	mov	ecx, DWORD PTR _n$[ebp]
	mov	edx, DWORD PTR _ii$[ebp]
	mov	esi, DWORD PTR _n$[ebp]
	mov	edx, DWORD PTR [esi+edx*4]
	mov	DWORD PTR [ecx+eax*4], edx
	jmp	SHORT $LN6@shiftLeft
$LN5@shiftLeft:

; 490  : 				
; 491  : 			// clear the original locii of those bases
; 492  : 			memset( n, 0, bases * sizeof( word ) );

	mov	eax, DWORD PTR _bases$[ebp]
	shl	eax, 2
	push	eax
	push	0
	mov	ecx, DWORD PTR _n$[ebp]
	push	ecx
	call	_memset
	add	esp, 12					; 0000000cH
$LN8@shiftLeft:

; 493  : 		}
; 494  : 		
; 495  : 		if ( bits )

	cmp	DWORD PTR _bits$[ebp], 0
	je	SHORT $LN9@shiftLeft

; 496  : 		{
; 497  : 			register word w_i, carry = 0;

	mov	DWORD PTR _carry$2[ebp], 0

; 498  : 			
; 499  : 			for ( u32 ii = 0; ii < BIGWORDCOUNT( T ); ++ii )

	mov	DWORD PTR _ii$1[ebp], 0
	jmp	SHORT $LN3@shiftLeft
$LN2@shiftLeft:
	mov	eax, DWORD PTR _ii$1[ebp]
	add	eax, 1
	mov	DWORD PTR _ii$1[ebp], eax
$LN3@shiftLeft:
	cmp	DWORD PTR _ii$1[ebp], 4
	jae	SHORT $LN9@shiftLeft

; 500  : 			{
; 501  : 				w_i = n[ ii ];

	mov	eax, DWORD PTR _ii$1[ebp]
	mov	ecx, DWORD PTR _n$[ebp]
	mov	edx, DWORD PTR [ecx+eax*4]
	mov	DWORD PTR _w_i$3[ebp], edx

; 502  : 				
; 503  : 				n[ ii ] = ( w_i << bits ) | carry;

	mov	eax, DWORD PTR _w_i$3[ebp]
	mov	ecx, DWORD PTR _bits$[ebp]
	shl	eax, cl
	or	eax, DWORD PTR _carry$2[ebp]
	mov	ecx, DWORD PTR _ii$1[ebp]
	mov	edx, DWORD PTR _n$[ebp]
	mov	DWORD PTR [edx+ecx*4], eax

; 504  : 				carry = w_i >> ( WORDBITS - bits );

	mov	ecx, 32					; 00000020H
	sub	ecx, DWORD PTR _bits$[ebp]
	mov	eax, DWORD PTR _w_i$3[ebp]
	shr	eax, cl
	mov	DWORD PTR _carry$2[ebp], eax

; 505  : 			}

	jmp	SHORT $LN2@shiftLeft
$LN9@shiftLeft:

; 506  : 		}
; 507  : 	}

	pop	edi
	pop	esi
	pop	ebx
	add	esp, 264				; 00000108H
	cmp	ebp, esp
	call	__RTC_CheckEsp
	mov	esp, ebp
	pop	ebp
	ret	0
??$shiftLeft@$$BY03I@big@@YAXAAY03II@Z ENDP		; big::shiftLeft<unsigned int [4]>
_TEXT	ENDS
; Function compile flags: /Odtp /RTCsu /ZI
; File z:\sampsrc\02xu1\raknet\bigtypes.h
;	COMDAT ??$usetlow@$$BY0BA@I$$BY0BA@I@big@@YAXAAY0BA@I0@Z
_TEXT	SEGMENT
_a$ = 8							; size = 4
_b$ = 12						; size = 4
??$usetlow@$$BY0BA@I$$BY0BA@I@big@@YAXAAY0BA@I0@Z PROC	; big::usetlow<unsigned int [16],unsigned int [16]>, COMDAT

; 314  : 	{

	push	ebp
	mov	ebp, esp
	sub	esp, 192				; 000000c0H
	push	ebx
	push	esi
	push	edi
	lea	edi, DWORD PTR [ebp-192]
	mov	ecx, 48					; 00000030H
	mov	eax, -858993460				; ccccccccH
	rep stosd

; 315  : 		memcpy( a, b, sizeof( T ) );

	push	64					; 00000040H
	mov	eax, DWORD PTR _b$[ebp]
	push	eax
	mov	ecx, DWORD PTR _a$[ebp]
	push	ecx
	call	_memcpy
	add	esp, 12					; 0000000cH

; 316  : #ifdef _MSC_VER
; 317  : #pragma warning( disable : 4318 ) // warning C4318: passing constant zero as the length to memset
; 318  : #endif
; 319  : 		memset( a + BIGWORDCOUNT( T ), 0, sizeof( Bigger ) - sizeof( T ) );

	push	0
	push	0
	mov	eax, DWORD PTR _a$[ebp]
	add	eax, 64					; 00000040H
	push	eax
	call	_memset
	add	esp, 12					; 0000000cH

; 320  : 	}

	pop	edi
	pop	esi
	pop	ebx
	add	esp, 192				; 000000c0H
	cmp	ebp, esp
	call	__RTC_CheckEsp
	mov	esp, ebp
	pop	ebp
	ret	0
??$usetlow@$$BY0BA@I$$BY0BA@I@big@@YAXAAY0BA@I0@Z ENDP	; big::usetlow<unsigned int [16],unsigned int [16]>
_TEXT	ENDS
; Function compile flags: /Odtp /RTCsu /ZI
; File z:\sampsrc\02xu1\raknet\bigtypes.h
;	COMDAT ??$add@$$BY0BA@I@big@@YAXAAY0BA@I0@Z
_TEXT	SEGMENT
_qc1$ = -8						; size = 4
_a$ = 8							; size = 4
_b$ = 12						; size = 4
??$add@$$BY0BA@I@big@@YAXAAY0BA@I0@Z PROC		; big::add<unsigned int [16]>, COMDAT

; 658  : 	{

	push	ebp
	mov	ebp, esp
	sub	esp, 204				; 000000ccH
	push	ebx
	push	esi
	push	edi
	lea	edi, DWORD PTR [ebp-204]
	mov	ecx, 51					; 00000033H
	mov	eax, -858993460				; ccccccccH
	rep stosd

; 659  : #if defined(NO_TEMPLATE_INLINE_ASSEMBLY) && defined(ASSEMBLY_INTEL_SYNTAX)
; 660  : 		const u32 qc1 = BIGWORDCOUNT( T ) / 4 - 1;
; 661  : 		
; 662  : 		BorlandAdd( a, b, qc1 );
; 663  : 		
; 664  : #elif defined(ASSEMBLY_INTEL_SYNTAX)
; 665  : 		
; 666  : 		const u32 qc1 = BIGWORDCOUNT( T ) / 4 - 1;

	mov	DWORD PTR _qc1$[ebp], 3

; 667  : 		
; 668  : 		ASSEMBLY_BLOCK // VS.NET, x86, 32-bit words
; 669  : 		{
; 670  : 		        mov esi, b

	mov	esi, DWORD PTR _b$[ebp]

; 671  : 		        mov edi, a

	mov	edi, DWORD PTR _a$[ebp]

; 672  : 		        mov ecx, qc1

	mov	ecx, DWORD PTR _qc1$[ebp]

; 673  : 		
; 674  : 		        // unrolled loop since word count is a multiple of 4 >= 4
; 675  : 		        mov eax, [ esi ]

	mov	eax, DWORD PTR [esi]

; 676  : 		        xor edx, edx  // edx used later to index later words >= 4

	xor	edx, edx

; 677  : 		
; 678  : 		        add [ edi ], eax  // and now we can use ADD instead of ADC on the first addition

	add	DWORD PTR [edi], eax

; 679  : 		        mov eax, [ esi + 4 ]

	mov	eax, DWORD PTR [esi+4]

; 680  : 		        adc [ edi + 4 ], eax

	adc	DWORD PTR [edi+4], eax

; 681  : 		        mov eax, [ esi + 8 ]

	mov	eax, DWORD PTR [esi+8]

; 682  : 		        adc [ edi + 8 ], eax

	adc	DWORD PTR [edi+8], eax

; 683  : 		        mov eax, [ esi + 12 ]

	mov	eax, DWORD PTR [esi+12]

; 684  : 		        adc [ edi + 12 ], eax

	adc	DWORD PTR [edi+12], eax

; 685  : 		
; 686  : 		        jecxz done_already

	jecxz	$done_already$3
$next_word$4:

; 687  : 		
; 688  : 	        next_word:
; 689  : 		        inc edx

	inc	edx

; 690  : 		        inc edx

	inc	edx

; 691  : 		
; 692  : 		        // unrolled loop since word count is a multiple of 4 >= 4
; 693  : 		        mov eax, [ esi + edx * 8 ]

	mov	eax, DWORD PTR [esi+edx*8]

; 694  : 		        adc [ edi + edx * 8 ], eax

	adc	DWORD PTR [edi+edx*8], eax

; 695  : 		        mov eax, [ esi + edx * 8 + 4 ]

	mov	eax, DWORD PTR [esi+edx*8+4]

; 696  : 		        adc [ edi + edx * 8 + 4 ], eax

	adc	DWORD PTR [edi+edx*8+4], eax

; 697  : 		        mov eax, [ esi + edx * 8 + 8 ]

	mov	eax, DWORD PTR [esi+edx*8+8]

; 698  : 		        adc [ edi + edx * 8 + 8 ], eax

	adc	DWORD PTR [edi+edx*8+8], eax

; 699  : 		        mov eax, [ esi + edx * 8 + 12 ]

	mov	eax, DWORD PTR [esi+edx*8+12]

; 700  : 		        adc [ edi + edx * 8 + 12 ], eax

	adc	DWORD PTR [edi+edx*8+12], eax

; 701  : 		
; 702  : 		        loop next_word

	loop	$next_word$4
$done_already$3:

; 703  : 		
; 704  : 	        done_already:
; 705  : 		}
; 706  : #else
; 707  : 		register word carry = 0;
; 708  : 		
; 709  : 		for ( u32 ii = 0; ii < BIGWORDCOUNT( T ); ++ii )
; 710  : 		{
; 711  : 			word a_i = a[ ii ];
; 712  : 			word b_i = b[ ii ];
; 713  : 			a[ ii ] += b_i + carry;
; 714  : 		
; 715  : 			carry = ( ( a_i & ( WORDALLBITS >> 1 ) ) + ( b_i & ( WORDALLBITS >> 1 ) ) + carry ) >> ( WORDBITS - 1 );
; 716  : 			carry += ( a_i >> ( WORDBITS - 1 ) ) + ( b_i >> ( WORDBITS - 1 ) );
; 717  : 			carry >>= 1;
; 718  : 		}
; 719  : 		
; 720  : #endif
; 721  : 		
; 722  : 	}

	pop	edi
	pop	esi
	pop	ebx
	add	esp, 204				; 000000ccH
	cmp	ebp, esp
	call	__RTC_CheckEsp
	mov	esp, ebp
	pop	ebp
	ret	0
??$add@$$BY0BA@I@big@@YAXAAY0BA@I0@Z ENDP		; big::add<unsigned int [16]>
_TEXT	ENDS
; Function compile flags: /Odtp /RTCsu /ZI
; File z:\sampsrc\02xu1\raknet\bigtypes.h
;	COMDAT ??$umultiply@$$BY07I$$BY07I@big@@YAXAAY07I00@Z
_TEXT	SEGMENT
_ctr$1 = -88						; size = 2
_w_i$2 = -76						; size = 4
_ii$3 = -64						; size = 4
_shifts$ = -52						; size = 4
_a$ = -40						; size = 32
__$ArrayPad$ = -4					; size = 4
_a0$ = 8						; size = 4
_b0$ = 12						; size = 4
_m$ = 16						; size = 4
??$umultiply@$$BY07I$$BY07I@big@@YAXAAY07I00@Z PROC	; big::umultiply<unsigned int [8],unsigned int [8]>, COMDAT

; 916  : 	{

	push	ebp
	mov	ebp, esp
	sub	esp, 284				; 0000011cH
	push	ebx
	push	esi
	push	edi
	lea	edi, DWORD PTR [ebp-284]
	mov	ecx, 71					; 00000047H
	mov	eax, -858993460				; ccccccccH
	rep stosd
	mov	eax, DWORD PTR ___security_cookie
	xor	eax, ebp
	mov	DWORD PTR __$ArrayPad$[ebp], eax

; 917  : 		Bigger a;
; 918  : 		usetlow( a, a0 );

	mov	eax, DWORD PTR _a0$[ebp]
	push	eax
	lea	ecx, DWORD PTR _a$[ebp]
	push	ecx
	call	??$usetlow@$$BY07I$$BY07I@big@@YAXAAY07I0@Z ; big::usetlow<unsigned int [8],unsigned int [8]>
	add	esp, 8

; 919  : 		
; 920  : 		zero( m );

	mov	eax, DWORD PTR _m$[ebp]
	push	eax
	call	??$zero@$$BY07I@big@@YAXAAY07I@Z	; big::zero<unsigned int [8]>
	add	esp, 4

; 921  : 		
; 922  : 		u32 shifts = 0;

	mov	DWORD PTR _shifts$[ebp], 0

; 923  : 		
; 924  : 		for ( u32 ii = 0; ii < BIGWORDCOUNT( T ); ++ii )

	mov	DWORD PTR _ii$3[ebp], 0
	jmp	SHORT $LN7@umultiply
$LN6@umultiply:
	mov	eax, DWORD PTR _ii$3[ebp]
	add	eax, 1
	mov	DWORD PTR _ii$3[ebp], eax
$LN7@umultiply:
	cmp	DWORD PTR _ii$3[ebp], 8
	jae	SHORT $LN8@umultiply

; 925  : 		{
; 926  : 			word w_i = b0[ ii ];

	mov	eax, DWORD PTR _ii$3[ebp]
	mov	ecx, DWORD PTR _b0$[ebp]
	mov	edx, DWORD PTR [ecx+eax*4]
	mov	DWORD PTR _w_i$2[ebp], edx

; 927  : 			
; 928  : 			u16 ctr = WORDBITS;

	mov	eax, 32					; 00000020H
	mov	WORD PTR _ctr$1[ebp], ax
$LN4@umultiply:

; 929  : 			
; 930  : 			while ( w_i )

	cmp	DWORD PTR _w_i$2[ebp], 0
	je	SHORT $LN3@umultiply

; 931  : 			{
; 932  : 				if ( w_i & 1 )

	mov	eax, DWORD PTR _w_i$2[ebp]
	and	eax, 1
	je	SHORT $LN2@umultiply

; 933  : 				{
; 934  : 					if ( shifts )

	cmp	DWORD PTR _shifts$[ebp], 0
	je	SHORT $LN1@umultiply

; 935  : 					{
; 936  : 						shiftLeft( a, shifts );

	mov	eax, DWORD PTR _shifts$[ebp]
	push	eax
	lea	ecx, DWORD PTR _a$[ebp]
	push	ecx
	call	??$shiftLeft@$$BY07I@big@@YAXAAY07II@Z	; big::shiftLeft<unsigned int [8]>
	add	esp, 8

; 937  : 						shifts = 0;

	mov	DWORD PTR _shifts$[ebp], 0
$LN1@umultiply:

; 938  : 					}
; 939  : 					
; 940  : 					add ( m, a )
; 941  : 					
; 942  : 					;

	lea	eax, DWORD PTR _a$[ebp]
	push	eax
	mov	ecx, DWORD PTR _m$[ebp]
	push	ecx
	call	??$add@$$BY07I@big@@YAXAAY07I0@Z	; big::add<unsigned int [8]>
	add	esp, 8
$LN2@umultiply:

; 943  : 				}
; 944  : 				
; 945  : 				w_i >>= 1;

	mov	eax, DWORD PTR _w_i$2[ebp]
	shr	eax, 1
	mov	DWORD PTR _w_i$2[ebp], eax

; 946  : 				++shifts;

	mov	eax, DWORD PTR _shifts$[ebp]
	add	eax, 1
	mov	DWORD PTR _shifts$[ebp], eax

; 947  : 				--ctr;

	mov	ax, WORD PTR _ctr$1[ebp]
	sub	ax, 1
	mov	WORD PTR _ctr$1[ebp], ax

; 948  : 			}

	jmp	SHORT $LN4@umultiply
$LN3@umultiply:

; 949  : 			
; 950  : 			shifts += ctr;

	movzx	eax, WORD PTR _ctr$1[ebp]
	add	eax, DWORD PTR _shifts$[ebp]
	mov	DWORD PTR _shifts$[ebp], eax

; 951  : 		}

	jmp	$LN6@umultiply
$LN8@umultiply:

; 952  : 	}

	push	edx
	mov	ecx, ebp
	push	eax
	lea	edx, DWORD PTR $LN12@umultiply
	call	@_RTC_CheckStackVars@8
	pop	eax
	pop	edx
	pop	edi
	pop	esi
	pop	ebx
	mov	ecx, DWORD PTR __$ArrayPad$[ebp]
	xor	ecx, ebp
	call	@__security_check_cookie@4
	add	esp, 284				; 0000011cH
	cmp	ebp, esp
	call	__RTC_CheckEsp
	mov	esp, ebp
	pop	ebp
	ret	0
$LN12@umultiply:
	DD	1
	DD	$LN11@umultiply
$LN11@umultiply:
	DD	-40					; ffffffd8H
	DD	32					; 00000020H
	DD	$LN10@umultiply
$LN10@umultiply:
	DB	97					; 00000061H
	DB	0
??$umultiply@$$BY07I$$BY07I@big@@YAXAAY07I00@Z ENDP	; big::umultiply<unsigned int [8],unsigned int [8]>
_TEXT	ENDS
; Function compile flags: /Odtp /RTCsu /ZI
; File z:\sampsrc\02xu1\raknet\bigtypes.h
;	COMDAT ??$usquare@$$BY07I@big@@YAXAAY07I@Z
_TEXT	SEGMENT
_ctr$1 = -128						; size = 2
_w_i$2 = -116						; size = 4
_ii$3 = -104						; size = 4
_shifts$ = -92						; size = 4
_a1$ = -80						; size = 32
_a0$ = -40						; size = 32
__$ArrayPad$ = -4					; size = 4
_a$ = 8							; size = 4
??$usquare@$$BY07I@big@@YAXAAY07I@Z PROC		; big::usquare<unsigned int [8]>, COMDAT

; 871  : 	{

	push	ebp
	mov	ebp, esp
	sub	esp, 324				; 00000144H
	push	ebx
	push	esi
	push	edi
	lea	edi, DWORD PTR [ebp-324]
	mov	ecx, 81					; 00000051H
	mov	eax, -858993460				; ccccccccH
	rep stosd
	mov	eax, DWORD PTR ___security_cookie
	xor	eax, ebp
	mov	DWORD PTR __$ArrayPad$[ebp], eax

; 872  : 		T a0, a1;
; 873  : 		
; 874  : 		set ( a0, a )
; 875  : 		
; 876  : 		;

	mov	eax, DWORD PTR _a$[ebp]
	push	eax
	lea	ecx, DWORD PTR _a0$[ebp]
	push	ecx
	call	??$set@$$BY07I@big@@YAXAAY07I0@Z	; big::set<unsigned int [8]>
	add	esp, 8

; 877  : 		set ( a1, a )
; 878  : 		
; 879  : 		;

	mov	eax, DWORD PTR _a$[ebp]
	push	eax
	lea	ecx, DWORD PTR _a1$[ebp]
	push	ecx
	call	??$set@$$BY07I@big@@YAXAAY07I0@Z	; big::set<unsigned int [8]>
	add	esp, 8

; 880  : 		zero( a );

	mov	eax, DWORD PTR _a$[ebp]
	push	eax
	call	??$zero@$$BY07I@big@@YAXAAY07I@Z	; big::zero<unsigned int [8]>
	add	esp, 4

; 881  : 		
; 882  : 		u32 shifts = 0;

	mov	DWORD PTR _shifts$[ebp], 0

; 883  : 		
; 884  : 		for ( u32 ii = 0; ii < BIGWORDCOUNT( T ); ++ii )

	mov	DWORD PTR _ii$3[ebp], 0
	jmp	SHORT $LN7@usquare
$LN6@usquare:
	mov	eax, DWORD PTR _ii$3[ebp]
	add	eax, 1
	mov	DWORD PTR _ii$3[ebp], eax
$LN7@usquare:
	cmp	DWORD PTR _ii$3[ebp], 8
	jae	SHORT $LN8@usquare

; 885  : 		{
; 886  : 			word w_i = a0[ ii ];

	mov	eax, DWORD PTR _ii$3[ebp]
	mov	ecx, DWORD PTR _a0$[ebp+eax*4]
	mov	DWORD PTR _w_i$2[ebp], ecx

; 887  : 			
; 888  : 			u16 ctr = WORDBITS;

	mov	eax, 32					; 00000020H
	mov	WORD PTR _ctr$1[ebp], ax
$LN4@usquare:

; 889  : 			
; 890  : 			while ( w_i )

	cmp	DWORD PTR _w_i$2[ebp], 0
	je	SHORT $LN3@usquare

; 891  : 			{
; 892  : 				if ( w_i & 1 )

	mov	eax, DWORD PTR _w_i$2[ebp]
	and	eax, 1
	je	SHORT $LN2@usquare

; 893  : 				{
; 894  : 					if ( shifts )

	cmp	DWORD PTR _shifts$[ebp], 0
	je	SHORT $LN1@usquare

; 895  : 					{
; 896  : 						shiftLeft( a1, shifts );

	mov	eax, DWORD PTR _shifts$[ebp]
	push	eax
	lea	ecx, DWORD PTR _a1$[ebp]
	push	ecx
	call	??$shiftLeft@$$BY07I@big@@YAXAAY07II@Z	; big::shiftLeft<unsigned int [8]>
	add	esp, 8

; 897  : 						shifts = 0;

	mov	DWORD PTR _shifts$[ebp], 0
$LN1@usquare:

; 898  : 					}
; 899  : 					
; 900  : 					add ( a, a1 )
; 901  : 					
; 902  : 					;

	lea	eax, DWORD PTR _a1$[ebp]
	push	eax
	mov	ecx, DWORD PTR _a$[ebp]
	push	ecx
	call	??$add@$$BY07I@big@@YAXAAY07I0@Z	; big::add<unsigned int [8]>
	add	esp, 8
$LN2@usquare:

; 903  : 				}
; 904  : 				
; 905  : 				w_i >>= 1;

	mov	eax, DWORD PTR _w_i$2[ebp]
	shr	eax, 1
	mov	DWORD PTR _w_i$2[ebp], eax

; 906  : 				++shifts;

	mov	eax, DWORD PTR _shifts$[ebp]
	add	eax, 1
	mov	DWORD PTR _shifts$[ebp], eax

; 907  : 				--ctr;

	mov	ax, WORD PTR _ctr$1[ebp]
	sub	ax, 1
	mov	WORD PTR _ctr$1[ebp], ax

; 908  : 			}

	jmp	SHORT $LN4@usquare
$LN3@usquare:

; 909  : 			
; 910  : 			shifts += ctr;

	movzx	eax, WORD PTR _ctr$1[ebp]
	add	eax, DWORD PTR _shifts$[ebp]
	mov	DWORD PTR _shifts$[ebp], eax

; 911  : 		}

	jmp	$LN6@usquare
$LN8@usquare:

; 912  : 	}

	push	edx
	mov	ecx, ebp
	push	eax
	lea	edx, DWORD PTR $LN13@usquare
	call	@_RTC_CheckStackVars@8
	pop	eax
	pop	edx
	pop	edi
	pop	esi
	pop	ebx
	mov	ecx, DWORD PTR __$ArrayPad$[ebp]
	xor	ecx, ebp
	call	@__security_check_cookie@4
	add	esp, 324				; 00000144H
	cmp	ebp, esp
	call	__RTC_CheckEsp
	mov	esp, ebp
	pop	ebp
	ret	0
	npad	2
$LN13@usquare:
	DD	2
	DD	$LN12@usquare
$LN12@usquare:
	DD	-40					; ffffffd8H
	DD	32					; 00000020H
	DD	$LN10@usquare
	DD	-80					; ffffffb0H
	DD	32					; 00000020H
	DD	$LN11@usquare
$LN11@usquare:
	DB	97					; 00000061H
	DB	49					; 00000031H
	DB	0
$LN10@usquare:
	DB	97					; 00000061H
	DB	48					; 00000030H
	DB	0
??$usquare@$$BY07I@big@@YAXAAY07I@Z ENDP		; big::usquare<unsigned int [8]>
_TEXT	ENDS
; Function compile flags: /Odtp /RTCsu /ZI
; File z:\sampsrc\02xu1\raknet\bigtypes.h
;	COMDAT ??$ushiftRight1@$$BY07I@big@@YAXAAY07I@Z
_TEXT	SEGMENT
_ii$1 = -32						; size = 4
_carry$ = -20						; size = 4
_w_i$ = -8						; size = 4
_n$ = 8							; size = 4
??$ushiftRight1@$$BY07I@big@@YAXAAY07I@Z PROC		; big::ushiftRight1<unsigned int [8]>, COMDAT

; 511  : 	{

	push	ebp
	mov	ebp, esp
	sub	esp, 228				; 000000e4H
	push	ebx
	push	esi
	push	edi
	lea	edi, DWORD PTR [ebp-228]
	mov	ecx, 57					; 00000039H
	mov	eax, -858993460				; ccccccccH
	rep stosd

; 512  : 		register word w_i, carry = 0;

	mov	DWORD PTR _carry$[ebp], 0

; 513  : 		
; 514  : 		for ( s32 ii = BIGWORDCOUNT( T ) - 1; ii >= 0; --ii )

	mov	DWORD PTR _ii$1[ebp], 7
	jmp	SHORT $LN3@ushiftRigh
$LN2@ushiftRigh:
	mov	eax, DWORD PTR _ii$1[ebp]
	sub	eax, 1
	mov	DWORD PTR _ii$1[ebp], eax
$LN3@ushiftRigh:
	cmp	DWORD PTR _ii$1[ebp], 0
	jl	SHORT $LN4@ushiftRigh

; 515  : 		{
; 516  : 			w_i = n[ ii ];

	mov	eax, DWORD PTR _ii$1[ebp]
	mov	ecx, DWORD PTR _n$[ebp]
	mov	edx, DWORD PTR [ecx+eax*4]
	mov	DWORD PTR _w_i$[ebp], edx

; 517  : 			
; 518  : 			n[ ii ] = carry | ( w_i >> 1 );

	mov	eax, DWORD PTR _w_i$[ebp]
	shr	eax, 1
	or	eax, DWORD PTR _carry$[ebp]
	mov	ecx, DWORD PTR _ii$1[ebp]
	mov	edx, DWORD PTR _n$[ebp]
	mov	DWORD PTR [edx+ecx*4], eax

; 519  : 			carry = w_i << ( WORDBITS - 1 );

	mov	eax, DWORD PTR _w_i$[ebp]
	shl	eax, 31					; 0000001fH
	mov	DWORD PTR _carry$[ebp], eax

; 520  : 		}

	jmp	SHORT $LN2@ushiftRigh
$LN4@ushiftRigh:

; 521  : 	}

	pop	edi
	pop	esi
	pop	ebx
	mov	esp, ebp
	pop	ebp
	ret	0
??$ushiftRight1@$$BY07I@big@@YAXAAY07I@Z ENDP		; big::ushiftRight1<unsigned int [8]>
_TEXT	ENDS
; Function compile flags: /Odtp /RTCsu /ZI
; File z:\sampsrc\02xu1\raknet\bigtypes.h
;	COMDAT ??$shiftLeft1@$$BY07I@big@@YAXAAY07I@Z
_TEXT	SEGMENT
_ii$1 = -32						; size = 4
_carry$ = -20						; size = 4
_w_i$ = -8						; size = 4
_n$ = 8							; size = 4
??$shiftLeft1@$$BY07I@big@@YAXAAY07I@Z PROC		; big::shiftLeft1<unsigned int [8]>, COMDAT

; 463  : 	{

	push	ebp
	mov	ebp, esp
	sub	esp, 228				; 000000e4H
	push	ebx
	push	esi
	push	edi
	lea	edi, DWORD PTR [ebp-228]
	mov	ecx, 57					; 00000039H
	mov	eax, -858993460				; ccccccccH
	rep stosd

; 464  : 		register word w_i, carry = 0;

	mov	DWORD PTR _carry$[ebp], 0

; 465  : 		
; 466  : 		for ( u32 ii = 0; ii < BIGWORDCOUNT( T ); ++ii )

	mov	DWORD PTR _ii$1[ebp], 0
	jmp	SHORT $LN3@shiftLeft1
$LN2@shiftLeft1:
	mov	eax, DWORD PTR _ii$1[ebp]
	add	eax, 1
	mov	DWORD PTR _ii$1[ebp], eax
$LN3@shiftLeft1:
	cmp	DWORD PTR _ii$1[ebp], 8
	jae	SHORT $LN4@shiftLeft1

; 467  : 		{
; 468  : 			w_i = n[ ii ];

	mov	eax, DWORD PTR _ii$1[ebp]
	mov	ecx, DWORD PTR _n$[ebp]
	mov	edx, DWORD PTR [ecx+eax*4]
	mov	DWORD PTR _w_i$[ebp], edx

; 469  : 			
; 470  : 			n[ ii ] = ( w_i << 1 ) | carry;

	mov	eax, DWORD PTR _w_i$[ebp]
	shl	eax, 1
	or	eax, DWORD PTR _carry$[ebp]
	mov	ecx, DWORD PTR _ii$1[ebp]
	mov	edx, DWORD PTR _n$[ebp]
	mov	DWORD PTR [edx+ecx*4], eax

; 471  : 			carry = w_i >> ( WORDBITS - 1 );

	mov	eax, DWORD PTR _w_i$[ebp]
	shr	eax, 31					; 0000001fH
	mov	DWORD PTR _carry$[ebp], eax

; 472  : 		}

	jmp	SHORT $LN2@shiftLeft1
$LN4@shiftLeft1:

; 473  : 	}

	pop	edi
	pop	esi
	pop	ebx
	mov	esp, ebp
	pop	ebp
	ret	0
??$shiftLeft1@$$BY07I@big@@YAXAAY07I@Z ENDP		; big::shiftLeft1<unsigned int [8]>
_TEXT	ENDS
; Function compile flags: /Odtp /RTCsu /ZI
; File z:\sampsrc\02xu1\raknet\bigtypes.h
;	COMDAT ??$subtract@$$BY0BA@I@big@@YAXAAY0BA@I0@Z
_TEXT	SEGMENT
_qc1$ = -8						; size = 4
_a$ = 8							; size = 4
_b$ = 12						; size = 4
??$subtract@$$BY0BA@I@big@@YAXAAY0BA@I0@Z PROC		; big::subtract<unsigned int [16]>, COMDAT

; 780  : 	{

	push	ebp
	mov	ebp, esp
	sub	esp, 204				; 000000ccH
	push	ebx
	push	esi
	push	edi
	lea	edi, DWORD PTR [ebp-204]
	mov	ecx, 51					; 00000033H
	mov	eax, -858993460				; ccccccccH
	rep stosd

; 781  : #if defined(NO_TEMPLATE_INLINE_ASSEMBLY) && defined(ASSEMBLY_INTEL_SYNTAX)
; 782  : 		const u32 qc1 = BIGWORDCOUNT( T ) / 4 - 1;
; 783  : 		
; 784  : 		BorlandSubtract( a, b, qc1 );
; 785  : 		
; 786  : #elif defined(ASSEMBLY_INTEL_SYNTAX)
; 787  : 		
; 788  : 		const u32 qc1 = BIGWORDCOUNT( T ) / 4 - 1;

	mov	DWORD PTR _qc1$[ebp], 3

; 789  : 		
; 790  : 		ASSEMBLY_BLOCK // VS.NET, x86, 32-bit words
; 791  : 		{
; 792  : 		        mov esi, b

	mov	esi, DWORD PTR _b$[ebp]

; 793  : 		        mov edi, a

	mov	edi, DWORD PTR _a$[ebp]

; 794  : 		        mov ecx, qc1

	mov	ecx, DWORD PTR _qc1$[ebp]

; 795  : 		
; 796  : 		        // unrolled loop since word count is a multiple of 4 >= 4
; 797  : 		        mov eax, [ esi ]

	mov	eax, DWORD PTR [esi]

; 798  : 		        xor edx, edx  // edx used later to index later words >= 4

	xor	edx, edx

; 799  : 		        sub [ edi ], eax  // first subtraction doesn't need to borrow

	sub	DWORD PTR [edi], eax

; 800  : 		        mov eax, [ esi + 4 ]

	mov	eax, DWORD PTR [esi+4]

; 801  : 		        sbb [ edi + 4 ], eax

	sbb	DWORD PTR [edi+4], eax

; 802  : 		        mov eax, [ esi + 8 ]

	mov	eax, DWORD PTR [esi+8]

; 803  : 		        sbb [ edi + 8 ], eax

	sbb	DWORD PTR [edi+8], eax

; 804  : 		        mov eax, [ esi + 12 ]

	mov	eax, DWORD PTR [esi+12]

; 805  : 		        sbb [ edi + 12 ], eax

	sbb	DWORD PTR [edi+12], eax

; 806  : 		
; 807  : 		        jecxz done_already

	jecxz	$done_already$3
$next_word$4:

; 808  : 		
; 809  : 	        next_word:
; 810  : 		        inc edx

	inc	edx

; 811  : 		        inc edx

	inc	edx

; 812  : 		
; 813  : 		        // unrolled loop since word count is a multiple of 4 >= 4
; 814  : 		        mov eax, [ esi + edx * 8 ]

	mov	eax, DWORD PTR [esi+edx*8]

; 815  : 		        sbb [ edi + edx * 8 ], eax

	sbb	DWORD PTR [edi+edx*8], eax

; 816  : 		        mov eax, [ esi + edx * 8 + 4 ]

	mov	eax, DWORD PTR [esi+edx*8+4]

; 817  : 		        sbb [ edi + edx * 8 + 4 ], eax

	sbb	DWORD PTR [edi+edx*8+4], eax

; 818  : 		        mov eax, [ esi + edx * 8 + 8 ]

	mov	eax, DWORD PTR [esi+edx*8+8]

; 819  : 		        sbb [ edi + edx * 8 + 8 ], eax

	sbb	DWORD PTR [edi+edx*8+8], eax

; 820  : 		        mov eax, [ esi + edx * 8 + 12 ]

	mov	eax, DWORD PTR [esi+edx*8+12]

; 821  : 		        sbb [ edi + edx * 8 + 12 ], eax

	sbb	DWORD PTR [edi+edx*8+12], eax

; 822  : 		
; 823  : 		        loop next_word

	loop	$next_word$4
$done_already$3:

; 824  : 		
; 825  : 	        done_already:
; 826  : 		}
; 827  : #else
; 828  : 		register word borrow = 0;
; 829  : 		
; 830  : 		for ( u32 ii = 0; ii < BIGWORDCOUNT( T ); ++ii )
; 831  : 		{
; 832  : 			word a_i = a[ ii ];
; 833  : 			word b_i = b[ ii ];
; 834  : 			a[ ii ] -= b_i + borrow;
; 835  : 		
; 836  : 			borrow = ( ( a_i & ( WORDALLBITS >> 1 ) ) - ( b_i & ( WORDALLBITS >> 1 ) ) - borrow ) >> ( WORDBITS - 1 );
; 837  : 			borrow += ( b_i >> ( WORDBITS - 1 ) ) - ( a_i >> ( WORDBITS - 1 ) );
; 838  : 			++borrow;
; 839  : 			borrow >>= 1;
; 840  : 		}
; 841  : 		
; 842  : #endif
; 843  : 		
; 844  : 	}

	pop	edi
	pop	esi
	pop	ebx
	add	esp, 204				; 000000ccH
	cmp	ebp, esp
	call	__RTC_CheckEsp
	mov	esp, ebp
	pop	ebp
	ret	0
??$subtract@$$BY0BA@I@big@@YAXAAY0BA@I0@Z ENDP		; big::subtract<unsigned int [16]>
_TEXT	ENDS
; Function compile flags: /Odtp /RTCsu /ZI
; File z:\sampsrc\02xu1\raknet\bigtypes.h
;	COMDAT ??$ushiftRight1@$$BY0BA@I@big@@YAXAAY0BA@I@Z
_TEXT	SEGMENT
_ii$1 = -32						; size = 4
_carry$ = -20						; size = 4
_w_i$ = -8						; size = 4
_n$ = 8							; size = 4
??$ushiftRight1@$$BY0BA@I@big@@YAXAAY0BA@I@Z PROC	; big::ushiftRight1<unsigned int [16]>, COMDAT

; 511  : 	{

	push	ebp
	mov	ebp, esp
	sub	esp, 228				; 000000e4H
	push	ebx
	push	esi
	push	edi
	lea	edi, DWORD PTR [ebp-228]
	mov	ecx, 57					; 00000039H
	mov	eax, -858993460				; ccccccccH
	rep stosd

; 512  : 		register word w_i, carry = 0;

	mov	DWORD PTR _carry$[ebp], 0

; 513  : 		
; 514  : 		for ( s32 ii = BIGWORDCOUNT( T ) - 1; ii >= 0; --ii )

	mov	DWORD PTR _ii$1[ebp], 15		; 0000000fH
	jmp	SHORT $LN3@ushiftRigh
$LN2@ushiftRigh:
	mov	eax, DWORD PTR _ii$1[ebp]
	sub	eax, 1
	mov	DWORD PTR _ii$1[ebp], eax
$LN3@ushiftRigh:
	cmp	DWORD PTR _ii$1[ebp], 0
	jl	SHORT $LN4@ushiftRigh

; 515  : 		{
; 516  : 			w_i = n[ ii ];

	mov	eax, DWORD PTR _ii$1[ebp]
	mov	ecx, DWORD PTR _n$[ebp]
	mov	edx, DWORD PTR [ecx+eax*4]
	mov	DWORD PTR _w_i$[ebp], edx

; 517  : 			
; 518  : 			n[ ii ] = carry | ( w_i >> 1 );

	mov	eax, DWORD PTR _w_i$[ebp]
	shr	eax, 1
	or	eax, DWORD PTR _carry$[ebp]
	mov	ecx, DWORD PTR _ii$1[ebp]
	mov	edx, DWORD PTR _n$[ebp]
	mov	DWORD PTR [edx+ecx*4], eax

; 519  : 			carry = w_i << ( WORDBITS - 1 );

	mov	eax, DWORD PTR _w_i$[ebp]
	shl	eax, 31					; 0000001fH
	mov	DWORD PTR _carry$[ebp], eax

; 520  : 		}

	jmp	SHORT $LN2@ushiftRigh
$LN4@ushiftRigh:

; 521  : 	}

	pop	edi
	pop	esi
	pop	ebx
	mov	esp, ebp
	pop	ebp
	ret	0
??$ushiftRight1@$$BY0BA@I@big@@YAXAAY0BA@I@Z ENDP	; big::ushiftRight1<unsigned int [16]>
_TEXT	ENDS
; Function compile flags: /Odtp /RTCsu /ZI
; File z:\sampsrc\02xu1\raknet\bigtypes.h
;	COMDAT ??$shiftLeft1@$$BY0BA@I@big@@YAXAAY0BA@I@Z
_TEXT	SEGMENT
_ii$1 = -32						; size = 4
_carry$ = -20						; size = 4
_w_i$ = -8						; size = 4
_n$ = 8							; size = 4
??$shiftLeft1@$$BY0BA@I@big@@YAXAAY0BA@I@Z PROC		; big::shiftLeft1<unsigned int [16]>, COMDAT

; 463  : 	{

	push	ebp
	mov	ebp, esp
	sub	esp, 228				; 000000e4H
	push	ebx
	push	esi
	push	edi
	lea	edi, DWORD PTR [ebp-228]
	mov	ecx, 57					; 00000039H
	mov	eax, -858993460				; ccccccccH
	rep stosd

; 464  : 		register word w_i, carry = 0;

	mov	DWORD PTR _carry$[ebp], 0

; 465  : 		
; 466  : 		for ( u32 ii = 0; ii < BIGWORDCOUNT( T ); ++ii )

	mov	DWORD PTR _ii$1[ebp], 0
	jmp	SHORT $LN3@shiftLeft1
$LN2@shiftLeft1:
	mov	eax, DWORD PTR _ii$1[ebp]
	add	eax, 1
	mov	DWORD PTR _ii$1[ebp], eax
$LN3@shiftLeft1:
	cmp	DWORD PTR _ii$1[ebp], 16		; 00000010H
	jae	SHORT $LN4@shiftLeft1

; 467  : 		{
; 468  : 			w_i = n[ ii ];

	mov	eax, DWORD PTR _ii$1[ebp]
	mov	ecx, DWORD PTR _n$[ebp]
	mov	edx, DWORD PTR [ecx+eax*4]
	mov	DWORD PTR _w_i$[ebp], edx

; 469  : 			
; 470  : 			n[ ii ] = ( w_i << 1 ) | carry;

	mov	eax, DWORD PTR _w_i$[ebp]
	shl	eax, 1
	or	eax, DWORD PTR _carry$[ebp]
	mov	ecx, DWORD PTR _ii$1[ebp]
	mov	edx, DWORD PTR _n$[ebp]
	mov	DWORD PTR [edx+ecx*4], eax

; 471  : 			carry = w_i >> ( WORDBITS - 1 );

	mov	eax, DWORD PTR _w_i$[ebp]
	shr	eax, 31					; 0000001fH
	mov	DWORD PTR _carry$[ebp], eax

; 472  : 		}

	jmp	SHORT $LN2@shiftLeft1
$LN4@shiftLeft1:

; 473  : 	}

	pop	edi
	pop	esi
	pop	ebx
	mov	esp, ebp
	pop	ebp
	ret	0
??$shiftLeft1@$$BY0BA@I@big@@YAXAAY0BA@I@Z ENDP		; big::shiftLeft1<unsigned int [16]>
_TEXT	ENDS
; Function compile flags: /Odtp /RTCsu /ZI
; File z:\sampsrc\02xu1\raknet\bigtypes.h
;	COMDAT ??$shiftLeft@$$BY0BA@I@big@@YAXAAY0BA@II@Z
_TEXT	SEGMENT
_ii$1 = -68						; size = 4
_carry$2 = -56						; size = 4
_w_i$3 = -44						; size = 4
_bits$ = -32						; size = 4
_bases$ = -20						; size = 4
_ii$ = -8						; size = 4
_n$ = 8							; size = 4
_s$ = 12						; size = 4
??$shiftLeft@$$BY0BA@I@big@@YAXAAY0BA@II@Z PROC		; big::shiftLeft<unsigned int [16]>, COMDAT

; 477  : 	{

	push	ebp
	mov	ebp, esp
	sub	esp, 264				; 00000108H
	push	ebx
	push	esi
	push	edi
	lea	edi, DWORD PTR [ebp-264]
	mov	ecx, 66					; 00000042H
	mov	eax, -858993460				; ccccccccH
	rep stosd

; 478  : 		register s32 ii;
; 479  : 		register u32 bases = s / WORDBITS;

	mov	eax, DWORD PTR _s$[ebp]
	shr	eax, 5
	mov	DWORD PTR _bases$[ebp], eax

; 480  : 		u32 bits = s % WORDBITS;

	mov	eax, DWORD PTR _s$[ebp]
	xor	edx, edx
	mov	ecx, 32					; 00000020H
	div	ecx
	mov	DWORD PTR _bits$[ebp], edx

; 481  : 		
; 482  : 		// move whole bases first
; 483  : 		
; 484  : 		if ( bases )

	cmp	DWORD PTR _bases$[ebp], 0
	je	SHORT $LN8@shiftLeft

; 485  : 		{
; 486  : 			// shift bases
; 487  : 			
; 488  : 			for ( ii = BIGWORDCOUNT( T ) - 1 - bases; ii >= 0; --ii )

	mov	eax, 15					; 0000000fH
	sub	eax, DWORD PTR _bases$[ebp]
	mov	DWORD PTR _ii$[ebp], eax
	jmp	SHORT $LN7@shiftLeft
$LN6@shiftLeft:
	mov	eax, DWORD PTR _ii$[ebp]
	sub	eax, 1
	mov	DWORD PTR _ii$[ebp], eax
$LN7@shiftLeft:
	cmp	DWORD PTR _ii$[ebp], 0
	jl	SHORT $LN5@shiftLeft

; 489  : 				n[ ii + bases ] = n[ ii ];

	mov	eax, DWORD PTR _ii$[ebp]
	add	eax, DWORD PTR _bases$[ebp]
	mov	ecx, DWORD PTR _n$[ebp]
	mov	edx, DWORD PTR _ii$[ebp]
	mov	esi, DWORD PTR _n$[ebp]
	mov	edx, DWORD PTR [esi+edx*4]
	mov	DWORD PTR [ecx+eax*4], edx
	jmp	SHORT $LN6@shiftLeft
$LN5@shiftLeft:

; 490  : 				
; 491  : 			// clear the original locii of those bases
; 492  : 			memset( n, 0, bases * sizeof( word ) );

	mov	eax, DWORD PTR _bases$[ebp]
	shl	eax, 2
	push	eax
	push	0
	mov	ecx, DWORD PTR _n$[ebp]
	push	ecx
	call	_memset
	add	esp, 12					; 0000000cH
$LN8@shiftLeft:

; 493  : 		}
; 494  : 		
; 495  : 		if ( bits )

	cmp	DWORD PTR _bits$[ebp], 0
	je	SHORT $LN9@shiftLeft

; 496  : 		{
; 497  : 			register word w_i, carry = 0;

	mov	DWORD PTR _carry$2[ebp], 0

; 498  : 			
; 499  : 			for ( u32 ii = 0; ii < BIGWORDCOUNT( T ); ++ii )

	mov	DWORD PTR _ii$1[ebp], 0
	jmp	SHORT $LN3@shiftLeft
$LN2@shiftLeft:
	mov	eax, DWORD PTR _ii$1[ebp]
	add	eax, 1
	mov	DWORD PTR _ii$1[ebp], eax
$LN3@shiftLeft:
	cmp	DWORD PTR _ii$1[ebp], 16		; 00000010H
	jae	SHORT $LN9@shiftLeft

; 500  : 			{
; 501  : 				w_i = n[ ii ];

	mov	eax, DWORD PTR _ii$1[ebp]
	mov	ecx, DWORD PTR _n$[ebp]
	mov	edx, DWORD PTR [ecx+eax*4]
	mov	DWORD PTR _w_i$3[ebp], edx

; 502  : 				
; 503  : 				n[ ii ] = ( w_i << bits ) | carry;

	mov	eax, DWORD PTR _w_i$3[ebp]
	mov	ecx, DWORD PTR _bits$[ebp]
	shl	eax, cl
	or	eax, DWORD PTR _carry$2[ebp]
	mov	ecx, DWORD PTR _ii$1[ebp]
	mov	edx, DWORD PTR _n$[ebp]
	mov	DWORD PTR [edx+ecx*4], eax

; 504  : 				carry = w_i >> ( WORDBITS - bits );

	mov	ecx, 32					; 00000020H
	sub	ecx, DWORD PTR _bits$[ebp]
	mov	eax, DWORD PTR _w_i$3[ebp]
	shr	eax, cl
	mov	DWORD PTR _carry$2[ebp], eax

; 505  : 			}

	jmp	SHORT $LN2@shiftLeft
$LN9@shiftLeft:

; 506  : 		}
; 507  : 	}

	pop	edi
	pop	esi
	pop	ebx
	add	esp, 264				; 00000108H
	cmp	ebp, esp
	call	__RTC_CheckEsp
	mov	esp, ebp
	pop	ebp
	ret	0
??$shiftLeft@$$BY0BA@I@big@@YAXAAY0BA@II@Z ENDP		; big::shiftLeft<unsigned int [16]>
_TEXT	ENDS
; Function compile flags: /Odtp /RTCsu /ZI
; File z:\sampsrc\02xu1\raknet\bigtypes.h
;	COMDAT ??$ugreater@$$BY0BA@I@big@@YA_NAAY0BA@I0@Z
_TEXT	SEGMENT
_ii$1 = -8						; size = 4
_a$ = 8							; size = 4
_b$ = 12						; size = 4
??$ugreater@$$BY0BA@I@big@@YA_NAAY0BA@I0@Z PROC		; big::ugreater<unsigned int [16]>, COMDAT

; 353  : 	{

	push	ebp
	mov	ebp, esp
	sub	esp, 204				; 000000ccH
	push	ebx
	push	esi
	push	edi
	lea	edi, DWORD PTR [ebp-204]
	mov	ecx, 51					; 00000033H
	mov	eax, -858993460				; ccccccccH
	rep stosd

; 354  : 		for ( s32 ii = BIGWORDCOUNT( T ) - 1; ii >= 0; --ii )

	mov	DWORD PTR _ii$1[ebp], 15		; 0000000fH
	jmp	SHORT $LN5@ugreater
$LN4@ugreater:
	mov	eax, DWORD PTR _ii$1[ebp]
	sub	eax, 1
	mov	DWORD PTR _ii$1[ebp], eax
$LN5@ugreater:
	cmp	DWORD PTR _ii$1[ebp], 0
	jl	SHORT $LN3@ugreater

; 355  : 		{
; 356  : 			if ( a[ ii ] > b[ ii ] )

	mov	eax, DWORD PTR _ii$1[ebp]
	mov	ecx, DWORD PTR _a$[ebp]
	mov	edx, DWORD PTR _ii$1[ebp]
	mov	esi, DWORD PTR _b$[ebp]
	mov	eax, DWORD PTR [ecx+eax*4]
	cmp	eax, DWORD PTR [esi+edx*4]
	jbe	SHORT $LN2@ugreater

; 357  : 				return true;

	mov	al, 1
	jmp	SHORT $LN6@ugreater
$LN2@ugreater:

; 358  : 				
; 359  : 			if ( a[ ii ] < b[ ii ] )

	mov	eax, DWORD PTR _ii$1[ebp]
	mov	ecx, DWORD PTR _a$[ebp]
	mov	edx, DWORD PTR _ii$1[ebp]
	mov	esi, DWORD PTR _b$[ebp]
	mov	eax, DWORD PTR [ecx+eax*4]
	cmp	eax, DWORD PTR [esi+edx*4]
	jae	SHORT $LN1@ugreater

; 360  : 				return false;

	xor	al, al
	jmp	SHORT $LN6@ugreater
$LN1@ugreater:

; 361  : 		}

	jmp	SHORT $LN4@ugreater
$LN3@ugreater:

; 362  : 		
; 363  : 		return false;

	xor	al, al
$LN6@ugreater:

; 364  : 	}

	pop	edi
	pop	esi
	pop	ebx
	mov	esp, ebp
	pop	ebp
	ret	0
??$ugreater@$$BY0BA@I@big@@YA_NAAY0BA@I0@Z ENDP		; big::ugreater<unsigned int [16]>
_TEXT	ENDS
; Function compile flags: /Odtp /RTCsu /ZI
; File z:\sampsrc\02xu1\raknet\bigtypes.h
;	COMDAT ??$zero@$$BY0BA@I@big@@YAXAAY0BA@I@Z
_TEXT	SEGMENT
_n$ = 8							; size = 4
??$zero@$$BY0BA@I@big@@YAXAAY0BA@I@Z PROC		; big::zero<unsigned int [16]>, COMDAT

; 288  : 	{

	push	ebp
	mov	ebp, esp
	sub	esp, 192				; 000000c0H
	push	ebx
	push	esi
	push	edi
	lea	edi, DWORD PTR [ebp-192]
	mov	ecx, 48					; 00000030H
	mov	eax, -858993460				; ccccccccH
	rep stosd

; 289  : 		memset( n, 0, sizeof( T ) );

	push	64					; 00000040H
	push	0
	mov	eax, DWORD PTR _n$[ebp]
	push	eax
	call	_memset
	add	esp, 12					; 0000000cH

; 290  : 	}

	pop	edi
	pop	esi
	pop	ebx
	add	esp, 192				; 000000c0H
	cmp	ebp, esp
	call	__RTC_CheckEsp
	mov	esp, ebp
	pop	ebp
	ret	0
??$zero@$$BY0BA@I@big@@YAXAAY0BA@I@Z ENDP		; big::zero<unsigned int [16]>
_TEXT	ENDS
; Function compile flags: /Odtp /RTCsu /ZI
; File z:\sampsrc\02xu1\raknet\bigtypes.h
;	COMDAT ??$set@$$BY0BA@I@big@@YAXAAY0BA@I0@Z
_TEXT	SEGMENT
_a$ = 8							; size = 4
_b$ = 12						; size = 4
??$set@$$BY0BA@I@big@@YAXAAY0BA@I0@Z PROC		; big::set<unsigned int [16]>, COMDAT

; 308  : 	{

	push	ebp
	mov	ebp, esp
	sub	esp, 192				; 000000c0H
	push	ebx
	push	esi
	push	edi
	lea	edi, DWORD PTR [ebp-192]
	mov	ecx, 48					; 00000030H
	mov	eax, -858993460				; ccccccccH
	rep stosd

; 309  : 		memcpy( a, b, sizeof( T ) );

	push	64					; 00000040H
	mov	eax, DWORD PTR _b$[ebp]
	push	eax
	mov	ecx, DWORD PTR _a$[ebp]
	push	ecx
	call	_memcpy
	add	esp, 12					; 0000000cH

; 310  : 	}

	pop	edi
	pop	esi
	pop	ebx
	add	esp, 192				; 000000c0H
	cmp	ebp, esp
	call	__RTC_CheckEsp
	mov	esp, ebp
	pop	ebp
	ret	0
??$set@$$BY0BA@I@big@@YAXAAY0BA@I0@Z ENDP		; big::set<unsigned int [16]>
_TEXT	ENDS
; Function compile flags: /Odtp /RTCsu /ZI
; File z:\sampsrc\02xu1\raknet\rsacrypt.h
;	COMDAT ??$SubMulMod@$$BY07I@big@@YAXAAY07I0000@Z
_TEXT	SEGMENT
_y$ = -184						; size = 32
_dn$ = -144						; size = 64
_da$ = -72						; size = 64
__$ArrayPad$ = -4					; size = 4
_a$ = 8							; size = 4
_b$ = 12						; size = 4
_c$ = 16						; size = 4
_n$ = 20						; size = 4
_x$ = 24						; size = 4
??$SubMulMod@$$BY07I@big@@YAXAAY07I0000@Z PROC		; big::SubMulMod<unsigned int [8]>, COMDAT

; 165  : 	{

	push	ebp
	mov	ebp, esp
	sub	esp, 380				; 0000017cH
	push	ebx
	push	esi
	push	edi
	lea	edi, DWORD PTR [ebp-380]
	mov	ecx, 95					; 0000005fH
	mov	eax, -858993460				; ccccccccH
	rep stosd
	mov	eax, DWORD PTR ___security_cookie
	xor	eax, ebp
	mov	DWORD PTR __$ArrayPad$[ebp], eax

; 166  : 		BIGDOUBLESIZE( T, da );
; 167  : 		BIGDOUBLESIZE( T, dn );
; 168  : 		T y;
; 169  : 
; 170  : 		// y = a b (mod n)
; 171  : 		usetlow( da, a );

	mov	eax, DWORD PTR _a$[ebp]
	push	eax
	lea	ecx, DWORD PTR _da$[ebp]
	push	ecx
	call	??$usetlow@$$BY07I$$BY0BA@I@big@@YAXAAY0BA@IAAY07I@Z ; big::usetlow<unsigned int [8],unsigned int [16]>
	add	esp, 8

; 172  : 		umultiply( da, b );

	mov	eax, DWORD PTR _b$[ebp]
	push	eax
	lea	ecx, DWORD PTR _da$[ebp]
	push	ecx
	call	??$umultiply@$$BY07I$$BY0BA@I@big@@YAXAAY0BA@IAAY07I@Z ; big::umultiply<unsigned int [8],unsigned int [16]>
	add	esp, 8

; 173  : 		usetlow( dn, n );

	mov	eax, DWORD PTR _n$[ebp]
	push	eax
	lea	ecx, DWORD PTR _dn$[ebp]
	push	ecx
	call	??$usetlow@$$BY07I$$BY0BA@I@big@@YAXAAY0BA@IAAY07I@Z ; big::usetlow<unsigned int [8],unsigned int [16]>
	add	esp, 8

; 174  : 		umodulo( da, dn, da );

	lea	eax, DWORD PTR _da$[ebp]
	push	eax
	lea	ecx, DWORD PTR _dn$[ebp]
	push	ecx
	lea	edx, DWORD PTR _da$[ebp]
	push	edx
	call	??$umodulo@$$BY0BA@I@big@@YAXAAY0BA@I00@Z ; big::umodulo<unsigned int [16]>
	add	esp, 12					; 0000000cH

; 175  : 		takelow( y, da );

	lea	eax, DWORD PTR _da$[ebp]
	push	eax
	lea	ecx, DWORD PTR _y$[ebp]
	push	ecx
	call	??$takelow@$$BY07I$$BY0BA@I@big@@YAXAAY07IAAY0BA@I@Z ; big::takelow<unsigned int [8],unsigned int [16]>
	add	esp, 8

; 176  : 
; 177  : 		// x = (c - y) (mod n) > 0
; 178  : 
; 179  : 		set ( x, c )
; 180  : 
; 181  : 			;

	mov	eax, DWORD PTR _c$[ebp]
	push	eax
	mov	ecx, DWORD PTR _x$[ebp]
	push	ecx
	call	??$set@$$BY07I@big@@YAXAAY07I0@Z	; big::set<unsigned int [8]>
	add	esp, 8

; 182  : 		if ( ugreater( c, y ) )

	lea	eax, DWORD PTR _y$[ebp]
	push	eax
	mov	ecx, DWORD PTR _c$[ebp]
	push	ecx
	call	??$ugreater@$$BY07I@big@@YA_NAAY07I0@Z	; big::ugreater<unsigned int [8]>
	add	esp, 8
	movzx	edx, al
	test	edx, edx
	je	SHORT $LN2@SubMulMod

; 183  : 		{
; 184  : 			subtract( x, y );

	lea	eax, DWORD PTR _y$[ebp]
	push	eax
	mov	ecx, DWORD PTR _x$[ebp]
	push	ecx
	call	??$subtract@$$BY07I@big@@YAXAAY07I0@Z	; big::subtract<unsigned int [8]>
	add	esp, 8

; 185  : 		}
; 186  : 
; 187  : 		else

	jmp	SHORT $LN3@SubMulMod
$LN2@SubMulMod:

; 188  : 		{
; 189  : 			subtract( x, y );

	lea	eax, DWORD PTR _y$[ebp]
	push	eax
	mov	ecx, DWORD PTR _x$[ebp]
	push	ecx
	call	??$subtract@$$BY07I@big@@YAXAAY07I0@Z	; big::subtract<unsigned int [8]>
	add	esp, 8

; 190  : 
; 191  : 			add ( x, n )
; 192  : 
; 193  : 				;

	mov	eax, DWORD PTR _n$[ebp]
	push	eax
	mov	ecx, DWORD PTR _x$[ebp]
	push	ecx
	call	??$add@$$BY07I@big@@YAXAAY07I0@Z	; big::add<unsigned int [8]>
	add	esp, 8
$LN3@SubMulMod:

; 194  : 		}
; 195  : 	}

	push	edx
	mov	ecx, ebp
	push	eax
	lea	edx, DWORD PTR $LN9@SubMulMod
	call	@_RTC_CheckStackVars@8
	pop	eax
	pop	edx
	pop	edi
	pop	esi
	pop	ebx
	mov	ecx, DWORD PTR __$ArrayPad$[ebp]
	xor	ecx, ebp
	call	@__security_check_cookie@4
	add	esp, 380				; 0000017cH
	cmp	ebp, esp
	call	__RTC_CheckEsp
	mov	esp, ebp
	pop	ebp
	ret	0
	npad	2
$LN9@SubMulMod:
	DD	3
	DD	$LN8@SubMulMod
$LN8@SubMulMod:
	DD	-72					; ffffffb8H
	DD	64					; 00000040H
	DD	$LN5@SubMulMod
	DD	-144					; ffffff70H
	DD	64					; 00000040H
	DD	$LN6@SubMulMod
	DD	-184					; ffffff48H
	DD	32					; 00000020H
	DD	$LN7@SubMulMod
$LN7@SubMulMod:
	DB	121					; 00000079H
	DB	0
$LN6@SubMulMod:
	DB	100					; 00000064H
	DB	110					; 0000006eH
	DB	0
$LN5@SubMulMod:
	DB	100					; 00000064H
	DB	97					; 00000061H
	DB	0
??$SubMulMod@$$BY07I@big@@YAXAAY07I0000@Z ENDP		; big::SubMulMod<unsigned int [8]>
_TEXT	ENDS
; Function compile flags: /Odtp /RTCsu /ZI
; File z:\sampsrc\02xu1\raknet\bigtypes.h
;	COMDAT ??$subtract@$$BY07I@big@@YAXAAY07I0@Z
_TEXT	SEGMENT
_qc1$ = -8						; size = 4
_a$ = 8							; size = 4
_b$ = 12						; size = 4
??$subtract@$$BY07I@big@@YAXAAY07I0@Z PROC		; big::subtract<unsigned int [8]>, COMDAT

; 780  : 	{

	push	ebp
	mov	ebp, esp
	sub	esp, 204				; 000000ccH
	push	ebx
	push	esi
	push	edi
	lea	edi, DWORD PTR [ebp-204]
	mov	ecx, 51					; 00000033H
	mov	eax, -858993460				; ccccccccH
	rep stosd

; 781  : #if defined(NO_TEMPLATE_INLINE_ASSEMBLY) && defined(ASSEMBLY_INTEL_SYNTAX)
; 782  : 		const u32 qc1 = BIGWORDCOUNT( T ) / 4 - 1;
; 783  : 		
; 784  : 		BorlandSubtract( a, b, qc1 );
; 785  : 		
; 786  : #elif defined(ASSEMBLY_INTEL_SYNTAX)
; 787  : 		
; 788  : 		const u32 qc1 = BIGWORDCOUNT( T ) / 4 - 1;

	mov	DWORD PTR _qc1$[ebp], 1

; 789  : 		
; 790  : 		ASSEMBLY_BLOCK // VS.NET, x86, 32-bit words
; 791  : 		{
; 792  : 		        mov esi, b

	mov	esi, DWORD PTR _b$[ebp]

; 793  : 		        mov edi, a

	mov	edi, DWORD PTR _a$[ebp]

; 794  : 		        mov ecx, qc1

	mov	ecx, DWORD PTR _qc1$[ebp]

; 795  : 		
; 796  : 		        // unrolled loop since word count is a multiple of 4 >= 4
; 797  : 		        mov eax, [ esi ]

	mov	eax, DWORD PTR [esi]

; 798  : 		        xor edx, edx  // edx used later to index later words >= 4

	xor	edx, edx

; 799  : 		        sub [ edi ], eax  // first subtraction doesn't need to borrow

	sub	DWORD PTR [edi], eax

; 800  : 		        mov eax, [ esi + 4 ]

	mov	eax, DWORD PTR [esi+4]

; 801  : 		        sbb [ edi + 4 ], eax

	sbb	DWORD PTR [edi+4], eax

; 802  : 		        mov eax, [ esi + 8 ]

	mov	eax, DWORD PTR [esi+8]

; 803  : 		        sbb [ edi + 8 ], eax

	sbb	DWORD PTR [edi+8], eax

; 804  : 		        mov eax, [ esi + 12 ]

	mov	eax, DWORD PTR [esi+12]

; 805  : 		        sbb [ edi + 12 ], eax

	sbb	DWORD PTR [edi+12], eax

; 806  : 		
; 807  : 		        jecxz done_already

	jecxz	$done_already$3
$next_word$4:

; 808  : 		
; 809  : 	        next_word:
; 810  : 		        inc edx

	inc	edx

; 811  : 		        inc edx

	inc	edx

; 812  : 		
; 813  : 		        // unrolled loop since word count is a multiple of 4 >= 4
; 814  : 		        mov eax, [ esi + edx * 8 ]

	mov	eax, DWORD PTR [esi+edx*8]

; 815  : 		        sbb [ edi + edx * 8 ], eax

	sbb	DWORD PTR [edi+edx*8], eax

; 816  : 		        mov eax, [ esi + edx * 8 + 4 ]

	mov	eax, DWORD PTR [esi+edx*8+4]

; 817  : 		        sbb [ edi + edx * 8 + 4 ], eax

	sbb	DWORD PTR [edi+edx*8+4], eax

; 818  : 		        mov eax, [ esi + edx * 8 + 8 ]

	mov	eax, DWORD PTR [esi+edx*8+8]

; 819  : 		        sbb [ edi + edx * 8 + 8 ], eax

	sbb	DWORD PTR [edi+edx*8+8], eax

; 820  : 		        mov eax, [ esi + edx * 8 + 12 ]

	mov	eax, DWORD PTR [esi+edx*8+12]

; 821  : 		        sbb [ edi + edx * 8 + 12 ], eax

	sbb	DWORD PTR [edi+edx*8+12], eax

; 822  : 		
; 823  : 		        loop next_word

	loop	$next_word$4
$done_already$3:

; 824  : 		
; 825  : 	        done_already:
; 826  : 		}
; 827  : #else
; 828  : 		register word borrow = 0;
; 829  : 		
; 830  : 		for ( u32 ii = 0; ii < BIGWORDCOUNT( T ); ++ii )
; 831  : 		{
; 832  : 			word a_i = a[ ii ];
; 833  : 			word b_i = b[ ii ];
; 834  : 			a[ ii ] -= b_i + borrow;
; 835  : 		
; 836  : 			borrow = ( ( a_i & ( WORDALLBITS >> 1 ) ) - ( b_i & ( WORDALLBITS >> 1 ) ) - borrow ) >> ( WORDBITS - 1 );
; 837  : 			borrow += ( b_i >> ( WORDBITS - 1 ) ) - ( a_i >> ( WORDBITS - 1 ) );
; 838  : 			++borrow;
; 839  : 			borrow >>= 1;
; 840  : 		}
; 841  : 		
; 842  : #endif
; 843  : 		
; 844  : 	}

	pop	edi
	pop	esi
	pop	ebx
	add	esp, 204				; 000000ccH
	cmp	ebp, esp
	call	__RTC_CheckEsp
	mov	esp, ebp
	pop	ebp
	ret	0
??$subtract@$$BY07I@big@@YAXAAY07I0@Z ENDP		; big::subtract<unsigned int [8]>
_TEXT	ENDS
; Function compile flags: /Odtp /RTCsu /ZI
; File z:\sampsrc\02xu1\raknet\bigtypes.h
;	COMDAT ??$isZero@$$BY07I@big@@YA_NAAY07I@Z
_TEXT	SEGMENT
_ii$1 = -8						; size = 4
_n$ = 8							; size = 4
??$isZero@$$BY07I@big@@YA_NAAY07I@Z PROC		; big::isZero<unsigned int [8]>, COMDAT

; 419  : 	{

	push	ebp
	mov	ebp, esp
	sub	esp, 204				; 000000ccH
	push	ebx
	push	esi
	push	edi
	lea	edi, DWORD PTR [ebp-204]
	mov	ecx, 51					; 00000033H
	mov	eax, -858993460				; ccccccccH
	rep stosd

; 420  : 		for ( u32 ii = 0; ii < BIGWORDCOUNT( T ); ++ii )

	mov	DWORD PTR _ii$1[ebp], 0
	jmp	SHORT $LN4@isZero
$LN3@isZero:
	mov	eax, DWORD PTR _ii$1[ebp]
	add	eax, 1
	mov	DWORD PTR _ii$1[ebp], eax
$LN4@isZero:
	cmp	DWORD PTR _ii$1[ebp], 8
	jae	SHORT $LN2@isZero

; 421  : 			if ( n[ ii ] )

	mov	eax, DWORD PTR _ii$1[ebp]
	mov	ecx, DWORD PTR _n$[ebp]
	cmp	DWORD PTR [ecx+eax*4], 0
	je	SHORT $LN1@isZero

; 422  : 				return false;

	xor	al, al
	jmp	SHORT $LN5@isZero
$LN1@isZero:

; 423  : 				
; 424  : 		return true;

	jmp	SHORT $LN3@isZero
$LN2@isZero:
	mov	al, 1
$LN5@isZero:

; 425  : 	}

	pop	edi
	pop	esi
	pop	ebx
	mov	esp, ebp
	pop	ebp
	ret	0
??$isZero@$$BY07I@big@@YA_NAAY07I@Z ENDP		; big::isZero<unsigned int [8]>
_TEXT	ENDS
; Function compile flags: /Odtp /RTCsu /ZI
; File z:\sampsrc\02xu1\raknet\bigtypes.h
;	COMDAT ??$equal@$$BY03I@big@@YA_NAAY03I0@Z
_TEXT	SEGMENT
tv69 = -196						; size = 4
_a$ = 8							; size = 4
_b$ = 12						; size = 4
??$equal@$$BY03I@big@@YA_NAAY03I0@Z PROC		; big::equal<unsigned int [4]>, COMDAT

; 413  : 	{

	push	ebp
	mov	ebp, esp
	sub	esp, 196				; 000000c4H
	push	ebx
	push	esi
	push	edi
	lea	edi, DWORD PTR [ebp-196]
	mov	ecx, 49					; 00000031H
	mov	eax, -858993460				; ccccccccH
	rep stosd

; 414  : 		return memcmp( a, b, sizeof( T ) ) == 0;

	push	16					; 00000010H
	mov	eax, DWORD PTR _b$[ebp]
	push	eax
	mov	ecx, DWORD PTR _a$[ebp]
	push	ecx
	call	_memcmp
	add	esp, 12					; 0000000cH
	test	eax, eax
	jne	SHORT $LN3@equal
	mov	DWORD PTR tv69[ebp], 1
	jmp	SHORT $LN4@equal
$LN3@equal:
	mov	DWORD PTR tv69[ebp], 0
$LN4@equal:
	mov	al, BYTE PTR tv69[ebp]

; 415  : 	}

	pop	edi
	pop	esi
	pop	ebx
	add	esp, 196				; 000000c4H
	cmp	ebp, esp
	call	__RTC_CheckEsp
	mov	esp, ebp
	pop	ebp
	ret	0
??$equal@$$BY03I@big@@YA_NAAY03I0@Z ENDP		; big::equal<unsigned int [4]>
_TEXT	ENDS
; Function compile flags: /Odtp /RTCsu /ZI
; File z:\sampsrc\02xu1\raknet\bigtypes.h
;	COMDAT ??$ushiftRight1@$$BY03I@big@@YAXAAY03I@Z
_TEXT	SEGMENT
_ii$1 = -32						; size = 4
_carry$ = -20						; size = 4
_w_i$ = -8						; size = 4
_n$ = 8							; size = 4
??$ushiftRight1@$$BY03I@big@@YAXAAY03I@Z PROC		; big::ushiftRight1<unsigned int [4]>, COMDAT

; 511  : 	{

	push	ebp
	mov	ebp, esp
	sub	esp, 228				; 000000e4H
	push	ebx
	push	esi
	push	edi
	lea	edi, DWORD PTR [ebp-228]
	mov	ecx, 57					; 00000039H
	mov	eax, -858993460				; ccccccccH
	rep stosd

; 512  : 		register word w_i, carry = 0;

	mov	DWORD PTR _carry$[ebp], 0

; 513  : 		
; 514  : 		for ( s32 ii = BIGWORDCOUNT( T ) - 1; ii >= 0; --ii )

	mov	DWORD PTR _ii$1[ebp], 3
	jmp	SHORT $LN3@ushiftRigh
$LN2@ushiftRigh:
	mov	eax, DWORD PTR _ii$1[ebp]
	sub	eax, 1
	mov	DWORD PTR _ii$1[ebp], eax
$LN3@ushiftRigh:
	cmp	DWORD PTR _ii$1[ebp], 0
	jl	SHORT $LN4@ushiftRigh

; 515  : 		{
; 516  : 			w_i = n[ ii ];

	mov	eax, DWORD PTR _ii$1[ebp]
	mov	ecx, DWORD PTR _n$[ebp]
	mov	edx, DWORD PTR [ecx+eax*4]
	mov	DWORD PTR _w_i$[ebp], edx

; 517  : 			
; 518  : 			n[ ii ] = carry | ( w_i >> 1 );

	mov	eax, DWORD PTR _w_i$[ebp]
	shr	eax, 1
	or	eax, DWORD PTR _carry$[ebp]
	mov	ecx, DWORD PTR _ii$1[ebp]
	mov	edx, DWORD PTR _n$[ebp]
	mov	DWORD PTR [edx+ecx*4], eax

; 519  : 			carry = w_i << ( WORDBITS - 1 );

	mov	eax, DWORD PTR _w_i$[ebp]
	shl	eax, 31					; 0000001fH
	mov	DWORD PTR _carry$[ebp], eax

; 520  : 		}

	jmp	SHORT $LN2@ushiftRigh
$LN4@ushiftRigh:

; 521  : 	}

	pop	edi
	pop	esi
	pop	ebx
	mov	esp, ebp
	pop	ebp
	ret	0
??$ushiftRight1@$$BY03I@big@@YAXAAY03I@Z ENDP		; big::ushiftRight1<unsigned int [4]>
_TEXT	ENDS
; Function compile flags: /Odtp /RTCsu /ZI
; File z:\sampsrc\02xu1\raknet\bigtypes.h
;	COMDAT ??$umodulo@$$BY03I@big@@YAXAAY03I00@Z
_TEXT	SEGMENT
tv151 = -260						; size = 4
_jj$1 = -60						; size = 4
_ii$2 = -48						; size = 4
_shifts$ = -36						; size = 4
_b$ = -24						; size = 16
__$ArrayPad$ = -4					; size = 4
_a$ = 8							; size = 4
_b0$ = 12						; size = 4
_r$ = 16						; size = 4
??$umodulo@$$BY03I@big@@YAXAAY03I00@Z PROC		; big::umodulo<unsigned int [4]>, COMDAT

; 1250 : 	{

	push	ebp
	mov	ebp, esp
	sub	esp, 260				; 00000104H
	push	ebx
	push	esi
	push	edi
	lea	edi, DWORD PTR [ebp-260]
	mov	ecx, 65					; 00000041H
	mov	eax, -858993460				; ccccccccH
	rep stosd
	mov	eax, DWORD PTR ___security_cookie
	xor	eax, ebp
	mov	DWORD PTR __$ArrayPad$[ebp], eax

; 1251 : 		T b;
; 1252 : 		u32 shifts = 1;

	mov	DWORD PTR _shifts$[ebp], 1

; 1253 : 		
; 1254 : 		set ( b, b0 )
; 1255 : 		
; 1256 : 		;

	mov	eax, DWORD PTR _b0$[ebp]
	push	eax
	lea	ecx, DWORD PTR _b$[ebp]
	push	ecx
	call	??$set@$$BY03I@big@@YAXAAY03I0@Z	; big::set<unsigned int [4]>
	add	esp, 8

; 1257 : 		set ( r, a )
; 1258 : 		
; 1259 : 		;

	mov	eax, DWORD PTR _a$[ebp]
	push	eax
	mov	ecx, DWORD PTR _r$[ebp]
	push	ecx
	call	??$set@$$BY03I@big@@YAXAAY03I0@Z	; big::set<unsigned int [4]>
	add	esp, 8

; 1260 : 		
; 1261 : 		if ( !BIGHIGHBIT( b ) && ugreater( r, b ) )

	mov	eax, 4
	imul	ecx, eax, 3
	mov	edx, DWORD PTR _b$[ebp+ecx]
	and	edx, -2147483648			; 80000000H
	jne	$LN19@umodulo
	lea	eax, DWORD PTR _b$[ebp]
	push	eax
	mov	ecx, DWORD PTR _r$[ebp]
	push	ecx
	call	??$ugreater@$$BY03I@big@@YA_NAAY03I0@Z	; big::ugreater<unsigned int [4]>
	add	esp, 8
	movzx	edx, al
	test	edx, edx
	je	$LN19@umodulo

; 1262 : 		{
; 1263 : 			s32 ii, jj;
; 1264 : 			
; 1265 : 			// shift by words if possible
; 1266 : 			
; 1267 : 			for ( ii = BIGWORDCOUNT( T ) - 1; ii >= 0; --ii )

	mov	DWORD PTR _ii$2[ebp], 3
	jmp	SHORT $LN18@umodulo
$LN17@umodulo:
	mov	eax, DWORD PTR _ii$2[ebp]
	sub	eax, 1
	mov	DWORD PTR _ii$2[ebp], eax
$LN18@umodulo:
	cmp	DWORD PTR _ii$2[ebp], 0
	jl	SHORT $LN16@umodulo

; 1268 : 				if ( r[ ii ] )

	mov	eax, DWORD PTR _ii$2[ebp]
	mov	ecx, DWORD PTR _r$[ebp]
	cmp	DWORD PTR [ecx+eax*4], 0
	je	SHORT $LN15@umodulo

; 1269 : 					break;

	jmp	SHORT $LN16@umodulo
$LN15@umodulo:

; 1270 : 					
; 1271 : 			for ( jj = ii; jj >= 0; --jj )

	jmp	SHORT $LN17@umodulo
$LN16@umodulo:
	mov	eax, DWORD PTR _ii$2[ebp]
	mov	DWORD PTR _jj$1[ebp], eax
	jmp	SHORT $LN14@umodulo
$LN13@umodulo:
	mov	eax, DWORD PTR _jj$1[ebp]
	sub	eax, 1
	mov	DWORD PTR _jj$1[ebp], eax
$LN14@umodulo:
	cmp	DWORD PTR _jj$1[ebp], 0
	jl	SHORT $LN12@umodulo

; 1272 : 				if ( b[ jj ] )

	mov	eax, DWORD PTR _jj$1[ebp]
	cmp	DWORD PTR _b$[ebp+eax*4], 0
	je	SHORT $LN11@umodulo

; 1273 : 					break;

	jmp	SHORT $LN12@umodulo
$LN11@umodulo:

; 1274 : 					
; 1275 : 			if ( ii != jj )

	jmp	SHORT $LN13@umodulo
$LN12@umodulo:
	mov	eax, DWORD PTR _ii$2[ebp]
	cmp	eax, DWORD PTR _jj$1[ebp]
	je	SHORT $LN9@umodulo

; 1276 : 			{
; 1277 : 				shifts = ( ii - jj ) * WORDBITS;

	mov	eax, DWORD PTR _ii$2[ebp]
	sub	eax, DWORD PTR _jj$1[ebp]
	shl	eax, 5
	mov	DWORD PTR _shifts$[ebp], eax

; 1278 : 				shiftLeft( b, shifts );

	mov	eax, DWORD PTR _shifts$[ebp]
	push	eax
	lea	ecx, DWORD PTR _b$[ebp]
	push	ecx
	call	??$shiftLeft@$$BY03I@big@@YAXAAY03II@Z	; big::shiftLeft<unsigned int [4]>
	add	esp, 8

; 1279 : 				++shifts;

	mov	eax, DWORD PTR _shifts$[ebp]
	add	eax, 1
	mov	DWORD PTR _shifts$[ebp], eax
$LN9@umodulo:

; 1280 : 			}
; 1281 : 			
; 1282 : 			while ( !BIGHIGHBIT( b ) && ugreater( r, b ) )

	mov	eax, 4
	imul	ecx, eax, 3
	mov	edx, DWORD PTR _b$[ebp+ecx]
	and	edx, -2147483648			; 80000000H
	jne	SHORT $LN7@umodulo
	lea	eax, DWORD PTR _b$[ebp]
	push	eax
	mov	ecx, DWORD PTR _r$[ebp]
	push	ecx
	call	??$ugreater@$$BY03I@big@@YA_NAAY03I0@Z	; big::ugreater<unsigned int [4]>
	add	esp, 8
	movzx	edx, al
	test	edx, edx
	je	SHORT $LN7@umodulo

; 1283 : 			{
; 1284 : 				shiftLeft1( b );

	lea	eax, DWORD PTR _b$[ebp]
	push	eax
	call	??$shiftLeft1@$$BY03I@big@@YAXAAY03I@Z	; big::shiftLeft1<unsigned int [4]>
	add	esp, 4

; 1285 : 				
; 1286 : 				++shifts;

	mov	eax, DWORD PTR _shifts$[ebp]
	add	eax, 1
	mov	DWORD PTR _shifts$[ebp], eax

; 1287 : 			}

	jmp	SHORT $LN9@umodulo
$LN7@umodulo:

; 1288 : 			
; 1289 : 			while ( ugreater( b, r ) )

	mov	eax, DWORD PTR _r$[ebp]
	push	eax
	lea	ecx, DWORD PTR _b$[ebp]
	push	ecx
	call	??$ugreater@$$BY03I@big@@YA_NAAY03I0@Z	; big::ugreater<unsigned int [4]>
	add	esp, 8
	movzx	edx, al
	test	edx, edx
	je	SHORT $LN6@umodulo

; 1290 : 			{
; 1291 : 				ushiftRight1( b );

	lea	eax, DWORD PTR _b$[ebp]
	push	eax
	call	??$ushiftRight1@$$BY03I@big@@YAXAAY03I@Z ; big::ushiftRight1<unsigned int [4]>
	add	esp, 4

; 1292 : 				
; 1293 : 				--shifts;

	mov	eax, DWORD PTR _shifts$[ebp]
	sub	eax, 1
	mov	DWORD PTR _shifts$[ebp], eax

; 1294 : 			}

	jmp	SHORT $LN7@umodulo
$LN6@umodulo:

; 1295 : 		}
; 1296 : 		
; 1297 : 		else

	jmp	SHORT $LN3@umodulo
$LN19@umodulo:

; 1298 : 			if ( ugreater( b, r ) )

	mov	eax, DWORD PTR _r$[ebp]
	push	eax
	lea	ecx, DWORD PTR _b$[ebp]
	push	ecx
	call	??$ugreater@$$BY03I@big@@YA_NAAY03I0@Z	; big::ugreater<unsigned int [4]>
	add	esp, 8
	movzx	edx, al
	test	edx, edx
	je	SHORT $LN3@umodulo

; 1299 : 			{
; 1300 : 				ushiftRight1( b );

	lea	eax, DWORD PTR _b$[ebp]
	push	eax
	call	??$ushiftRight1@$$BY03I@big@@YAXAAY03I@Z ; big::ushiftRight1<unsigned int [4]>
	add	esp, 4

; 1301 : 				
; 1302 : 				--shifts;

	mov	eax, DWORD PTR _shifts$[ebp]
	sub	eax, 1
	mov	DWORD PTR _shifts$[ebp], eax
$LN3@umodulo:

; 1303 : 			}
; 1304 : 			
; 1305 : 		while ( shifts-- )

	mov	eax, DWORD PTR _shifts$[ebp]
	mov	DWORD PTR tv151[ebp], eax
	mov	ecx, DWORD PTR _shifts$[ebp]
	sub	ecx, 1
	mov	DWORD PTR _shifts$[ebp], ecx
	cmp	DWORD PTR tv151[ebp], 0
	je	SHORT $LN20@umodulo

; 1306 : 		{
; 1307 : 			if ( !ugreater( b, r ) )

	mov	eax, DWORD PTR _r$[ebp]
	push	eax
	lea	ecx, DWORD PTR _b$[ebp]
	push	ecx
	call	??$ugreater@$$BY03I@big@@YA_NAAY03I0@Z	; big::ugreater<unsigned int [4]>
	add	esp, 8
	movzx	edx, al
	test	edx, edx
	jne	SHORT $LN1@umodulo

; 1308 : 				subtract( r, b );

	lea	eax, DWORD PTR _b$[ebp]
	push	eax
	mov	ecx, DWORD PTR _r$[ebp]
	push	ecx
	call	??$subtract@$$BY03I@big@@YAXAAY03I0@Z	; big::subtract<unsigned int [4]>
	add	esp, 8
$LN1@umodulo:

; 1309 : 				
; 1310 : 			ushiftRight1( b );

	lea	eax, DWORD PTR _b$[ebp]
	push	eax
	call	??$ushiftRight1@$$BY03I@big@@YAXAAY03I@Z ; big::ushiftRight1<unsigned int [4]>
	add	esp, 4

; 1311 : 		}

	jmp	SHORT $LN3@umodulo
$LN20@umodulo:

; 1312 : 	}

	push	edx
	mov	ecx, ebp
	push	eax
	lea	edx, DWORD PTR $LN24@umodulo
	call	@_RTC_CheckStackVars@8
	pop	eax
	pop	edx
	pop	edi
	pop	esi
	pop	ebx
	mov	ecx, DWORD PTR __$ArrayPad$[ebp]
	xor	ecx, ebp
	call	@__security_check_cookie@4
	add	esp, 260				; 00000104H
	cmp	ebp, esp
	call	__RTC_CheckEsp
	mov	esp, ebp
	pop	ebp
	ret	0
	npad	3
$LN24@umodulo:
	DD	1
	DD	$LN23@umodulo
$LN23@umodulo:
	DD	-24					; ffffffe8H
	DD	16					; 00000010H
	DD	$LN22@umodulo
$LN22@umodulo:
	DB	98					; 00000062H
	DB	0
??$umodulo@$$BY03I@big@@YAXAAY03I00@Z ENDP		; big::umodulo<unsigned int [4]>
_TEXT	ENDS
; Function compile flags: /Odtp /RTCsu /ZI
; File z:\sampsrc\02xu1\raknet\bigtypes.h
;	COMDAT ??$udivide@$$BY07I@big@@YAXAAY07I000@Z
_TEXT	SEGMENT
tv152 = -288						; size = 4
_qshifts$ = -88						; size = 4
_jj$1 = -76						; size = 4
_ii$2 = -64						; size = 4
_shifts$ = -52						; size = 4
_b$ = -40						; size = 32
__$ArrayPad$ = -4					; size = 4
_a$ = 8							; size = 4
_b0$ = 12						; size = 4
_q$ = 16						; size = 4
_r$ = 20						; size = 4
??$udivide@$$BY07I@big@@YAXAAY07I000@Z PROC		; big::udivide<unsigned int [8]>, COMDAT

; 1168 : 	{

	push	ebp
	mov	ebp, esp
	sub	esp, 288				; 00000120H
	push	ebx
	push	esi
	push	edi
	lea	edi, DWORD PTR [ebp-288]
	mov	ecx, 72					; 00000048H
	mov	eax, -858993460				; ccccccccH
	rep stosd
	mov	eax, DWORD PTR ___security_cookie
	xor	eax, ebp
	mov	DWORD PTR __$ArrayPad$[ebp], eax

; 1169 : 		T b;
; 1170 : 		
; 1171 : 		set ( b, b0 )
; 1172 : 		
; 1173 : 		;

	mov	eax, DWORD PTR _b0$[ebp]
	push	eax
	lea	ecx, DWORD PTR _b$[ebp]
	push	ecx
	call	??$set@$$BY07I@big@@YAXAAY07I0@Z	; big::set<unsigned int [8]>
	add	esp, 8

; 1174 : 		set ( r, a )
; 1175 : 		
; 1176 : 		;

	mov	eax, DWORD PTR _a$[ebp]
	push	eax
	mov	ecx, DWORD PTR _r$[ebp]
	push	ecx
	call	??$set@$$BY07I@big@@YAXAAY07I0@Z	; big::set<unsigned int [8]>
	add	esp, 8

; 1177 : 		zero( q );

	mov	eax, DWORD PTR _q$[ebp]
	push	eax
	call	??$zero@$$BY07I@big@@YAXAAY07I@Z	; big::zero<unsigned int [8]>
	add	esp, 4

; 1178 : 		
; 1179 : 		u32 shifts = 1;

	mov	DWORD PTR _shifts$[ebp], 1

; 1180 : 		
; 1181 : 		// sort of: shift b left until b > r, then shift back one
; 1182 : 		if ( !BIGHIGHBIT( b ) && ugreater( r, b ) )

	mov	eax, 4
	imul	ecx, eax, 7
	mov	edx, DWORD PTR _b$[ebp+ecx]
	and	edx, -2147483648			; 80000000H
	jne	$LN19@udivide
	lea	eax, DWORD PTR _b$[ebp]
	push	eax
	mov	ecx, DWORD PTR _r$[ebp]
	push	ecx
	call	??$ugreater@$$BY07I@big@@YA_NAAY07I0@Z	; big::ugreater<unsigned int [8]>
	add	esp, 8
	movzx	edx, al
	test	edx, edx
	je	$LN19@udivide

; 1183 : 		{
; 1184 : 			s32 ii, jj;
; 1185 : 			
; 1186 : 			// shift by words if possible
; 1187 : 			
; 1188 : 			for ( ii = BIGWORDCOUNT( T ) - 1; ii >= 0; --ii )

	mov	DWORD PTR _ii$2[ebp], 7
	jmp	SHORT $LN18@udivide
$LN17@udivide:
	mov	eax, DWORD PTR _ii$2[ebp]
	sub	eax, 1
	mov	DWORD PTR _ii$2[ebp], eax
$LN18@udivide:
	cmp	DWORD PTR _ii$2[ebp], 0
	jl	SHORT $LN16@udivide

; 1189 : 				if ( r[ ii ] )

	mov	eax, DWORD PTR _ii$2[ebp]
	mov	ecx, DWORD PTR _r$[ebp]
	cmp	DWORD PTR [ecx+eax*4], 0
	je	SHORT $LN15@udivide

; 1190 : 					break;

	jmp	SHORT $LN16@udivide
$LN15@udivide:

; 1191 : 					
; 1192 : 			for ( jj = ii; jj >= 0; --jj )

	jmp	SHORT $LN17@udivide
$LN16@udivide:
	mov	eax, DWORD PTR _ii$2[ebp]
	mov	DWORD PTR _jj$1[ebp], eax
	jmp	SHORT $LN14@udivide
$LN13@udivide:
	mov	eax, DWORD PTR _jj$1[ebp]
	sub	eax, 1
	mov	DWORD PTR _jj$1[ebp], eax
$LN14@udivide:
	cmp	DWORD PTR _jj$1[ebp], 0
	jl	SHORT $LN12@udivide

; 1193 : 				if ( b[ jj ] )

	mov	eax, DWORD PTR _jj$1[ebp]
	cmp	DWORD PTR _b$[ebp+eax*4], 0
	je	SHORT $LN11@udivide

; 1194 : 					break;

	jmp	SHORT $LN12@udivide
$LN11@udivide:

; 1195 : 					
; 1196 : 			if ( ii != jj )

	jmp	SHORT $LN13@udivide
$LN12@udivide:
	mov	eax, DWORD PTR _ii$2[ebp]
	cmp	eax, DWORD PTR _jj$1[ebp]
	je	SHORT $LN9@udivide

; 1197 : 			{
; 1198 : 				shifts = ( ii - jj ) * WORDBITS;

	mov	eax, DWORD PTR _ii$2[ebp]
	sub	eax, DWORD PTR _jj$1[ebp]
	shl	eax, 5
	mov	DWORD PTR _shifts$[ebp], eax

; 1199 : 				shiftLeft( b, shifts );

	mov	eax, DWORD PTR _shifts$[ebp]
	push	eax
	lea	ecx, DWORD PTR _b$[ebp]
	push	ecx
	call	??$shiftLeft@$$BY07I@big@@YAXAAY07II@Z	; big::shiftLeft<unsigned int [8]>
	add	esp, 8

; 1200 : 				++shifts;

	mov	eax, DWORD PTR _shifts$[ebp]
	add	eax, 1
	mov	DWORD PTR _shifts$[ebp], eax
$LN9@udivide:

; 1201 : 			}
; 1202 : 			
; 1203 : 			while ( !BIGHIGHBIT( b ) && ugreater( r, b ) )

	mov	eax, 4
	imul	ecx, eax, 7
	mov	edx, DWORD PTR _b$[ebp+ecx]
	and	edx, -2147483648			; 80000000H
	jne	SHORT $LN7@udivide
	lea	eax, DWORD PTR _b$[ebp]
	push	eax
	mov	ecx, DWORD PTR _r$[ebp]
	push	ecx
	call	??$ugreater@$$BY07I@big@@YA_NAAY07I0@Z	; big::ugreater<unsigned int [8]>
	add	esp, 8
	movzx	edx, al
	test	edx, edx
	je	SHORT $LN7@udivide

; 1204 : 			{
; 1205 : 				shiftLeft1( b );

	lea	eax, DWORD PTR _b$[ebp]
	push	eax
	call	??$shiftLeft1@$$BY07I@big@@YAXAAY07I@Z	; big::shiftLeft1<unsigned int [8]>
	add	esp, 4

; 1206 : 				
; 1207 : 				++shifts;

	mov	eax, DWORD PTR _shifts$[ebp]
	add	eax, 1
	mov	DWORD PTR _shifts$[ebp], eax

; 1208 : 			}

	jmp	SHORT $LN9@udivide
$LN7@udivide:

; 1209 : 			
; 1210 : 			while ( ugreater( b, r ) )

	mov	eax, DWORD PTR _r$[ebp]
	push	eax
	lea	ecx, DWORD PTR _b$[ebp]
	push	ecx
	call	??$ugreater@$$BY07I@big@@YA_NAAY07I0@Z	; big::ugreater<unsigned int [8]>
	add	esp, 8
	movzx	edx, al
	test	edx, edx
	je	SHORT $LN6@udivide

; 1211 : 			{
; 1212 : 				ushiftRight1( b );

	lea	eax, DWORD PTR _b$[ebp]
	push	eax
	call	??$ushiftRight1@$$BY07I@big@@YAXAAY07I@Z ; big::ushiftRight1<unsigned int [8]>
	add	esp, 4

; 1213 : 				
; 1214 : 				--shifts;

	mov	eax, DWORD PTR _shifts$[ebp]
	sub	eax, 1
	mov	DWORD PTR _shifts$[ebp], eax

; 1215 : 			}

	jmp	SHORT $LN7@udivide
$LN6@udivide:

; 1216 : 		}
; 1217 : 		
; 1218 : 		else

	jmp	SHORT $LN5@udivide
$LN19@udivide:

; 1219 : 			if ( ugreater( b, r ) )

	mov	eax, DWORD PTR _r$[ebp]
	push	eax
	lea	ecx, DWORD PTR _b$[ebp]
	push	ecx
	call	??$ugreater@$$BY07I@big@@YA_NAAY07I0@Z	; big::ugreater<unsigned int [8]>
	add	esp, 8
	movzx	edx, al
	test	edx, edx
	je	SHORT $LN5@udivide

; 1220 : 			{
; 1221 : 				ushiftRight1( b );

	lea	eax, DWORD PTR _b$[ebp]
	push	eax
	call	??$ushiftRight1@$$BY07I@big@@YAXAAY07I@Z ; big::ushiftRight1<unsigned int [8]>
	add	esp, 4

; 1222 : 				
; 1223 : 				--shifts;

	mov	eax, DWORD PTR _shifts$[ebp]
	sub	eax, 1
	mov	DWORD PTR _shifts$[ebp], eax
$LN5@udivide:

; 1224 : 			}
; 1225 : 			
; 1226 : 		u32 qshifts = 0;

	mov	DWORD PTR _qshifts$[ebp], 0
$LN3@udivide:

; 1227 : 		
; 1228 : 		while ( shifts-- )

	mov	eax, DWORD PTR _shifts$[ebp]
	mov	DWORD PTR tv152[ebp], eax
	mov	ecx, DWORD PTR _shifts$[ebp]
	sub	ecx, 1
	mov	DWORD PTR _shifts$[ebp], ecx
	cmp	DWORD PTR tv152[ebp], 0
	je	SHORT $LN2@udivide

; 1229 : 		{
; 1230 : 			++qshifts;

	mov	eax, DWORD PTR _qshifts$[ebp]
	add	eax, 1
	mov	DWORD PTR _qshifts$[ebp], eax

; 1231 : 			
; 1232 : 			if ( !ugreater( b, r ) )

	mov	eax, DWORD PTR _r$[ebp]
	push	eax
	lea	ecx, DWORD PTR _b$[ebp]
	push	ecx
	call	??$ugreater@$$BY07I@big@@YA_NAAY07I0@Z	; big::ugreater<unsigned int [8]>
	add	esp, 8
	movzx	edx, al
	test	edx, edx
	jne	SHORT $LN1@udivide

; 1233 : 			{
; 1234 : 				subtract( r, b );

	lea	eax, DWORD PTR _b$[ebp]
	push	eax
	mov	ecx, DWORD PTR _r$[ebp]
	push	ecx
	call	??$subtract@$$BY07I@big@@YAXAAY07I0@Z	; big::subtract<unsigned int [8]>
	add	esp, 8

; 1235 : 				
; 1236 : 				shiftLeft( q, qshifts );

	mov	eax, DWORD PTR _qshifts$[ebp]
	push	eax
	mov	ecx, DWORD PTR _q$[ebp]
	push	ecx
	call	??$shiftLeft@$$BY07I@big@@YAXAAY07II@Z	; big::shiftLeft<unsigned int [8]>
	add	esp, 8

; 1237 : 				qshifts = 0;

	mov	DWORD PTR _qshifts$[ebp], 0

; 1238 : 				
; 1239 : 				q[ 0 ] |= 1;

	mov	eax, 4
	imul	ecx, eax, 0
	mov	edx, DWORD PTR _q$[ebp]
	mov	eax, DWORD PTR [edx+ecx]
	or	eax, 1
	mov	ecx, 4
	imul	edx, ecx, 0
	mov	ecx, DWORD PTR _q$[ebp]
	mov	DWORD PTR [ecx+edx], eax
$LN1@udivide:

; 1240 : 			}
; 1241 : 			
; 1242 : 			ushiftRight1( b );

	lea	eax, DWORD PTR _b$[ebp]
	push	eax
	call	??$ushiftRight1@$$BY07I@big@@YAXAAY07I@Z ; big::ushiftRight1<unsigned int [8]>
	add	esp, 4

; 1243 : 		}

	jmp	$LN3@udivide
$LN2@udivide:

; 1244 : 		
; 1245 : 		shiftLeft( q, qshifts );

	mov	eax, DWORD PTR _qshifts$[ebp]
	push	eax
	mov	ecx, DWORD PTR _q$[ebp]
	push	ecx
	call	??$shiftLeft@$$BY07I@big@@YAXAAY07II@Z	; big::shiftLeft<unsigned int [8]>
	add	esp, 8

; 1246 : 	}

	push	edx
	mov	ecx, ebp
	push	eax
	lea	edx, DWORD PTR $LN24@udivide
	call	@_RTC_CheckStackVars@8
	pop	eax
	pop	edx
	pop	edi
	pop	esi
	pop	ebx
	mov	ecx, DWORD PTR __$ArrayPad$[ebp]
	xor	ecx, ebp
	call	@__security_check_cookie@4
	add	esp, 288				; 00000120H
	cmp	ebp, esp
	call	__RTC_CheckEsp
	mov	esp, ebp
	pop	ebp
	ret	0
	npad	2
$LN24@udivide:
	DD	1
	DD	$LN23@udivide
$LN23@udivide:
	DD	-40					; ffffffd8H
	DD	32					; 00000020H
	DD	$LN22@udivide
$LN22@udivide:
	DB	98					; 00000062H
	DB	0
??$udivide@$$BY07I@big@@YAXAAY07I000@Z ENDP		; big::udivide<unsigned int [8]>
_TEXT	ENDS
; Function compile flags: /Odtp /RTCsu /ZI
; File z:\sampsrc\02xu1\raknet\bigtypes.h
;	COMDAT ??$sethigh@$$BY03I$$BY07I@big@@YAXAAY07IAAY03I@Z
_TEXT	SEGMENT
_a$ = 8							; size = 4
_b$ = 12						; size = 4
??$sethigh@$$BY03I$$BY07I@big@@YAXAAY07IAAY03I@Z PROC	; big::sethigh<unsigned int [4],unsigned int [8]>, COMDAT

; 331  : 	{

	push	ebp
	mov	ebp, esp
	sub	esp, 192				; 000000c0H
	push	ebx
	push	esi
	push	edi
	lea	edi, DWORD PTR [ebp-192]
	mov	ecx, 48					; 00000030H
	mov	eax, -858993460				; ccccccccH
	rep stosd

; 332  : 		memcpy( a + BIGWORDCOUNT( Bigger ) - BIGWORDCOUNT( T ), b, sizeof( T ) );

	push	16					; 00000010H
	mov	eax, DWORD PTR _b$[ebp]
	push	eax
	mov	ecx, DWORD PTR _a$[ebp]
	add	ecx, 16					; 00000010H
	push	ecx
	call	_memcpy
	add	esp, 12					; 0000000cH

; 333  : 		memset( a, 0, sizeof( Bigger ) - sizeof( T ) );

	push	16					; 00000010H
	push	0
	mov	eax, DWORD PTR _a$[ebp]
	push	eax
	call	_memset
	add	esp, 12					; 0000000cH

; 334  : 	}

	pop	edi
	pop	esi
	pop	ebx
	add	esp, 192				; 000000c0H
	cmp	ebp, esp
	call	__RTC_CheckEsp
	mov	esp, ebp
	pop	ebp
	ret	0
??$sethigh@$$BY03I$$BY07I@big@@YAXAAY07IAAY03I@Z ENDP	; big::sethigh<unsigned int [4],unsigned int [8]>
_TEXT	ENDS
; Function compile flags: /Odtp /RTCsu /ZI
; File z:\sampsrc\02xu1\raknet\rsacrypt.h
;	COMDAT ??$computeRinverse@$$BY03I@big@@YAXAAY03I0@Z
_TEXT	SEGMENT
_q$ = -144						; size = 16
_b$ = -120						; size = 16
_a$ = -96						; size = 16
_x2$ = -72						; size = 16
_x1$ = -48						; size = 16
_x0$ = -24						; size = 16
__$ArrayPad$ = -4					; size = 4
_n0$ = 8						; size = 4
_rp$ = 12						; size = 4
??$computeRinverse@$$BY03I@big@@YAXAAY03I0@Z PROC	; big::computeRinverse<unsigned int [4]>, COMDAT

; 209  : 	{

	push	ebp
	mov	ebp, esp
	sub	esp, 340				; 00000154H
	push	ebx
	push	esi
	push	edi
	lea	edi, DWORD PTR [ebp-340]
	mov	ecx, 85					; 00000055H
	mov	eax, -858993460				; ccccccccH
	rep stosd
	mov	eax, DWORD PTR ___security_cookie
	xor	eax, ebp
	mov	DWORD PTR __$ArrayPad$[ebp], eax

; 210  : 		T x0, x1, x2, a, b, q;
; 211  : 
; 212  : 		//x[0] = 1
; 213  : 		usetw( x0, 1 );

	push	1
	lea	eax, DWORD PTR _x0$[ebp]
	push	eax
	call	??$usetw@$$BY03I@big@@YAXAAY03II@Z	; big::usetw<unsigned int [4]>
	add	esp, 8

; 214  : 
; 215  : 		// a = 2^k (mod b0)
; 216  : 		rModn( n0, a );

	lea	eax, DWORD PTR _a$[ebp]
	push	eax
	mov	ecx, DWORD PTR _n0$[ebp]
	push	ecx
	call	??$rModn@$$BY03I@big@@YAXAAY03I0@Z	; big::rModn<unsigned int [4]>
	add	esp, 8

; 217  : 
; 218  : 		// {q, b} = b0 / a
; 219  : 		udivide( n0, a, q, b );

	lea	eax, DWORD PTR _b$[ebp]
	push	eax
	lea	ecx, DWORD PTR _q$[ebp]
	push	ecx
	lea	edx, DWORD PTR _a$[ebp]
	push	edx
	mov	eax, DWORD PTR _n0$[ebp]
	push	eax
	call	??$udivide@$$BY03I@big@@YAXAAY03I000@Z	; big::udivide<unsigned int [4]>
	add	esp, 16					; 00000010H

; 220  : 
; 221  : 		// if b = 0, return x[0]
; 222  : 
; 223  : 		if ( isZero( b ) )

	lea	eax, DWORD PTR _b$[ebp]
	push	eax
	call	??$isZero@$$BY03I@big@@YA_NAAY03I@Z	; big::isZero<unsigned int [4]>
	add	esp, 4
	movzx	ecx, al
	test	ecx, ecx
	je	SHORT $LN10@computeRin

; 224  : 		{
; 225  : 			set ( rp, x0 )
; 226  : 
; 227  : 				;

	lea	eax, DWORD PTR _x0$[ebp]
	push	eax
	mov	ecx, DWORD PTR _rp$[ebp]
	push	ecx
	call	??$set@$$BY03I@big@@YAXAAY03I0@Z	; big::set<unsigned int [4]>
	add	esp, 8

; 228  : 			return ;

	jmp	$LN11@computeRin
$LN10@computeRin:

; 229  : 		}
; 230  : 
; 231  : 		// x[1] = -q (mod b0) = b0 - q, q <= b0
; 232  : 		set ( x1, n0 )
; 233  : 
; 234  : 			;

	mov	eax, DWORD PTR _n0$[ebp]
	push	eax
	lea	ecx, DWORD PTR _x1$[ebp]
	push	ecx
	call	??$set@$$BY03I@big@@YAXAAY03I0@Z	; big::set<unsigned int [4]>
	add	esp, 8

; 235  : 		subtract( x1, q );

	lea	eax, DWORD PTR _q$[ebp]
	push	eax
	lea	ecx, DWORD PTR _x1$[ebp]
	push	ecx
	call	??$subtract@$$BY03I@big@@YAXAAY03I0@Z	; big::subtract<unsigned int [4]>
	add	esp, 8

; 236  : 
; 237  : 		// {q, a} = a / b
; 238  : 		udivide( a, b, q, a );

	lea	eax, DWORD PTR _a$[ebp]
	push	eax
	lea	ecx, DWORD PTR _q$[ebp]
	push	ecx
	lea	edx, DWORD PTR _b$[ebp]
	push	edx
	lea	eax, DWORD PTR _a$[ebp]
	push	eax
	call	??$udivide@$$BY03I@big@@YAXAAY03I000@Z	; big::udivide<unsigned int [4]>
	add	esp, 16					; 00000010H

; 239  : 
; 240  : 		// if a = 0, return x[1]
; 241  : 		if ( isZero( a ) )

	lea	eax, DWORD PTR _a$[ebp]
	push	eax
	call	??$isZero@$$BY03I@big@@YA_NAAY03I@Z	; big::isZero<unsigned int [4]>
	add	esp, 4
	movzx	ecx, al
	test	ecx, ecx
	je	SHORT $LN8@computeRin

; 242  : 		{
; 243  : 			set ( rp, x1 )
; 244  : 
; 245  : 				;

	lea	eax, DWORD PTR _x1$[ebp]
	push	eax
	mov	ecx, DWORD PTR _rp$[ebp]
	push	ecx
	call	??$set@$$BY03I@big@@YAXAAY03I0@Z	; big::set<unsigned int [4]>
	add	esp, 8

; 246  : 			return ;

	jmp	$LN11@computeRin
$LN8@computeRin:

; 247  : 		}
; 248  : #ifdef _MSC_VER
; 249  : #pragma warning( disable : 4127 ) // warning C4127: conditional expression is constant
; 250  : #endif
; 251  : 		while ( true )

	mov	eax, 1
	test	eax, eax
	je	$LN11@computeRin

; 252  : 		{
; 253  : 			// x[2] = x[0] - x[1] * q (mod b0)
; 254  : 			SubMulMod( q, x1, x0, n0, x2 );

	lea	eax, DWORD PTR _x2$[ebp]
	push	eax
	mov	ecx, DWORD PTR _n0$[ebp]
	push	ecx
	lea	edx, DWORD PTR _x0$[ebp]
	push	edx
	lea	eax, DWORD PTR _x1$[ebp]
	push	eax
	lea	ecx, DWORD PTR _q$[ebp]
	push	ecx
	call	??$SubMulMod@$$BY03I@big@@YAXAAY03I0000@Z ; big::SubMulMod<unsigned int [4]>
	add	esp, 20					; 00000014H

; 255  : 
; 256  : 			// {q, b} = b / a
; 257  : 			udivide( b, a, q, b );

	lea	eax, DWORD PTR _b$[ebp]
	push	eax
	lea	ecx, DWORD PTR _q$[ebp]
	push	ecx
	lea	edx, DWORD PTR _a$[ebp]
	push	edx
	lea	eax, DWORD PTR _b$[ebp]
	push	eax
	call	??$udivide@$$BY03I@big@@YAXAAY03I000@Z	; big::udivide<unsigned int [4]>
	add	esp, 16					; 00000010H

; 258  : 
; 259  : 			// if b = 0, return x[2]
; 260  : 
; 261  : 			if ( isZero( b ) )

	lea	eax, DWORD PTR _b$[ebp]
	push	eax
	call	??$isZero@$$BY03I@big@@YA_NAAY03I@Z	; big::isZero<unsigned int [4]>
	add	esp, 4
	movzx	ecx, al
	test	ecx, ecx
	je	SHORT $LN6@computeRin

; 262  : 			{
; 263  : 				set ( rp, x2 )
; 264  : 
; 265  : 					;

	lea	eax, DWORD PTR _x2$[ebp]
	push	eax
	mov	ecx, DWORD PTR _rp$[ebp]
	push	ecx
	call	??$set@$$BY03I@big@@YAXAAY03I0@Z	; big::set<unsigned int [4]>
	add	esp, 8

; 266  : 				return ;

	jmp	$LN11@computeRin
$LN6@computeRin:

; 267  : 			}
; 268  : 
; 269  : 			// x[0] = x[1] - x[2] * q (mod b0)
; 270  : 			SubMulMod( q, x2, x1, n0, x0 );

	lea	eax, DWORD PTR _x0$[ebp]
	push	eax
	mov	ecx, DWORD PTR _n0$[ebp]
	push	ecx
	lea	edx, DWORD PTR _x1$[ebp]
	push	edx
	lea	eax, DWORD PTR _x2$[ebp]
	push	eax
	lea	ecx, DWORD PTR _q$[ebp]
	push	ecx
	call	??$SubMulMod@$$BY03I@big@@YAXAAY03I0000@Z ; big::SubMulMod<unsigned int [4]>
	add	esp, 20					; 00000014H

; 271  : 
; 272  : 			// {q, a} = a / b
; 273  : 			udivide( a, b, q, a );

	lea	eax, DWORD PTR _a$[ebp]
	push	eax
	lea	ecx, DWORD PTR _q$[ebp]
	push	ecx
	lea	edx, DWORD PTR _b$[ebp]
	push	edx
	lea	eax, DWORD PTR _a$[ebp]
	push	eax
	call	??$udivide@$$BY03I@big@@YAXAAY03I000@Z	; big::udivide<unsigned int [4]>
	add	esp, 16					; 00000010H

; 274  : 
; 275  : 			// if a = 0, return x[0]
; 276  : 			if ( isZero( a ) )

	lea	eax, DWORD PTR _a$[ebp]
	push	eax
	call	??$isZero@$$BY03I@big@@YA_NAAY03I@Z	; big::isZero<unsigned int [4]>
	add	esp, 4
	movzx	ecx, al
	test	ecx, ecx
	je	SHORT $LN5@computeRin

; 277  : 			{
; 278  : 				set ( rp, x0 )
; 279  : 
; 280  : 					;

	lea	eax, DWORD PTR _x0$[ebp]
	push	eax
	mov	ecx, DWORD PTR _rp$[ebp]
	push	ecx
	call	??$set@$$BY03I@big@@YAXAAY03I0@Z	; big::set<unsigned int [4]>
	add	esp, 8

; 281  : 				return ;

	jmp	$LN11@computeRin
$LN5@computeRin:

; 282  : 			}
; 283  : 
; 284  : 			// x[1] = x[2] - x[0] * q (mod b0)
; 285  : 			SubMulMod( q, x0, x2, n0, x1 );

	lea	eax, DWORD PTR _x1$[ebp]
	push	eax
	mov	ecx, DWORD PTR _n0$[ebp]
	push	ecx
	lea	edx, DWORD PTR _x2$[ebp]
	push	edx
	lea	eax, DWORD PTR _x0$[ebp]
	push	eax
	lea	ecx, DWORD PTR _q$[ebp]
	push	ecx
	call	??$SubMulMod@$$BY03I@big@@YAXAAY03I0000@Z ; big::SubMulMod<unsigned int [4]>
	add	esp, 20					; 00000014H

; 286  : 
; 287  : 			// {q, b} = b / a
; 288  : 			udivide( b, a, q, b );

	lea	eax, DWORD PTR _b$[ebp]
	push	eax
	lea	ecx, DWORD PTR _q$[ebp]
	push	ecx
	lea	edx, DWORD PTR _a$[ebp]
	push	edx
	lea	eax, DWORD PTR _b$[ebp]
	push	eax
	call	??$udivide@$$BY03I@big@@YAXAAY03I000@Z	; big::udivide<unsigned int [4]>
	add	esp, 16					; 00000010H

; 289  : 
; 290  : 			// if b = 0, return x[1]
; 291  : 			if ( isZero( b ) )

	lea	eax, DWORD PTR _b$[ebp]
	push	eax
	call	??$isZero@$$BY03I@big@@YA_NAAY03I@Z	; big::isZero<unsigned int [4]>
	add	esp, 4
	movzx	ecx, al
	test	ecx, ecx
	je	SHORT $LN4@computeRin

; 292  : 			{
; 293  : 				set ( rp, x1 )
; 294  : 
; 295  : 					;

	lea	eax, DWORD PTR _x1$[ebp]
	push	eax
	mov	ecx, DWORD PTR _rp$[ebp]
	push	ecx
	call	??$set@$$BY03I@big@@YAXAAY03I0@Z	; big::set<unsigned int [4]>
	add	esp, 8

; 296  : 				return ;

	jmp	$LN11@computeRin
$LN4@computeRin:

; 297  : 			}
; 298  : 
; 299  : 			// x[2] = x[0] - x[1] * q (mod b0)
; 300  : 			SubMulMod( q, x1, x0, n0, x2 );

	lea	eax, DWORD PTR _x2$[ebp]
	push	eax
	mov	ecx, DWORD PTR _n0$[ebp]
	push	ecx
	lea	edx, DWORD PTR _x0$[ebp]
	push	edx
	lea	eax, DWORD PTR _x1$[ebp]
	push	eax
	lea	ecx, DWORD PTR _q$[ebp]
	push	ecx
	call	??$SubMulMod@$$BY03I@big@@YAXAAY03I0000@Z ; big::SubMulMod<unsigned int [4]>
	add	esp, 20					; 00000014H

; 301  : 
; 302  : 			// {q, a} = a / b
; 303  : 			udivide( a, b, q, a );

	lea	eax, DWORD PTR _a$[ebp]
	push	eax
	lea	ecx, DWORD PTR _q$[ebp]
	push	ecx
	lea	edx, DWORD PTR _b$[ebp]
	push	edx
	lea	eax, DWORD PTR _a$[ebp]
	push	eax
	call	??$udivide@$$BY03I@big@@YAXAAY03I000@Z	; big::udivide<unsigned int [4]>
	add	esp, 16					; 00000010H

; 304  : 
; 305  : 			// if a = 0, return x[2]
; 306  : 			if ( isZero( a ) )

	lea	eax, DWORD PTR _a$[ebp]
	push	eax
	call	??$isZero@$$BY03I@big@@YA_NAAY03I@Z	; big::isZero<unsigned int [4]>
	add	esp, 4
	movzx	ecx, al
	test	ecx, ecx
	je	SHORT $LN3@computeRin

; 307  : 			{
; 308  : 				set ( rp, x2 )
; 309  : 
; 310  : 					;

	lea	eax, DWORD PTR _x2$[ebp]
	push	eax
	mov	ecx, DWORD PTR _rp$[ebp]
	push	ecx
	call	??$set@$$BY03I@big@@YAXAAY03I0@Z	; big::set<unsigned int [4]>
	add	esp, 8

; 311  : 				return ;

	jmp	$LN11@computeRin
$LN3@computeRin:

; 312  : 			}
; 313  : 
; 314  : 			// x[0] = x[1] - x[2] * q (mod b0)
; 315  : 			SubMulMod( q, x2, x1, n0, x0 );

	lea	eax, DWORD PTR _x0$[ebp]
	push	eax
	mov	ecx, DWORD PTR _n0$[ebp]
	push	ecx
	lea	edx, DWORD PTR _x1$[ebp]
	push	edx
	lea	eax, DWORD PTR _x2$[ebp]
	push	eax
	lea	ecx, DWORD PTR _q$[ebp]
	push	ecx
	call	??$SubMulMod@$$BY03I@big@@YAXAAY03I0000@Z ; big::SubMulMod<unsigned int [4]>
	add	esp, 20					; 00000014H

; 316  : 
; 317  : 			// {q, b} = b / a
; 318  : 			udivide( b, a, q, b );

	lea	eax, DWORD PTR _b$[ebp]
	push	eax
	lea	ecx, DWORD PTR _q$[ebp]
	push	ecx
	lea	edx, DWORD PTR _a$[ebp]
	push	edx
	lea	eax, DWORD PTR _b$[ebp]
	push	eax
	call	??$udivide@$$BY03I@big@@YAXAAY03I000@Z	; big::udivide<unsigned int [4]>
	add	esp, 16					; 00000010H

; 319  : 
; 320  : 			// if b = 0, return x[0]
; 321  : 			if ( isZero( b ) )

	lea	eax, DWORD PTR _b$[ebp]
	push	eax
	call	??$isZero@$$BY03I@big@@YA_NAAY03I@Z	; big::isZero<unsigned int [4]>
	add	esp, 4
	movzx	ecx, al
	test	ecx, ecx
	je	SHORT $LN2@computeRin

; 322  : 			{
; 323  : 				set ( rp, x0 )
; 324  : 
; 325  : 					;

	lea	eax, DWORD PTR _x0$[ebp]
	push	eax
	mov	ecx, DWORD PTR _rp$[ebp]
	push	ecx
	call	??$set@$$BY03I@big@@YAXAAY03I0@Z	; big::set<unsigned int [4]>
	add	esp, 8

; 326  : 				return ;

	jmp	SHORT $LN11@computeRin
$LN2@computeRin:

; 327  : 			}
; 328  : 
; 329  : 			// x[1] = x[2] - x[0] * q (mod b0)
; 330  : 			SubMulMod( q, x0, x2, n0, x1 );

	lea	eax, DWORD PTR _x1$[ebp]
	push	eax
	mov	ecx, DWORD PTR _n0$[ebp]
	push	ecx
	lea	edx, DWORD PTR _x2$[ebp]
	push	edx
	lea	eax, DWORD PTR _x0$[ebp]
	push	eax
	lea	ecx, DWORD PTR _q$[ebp]
	push	ecx
	call	??$SubMulMod@$$BY03I@big@@YAXAAY03I0000@Z ; big::SubMulMod<unsigned int [4]>
	add	esp, 20					; 00000014H

; 331  : 
; 332  : 			// {q, a} = a / b
; 333  : 			udivide( a, b, q, a );

	lea	eax, DWORD PTR _a$[ebp]
	push	eax
	lea	ecx, DWORD PTR _q$[ebp]
	push	ecx
	lea	edx, DWORD PTR _b$[ebp]
	push	edx
	lea	eax, DWORD PTR _a$[ebp]
	push	eax
	call	??$udivide@$$BY03I@big@@YAXAAY03I000@Z	; big::udivide<unsigned int [4]>
	add	esp, 16					; 00000010H

; 334  : 
; 335  : 			// if a = 0, return x[1]
; 336  : 			if ( isZero( a ) )

	lea	eax, DWORD PTR _a$[ebp]
	push	eax
	call	??$isZero@$$BY03I@big@@YA_NAAY03I@Z	; big::isZero<unsigned int [4]>
	add	esp, 4
	movzx	ecx, al
	test	ecx, ecx
	je	SHORT $LN1@computeRin

; 337  : 			{
; 338  : 				set ( rp, x1 )
; 339  : 
; 340  : 					;

	lea	eax, DWORD PTR _x1$[ebp]
	push	eax
	mov	ecx, DWORD PTR _rp$[ebp]
	push	ecx
	call	??$set@$$BY03I@big@@YAXAAY03I0@Z	; big::set<unsigned int [4]>
	add	esp, 8

; 341  : 				return ;

	jmp	SHORT $LN11@computeRin
$LN1@computeRin:

; 342  : 			}
; 343  : 		}

	jmp	$LN8@computeRin
$LN11@computeRin:

; 344  : 	}

	push	edx
	mov	ecx, ebp
	push	eax
	lea	edx, DWORD PTR $LN20@computeRin
	call	@_RTC_CheckStackVars@8
	pop	eax
	pop	edx
	pop	edi
	pop	esi
	pop	ebx
	mov	ecx, DWORD PTR __$ArrayPad$[ebp]
	xor	ecx, ebp
	call	@__security_check_cookie@4
	add	esp, 340				; 00000154H
	cmp	ebp, esp
	call	__RTC_CheckEsp
	mov	esp, ebp
	pop	ebp
	ret	0
	npad	2
$LN20@computeRin:
	DD	6
	DD	$LN19@computeRin
$LN19@computeRin:
	DD	-24					; ffffffe8H
	DD	16					; 00000010H
	DD	$LN13@computeRin
	DD	-48					; ffffffd0H
	DD	16					; 00000010H
	DD	$LN14@computeRin
	DD	-72					; ffffffb8H
	DD	16					; 00000010H
	DD	$LN15@computeRin
	DD	-96					; ffffffa0H
	DD	16					; 00000010H
	DD	$LN16@computeRin
	DD	-120					; ffffff88H
	DD	16					; 00000010H
	DD	$LN17@computeRin
	DD	-144					; ffffff70H
	DD	16					; 00000010H
	DD	$LN18@computeRin
$LN18@computeRin:
	DB	113					; 00000071H
	DB	0
$LN17@computeRin:
	DB	98					; 00000062H
	DB	0
$LN16@computeRin:
	DB	97					; 00000061H
	DB	0
$LN15@computeRin:
	DB	120					; 00000078H
	DB	50					; 00000032H
	DB	0
$LN14@computeRin:
	DB	120					; 00000078H
	DB	49					; 00000031H
	DB	0
$LN13@computeRin:
	DB	120					; 00000078H
	DB	48					; 00000030H
	DB	0
??$computeRinverse@$$BY03I@big@@YAXAAY03I0@Z ENDP	; big::computeRinverse<unsigned int [4]>
_TEXT	ENDS
; Function compile flags: /Odtp /RTCsu /ZI
; File z:\sampsrc\02xu1\raknet\rsacrypt.h
;	COMDAT ??$SubMulMod@$$BY03I@big@@YAXAAY03I0000@Z
_TEXT	SEGMENT
_y$ = -104						; size = 16
_dn$ = -80						; size = 32
_da$ = -40						; size = 32
__$ArrayPad$ = -4					; size = 4
_a$ = 8							; size = 4
_b$ = 12						; size = 4
_c$ = 16						; size = 4
_n$ = 20						; size = 4
_x$ = 24						; size = 4
??$SubMulMod@$$BY03I@big@@YAXAAY03I0000@Z PROC		; big::SubMulMod<unsigned int [4]>, COMDAT

; 165  : 	{

	push	ebp
	mov	ebp, esp
	sub	esp, 300				; 0000012cH
	push	ebx
	push	esi
	push	edi
	lea	edi, DWORD PTR [ebp-300]
	mov	ecx, 75					; 0000004bH
	mov	eax, -858993460				; ccccccccH
	rep stosd
	mov	eax, DWORD PTR ___security_cookie
	xor	eax, ebp
	mov	DWORD PTR __$ArrayPad$[ebp], eax

; 166  : 		BIGDOUBLESIZE( T, da );
; 167  : 		BIGDOUBLESIZE( T, dn );
; 168  : 		T y;
; 169  : 
; 170  : 		// y = a b (mod n)
; 171  : 		usetlow( da, a );

	mov	eax, DWORD PTR _a$[ebp]
	push	eax
	lea	ecx, DWORD PTR _da$[ebp]
	push	ecx
	call	??$usetlow@$$BY03I$$BY07I@big@@YAXAAY07IAAY03I@Z ; big::usetlow<unsigned int [4],unsigned int [8]>
	add	esp, 8

; 172  : 		umultiply( da, b );

	mov	eax, DWORD PTR _b$[ebp]
	push	eax
	lea	ecx, DWORD PTR _da$[ebp]
	push	ecx
	call	??$umultiply@$$BY03I$$BY07I@big@@YAXAAY07IAAY03I@Z ; big::umultiply<unsigned int [4],unsigned int [8]>
	add	esp, 8

; 173  : 		usetlow( dn, n );

	mov	eax, DWORD PTR _n$[ebp]
	push	eax
	lea	ecx, DWORD PTR _dn$[ebp]
	push	ecx
	call	??$usetlow@$$BY03I$$BY07I@big@@YAXAAY07IAAY03I@Z ; big::usetlow<unsigned int [4],unsigned int [8]>
	add	esp, 8

; 174  : 		umodulo( da, dn, da );

	lea	eax, DWORD PTR _da$[ebp]
	push	eax
	lea	ecx, DWORD PTR _dn$[ebp]
	push	ecx
	lea	edx, DWORD PTR _da$[ebp]
	push	edx
	call	??$umodulo@$$BY07I@big@@YAXAAY07I00@Z	; big::umodulo<unsigned int [8]>
	add	esp, 12					; 0000000cH

; 175  : 		takelow( y, da );

	lea	eax, DWORD PTR _da$[ebp]
	push	eax
	lea	ecx, DWORD PTR _y$[ebp]
	push	ecx
	call	??$takelow@$$BY03I$$BY07I@big@@YAXAAY03IAAY07I@Z ; big::takelow<unsigned int [4],unsigned int [8]>
	add	esp, 8

; 176  : 
; 177  : 		// x = (c - y) (mod n) > 0
; 178  : 
; 179  : 		set ( x, c )
; 180  : 
; 181  : 			;

	mov	eax, DWORD PTR _c$[ebp]
	push	eax
	mov	ecx, DWORD PTR _x$[ebp]
	push	ecx
	call	??$set@$$BY03I@big@@YAXAAY03I0@Z	; big::set<unsigned int [4]>
	add	esp, 8

; 182  : 		if ( ugreater( c, y ) )

	lea	eax, DWORD PTR _y$[ebp]
	push	eax
	mov	ecx, DWORD PTR _c$[ebp]
	push	ecx
	call	??$ugreater@$$BY03I@big@@YA_NAAY03I0@Z	; big::ugreater<unsigned int [4]>
	add	esp, 8
	movzx	edx, al
	test	edx, edx
	je	SHORT $LN2@SubMulMod

; 183  : 		{
; 184  : 			subtract( x, y );

	lea	eax, DWORD PTR _y$[ebp]
	push	eax
	mov	ecx, DWORD PTR _x$[ebp]
	push	ecx
	call	??$subtract@$$BY03I@big@@YAXAAY03I0@Z	; big::subtract<unsigned int [4]>
	add	esp, 8

; 185  : 		}
; 186  : 
; 187  : 		else

	jmp	SHORT $LN3@SubMulMod
$LN2@SubMulMod:

; 188  : 		{
; 189  : 			subtract( x, y );

	lea	eax, DWORD PTR _y$[ebp]
	push	eax
	mov	ecx, DWORD PTR _x$[ebp]
	push	ecx
	call	??$subtract@$$BY03I@big@@YAXAAY03I0@Z	; big::subtract<unsigned int [4]>
	add	esp, 8

; 190  : 
; 191  : 			add ( x, n )
; 192  : 
; 193  : 				;

	mov	eax, DWORD PTR _n$[ebp]
	push	eax
	mov	ecx, DWORD PTR _x$[ebp]
	push	ecx
	call	??$add@$$BY03I@big@@YAXAAY03I0@Z	; big::add<unsigned int [4]>
	add	esp, 8
$LN3@SubMulMod:

; 194  : 		}
; 195  : 	}

	push	edx
	mov	ecx, ebp
	push	eax
	lea	edx, DWORD PTR $LN9@SubMulMod
	call	@_RTC_CheckStackVars@8
	pop	eax
	pop	edx
	pop	edi
	pop	esi
	pop	ebx
	mov	ecx, DWORD PTR __$ArrayPad$[ebp]
	xor	ecx, ebp
	call	@__security_check_cookie@4
	add	esp, 300				; 0000012cH
	cmp	ebp, esp
	call	__RTC_CheckEsp
	mov	esp, ebp
	pop	ebp
	ret	0
$LN9@SubMulMod:
	DD	3
	DD	$LN8@SubMulMod
$LN8@SubMulMod:
	DD	-40					; ffffffd8H
	DD	32					; 00000020H
	DD	$LN5@SubMulMod
	DD	-80					; ffffffb0H
	DD	32					; 00000020H
	DD	$LN6@SubMulMod
	DD	-104					; ffffff98H
	DD	16					; 00000010H
	DD	$LN7@SubMulMod
$LN7@SubMulMod:
	DB	121					; 00000079H
	DB	0
$LN6@SubMulMod:
	DB	100					; 00000064H
	DB	110					; 0000006eH
	DB	0
$LN5@SubMulMod:
	DB	100					; 00000064H
	DB	97					; 00000061H
	DB	0
??$SubMulMod@$$BY03I@big@@YAXAAY03I0000@Z ENDP		; big::SubMulMod<unsigned int [4]>
_TEXT	ENDS
; Function compile flags: /Odtp /RTCsu /ZI
; File z:\sampsrc\02xu1\raknet\bigtypes.h
;	COMDAT ??$isZero@$$BY03I@big@@YA_NAAY03I@Z
_TEXT	SEGMENT
_ii$1 = -8						; size = 4
_n$ = 8							; size = 4
??$isZero@$$BY03I@big@@YA_NAAY03I@Z PROC		; big::isZero<unsigned int [4]>, COMDAT

; 419  : 	{

	push	ebp
	mov	ebp, esp
	sub	esp, 204				; 000000ccH
	push	ebx
	push	esi
	push	edi
	lea	edi, DWORD PTR [ebp-204]
	mov	ecx, 51					; 00000033H
	mov	eax, -858993460				; ccccccccH
	rep stosd

; 420  : 		for ( u32 ii = 0; ii < BIGWORDCOUNT( T ); ++ii )

	mov	DWORD PTR _ii$1[ebp], 0
	jmp	SHORT $LN4@isZero
$LN3@isZero:
	mov	eax, DWORD PTR _ii$1[ebp]
	add	eax, 1
	mov	DWORD PTR _ii$1[ebp], eax
$LN4@isZero:
	cmp	DWORD PTR _ii$1[ebp], 4
	jae	SHORT $LN2@isZero

; 421  : 			if ( n[ ii ] )

	mov	eax, DWORD PTR _ii$1[ebp]
	mov	ecx, DWORD PTR _n$[ebp]
	cmp	DWORD PTR [ecx+eax*4], 0
	je	SHORT $LN1@isZero

; 422  : 				return false;

	xor	al, al
	jmp	SHORT $LN5@isZero
$LN1@isZero:

; 423  : 				
; 424  : 		return true;

	jmp	SHORT $LN3@isZero
$LN2@isZero:
	mov	al, 1
$LN5@isZero:

; 425  : 	}

	pop	edi
	pop	esi
	pop	ebx
	mov	esp, ebp
	pop	ebp
	ret	0
??$isZero@$$BY03I@big@@YA_NAAY03I@Z ENDP		; big::isZero<unsigned int [4]>
_TEXT	ENDS
; Function compile flags: /Odtp /RTCsu /ZI
; File z:\sampsrc\02xu1\raknet\bigtypes.h
;	COMDAT ??$udivide@$$BY03I@big@@YAXAAY03I000@Z
_TEXT	SEGMENT
tv152 = -272						; size = 4
_qshifts$ = -72						; size = 4
_jj$1 = -60						; size = 4
_ii$2 = -48						; size = 4
_shifts$ = -36						; size = 4
_b$ = -24						; size = 16
__$ArrayPad$ = -4					; size = 4
_a$ = 8							; size = 4
_b0$ = 12						; size = 4
_q$ = 16						; size = 4
_r$ = 20						; size = 4
??$udivide@$$BY03I@big@@YAXAAY03I000@Z PROC		; big::udivide<unsigned int [4]>, COMDAT

; 1168 : 	{

	push	ebp
	mov	ebp, esp
	sub	esp, 272				; 00000110H
	push	ebx
	push	esi
	push	edi
	lea	edi, DWORD PTR [ebp-272]
	mov	ecx, 68					; 00000044H
	mov	eax, -858993460				; ccccccccH
	rep stosd
	mov	eax, DWORD PTR ___security_cookie
	xor	eax, ebp
	mov	DWORD PTR __$ArrayPad$[ebp], eax

; 1169 : 		T b;
; 1170 : 		
; 1171 : 		set ( b, b0 )
; 1172 : 		
; 1173 : 		;

	mov	eax, DWORD PTR _b0$[ebp]
	push	eax
	lea	ecx, DWORD PTR _b$[ebp]
	push	ecx
	call	??$set@$$BY03I@big@@YAXAAY03I0@Z	; big::set<unsigned int [4]>
	add	esp, 8

; 1174 : 		set ( r, a )
; 1175 : 		
; 1176 : 		;

	mov	eax, DWORD PTR _a$[ebp]
	push	eax
	mov	ecx, DWORD PTR _r$[ebp]
	push	ecx
	call	??$set@$$BY03I@big@@YAXAAY03I0@Z	; big::set<unsigned int [4]>
	add	esp, 8

; 1177 : 		zero( q );

	mov	eax, DWORD PTR _q$[ebp]
	push	eax
	call	??$zero@$$BY03I@big@@YAXAAY03I@Z	; big::zero<unsigned int [4]>
	add	esp, 4

; 1178 : 		
; 1179 : 		u32 shifts = 1;

	mov	DWORD PTR _shifts$[ebp], 1

; 1180 : 		
; 1181 : 		// sort of: shift b left until b > r, then shift back one
; 1182 : 		if ( !BIGHIGHBIT( b ) && ugreater( r, b ) )

	mov	eax, 4
	imul	ecx, eax, 3
	mov	edx, DWORD PTR _b$[ebp+ecx]
	and	edx, -2147483648			; 80000000H
	jne	$LN19@udivide
	lea	eax, DWORD PTR _b$[ebp]
	push	eax
	mov	ecx, DWORD PTR _r$[ebp]
	push	ecx
	call	??$ugreater@$$BY03I@big@@YA_NAAY03I0@Z	; big::ugreater<unsigned int [4]>
	add	esp, 8
	movzx	edx, al
	test	edx, edx
	je	$LN19@udivide

; 1183 : 		{
; 1184 : 			s32 ii, jj;
; 1185 : 			
; 1186 : 			// shift by words if possible
; 1187 : 			
; 1188 : 			for ( ii = BIGWORDCOUNT( T ) - 1; ii >= 0; --ii )

	mov	DWORD PTR _ii$2[ebp], 3
	jmp	SHORT $LN18@udivide
$LN17@udivide:
	mov	eax, DWORD PTR _ii$2[ebp]
	sub	eax, 1
	mov	DWORD PTR _ii$2[ebp], eax
$LN18@udivide:
	cmp	DWORD PTR _ii$2[ebp], 0
	jl	SHORT $LN16@udivide

; 1189 : 				if ( r[ ii ] )

	mov	eax, DWORD PTR _ii$2[ebp]
	mov	ecx, DWORD PTR _r$[ebp]
	cmp	DWORD PTR [ecx+eax*4], 0
	je	SHORT $LN15@udivide

; 1190 : 					break;

	jmp	SHORT $LN16@udivide
$LN15@udivide:

; 1191 : 					
; 1192 : 			for ( jj = ii; jj >= 0; --jj )

	jmp	SHORT $LN17@udivide
$LN16@udivide:
	mov	eax, DWORD PTR _ii$2[ebp]
	mov	DWORD PTR _jj$1[ebp], eax
	jmp	SHORT $LN14@udivide
$LN13@udivide:
	mov	eax, DWORD PTR _jj$1[ebp]
	sub	eax, 1
	mov	DWORD PTR _jj$1[ebp], eax
$LN14@udivide:
	cmp	DWORD PTR _jj$1[ebp], 0
	jl	SHORT $LN12@udivide

; 1193 : 				if ( b[ jj ] )

	mov	eax, DWORD PTR _jj$1[ebp]
	cmp	DWORD PTR _b$[ebp+eax*4], 0
	je	SHORT $LN11@udivide

; 1194 : 					break;

	jmp	SHORT $LN12@udivide
$LN11@udivide:

; 1195 : 					
; 1196 : 			if ( ii != jj )

	jmp	SHORT $LN13@udivide
$LN12@udivide:
	mov	eax, DWORD PTR _ii$2[ebp]
	cmp	eax, DWORD PTR _jj$1[ebp]
	je	SHORT $LN9@udivide

; 1197 : 			{
; 1198 : 				shifts = ( ii - jj ) * WORDBITS;

	mov	eax, DWORD PTR _ii$2[ebp]
	sub	eax, DWORD PTR _jj$1[ebp]
	shl	eax, 5
	mov	DWORD PTR _shifts$[ebp], eax

; 1199 : 				shiftLeft( b, shifts );

	mov	eax, DWORD PTR _shifts$[ebp]
	push	eax
	lea	ecx, DWORD PTR _b$[ebp]
	push	ecx
	call	??$shiftLeft@$$BY03I@big@@YAXAAY03II@Z	; big::shiftLeft<unsigned int [4]>
	add	esp, 8

; 1200 : 				++shifts;

	mov	eax, DWORD PTR _shifts$[ebp]
	add	eax, 1
	mov	DWORD PTR _shifts$[ebp], eax
$LN9@udivide:

; 1201 : 			}
; 1202 : 			
; 1203 : 			while ( !BIGHIGHBIT( b ) && ugreater( r, b ) )

	mov	eax, 4
	imul	ecx, eax, 3
	mov	edx, DWORD PTR _b$[ebp+ecx]
	and	edx, -2147483648			; 80000000H
	jne	SHORT $LN7@udivide
	lea	eax, DWORD PTR _b$[ebp]
	push	eax
	mov	ecx, DWORD PTR _r$[ebp]
	push	ecx
	call	??$ugreater@$$BY03I@big@@YA_NAAY03I0@Z	; big::ugreater<unsigned int [4]>
	add	esp, 8
	movzx	edx, al
	test	edx, edx
	je	SHORT $LN7@udivide

; 1204 : 			{
; 1205 : 				shiftLeft1( b );

	lea	eax, DWORD PTR _b$[ebp]
	push	eax
	call	??$shiftLeft1@$$BY03I@big@@YAXAAY03I@Z	; big::shiftLeft1<unsigned int [4]>
	add	esp, 4

; 1206 : 				
; 1207 : 				++shifts;

	mov	eax, DWORD PTR _shifts$[ebp]
	add	eax, 1
	mov	DWORD PTR _shifts$[ebp], eax

; 1208 : 			}

	jmp	SHORT $LN9@udivide
$LN7@udivide:

; 1209 : 			
; 1210 : 			while ( ugreater( b, r ) )

	mov	eax, DWORD PTR _r$[ebp]
	push	eax
	lea	ecx, DWORD PTR _b$[ebp]
	push	ecx
	call	??$ugreater@$$BY03I@big@@YA_NAAY03I0@Z	; big::ugreater<unsigned int [4]>
	add	esp, 8
	movzx	edx, al
	test	edx, edx
	je	SHORT $LN6@udivide

; 1211 : 			{
; 1212 : 				ushiftRight1( b );

	lea	eax, DWORD PTR _b$[ebp]
	push	eax
	call	??$ushiftRight1@$$BY03I@big@@YAXAAY03I@Z ; big::ushiftRight1<unsigned int [4]>
	add	esp, 4

; 1213 : 				
; 1214 : 				--shifts;

	mov	eax, DWORD PTR _shifts$[ebp]
	sub	eax, 1
	mov	DWORD PTR _shifts$[ebp], eax

; 1215 : 			}

	jmp	SHORT $LN7@udivide
$LN6@udivide:

; 1216 : 		}
; 1217 : 		
; 1218 : 		else

	jmp	SHORT $LN5@udivide
$LN19@udivide:

; 1219 : 			if ( ugreater( b, r ) )

	mov	eax, DWORD PTR _r$[ebp]
	push	eax
	lea	ecx, DWORD PTR _b$[ebp]
	push	ecx
	call	??$ugreater@$$BY03I@big@@YA_NAAY03I0@Z	; big::ugreater<unsigned int [4]>
	add	esp, 8
	movzx	edx, al
	test	edx, edx
	je	SHORT $LN5@udivide

; 1220 : 			{
; 1221 : 				ushiftRight1( b );

	lea	eax, DWORD PTR _b$[ebp]
	push	eax
	call	??$ushiftRight1@$$BY03I@big@@YAXAAY03I@Z ; big::ushiftRight1<unsigned int [4]>
	add	esp, 4

; 1222 : 				
; 1223 : 				--shifts;

	mov	eax, DWORD PTR _shifts$[ebp]
	sub	eax, 1
	mov	DWORD PTR _shifts$[ebp], eax
$LN5@udivide:

; 1224 : 			}
; 1225 : 			
; 1226 : 		u32 qshifts = 0;

	mov	DWORD PTR _qshifts$[ebp], 0
$LN3@udivide:

; 1227 : 		
; 1228 : 		while ( shifts-- )

	mov	eax, DWORD PTR _shifts$[ebp]
	mov	DWORD PTR tv152[ebp], eax
	mov	ecx, DWORD PTR _shifts$[ebp]
	sub	ecx, 1
	mov	DWORD PTR _shifts$[ebp], ecx
	cmp	DWORD PTR tv152[ebp], 0
	je	SHORT $LN2@udivide

; 1229 : 		{
; 1230 : 			++qshifts;

	mov	eax, DWORD PTR _qshifts$[ebp]
	add	eax, 1
	mov	DWORD PTR _qshifts$[ebp], eax

; 1231 : 			
; 1232 : 			if ( !ugreater( b, r ) )

	mov	eax, DWORD PTR _r$[ebp]
	push	eax
	lea	ecx, DWORD PTR _b$[ebp]
	push	ecx
	call	??$ugreater@$$BY03I@big@@YA_NAAY03I0@Z	; big::ugreater<unsigned int [4]>
	add	esp, 8
	movzx	edx, al
	test	edx, edx
	jne	SHORT $LN1@udivide

; 1233 : 			{
; 1234 : 				subtract( r, b );

	lea	eax, DWORD PTR _b$[ebp]
	push	eax
	mov	ecx, DWORD PTR _r$[ebp]
	push	ecx
	call	??$subtract@$$BY03I@big@@YAXAAY03I0@Z	; big::subtract<unsigned int [4]>
	add	esp, 8

; 1235 : 				
; 1236 : 				shiftLeft( q, qshifts );

	mov	eax, DWORD PTR _qshifts$[ebp]
	push	eax
	mov	ecx, DWORD PTR _q$[ebp]
	push	ecx
	call	??$shiftLeft@$$BY03I@big@@YAXAAY03II@Z	; big::shiftLeft<unsigned int [4]>
	add	esp, 8

; 1237 : 				qshifts = 0;

	mov	DWORD PTR _qshifts$[ebp], 0

; 1238 : 				
; 1239 : 				q[ 0 ] |= 1;

	mov	eax, 4
	imul	ecx, eax, 0
	mov	edx, DWORD PTR _q$[ebp]
	mov	eax, DWORD PTR [edx+ecx]
	or	eax, 1
	mov	ecx, 4
	imul	edx, ecx, 0
	mov	ecx, DWORD PTR _q$[ebp]
	mov	DWORD PTR [ecx+edx], eax
$LN1@udivide:

; 1240 : 			}
; 1241 : 			
; 1242 : 			ushiftRight1( b );

	lea	eax, DWORD PTR _b$[ebp]
	push	eax
	call	??$ushiftRight1@$$BY03I@big@@YAXAAY03I@Z ; big::ushiftRight1<unsigned int [4]>
	add	esp, 4

; 1243 : 		}

	jmp	$LN3@udivide
$LN2@udivide:

; 1244 : 		
; 1245 : 		shiftLeft( q, qshifts );

	mov	eax, DWORD PTR _qshifts$[ebp]
	push	eax
	mov	ecx, DWORD PTR _q$[ebp]
	push	ecx
	call	??$shiftLeft@$$BY03I@big@@YAXAAY03II@Z	; big::shiftLeft<unsigned int [4]>
	add	esp, 8

; 1246 : 	}

	push	edx
	mov	ecx, ebp
	push	eax
	lea	edx, DWORD PTR $LN24@udivide
	call	@_RTC_CheckStackVars@8
	pop	eax
	pop	edx
	pop	edi
	pop	esi
	pop	ebx
	mov	ecx, DWORD PTR __$ArrayPad$[ebp]
	xor	ecx, ebp
	call	@__security_check_cookie@4
	add	esp, 272				; 00000110H
	cmp	ebp, esp
	call	__RTC_CheckEsp
	mov	esp, ebp
	pop	ebp
	ret	0
	npad	2
$LN24@udivide:
	DD	1
	DD	$LN23@udivide
$LN23@udivide:
	DD	-24					; ffffffe8H
	DD	16					; 00000010H
	DD	$LN22@udivide
$LN22@udivide:
	DB	98					; 00000062H
	DB	0
??$udivide@$$BY03I@big@@YAXAAY03I000@Z ENDP		; big::udivide<unsigned int [4]>
_TEXT	ENDS
; Function compile flags: /Odtp /RTCsu /ZI
; File z:\sampsrc\02xu1\raknet\bigtypes.h
;	COMDAT ??$usetw@$$BY03I@big@@YAXAAY03II@Z
_TEXT	SEGMENT
_a$ = 8							; size = 4
_b$ = 12						; size = 4
??$usetw@$$BY03I@big@@YAXAAY03II@Z PROC			; big::usetw<unsigned int [4]>, COMDAT

; 294  : 	{

	push	ebp
	mov	ebp, esp
	sub	esp, 192				; 000000c0H
	push	ebx
	push	esi
	push	edi
	lea	edi, DWORD PTR [ebp-192]
	mov	ecx, 48					; 00000030H
	mov	eax, -858993460				; ccccccccH
	rep stosd

; 295  : 		a[ 0 ] = b;

	mov	eax, 4
	imul	ecx, eax, 0
	mov	edx, DWORD PTR _a$[ebp]
	mov	eax, DWORD PTR _b$[ebp]
	mov	DWORD PTR [edx+ecx], eax

; 296  : 		memset( a + 1, 0, sizeof( T ) - sizeof( word ) );

	push	12					; 0000000cH
	push	0
	mov	eax, DWORD PTR _a$[ebp]
	add	eax, 4
	push	eax
	call	_memset
	add	esp, 12					; 0000000cH

; 297  : 	}

	pop	edi
	pop	esi
	pop	ebx
	add	esp, 192				; 000000c0H
	cmp	ebp, esp
	call	__RTC_CheckEsp
	mov	esp, ebp
	pop	ebp
	ret	0
??$usetw@$$BY03I@big@@YAXAAY03II@Z ENDP			; big::usetw<unsigned int [4]>
_TEXT	ENDS
; Function compile flags: /Odtp /RTCsu /ZI
; File z:\sampsrc\02xu1\raknet\rsacrypt.h
;	COMDAT ??$computeModularInverse@$$BY07I@big@@YAXAAY07I00@Z
_TEXT	SEGMENT
_q$ = -240						; size = 32
_b$ = -200						; size = 32
_a$ = -160						; size = 32
_x2$ = -120						; size = 32
_x1$ = -80						; size = 32
_x0$ = -40						; size = 32
__$ArrayPad$ = -4					; size = 4
_a0$ = 8						; size = 4
_b0$ = 12						; size = 4
_ap$ = 16						; size = 4
??$computeModularInverse@$$BY07I@big@@YAXAAY07I00@Z PROC ; big::computeModularInverse<unsigned int [8]>, COMDAT

; 532  : 	{

	push	ebp
	mov	ebp, esp
	sub	esp, 436				; 000001b4H
	push	ebx
	push	esi
	push	edi
	lea	edi, DWORD PTR [ebp-436]
	mov	ecx, 109				; 0000006dH
	mov	eax, -858993460				; ccccccccH
	rep stosd
	mov	eax, DWORD PTR ___security_cookie
	xor	eax, ebp
	mov	DWORD PTR __$ArrayPad$[ebp], eax

; 533  : 		T x0, x1, x2;
; 534  : 		T a, b, q;
; 535  : 
; 536  : 		// x[2] = 1
; 537  : 		usetw( x2, 1 );

	push	1
	lea	eax, DWORD PTR _x2$[ebp]
	push	eax
	call	??$usetw@$$BY07I@big@@YAXAAY07II@Z	; big::usetw<unsigned int [8]>
	add	esp, 8

; 538  : 
; 539  : 		// {q, b} = b0 / a0
; 540  : 		udivide( b0, a0, q, b );

	lea	eax, DWORD PTR _b$[ebp]
	push	eax
	lea	ecx, DWORD PTR _q$[ebp]
	push	ecx
	mov	edx, DWORD PTR _a0$[ebp]
	push	edx
	mov	eax, DWORD PTR _b0$[ebp]
	push	eax
	call	??$udivide@$$BY07I@big@@YAXAAY07I000@Z	; big::udivide<unsigned int [8]>
	add	esp, 16					; 00000010H

; 541  : 
; 542  : 		// x[0] = -q (mod b0) = b0 - q, q <= b0
; 543  : 
; 544  : 		set ( x0, b0 )
; 545  : 
; 546  : 			;

	mov	eax, DWORD PTR _b0$[ebp]
	push	eax
	lea	ecx, DWORD PTR _x0$[ebp]
	push	ecx
	call	??$set@$$BY07I@big@@YAXAAY07I0@Z	; big::set<unsigned int [8]>
	add	esp, 8

; 547  : 		subtract( x0, q );

	lea	eax, DWORD PTR _q$[ebp]
	push	eax
	lea	ecx, DWORD PTR _x0$[ebp]
	push	ecx
	call	??$subtract@$$BY07I@big@@YAXAAY07I0@Z	; big::subtract<unsigned int [8]>
	add	esp, 8

; 548  : 
; 549  : 		set ( a, a0 )
; 550  : 
; 551  : 			;

	mov	eax, DWORD PTR _a0$[ebp]
	push	eax
	lea	ecx, DWORD PTR _a$[ebp]
	push	ecx
	call	??$set@$$BY07I@big@@YAXAAY07I0@Z	; big::set<unsigned int [8]>
	add	esp, 8
$LN8@computeMod:

; 552  : 
; 553  : #ifdef _MSC_VER
; 554  : #pragma warning( disable : 4127 ) // warning C4127: conditional expression is constant
; 555  : #endif
; 556  : 		while ( true )

	mov	eax, 1
	test	eax, eax
	je	$LN9@computeMod

; 557  : 		{
; 558  : 			// {q, a} = a / b
; 559  : 			udivide( a, b, q, a );

	lea	eax, DWORD PTR _a$[ebp]
	push	eax
	lea	ecx, DWORD PTR _q$[ebp]
	push	ecx
	lea	edx, DWORD PTR _b$[ebp]
	push	edx
	lea	eax, DWORD PTR _a$[ebp]
	push	eax
	call	??$udivide@$$BY07I@big@@YAXAAY07I000@Z	; big::udivide<unsigned int [8]>
	add	esp, 16					; 00000010H

; 560  : 
; 561  : 			// if a = 0, return x[0]
; 562  : 
; 563  : 			if ( isZero( a ) )

	lea	eax, DWORD PTR _a$[ebp]
	push	eax
	call	??$isZero@$$BY07I@big@@YA_NAAY07I@Z	; big::isZero<unsigned int [8]>
	add	esp, 4
	movzx	ecx, al
	test	ecx, ecx
	je	SHORT $LN6@computeMod

; 564  : 			{
; 565  : 				set ( ap, x0 )
; 566  : 
; 567  : 					;

	lea	eax, DWORD PTR _x0$[ebp]
	push	eax
	mov	ecx, DWORD PTR _ap$[ebp]
	push	ecx
	call	??$set@$$BY07I@big@@YAXAAY07I0@Z	; big::set<unsigned int [8]>
	add	esp, 8

; 568  : 				return ;

	jmp	$LN9@computeMod
$LN6@computeMod:

; 569  : 			}
; 570  : 
; 571  : 			// x[1] = x[2] - x[0] * q (mod b0)
; 572  : 			SubMulMod( x0, q, x2, b0, x1 );

	lea	eax, DWORD PTR _x1$[ebp]
	push	eax
	mov	ecx, DWORD PTR _b0$[ebp]
	push	ecx
	lea	edx, DWORD PTR _x2$[ebp]
	push	edx
	lea	eax, DWORD PTR _q$[ebp]
	push	eax
	lea	ecx, DWORD PTR _x0$[ebp]
	push	ecx
	call	??$SubMulMod@$$BY07I@big@@YAXAAY07I0000@Z ; big::SubMulMod<unsigned int [8]>
	add	esp, 20					; 00000014H

; 573  : 
; 574  : 			// {q, b} = b / a
; 575  : 			udivide( b, a, q, b );

	lea	eax, DWORD PTR _b$[ebp]
	push	eax
	lea	ecx, DWORD PTR _q$[ebp]
	push	ecx
	lea	edx, DWORD PTR _a$[ebp]
	push	edx
	lea	eax, DWORD PTR _b$[ebp]
	push	eax
	call	??$udivide@$$BY07I@big@@YAXAAY07I000@Z	; big::udivide<unsigned int [8]>
	add	esp, 16					; 00000010H

; 576  : 
; 577  : 			// if b = 0, return x[1]
; 578  : 			if ( isZero( b ) )

	lea	eax, DWORD PTR _b$[ebp]
	push	eax
	call	??$isZero@$$BY07I@big@@YA_NAAY07I@Z	; big::isZero<unsigned int [8]>
	add	esp, 4
	movzx	ecx, al
	test	ecx, ecx
	je	SHORT $LN5@computeMod

; 579  : 			{
; 580  : 				set ( ap, x1 )
; 581  : 
; 582  : 					;

	lea	eax, DWORD PTR _x1$[ebp]
	push	eax
	mov	ecx, DWORD PTR _ap$[ebp]
	push	ecx
	call	??$set@$$BY07I@big@@YAXAAY07I0@Z	; big::set<unsigned int [8]>
	add	esp, 8

; 583  : 				return ;

	jmp	$LN9@computeMod
$LN5@computeMod:

; 584  : 			}
; 585  : 
; 586  : 			// x[2] = x[0] - x[1] * q (mod b0)
; 587  : 			SubMulMod( x1, q, x0, b0, x2 );

	lea	eax, DWORD PTR _x2$[ebp]
	push	eax
	mov	ecx, DWORD PTR _b0$[ebp]
	push	ecx
	lea	edx, DWORD PTR _x0$[ebp]
	push	edx
	lea	eax, DWORD PTR _q$[ebp]
	push	eax
	lea	ecx, DWORD PTR _x1$[ebp]
	push	ecx
	call	??$SubMulMod@$$BY07I@big@@YAXAAY07I0000@Z ; big::SubMulMod<unsigned int [8]>
	add	esp, 20					; 00000014H

; 588  : 
; 589  : 			// {q, a} = a / b
; 590  : 			udivide( a, b, q, a );

	lea	eax, DWORD PTR _a$[ebp]
	push	eax
	lea	ecx, DWORD PTR _q$[ebp]
	push	ecx
	lea	edx, DWORD PTR _b$[ebp]
	push	edx
	lea	eax, DWORD PTR _a$[ebp]
	push	eax
	call	??$udivide@$$BY07I@big@@YAXAAY07I000@Z	; big::udivide<unsigned int [8]>
	add	esp, 16					; 00000010H

; 591  : 
; 592  : 			// if a = 0, return x[2]
; 593  : 			if ( isZero( a ) )

	lea	eax, DWORD PTR _a$[ebp]
	push	eax
	call	??$isZero@$$BY07I@big@@YA_NAAY07I@Z	; big::isZero<unsigned int [8]>
	add	esp, 4
	movzx	ecx, al
	test	ecx, ecx
	je	SHORT $LN4@computeMod

; 594  : 			{
; 595  : 				set ( ap, x2 )
; 596  : 
; 597  : 					;

	lea	eax, DWORD PTR _x2$[ebp]
	push	eax
	mov	ecx, DWORD PTR _ap$[ebp]
	push	ecx
	call	??$set@$$BY07I@big@@YAXAAY07I0@Z	; big::set<unsigned int [8]>
	add	esp, 8

; 598  : 				return ;

	jmp	$LN9@computeMod
$LN4@computeMod:

; 599  : 			}
; 600  : 
; 601  : 			// x[0] = x[1] - x[2] * q (mod b0)
; 602  : 			SubMulMod( x2, q, x1, b0, x0 );

	lea	eax, DWORD PTR _x0$[ebp]
	push	eax
	mov	ecx, DWORD PTR _b0$[ebp]
	push	ecx
	lea	edx, DWORD PTR _x1$[ebp]
	push	edx
	lea	eax, DWORD PTR _q$[ebp]
	push	eax
	lea	ecx, DWORD PTR _x2$[ebp]
	push	ecx
	call	??$SubMulMod@$$BY07I@big@@YAXAAY07I0000@Z ; big::SubMulMod<unsigned int [8]>
	add	esp, 20					; 00000014H

; 603  : 
; 604  : 			// {q, b} = b / a
; 605  : 			udivide( b, a, q, b );

	lea	eax, DWORD PTR _b$[ebp]
	push	eax
	lea	ecx, DWORD PTR _q$[ebp]
	push	ecx
	lea	edx, DWORD PTR _a$[ebp]
	push	edx
	lea	eax, DWORD PTR _b$[ebp]
	push	eax
	call	??$udivide@$$BY07I@big@@YAXAAY07I000@Z	; big::udivide<unsigned int [8]>
	add	esp, 16					; 00000010H

; 606  : 
; 607  : 			// if b = 0, return x[0]
; 608  : 			if ( isZero( b ) )

	lea	eax, DWORD PTR _b$[ebp]
	push	eax
	call	??$isZero@$$BY07I@big@@YA_NAAY07I@Z	; big::isZero<unsigned int [8]>
	add	esp, 4
	movzx	ecx, al
	test	ecx, ecx
	je	SHORT $LN3@computeMod

; 609  : 			{
; 610  : 				set ( ap, x0 )
; 611  : 
; 612  : 					;

	lea	eax, DWORD PTR _x0$[ebp]
	push	eax
	mov	ecx, DWORD PTR _ap$[ebp]
	push	ecx
	call	??$set@$$BY07I@big@@YAXAAY07I0@Z	; big::set<unsigned int [8]>
	add	esp, 8

; 613  : 				return ;

	jmp	$LN9@computeMod
$LN3@computeMod:

; 614  : 			}
; 615  : 
; 616  : 			// x[1] = x[2] - x[0] * q (mod b0)
; 617  : 			SubMulMod( x0, q, x2, b0, x1 );

	lea	eax, DWORD PTR _x1$[ebp]
	push	eax
	mov	ecx, DWORD PTR _b0$[ebp]
	push	ecx
	lea	edx, DWORD PTR _x2$[ebp]
	push	edx
	lea	eax, DWORD PTR _q$[ebp]
	push	eax
	lea	ecx, DWORD PTR _x0$[ebp]
	push	ecx
	call	??$SubMulMod@$$BY07I@big@@YAXAAY07I0000@Z ; big::SubMulMod<unsigned int [8]>
	add	esp, 20					; 00000014H

; 618  : 
; 619  : 			// {q, a} = a / b
; 620  : 			udivide( a, b, q, a );

	lea	eax, DWORD PTR _a$[ebp]
	push	eax
	lea	ecx, DWORD PTR _q$[ebp]
	push	ecx
	lea	edx, DWORD PTR _b$[ebp]
	push	edx
	lea	eax, DWORD PTR _a$[ebp]
	push	eax
	call	??$udivide@$$BY07I@big@@YAXAAY07I000@Z	; big::udivide<unsigned int [8]>
	add	esp, 16					; 00000010H

; 621  : 
; 622  : 			// if a = 0, return x[1]
; 623  : 			if ( isZero( a ) )

	lea	eax, DWORD PTR _a$[ebp]
	push	eax
	call	??$isZero@$$BY07I@big@@YA_NAAY07I@Z	; big::isZero<unsigned int [8]>
	add	esp, 4
	movzx	ecx, al
	test	ecx, ecx
	je	SHORT $LN2@computeMod

; 624  : 			{
; 625  : 				set ( ap, x1 )
; 626  : 
; 627  : 					;

	lea	eax, DWORD PTR _x1$[ebp]
	push	eax
	mov	ecx, DWORD PTR _ap$[ebp]
	push	ecx
	call	??$set@$$BY07I@big@@YAXAAY07I0@Z	; big::set<unsigned int [8]>
	add	esp, 8

; 628  : 				return ;

	jmp	$LN9@computeMod
$LN2@computeMod:

; 629  : 			}
; 630  : 
; 631  : 			// x[2] = x[0] - x[1] * q (mod b0)
; 632  : 			SubMulMod( x1, q, x0, b0, x2 );

	lea	eax, DWORD PTR _x2$[ebp]
	push	eax
	mov	ecx, DWORD PTR _b0$[ebp]
	push	ecx
	lea	edx, DWORD PTR _x0$[ebp]
	push	edx
	lea	eax, DWORD PTR _q$[ebp]
	push	eax
	lea	ecx, DWORD PTR _x1$[ebp]
	push	ecx
	call	??$SubMulMod@$$BY07I@big@@YAXAAY07I0000@Z ; big::SubMulMod<unsigned int [8]>
	add	esp, 20					; 00000014H

; 633  : 
; 634  : 			// {q, b} = b / a
; 635  : 			udivide( b, a, q, b );

	lea	eax, DWORD PTR _b$[ebp]
	push	eax
	lea	ecx, DWORD PTR _q$[ebp]
	push	ecx
	lea	edx, DWORD PTR _a$[ebp]
	push	edx
	lea	eax, DWORD PTR _b$[ebp]
	push	eax
	call	??$udivide@$$BY07I@big@@YAXAAY07I000@Z	; big::udivide<unsigned int [8]>
	add	esp, 16					; 00000010H

; 636  : 
; 637  : 			// if b = 0, return x[2]
; 638  : 			if ( isZero( b ) )

	lea	eax, DWORD PTR _b$[ebp]
	push	eax
	call	??$isZero@$$BY07I@big@@YA_NAAY07I@Z	; big::isZero<unsigned int [8]>
	add	esp, 4
	movzx	ecx, al
	test	ecx, ecx
	je	SHORT $LN1@computeMod

; 639  : 			{
; 640  : 				set ( ap, x2 )
; 641  : 
; 642  : 					;

	lea	eax, DWORD PTR _x2$[ebp]
	push	eax
	mov	ecx, DWORD PTR _ap$[ebp]
	push	ecx
	call	??$set@$$BY07I@big@@YAXAAY07I0@Z	; big::set<unsigned int [8]>
	add	esp, 8

; 643  : 				return ;

	jmp	SHORT $LN9@computeMod
$LN1@computeMod:

; 644  : 			}
; 645  : 
; 646  : 			// x[0] = x[1] - x[2] * q (mod b0)
; 647  : 			SubMulMod( x2, q, x1, b0, x0 );

	lea	eax, DWORD PTR _x0$[ebp]
	push	eax
	mov	ecx, DWORD PTR _b0$[ebp]
	push	ecx
	lea	edx, DWORD PTR _x1$[ebp]
	push	edx
	lea	eax, DWORD PTR _q$[ebp]
	push	eax
	lea	ecx, DWORD PTR _x2$[ebp]
	push	ecx
	call	??$SubMulMod@$$BY07I@big@@YAXAAY07I0000@Z ; big::SubMulMod<unsigned int [8]>
	add	esp, 20					; 00000014H

; 648  : 		}

	jmp	$LN8@computeMod
$LN9@computeMod:

; 649  : 	}

	push	edx
	mov	ecx, ebp
	push	eax
	lea	edx, DWORD PTR $LN18@computeMod
	call	@_RTC_CheckStackVars@8
	pop	eax
	pop	edx
	pop	edi
	pop	esi
	pop	ebx
	mov	ecx, DWORD PTR __$ArrayPad$[ebp]
	xor	ecx, ebp
	call	@__security_check_cookie@4
	add	esp, 436				; 000001b4H
	cmp	ebp, esp
	call	__RTC_CheckEsp
	mov	esp, ebp
	pop	ebp
	ret	0
$LN18@computeMod:
	DD	6
	DD	$LN17@computeMod
$LN17@computeMod:
	DD	-40					; ffffffd8H
	DD	32					; 00000020H
	DD	$LN11@computeMod
	DD	-80					; ffffffb0H
	DD	32					; 00000020H
	DD	$LN12@computeMod
	DD	-120					; ffffff88H
	DD	32					; 00000020H
	DD	$LN13@computeMod
	DD	-160					; ffffff60H
	DD	32					; 00000020H
	DD	$LN14@computeMod
	DD	-200					; ffffff38H
	DD	32					; 00000020H
	DD	$LN15@computeMod
	DD	-240					; ffffff10H
	DD	32					; 00000020H
	DD	$LN16@computeMod
$LN16@computeMod:
	DB	113					; 00000071H
	DB	0
$LN15@computeMod:
	DB	98					; 00000062H
	DB	0
$LN14@computeMod:
	DB	97					; 00000061H
	DB	0
$LN13@computeMod:
	DB	120					; 00000078H
	DB	50					; 00000032H
	DB	0
$LN12@computeMod:
	DB	120					; 00000078H
	DB	49					; 00000031H
	DB	0
$LN11@computeMod:
	DB	120					; 00000078H
	DB	48					; 00000030H
	DB	0
??$computeModularInverse@$$BY07I@big@@YAXAAY07I00@Z ENDP ; big::computeModularInverse<unsigned int [8]>
_TEXT	ENDS
; Function compile flags: /Odtp /RTCsu /ZI
; File z:\sampsrc\02xu1\raknet\bigtypes.h
;	COMDAT ??$equal@$$BY07I@big@@YA_NAAY07I0@Z
_TEXT	SEGMENT
tv69 = -196						; size = 4
_a$ = 8							; size = 4
_b$ = 12						; size = 4
??$equal@$$BY07I@big@@YA_NAAY07I0@Z PROC		; big::equal<unsigned int [8]>, COMDAT

; 413  : 	{

	push	ebp
	mov	ebp, esp
	sub	esp, 196				; 000000c4H
	push	ebx
	push	esi
	push	edi
	lea	edi, DWORD PTR [ebp-196]
	mov	ecx, 49					; 00000031H
	mov	eax, -858993460				; ccccccccH
	rep stosd

; 414  : 		return memcmp( a, b, sizeof( T ) ) == 0;

	push	32					; 00000020H
	mov	eax, DWORD PTR _b$[ebp]
	push	eax
	mov	ecx, DWORD PTR _a$[ebp]
	push	ecx
	call	_memcmp
	add	esp, 12					; 0000000cH
	test	eax, eax
	jne	SHORT $LN3@equal
	mov	DWORD PTR tv69[ebp], 1
	jmp	SHORT $LN4@equal
$LN3@equal:
	mov	DWORD PTR tv69[ebp], 0
$LN4@equal:
	mov	al, BYTE PTR tv69[ebp]

; 415  : 	}

	pop	edi
	pop	esi
	pop	ebx
	add	esp, 196				; 000000c4H
	cmp	ebp, esp
	call	__RTC_CheckEsp
	mov	esp, ebp
	pop	ebp
	ret	0
??$equal@$$BY07I@big@@YA_NAAY07I0@Z ENDP		; big::equal<unsigned int [8]>
_TEXT	ENDS
; Function compile flags: /Odtp /RTCsu /ZI
; File z:\sampsrc\02xu1\raknet\rsacrypt.h
;	COMDAT ??$GCD@$$BY07I@big@@YAXAAY07I00@Z
_TEXT	SEGMENT
_a$ = -40						; size = 32
__$ArrayPad$ = -4					; size = 4
_a0$ = 8						; size = 4
_b0$ = 12						; size = 4
_c$ = 16						; size = 4
??$GCD@$$BY07I@big@@YAXAAY07I00@Z PROC			; big::GCD<unsigned int [8]>, COMDAT

; 123  : 	{

	push	ebp
	mov	ebp, esp
	sub	esp, 236				; 000000ecH
	push	ebx
	push	esi
	push	edi
	lea	edi, DWORD PTR [ebp-236]
	mov	ecx, 59					; 0000003bH
	mov	eax, -858993460				; ccccccccH
	rep stosd
	mov	eax, DWORD PTR ___security_cookie
	xor	eax, ebp
	mov	DWORD PTR __$ArrayPad$[ebp], eax

; 124  : 		T a;
; 125  : 
; 126  : 		umodulo( a0, b0, c );

	mov	eax, DWORD PTR _c$[ebp]
	push	eax
	mov	ecx, DWORD PTR _b0$[ebp]
	push	ecx
	mov	edx, DWORD PTR _a0$[ebp]
	push	edx
	call	??$umodulo@$$BY07I@big@@YAXAAY07I00@Z	; big::umodulo<unsigned int [8]>
	add	esp, 12					; 0000000cH

; 127  : 
; 128  : 		if ( isZero( c ) )

	mov	eax, DWORD PTR _c$[ebp]
	push	eax
	call	??$isZero@$$BY07I@big@@YA_NAAY07I@Z	; big::isZero<unsigned int [8]>
	add	esp, 4
	movzx	ecx, al
	test	ecx, ecx
	je	SHORT $LN6@GCD

; 129  : 		{
; 130  : 			set ( c, b0 )
; 131  : 
; 132  : 				;

	mov	eax, DWORD PTR _b0$[ebp]
	push	eax
	mov	ecx, DWORD PTR _c$[ebp]
	push	ecx
	call	??$set@$$BY07I@big@@YAXAAY07I0@Z	; big::set<unsigned int [8]>
	add	esp, 8

; 133  : 			return ;

	jmp	$LN7@GCD
$LN6@GCD:

; 134  : 		}
; 135  : 
; 136  : 		umodulo( b0, c, a );

	lea	eax, DWORD PTR _a$[ebp]
	push	eax
	mov	ecx, DWORD PTR _c$[ebp]
	push	ecx
	mov	edx, DWORD PTR _b0$[ebp]
	push	edx
	call	??$umodulo@$$BY07I@big@@YAXAAY07I00@Z	; big::umodulo<unsigned int [8]>
	add	esp, 12					; 0000000cH

; 137  : 
; 138  : 		if ( isZero( a ) )

	lea	eax, DWORD PTR _a$[ebp]
	push	eax
	call	??$isZero@$$BY07I@big@@YA_NAAY07I@Z	; big::isZero<unsigned int [8]>
	add	esp, 4
	movzx	ecx, al
	test	ecx, ecx
	je	SHORT $LN4@GCD

; 139  : 			return ;

	jmp	SHORT $LN7@GCD
$LN4@GCD:

; 140  : 
; 141  : #ifdef _MSC_VER
; 142  : #pragma warning( disable : 4127 ) // warning C4127: conditional expression is constant
; 143  : #endif
; 144  : 		while ( true )

	mov	eax, 1
	test	eax, eax
	je	SHORT $LN7@GCD

; 145  : 		{
; 146  : 			umodulo( c, a, c );

	mov	eax, DWORD PTR _c$[ebp]
	push	eax
	lea	ecx, DWORD PTR _a$[ebp]
	push	ecx
	mov	edx, DWORD PTR _c$[ebp]
	push	edx
	call	??$umodulo@$$BY07I@big@@YAXAAY07I00@Z	; big::umodulo<unsigned int [8]>
	add	esp, 12					; 0000000cH

; 147  : 
; 148  : 			if ( isZero( c ) )

	mov	eax, DWORD PTR _c$[ebp]
	push	eax
	call	??$isZero@$$BY07I@big@@YA_NAAY07I@Z	; big::isZero<unsigned int [8]>
	add	esp, 4
	movzx	ecx, al
	test	ecx, ecx
	je	SHORT $LN2@GCD

; 149  : 			{
; 150  : 				set ( c, a )
; 151  : 
; 152  : 					;

	lea	eax, DWORD PTR _a$[ebp]
	push	eax
	mov	ecx, DWORD PTR _c$[ebp]
	push	ecx
	call	??$set@$$BY07I@big@@YAXAAY07I0@Z	; big::set<unsigned int [8]>
	add	esp, 8

; 153  : 				return ;

	jmp	SHORT $LN7@GCD
$LN2@GCD:

; 154  : 			}
; 155  : 
; 156  : 			umodulo( a, c, a );

	lea	eax, DWORD PTR _a$[ebp]
	push	eax
	mov	ecx, DWORD PTR _c$[ebp]
	push	ecx
	lea	edx, DWORD PTR _a$[ebp]
	push	edx
	call	??$umodulo@$$BY07I@big@@YAXAAY07I00@Z	; big::umodulo<unsigned int [8]>
	add	esp, 12					; 0000000cH

; 157  : 
; 158  : 			if ( isZero( a ) )

	lea	eax, DWORD PTR _a$[ebp]
	push	eax
	call	??$isZero@$$BY07I@big@@YA_NAAY07I@Z	; big::isZero<unsigned int [8]>
	add	esp, 4
	movzx	ecx, al
	test	ecx, ecx
	je	SHORT $LN1@GCD

; 159  : 				return ;

	jmp	SHORT $LN7@GCD
$LN1@GCD:

; 160  : 		}

	jmp	SHORT $LN4@GCD
$LN7@GCD:

; 161  : 	}

	push	edx
	mov	ecx, ebp
	push	eax
	lea	edx, DWORD PTR $LN11@GCD
	call	@_RTC_CheckStackVars@8
	pop	eax
	pop	edx
	pop	edi
	pop	esi
	pop	ebx
	mov	ecx, DWORD PTR __$ArrayPad$[ebp]
	xor	ecx, ebp
	call	@__security_check_cookie@4
	add	esp, 236				; 000000ecH
	cmp	ebp, esp
	call	__RTC_CheckEsp
	mov	esp, ebp
	pop	ebp
	ret	0
	npad	3
$LN11@GCD:
	DD	1
	DD	$LN10@GCD
$LN10@GCD:
	DD	-40					; ffffffd8H
	DD	32					; 00000020H
	DD	$LN9@GCD
$LN9@GCD:
	DB	97					; 00000061H
	DB	0
??$GCD@$$BY07I@big@@YAXAAY07I00@Z ENDP			; big::GCD<unsigned int [8]>
_TEXT	ENDS
; Function compile flags: /Odtp /RTCsu /ZI
; File z:\sampsrc\02xu1\raknet\bigtypes.h
;	COMDAT ??$ugreater@$$BY07I@big@@YA_NAAY07I0@Z
_TEXT	SEGMENT
_ii$1 = -8						; size = 4
_a$ = 8							; size = 4
_b$ = 12						; size = 4
??$ugreater@$$BY07I@big@@YA_NAAY07I0@Z PROC		; big::ugreater<unsigned int [8]>, COMDAT

; 353  : 	{

	push	ebp
	mov	ebp, esp
	sub	esp, 204				; 000000ccH
	push	ebx
	push	esi
	push	edi
	lea	edi, DWORD PTR [ebp-204]
	mov	ecx, 51					; 00000033H
	mov	eax, -858993460				; ccccccccH
	rep stosd

; 354  : 		for ( s32 ii = BIGWORDCOUNT( T ) - 1; ii >= 0; --ii )

	mov	DWORD PTR _ii$1[ebp], 7
	jmp	SHORT $LN5@ugreater
$LN4@ugreater:
	mov	eax, DWORD PTR _ii$1[ebp]
	sub	eax, 1
	mov	DWORD PTR _ii$1[ebp], eax
$LN5@ugreater:
	cmp	DWORD PTR _ii$1[ebp], 0
	jl	SHORT $LN3@ugreater

; 355  : 		{
; 356  : 			if ( a[ ii ] > b[ ii ] )

	mov	eax, DWORD PTR _ii$1[ebp]
	mov	ecx, DWORD PTR _a$[ebp]
	mov	edx, DWORD PTR _ii$1[ebp]
	mov	esi, DWORD PTR _b$[ebp]
	mov	eax, DWORD PTR [ecx+eax*4]
	cmp	eax, DWORD PTR [esi+edx*4]
	jbe	SHORT $LN2@ugreater

; 357  : 				return true;

	mov	al, 1
	jmp	SHORT $LN6@ugreater
$LN2@ugreater:

; 358  : 				
; 359  : 			if ( a[ ii ] < b[ ii ] )

	mov	eax, DWORD PTR _ii$1[ebp]
	mov	ecx, DWORD PTR _a$[ebp]
	mov	edx, DWORD PTR _ii$1[ebp]
	mov	esi, DWORD PTR _b$[ebp]
	mov	eax, DWORD PTR [ecx+eax*4]
	cmp	eax, DWORD PTR [esi+edx*4]
	jae	SHORT $LN1@ugreater

; 360  : 				return false;

	xor	al, al
	jmp	SHORT $LN6@ugreater
$LN1@ugreater:

; 361  : 		}

	jmp	SHORT $LN4@ugreater
$LN3@ugreater:

; 362  : 		
; 363  : 		return false;

	xor	al, al
$LN6@ugreater:

; 364  : 	}

	pop	edi
	pop	esi
	pop	ebx
	mov	esp, ebp
	pop	ebp
	ret	0
??$ugreater@$$BY07I@big@@YA_NAAY07I0@Z ENDP		; big::ugreater<unsigned int [8]>
_TEXT	ENDS
; Function compile flags: /Odtp /RTCsu /ZI
; File z:\sampsrc\02xu1\raknet\bigtypes.h
;	COMDAT ??$shiftLeft@$$BY07I@big@@YAXAAY07II@Z
_TEXT	SEGMENT
_ii$1 = -68						; size = 4
_carry$2 = -56						; size = 4
_w_i$3 = -44						; size = 4
_bits$ = -32						; size = 4
_bases$ = -20						; size = 4
_ii$ = -8						; size = 4
_n$ = 8							; size = 4
_s$ = 12						; size = 4
??$shiftLeft@$$BY07I@big@@YAXAAY07II@Z PROC		; big::shiftLeft<unsigned int [8]>, COMDAT

; 477  : 	{

	push	ebp
	mov	ebp, esp
	sub	esp, 264				; 00000108H
	push	ebx
	push	esi
	push	edi
	lea	edi, DWORD PTR [ebp-264]
	mov	ecx, 66					; 00000042H
	mov	eax, -858993460				; ccccccccH
	rep stosd

; 478  : 		register s32 ii;
; 479  : 		register u32 bases = s / WORDBITS;

	mov	eax, DWORD PTR _s$[ebp]
	shr	eax, 5
	mov	DWORD PTR _bases$[ebp], eax

; 480  : 		u32 bits = s % WORDBITS;

	mov	eax, DWORD PTR _s$[ebp]
	xor	edx, edx
	mov	ecx, 32					; 00000020H
	div	ecx
	mov	DWORD PTR _bits$[ebp], edx

; 481  : 		
; 482  : 		// move whole bases first
; 483  : 		
; 484  : 		if ( bases )

	cmp	DWORD PTR _bases$[ebp], 0
	je	SHORT $LN8@shiftLeft

; 485  : 		{
; 486  : 			// shift bases
; 487  : 			
; 488  : 			for ( ii = BIGWORDCOUNT( T ) - 1 - bases; ii >= 0; --ii )

	mov	eax, 7
	sub	eax, DWORD PTR _bases$[ebp]
	mov	DWORD PTR _ii$[ebp], eax
	jmp	SHORT $LN7@shiftLeft
$LN6@shiftLeft:
	mov	eax, DWORD PTR _ii$[ebp]
	sub	eax, 1
	mov	DWORD PTR _ii$[ebp], eax
$LN7@shiftLeft:
	cmp	DWORD PTR _ii$[ebp], 0
	jl	SHORT $LN5@shiftLeft

; 489  : 				n[ ii + bases ] = n[ ii ];

	mov	eax, DWORD PTR _ii$[ebp]
	add	eax, DWORD PTR _bases$[ebp]
	mov	ecx, DWORD PTR _n$[ebp]
	mov	edx, DWORD PTR _ii$[ebp]
	mov	esi, DWORD PTR _n$[ebp]
	mov	edx, DWORD PTR [esi+edx*4]
	mov	DWORD PTR [ecx+eax*4], edx
	jmp	SHORT $LN6@shiftLeft
$LN5@shiftLeft:

; 490  : 				
; 491  : 			// clear the original locii of those bases
; 492  : 			memset( n, 0, bases * sizeof( word ) );

	mov	eax, DWORD PTR _bases$[ebp]
	shl	eax, 2
	push	eax
	push	0
	mov	ecx, DWORD PTR _n$[ebp]
	push	ecx
	call	_memset
	add	esp, 12					; 0000000cH
$LN8@shiftLeft:

; 493  : 		}
; 494  : 		
; 495  : 		if ( bits )

	cmp	DWORD PTR _bits$[ebp], 0
	je	SHORT $LN9@shiftLeft

; 496  : 		{
; 497  : 			register word w_i, carry = 0;

	mov	DWORD PTR _carry$2[ebp], 0

; 498  : 			
; 499  : 			for ( u32 ii = 0; ii < BIGWORDCOUNT( T ); ++ii )

	mov	DWORD PTR _ii$1[ebp], 0
	jmp	SHORT $LN3@shiftLeft
$LN2@shiftLeft:
	mov	eax, DWORD PTR _ii$1[ebp]
	add	eax, 1
	mov	DWORD PTR _ii$1[ebp], eax
$LN3@shiftLeft:
	cmp	DWORD PTR _ii$1[ebp], 8
	jae	SHORT $LN9@shiftLeft

; 500  : 			{
; 501  : 				w_i = n[ ii ];

	mov	eax, DWORD PTR _ii$1[ebp]
	mov	ecx, DWORD PTR _n$[ebp]
	mov	edx, DWORD PTR [ecx+eax*4]
	mov	DWORD PTR _w_i$3[ebp], edx

; 502  : 				
; 503  : 				n[ ii ] = ( w_i << bits ) | carry;

	mov	eax, DWORD PTR _w_i$3[ebp]
	mov	ecx, DWORD PTR _bits$[ebp]
	shl	eax, cl
	or	eax, DWORD PTR _carry$2[ebp]
	mov	ecx, DWORD PTR _ii$1[ebp]
	mov	edx, DWORD PTR _n$[ebp]
	mov	DWORD PTR [edx+ecx*4], eax

; 504  : 				carry = w_i >> ( WORDBITS - bits );

	mov	ecx, 32					; 00000020H
	sub	ecx, DWORD PTR _bits$[ebp]
	mov	eax, DWORD PTR _w_i$3[ebp]
	shr	eax, cl
	mov	DWORD PTR _carry$2[ebp], eax

; 505  : 			}

	jmp	SHORT $LN2@shiftLeft
$LN9@shiftLeft:

; 506  : 		}
; 507  : 	}

	pop	edi
	pop	esi
	pop	ebx
	add	esp, 264				; 00000108H
	cmp	ebp, esp
	call	__RTC_CheckEsp
	mov	esp, ebp
	pop	ebp
	ret	0
??$shiftLeft@$$BY07I@big@@YAXAAY07II@Z ENDP		; big::shiftLeft<unsigned int [8]>
_TEXT	ENDS
; Function compile flags: /Odtp /RTCsu /ZI
; File z:\sampsrc\02xu1\raknet\bigtypes.h
;	COMDAT ??$umultiply@$$BY0BA@I$$BY0BA@I@big@@YAXAAY0BA@I00@Z
_TEXT	SEGMENT
_ctr$1 = -120						; size = 2
_w_i$2 = -108						; size = 4
_ii$3 = -96						; size = 4
_shifts$ = -84						; size = 4
_a$ = -72						; size = 64
__$ArrayPad$ = -4					; size = 4
_a0$ = 8						; size = 4
_b0$ = 12						; size = 4
_m$ = 16						; size = 4
??$umultiply@$$BY0BA@I$$BY0BA@I@big@@YAXAAY0BA@I00@Z PROC ; big::umultiply<unsigned int [16],unsigned int [16]>, COMDAT

; 916  : 	{

	push	ebp
	mov	ebp, esp
	sub	esp, 316				; 0000013cH
	push	ebx
	push	esi
	push	edi
	lea	edi, DWORD PTR [ebp-316]
	mov	ecx, 79					; 0000004fH
	mov	eax, -858993460				; ccccccccH
	rep stosd
	mov	eax, DWORD PTR ___security_cookie
	xor	eax, ebp
	mov	DWORD PTR __$ArrayPad$[ebp], eax

; 917  : 		Bigger a;
; 918  : 		usetlow( a, a0 );

	mov	eax, DWORD PTR _a0$[ebp]
	push	eax
	lea	ecx, DWORD PTR _a$[ebp]
	push	ecx
	call	??$usetlow@$$BY0BA@I$$BY0BA@I@big@@YAXAAY0BA@I0@Z ; big::usetlow<unsigned int [16],unsigned int [16]>
	add	esp, 8

; 919  : 		
; 920  : 		zero( m );

	mov	eax, DWORD PTR _m$[ebp]
	push	eax
	call	??$zero@$$BY0BA@I@big@@YAXAAY0BA@I@Z	; big::zero<unsigned int [16]>
	add	esp, 4

; 921  : 		
; 922  : 		u32 shifts = 0;

	mov	DWORD PTR _shifts$[ebp], 0

; 923  : 		
; 924  : 		for ( u32 ii = 0; ii < BIGWORDCOUNT( T ); ++ii )

	mov	DWORD PTR _ii$3[ebp], 0
	jmp	SHORT $LN7@umultiply
$LN6@umultiply:
	mov	eax, DWORD PTR _ii$3[ebp]
	add	eax, 1
	mov	DWORD PTR _ii$3[ebp], eax
$LN7@umultiply:
	cmp	DWORD PTR _ii$3[ebp], 16		; 00000010H
	jae	SHORT $LN8@umultiply

; 925  : 		{
; 926  : 			word w_i = b0[ ii ];

	mov	eax, DWORD PTR _ii$3[ebp]
	mov	ecx, DWORD PTR _b0$[ebp]
	mov	edx, DWORD PTR [ecx+eax*4]
	mov	DWORD PTR _w_i$2[ebp], edx

; 927  : 			
; 928  : 			u16 ctr = WORDBITS;

	mov	eax, 32					; 00000020H
	mov	WORD PTR _ctr$1[ebp], ax
$LN4@umultiply:

; 929  : 			
; 930  : 			while ( w_i )

	cmp	DWORD PTR _w_i$2[ebp], 0
	je	SHORT $LN3@umultiply

; 931  : 			{
; 932  : 				if ( w_i & 1 )

	mov	eax, DWORD PTR _w_i$2[ebp]
	and	eax, 1
	je	SHORT $LN2@umultiply

; 933  : 				{
; 934  : 					if ( shifts )

	cmp	DWORD PTR _shifts$[ebp], 0
	je	SHORT $LN1@umultiply

; 935  : 					{
; 936  : 						shiftLeft( a, shifts );

	mov	eax, DWORD PTR _shifts$[ebp]
	push	eax
	lea	ecx, DWORD PTR _a$[ebp]
	push	ecx
	call	??$shiftLeft@$$BY0BA@I@big@@YAXAAY0BA@II@Z ; big::shiftLeft<unsigned int [16]>
	add	esp, 8

; 937  : 						shifts = 0;

	mov	DWORD PTR _shifts$[ebp], 0
$LN1@umultiply:

; 938  : 					}
; 939  : 					
; 940  : 					add ( m, a )
; 941  : 					
; 942  : 					;

	lea	eax, DWORD PTR _a$[ebp]
	push	eax
	mov	ecx, DWORD PTR _m$[ebp]
	push	ecx
	call	??$add@$$BY0BA@I@big@@YAXAAY0BA@I0@Z	; big::add<unsigned int [16]>
	add	esp, 8
$LN2@umultiply:

; 943  : 				}
; 944  : 				
; 945  : 				w_i >>= 1;

	mov	eax, DWORD PTR _w_i$2[ebp]
	shr	eax, 1
	mov	DWORD PTR _w_i$2[ebp], eax

; 946  : 				++shifts;

	mov	eax, DWORD PTR _shifts$[ebp]
	add	eax, 1
	mov	DWORD PTR _shifts$[ebp], eax

; 947  : 				--ctr;

	mov	ax, WORD PTR _ctr$1[ebp]
	sub	ax, 1
	mov	WORD PTR _ctr$1[ebp], ax

; 948  : 			}

	jmp	SHORT $LN4@umultiply
$LN3@umultiply:

; 949  : 			
; 950  : 			shifts += ctr;

	movzx	eax, WORD PTR _ctr$1[ebp]
	add	eax, DWORD PTR _shifts$[ebp]
	mov	DWORD PTR _shifts$[ebp], eax

; 951  : 		}

	jmp	$LN6@umultiply
$LN8@umultiply:

; 952  : 	}

	push	edx
	mov	ecx, ebp
	push	eax
	lea	edx, DWORD PTR $LN12@umultiply
	call	@_RTC_CheckStackVars@8
	pop	eax
	pop	edx
	pop	edi
	pop	esi
	pop	ebx
	mov	ecx, DWORD PTR __$ArrayPad$[ebp]
	xor	ecx, ebp
	call	@__security_check_cookie@4
	add	esp, 316				; 0000013cH
	cmp	ebp, esp
	call	__RTC_CheckEsp
	mov	esp, ebp
	pop	ebp
	ret	0
$LN12@umultiply:
	DD	1
	DD	$LN11@umultiply
$LN11@umultiply:
	DD	-72					; ffffffb8H
	DD	64					; 00000040H
	DD	$LN10@umultiply
$LN10@umultiply:
	DB	97					; 00000061H
	DB	0
??$umultiply@$$BY0BA@I$$BY0BA@I@big@@YAXAAY0BA@I00@Z ENDP ; big::umultiply<unsigned int [16],unsigned int [16]>
_TEXT	ENDS
; Function compile flags: /Odtp /RTCsu /ZI
; File z:\sampsrc\02xu1\raknet\bigtypes.h
;	COMDAT ??$usquare@$$BY0BA@I@big@@YAXAAY0BA@I@Z
_TEXT	SEGMENT
_ctr$1 = -192						; size = 2
_w_i$2 = -180						; size = 4
_ii$3 = -168						; size = 4
_shifts$ = -156						; size = 4
_a1$ = -144						; size = 64
_a0$ = -72						; size = 64
__$ArrayPad$ = -4					; size = 4
_a$ = 8							; size = 4
??$usquare@$$BY0BA@I@big@@YAXAAY0BA@I@Z PROC		; big::usquare<unsigned int [16]>, COMDAT

; 871  : 	{

	push	ebp
	mov	ebp, esp
	sub	esp, 388				; 00000184H
	push	ebx
	push	esi
	push	edi
	lea	edi, DWORD PTR [ebp-388]
	mov	ecx, 97					; 00000061H
	mov	eax, -858993460				; ccccccccH
	rep stosd
	mov	eax, DWORD PTR ___security_cookie
	xor	eax, ebp
	mov	DWORD PTR __$ArrayPad$[ebp], eax

; 872  : 		T a0, a1;
; 873  : 		
; 874  : 		set ( a0, a )
; 875  : 		
; 876  : 		;

	mov	eax, DWORD PTR _a$[ebp]
	push	eax
	lea	ecx, DWORD PTR _a0$[ebp]
	push	ecx
	call	??$set@$$BY0BA@I@big@@YAXAAY0BA@I0@Z	; big::set<unsigned int [16]>
	add	esp, 8

; 877  : 		set ( a1, a )
; 878  : 		
; 879  : 		;

	mov	eax, DWORD PTR _a$[ebp]
	push	eax
	lea	ecx, DWORD PTR _a1$[ebp]
	push	ecx
	call	??$set@$$BY0BA@I@big@@YAXAAY0BA@I0@Z	; big::set<unsigned int [16]>
	add	esp, 8

; 880  : 		zero( a );

	mov	eax, DWORD PTR _a$[ebp]
	push	eax
	call	??$zero@$$BY0BA@I@big@@YAXAAY0BA@I@Z	; big::zero<unsigned int [16]>
	add	esp, 4

; 881  : 		
; 882  : 		u32 shifts = 0;

	mov	DWORD PTR _shifts$[ebp], 0

; 883  : 		
; 884  : 		for ( u32 ii = 0; ii < BIGWORDCOUNT( T ); ++ii )

	mov	DWORD PTR _ii$3[ebp], 0
	jmp	SHORT $LN7@usquare
$LN6@usquare:
	mov	eax, DWORD PTR _ii$3[ebp]
	add	eax, 1
	mov	DWORD PTR _ii$3[ebp], eax
$LN7@usquare:
	cmp	DWORD PTR _ii$3[ebp], 16		; 00000010H
	jae	$LN8@usquare

; 885  : 		{
; 886  : 			word w_i = a0[ ii ];

	mov	eax, DWORD PTR _ii$3[ebp]
	mov	ecx, DWORD PTR _a0$[ebp+eax*4]
	mov	DWORD PTR _w_i$2[ebp], ecx

; 887  : 			
; 888  : 			u16 ctr = WORDBITS;

	mov	eax, 32					; 00000020H
	mov	WORD PTR _ctr$1[ebp], ax
$LN4@usquare:

; 889  : 			
; 890  : 			while ( w_i )

	cmp	DWORD PTR _w_i$2[ebp], 0
	je	SHORT $LN3@usquare

; 891  : 			{
; 892  : 				if ( w_i & 1 )

	mov	eax, DWORD PTR _w_i$2[ebp]
	and	eax, 1
	je	SHORT $LN2@usquare

; 893  : 				{
; 894  : 					if ( shifts )

	cmp	DWORD PTR _shifts$[ebp], 0
	je	SHORT $LN1@usquare

; 895  : 					{
; 896  : 						shiftLeft( a1, shifts );

	mov	eax, DWORD PTR _shifts$[ebp]
	push	eax
	lea	ecx, DWORD PTR _a1$[ebp]
	push	ecx
	call	??$shiftLeft@$$BY0BA@I@big@@YAXAAY0BA@II@Z ; big::shiftLeft<unsigned int [16]>
	add	esp, 8

; 897  : 						shifts = 0;

	mov	DWORD PTR _shifts$[ebp], 0
$LN1@usquare:

; 898  : 					}
; 899  : 					
; 900  : 					add ( a, a1 )
; 901  : 					
; 902  : 					;

	lea	eax, DWORD PTR _a1$[ebp]
	push	eax
	mov	ecx, DWORD PTR _a$[ebp]
	push	ecx
	call	??$add@$$BY0BA@I@big@@YAXAAY0BA@I0@Z	; big::add<unsigned int [16]>
	add	esp, 8
$LN2@usquare:

; 903  : 				}
; 904  : 				
; 905  : 				w_i >>= 1;

	mov	eax, DWORD PTR _w_i$2[ebp]
	shr	eax, 1
	mov	DWORD PTR _w_i$2[ebp], eax

; 906  : 				++shifts;

	mov	eax, DWORD PTR _shifts$[ebp]
	add	eax, 1
	mov	DWORD PTR _shifts$[ebp], eax

; 907  : 				--ctr;

	mov	ax, WORD PTR _ctr$1[ebp]
	sub	ax, 1
	mov	WORD PTR _ctr$1[ebp], ax

; 908  : 			}

	jmp	$LN4@usquare
$LN3@usquare:

; 909  : 			
; 910  : 			shifts += ctr;

	movzx	eax, WORD PTR _ctr$1[ebp]
	add	eax, DWORD PTR _shifts$[ebp]
	mov	DWORD PTR _shifts$[ebp], eax

; 911  : 		}

	jmp	$LN6@usquare
$LN8@usquare:

; 912  : 	}

	push	edx
	mov	ecx, ebp
	push	eax
	lea	edx, DWORD PTR $LN13@usquare
	call	@_RTC_CheckStackVars@8
	pop	eax
	pop	edx
	pop	edi
	pop	esi
	pop	ebx
	mov	ecx, DWORD PTR __$ArrayPad$[ebp]
	xor	ecx, ebp
	call	@__security_check_cookie@4
	add	esp, 388				; 00000184H
	cmp	ebp, esp
	call	__RTC_CheckEsp
	mov	esp, ebp
	pop	ebp
	ret	0
$LN13@usquare:
	DD	2
	DD	$LN12@usquare
$LN12@usquare:
	DD	-72					; ffffffb8H
	DD	64					; 00000040H
	DD	$LN10@usquare
	DD	-144					; ffffff70H
	DD	64					; 00000040H
	DD	$LN11@usquare
$LN11@usquare:
	DB	97					; 00000061H
	DB	49					; 00000031H
	DB	0
$LN10@usquare:
	DB	97					; 00000061H
	DB	48					; 00000030H
	DB	0
??$usquare@$$BY0BA@I@big@@YAXAAY0BA@I@Z ENDP		; big::usquare<unsigned int [16]>
_TEXT	ENDS
; Function compile flags: /Odtp /RTCsu /ZI
; File z:\sampsrc\02xu1\raknet\bigtypes.h
;	COMDAT ??$usetw@$$BY0BA@I@big@@YAXAAY0BA@II@Z
_TEXT	SEGMENT
_a$ = 8							; size = 4
_b$ = 12						; size = 4
??$usetw@$$BY0BA@I@big@@YAXAAY0BA@II@Z PROC		; big::usetw<unsigned int [16]>, COMDAT

; 294  : 	{

	push	ebp
	mov	ebp, esp
	sub	esp, 192				; 000000c0H
	push	ebx
	push	esi
	push	edi
	lea	edi, DWORD PTR [ebp-192]
	mov	ecx, 48					; 00000030H
	mov	eax, -858993460				; ccccccccH
	rep stosd

; 295  : 		a[ 0 ] = b;

	mov	eax, 4
	imul	ecx, eax, 0
	mov	edx, DWORD PTR _a$[ebp]
	mov	eax, DWORD PTR _b$[ebp]
	mov	DWORD PTR [edx+ecx], eax

; 296  : 		memset( a + 1, 0, sizeof( T ) - sizeof( word ) );

	push	60					; 0000003cH
	push	0
	mov	eax, DWORD PTR _a$[ebp]
	add	eax, 4
	push	eax
	call	_memset
	add	esp, 12					; 0000000cH

; 297  : 	}

	pop	edi
	pop	esi
	pop	ebx
	add	esp, 192				; 000000c0H
	cmp	ebp, esp
	call	__RTC_CheckEsp
	mov	esp, ebp
	pop	ebp
	ret	0
??$usetw@$$BY0BA@I@big@@YAXAAY0BA@II@Z ENDP		; big::usetw<unsigned int [16]>
_TEXT	ENDS
; Function compile flags: /Odtp /RTCsu /ZI
; File z:\sampsrc\02xu1\raknet\bigtypes.h
;	COMDAT ??$add@$$BY07I@big@@YAXAAY07I0@Z
_TEXT	SEGMENT
_qc1$ = -8						; size = 4
_a$ = 8							; size = 4
_b$ = 12						; size = 4
??$add@$$BY07I@big@@YAXAAY07I0@Z PROC			; big::add<unsigned int [8]>, COMDAT

; 658  : 	{

	push	ebp
	mov	ebp, esp
	sub	esp, 204				; 000000ccH
	push	ebx
	push	esi
	push	edi
	lea	edi, DWORD PTR [ebp-204]
	mov	ecx, 51					; 00000033H
	mov	eax, -858993460				; ccccccccH
	rep stosd

; 659  : #if defined(NO_TEMPLATE_INLINE_ASSEMBLY) && defined(ASSEMBLY_INTEL_SYNTAX)
; 660  : 		const u32 qc1 = BIGWORDCOUNT( T ) / 4 - 1;
; 661  : 		
; 662  : 		BorlandAdd( a, b, qc1 );
; 663  : 		
; 664  : #elif defined(ASSEMBLY_INTEL_SYNTAX)
; 665  : 		
; 666  : 		const u32 qc1 = BIGWORDCOUNT( T ) / 4 - 1;

	mov	DWORD PTR _qc1$[ebp], 1

; 667  : 		
; 668  : 		ASSEMBLY_BLOCK // VS.NET, x86, 32-bit words
; 669  : 		{
; 670  : 		        mov esi, b

	mov	esi, DWORD PTR _b$[ebp]

; 671  : 		        mov edi, a

	mov	edi, DWORD PTR _a$[ebp]

; 672  : 		        mov ecx, qc1

	mov	ecx, DWORD PTR _qc1$[ebp]

; 673  : 		
; 674  : 		        // unrolled loop since word count is a multiple of 4 >= 4
; 675  : 		        mov eax, [ esi ]

	mov	eax, DWORD PTR [esi]

; 676  : 		        xor edx, edx  // edx used later to index later words >= 4

	xor	edx, edx

; 677  : 		
; 678  : 		        add [ edi ], eax  // and now we can use ADD instead of ADC on the first addition

	add	DWORD PTR [edi], eax

; 679  : 		        mov eax, [ esi + 4 ]

	mov	eax, DWORD PTR [esi+4]

; 680  : 		        adc [ edi + 4 ], eax

	adc	DWORD PTR [edi+4], eax

; 681  : 		        mov eax, [ esi + 8 ]

	mov	eax, DWORD PTR [esi+8]

; 682  : 		        adc [ edi + 8 ], eax

	adc	DWORD PTR [edi+8], eax

; 683  : 		        mov eax, [ esi + 12 ]

	mov	eax, DWORD PTR [esi+12]

; 684  : 		        adc [ edi + 12 ], eax

	adc	DWORD PTR [edi+12], eax

; 685  : 		
; 686  : 		        jecxz done_already

	jecxz	$done_already$3
$next_word$4:

; 687  : 		
; 688  : 	        next_word:
; 689  : 		        inc edx

	inc	edx

; 690  : 		        inc edx

	inc	edx

; 691  : 		
; 692  : 		        // unrolled loop since word count is a multiple of 4 >= 4
; 693  : 		        mov eax, [ esi + edx * 8 ]

	mov	eax, DWORD PTR [esi+edx*8]

; 694  : 		        adc [ edi + edx * 8 ], eax

	adc	DWORD PTR [edi+edx*8], eax

; 695  : 		        mov eax, [ esi + edx * 8 + 4 ]

	mov	eax, DWORD PTR [esi+edx*8+4]

; 696  : 		        adc [ edi + edx * 8 + 4 ], eax

	adc	DWORD PTR [edi+edx*8+4], eax

; 697  : 		        mov eax, [ esi + edx * 8 + 8 ]

	mov	eax, DWORD PTR [esi+edx*8+8]

; 698  : 		        adc [ edi + edx * 8 + 8 ], eax

	adc	DWORD PTR [edi+edx*8+8], eax

; 699  : 		        mov eax, [ esi + edx * 8 + 12 ]

	mov	eax, DWORD PTR [esi+edx*8+12]

; 700  : 		        adc [ edi + edx * 8 + 12 ], eax

	adc	DWORD PTR [edi+edx*8+12], eax

; 701  : 		
; 702  : 		        loop next_word

	loop	$next_word$4
$done_already$3:

; 703  : 		
; 704  : 	        done_already:
; 705  : 		}
; 706  : #else
; 707  : 		register word carry = 0;
; 708  : 		
; 709  : 		for ( u32 ii = 0; ii < BIGWORDCOUNT( T ); ++ii )
; 710  : 		{
; 711  : 			word a_i = a[ ii ];
; 712  : 			word b_i = b[ ii ];
; 713  : 			a[ ii ] += b_i + carry;
; 714  : 		
; 715  : 			carry = ( ( a_i & ( WORDALLBITS >> 1 ) ) + ( b_i & ( WORDALLBITS >> 1 ) ) + carry ) >> ( WORDBITS - 1 );
; 716  : 			carry += ( a_i >> ( WORDBITS - 1 ) ) + ( b_i >> ( WORDBITS - 1 ) );
; 717  : 			carry >>= 1;
; 718  : 		}
; 719  : 		
; 720  : #endif
; 721  : 		
; 722  : 	}

	pop	edi
	pop	esi
	pop	ebx
	add	esp, 204				; 000000ccH
	cmp	ebp, esp
	call	__RTC_CheckEsp
	mov	esp, ebp
	pop	ebp
	ret	0
??$add@$$BY07I@big@@YAXAAY07I0@Z ENDP			; big::add<unsigned int [8]>
_TEXT	ENDS
; Function compile flags: /Odtp /RTCsu /ZI
; File z:\sampsrc\02xu1\raknet\bigtypes.h
;	COMDAT ??$umultiply@$$BY07I$$BY07I@big@@YAXAAY07I0@Z
_TEXT	SEGMENT
_ctr$1 = -88						; size = 2
_w_i$2 = -76						; size = 4
_ii$3 = -64						; size = 4
_shifts$ = -52						; size = 4
_a$ = -40						; size = 32
__$ArrayPad$ = -4					; size = 4
_a0$ = 8						; size = 4
_b0$ = 12						; size = 4
??$umultiply@$$BY07I$$BY07I@big@@YAXAAY07I0@Z PROC	; big::umultiply<unsigned int [8],unsigned int [8]>, COMDAT

; 956  : 	{

	push	ebp
	mov	ebp, esp
	sub	esp, 284				; 0000011cH
	push	ebx
	push	esi
	push	edi
	lea	edi, DWORD PTR [ebp-284]
	mov	ecx, 71					; 00000047H
	mov	eax, -858993460				; ccccccccH
	rep stosd
	mov	eax, DWORD PTR ___security_cookie
	xor	eax, ebp
	mov	DWORD PTR __$ArrayPad$[ebp], eax

; 957  : 		Bigger a;
; 958  : 		
; 959  : 		set ( a, a0 )
; 960  : 		
; 961  : 		;

	mov	eax, DWORD PTR _a0$[ebp]
	push	eax
	lea	ecx, DWORD PTR _a$[ebp]
	push	ecx
	call	??$set@$$BY07I@big@@YAXAAY07I0@Z	; big::set<unsigned int [8]>
	add	esp, 8

; 962  : 		
; 963  : 		zero( a0 );

	mov	eax, DWORD PTR _a0$[ebp]
	push	eax
	call	??$zero@$$BY07I@big@@YAXAAY07I@Z	; big::zero<unsigned int [8]>
	add	esp, 4

; 964  : 		
; 965  : 		u32 shifts = 0;

	mov	DWORD PTR _shifts$[ebp], 0

; 966  : 		
; 967  : 		for ( u32 ii = 0; ii < BIGWORDCOUNT( T ); ++ii )

	mov	DWORD PTR _ii$3[ebp], 0
	jmp	SHORT $LN7@umultiply
$LN6@umultiply:
	mov	eax, DWORD PTR _ii$3[ebp]
	add	eax, 1
	mov	DWORD PTR _ii$3[ebp], eax
$LN7@umultiply:
	cmp	DWORD PTR _ii$3[ebp], 8
	jae	SHORT $LN8@umultiply

; 968  : 		{
; 969  : 			word w_i = b0[ ii ];

	mov	eax, DWORD PTR _ii$3[ebp]
	mov	ecx, DWORD PTR _b0$[ebp]
	mov	edx, DWORD PTR [ecx+eax*4]
	mov	DWORD PTR _w_i$2[ebp], edx

; 970  : 			
; 971  : 			u16 ctr = WORDBITS;

	mov	eax, 32					; 00000020H
	mov	WORD PTR _ctr$1[ebp], ax
$LN4@umultiply:

; 972  : 			
; 973  : 			while ( w_i )

	cmp	DWORD PTR _w_i$2[ebp], 0
	je	SHORT $LN3@umultiply

; 974  : 			{
; 975  : 				if ( w_i & 1 )

	mov	eax, DWORD PTR _w_i$2[ebp]
	and	eax, 1
	je	SHORT $LN2@umultiply

; 976  : 				{
; 977  : 					if ( shifts )

	cmp	DWORD PTR _shifts$[ebp], 0
	je	SHORT $LN1@umultiply

; 978  : 					{
; 979  : 						shiftLeft( a, shifts );

	mov	eax, DWORD PTR _shifts$[ebp]
	push	eax
	lea	ecx, DWORD PTR _a$[ebp]
	push	ecx
	call	??$shiftLeft@$$BY07I@big@@YAXAAY07II@Z	; big::shiftLeft<unsigned int [8]>
	add	esp, 8

; 980  : 						shifts = 0;

	mov	DWORD PTR _shifts$[ebp], 0
$LN1@umultiply:

; 981  : 					}
; 982  : 					
; 983  : 					add ( a0, a )
; 984  : 					
; 985  : 					;

	lea	eax, DWORD PTR _a$[ebp]
	push	eax
	mov	ecx, DWORD PTR _a0$[ebp]
	push	ecx
	call	??$add@$$BY07I@big@@YAXAAY07I0@Z	; big::add<unsigned int [8]>
	add	esp, 8
$LN2@umultiply:

; 986  : 				}
; 987  : 				
; 988  : 				w_i >>= 1;

	mov	eax, DWORD PTR _w_i$2[ebp]
	shr	eax, 1
	mov	DWORD PTR _w_i$2[ebp], eax

; 989  : 				++shifts;

	mov	eax, DWORD PTR _shifts$[ebp]
	add	eax, 1
	mov	DWORD PTR _shifts$[ebp], eax

; 990  : 				--ctr;

	mov	ax, WORD PTR _ctr$1[ebp]
	sub	ax, 1
	mov	WORD PTR _ctr$1[ebp], ax

; 991  : 			}

	jmp	SHORT $LN4@umultiply
$LN3@umultiply:

; 992  : 			
; 993  : 			shifts += ctr;

	movzx	eax, WORD PTR _ctr$1[ebp]
	add	eax, DWORD PTR _shifts$[ebp]
	mov	DWORD PTR _shifts$[ebp], eax

; 994  : 		}

	jmp	$LN6@umultiply
$LN8@umultiply:

; 995  : 	}

	push	edx
	mov	ecx, ebp
	push	eax
	lea	edx, DWORD PTR $LN12@umultiply
	call	@_RTC_CheckStackVars@8
	pop	eax
	pop	edx
	pop	edi
	pop	esi
	pop	ebx
	mov	ecx, DWORD PTR __$ArrayPad$[ebp]
	xor	ecx, ebp
	call	@__security_check_cookie@4
	add	esp, 284				; 0000011cH
	cmp	ebp, esp
	call	__RTC_CheckEsp
	mov	esp, ebp
	pop	ebp
	ret	0
$LN12@umultiply:
	DD	1
	DD	$LN11@umultiply
$LN11@umultiply:
	DD	-40					; ffffffd8H
	DD	32					; 00000020H
	DD	$LN10@umultiply
$LN10@umultiply:
	DB	97					; 00000061H
	DB	0
??$umultiply@$$BY07I$$BY07I@big@@YAXAAY07I0@Z ENDP	; big::umultiply<unsigned int [8],unsigned int [8]>
_TEXT	ENDS
; Function compile flags: /Odtp /RTCsu /ZI
; File z:\sampsrc\02xu1\raknet\bigtypes.h
;	COMDAT ??$add@$$BY03I@big@@YAXAAY03I0@Z
_TEXT	SEGMENT
_qc1$ = -8						; size = 4
_a$ = 8							; size = 4
_b$ = 12						; size = 4
??$add@$$BY03I@big@@YAXAAY03I0@Z PROC			; big::add<unsigned int [4]>, COMDAT

; 658  : 	{

	push	ebp
	mov	ebp, esp
	sub	esp, 204				; 000000ccH
	push	ebx
	push	esi
	push	edi
	lea	edi, DWORD PTR [ebp-204]
	mov	ecx, 51					; 00000033H
	mov	eax, -858993460				; ccccccccH
	rep stosd

; 659  : #if defined(NO_TEMPLATE_INLINE_ASSEMBLY) && defined(ASSEMBLY_INTEL_SYNTAX)
; 660  : 		const u32 qc1 = BIGWORDCOUNT( T ) / 4 - 1;
; 661  : 		
; 662  : 		BorlandAdd( a, b, qc1 );
; 663  : 		
; 664  : #elif defined(ASSEMBLY_INTEL_SYNTAX)
; 665  : 		
; 666  : 		const u32 qc1 = BIGWORDCOUNT( T ) / 4 - 1;

	mov	DWORD PTR _qc1$[ebp], 0

; 667  : 		
; 668  : 		ASSEMBLY_BLOCK // VS.NET, x86, 32-bit words
; 669  : 		{
; 670  : 		        mov esi, b

	mov	esi, DWORD PTR _b$[ebp]

; 671  : 		        mov edi, a

	mov	edi, DWORD PTR _a$[ebp]

; 672  : 		        mov ecx, qc1

	mov	ecx, DWORD PTR _qc1$[ebp]

; 673  : 		
; 674  : 		        // unrolled loop since word count is a multiple of 4 >= 4
; 675  : 		        mov eax, [ esi ]

	mov	eax, DWORD PTR [esi]

; 676  : 		        xor edx, edx  // edx used later to index later words >= 4

	xor	edx, edx

; 677  : 		
; 678  : 		        add [ edi ], eax  // and now we can use ADD instead of ADC on the first addition

	add	DWORD PTR [edi], eax

; 679  : 		        mov eax, [ esi + 4 ]

	mov	eax, DWORD PTR [esi+4]

; 680  : 		        adc [ edi + 4 ], eax

	adc	DWORD PTR [edi+4], eax

; 681  : 		        mov eax, [ esi + 8 ]

	mov	eax, DWORD PTR [esi+8]

; 682  : 		        adc [ edi + 8 ], eax

	adc	DWORD PTR [edi+8], eax

; 683  : 		        mov eax, [ esi + 12 ]

	mov	eax, DWORD PTR [esi+12]

; 684  : 		        adc [ edi + 12 ], eax

	adc	DWORD PTR [edi+12], eax

; 685  : 		
; 686  : 		        jecxz done_already

	jecxz	$done_already$3
$next_word$4:

; 687  : 		
; 688  : 	        next_word:
; 689  : 		        inc edx

	inc	edx

; 690  : 		        inc edx

	inc	edx

; 691  : 		
; 692  : 		        // unrolled loop since word count is a multiple of 4 >= 4
; 693  : 		        mov eax, [ esi + edx * 8 ]

	mov	eax, DWORD PTR [esi+edx*8]

; 694  : 		        adc [ edi + edx * 8 ], eax

	adc	DWORD PTR [edi+edx*8], eax

; 695  : 		        mov eax, [ esi + edx * 8 + 4 ]

	mov	eax, DWORD PTR [esi+edx*8+4]

; 696  : 		        adc [ edi + edx * 8 + 4 ], eax

	adc	DWORD PTR [edi+edx*8+4], eax

; 697  : 		        mov eax, [ esi + edx * 8 + 8 ]

	mov	eax, DWORD PTR [esi+edx*8+8]

; 698  : 		        adc [ edi + edx * 8 + 8 ], eax

	adc	DWORD PTR [edi+edx*8+8], eax

; 699  : 		        mov eax, [ esi + edx * 8 + 12 ]

	mov	eax, DWORD PTR [esi+edx*8+12]

; 700  : 		        adc [ edi + edx * 8 + 12 ], eax

	adc	DWORD PTR [edi+edx*8+12], eax

; 701  : 		
; 702  : 		        loop next_word

	loop	$next_word$4
$done_already$3:

; 703  : 		
; 704  : 	        done_already:
; 705  : 		}
; 706  : #else
; 707  : 		register word carry = 0;
; 708  : 		
; 709  : 		for ( u32 ii = 0; ii < BIGWORDCOUNT( T ); ++ii )
; 710  : 		{
; 711  : 			word a_i = a[ ii ];
; 712  : 			word b_i = b[ ii ];
; 713  : 			a[ ii ] += b_i + carry;
; 714  : 		
; 715  : 			carry = ( ( a_i & ( WORDALLBITS >> 1 ) ) + ( b_i & ( WORDALLBITS >> 1 ) ) + carry ) >> ( WORDBITS - 1 );
; 716  : 			carry += ( a_i >> ( WORDBITS - 1 ) ) + ( b_i >> ( WORDBITS - 1 ) );
; 717  : 			carry >>= 1;
; 718  : 		}
; 719  : 		
; 720  : #endif
; 721  : 		
; 722  : 	}

	pop	edi
	pop	esi
	pop	ebx
	add	esp, 204				; 000000ccH
	cmp	ebp, esp
	call	__RTC_CheckEsp
	mov	esp, ebp
	pop	ebp
	ret	0
??$add@$$BY03I@big@@YAXAAY03I0@Z ENDP			; big::add<unsigned int [4]>
_TEXT	ENDS
; Function compile flags: /Odtp /RTCsu /ZI
; File z:\sampsrc\02xu1\raknet\bigtypes.h
;	COMDAT ??$subtract@$$BY03I@big@@YAXAAY03I0@Z
_TEXT	SEGMENT
_qc1$ = -8						; size = 4
_a$ = 8							; size = 4
_b$ = 12						; size = 4
??$subtract@$$BY03I@big@@YAXAAY03I0@Z PROC		; big::subtract<unsigned int [4]>, COMDAT

; 780  : 	{

	push	ebp
	mov	ebp, esp
	sub	esp, 204				; 000000ccH
	push	ebx
	push	esi
	push	edi
	lea	edi, DWORD PTR [ebp-204]
	mov	ecx, 51					; 00000033H
	mov	eax, -858993460				; ccccccccH
	rep stosd

; 781  : #if defined(NO_TEMPLATE_INLINE_ASSEMBLY) && defined(ASSEMBLY_INTEL_SYNTAX)
; 782  : 		const u32 qc1 = BIGWORDCOUNT( T ) / 4 - 1;
; 783  : 		
; 784  : 		BorlandSubtract( a, b, qc1 );
; 785  : 		
; 786  : #elif defined(ASSEMBLY_INTEL_SYNTAX)
; 787  : 		
; 788  : 		const u32 qc1 = BIGWORDCOUNT( T ) / 4 - 1;

	mov	DWORD PTR _qc1$[ebp], 0

; 789  : 		
; 790  : 		ASSEMBLY_BLOCK // VS.NET, x86, 32-bit words
; 791  : 		{
; 792  : 		        mov esi, b

	mov	esi, DWORD PTR _b$[ebp]

; 793  : 		        mov edi, a

	mov	edi, DWORD PTR _a$[ebp]

; 794  : 		        mov ecx, qc1

	mov	ecx, DWORD PTR _qc1$[ebp]

; 795  : 		
; 796  : 		        // unrolled loop since word count is a multiple of 4 >= 4
; 797  : 		        mov eax, [ esi ]

	mov	eax, DWORD PTR [esi]

; 798  : 		        xor edx, edx  // edx used later to index later words >= 4

	xor	edx, edx

; 799  : 		        sub [ edi ], eax  // first subtraction doesn't need to borrow

	sub	DWORD PTR [edi], eax

; 800  : 		        mov eax, [ esi + 4 ]

	mov	eax, DWORD PTR [esi+4]

; 801  : 		        sbb [ edi + 4 ], eax

	sbb	DWORD PTR [edi+4], eax

; 802  : 		        mov eax, [ esi + 8 ]

	mov	eax, DWORD PTR [esi+8]

; 803  : 		        sbb [ edi + 8 ], eax

	sbb	DWORD PTR [edi+8], eax

; 804  : 		        mov eax, [ esi + 12 ]

	mov	eax, DWORD PTR [esi+12]

; 805  : 		        sbb [ edi + 12 ], eax

	sbb	DWORD PTR [edi+12], eax

; 806  : 		
