; Listing generated by Microsoft (R) Optimizing Compiler Version 18.00.31101.0 

	TITLE	Z:\sampsrc\02Xu1\raknet\RakServer.cpp
	.686P
	.XMM
	include listing.inc
	.model	flat

INCLUDELIB LIBCMTD
INCLUDELIB OLDNAMES

CONST	SEGMENT
_UNASSIGNED_PLAYER_ID DD 0ffffffffH
	DW	0ffffH
	ORG $+2
_UNASSIGNED_NETWORK_ID DD 0ffffffffH
	DW	0ffffH
	DW	0ffffH
CONST	ENDS
PUBLIC	?GetNumberOfBytesUsed@BitStream@RakNet@@QBEHXZ	; RakNet::BitStream::GetNumberOfBytesUsed
PUBLIC	?GetData@BitStream@RakNet@@QBEPAEXZ		; RakNet::BitStream::GetData
PUBLIC	??$Write@I@BitStream@RakNet@@QAEXI@Z		; RakNet::BitStream::Write<unsigned int>
PUBLIC	??$Write@G@BitStream@RakNet@@QAEXG@Z		; RakNet::BitStream::Write<unsigned short>
PUBLIC	??1RakServerInterface@@UAE@XZ			; RakServerInterface::~RakServerInterface
PUBLIC	??0RakServerInterface@@QAE@XZ			; RakServerInterface::RakServerInterface
PUBLIC	??_GRakServerInterface@@UAEPAXI@Z		; RakServerInterface::`scalar deleting destructor'
PUBLIC	??0RakServer@@QAE@XZ				; RakServer::RakServer
PUBLIC	??1RakServer@@UAE@XZ				; RakServer::~RakServer
PUBLIC	?Start@RakServer@@UAE_NGIHGPBD@Z		; RakServer::Start
PUBLIC	?InitializeSecurity@RakServer@@UAEXPBD0@Z	; RakServer::InitializeSecurity
PUBLIC	?DisableSecurity@RakServer@@UAEXXZ		; RakServer::DisableSecurity
PUBLIC	?SetPassword@RakServer@@UAEXPBD@Z		; RakServer::SetPassword
PUBLIC	?HasPassword@RakServer@@UAE_NXZ			; RakServer::HasPassword
PUBLIC	?Disconnect@RakServer@@UAEXIE@Z			; RakServer::Disconnect
PUBLIC	?Send@RakServer@@UAE_NPBDHW4PacketPriority@@W4PacketReliability@@DUPlayerID@@_N@Z ; RakServer::Send
PUBLIC	?Send@RakServer@@UAE_NPAVBitStream@RakNet@@W4PacketPriority@@W4PacketReliability@@DUPlayerID@@_N@Z ; RakServer::Send
PUBLIC	?Receive@RakServer@@UAEPAUPacket@@XZ		; RakServer::Receive
PUBLIC	?Kick@RakServer@@UAEXUPlayerID@@@Z		; RakServer::Kick
PUBLIC	?DeallocatePacket@RakServer@@UAEXPAUPacket@@@Z	; RakServer::DeallocatePacket
PUBLIC	?SetAllowedPlayers@RakServer@@UAEXG@Z		; RakServer::SetAllowedPlayers
PUBLIC	?GetAllowedPlayers@RakServer@@UBEGXZ		; RakServer::GetAllowedPlayers
PUBLIC	?GetConnectedPlayers@RakServer@@UAEGXZ		; RakServer::GetConnectedPlayers
PUBLIC	?GetPlayerIPFromID@RakServer@@UAEXUPlayerID@@QADPAG@Z ; RakServer::GetPlayerIPFromID
PUBLIC	?PingPlayer@RakServer@@UAEXUPlayerID@@@Z	; RakServer::PingPlayer
PUBLIC	?GetAveragePing@RakServer@@UAEHUPlayerID@@@Z	; RakServer::GetAveragePing
PUBLIC	?GetLastPing@RakServer@@UAEHUPlayerID@@@Z	; RakServer::GetLastPing
PUBLIC	?GetLowestPing@RakServer@@UAEHUPlayerID@@@Z	; RakServer::GetLowestPing
PUBLIC	?StartOccasionalPing@RakServer@@UAEXXZ		; RakServer::StartOccasionalPing
PUBLIC	?StopOccasionalPing@RakServer@@UAEXXZ		; RakServer::StopOccasionalPing
PUBLIC	?IsActive@RakServer@@UBE_NXZ			; RakServer::IsActive
PUBLIC	?GetSynchronizedRandomInteger@RakServer@@UBEIXZ	; RakServer::GetSynchronizedRandomInteger
PUBLIC	?StartSynchronizedRandomInteger@RakServer@@UAEXXZ ; RakServer::StartSynchronizedRandomInteger
PUBLIC	?StopSynchronizedRandomInteger@RakServer@@UAEXXZ ; RakServer::StopSynchronizedRandomInteger
PUBLIC	?GenerateCompressionLayer@RakServer@@UAE_NQAI_N@Z ; RakServer::GenerateCompressionLayer
PUBLIC	?DeleteCompressionLayer@RakServer@@UAE_N_N@Z	; RakServer::DeleteCompressionLayer
PUBLIC	?RegisterAsRemoteProcedureCall@RakServer@@UAEXPADP6AXPAURPCParameters@@@Z@Z ; RakServer::RegisterAsRemoteProcedureCall
PUBLIC	?RegisterClassMemberRPC@RakServer@@UAEXPADPAX@Z	; RakServer::RegisterClassMemberRPC
PUBLIC	?UnregisterAsRemoteProcedureCall@RakServer@@UAEXPAD@Z ; RakServer::UnregisterAsRemoteProcedureCall
PUBLIC	?RPC@RakServer@@UAE_NPADPBDIW4PacketPriority@@W4PacketReliability@@DUPlayerID@@_N5UNetworkID@@PAVBitStream@RakNet@@@Z ; RakServer::RPC
PUBLIC	?RPC@RakServer@@UAE_NPADPAVBitStream@RakNet@@W4PacketPriority@@W4PacketReliability@@DUPlayerID@@_N5UNetworkID@@1@Z ; RakServer::RPC
PUBLIC	?RPC@RakServer@@UAE_NPADPAVBitStream@RakNet@@W4PacketPriority@@W4PacketReliability@@DUPlayerID@@_N5@Z ; RakServer::RPC
PUBLIC	?SetTrackFrequencyTable@RakServer@@UAEX_N@Z	; RakServer::SetTrackFrequencyTable
PUBLIC	?GetSendFrequencyTable@RakServer@@UAE_NQAI@Z	; RakServer::GetSendFrequencyTable
PUBLIC	?GetCompressionRatio@RakServer@@UBEMXZ		; RakServer::GetCompressionRatio
PUBLIC	?GetDecompressionRatio@RakServer@@UBEMXZ	; RakServer::GetDecompressionRatio
PUBLIC	?AttachPlugin@RakServer@@UAEXPAVPluginInterface@@@Z ; RakServer::AttachPlugin
PUBLIC	?DetachPlugin@RakServer@@UAEXPAVPluginInterface@@@Z ; RakServer::DetachPlugin
PUBLIC	?GetStaticServerData@RakServer@@UAEPAVBitStream@RakNet@@XZ ; RakServer::GetStaticServerData
PUBLIC	?SetStaticServerData@RakServer@@UAEXPBDH@Z	; RakServer::SetStaticServerData
PUBLIC	?SetRelayStaticClientData@RakServer@@UAEX_N@Z	; RakServer::SetRelayStaticClientData
PUBLIC	?SendStaticServerDataToClient@RakServer@@UAEXUPlayerID@@@Z ; RakServer::SendStaticServerDataToClient
PUBLIC	?SetOfflinePingResponse@RakServer@@UAEXPBDI@Z	; RakServer::SetOfflinePingResponse
PUBLIC	?GetStaticClientData@RakServer@@UAEPAVBitStream@RakNet@@UPlayerID@@@Z ; RakServer::GetStaticClientData
PUBLIC	?SetStaticClientData@RakServer@@UAEXUPlayerID@@PBDH@Z ; RakServer::SetStaticClientData
PUBLIC	?ChangeStaticClientData@RakServer@@UAEXUPlayerID@@U2@@Z ; RakServer::ChangeStaticClientData
PUBLIC	?GetNumberOfAddresses@RakServer@@UAEIXZ		; RakServer::GetNumberOfAddresses
PUBLIC	?GetLocalIP@RakServer@@UAEPBDI@Z		; RakServer::GetLocalIP
PUBLIC	?GetInternalID@RakServer@@UBE?AUPlayerID@@XZ	; RakServer::GetInternalID
PUBLIC	?PushBackPacket@RakServer@@UAEXPAUPacket@@_N@Z	; RakServer::PushBackPacket
PUBLIC	?SetRouterInterface@RakServer@@UAEXPAVRouterInterface@@@Z ; RakServer::SetRouterInterface
PUBLIC	?RemoveRouterInterface@RakServer@@UAEXPAVRouterInterface@@@Z ; RakServer::RemoveRouterInterface
PUBLIC	?GetIndexFromPlayerID@RakServer@@UAEHUPlayerID@@@Z ; RakServer::GetIndexFromPlayerID
PUBLIC	?GetPlayerIDFromIndex@RakServer@@UAE?AUPlayerID@@H@Z ; RakServer::GetPlayerIDFromIndex
PUBLIC	?AddToBanList@RakServer@@UAEXPBD@Z		; RakServer::AddToBanList
PUBLIC	?RemoveFromBanList@RakServer@@UAEXPBD@Z		; RakServer::RemoveFromBanList
PUBLIC	?ClearBanList@RakServer@@UAEXXZ			; RakServer::ClearBanList
PUBLIC	?IsBanned@RakServer@@UAE_NPBD@Z			; RakServer::IsBanned
PUBLIC	?IsActivePlayerID@RakServer@@UAE_NUPlayerID@@@Z	; RakServer::IsActivePlayerID
PUBLIC	?SetTimeoutTime@RakServer@@UAEXIUPlayerID@@@Z	; RakServer::SetTimeoutTime
PUBLIC	?SetMTUSize@RakServer@@UAE_NH@Z			; RakServer::SetMTUSize
PUBLIC	?GetMTUSize@RakServer@@UBEHXZ			; RakServer::GetMTUSize
PUBLIC	?AdvertiseSystem@RakServer@@UAEXPBDG0H@Z	; RakServer::AdvertiseSystem
PUBLIC	?GetStatistics@RakServer@@UAEQAURakNetStatisticsStruct@@UPlayerID@@@Z ; RakServer::GetStatistics
PUBLIC	?ApplyNetworkSimulator@RakServer@@UAEXNGG@Z	; RakServer::ApplyNetworkSimulator
PUBLIC	?IsNetworkSimulatorActive@RakServer@@UAE_NXZ	; RakServer::IsNetworkSimulatorActive
PUBLIC	??_GRakServer@@UAEPAXI@Z			; RakServer::`scalar deleting destructor'
PUBLIC	??$Write@E@BitStream@RakNet@@QAEXE@Z		; RakNet::BitStream::Write<unsigned char>
PUBLIC	??_ERakServer@@W3AEPAXI@Z			; [thunk]:RakServer::`vector deleting destructor'
PUBLIC	?DisableSecurity@RakServer@@W3AEXXZ		; [thunk]:RakServer::DisableSecurity`adjustor{4}'
PUBLIC	?Disconnect@RakServer@@W3AEXIE@Z		; [thunk]:RakServer::Disconnect`adjustor{4}'
PUBLIC	?IsActive@RakServer@@W3BE_NXZ			; [thunk]:RakServer::IsActive`adjustor{4}'
PUBLIC	?Send@RakServer@@W3AE_NPAVBitStream@RakNet@@W4PacketPriority@@W4PacketReliability@@DUPlayerID@@_N@Z ; [thunk]:RakServer::Send`adjustor{4}'
PUBLIC	?Send@RakServer@@W3AE_NPBDHW4PacketPriority@@W4PacketReliability@@DUPlayerID@@_N@Z ; [thunk]:RakServer::Send`adjustor{4}'
PUBLIC	?Receive@RakServer@@W3AEPAUPacket@@XZ		; [thunk]:RakServer::Receive`adjustor{4}'
PUBLIC	?DeallocatePacket@RakServer@@W3AEXPAUPacket@@@Z	; [thunk]:RakServer::DeallocatePacket`adjustor{4}'
PUBLIC	?RegisterAsRemoteProcedureCall@RakServer@@W3AEXPADP6AXPAURPCParameters@@@Z@Z ; [thunk]:RakServer::RegisterAsRemoteProcedureCall`adjustor{4}'
PUBLIC	?RegisterClassMemberRPC@RakServer@@W3AEXPADPAX@Z ; [thunk]:RakServer::RegisterClassMemberRPC`adjustor{4}'
PUBLIC	?UnregisterAsRemoteProcedureCall@RakServer@@W3AEXPAD@Z ; [thunk]:RakServer::UnregisterAsRemoteProcedureCall`adjustor{4}'
PUBLIC	?RPC@RakServer@@W3AE_NPADPAVBitStream@RakNet@@W4PacketPriority@@W4PacketReliability@@DUPlayerID@@_N5UNetworkID@@1@Z ; [thunk]:RakServer::RPC`adjustor{4}'
PUBLIC	?RPC@RakServer@@W3AE_NPADPBDIW4PacketPriority@@W4PacketReliability@@DUPlayerID@@_N5UNetworkID@@PAVBitStream@RakNet@@@Z ; [thunk]:RakServer::RPC`adjustor{4}'
PUBLIC	?GetIndexFromPlayerID@RakServer@@W3AEHUPlayerID@@@Z ; [thunk]:RakServer::GetIndexFromPlayerID`adjustor{4}'
PUBLIC	?GetPlayerIDFromIndex@RakServer@@W3AE?AUPlayerID@@H@Z ; [thunk]:RakServer::GetPlayerIDFromIndex`adjustor{4}'
PUBLIC	?RemoveFromBanList@RakServer@@W3AEXPBD@Z	; [thunk]:RakServer::RemoveFromBanList`adjustor{4}'
PUBLIC	?ClearBanList@RakServer@@W3AEXXZ		; [thunk]:RakServer::ClearBanList`adjustor{4}'
PUBLIC	?IsBanned@RakServer@@W3AE_NPBD@Z		; [thunk]:RakServer::IsBanned`adjustor{4}'
PUBLIC	?GetAveragePing@RakServer@@W3AEHUPlayerID@@@Z	; [thunk]:RakServer::GetAveragePing`adjustor{4}'
PUBLIC	?SetOfflinePingResponse@RakServer@@W3AEXPBDI@Z	; [thunk]:RakServer::SetOfflinePingResponse`adjustor{4}'
PUBLIC	?GetInternalID@RakServer@@W3BE?AUPlayerID@@XZ	; [thunk]:RakServer::GetInternalID`adjustor{4}'
PUBLIC	?SetTimeoutTime@RakServer@@W3AEXIUPlayerID@@@Z	; [thunk]:RakServer::SetTimeoutTime`adjustor{4}'
PUBLIC	?SetMTUSize@RakServer@@W3AE_NH@Z		; [thunk]:RakServer::SetMTUSize`adjustor{4}'
PUBLIC	?GetMTUSize@RakServer@@W3BEHXZ			; [thunk]:RakServer::GetMTUSize`adjustor{4}'
PUBLIC	?GetNumberOfAddresses@RakServer@@W3AEIXZ	; [thunk]:RakServer::GetNumberOfAddresses`adjustor{4}'
PUBLIC	?GetLocalIP@RakServer@@W3AEPBDI@Z		; [thunk]:RakServer::GetLocalIP`adjustor{4}'
PUBLIC	?AdvertiseSystem@RakServer@@W3AEXPBDG0H@Z	; [thunk]:RakServer::AdvertiseSystem`adjustor{4}'
PUBLIC	?GenerateCompressionLayer@RakServer@@W3AE_NQAI_N@Z ; [thunk]:RakServer::GenerateCompressionLayer`adjustor{4}'
PUBLIC	?DeleteCompressionLayer@RakServer@@W3AE_N_N@Z	; [thunk]:RakServer::DeleteCompressionLayer`adjustor{4}'
PUBLIC	?GetCompressionRatio@RakServer@@W3BEMXZ		; [thunk]:RakServer::GetCompressionRatio`adjustor{4}'
PUBLIC	?GetDecompressionRatio@RakServer@@W3BEMXZ	; [thunk]:RakServer::GetDecompressionRatio`adjustor{4}'
PUBLIC	?AttachPlugin@RakServer@@W3AEXPAVPluginInterface@@@Z ; [thunk]:RakServer::AttachPlugin`adjustor{4}'
PUBLIC	?DetachPlugin@RakServer@@W3AEXPAVPluginInterface@@@Z ; [thunk]:RakServer::DetachPlugin`adjustor{4}'
PUBLIC	?PushBackPacket@RakServer@@W3AEXPAUPacket@@_N@Z	; [thunk]:RakServer::PushBackPacket`adjustor{4}'
PUBLIC	?SetRouterInterface@RakServer@@W3AEXPAVRouterInterface@@@Z ; [thunk]:RakServer::SetRouterInterface`adjustor{4}'
PUBLIC	?RemoveRouterInterface@RakServer@@W3AEXPAVRouterInterface@@@Z ; [thunk]:RakServer::RemoveRouterInterface`adjustor{4}'
PUBLIC	?ApplyNetworkSimulator@RakServer@@W3AEXNGG@Z	; [thunk]:RakServer::ApplyNetworkSimulator`adjustor{4}'
PUBLIC	?IsNetworkSimulatorActive@RakServer@@W3AE_NXZ	; [thunk]:RakServer::IsNetworkSimulatorActive`adjustor{4}'
PUBLIC	?GetStatistics@RakServer@@W3AEQAURakNetStatisticsStruct@@UPlayerID@@@Z ; [thunk]:RakServer::GetStatistics`adjustor{4}'
PUBLIC	??_7RakServerInterface@@6B@			; RakServerInterface::`vftable'
PUBLIC	??_7RakServer@@6BRakServerInterface@@@		; RakServer::`vftable'
PUBLIC	??_7RakServer@@6BRakPeer@@@			; RakServer::`vftable'
PUBLIC	??_R0?AVRakPeerInterface@@@8			; RakPeerInterface `RTTI Type Descriptor'
PUBLIC	??_R3RakPeerInterface@@8			; RakPeerInterface::`RTTI Class Hierarchy Descriptor'
PUBLIC	??_R2RakPeerInterface@@8			; RakPeerInterface::`RTTI Base Class Array'
PUBLIC	??_R1A@?0A@EA@RakPeerInterface@@8		; RakPeerInterface::`RTTI Base Class Descriptor at (0,-1,0,64)'
PUBLIC	??_R4RakServerInterface@@6B@			; RakServerInterface::`RTTI Complete Object Locator'
PUBLIC	??_R0?AVRakServerInterface@@@8			; RakServerInterface `RTTI Type Descriptor'
PUBLIC	??_R3RakServerInterface@@8			; RakServerInterface::`RTTI Class Hierarchy Descriptor'
PUBLIC	??_R2RakServerInterface@@8			; RakServerInterface::`RTTI Base Class Array'
PUBLIC	??_R1A@?0A@EA@RakServerInterface@@8		; RakServerInterface::`RTTI Base Class Descriptor at (0,-1,0,64)'
PUBLIC	??_R4RakServer@@6BRakServerInterface@@@		; RakServer::`RTTI Complete Object Locator'
PUBLIC	??_R0?AVRakServer@@@8				; RakServer `RTTI Type Descriptor'
PUBLIC	??_R3RakServer@@8				; RakServer::`RTTI Class Hierarchy Descriptor'
PUBLIC	??_R2RakServer@@8				; RakServer::`RTTI Base Class Array'
PUBLIC	??_R1A@?0A@EA@RakServer@@8			; RakServer::`RTTI Base Class Descriptor at (0,-1,0,64)'
PUBLIC	??_R13?0A@EA@RakPeer@@8				; RakPeer::`RTTI Base Class Descriptor at (4,-1,0,64)'
PUBLIC	??_R0?AVRakPeer@@@8				; RakPeer `RTTI Type Descriptor'
PUBLIC	??_R3RakPeer@@8					; RakPeer::`RTTI Class Hierarchy Descriptor'
PUBLIC	??_R2RakPeer@@8					; RakPeer::`RTTI Base Class Array'
PUBLIC	??_R1A@?0A@EA@RakPeer@@8			; RakPeer::`RTTI Base Class Descriptor at (0,-1,0,64)'
PUBLIC	??_R13?0A@EA@RakPeerInterface@@8		; RakPeerInterface::`RTTI Base Class Descriptor at (4,-1,0,64)'
PUBLIC	??_R4RakServer@@6BRakPeer@@@			; RakServer::`RTTI Complete Object Locator'
EXTRN	__purecall:PROC
EXTRN	??3@YAXPAX@Z:PROC				; operator delete
EXTRN	??9PlayerID@@QBE_NABU0@@Z:PROC			; PlayerID::operator!=
EXTRN	_strcpy:PROC
EXTRN	_strlen:PROC
EXTRN	??0BitStream@RakNet@@QAE@XZ:PROC		; RakNet::BitStream::BitStream
EXTRN	??0BitStream@RakNet@@QAE@H@Z:PROC		; RakNet::BitStream::BitStream
EXTRN	??1BitStream@RakNet@@QAE@XZ:PROC		; RakNet::BitStream::~BitStream
EXTRN	?Reset@BitStream@RakNet@@QAEXXZ:PROC		; RakNet::BitStream::Reset
EXTRN	?Write@BitStream@RakNet@@QAEXPBDH@Z:PROC	; RakNet::BitStream::Write
EXTRN	?WriteBits@BitStream@RakNet@@QAEXPBEH_N@Z:PROC	; RakNet::BitStream::WriteBits
EXTRN	?seedMT@@YAXI@Z:PROC				; seedMT
EXTRN	?randomMT@@YAIXZ:PROC				; randomMT
EXTRN	??0RakPeer@@QAE@XZ:PROC				; RakPeer::RakPeer
EXTRN	??1RakPeer@@UAE@XZ:PROC				; RakPeer::~RakPeer
EXTRN	?Initialize@RakPeer@@UAE_NGGHPBD@Z:PROC		; RakPeer::Initialize
EXTRN	?InitializeSecurity@RakPeer@@UAEXPBD000@Z:PROC	; RakPeer::InitializeSecurity
EXTRN	?DisableSecurity@RakPeer@@UAEXXZ:PROC		; RakPeer::DisableSecurity
EXTRN	?SetMaximumIncomingConnections@RakPeer@@UAEXG@Z:PROC ; RakPeer::SetMaximumIncomingConnections
EXTRN	?GetMaximumIncomingConnections@RakPeer@@UBEGXZ:PROC ; RakPeer::GetMaximumIncomingConnections
EXTRN	?SetIncomingPassword@RakPeer@@UAEXPBDH@Z:PROC	; RakPeer::SetIncomingPassword
EXTRN	?GetIncomingPassword@RakPeer@@UAEXPADPAH@Z:PROC	; RakPeer::GetIncomingPassword
EXTRN	?Connect@RakPeer@@UAE_NPBDGPADH@Z:PROC		; RakPeer::Connect
EXTRN	?Disconnect@RakPeer@@UAEXIE@Z:PROC		; RakPeer::Disconnect
EXTRN	?IsActive@RakPeer@@UBE_NXZ:PROC			; RakPeer::IsActive
EXTRN	?GetConnectionList@RakPeer@@UBE_NPAUPlayerID@@PAG@Z:PROC ; RakPeer::GetConnectionList
EXTRN	?Send@RakPeer@@UAE_NPBDHW4PacketPriority@@W4PacketReliability@@DUPlayerID@@_N@Z:PROC ; RakPeer::Send
EXTRN	?Send@RakPeer@@UAE_NPAVBitStream@RakNet@@W4PacketPriority@@W4PacketReliability@@DUPlayerID@@_N@Z:PROC ; RakPeer::Send
EXTRN	?Receive@RakPeer@@UAEPAUPacket@@XZ:PROC		; RakPeer::Receive
EXTRN	?DeallocatePacket@RakPeer@@UAEXPAUPacket@@@Z:PROC ; RakPeer::DeallocatePacket
EXTRN	?GetMaximumNumberOfPeers@RakPeer@@UBEGXZ:PROC	; RakPeer::GetMaximumNumberOfPeers
EXTRN	?RegisterAsRemoteProcedureCall@RakPeer@@UAEXPADP6AXPAURPCParameters@@@Z@Z:PROC ; RakPeer::RegisterAsRemoteProcedureCall
EXTRN	?RegisterClassMemberRPC@RakPeer@@UAEXPADPAX@Z:PROC ; RakPeer::RegisterClassMemberRPC
EXTRN	?UnregisterAsRemoteProcedureCall@RakPeer@@UAEXPAD@Z:PROC ; RakPeer::UnregisterAsRemoteProcedureCall
EXTRN	?RPC@RakPeer@@UAE_NPADPBDIW4PacketPriority@@W4PacketReliability@@DUPlayerID@@_N5UNetworkID@@PAVBitStream@RakNet@@@Z:PROC ; RakPeer::RPC
EXTRN	?RPC@RakPeer@@UAE_NPADPAVBitStream@RakNet@@W4PacketPriority@@W4PacketReliability@@DUPlayerID@@_N5UNetworkID@@1@Z:PROC ; RakPeer::RPC
EXTRN	?CloseConnection@RakPeer@@UAEXUPlayerID@@_NE@Z:PROC ; RakPeer::CloseConnection
EXTRN	?GetIndexFromPlayerID@RakPeer@@UAEHUPlayerID@@@Z:PROC ; RakPeer::GetIndexFromPlayerID
EXTRN	?GetPlayerIDFromIndex@RakPeer@@UAE?AUPlayerID@@H@Z:PROC ; RakPeer::GetPlayerIDFromIndex
EXTRN	?AddToBanList@RakPeer@@UAEXPBDI@Z:PROC		; RakPeer::AddToBanList
EXTRN	?RemoveFromBanList@RakPeer@@UAEXPBD@Z:PROC	; RakPeer::RemoveFromBanList
EXTRN	?ClearBanList@RakPeer@@UAEXXZ:PROC		; RakPeer::ClearBanList
EXTRN	?IsBanned@RakPeer@@UAE_NPBD@Z:PROC		; RakPeer::IsBanned
EXTRN	?Ping@RakPeer@@UAEXUPlayerID@@@Z:PROC		; RakPeer::Ping
EXTRN	?Ping@RakPeer@@UAEXPBDG_N@Z:PROC		; RakPeer::Ping
EXTRN	?GetAveragePing@RakPeer@@UAEHUPlayerID@@@Z:PROC	; RakPeer::GetAveragePing
EXTRN	?GetLastPing@RakPeer@@UBEHUPlayerID@@@Z:PROC	; RakPeer::GetLastPing
EXTRN	?GetLowestPing@RakPeer@@UBEHUPlayerID@@@Z:PROC	; RakPeer::GetLowestPing
EXTRN	?SetOccasionalPing@RakPeer@@UAEX_N@Z:PROC	; RakPeer::SetOccasionalPing
EXTRN	?GetRemoteStaticData@RakPeer@@UAEPAVBitStream@RakNet@@UPlayerID@@@Z:PROC ; RakPeer::GetRemoteStaticData
EXTRN	?SetRemoteStaticData@RakPeer@@UAEXUPlayerID@@PBDH@Z:PROC ; RakPeer::SetRemoteStaticData
EXTRN	?SendStaticData@RakPeer@@UAEXUPlayerID@@@Z:PROC	; RakPeer::SendStaticData
EXTRN	?SetOfflinePingResponse@RakPeer@@UAEXPBDI@Z:PROC ; RakPeer::SetOfflinePingResponse
EXTRN	?GetInternalID@RakPeer@@UBE?AUPlayerID@@XZ:PROC	; RakPeer::GetInternalID
EXTRN	?GetExternalID@RakPeer@@UBE?AUPlayerID@@U2@@Z:PROC ; RakPeer::GetExternalID
EXTRN	?SetTimeoutTime@RakPeer@@UAEXIUPlayerID@@@Z:PROC ; RakPeer::SetTimeoutTime
EXTRN	?SetMTUSize@RakPeer@@UAE_NH@Z:PROC		; RakPeer::SetMTUSize
EXTRN	?GetMTUSize@RakPeer@@UBEHXZ:PROC		; RakPeer::GetMTUSize
EXTRN	?GetNumberOfAddresses@RakPeer@@UAEIXZ:PROC	; RakPeer::GetNumberOfAddresses
EXTRN	?GetLocalIP@RakPeer@@UAEPBDI@Z:PROC		; RakPeer::GetLocalIP
EXTRN	?PlayerIDToDottedIP@RakPeer@@UBEPBDUPlayerID@@@Z:PROC ; RakPeer::PlayerIDToDottedIP
EXTRN	?IPToPlayerID@RakPeer@@UAEXPBDGPAUPlayerID@@@Z:PROC ; RakPeer::IPToPlayerID
EXTRN	?AllowConnectionResponseIPMigration@RakPeer@@UAEX_N@Z:PROC ; RakPeer::AllowConnectionResponseIPMigration
EXTRN	?AdvertiseSystem@RakPeer@@UAEXPBDG0H@Z:PROC	; RakPeer::AdvertiseSystem
EXTRN	?SetSplitMessageProgressInterval@RakPeer@@UAEXH@Z:PROC ; RakPeer::SetSplitMessageProgressInterval
EXTRN	?SetUnreliableTimeout@RakPeer@@UAEXI@Z:PROC	; RakPeer::SetUnreliableTimeout
EXTRN	?SetCompileFrequencyTable@RakPeer@@UAEX_N@Z:PROC ; RakPeer::SetCompileFrequencyTable
EXTRN	?GetOutgoingFrequencyTable@RakPeer@@UAE_NQAI@Z:PROC ; RakPeer::GetOutgoingFrequencyTable
EXTRN	?GenerateCompressionLayer@RakPeer@@UAE_NQAI_N@Z:PROC ; RakPeer::GenerateCompressionLayer
EXTRN	?DeleteCompressionLayer@RakPeer@@UAE_N_N@Z:PROC	; RakPeer::DeleteCompressionLayer
EXTRN	?GetCompressionRatio@RakPeer@@UBEMXZ:PROC	; RakPeer::GetCompressionRatio
EXTRN	?GetDecompressionRatio@RakPeer@@UBEMXZ:PROC	; RakPeer::GetDecompressionRatio
EXTRN	?AttachPlugin@RakPeer@@UAEXPAVPluginInterface@@@Z:PROC ; RakPeer::AttachPlugin
EXTRN	?DetachPlugin@RakPeer@@UAEXPAVPluginInterface@@@Z:PROC ; RakPeer::DetachPlugin
EXTRN	?PushBackPacket@RakPeer@@UAEXPAUPacket@@_N@Z:PROC ; RakPeer::PushBackPacket
EXTRN	?SetRouterInterface@RakPeer@@UAEXPAVRouterInterface@@@Z:PROC ; RakPeer::SetRouterInterface
EXTRN	?RemoveRouterInterface@RakPeer@@UAEXPAVRouterInterface@@@Z:PROC ; RakPeer::RemoveRouterInterface
EXTRN	?ApplyNetworkSimulator@RakPeer@@UAEXNGG@Z:PROC	; RakPeer::ApplyNetworkSimulator
EXTRN	?IsNetworkSimulatorActive@RakPeer@@UAE_NXZ:PROC	; RakPeer::IsNetworkSimulatorActive
EXTRN	?GetStatistics@RakPeer@@UAEQAURakNetStatisticsStruct@@UPlayerID@@@Z:PROC ; RakPeer::GetStatistics
EXTRN	?GetRPCMap@RakPeer@@UAEPAURPCMap@@UPlayerID@@@Z:PROC ; RakPeer::GetRPCMap
EXTRN	?GetRemoteSystemFromPlayerID@RakPeer@@IBEPAURemoteSystemStruct@1@UPlayerID@@_N1@Z:PROC ; RakPeer::GetRemoteSystemFromPlayerID
EXTRN	??_ERakServerInterface@@UAEPAXI@Z:PROC		; RakServerInterface::`vector deleting destructor'
EXTRN	??_ERakServer@@UAEPAXI@Z:PROC			; RakServer::`vector deleting destructor'
EXTRN	?GetTime@RakNet@@YAIXZ:PROC			; RakNet::GetTime
EXTRN	@_RTC_CheckStackVars@8:PROC
EXTRN	@__security_check_cookie@4:PROC
EXTRN	__RTC_CheckEsp:PROC
EXTRN	__RTC_InitBase:PROC
EXTRN	__RTC_Shutdown:PROC
EXTRN	___CxxFrameHandler3:PROC
EXTRN	??_7type_info@@6B@:QWORD			; type_info::`vftable'
EXTRN	___security_cookie:DWORD
EXTRN	__fltused:DWORD
;	COMDAT rtc$TMZ
rtc$TMZ	SEGMENT
__RTC_Shutdown.rtc$TMZ DD FLAT:__RTC_Shutdown
rtc$TMZ	ENDS
;	COMDAT rtc$IMZ
rtc$IMZ	SEGMENT
__RTC_InitBase.rtc$IMZ DD FLAT:__RTC_InitBase
rtc$IMZ	ENDS
;	COMDAT ??_R4RakServer@@6BRakPeer@@@
rdata$r	SEGMENT
??_R4RakServer@@6BRakPeer@@@ DD 00H			; RakServer::`RTTI Complete Object Locator'
	DD	04H
	DD	00H
	DD	FLAT:??_R0?AVRakServer@@@8
	DD	FLAT:??_R3RakServer@@8
rdata$r	ENDS
;	COMDAT ??_R13?0A@EA@RakPeerInterface@@8
rdata$r	SEGMENT
??_R13?0A@EA@RakPeerInterface@@8 DD FLAT:??_R0?AVRakPeerInterface@@@8 ; RakPeerInterface::`RTTI Base Class Descriptor at (4,-1,0,64)'
	DD	00H
	DD	04H
	DD	0ffffffffH
	DD	00H
	DD	040H
	DD	FLAT:??_R3RakPeerInterface@@8
rdata$r	ENDS
;	COMDAT ??_R1A@?0A@EA@RakPeer@@8
rdata$r	SEGMENT
??_R1A@?0A@EA@RakPeer@@8 DD FLAT:??_R0?AVRakPeer@@@8	; RakPeer::`RTTI Base Class Descriptor at (0,-1,0,64)'
	DD	01H
	DD	00H
	DD	0ffffffffH
	DD	00H
	DD	040H
	DD	FLAT:??_R3RakPeer@@8
rdata$r	ENDS
;	COMDAT ??_R2RakPeer@@8
rdata$r	SEGMENT
??_R2RakPeer@@8 DD FLAT:??_R1A@?0A@EA@RakPeer@@8	; RakPeer::`RTTI Base Class Array'
	DD	FLAT:??_R1A@?0A@EA@RakPeerInterface@@8
rdata$r	ENDS
;	COMDAT ??_R3RakPeer@@8
rdata$r	SEGMENT
??_R3RakPeer@@8 DD 00H					; RakPeer::`RTTI Class Hierarchy Descriptor'
	DD	00H
	DD	02H
	DD	FLAT:??_R2RakPeer@@8
rdata$r	ENDS
;	COMDAT ??_R0?AVRakPeer@@@8
data$r	SEGMENT
??_R0?AVRakPeer@@@8 DD FLAT:??_7type_info@@6B@		; RakPeer `RTTI Type Descriptor'
	DD	00H
	DB	'.?AVRakPeer@@', 00H
data$r	ENDS
;	COMDAT ??_R13?0A@EA@RakPeer@@8
rdata$r	SEGMENT
??_R13?0A@EA@RakPeer@@8 DD FLAT:??_R0?AVRakPeer@@@8	; RakPeer::`RTTI Base Class Descriptor at (4,-1,0,64)'
	DD	01H
	DD	04H
	DD	0ffffffffH
	DD	00H
	DD	040H
	DD	FLAT:??_R3RakPeer@@8
rdata$r	ENDS
;	COMDAT ??_R1A@?0A@EA@RakServer@@8
rdata$r	SEGMENT
??_R1A@?0A@EA@RakServer@@8 DD FLAT:??_R0?AVRakServer@@@8 ; RakServer::`RTTI Base Class Descriptor at (0,-1,0,64)'
	DD	03H
	DD	00H
	DD	0ffffffffH
	DD	00H
	DD	040H
	DD	FLAT:??_R3RakServer@@8
rdata$r	ENDS
;	COMDAT ??_R2RakServer@@8
rdata$r	SEGMENT
??_R2RakServer@@8 DD FLAT:??_R1A@?0A@EA@RakServer@@8	; RakServer::`RTTI Base Class Array'
	DD	FLAT:??_R1A@?0A@EA@RakServerInterface@@8
	DD	FLAT:??_R13?0A@EA@RakPeer@@8
	DD	FLAT:??_R13?0A@EA@RakPeerInterface@@8
rdata$r	ENDS
;	COMDAT ??_R3RakServer@@8
rdata$r	SEGMENT
??_R3RakServer@@8 DD 00H				; RakServer::`RTTI Class Hierarchy Descriptor'
	DD	01H
	DD	04H
	DD	FLAT:??_R2RakServer@@8
rdata$r	ENDS
;	COMDAT ??_R0?AVRakServer@@@8
data$r	SEGMENT
??_R0?AVRakServer@@@8 DD FLAT:??_7type_info@@6B@	; RakServer `RTTI Type Descriptor'
	DD	00H
	DB	'.?AVRakServer@@', 00H
data$r	ENDS
;	COMDAT ??_R4RakServer@@6BRakServerInterface@@@
rdata$r	SEGMENT
??_R4RakServer@@6BRakServerInterface@@@ DD 00H		; RakServer::`RTTI Complete Object Locator'
	DD	00H
	DD	00H
	DD	FLAT:??_R0?AVRakServer@@@8
	DD	FLAT:??_R3RakServer@@8
rdata$r	ENDS
;	COMDAT ??_R1A@?0A@EA@RakServerInterface@@8
rdata$r	SEGMENT
??_R1A@?0A@EA@RakServerInterface@@8 DD FLAT:??_R0?AVRakServerInterface@@@8 ; RakServerInterface::`RTTI Base Class Descriptor at (0,-1,0,64)'
	DD	00H
	DD	00H
	DD	0ffffffffH
	DD	00H
	DD	040H
	DD	FLAT:??_R3RakServerInterface@@8
rdata$r	ENDS
;	COMDAT ??_R2RakServerInterface@@8
rdata$r	SEGMENT
??_R2RakServerInterface@@8 DD FLAT:??_R1A@?0A@EA@RakServerInterface@@8 ; RakServerInterface::`RTTI Base Class Array'
rdata$r	ENDS
;	COMDAT ??_R3RakServerInterface@@8
rdata$r	SEGMENT
??_R3RakServerInterface@@8 DD 00H			; RakServerInterface::`RTTI Class Hierarchy Descriptor'
	DD	00H
	DD	01H
	DD	FLAT:??_R2RakServerInterface@@8
rdata$r	ENDS
;	COMDAT ??_R0?AVRakServerInterface@@@8
data$r	SEGMENT
??_R0?AVRakServerInterface@@@8 DD FLAT:??_7type_info@@6B@ ; RakServerInterface `RTTI Type Descriptor'
	DD	00H
	DB	'.?AVRakServerInterface@@', 00H
data$r	ENDS
;	COMDAT ??_R4RakServerInterface@@6B@
rdata$r	SEGMENT
??_R4RakServerInterface@@6B@ DD 00H			; RakServerInterface::`RTTI Complete Object Locator'
	DD	00H
	DD	00H
	DD	FLAT:??_R0?AVRakServerInterface@@@8
	DD	FLAT:??_R3RakServerInterface@@8
rdata$r	ENDS
;	COMDAT ??_R1A@?0A@EA@RakPeerInterface@@8
rdata$r	SEGMENT
??_R1A@?0A@EA@RakPeerInterface@@8 DD FLAT:??_R0?AVRakPeerInterface@@@8 ; RakPeerInterface::`RTTI Base Class Descriptor at (0,-1,0,64)'
	DD	00H
	DD	00H
	DD	0ffffffffH
	DD	00H
	DD	040H
	DD	FLAT:??_R3RakPeerInterface@@8
rdata$r	ENDS
;	COMDAT ??_R2RakPeerInterface@@8
rdata$r	SEGMENT
??_R2RakPeerInterface@@8 DD FLAT:??_R1A@?0A@EA@RakPeerInterface@@8 ; RakPeerInterface::`RTTI Base Class Array'
rdata$r	ENDS
;	COMDAT ??_R3RakPeerInterface@@8
rdata$r	SEGMENT
??_R3RakPeerInterface@@8 DD 00H				; RakPeerInterface::`RTTI Class Hierarchy Descriptor'
	DD	00H
	DD	01H
	DD	FLAT:??_R2RakPeerInterface@@8
rdata$r	ENDS
;	COMDAT ??_R0?AVRakPeerInterface@@@8
data$r	SEGMENT
??_R0?AVRakPeerInterface@@@8 DD FLAT:??_7type_info@@6B@	; RakPeerInterface `RTTI Type Descriptor'
	DD	00H
	DB	'.?AVRakPeerInterface@@', 00H
data$r	ENDS
;	COMDAT ??_7RakServer@@6BRakPeer@@@
CONST	SEGMENT
??_7RakServer@@6BRakPeer@@@ DD FLAT:??_R4RakServer@@6BRakPeer@@@ ; RakServer::`vftable'
	DD	FLAT:??_ERakServer@@W3AEPAXI@Z
	DD	FLAT:?Initialize@RakPeer@@UAE_NGGHPBD@Z
	DD	FLAT:?InitializeSecurity@RakPeer@@UAEXPBD000@Z
	DD	FLAT:?DisableSecurity@RakServer@@W3AEXXZ
	DD	FLAT:?SetMaximumIncomingConnections@RakPeer@@UAEXG@Z
	DD	FLAT:?GetMaximumIncomingConnections@RakPeer@@UBEGXZ
	DD	FLAT:?SetIncomingPassword@RakPeer@@UAEXPBDH@Z
	DD	FLAT:?GetIncomingPassword@RakPeer@@UAEXPADPAH@Z
	DD	FLAT:?Connect@RakPeer@@UAE_NPBDGPADH@Z
	DD	FLAT:?Disconnect@RakServer@@W3AEXIE@Z
	DD	FLAT:?IsActive@RakServer@@W3BE_NXZ
	DD	FLAT:?GetConnectionList@RakPeer@@UBE_NPAUPlayerID@@PAG@Z
	DD	FLAT:?Send@RakServer@@W3AE_NPAVBitStream@RakNet@@W4PacketPriority@@W4PacketReliability@@DUPlayerID@@_N@Z
	DD	FLAT:?Send@RakServer@@W3AE_NPBDHW4PacketPriority@@W4PacketReliability@@DUPlayerID@@_N@Z
	DD	FLAT:?Receive@RakServer@@W3AEPAUPacket@@XZ
	DD	FLAT:?DeallocatePacket@RakServer@@W3AEXPAUPacket@@@Z
	DD	FLAT:?GetMaximumNumberOfPeers@RakPeer@@UBEGXZ
	DD	FLAT:?RegisterAsRemoteProcedureCall@RakServer@@W3AEXPADP6AXPAURPCParameters@@@Z@Z
	DD	FLAT:?RegisterClassMemberRPC@RakServer@@W3AEXPADPAX@Z
	DD	FLAT:?UnregisterAsRemoteProcedureCall@RakServer@@W3AEXPAD@Z
	DD	FLAT:?RPC@RakServer@@W3AE_NPADPAVBitStream@RakNet@@W4PacketPriority@@W4PacketReliability@@DUPlayerID@@_N5UNetworkID@@1@Z
	DD	FLAT:?RPC@RakServer@@W3AE_NPADPBDIW4PacketPriority@@W4PacketReliability@@DUPlayerID@@_N5UNetworkID@@PAVBitStream@RakNet@@@Z
	DD	FLAT:?CloseConnection@RakPeer@@UAEXUPlayerID@@_NE@Z
	DD	FLAT:?GetIndexFromPlayerID@RakServer@@W3AEHUPlayerID@@@Z
	DD	FLAT:?GetPlayerIDFromIndex@RakServer@@W3AE?AUPlayerID@@H@Z
	DD	FLAT:?AddToBanList@RakPeer@@UAEXPBDI@Z
	DD	FLAT:?RemoveFromBanList@RakServer@@W3AEXPBD@Z
	DD	FLAT:?ClearBanList@RakServer@@W3AEXXZ
	DD	FLAT:?IsBanned@RakServer@@W3AE_NPBD@Z
	DD	FLAT:?Ping@RakPeer@@UAEXPBDG_N@Z
	DD	FLAT:?Ping@RakPeer@@UAEXUPlayerID@@@Z
	DD	FLAT:?GetAveragePing@RakServer@@W3AEHUPlayerID@@@Z
	DD	FLAT:?GetLastPing@RakPeer@@UBEHUPlayerID@@@Z
	DD	FLAT:?GetLowestPing@RakPeer@@UBEHUPlayerID@@@Z
	DD	FLAT:?SetOccasionalPing@RakPeer@@UAEX_N@Z
	DD	FLAT:?GetRemoteStaticData@RakPeer@@UAEPAVBitStream@RakNet@@UPlayerID@@@Z
	DD	FLAT:?SetRemoteStaticData@RakPeer@@UAEXUPlayerID@@PBDH@Z
	DD	FLAT:?SendStaticData@RakPeer@@UAEXUPlayerID@@@Z
	DD	FLAT:?SetOfflinePingResponse@RakServer@@W3AEXPBDI@Z
	DD	FLAT:?GetInternalID@RakServer@@W3BE?AUPlayerID@@XZ
	DD	FLAT:?GetExternalID@RakPeer@@UBE?AUPlayerID@@U2@@Z
	DD	FLAT:?SetTimeoutTime@RakServer@@W3AEXIUPlayerID@@@Z
	DD	FLAT:?SetMTUSize@RakServer@@W3AE_NH@Z
	DD	FLAT:?GetMTUSize@RakServer@@W3BEHXZ
	DD	FLAT:?GetNumberOfAddresses@RakServer@@W3AEIXZ
	DD	FLAT:?GetLocalIP@RakServer@@W3AEPBDI@Z
	DD	FLAT:?PlayerIDToDottedIP@RakPeer@@UBEPBDUPlayerID@@@Z
	DD	FLAT:?IPToPlayerID@RakPeer@@UAEXPBDGPAUPlayerID@@@Z
	DD	FLAT:?AllowConnectionResponseIPMigration@RakPeer@@UAEX_N@Z
	DD	FLAT:?AdvertiseSystem@RakServer@@W3AEXPBDG0H@Z
	DD	FLAT:?SetSplitMessageProgressInterval@RakPeer@@UAEXH@Z
	DD	FLAT:?SetUnreliableTimeout@RakPeer@@UAEXI@Z
	DD	FLAT:?SetCompileFrequencyTable@RakPeer@@UAEX_N@Z
	DD	FLAT:?GetOutgoingFrequencyTable@RakPeer@@UAE_NQAI@Z
	DD	FLAT:?GenerateCompressionLayer@RakServer@@W3AE_NQAI_N@Z
	DD	FLAT:?DeleteCompressionLayer@RakServer@@W3AE_N_N@Z
	DD	FLAT:?GetCompressionRatio@RakServer@@W3BEMXZ
	DD	FLAT:?GetDecompressionRatio@RakServer@@W3BEMXZ
	DD	FLAT:?AttachPlugin@RakServer@@W3AEXPAVPluginInterface@@@Z
	DD	FLAT:?DetachPlugin@RakServer@@W3AEXPAVPluginInterface@@@Z
	DD	FLAT:?PushBackPacket@RakServer@@W3AEXPAUPacket@@_N@Z
	DD	FLAT:?SetRouterInterface@RakServer@@W3AEXPAVRouterInterface@@@Z
	DD	FLAT:?RemoveRouterInterface@RakServer@@W3AEXPAVRouterInterface@@@Z
	DD	FLAT:?ApplyNetworkSimulator@RakServer@@W3AEXNGG@Z
	DD	FLAT:?IsNetworkSimulatorActive@RakServer@@W3AE_NXZ
	DD	FLAT:?GetStatistics@RakServer@@W3AEQAURakNetStatisticsStruct@@UPlayerID@@@Z
	DD	FLAT:?GetRPCMap@RakPeer@@UAEPAURPCMap@@UPlayerID@@@Z
CONST	ENDS
;	COMDAT ??_7RakServer@@6BRakServerInterface@@@
CONST	SEGMENT
??_7RakServer@@6BRakServerInterface@@@ DD FLAT:??_R4RakServer@@6BRakServerInterface@@@ ; RakServer::`vftable'
	DD	FLAT:??_ERakServer@@UAEPAXI@Z
	DD	FLAT:?Start@RakServer@@UAE_NGIHGPBD@Z
	DD	FLAT:?InitializeSecurity@RakServer@@UAEXPBD0@Z
	DD	FLAT:?DisableSecurity@RakServer@@UAEXXZ
	DD	FLAT:?SetPassword@RakServer@@UAEXPBD@Z
	DD	FLAT:?HasPassword@RakServer@@UAE_NXZ
	DD	FLAT:?Disconnect@RakServer@@UAEXIE@Z
	DD	FLAT:?Send@RakServer@@UAE_NPAVBitStream@RakNet@@W4PacketPriority@@W4PacketReliability@@DUPlayerID@@_N@Z
	DD	FLAT:?Send@RakServer@@UAE_NPBDHW4PacketPriority@@W4PacketReliability@@DUPlayerID@@_N@Z
	DD	FLAT:?Receive@RakServer@@UAEPAUPacket@@XZ
	DD	FLAT:?Kick@RakServer@@UAEXUPlayerID@@@Z
	DD	FLAT:?DeallocatePacket@RakServer@@UAEXPAUPacket@@@Z
	DD	FLAT:?SetAllowedPlayers@RakServer@@UAEXG@Z
	DD	FLAT:?GetAllowedPlayers@RakServer@@UBEGXZ
	DD	FLAT:?GetConnectedPlayers@RakServer@@UAEGXZ
	DD	FLAT:?GetPlayerIPFromID@RakServer@@UAEXUPlayerID@@QADPAG@Z
	DD	FLAT:?PingPlayer@RakServer@@UAEXUPlayerID@@@Z
	DD	FLAT:?GetAveragePing@RakServer@@UAEHUPlayerID@@@Z
	DD	FLAT:?GetLastPing@RakServer@@UAEHUPlayerID@@@Z
	DD	FLAT:?GetLowestPing@RakServer@@UAEHUPlayerID@@@Z
	DD	FLAT:?StartOccasionalPing@RakServer@@UAEXXZ
	DD	FLAT:?StopOccasionalPing@RakServer@@UAEXXZ
	DD	FLAT:?IsActive@RakServer@@UBE_NXZ
	DD	FLAT:?GetSynchronizedRandomInteger@RakServer@@UBEIXZ
	DD	FLAT:?StartSynchronizedRandomInteger@RakServer@@UAEXXZ
	DD	FLAT:?StopSynchronizedRandomInteger@RakServer@@UAEXXZ
	DD	FLAT:?GenerateCompressionLayer@RakServer@@UAE_NQAI_N@Z
	DD	FLAT:?DeleteCompressionLayer@RakServer@@UAE_N_N@Z
	DD	FLAT:?RegisterAsRemoteProcedureCall@RakServer@@UAEXPADP6AXPAURPCParameters@@@Z@Z
	DD	FLAT:?RegisterClassMemberRPC@RakServer@@UAEXPADPAX@Z
	DD	FLAT:?UnregisterAsRemoteProcedureCall@RakServer@@UAEXPAD@Z
	DD	FLAT:?RPC@RakServer@@UAE_NPADPAVBitStream@RakNet@@W4PacketPriority@@W4PacketReliability@@DUPlayerID@@_N5@Z
	DD	FLAT:?RPC@RakServer@@UAE_NPADPAVBitStream@RakNet@@W4PacketPriority@@W4PacketReliability@@DUPlayerID@@_N5UNetworkID@@1@Z
	DD	FLAT:?RPC@RakServer@@UAE_NPADPBDIW4PacketPriority@@W4PacketReliability@@DUPlayerID@@_N5UNetworkID@@PAVBitStream@RakNet@@@Z
	DD	FLAT:?SetTrackFrequencyTable@RakServer@@UAEX_N@Z
	DD	FLAT:?GetSendFrequencyTable@RakServer@@UAE_NQAI@Z
	DD	FLAT:?GetCompressionRatio@RakServer@@UBEMXZ
	DD	FLAT:?GetDecompressionRatio@RakServer@@UBEMXZ
	DD	FLAT:?AttachPlugin@RakServer@@UAEXPAVPluginInterface@@@Z
	DD	FLAT:?DetachPlugin@RakServer@@UAEXPAVPluginInterface@@@Z
	DD	FLAT:?GetStaticServerData@RakServer@@UAEPAVBitStream@RakNet@@XZ
	DD	FLAT:?SetStaticServerData@RakServer@@UAEXPBDH@Z
	DD	FLAT:?SetRelayStaticClientData@RakServer@@UAEX_N@Z
	DD	FLAT:?SendStaticServerDataToClient@RakServer@@UAEXUPlayerID@@@Z
	DD	FLAT:?SetOfflinePingResponse@RakServer@@UAEXPBDI@Z
	DD	FLAT:?GetStaticClientData@RakServer@@UAEPAVBitStream@RakNet@@UPlayerID@@@Z
	DD	FLAT:?SetStaticClientData@RakServer@@UAEXUPlayerID@@PBDH@Z
	DD	FLAT:?ChangeStaticClientData@RakServer@@UAEXUPlayerID@@U2@@Z
	DD	FLAT:?GetNumberOfAddresses@RakServer@@UAEIXZ
	DD	FLAT:?GetLocalIP@RakServer@@UAEPBDI@Z
	DD	FLAT:?GetInternalID@RakServer@@UBE?AUPlayerID@@XZ
	DD	FLAT:?PushBackPacket@RakServer@@UAEXPAUPacket@@_N@Z
	DD	FLAT:?SetRouterInterface@RakServer@@UAEXPAVRouterInterface@@@Z
	DD	FLAT:?RemoveRouterInterface@RakServer@@UAEXPAVRouterInterface@@@Z
	DD	FLAT:?GetIndexFromPlayerID@RakServer@@UAEHUPlayerID@@@Z
	DD	FLAT:?GetPlayerIDFromIndex@RakServer@@UAE?AUPlayerID@@H@Z
	DD	FLAT:?AddToBanList@RakServer@@UAEXPBD@Z
	DD	FLAT:?RemoveFromBanList@RakServer@@UAEXPBD@Z
	DD	FLAT:?ClearBanList@RakServer@@UAEXXZ
	DD	FLAT:?IsBanned@RakServer@@UAE_NPBD@Z
	DD	FLAT:?IsActivePlayerID@RakServer@@UAE_NUPlayerID@@@Z
	DD	FLAT:?SetTimeoutTime@RakServer@@UAEXIUPlayerID@@@Z
	DD	FLAT:?SetMTUSize@RakServer@@UAE_NH@Z
	DD	FLAT:?GetMTUSize@RakServer@@UBEHXZ
	DD	FLAT:?AdvertiseSystem@RakServer@@UAEXPBDG0H@Z
	DD	FLAT:?GetStatistics@RakServer@@UAEQAURakNetStatisticsStruct@@UPlayerID@@@Z
	DD	FLAT:?ApplyNetworkSimulator@RakServer@@UAEXNGG@Z
	DD	FLAT:?IsNetworkSimulatorActive@RakServer@@UAE_NXZ
CONST	ENDS
;	COMDAT ??_7RakServerInterface@@6B@
CONST	SEGMENT
??_7RakServerInterface@@6B@ DD FLAT:??_R4RakServerInterface@@6B@ ; RakServerInterface::`vftable'
	DD	FLAT:??_ERakServerInterface@@UAEPAXI@Z
	DD	FLAT:__purecall
	DD	FLAT:__purecall
	DD	FLAT:__purecall
	DD	FLAT:__purecall
	DD	FLAT:__purecall
	DD	FLAT:__purecall
	DD	FLAT:__purecall
	DD	FLAT:__purecall
	DD	FLAT:__purecall
	DD	FLAT:__purecall
	DD	FLAT:__purecall
	DD	FLAT:__purecall
	DD	FLAT:__purecall
	DD	FLAT:__purecall
	DD	FLAT:__purecall
	DD	FLAT:__purecall
	DD	FLAT:__purecall
	DD	FLAT:__purecall
	DD	FLAT:__purecall
	DD	FLAT:__purecall
	DD	FLAT:__purecall
	DD	FLAT:__purecall
	DD	FLAT:__purecall
	DD	FLAT:__purecall
	DD	FLAT:__purecall
	DD	FLAT:__purecall
	DD	FLAT:__purecall
	DD	FLAT:__purecall
	DD	FLAT:__purecall
	DD	FLAT:__purecall
	DD	FLAT:__purecall
	DD	FLAT:__purecall
	DD	FLAT:__purecall
	DD	FLAT:__purecall
	DD	FLAT:__purecall
	DD	FLAT:__purecall
	DD	FLAT:__purecall
	DD	FLAT:__purecall
	DD	FLAT:__purecall
	DD	FLAT:__purecall
	DD	FLAT:__purecall
	DD	FLAT:__purecall
	DD	FLAT:__purecall
	DD	FLAT:__purecall
	DD	FLAT:__purecall
	DD	FLAT:__purecall
	DD	FLAT:__purecall
	DD	FLAT:__purecall
	DD	FLAT:__purecall
	DD	FLAT:__purecall
	DD	FLAT:__purecall
	DD	FLAT:__purecall
	DD	FLAT:__purecall
	DD	FLAT:__purecall
	DD	FLAT:__purecall
	DD	FLAT:__purecall
	DD	FLAT:__purecall
	DD	FLAT:__purecall
	DD	FLAT:__purecall
	DD	FLAT:__purecall
	DD	FLAT:__purecall
	DD	FLAT:__purecall
	DD	FLAT:__purecall
	DD	FLAT:__purecall
	DD	FLAT:__purecall
	DD	FLAT:__purecall
	DD	FLAT:__purecall
CONST	ENDS
;	COMDAT xdata$x
xdata$x	SEGMENT
__unwindtable$?ChangeStaticClientData@RakServer@@UAEXUPlayerID@@U2@@Z DD 0ffffffffH
	DD	FLAT:__unwindfunclet$?ChangeStaticClientData@RakServer@@UAEXUPlayerID@@U2@@Z$0
__ehfuncinfo$?ChangeStaticClientData@RakServer@@UAEXUPlayerID@@U2@@Z DD 019930522H
	DD	01H
	DD	FLAT:__unwindtable$?ChangeStaticClientData@RakServer@@UAEXUPlayerID@@U2@@Z
	DD	2 DUP(00H)
	DD	2 DUP(00H)
	DD	00H
	DD	01H
xdata$x	ENDS
;	COMDAT xdata$x
xdata$x	SEGMENT
__unwindtable$?Receive@RakServer@@UAEPAUPacket@@XZ DD 0ffffffffH
	DD	FLAT:__unwindfunclet$?Receive@RakServer@@UAEPAUPacket@@XZ$0
	DD	0ffffffffH
	DD	FLAT:__unwindfunclet$?Receive@RakServer@@UAEPAUPacket@@XZ$1
	DD	0ffffffffH
	DD	FLAT:__unwindfunclet$?Receive@RakServer@@UAEPAUPacket@@XZ$2
	DD	0ffffffffH
	DD	FLAT:__unwindfunclet$?Receive@RakServer@@UAEPAUPacket@@XZ$3
__ehfuncinfo$?Receive@RakServer@@UAEPAUPacket@@XZ DD 019930522H
	DD	04H
	DD	FLAT:__unwindtable$?Receive@RakServer@@UAEPAUPacket@@XZ
	DD	2 DUP(00H)
	DD	2 DUP(00H)
	DD	00H
	DD	01H
xdata$x	ENDS
;	COMDAT xdata$x
xdata$x	SEGMENT
__unwindtable$??1RakServer@@UAE@XZ DD 0ffffffffH
	DD	FLAT:__unwindfunclet$??1RakServer@@UAE@XZ$0
__ehfuncinfo$??1RakServer@@UAE@XZ DD 019930522H
	DD	01H
	DD	FLAT:__unwindtable$??1RakServer@@UAE@XZ
	DD	2 DUP(00H)
	DD	2 DUP(00H)
	DD	00H
	DD	01H
xdata$x	ENDS
;	COMDAT xdata$x
xdata$x	SEGMENT
__unwindtable$??0RakServer@@QAE@XZ DD 0ffffffffH
	DD	FLAT:__unwindfunclet$??0RakServer@@QAE@XZ$0
__ehfuncinfo$??0RakServer@@QAE@XZ DD 019930522H
	DD	01H
	DD	FLAT:__unwindtable$??0RakServer@@QAE@XZ
	DD	2 DUP(00H)
	DD	2 DUP(00H)
	DD	00H
	DD	01H
xdata$x	ENDS
; Function compile flags: /Odsp /RTCsu /ZI
;	COMDAT ?GetStatistics@RakServer@@W3AEQAURakNetStatisticsStruct@@UPlayerID@@@Z
_TEXT	SEGMENT
?GetStatistics@RakServer@@W3AEQAURakNetStatisticsStruct@@UPlayerID@@@Z PROC ; [thunk]:RakServer::GetStatistics`adjustor{4}', COMDAT
	sub	ecx, 4
	jmp	?GetStatistics@RakServer@@UAEQAURakNetStatisticsStruct@@UPlayerID@@@Z ; RakServer::GetStatistics
?GetStatistics@RakServer@@W3AEQAURakNetStatisticsStruct@@UPlayerID@@@Z ENDP ; [thunk]:RakServer::GetStatistics`adjustor{4}'
_TEXT	ENDS
; Function compile flags: /Odsp /RTCsu /ZI
;	COMDAT ?IsNetworkSimulatorActive@RakServer@@W3AE_NXZ
_TEXT	SEGMENT
?IsNetworkSimulatorActive@RakServer@@W3AE_NXZ PROC	; [thunk]:RakServer::IsNetworkSimulatorActive`adjustor{4}', COMDAT
	sub	ecx, 4
	jmp	?IsNetworkSimulatorActive@RakServer@@UAE_NXZ ; RakServer::IsNetworkSimulatorActive
?IsNetworkSimulatorActive@RakServer@@W3AE_NXZ ENDP	; [thunk]:RakServer::IsNetworkSimulatorActive`adjustor{4}'
_TEXT	ENDS
; Function compile flags: /Odsp /RTCsu /ZI
;	COMDAT ?ApplyNetworkSimulator@RakServer@@W3AEXNGG@Z
_TEXT	SEGMENT
?ApplyNetworkSimulator@RakServer@@W3AEXNGG@Z PROC	; [thunk]:RakServer::ApplyNetworkSimulator`adjustor{4}', COMDAT
	sub	ecx, 4
	jmp	?ApplyNetworkSimulator@RakServer@@UAEXNGG@Z ; RakServer::ApplyNetworkSimulator
?ApplyNetworkSimulator@RakServer@@W3AEXNGG@Z ENDP	; [thunk]:RakServer::ApplyNetworkSimulator`adjustor{4}'
_TEXT	ENDS
; Function compile flags: /Odsp /RTCsu /ZI
;	COMDAT ?RemoveRouterInterface@RakServer@@W3AEXPAVRouterInterface@@@Z
_TEXT	SEGMENT
?RemoveRouterInterface@RakServer@@W3AEXPAVRouterInterface@@@Z PROC ; [thunk]:RakServer::RemoveRouterInterface`adjustor{4}', COMDAT
	sub	ecx, 4
	jmp	?RemoveRouterInterface@RakServer@@UAEXPAVRouterInterface@@@Z ; RakServer::RemoveRouterInterface
?RemoveRouterInterface@RakServer@@W3AEXPAVRouterInterface@@@Z ENDP ; [thunk]:RakServer::RemoveRouterInterface`adjustor{4}'
_TEXT	ENDS
; Function compile flags: /Odsp /RTCsu /ZI
;	COMDAT ?SetRouterInterface@RakServer@@W3AEXPAVRouterInterface@@@Z
_TEXT	SEGMENT
?SetRouterInterface@RakServer@@W3AEXPAVRouterInterface@@@Z PROC ; [thunk]:RakServer::SetRouterInterface`adjustor{4}', COMDAT
	sub	ecx, 4
	jmp	?SetRouterInterface@RakServer@@UAEXPAVRouterInterface@@@Z ; RakServer::SetRouterInterface
?SetRouterInterface@RakServer@@W3AEXPAVRouterInterface@@@Z ENDP ; [thunk]:RakServer::SetRouterInterface`adjustor{4}'
_TEXT	ENDS
; Function compile flags: /Odsp /RTCsu /ZI
;	COMDAT ?PushBackPacket@RakServer@@W3AEXPAUPacket@@_N@Z
_TEXT	SEGMENT
?PushBackPacket@RakServer@@W3AEXPAUPacket@@_N@Z PROC	; [thunk]:RakServer::PushBackPacket`adjustor{4}', COMDAT
	sub	ecx, 4
	jmp	?PushBackPacket@RakServer@@UAEXPAUPacket@@_N@Z ; RakServer::PushBackPacket
?PushBackPacket@RakServer@@W3AEXPAUPacket@@_N@Z ENDP	; [thunk]:RakServer::PushBackPacket`adjustor{4}'
_TEXT	ENDS
; Function compile flags: /Odsp /RTCsu /ZI
;	COMDAT ?DetachPlugin@RakServer@@W3AEXPAVPluginInterface@@@Z
_TEXT	SEGMENT
?DetachPlugin@RakServer@@W3AEXPAVPluginInterface@@@Z PROC ; [thunk]:RakServer::DetachPlugin`adjustor{4}', COMDAT
	sub	ecx, 4
	jmp	?DetachPlugin@RakServer@@UAEXPAVPluginInterface@@@Z ; RakServer::DetachPlugin
?DetachPlugin@RakServer@@W3AEXPAVPluginInterface@@@Z ENDP ; [thunk]:RakServer::DetachPlugin`adjustor{4}'
_TEXT	ENDS
; Function compile flags: /Odsp /RTCsu /ZI
;	COMDAT ?AttachPlugin@RakServer@@W3AEXPAVPluginInterface@@@Z
_TEXT	SEGMENT
?AttachPlugin@RakServer@@W3AEXPAVPluginInterface@@@Z PROC ; [thunk]:RakServer::AttachPlugin`adjustor{4}', COMDAT
	sub	ecx, 4
	jmp	?AttachPlugin@RakServer@@UAEXPAVPluginInterface@@@Z ; RakServer::AttachPlugin
?AttachPlugin@RakServer@@W3AEXPAVPluginInterface@@@Z ENDP ; [thunk]:RakServer::AttachPlugin`adjustor{4}'
_TEXT	ENDS
; Function compile flags: /Odsp /RTCsu /ZI
;	COMDAT ?GetDecompressionRatio@RakServer@@W3BEMXZ
_TEXT	SEGMENT
?GetDecompressionRatio@RakServer@@W3BEMXZ PROC		; [thunk]:RakServer::GetDecompressionRatio`adjustor{4}', COMDAT
	sub	ecx, 4
	jmp	?GetDecompressionRatio@RakServer@@UBEMXZ ; RakServer::GetDecompressionRatio
?GetDecompressionRatio@RakServer@@W3BEMXZ ENDP		; [thunk]:RakServer::GetDecompressionRatio`adjustor{4}'
_TEXT	ENDS
; Function compile flags: /Odsp /RTCsu /ZI
;	COMDAT ?GetCompressionRatio@RakServer@@W3BEMXZ
_TEXT	SEGMENT
?GetCompressionRatio@RakServer@@W3BEMXZ PROC		; [thunk]:RakServer::GetCompressionRatio`adjustor{4}', COMDAT
	sub	ecx, 4
	jmp	?GetCompressionRatio@RakServer@@UBEMXZ	; RakServer::GetCompressionRatio
?GetCompressionRatio@RakServer@@W3BEMXZ ENDP		; [thunk]:RakServer::GetCompressionRatio`adjustor{4}'
_TEXT	ENDS
; Function compile flags: /Odsp /RTCsu /ZI
;	COMDAT ?DeleteCompressionLayer@RakServer@@W3AE_N_N@Z
_TEXT	SEGMENT
?DeleteCompressionLayer@RakServer@@W3AE_N_N@Z PROC	; [thunk]:RakServer::DeleteCompressionLayer`adjustor{4}', COMDAT
	sub	ecx, 4
	jmp	?DeleteCompressionLayer@RakServer@@UAE_N_N@Z ; RakServer::DeleteCompressionLayer
?DeleteCompressionLayer@RakServer@@W3AE_N_N@Z ENDP	; [thunk]:RakServer::DeleteCompressionLayer`adjustor{4}'
_TEXT	ENDS
; Function compile flags: /Odsp /RTCsu /ZI
;	COMDAT ?GenerateCompressionLayer@RakServer@@W3AE_NQAI_N@Z
_TEXT	SEGMENT
?GenerateCompressionLayer@RakServer@@W3AE_NQAI_N@Z PROC	; [thunk]:RakServer::GenerateCompressionLayer`adjustor{4}', COMDAT
	sub	ecx, 4
	jmp	?GenerateCompressionLayer@RakServer@@UAE_NQAI_N@Z ; RakServer::GenerateCompressionLayer
?GenerateCompressionLayer@RakServer@@W3AE_NQAI_N@Z ENDP	; [thunk]:RakServer::GenerateCompressionLayer`adjustor{4}'
_TEXT	ENDS
; Function compile flags: /Odsp /RTCsu /ZI
;	COMDAT ?AdvertiseSystem@RakServer@@W3AEXPBDG0H@Z
_TEXT	SEGMENT
?AdvertiseSystem@RakServer@@W3AEXPBDG0H@Z PROC		; [thunk]:RakServer::AdvertiseSystem`adjustor{4}', COMDAT
	sub	ecx, 4
	jmp	?AdvertiseSystem@RakServer@@UAEXPBDG0H@Z ; RakServer::AdvertiseSystem
?AdvertiseSystem@RakServer@@W3AEXPBDG0H@Z ENDP		; [thunk]:RakServer::AdvertiseSystem`adjustor{4}'
_TEXT	ENDS
; Function compile flags: /Odsp /RTCsu /ZI
;	COMDAT ?GetLocalIP@RakServer@@W3AEPBDI@Z
_TEXT	SEGMENT
?GetLocalIP@RakServer@@W3AEPBDI@Z PROC			; [thunk]:RakServer::GetLocalIP`adjustor{4}', COMDAT
	sub	ecx, 4
	jmp	?GetLocalIP@RakServer@@UAEPBDI@Z	; RakServer::GetLocalIP
?GetLocalIP@RakServer@@W3AEPBDI@Z ENDP			; [thunk]:RakServer::GetLocalIP`adjustor{4}'
_TEXT	ENDS
; Function compile flags: /Odsp /RTCsu /ZI
;	COMDAT ?GetNumberOfAddresses@RakServer@@W3AEIXZ
_TEXT	SEGMENT
?GetNumberOfAddresses@RakServer@@W3AEIXZ PROC		; [thunk]:RakServer::GetNumberOfAddresses`adjustor{4}', COMDAT
	sub	ecx, 4
	jmp	?GetNumberOfAddresses@RakServer@@UAEIXZ	; RakServer::GetNumberOfAddresses
?GetNumberOfAddresses@RakServer@@W3AEIXZ ENDP		; [thunk]:RakServer::GetNumberOfAddresses`adjustor{4}'
_TEXT	ENDS
; Function compile flags: /Odsp /RTCsu /ZI
;	COMDAT ?GetMTUSize@RakServer@@W3BEHXZ
_TEXT	SEGMENT
?GetMTUSize@RakServer@@W3BEHXZ PROC			; [thunk]:RakServer::GetMTUSize`adjustor{4}', COMDAT
	sub	ecx, 4
	jmp	?GetMTUSize@RakServer@@UBEHXZ		; RakServer::GetMTUSize
?GetMTUSize@RakServer@@W3BEHXZ ENDP			; [thunk]:RakServer::GetMTUSize`adjustor{4}'
_TEXT	ENDS
; Function compile flags: /Odsp /RTCsu /ZI
;	COMDAT ?SetMTUSize@RakServer@@W3AE_NH@Z
_TEXT	SEGMENT
?SetMTUSize@RakServer@@W3AE_NH@Z PROC			; [thunk]:RakServer::SetMTUSize`adjustor{4}', COMDAT
	sub	ecx, 4
	jmp	?SetMTUSize@RakServer@@UAE_NH@Z		; RakServer::SetMTUSize
?SetMTUSize@RakServer@@W3AE_NH@Z ENDP			; [thunk]:RakServer::SetMTUSize`adjustor{4}'
_TEXT	ENDS
; Function compile flags: /Odsp /RTCsu /ZI
;	COMDAT ?SetTimeoutTime@RakServer@@W3AEXIUPlayerID@@@Z
_TEXT	SEGMENT
?SetTimeoutTime@RakServer@@W3AEXIUPlayerID@@@Z PROC	; [thunk]:RakServer::SetTimeoutTime`adjustor{4}', COMDAT
	sub	ecx, 4
	jmp	?SetTimeoutTime@RakServer@@UAEXIUPlayerID@@@Z ; RakServer::SetTimeoutTime
?SetTimeoutTime@RakServer@@W3AEXIUPlayerID@@@Z ENDP	; [thunk]:RakServer::SetTimeoutTime`adjustor{4}'
_TEXT	ENDS
; Function compile flags: /Odsp /RTCsu /ZI
;	COMDAT ?GetInternalID@RakServer@@W3BE?AUPlayerID@@XZ
_TEXT	SEGMENT
?GetInternalID@RakServer@@W3BE?AUPlayerID@@XZ PROC	; [thunk]:RakServer::GetInternalID`adjustor{4}', COMDAT
	sub	ecx, 4
	jmp	?GetInternalID@RakServer@@UBE?AUPlayerID@@XZ ; RakServer::GetInternalID
?GetInternalID@RakServer@@W3BE?AUPlayerID@@XZ ENDP	; [thunk]:RakServer::GetInternalID`adjustor{4}'
_TEXT	ENDS
; Function compile flags: /Odsp /RTCsu /ZI
;	COMDAT ?SetOfflinePingResponse@RakServer@@W3AEXPBDI@Z
_TEXT	SEGMENT
?SetOfflinePingResponse@RakServer@@W3AEXPBDI@Z PROC	; [thunk]:RakServer::SetOfflinePingResponse`adjustor{4}', COMDAT
	sub	ecx, 4
	jmp	?SetOfflinePingResponse@RakServer@@UAEXPBDI@Z ; RakServer::SetOfflinePingResponse
?SetOfflinePingResponse@RakServer@@W3AEXPBDI@Z ENDP	; [thunk]:RakServer::SetOfflinePingResponse`adjustor{4}'
_TEXT	ENDS
; Function compile flags: /Odsp /RTCsu /ZI
;	COMDAT ?GetAveragePing@RakServer@@W3AEHUPlayerID@@@Z
_TEXT	SEGMENT
?GetAveragePing@RakServer@@W3AEHUPlayerID@@@Z PROC	; [thunk]:RakServer::GetAveragePing`adjustor{4}', COMDAT
	sub	ecx, 4
	jmp	?GetAveragePing@RakServer@@UAEHUPlayerID@@@Z ; RakServer::GetAveragePing
?GetAveragePing@RakServer@@W3AEHUPlayerID@@@Z ENDP	; [thunk]:RakServer::GetAveragePing`adjustor{4}'
_TEXT	ENDS
; Function compile flags: /Odsp /RTCsu /ZI
;	COMDAT ?IsBanned@RakServer@@W3AE_NPBD@Z
_TEXT	SEGMENT
?IsBanned@RakServer@@W3AE_NPBD@Z PROC			; [thunk]:RakServer::IsBanned`adjustor{4}', COMDAT
	sub	ecx, 4
	jmp	?IsBanned@RakServer@@UAE_NPBD@Z		; RakServer::IsBanned
?IsBanned@RakServer@@W3AE_NPBD@Z ENDP			; [thunk]:RakServer::IsBanned`adjustor{4}'
_TEXT	ENDS
; Function compile flags: /Odsp /RTCsu /ZI
;	COMDAT ?ClearBanList@RakServer@@W3AEXXZ
_TEXT	SEGMENT
?ClearBanList@RakServer@@W3AEXXZ PROC			; [thunk]:RakServer::ClearBanList`adjustor{4}', COMDAT
	sub	ecx, 4
	jmp	?ClearBanList@RakServer@@UAEXXZ		; RakServer::ClearBanList
?ClearBanList@RakServer@@W3AEXXZ ENDP			; [thunk]:RakServer::ClearBanList`adjustor{4}'
_TEXT	ENDS
; Function compile flags: /Odsp /RTCsu /ZI
;	COMDAT ?RemoveFromBanList@RakServer@@W3AEXPBD@Z
_TEXT	SEGMENT
?RemoveFromBanList@RakServer@@W3AEXPBD@Z PROC		; [thunk]:RakServer::RemoveFromBanList`adjustor{4}', COMDAT
	sub	ecx, 4
	jmp	?RemoveFromBanList@RakServer@@UAEXPBD@Z	; RakServer::RemoveFromBanList
?RemoveFromBanList@RakServer@@W3AEXPBD@Z ENDP		; [thunk]:RakServer::RemoveFromBanList`adjustor{4}'
_TEXT	ENDS
; Function compile flags: /Odsp /RTCsu /ZI
;	COMDAT ?GetPlayerIDFromIndex@RakServer@@W3AE?AUPlayerID@@H@Z
_TEXT	SEGMENT
?GetPlayerIDFromIndex@RakServer@@W3AE?AUPlayerID@@H@Z PROC ; [thunk]:RakServer::GetPlayerIDFromIndex`adjustor{4}', COMDAT
	sub	ecx, 4
	jmp	?GetPlayerIDFromIndex@RakServer@@UAE?AUPlayerID@@H@Z ; RakServer::GetPlayerIDFromIndex
?GetPlayerIDFromIndex@RakServer@@W3AE?AUPlayerID@@H@Z ENDP ; [thunk]:RakServer::GetPlayerIDFromIndex`adjustor{4}'
_TEXT	ENDS
; Function compile flags: /Odsp /RTCsu /ZI
;	COMDAT ?GetIndexFromPlayerID@RakServer@@W3AEHUPlayerID@@@Z
_TEXT	SEGMENT
?GetIndexFromPlayerID@RakServer@@W3AEHUPlayerID@@@Z PROC ; [thunk]:RakServer::GetIndexFromPlayerID`adjustor{4}', COMDAT
	sub	ecx, 4
	jmp	?GetIndexFromPlayerID@RakServer@@UAEHUPlayerID@@@Z ; RakServer::GetIndexFromPlayerID
?GetIndexFromPlayerID@RakServer@@W3AEHUPlayerID@@@Z ENDP ; [thunk]:RakServer::GetIndexFromPlayerID`adjustor{4}'
_TEXT	ENDS
; Function compile flags: /Odsp /RTCsu /ZI
;	COMDAT ?RPC@RakServer@@W3AE_NPADPBDIW4PacketPriority@@W4PacketReliability@@DUPlayerID@@_N5UNetworkID@@PAVBitStream@RakNet@@@Z
_TEXT	SEGMENT
?RPC@RakServer@@W3AE_NPADPBDIW4PacketPriority@@W4PacketReliability@@DUPlayerID@@_N5UNetworkID@@PAVBitStream@RakNet@@@Z PROC ; [thunk]:RakServer::RPC`adjustor{4}', COMDAT
	sub	ecx, 4
	jmp	?RPC@RakServer@@UAE_NPADPBDIW4PacketPriority@@W4PacketReliability@@DUPlayerID@@_N5UNetworkID@@PAVBitStream@RakNet@@@Z ; RakServer::RPC
?RPC@RakServer@@W3AE_NPADPBDIW4PacketPriority@@W4PacketReliability@@DUPlayerID@@_N5UNetworkID@@PAVBitStream@RakNet@@@Z ENDP ; [thunk]:RakServer::RPC`adjustor{4}'
_TEXT	ENDS
; Function compile flags: /Odsp /RTCsu /ZI
;	COMDAT ?RPC@RakServer@@W3AE_NPADPAVBitStream@RakNet@@W4PacketPriority@@W4PacketReliability@@DUPlayerID@@_N5UNetworkID@@1@Z
_TEXT	SEGMENT
?RPC@RakServer@@W3AE_NPADPAVBitStream@RakNet@@W4PacketPriority@@W4PacketReliability@@DUPlayerID@@_N5UNetworkID@@1@Z PROC ; [thunk]:RakServer::RPC`adjustor{4}', COMDAT
	sub	ecx, 4
	jmp	?RPC@RakServer@@UAE_NPADPAVBitStream@RakNet@@W4PacketPriority@@W4PacketReliability@@DUPlayerID@@_N5UNetworkID@@1@Z ; RakServer::RPC
?RPC@RakServer@@W3AE_NPADPAVBitStream@RakNet@@W4PacketPriority@@W4PacketReliability@@DUPlayerID@@_N5UNetworkID@@1@Z ENDP ; [thunk]:RakServer::RPC`adjustor{4}'
_TEXT	ENDS
; Function compile flags: /Odsp /RTCsu /ZI
;	COMDAT ?UnregisterAsRemoteProcedureCall@RakServer@@W3AEXPAD@Z
_TEXT	SEGMENT
?UnregisterAsRemoteProcedureCall@RakServer@@W3AEXPAD@Z PROC ; [thunk]:RakServer::UnregisterAsRemoteProcedureCall`adjustor{4}', COMDAT
	sub	ecx, 4
	jmp	?UnregisterAsRemoteProcedureCall@RakServer@@UAEXPAD@Z ; RakServer::UnregisterAsRemoteProcedureCall
?UnregisterAsRemoteProcedureCall@RakServer@@W3AEXPAD@Z ENDP ; [thunk]:RakServer::UnregisterAsRemoteProcedureCall`adjustor{4}'
_TEXT	ENDS
; Function compile flags: /Odsp /RTCsu /ZI
;	COMDAT ?RegisterClassMemberRPC@RakServer@@W3AEXPADPAX@Z
_TEXT	SEGMENT
?RegisterClassMemberRPC@RakServer@@W3AEXPADPAX@Z PROC	; [thunk]:RakServer::RegisterClassMemberRPC`adjustor{4}', COMDAT
	sub	ecx, 4
	jmp	?RegisterClassMemberRPC@RakServer@@UAEXPADPAX@Z ; RakServer::RegisterClassMemberRPC
?RegisterClassMemberRPC@RakServer@@W3AEXPADPAX@Z ENDP	; [thunk]:RakServer::RegisterClassMemberRPC`adjustor{4}'
_TEXT	ENDS
; Function compile flags: /Odsp /RTCsu /ZI
;	COMDAT ?RegisterAsRemoteProcedureCall@RakServer@@W3AEXPADP6AXPAURPCParameters@@@Z@Z
_TEXT	SEGMENT
?RegisterAsRemoteProcedureCall@RakServer@@W3AEXPADP6AXPAURPCParameters@@@Z@Z PROC ; [thunk]:RakServer::RegisterAsRemoteProcedureCall`adjustor{4}', COMDAT
	sub	ecx, 4
	jmp	?RegisterAsRemoteProcedureCall@RakServer@@UAEXPADP6AXPAURPCParameters@@@Z@Z ; RakServer::RegisterAsRemoteProcedureCall
?RegisterAsRemoteProcedureCall@RakServer@@W3AEXPADP6AXPAURPCParameters@@@Z@Z ENDP ; [thunk]:RakServer::RegisterAsRemoteProcedureCall`adjustor{4}'
_TEXT	ENDS
; Function compile flags: /Odsp /RTCsu /ZI
;	COMDAT ?DeallocatePacket@RakServer@@W3AEXPAUPacket@@@Z
_TEXT	SEGMENT
?DeallocatePacket@RakServer@@W3AEXPAUPacket@@@Z PROC	; [thunk]:RakServer::DeallocatePacket`adjustor{4}', COMDAT
	sub	ecx, 4
	jmp	?DeallocatePacket@RakServer@@UAEXPAUPacket@@@Z ; RakServer::DeallocatePacket
?DeallocatePacket@RakServer@@W3AEXPAUPacket@@@Z ENDP	; [thunk]:RakServer::DeallocatePacket`adjustor{4}'
_TEXT	ENDS
; Function compile flags: /Odsp /RTCsu /ZI
;	COMDAT ?Receive@RakServer@@W3AEPAUPacket@@XZ
_TEXT	SEGMENT
?Receive@RakServer@@W3AEPAUPacket@@XZ PROC		; [thunk]:RakServer::Receive`adjustor{4}', COMDAT
	sub	ecx, 4
	jmp	?Receive@RakServer@@UAEPAUPacket@@XZ	; RakServer::Receive
?Receive@RakServer@@W3AEPAUPacket@@XZ ENDP		; [thunk]:RakServer::Receive`adjustor{4}'
_TEXT	ENDS
; Function compile flags: /Odsp /RTCsu /ZI
;	COMDAT ?Send@RakServer@@W3AE_NPBDHW4PacketPriority@@W4PacketReliability@@DUPlayerID@@_N@Z
_TEXT	SEGMENT
?Send@RakServer@@W3AE_NPBDHW4PacketPriority@@W4PacketReliability@@DUPlayerID@@_N@Z PROC ; [thunk]:RakServer::Send`adjustor{4}', COMDAT
	sub	ecx, 4
	jmp	?Send@RakServer@@UAE_NPBDHW4PacketPriority@@W4PacketReliability@@DUPlayerID@@_N@Z ; RakServer::Send
?Send@RakServer@@W3AE_NPBDHW4PacketPriority@@W4PacketReliability@@DUPlayerID@@_N@Z ENDP ; [thunk]:RakServer::Send`adjustor{4}'
_TEXT	ENDS
; Function compile flags: /Odsp /RTCsu /ZI
;	COMDAT ?Send@RakServer@@W3AE_NPAVBitStream@RakNet@@W4PacketPriority@@W4PacketReliability@@DUPlayerID@@_N@Z
_TEXT	SEGMENT
?Send@RakServer@@W3AE_NPAVBitStream@RakNet@@W4PacketPriority@@W4PacketReliability@@DUPlayerID@@_N@Z PROC ; [thunk]:RakServer::Send`adjustor{4}', COMDAT
	sub	ecx, 4
	jmp	?Send@RakServer@@UAE_NPAVBitStream@RakNet@@W4PacketPriority@@W4PacketReliability@@DUPlayerID@@_N@Z ; RakServer::Send
?Send@RakServer@@W3AE_NPAVBitStream@RakNet@@W4PacketPriority@@W4PacketReliability@@DUPlayerID@@_N@Z ENDP ; [thunk]:RakServer::Send`adjustor{4}'
_TEXT	ENDS
; Function compile flags: /Odsp /RTCsu /ZI
;	COMDAT ?IsActive@RakServer@@W3BE_NXZ
_TEXT	SEGMENT
?IsActive@RakServer@@W3BE_NXZ PROC			; [thunk]:RakServer::IsActive`adjustor{4}', COMDAT
	sub	ecx, 4
	jmp	?IsActive@RakServer@@UBE_NXZ		; RakServer::IsActive
?IsActive@RakServer@@W3BE_NXZ ENDP			; [thunk]:RakServer::IsActive`adjustor{4}'
_TEXT	ENDS
; Function compile flags: /Odsp /RTCsu /ZI
;	COMDAT ?Disconnect@RakServer@@W3AEXIE@Z
_TEXT	SEGMENT
?Disconnect@RakServer@@W3AEXIE@Z PROC			; [thunk]:RakServer::Disconnect`adjustor{4}', COMDAT
	sub	ecx, 4
	jmp	?Disconnect@RakServer@@UAEXIE@Z		; RakServer::Disconnect
?Disconnect@RakServer@@W3AEXIE@Z ENDP			; [thunk]:RakServer::Disconnect`adjustor{4}'
_TEXT	ENDS
; Function compile flags: /Odsp /RTCsu /ZI
;	COMDAT ?DisableSecurity@RakServer@@W3AEXXZ
_TEXT	SEGMENT
?DisableSecurity@RakServer@@W3AEXXZ PROC		; [thunk]:RakServer::DisableSecurity`adjustor{4}', COMDAT
	sub	ecx, 4
	jmp	?DisableSecurity@RakServer@@UAEXXZ	; RakServer::DisableSecurity
?DisableSecurity@RakServer@@W3AEXXZ ENDP		; [thunk]:RakServer::DisableSecurity`adjustor{4}'
_TEXT	ENDS
; Function compile flags: /Odsp /RTCsu /ZI
;	COMDAT ??_ERakServer@@W3AEPAXI@Z
_TEXT	SEGMENT
??_ERakServer@@W3AEPAXI@Z PROC				; [thunk]:RakServer::`vector deleting destructor', COMDAT
	sub	ecx, 4
	jmp	??_ERakServer@@UAEPAXI@Z
??_ERakServer@@W3AEPAXI@Z ENDP				; [thunk]:RakServer::`vector deleting destructor'
_TEXT	ENDS
; Function compile flags: /Odtp /RTCsu /ZI
; File z:\sampsrc\02xu1\raknet\bitstream.h
;	COMDAT ??$Write@E@BitStream@RakNet@@QAEXE@Z
_TEXT	SEGMENT
_this$ = -8						; size = 4
_var$ = 8						; size = 1
??$Write@E@BitStream@RakNet@@QAEXE@Z PROC		; RakNet::BitStream::Write<unsigned char>, COMDAT
; _this$ = ecx

; 729  : 	{

	push	ebp
	mov	ebp, esp
	sub	esp, 204				; 000000ccH
	push	ebx
	push	esi
	push	edi
	push	ecx
	lea	edi, DWORD PTR [ebp-204]
	mov	ecx, 51					; 00000033H
	mov	eax, -858993460				; ccccccccH
	rep stosd
	pop	ecx
	mov	DWORD PTR _this$[ebp], ecx

; 730  : #ifdef _MSC_VER
; 731  : #pragma warning(disable:4127)   // conditional expression is constant
; 732  : #endif
; 733  : 		if (sizeof(var)==1)

	mov	eax, 1
	test	eax, eax
	je	SHORT $LN2@Write

; 734  : 			WriteBits( ( unsigned char* ) & var, sizeof( templateType ) * 8, true );

	push	1
	push	8
	lea	eax, DWORD PTR _var$[ebp]
	push	eax
	mov	ecx, DWORD PTR _this$[ebp]
	call	?WriteBits@BitStream@RakNet@@QAEXPBEH_N@Z ; RakNet::BitStream::WriteBits

; 735  : 		else

	jmp	SHORT $LN3@Write
$LN2@Write:

; 736  : 		{
; 737  : #ifndef __BITSTREAM_NATIVE_END
; 738  : 			if (DoEndianSwap())
; 739  : 			{
; 740  : 				unsigned char output[sizeof(templateType)];
; 741  : 				ReverseBytes((unsigned char*)&var, output, sizeof(templateType));
; 742  : 				WriteBits( ( unsigned char* ) output, sizeof(templateType) * 8, true );
; 743  : 			}
; 744  : 			else
; 745  : #endif
; 746  : 				WriteBits( ( unsigned char* ) & var, sizeof(templateType) * 8, true );

	push	1
	push	8
	lea	eax, DWORD PTR _var$[ebp]
	push	eax
	mov	ecx, DWORD PTR _this$[ebp]
	call	?WriteBits@BitStream@RakNet@@QAEXPBEH_N@Z ; RakNet::BitStream::WriteBits
$LN3@Write:

; 747  : 		}
; 748  : 	}

	pop	edi
	pop	esi
	pop	ebx
	add	esp, 204				; 000000ccH
	cmp	ebp, esp
	call	__RTC_CheckEsp
	mov	esp, ebp
	pop	ebp
	ret	4
??$Write@E@BitStream@RakNet@@QAEXE@Z ENDP		; RakNet::BitStream::Write<unsigned char>
_TEXT	ENDS
; Function compile flags: /Odtp /RTCsu /ZI
;	COMDAT ??_GRakServer@@UAEPAXI@Z
_TEXT	SEGMENT
_this$ = -8						; size = 4
___flags$ = 8						; size = 4
??_GRakServer@@UAEPAXI@Z PROC				; RakServer::`scalar deleting destructor', COMDAT
; _this$ = ecx
	push	ebp
	mov	ebp, esp
	sub	esp, 204				; 000000ccH
	push	ebx
	push	esi
	push	edi
	push	ecx
	lea	edi, DWORD PTR [ebp-204]
	mov	ecx, 51					; 00000033H
	mov	eax, -858993460				; ccccccccH
	rep stosd
	pop	ecx
	mov	DWORD PTR _this$[ebp], ecx
	mov	ecx, DWORD PTR _this$[ebp]
	call	??1RakServer@@UAE@XZ			; RakServer::~RakServer
	mov	eax, DWORD PTR ___flags$[ebp]
	and	eax, 1
	je	SHORT $LN1@scalar
	mov	eax, DWORD PTR _this$[ebp]
	push	eax
	call	??3@YAXPAX@Z				; operator delete
	add	esp, 4
$LN1@scalar:
	mov	eax, DWORD PTR _this$[ebp]
	pop	edi
	pop	esi
	pop	ebx
	add	esp, 204				; 000000ccH
	cmp	ebp, esp
	call	__RTC_CheckEsp
	mov	esp, ebp
	pop	ebp
	ret	4
??_GRakServer@@UAEPAXI@Z ENDP				; RakServer::`scalar deleting destructor'
_TEXT	ENDS
; Function compile flags: /Odtp /RTCsu /ZI
; File z:\sampsrc\02xu1\raknet\rakserver.cpp
;	COMDAT ?IsNetworkSimulatorActive@RakServer@@UAE_NXZ
_TEXT	SEGMENT
_this$ = -8						; size = 4
?IsNetworkSimulatorActive@RakServer@@UAE_NXZ PROC	; RakServer::IsNetworkSimulatorActive, COMDAT
; _this$ = ecx

; 590  : {

	push	ebp
	mov	ebp, esp
	sub	esp, 204				; 000000ccH
	push	ebx
	push	esi
	push	edi
	push	ecx
	lea	edi, DWORD PTR [ebp-204]
	mov	ecx, 51					; 00000033H
	mov	eax, -858993460				; ccccccccH
	rep stosd
	pop	ecx
	mov	DWORD PTR _this$[ebp], ecx

; 591  : 	return RakPeer::IsNetworkSimulatorActive();

	mov	ecx, DWORD PTR _this$[ebp]
	add	ecx, 4
	call	?IsNetworkSimulatorActive@RakPeer@@UAE_NXZ ; RakPeer::IsNetworkSimulatorActive

; 592  : }

	pop	edi
	pop	esi
	pop	ebx
	add	esp, 204				; 000000ccH
	cmp	ebp, esp
	call	__RTC_CheckEsp
	mov	esp, ebp
	pop	ebp
	ret	0
?IsNetworkSimulatorActive@RakServer@@UAE_NXZ ENDP	; RakServer::IsNetworkSimulatorActive
_TEXT	ENDS
; Function compile flags: /Odtp /RTCsu /ZI
; File z:\sampsrc\02xu1\raknet\rakserver.cpp
;	COMDAT ?ApplyNetworkSimulator@RakServer@@UAEXNGG@Z
_TEXT	SEGMENT
_this$ = -8						; size = 4
_maxSendBPS$ = 8					; size = 8
_minExtraPing$ = 16					; size = 2
_extraPingVariance$ = 20				; size = 2
?ApplyNetworkSimulator@RakServer@@UAEXNGG@Z PROC	; RakServer::ApplyNetworkSimulator, COMDAT
; _this$ = ecx

; 585  : {

	push	ebp
	mov	ebp, esp
	sub	esp, 204				; 000000ccH
	push	ebx
	push	esi
	push	edi
	push	ecx
	lea	edi, DWORD PTR [ebp-204]
	mov	ecx, 51					; 00000033H
	mov	eax, -858993460				; ccccccccH
	rep stosd
	pop	ecx
	mov	DWORD PTR _this$[ebp], ecx

; 586  : 	RakPeer::ApplyNetworkSimulator( maxSendBPS, minExtraPing, extraPingVariance );

	movzx	eax, WORD PTR _extraPingVariance$[ebp]
	push	eax
	movzx	ecx, WORD PTR _minExtraPing$[ebp]
	push	ecx
	sub	esp, 8
	movsd	xmm0, QWORD PTR _maxSendBPS$[ebp]
	movsd	QWORD PTR [esp], xmm0
	mov	ecx, DWORD PTR _this$[ebp]
	add	ecx, 4
	call	?ApplyNetworkSimulator@RakPeer@@UAEXNGG@Z ; RakPeer::ApplyNetworkSimulator

; 587  : }

	pop	edi
	pop	esi
	pop	ebx
	add	esp, 204				; 000000ccH
	cmp	ebp, esp
	call	__RTC_CheckEsp
	mov	esp, ebp
	pop	ebp
	ret	16					; 00000010H
?ApplyNetworkSimulator@RakServer@@UAEXNGG@Z ENDP	; RakServer::ApplyNetworkSimulator
_TEXT	ENDS
; Function compile flags: /Odtp /RTCsu /ZI
; File z:\sampsrc\02xu1\raknet\rakserver.cpp
;	COMDAT ?GetStatistics@RakServer@@UAEQAURakNetStatisticsStruct@@UPlayerID@@@Z
_TEXT	SEGMENT
_this$ = -8						; size = 4
_playerId$ = 8						; size = 6
?GetStatistics@RakServer@@UAEQAURakNetStatisticsStruct@@UPlayerID@@@Z PROC ; RakServer::GetStatistics, COMDAT
; _this$ = ecx

; 580  : {

	push	ebp
	mov	ebp, esp
	sub	esp, 204				; 000000ccH
	push	ebx
	push	esi
	push	edi
	push	ecx
	lea	edi, DWORD PTR [ebp-204]
	mov	ecx, 51					; 00000033H
	mov	eax, -858993460				; ccccccccH
	rep stosd
	pop	ecx
	mov	DWORD PTR _this$[ebp], ecx

; 581  : 	return RakPeer::GetStatistics( playerId );

	sub	esp, 8
	mov	eax, esp
	mov	ecx, DWORD PTR _playerId$[ebp]
	mov	DWORD PTR [eax], ecx
	mov	dx, WORD PTR _playerId$[ebp+4]
	mov	WORD PTR [eax+4], dx
	mov	ecx, DWORD PTR _this$[ebp]
	add	ecx, 4
	call	?GetStatistics@RakPeer@@UAEQAURakNetStatisticsStruct@@UPlayerID@@@Z ; RakPeer::GetStatistics

; 582  : }

	pop	edi
	pop	esi
	pop	ebx
	add	esp, 204				; 000000ccH
	cmp	ebp, esp
	call	__RTC_CheckEsp
	mov	esp, ebp
	pop	ebp
	ret	8
?GetStatistics@RakServer@@UAEQAURakNetStatisticsStruct@@UPlayerID@@@Z ENDP ; RakServer::GetStatistics
_TEXT	ENDS
; Function compile flags: /Odtp /RTCsu /ZI
; File z:\sampsrc\02xu1\raknet\rakserver.cpp
;	COMDAT ?AdvertiseSystem@RakServer@@UAEXPBDG0H@Z
_TEXT	SEGMENT
_this$ = -8						; size = 4
_host$ = 8						; size = 4
_remotePort$ = 12					; size = 2
_data$ = 16						; size = 4
_dataLength$ = 20					; size = 4
?AdvertiseSystem@RakServer@@UAEXPBDG0H@Z PROC		; RakServer::AdvertiseSystem, COMDAT
; _this$ = ecx

; 575  : {

	push	ebp
	mov	ebp, esp
	sub	esp, 204				; 000000ccH
	push	ebx
	push	esi
	push	edi
	push	ecx
	lea	edi, DWORD PTR [ebp-204]
	mov	ecx, 51					; 00000033H
	mov	eax, -858993460				; ccccccccH
	rep stosd
	pop	ecx
	mov	DWORD PTR _this$[ebp], ecx

; 576  : 	RakPeer::AdvertiseSystem( host, remotePort, data, dataLength );

	mov	eax, DWORD PTR _dataLength$[ebp]
	push	eax
	mov	ecx, DWORD PTR _data$[ebp]
	push	ecx
	movzx	edx, WORD PTR _remotePort$[ebp]
	push	edx
	mov	eax, DWORD PTR _host$[ebp]
	push	eax
	mov	ecx, DWORD PTR _this$[ebp]
	add	ecx, 4
	call	?AdvertiseSystem@RakPeer@@UAEXPBDG0H@Z	; RakPeer::AdvertiseSystem

; 577  : }

	pop	edi
	pop	esi
	pop	ebx
	add	esp, 204				; 000000ccH
	cmp	ebp, esp
	call	__RTC_CheckEsp
	mov	esp, ebp
	pop	ebp
	ret	16					; 00000010H
?AdvertiseSystem@RakServer@@UAEXPBDG0H@Z ENDP		; RakServer::AdvertiseSystem
_TEXT	ENDS
; Function compile flags: /Odtp /RTCsu /ZI
; File z:\sampsrc\02xu1\raknet\rakserver.cpp
;	COMDAT ?GetMTUSize@RakServer@@UBEHXZ
_TEXT	SEGMENT
_this$ = -8						; size = 4
?GetMTUSize@RakServer@@UBEHXZ PROC			; RakServer::GetMTUSize, COMDAT
; _this$ = ecx

; 570  : {

	push	ebp
	mov	ebp, esp
	sub	esp, 204				; 000000ccH
	push	ebx
	push	esi
	push	edi
	push	ecx
	lea	edi, DWORD PTR [ebp-204]
	mov	ecx, 51					; 00000033H
	mov	eax, -858993460				; ccccccccH
	rep stosd
	pop	ecx
	mov	DWORD PTR _this$[ebp], ecx

; 571  : 	return RakPeer::GetMTUSize();

	mov	ecx, DWORD PTR _this$[ebp]
	add	ecx, 4
	call	?GetMTUSize@RakPeer@@UBEHXZ		; RakPeer::GetMTUSize

; 572  : }

	pop	edi
	pop	esi
	pop	ebx
	add	esp, 204				; 000000ccH
	cmp	ebp, esp
	call	__RTC_CheckEsp
	mov	esp, ebp
	pop	ebp
	ret	0
?GetMTUSize@RakServer@@UBEHXZ ENDP			; RakServer::GetMTUSize
_TEXT	ENDS
; Function compile flags: /Odtp /RTCsu /ZI
; File z:\sampsrc\02xu1\raknet\rakserver.cpp
;	COMDAT ?SetMTUSize@RakServer@@UAE_NH@Z
_TEXT	SEGMENT
_this$ = -8						; size = 4
_size$ = 8						; size = 4
?SetMTUSize@RakServer@@UAE_NH@Z PROC			; RakServer::SetMTUSize, COMDAT
; _this$ = ecx

; 565  : {

	push	ebp
	mov	ebp, esp
	sub	esp, 204				; 000000ccH
	push	ebx
	push	esi
	push	edi
	push	ecx
	lea	edi, DWORD PTR [ebp-204]
	mov	ecx, 51					; 00000033H
	mov	eax, -858993460				; ccccccccH
	rep stosd
	pop	ecx
	mov	DWORD PTR _this$[ebp], ecx

; 566  : 	return RakPeer::SetMTUSize( size );

	mov	eax, DWORD PTR _size$[ebp]
	push	eax
	mov	ecx, DWORD PTR _this$[ebp]
	add	ecx, 4
	call	?SetMTUSize@RakPeer@@UAE_NH@Z		; RakPeer::SetMTUSize

; 567  : }

	pop	edi
	pop	esi
	pop	ebx
	add	esp, 204				; 000000ccH
	cmp	ebp, esp
	call	__RTC_CheckEsp
	mov	esp, ebp
	pop	ebp
	ret	4
?SetMTUSize@RakServer@@UAE_NH@Z ENDP			; RakServer::SetMTUSize
_TEXT	ENDS
; Function compile flags: /Odtp /RTCsu /ZI
; File z:\sampsrc\02xu1\raknet\rakserver.cpp
;	COMDAT ?SetTimeoutTime@RakServer@@UAEXIUPlayerID@@@Z
_TEXT	SEGMENT
_this$ = -8						; size = 4
_timeMS$ = 8						; size = 4
_target$ = 12						; size = 6
?SetTimeoutTime@RakServer@@UAEXIUPlayerID@@@Z PROC	; RakServer::SetTimeoutTime, COMDAT
; _this$ = ecx

; 560  : {

	push	ebp
	mov	ebp, esp
	sub	esp, 204				; 000000ccH
	push	ebx
	push	esi
	push	edi
	push	ecx
	lea	edi, DWORD PTR [ebp-204]
	mov	ecx, 51					; 00000033H
	mov	eax, -858993460				; ccccccccH
	rep stosd
	pop	ecx
	mov	DWORD PTR _this$[ebp], ecx

; 561  : 	RakPeer::SetTimeoutTime(timeMS, target);

	sub	esp, 8
	mov	eax, esp
	mov	ecx, DWORD PTR _target$[ebp]
	mov	DWORD PTR [eax], ecx
	mov	dx, WORD PTR _target$[ebp+4]
	mov	WORD PTR [eax+4], dx
	mov	eax, DWORD PTR _timeMS$[ebp]
	push	eax
	mov	ecx, DWORD PTR _this$[ebp]
	add	ecx, 4
	call	?SetTimeoutTime@RakPeer@@UAEXIUPlayerID@@@Z ; RakPeer::SetTimeoutTime

; 562  : }

	pop	edi
	pop	esi
	pop	ebx
	add	esp, 204				; 000000ccH
	cmp	ebp, esp
	call	__RTC_CheckEsp
	mov	esp, ebp
	pop	ebp
	ret	12					; 0000000cH
?SetTimeoutTime@RakServer@@UAEXIUPlayerID@@@Z ENDP	; RakServer::SetTimeoutTime
_TEXT	ENDS
; Function compile flags: /Odtp /RTCsu /ZI
; File z:\sampsrc\02xu1\raknet\rakserver.cpp
;	COMDAT ?IsActivePlayerID@RakServer@@UAE_NUPlayerID@@@Z
_TEXT	SEGMENT
tv74 = -208						; size = 4
_this$ = -8						; size = 4
_playerId$ = 8						; size = 6
?IsActivePlayerID@RakServer@@UAE_NUPlayerID@@@Z PROC	; RakServer::IsActivePlayerID, COMDAT
; _this$ = ecx

; 555  : {

	push	ebp
	mov	ebp, esp
	sub	esp, 208				; 000000d0H
	push	ebx
	push	esi
	push	edi
	push	ecx
	lea	edi, DWORD PTR [ebp-208]
	mov	ecx, 52					; 00000034H
	mov	eax, -858993460				; ccccccccH
	rep stosd
	pop	ecx
	mov	DWORD PTR _this$[ebp], ecx

; 556  : 	return RakPeer::GetRemoteSystemFromPlayerID( playerId, false, true ) != 0;

	push	1
	push	0
	sub	esp, 8
	mov	eax, esp
	mov	ecx, DWORD PTR _playerId$[ebp]
	mov	DWORD PTR [eax], ecx
	mov	dx, WORD PTR _playerId$[ebp+4]
	mov	WORD PTR [eax+4], dx
	mov	ecx, DWORD PTR _this$[ebp]
	add	ecx, 4
	call	?GetRemoteSystemFromPlayerID@RakPeer@@IBEPAURemoteSystemStruct@1@UPlayerID@@_N1@Z ; RakPeer::GetRemoteSystemFromPlayerID
	test	eax, eax
	je	SHORT $LN3@IsActivePl
	mov	DWORD PTR tv74[ebp], 1
	jmp	SHORT $LN4@IsActivePl
$LN3@IsActivePl:
	mov	DWORD PTR tv74[ebp], 0
$LN4@IsActivePl:
	mov	al, BYTE PTR tv74[ebp]

; 557  : }

	pop	edi
	pop	esi
	pop	ebx
	add	esp, 208				; 000000d0H
	cmp	ebp, esp
	call	__RTC_CheckEsp
	mov	esp, ebp
	pop	ebp
	ret	8
?IsActivePlayerID@RakServer@@UAE_NUPlayerID@@@Z ENDP	; RakServer::IsActivePlayerID
_TEXT	ENDS
; Function compile flags: /Odtp /RTCsu /ZI
; File z:\sampsrc\02xu1\raknet\rakserver.cpp
;	COMDAT ?IsBanned@RakServer@@UAE_NPBD@Z
_TEXT	SEGMENT
_this$ = -8						; size = 4
_IP$ = 8						; size = 4
?IsBanned@RakServer@@UAE_NPBD@Z PROC			; RakServer::IsBanned, COMDAT
; _this$ = ecx

; 550  : {

	push	ebp
	mov	ebp, esp
	sub	esp, 204				; 000000ccH
	push	ebx
	push	esi
	push	edi
	push	ecx
	lea	edi, DWORD PTR [ebp-204]
	mov	ecx, 51					; 00000033H
	mov	eax, -858993460				; ccccccccH
	rep stosd
	pop	ecx
	mov	DWORD PTR _this$[ebp], ecx

; 551  : 	return RakPeer::IsBanned( IP );

	mov	eax, DWORD PTR _IP$[ebp]
	push	eax
	mov	ecx, DWORD PTR _this$[ebp]
	add	ecx, 4
	call	?IsBanned@RakPeer@@UAE_NPBD@Z		; RakPeer::IsBanned

; 552  : }

	pop	edi
	pop	esi
	pop	ebx
	add	esp, 204				; 000000ccH
	cmp	ebp, esp
	call	__RTC_CheckEsp
	mov	esp, ebp
	pop	ebp
	ret	4
?IsBanned@RakServer@@UAE_NPBD@Z ENDP			; RakServer::IsBanned
_TEXT	ENDS
; Function compile flags: /Odtp /RTCsu /ZI
; File z:\sampsrc\02xu1\raknet\rakserver.cpp
;	COMDAT ?ClearBanList@RakServer@@UAEXXZ
_TEXT	SEGMENT
_this$ = -8						; size = 4
?ClearBanList@RakServer@@UAEXXZ PROC			; RakServer::ClearBanList, COMDAT
; _this$ = ecx

; 545  : {

	push	ebp
	mov	ebp, esp
	sub	esp, 204				; 000000ccH
	push	ebx
	push	esi
	push	edi
	push	ecx
	lea	edi, DWORD PTR [ebp-204]
	mov	ecx, 51					; 00000033H
	mov	eax, -858993460				; ccccccccH
	rep stosd
	pop	ecx
	mov	DWORD PTR _this$[ebp], ecx

; 546  : 	RakPeer::ClearBanList();

	mov	ecx, DWORD PTR _this$[ebp]
	add	ecx, 4
	call	?ClearBanList@RakPeer@@UAEXXZ		; RakPeer::ClearBanList

; 547  : }

	pop	edi
	pop	esi
	pop	ebx
	add	esp, 204				; 000000ccH
	cmp	ebp, esp
	call	__RTC_CheckEsp
	mov	esp, ebp
	pop	ebp
	ret	0
?ClearBanList@RakServer@@UAEXXZ ENDP			; RakServer::ClearBanList
_TEXT	ENDS
; Function compile flags: /Odtp /RTCsu /ZI
; File z:\sampsrc\02xu1\raknet\rakserver.cpp
;	COMDAT ?RemoveFromBanList@RakServer@@UAEXPBD@Z
_TEXT	SEGMENT
_this$ = -8						; size = 4
_IP$ = 8						; size = 4
?RemoveFromBanList@RakServer@@UAEXPBD@Z PROC		; RakServer::RemoveFromBanList, COMDAT
; _this$ = ecx

; 540  : {

	push	ebp
	mov	ebp, esp
	sub	esp, 204				; 000000ccH
	push	ebx
	push	esi
	push	edi
	push	ecx
	lea	edi, DWORD PTR [ebp-204]
	mov	ecx, 51					; 00000033H
	mov	eax, -858993460				; ccccccccH
	rep stosd
	pop	ecx
	mov	DWORD PTR _this$[ebp], ecx

; 541  : 	RakPeer::RemoveFromBanList( IP );

	mov	eax, DWORD PTR _IP$[ebp]
	push	eax
	mov	ecx, DWORD PTR _this$[ebp]
	add	ecx, 4
	call	?RemoveFromBanList@RakPeer@@UAEXPBD@Z	; RakPeer::RemoveFromBanList

; 542  : }

	pop	edi
	pop	esi
	pop	ebx
	add	esp, 204				; 000000ccH
	cmp	ebp, esp
	call	__RTC_CheckEsp
	mov	esp, ebp
	pop	ebp
	ret	4
?RemoveFromBanList@RakServer@@UAEXPBD@Z ENDP		; RakServer::RemoveFromBanList
_TEXT	ENDS
; Function compile flags: /Odtp /RTCsu /ZI
; File z:\sampsrc\02xu1\raknet\rakserver.cpp
;	COMDAT ?AddToBanList@RakServer@@UAEXPBD@Z
_TEXT	SEGMENT
_this$ = -8						; size = 4
_IP$ = 8						; size = 4
?AddToBanList@RakServer@@UAEXPBD@Z PROC			; RakServer::AddToBanList, COMDAT
; _this$ = ecx

; 535  : {

	push	ebp
	mov	ebp, esp
	sub	esp, 204				; 000000ccH
	push	ebx
	push	esi
	push	edi
	push	ecx
	lea	edi, DWORD PTR [ebp-204]
	mov	ecx, 51					; 00000033H
	mov	eax, -858993460				; ccccccccH
	rep stosd
	pop	ecx
	mov	DWORD PTR _this$[ebp], ecx

; 536  : 	RakPeer::AddToBanList( IP );

	push	0
	mov	eax, DWORD PTR _IP$[ebp]
	push	eax
	mov	ecx, DWORD PTR _this$[ebp]
	add	ecx, 4
	call	?AddToBanList@RakPeer@@UAEXPBDI@Z	; RakPeer::AddToBanList

; 537  : }

	pop	edi
	pop	esi
	pop	ebx
	add	esp, 204				; 000000ccH
	cmp	ebp, esp
	call	__RTC_CheckEsp
	mov	esp, ebp
	pop	ebp
	ret	4
?AddToBanList@RakServer@@UAEXPBD@Z ENDP			; RakServer::AddToBanList
_TEXT	ENDS
; Function compile flags: /Odtp /RTCsu /ZI
; File z:\sampsrc\02xu1\raknet\rakserver.cpp
;	COMDAT ?GetPlayerIDFromIndex@RakServer@@UAE?AUPlayerID@@H@Z
_TEXT	SEGMENT
_this$ = -8						; size = 4
___$ReturnUdt$ = 8					; size = 4
_index$ = 12						; size = 4
?GetPlayerIDFromIndex@RakServer@@UAE?AUPlayerID@@H@Z PROC ; RakServer::GetPlayerIDFromIndex, COMDAT
; _this$ = ecx

; 530  : {

	push	ebp
	mov	ebp, esp
	sub	esp, 204				; 000000ccH
	push	ebx
	push	esi
	push	edi
	push	ecx
	lea	edi, DWORD PTR [ebp-204]
	mov	ecx, 51					; 00000033H
	mov	eax, -858993460				; ccccccccH
	rep stosd
	pop	ecx
	mov	DWORD PTR _this$[ebp], ecx

; 531  : 	return RakPeer::GetPlayerIDFromIndex( index );

	mov	eax, DWORD PTR _index$[ebp]
	push	eax
	mov	ecx, DWORD PTR ___$ReturnUdt$[ebp]
	push	ecx
	mov	ecx, DWORD PTR _this$[ebp]
	add	ecx, 4
	call	?GetPlayerIDFromIndex@RakPeer@@UAE?AUPlayerID@@H@Z ; RakPeer::GetPlayerIDFromIndex
	mov	eax, DWORD PTR ___$ReturnUdt$[ebp]

; 532  : }

	pop	edi
	pop	esi
	pop	ebx
	add	esp, 204				; 000000ccH
	cmp	ebp, esp
	call	__RTC_CheckEsp
	mov	esp, ebp
	pop	ebp
	ret	8
?GetPlayerIDFromIndex@RakServer@@UAE?AUPlayerID@@H@Z ENDP ; RakServer::GetPlayerIDFromIndex
_TEXT	ENDS
; Function compile flags: /Odtp /RTCsu /ZI
; File z:\sampsrc\02xu1\raknet\rakserver.cpp
;	COMDAT ?GetIndexFromPlayerID@RakServer@@UAEHUPlayerID@@@Z
_TEXT	SEGMENT
_this$ = -8						; size = 4
_playerId$ = 8						; size = 6
?GetIndexFromPlayerID@RakServer@@UAEHUPlayerID@@@Z PROC	; RakServer::GetIndexFromPlayerID, COMDAT
; _this$ = ecx

; 525  : {

	push	ebp
	mov	ebp, esp
	sub	esp, 204				; 000000ccH
	push	ebx
	push	esi
	push	edi
	push	ecx
	lea	edi, DWORD PTR [ebp-204]
	mov	ecx, 51					; 00000033H
	mov	eax, -858993460				; ccccccccH
	rep stosd
	pop	ecx
	mov	DWORD PTR _this$[ebp], ecx

; 526  : 	return RakPeer::GetIndexFromPlayerID( playerId );

	sub	esp, 8
	mov	eax, esp
	mov	ecx, DWORD PTR _playerId$[ebp]
	mov	DWORD PTR [eax], ecx
	mov	dx, WORD PTR _playerId$[ebp+4]
	mov	WORD PTR [eax+4], dx
	mov	ecx, DWORD PTR _this$[ebp]
	add	ecx, 4
	call	?GetIndexFromPlayerID@RakPeer@@UAEHUPlayerID@@@Z ; RakPeer::GetIndexFromPlayerID

; 527  : }

	pop	edi
	pop	esi
	pop	ebx
	add	esp, 204				; 000000ccH
	cmp	ebp, esp
	call	__RTC_CheckEsp
	mov	esp, ebp
	pop	ebp
	ret	8
?GetIndexFromPlayerID@RakServer@@UAEHUPlayerID@@@Z ENDP	; RakServer::GetIndexFromPlayerID
_TEXT	ENDS
; Function compile flags: /Odtp /RTCsu /ZI
; File z:\sampsrc\02xu1\raknet\rakserver.cpp
;	COMDAT ?RemoveRouterInterface@RakServer@@UAEXPAVRouterInterface@@@Z
_TEXT	SEGMENT
_this$ = -8						; size = 4
_routerInterface$ = 8					; size = 4
?RemoveRouterInterface@RakServer@@UAEXPAVRouterInterface@@@Z PROC ; RakServer::RemoveRouterInterface, COMDAT
; _this$ = ecx

; 515  : {

	push	ebp
	mov	ebp, esp
	sub	esp, 204				; 000000ccH
	push	ebx
	push	esi
	push	edi
	push	ecx
	lea	edi, DWORD PTR [ebp-204]
	mov	ecx, 51					; 00000033H
	mov	eax, -858993460				; ccccccccH
	rep stosd
	pop	ecx
	mov	DWORD PTR _this$[ebp], ecx

; 516  : 	RakPeer::RemoveRouterInterface(routerInterface);

	mov	eax, DWORD PTR _routerInterface$[ebp]
	push	eax
	mov	ecx, DWORD PTR _this$[ebp]
	add	ecx, 4
	call	?RemoveRouterInterface@RakPeer@@UAEXPAVRouterInterface@@@Z ; RakPeer::RemoveRouterInterface

; 517  : }

	pop	edi
	pop	esi
	pop	ebx
	add	esp, 204				; 000000ccH
	cmp	ebp, esp
	call	__RTC_CheckEsp
	mov	esp, ebp
	pop	ebp
	ret	4
?RemoveRouterInterface@RakServer@@UAEXPAVRouterInterface@@@Z ENDP ; RakServer::RemoveRouterInterface
_TEXT	ENDS
; Function compile flags: /Odtp /RTCsu /ZI
; File z:\sampsrc\02xu1\raknet\rakserver.cpp
;	COMDAT ?SetRouterInterface@RakServer@@UAEXPAVRouterInterface@@@Z
_TEXT	SEGMENT
_this$ = -8						; size = 4
_routerInterface$ = 8					; size = 4
?SetRouterInterface@RakServer@@UAEXPAVRouterInterface@@@Z PROC ; RakServer::SetRouterInterface, COMDAT
; _this$ = ecx

; 511  : {

	push	ebp
	mov	ebp, esp
	sub	esp, 204				; 000000ccH
	push	ebx
	push	esi
	push	edi
	push	ecx
	lea	edi, DWORD PTR [ebp-204]
	mov	ecx, 51					; 00000033H
	mov	eax, -858993460				; ccccccccH
	rep stosd
	pop	ecx
	mov	DWORD PTR _this$[ebp], ecx

; 512  : 	RakPeer::SetRouterInterface(routerInterface);

	mov	eax, DWORD PTR _routerInterface$[ebp]
	push	eax
	mov	ecx, DWORD PTR _this$[ebp]
	add	ecx, 4
	call	?SetRouterInterface@RakPeer@@UAEXPAVRouterInterface@@@Z ; RakPeer::SetRouterInterface

; 513  : }

	pop	edi
	pop	esi
	pop	ebx
	add	esp, 204				; 000000ccH
	cmp	ebp, esp
	call	__RTC_CheckEsp
	mov	esp, ebp
	pop	ebp
	ret	4
?SetRouterInterface@RakServer@@UAEXPAVRouterInterface@@@Z ENDP ; RakServer::SetRouterInterface
_TEXT	ENDS
; Function compile flags: /Odtp /RTCsu /ZI
; File z:\sampsrc\02xu1\raknet\rakserver.cpp
;	COMDAT ?PushBackPacket@RakServer@@UAEXPAUPacket@@_N@Z
_TEXT	SEGMENT
_this$ = -8						; size = 4
_packet$ = 8						; size = 4
_pushAtHead$ = 12					; size = 1
?PushBackPacket@RakServer@@UAEXPAUPacket@@_N@Z PROC	; RakServer::PushBackPacket, COMDAT
; _this$ = ecx

; 507  : {

	push	ebp
	mov	ebp, esp
	sub	esp, 204				; 000000ccH
	push	ebx
	push	esi
	push	edi
	push	ecx
	lea	edi, DWORD PTR [ebp-204]
	mov	ecx, 51					; 00000033H
	mov	eax, -858993460				; ccccccccH
	rep stosd
	pop	ecx
	mov	DWORD PTR _this$[ebp], ecx

; 508  : 	RakPeer::PushBackPacket(packet, pushAtHead);

	movzx	eax, BYTE PTR _pushAtHead$[ebp]
	push	eax
	mov	ecx, DWORD PTR _packet$[ebp]
	push	ecx
	mov	ecx, DWORD PTR _this$[ebp]
	add	ecx, 4
	call	?PushBackPacket@RakPeer@@UAEXPAUPacket@@_N@Z ; RakPeer::PushBackPacket

; 509  : }

	pop	edi
	pop	esi
	pop	ebx
	add	esp, 204				; 000000ccH
	cmp	ebp, esp
	call	__RTC_CheckEsp
	mov	esp, ebp
	pop	ebp
	ret	8
?PushBackPacket@RakServer@@UAEXPAUPacket@@_N@Z ENDP	; RakServer::PushBackPacket
_TEXT	ENDS
; Function compile flags: /Odtp /RTCsu /ZI
; File z:\sampsrc\02xu1\raknet\rakserver.cpp
;	COMDAT ?GetInternalID@RakServer@@UBE?AUPlayerID@@XZ
_TEXT	SEGMENT
_this$ = -8						; size = 4
___$ReturnUdt$ = 8					; size = 4
?GetInternalID@RakServer@@UBE?AUPlayerID@@XZ PROC	; RakServer::GetInternalID, COMDAT
; _this$ = ecx

; 502  : {

	push	ebp
	mov	ebp, esp
	sub	esp, 204				; 000000ccH
	push	ebx
	push	esi
	push	edi
	push	ecx
	lea	edi, DWORD PTR [ebp-204]
	mov	ecx, 51					; 00000033H
	mov	eax, -858993460				; ccccccccH
	rep stosd
	pop	ecx
	mov	DWORD PTR _this$[ebp], ecx

; 503  : 	return RakPeer::GetInternalID();

	mov	eax, DWORD PTR ___$ReturnUdt$[ebp]
	push	eax
	mov	ecx, DWORD PTR _this$[ebp]
	add	ecx, 4
	call	?GetInternalID@RakPeer@@UBE?AUPlayerID@@XZ ; RakPeer::GetInternalID
	mov	eax, DWORD PTR ___$ReturnUdt$[ebp]

; 504  : }

	pop	edi
	pop	esi
	pop	ebx
	add	esp, 204				; 000000ccH
	cmp	ebp, esp
	call	__RTC_CheckEsp
	mov	esp, ebp
	pop	ebp
	ret	4
?GetInternalID@RakServer@@UBE?AUPlayerID@@XZ ENDP	; RakServer::GetInternalID
_TEXT	ENDS
; Function compile flags: /Odtp /RTCsu /ZI
; File z:\sampsrc\02xu1\raknet\rakserver.cpp
;	COMDAT ?GetLocalIP@RakServer@@UAEPBDI@Z
_TEXT	SEGMENT
_this$ = -8						; size = 4
_index$ = 8						; size = 4
?GetLocalIP@RakServer@@UAEPBDI@Z PROC			; RakServer::GetLocalIP, COMDAT
; _this$ = ecx

; 520  : {

	push	ebp
	mov	ebp, esp
	sub	esp, 204				; 000000ccH
	push	ebx
	push	esi
	push	edi
	push	ecx
	lea	edi, DWORD PTR [ebp-204]
	mov	ecx, 51					; 00000033H
	mov	eax, -858993460				; ccccccccH
	rep stosd
	pop	ecx
	mov	DWORD PTR _this$[ebp], ecx

; 521  : 	return RakPeer::GetLocalIP( index );

	mov	eax, DWORD PTR _index$[ebp]
	push	eax
	mov	ecx, DWORD PTR _this$[ebp]
	add	ecx, 4
	call	?GetLocalIP@RakPeer@@UAEPBDI@Z		; RakPeer::GetLocalIP

; 522  : }

	pop	edi
	pop	esi
	pop	ebx
	add	esp, 204				; 000000ccH
	cmp	ebp, esp
	call	__RTC_CheckEsp
	mov	esp, ebp
	pop	ebp
	ret	4
?GetLocalIP@RakServer@@UAEPBDI@Z ENDP			; RakServer::GetLocalIP
_TEXT	ENDS
; Function compile flags: /Odtp /RTCsu /ZI
; File z:\sampsrc\02xu1\raknet\rakserver.cpp
;	COMDAT ?GetNumberOfAddresses@RakServer@@UAEIXZ
_TEXT	SEGMENT
_this$ = -8						; size = 4
?GetNumberOfAddresses@RakServer@@UAEIXZ PROC		; RakServer::GetNumberOfAddresses, COMDAT
; _this$ = ecx

; 497  : {

	push	ebp
	mov	ebp, esp
	sub	esp, 204				; 000000ccH
	push	ebx
	push	esi
	push	edi
	push	ecx
	lea	edi, DWORD PTR [ebp-204]
	mov	ecx, 51					; 00000033H
	mov	eax, -858993460				; ccccccccH
	rep stosd
	pop	ecx
	mov	DWORD PTR _this$[ebp], ecx

; 498  : 	return RakPeer::GetNumberOfAddresses();

	mov	ecx, DWORD PTR _this$[ebp]
	add	ecx, 4
	call	?GetNumberOfAddresses@RakPeer@@UAEIXZ	; RakPeer::GetNumberOfAddresses

; 499  : }

	pop	edi
	pop	esi
	pop	ebx
	add	esp, 204				; 000000ccH
	cmp	ebp, esp
	call	__RTC_CheckEsp
	mov	esp, ebp
	pop	ebp
	ret	0
?GetNumberOfAddresses@RakServer@@UAEIXZ ENDP		; RakServer::GetNumberOfAddresses
_TEXT	ENDS
; Function compile flags: /Odtp /RTCsu /ZI
; File z:\sampsrc\02xu1\raknet\rakserver.cpp
;	COMDAT ?ChangeStaticClientData@RakServer@@UAEXUPlayerID@@U2@@Z
_TEXT	SEGMENT
_typeId$ = -329						; size = 1
_bitStream$ = -320					; size = 273
_remoteSystem$ = -36					; size = 4
_this$ = -24						; size = 4
__$ArrayPad$ = -16					; size = 4
__$EHRec$ = -12						; size = 12
_playerChangedId$ = 8					; size = 6
_playerToSendToId$ = 16					; size = 6
?ChangeStaticClientData@RakServer@@UAEXUPlayerID@@U2@@Z PROC ; RakServer::ChangeStaticClientData, COMDAT
; _this$ = ecx

; 474  : {

	push	ebp
	mov	ebp, esp
	push	-1
	push	__ehhandler$?ChangeStaticClientData@RakServer@@UAEXUPlayerID@@U2@@Z
	mov	eax, DWORD PTR fs:0
	push	eax
	sub	esp, 516				; 00000204H
	push	ebx
	push	esi
	push	edi
	push	ecx
	lea	edi, DWORD PTR [ebp-528]
	mov	ecx, 129				; 00000081H
	mov	eax, -858993460				; ccccccccH
	rep stosd
	pop	ecx
	mov	eax, DWORD PTR ___security_cookie
	xor	eax, ebp
	mov	DWORD PTR __$ArrayPad$[ebp], eax
	push	eax
	lea	eax, DWORD PTR __$EHRec$[ebp]
	mov	DWORD PTR fs:0, eax
	mov	DWORD PTR _this$[ebp], ecx

; 475  : 	RemoteSystemStruct * remoteSystem = GetRemoteSystemFromPlayerID( playerChangedId, false, true );

	push	1
	push	0
	sub	esp, 8
	mov	eax, esp
	mov	ecx, DWORD PTR _playerChangedId$[ebp]
	mov	DWORD PTR [eax], ecx
	mov	dx, WORD PTR _playerChangedId$[ebp+4]
	mov	WORD PTR [eax+4], dx
	mov	ecx, DWORD PTR _this$[ebp]
	add	ecx, 4
	call	?GetRemoteSystemFromPlayerID@RakPeer@@IBEPAURemoteSystemStruct@1@UPlayerID@@_N1@Z ; RakPeer::GetRemoteSystemFromPlayerID
	mov	DWORD PTR _remoteSystem$[ebp], eax

; 476  : 
; 477  : 	if ( remoteSystem == 0 )

	cmp	DWORD PTR _remoteSystem$[ebp], 0
	jne	SHORT $LN1@ChangeStat

; 478  : 		return ; // No such playerChangedId

	jmp	$LN2@ChangeStat
$LN1@ChangeStat:

; 479  : 
; 480  : 	// Relay static data to the other systems but the sender
; 481  : 	RakNet::BitStream bitStream;

	lea	ecx, DWORD PTR _bitStream$[ebp]
	call	??0BitStream@RakNet@@QAE@XZ		; RakNet::BitStream::BitStream
	mov	DWORD PTR __$EHRec$[ebp+8], 0

; 482  : 
; 483  : 	unsigned char typeId = ID_REMOTE_STATIC_DATA;

	mov	BYTE PTR _typeId$[ebp], 45		; 0000002dH

; 484  : 
; 485  : 	bitStream.Write( typeId );

	movzx	eax, BYTE PTR _typeId$[ebp]
	push	eax
	lea	ecx, DWORD PTR _bitStream$[ebp]
	call	??$Write@E@BitStream@RakNet@@QAEXE@Z	; RakNet::BitStream::Write<unsigned char>

; 486  : 
; 487  : 	bitStream.Write( playerChangedId.binaryAddress );

	mov	eax, DWORD PTR _playerChangedId$[ebp]
	push	eax
	lea	ecx, DWORD PTR _bitStream$[ebp]
	call	??$Write@I@BitStream@RakNet@@QAEXI@Z	; RakNet::BitStream::Write<unsigned int>

; 488  : 
; 489  : 	bitStream.Write( playerChangedId.port );

	movzx	eax, WORD PTR _playerChangedId$[ebp+4]
	push	eax
	lea	ecx, DWORD PTR _bitStream$[ebp]
	call	??$Write@G@BitStream@RakNet@@QAEXG@Z	; RakNet::BitStream::Write<unsigned short>

; 490  : 
; 491  : 	bitStream.Write( ( char* ) remoteSystem->staticData.GetData(), remoteSystem->staticData.GetNumberOfBytesUsed() );

	mov	ecx, DWORD PTR _remoteSystem$[ebp]
	add	ecx, 1748				; 000006d4H
	call	?GetNumberOfBytesUsed@BitStream@RakNet@@QBEHXZ ; RakNet::BitStream::GetNumberOfBytesUsed
	push	eax
	mov	ecx, DWORD PTR _remoteSystem$[ebp]
	add	ecx, 1748				; 000006d4H
	call	?GetData@BitStream@RakNet@@QBEPAEXZ	; RakNet::BitStream::GetData
	push	eax
	lea	ecx, DWORD PTR _bitStream$[ebp]
	call	?Write@BitStream@RakNet@@QAEXPBDH@Z	; RakNet::BitStream::Write

; 492  : 
; 493  : 	Send( &bitStream, SYSTEM_PRIORITY, RELIABLE, 0, playerToSendToId, true );

	mov	esi, esp
	push	1
	sub	esp, 8
	mov	eax, esp
	mov	ecx, DWORD PTR _playerToSendToId$[ebp]
	mov	DWORD PTR [eax], ecx
	mov	dx, WORD PTR _playerToSendToId$[ebp+4]
	mov	WORD PTR [eax+4], dx
	push	0
	push	2
	push	0
	lea	eax, DWORD PTR _bitStream$[ebp]
	push	eax
	mov	ecx, DWORD PTR _this$[ebp]
	mov	edx, DWORD PTR [ecx]
	mov	ecx, DWORD PTR _this$[ebp]
	mov	eax, DWORD PTR [edx+28]
	call	eax
	cmp	esi, esp
	call	__RTC_CheckEsp

; 494  : }

	mov	DWORD PTR __$EHRec$[ebp+8], -1
	lea	ecx, DWORD PTR _bitStream$[ebp]
	call	??1BitStream@RakNet@@QAE@XZ		; RakNet::BitStream::~BitStream
$LN2@ChangeStat:
	push	edx
	mov	ecx, ebp
	push	eax
	lea	edx, DWORD PTR $LN8@ChangeStat
	call	@_RTC_CheckStackVars@8
	pop	eax
	pop	edx
	mov	ecx, DWORD PTR __$EHRec$[ebp]
	mov	DWORD PTR fs:0, ecx
	pop	ecx
	pop	edi
	pop	esi
	pop	ebx
	mov	ecx, DWORD PTR __$ArrayPad$[ebp]
	xor	ecx, ebp
	call	@__security_check_cookie@4
	add	esp, 528				; 00000210H
	cmp	ebp, esp
	call	__RTC_CheckEsp
	mov	esp, ebp
	pop	ebp
	ret	16					; 00000010H
	npad	3
$LN8@ChangeStat:
	DD	1
	DD	$LN7@ChangeStat
$LN7@ChangeStat:
	DD	-320					; fffffec0H
	DD	273					; 00000111H
	DD	$LN5@ChangeStat
$LN5@ChangeStat:
	DB	98					; 00000062H
	DB	105					; 00000069H
	DB	116					; 00000074H
	DB	83					; 00000053H
	DB	116					; 00000074H
	DB	114					; 00000072H
	DB	101					; 00000065H
	DB	97					; 00000061H
	DB	109					; 0000006dH
	DB	0
_TEXT	ENDS
;	COMDAT text$x
text$x	SEGMENT
__unwindfunclet$?ChangeStaticClientData@RakServer@@UAEXUPlayerID@@U2@@Z$0:
	lea	ecx, DWORD PTR _bitStream$[ebp]
	jmp	??1BitStream@RakNet@@QAE@XZ		; RakNet::BitStream::~BitStream
__ehhandler$?ChangeStaticClientData@RakServer@@UAEXUPlayerID@@U2@@Z:
	mov	edx, DWORD PTR [esp+8]
	lea	eax, DWORD PTR [edx+12]
	mov	ecx, DWORD PTR [edx-532]
	xor	ecx, eax
	call	@__security_check_cookie@4
	mov	ecx, DWORD PTR [edx-4]
	xor	ecx, eax
	call	@__security_check_cookie@4
	mov	eax, OFFSET __ehfuncinfo$?ChangeStaticClientData@RakServer@@UAEXUPlayerID@@U2@@Z
	jmp	___CxxFrameHandler3
text$x	ENDS
?ChangeStaticClientData@RakServer@@UAEXUPlayerID@@U2@@Z ENDP ; RakServer::ChangeStaticClientData
; Function compile flags: /Odtp /RTCsu /ZI
; File z:\sampsrc\02xu1\raknet\rakserver.cpp
;	COMDAT ?SetStaticClientData@RakServer@@UAEXUPlayerID@@PBDH@Z
_TEXT	SEGMENT
_this$ = -8						; size = 4
_playerId$ = 8						; size = 6
_data$ = 16						; size = 4
_length$ = 20						; size = 4
?SetStaticClientData@RakServer@@UAEXUPlayerID@@PBDH@Z PROC ; RakServer::SetStaticClientData, COMDAT
; _this$ = ecx

; 468  : {

	push	ebp
	mov	ebp, esp
	sub	esp, 204				; 000000ccH
	push	ebx
	push	esi
	push	edi
	push	ecx
	lea	edi, DWORD PTR [ebp-204]
	mov	ecx, 51					; 00000033H
	mov	eax, -858993460				; ccccccccH
	rep stosd
	pop	ecx
	mov	DWORD PTR _this$[ebp], ecx

; 469  : 	RakPeer::SetRemoteStaticData( playerId, data, length );

	mov	eax, DWORD PTR _length$[ebp]
	push	eax
	mov	ecx, DWORD PTR _data$[ebp]
	push	ecx
	sub	esp, 8
	mov	edx, esp
	mov	eax, DWORD PTR _playerId$[ebp]
	mov	DWORD PTR [edx], eax
	mov	cx, WORD PTR _playerId$[ebp+4]
	mov	WORD PTR [edx+4], cx
	mov	ecx, DWORD PTR _this$[ebp]
	add	ecx, 4
	call	?SetRemoteStaticData@RakPeer@@UAEXUPlayerID@@PBDH@Z ; RakPeer::SetRemoteStaticData

; 470  : }

	pop	edi
	pop	esi
	pop	ebx
	add	esp, 204				; 000000ccH
	cmp	ebp, esp
	call	__RTC_CheckEsp
	mov	esp, ebp
	pop	ebp
	ret	16					; 00000010H
?SetStaticClientData@RakServer@@UAEXUPlayerID@@PBDH@Z ENDP ; RakServer::SetStaticClientData
_TEXT	ENDS
; Function compile flags: /Odtp /RTCsu /ZI
; File z:\sampsrc\02xu1\raknet\rakserver.cpp
;	COMDAT ?GetStaticClientData@RakServer@@UAEPAVBitStream@RakNet@@UPlayerID@@@Z
_TEXT	SEGMENT
_this$ = -8						; size = 4
_playerId$ = 8						; size = 6
?GetStaticClientData@RakServer@@UAEPAVBitStream@RakNet@@UPlayerID@@@Z PROC ; RakServer::GetStaticClientData, COMDAT
; _this$ = ecx

; 463  : {

	push	ebp
	mov	ebp, esp
	sub	esp, 204				; 000000ccH
	push	ebx
	push	esi
	push	edi
	push	ecx
	lea	edi, DWORD PTR [ebp-204]
	mov	ecx, 51					; 00000033H
	mov	eax, -858993460				; ccccccccH
	rep stosd
	pop	ecx
	mov	DWORD PTR _this$[ebp], ecx

; 464  : 	return RakPeer::GetRemoteStaticData( playerId );

	sub	esp, 8
	mov	eax, esp
	mov	ecx, DWORD PTR _playerId$[ebp]
	mov	DWORD PTR [eax], ecx
	mov	dx, WORD PTR _playerId$[ebp+4]
	mov	WORD PTR [eax+4], dx
	mov	ecx, DWORD PTR _this$[ebp]
	add	ecx, 4
	call	?GetRemoteStaticData@RakPeer@@UAEPAVBitStream@RakNet@@UPlayerID@@@Z ; RakPeer::GetRemoteStaticData

; 465  : }

	pop	edi
	pop	esi
	pop	ebx
	add	esp, 204				; 000000ccH
	cmp	ebp, esp
	call	__RTC_CheckEsp
	mov	esp, ebp
	pop	ebp
	ret	8
?GetStaticClientData@RakServer@@UAEPAVBitStream@RakNet@@UPlayerID@@@Z ENDP ; RakServer::GetStaticClientData
_TEXT	ENDS
; Function compile flags: /Odtp /RTCsu /ZI
; File z:\sampsrc\02xu1\raknet\rakserver.cpp
;	COMDAT ?SetOfflinePingResponse@RakServer@@UAEXPBDI@Z
_TEXT	SEGMENT
_this$ = -8						; size = 4
_data$ = 8						; size = 4
_length$ = 12						; size = 4
?SetOfflinePingResponse@RakServer@@UAEXPBDI@Z PROC	; RakServer::SetOfflinePingResponse, COMDAT
; _this$ = ecx

; 458  : {

	push	ebp
	mov	ebp, esp
	sub	esp, 204				; 000000ccH
	push	ebx
	push	esi
	push	edi
	push	ecx
	lea	edi, DWORD PTR [ebp-204]
	mov	ecx, 51					; 00000033H
	mov	eax, -858993460				; ccccccccH
	rep stosd
	pop	ecx
	mov	DWORD PTR _this$[ebp], ecx

; 459  : 	RakPeer::SetOfflinePingResponse( data, length );

	mov	eax, DWORD PTR _length$[ebp]
	push	eax
	mov	ecx, DWORD PTR _data$[ebp]
	push	ecx
	mov	ecx, DWORD PTR _this$[ebp]
	add	ecx, 4
	call	?SetOfflinePingResponse@RakPeer@@UAEXPBDI@Z ; RakPeer::SetOfflinePingResponse

; 460  : }

	pop	edi
	pop	esi
	pop	ebx
	add	esp, 204				; 000000ccH
	cmp	ebp, esp
	call	__RTC_CheckEsp
	mov	esp, ebp
	pop	ebp
	ret	8
?SetOfflinePingResponse@RakServer@@UAEXPBDI@Z ENDP	; RakServer::SetOfflinePingResponse
_TEXT	ENDS
; Function compile flags: /Odtp /RTCsu /ZI
; File z:\sampsrc\02xu1\raknet\rakserver.cpp
;	COMDAT ?SendStaticServerDataToClient@RakServer@@UAEXUPlayerID@@@Z
_TEXT	SEGMENT
_this$ = -8						; size = 4
_playerId$ = 8						; size = 6
?SendStaticServerDataToClient@RakServer@@UAEXUPlayerID@@@Z PROC ; RakServer::SendStaticServerDataToClient, COMDAT
; _this$ = ecx

; 453  : {

	push	ebp
	mov	ebp, esp
	sub	esp, 204				; 000000ccH
	push	ebx
	push	esi
	push	edi
	push	ecx
	lea	edi, DWORD PTR [ebp-204]
	mov	ecx, 51					; 00000033H
	mov	eax, -858993460				; ccccccccH
	rep stosd
	pop	ecx
	mov	DWORD PTR _this$[ebp], ecx

; 454  : 	RakPeer::SendStaticData( playerId );

	sub	esp, 8
	mov	eax, esp
	mov	ecx, DWORD PTR _playerId$[ebp]
	mov	DWORD PTR [eax], ecx
	mov	dx, WORD PTR _playerId$[ebp+4]
	mov	WORD PTR [eax+4], dx
	mov	ecx, DWORD PTR _this$[ebp]
	add	ecx, 4
	call	?SendStaticData@RakPeer@@UAEXUPlayerID@@@Z ; RakPeer::SendStaticData

; 455  : }

	pop	edi
	pop	esi
	pop	ebx
	add	esp, 204				; 000000ccH
	cmp	ebp, esp
	call	__RTC_CheckEsp
	mov	esp, ebp
	pop	ebp
	ret	8
?SendStaticServerDataToClient@RakServer@@UAEXUPlayerID@@@Z ENDP ; RakServer::SendStaticServerDataToClient
_TEXT	ENDS
; Function compile flags: /Odtp /RTCsu /ZI
; File z:\sampsrc\02xu1\raknet\rakserver.cpp
;	COMDAT ?SetRelayStaticClientData@RakServer@@UAEX_N@Z
_TEXT	SEGMENT
_this$ = -8						; size = 4
_b$ = 8							; size = 1
?SetRelayStaticClientData@RakServer@@UAEX_N@Z PROC	; RakServer::SetRelayStaticClientData, COMDAT
; _this$ = ecx

; 448  : {

	push	ebp
	mov	ebp, esp
	sub	esp, 204				; 000000ccH
	push	ebx
	push	esi
	push	edi
	push	ecx
	lea	edi, DWORD PTR [ebp-204]
	mov	ecx, 51					; 00000033H
	mov	eax, -858993460				; ccccccccH
	rep stosd
	pop	ecx
	mov	DWORD PTR _this$[ebp], ecx

; 449  : 	relayStaticClientData = b;

	mov	eax, DWORD PTR _this$[ebp]
	mov	cl, BYTE PTR _b$[ebp]
	mov	BYTE PTR [eax+2559], cl

; 450  : }

	pop	edi
	pop	esi
	pop	ebx
	mov	esp, ebp
	pop	ebp
	ret	4
?SetRelayStaticClientData@RakServer@@UAEX_N@Z ENDP	; RakServer::SetRelayStaticClientData
_TEXT	ENDS
; Function compile flags: /Odtp /RTCsu /ZI
; File z:\sampsrc\02xu1\raknet\rakserver.cpp
;	COMDAT ?SetStaticServerData@RakServer@@UAEXPBDH@Z
_TEXT	SEGMENT
_this$ = -8						; size = 4
_data$ = 8						; size = 4
_length$ = 12						; size = 4
?SetStaticServerData@RakServer@@UAEXPBDH@Z PROC		; RakServer::SetStaticServerData, COMDAT
; _this$ = ecx

; 443  : {

	push	ebp
	mov	ebp, esp
	sub	esp, 204				; 000000ccH
	push	ebx
	push	esi
	push	edi
	push	ecx
	lea	edi, DWORD PTR [ebp-204]
	mov	ecx, 51					; 00000033H
	mov	eax, -858993460				; ccccccccH
	rep stosd
	pop	ecx
	mov	DWORD PTR _this$[ebp], ecx

; 444  : 	RakPeer::SetRemoteStaticData( myPlayerId, data, length );

	mov	eax, DWORD PTR _length$[ebp]
	push	eax
	mov	ecx, DWORD PTR _data$[ebp]
	push	ecx
	mov	edx, DWORD PTR _this$[ebp]
	add	edx, 561				; 00000231H
	sub	esp, 8
	mov	eax, esp
	mov	ecx, DWORD PTR [edx]
	mov	DWORD PTR [eax], ecx
	mov	dx, WORD PTR [edx+4]
	mov	WORD PTR [eax+4], dx
	mov	ecx, DWORD PTR _this$[ebp]
	add	ecx, 4
	call	?SetRemoteStaticData@RakPeer@@UAEXUPlayerID@@PBDH@Z ; RakPeer::SetRemoteStaticData

; 445  : }

	pop	edi
	pop	esi
	pop	ebx
	add	esp, 204				; 000000ccH
	cmp	ebp, esp
	call	__RTC_CheckEsp
	mov	esp, ebp
	pop	ebp
	ret	8
?SetStaticServerData@RakServer@@UAEXPBDH@Z ENDP		; RakServer::SetStaticServerData
_TEXT	ENDS
; Function compile flags: /Odtp /RTCsu /ZI
; File z:\sampsrc\02xu1\raknet\rakserver.cpp
;	COMDAT ?GetStaticServerData@RakServer@@UAEPAVBitStream@RakNet@@XZ
_TEXT	SEGMENT
_this$ = -8						; size = 4
?GetStaticServerData@RakServer@@UAEPAVBitStream@RakNet@@XZ PROC ; RakServer::GetStaticServerData, COMDAT
; _this$ = ecx

; 438  : {

	push	ebp
	mov	ebp, esp
	sub	esp, 204				; 000000ccH
	push	ebx
	push	esi
	push	edi
	push	ecx
	lea	edi, DWORD PTR [ebp-204]
	mov	ecx, 51					; 00000033H
	mov	eax, -858993460				; ccccccccH
	rep stosd
	pop	ecx
	mov	DWORD PTR _this$[ebp], ecx

; 439  : 	return RakPeer::GetRemoteStaticData( myPlayerId );

	mov	eax, DWORD PTR _this$[ebp]
	add	eax, 561				; 00000231H
	sub	esp, 8
	mov	ecx, esp
	mov	edx, DWORD PTR [eax]
	mov	DWORD PTR [ecx], edx
	mov	ax, WORD PTR [eax+4]
	mov	WORD PTR [ecx+4], ax
	mov	ecx, DWORD PTR _this$[ebp]
	add	ecx, 4
	call	?GetRemoteStaticData@RakPeer@@UAEPAVBitStream@RakNet@@UPlayerID@@@Z ; RakPeer::GetRemoteStaticData

; 440  : }

	pop	edi
	pop	esi
	pop	ebx
	add	esp, 204				; 000000ccH
	cmp	ebp, esp
	call	__RTC_CheckEsp
	mov	esp, ebp
	pop	ebp
	ret	0
?GetStaticServerData@RakServer@@UAEPAVBitStream@RakNet@@XZ ENDP ; RakServer::GetStaticServerData
_TEXT	ENDS
; Function compile flags: /Odtp /RTCsu /ZI
; File z:\sampsrc\02xu1\raknet\rakserver.cpp
;	COMDAT ?DetachPlugin@RakServer@@UAEXPAVPluginInterface@@@Z
_TEXT	SEGMENT
_this$ = -8						; size = 4
_messageHandler$ = 8					; size = 4
?DetachPlugin@RakServer@@UAEXPAVPluginInterface@@@Z PROC ; RakServer::DetachPlugin, COMDAT
; _this$ = ecx

; 433  : {

	push	ebp
	mov	ebp, esp
	sub	esp, 204				; 000000ccH
	push	ebx
	push	esi
	push	edi
	push	ecx
	lea	edi, DWORD PTR [ebp-204]
	mov	ecx, 51					; 00000033H
	mov	eax, -858993460				; ccccccccH
	rep stosd
	pop	ecx
	mov	DWORD PTR _this$[ebp], ecx

; 434  : 	RakPeer::DetachPlugin(messageHandler);

	mov	eax, DWORD PTR _messageHandler$[ebp]
	push	eax
	mov	ecx, DWORD PTR _this$[ebp]
	add	ecx, 4
	call	?DetachPlugin@RakPeer@@UAEXPAVPluginInterface@@@Z ; RakPeer::DetachPlugin

; 435  : }

	pop	edi
	pop	esi
	pop	ebx
	add	esp, 204				; 000000ccH
	cmp	ebp, esp
	call	__RTC_CheckEsp
	mov	esp, ebp
	pop	ebp
	ret	4
?DetachPlugin@RakServer@@UAEXPAVPluginInterface@@@Z ENDP ; RakServer::DetachPlugin
_TEXT	ENDS
; Function compile flags: /Odtp /RTCsu /ZI
; File z:\sampsrc\02xu1\raknet\rakserver.cpp
;	COMDAT ?AttachPlugin@RakServer@@UAEXPAVPluginInterface@@@Z
_TEXT	SEGMENT
_this$ = -8						; size = 4
_messageHandler$ = 8					; size = 4
?AttachPlugin@RakServer@@UAEXPAVPluginInterface@@@Z PROC ; RakServer::AttachPlugin, COMDAT
; _this$ = ecx

; 428  : {

	push	ebp
	mov	ebp, esp
	sub	esp, 204				; 000000ccH
	push	ebx
	push	esi
	push	edi
	push	ecx
	lea	edi, DWORD PTR [ebp-204]
	mov	ecx, 51					; 00000033H
	mov	eax, -858993460				; ccccccccH
	rep stosd
	pop	ecx
	mov	DWORD PTR _this$[ebp], ecx

; 429  : 	RakPeer::AttachPlugin(messageHandler);

	mov	eax, DWORD PTR _messageHandler$[ebp]
	push	eax
	mov	ecx, DWORD PTR _this$[ebp]
	add	ecx, 4
	call	?AttachPlugin@RakPeer@@UAEXPAVPluginInterface@@@Z ; RakPeer::AttachPlugin

; 430  : }

	pop	edi
	pop	esi
	pop	ebx
	add	esp, 204				; 000000ccH
	cmp	ebp, esp
	call	__RTC_CheckEsp
	mov	esp, ebp
	pop	ebp
	ret	4
?AttachPlugin@RakServer@@UAEXPAVPluginInterface@@@Z ENDP ; RakServer::AttachPlugin
_TEXT	ENDS
; Function compile flags: /Odtp /RTCsu /ZI
; File z:\sampsrc\02xu1\raknet\rakserver.cpp
;	COMDAT ?GetDecompressionRatio@RakServer@@UBEMXZ
_TEXT	SEGMENT
_this$ = -8						; size = 4
?GetDecompressionRatio@RakServer@@UBEMXZ PROC		; RakServer::GetDecompressionRatio, COMDAT
; _this$ = ecx

; 423  : {

	push	ebp
	mov	ebp, esp
	sub	esp, 204				; 000000ccH
	push	ebx
	push	esi
	push	edi
	push	ecx
	lea	edi, DWORD PTR [ebp-204]
	mov	ecx, 51					; 00000033H
	mov	eax, -858993460				; ccccccccH
	rep stosd
	pop	ecx
	mov	DWORD PTR _this$[ebp], ecx

; 424  : 	return RakPeer::GetDecompressionRatio();

	mov	ecx, DWORD PTR _this$[ebp]
	add	ecx, 4
	call	?GetDecompressionRatio@RakPeer@@UBEMXZ	; RakPeer::GetDecompressionRatio

; 425  : }

	pop	edi
	pop	esi
	pop	ebx
	add	esp, 204				; 000000ccH
	cmp	ebp, esp
	call	__RTC_CheckEsp
	mov	esp, ebp
	pop	ebp
	ret	0
?GetDecompressionRatio@RakServer@@UBEMXZ ENDP		; RakServer::GetDecompressionRatio
_TEXT	ENDS
; Function compile flags: /Odtp /RTCsu /ZI
; File z:\sampsrc\02xu1\raknet\rakserver.cpp
;	COMDAT ?GetCompressionRatio@RakServer@@UBEMXZ
_TEXT	SEGMENT
_this$ = -8						; size = 4
?GetCompressionRatio@RakServer@@UBEMXZ PROC		; RakServer::GetCompressionRatio, COMDAT
; _this$ = ecx

; 418  : {

	push	ebp
	mov	ebp, esp
	sub	esp, 204				; 000000ccH
	push	ebx
	push	esi
	push	edi
	push	ecx
	lea	edi, DWORD PTR [ebp-204]
	mov	ecx, 51					; 00000033H
	mov	eax, -858993460				; ccccccccH
	rep stosd
	pop	ecx
	mov	DWORD PTR _this$[ebp], ecx

; 419  : 	return RakPeer::GetCompressionRatio();

	mov	ecx, DWORD PTR _this$[ebp]
	add	ecx, 4
	call	?GetCompressionRatio@RakPeer@@UBEMXZ	; RakPeer::GetCompressionRatio

; 420  : }

	pop	edi
	pop	esi
	pop	ebx
	add	esp, 204				; 000000ccH
	cmp	ebp, esp
	call	__RTC_CheckEsp
	mov	esp, ebp
	pop	ebp
	ret	0
?GetCompressionRatio@RakServer@@UBEMXZ ENDP		; RakServer::GetCompressionRatio
_TEXT	ENDS
; Function compile flags: /Odtp /RTCsu /ZI
; File z:\sampsrc\02xu1\raknet\rakserver.cpp
;	COMDAT ?GetSendFrequencyTable@RakServer@@UAE_NQAI@Z
_TEXT	SEGMENT
_this$ = -8						; size = 4
_outputFrequencyTable$ = 8				; size = 4
?GetSendFrequencyTable@RakServer@@UAE_NQAI@Z PROC	; RakServer::GetSendFrequencyTable, COMDAT
; _this$ = ecx

; 413  : {

	push	ebp
	mov	ebp, esp
	sub	esp, 204				; 000000ccH
	push	ebx
	push	esi
	push	edi
	push	ecx
	lea	edi, DWORD PTR [ebp-204]
	mov	ecx, 51					; 00000033H
	mov	eax, -858993460				; ccccccccH
	rep stosd
	pop	ecx
	mov	DWORD PTR _this$[ebp], ecx

; 414  : 	return RakPeer::GetOutgoingFrequencyTable( outputFrequencyTable );

	mov	eax, DWORD PTR _outputFrequencyTable$[ebp]
	push	eax
	mov	ecx, DWORD PTR _this$[ebp]
	add	ecx, 4
	call	?GetOutgoingFrequencyTable@RakPeer@@UAE_NQAI@Z ; RakPeer::GetOutgoingFrequencyTable

; 415  : }

	pop	edi
	pop	esi
	pop	ebx
	add	esp, 204				; 000000ccH
	cmp	ebp, esp
	call	__RTC_CheckEsp
	mov	esp, ebp
	pop	ebp
	ret	4
?GetSendFrequencyTable@RakServer@@UAE_NQAI@Z ENDP	; RakServer::GetSendFrequencyTable
_TEXT	ENDS
; Function compile flags: /Odtp /RTCsu /ZI
; File z:\sampsrc\02xu1\raknet\rakserver.cpp
;	COMDAT ?SetTrackFrequencyTable@RakServer@@UAEX_N@Z
_TEXT	SEGMENT
_this$ = -8						; size = 4
_b$ = 8							; size = 1
?SetTrackFrequencyTable@RakServer@@UAEX_N@Z PROC	; RakServer::SetTrackFrequencyTable, COMDAT
; _this$ = ecx

; 408  : {

	push	ebp
	mov	ebp, esp
	sub	esp, 204				; 000000ccH
	push	ebx
	push	esi
	push	edi
	push	ecx
	lea	edi, DWORD PTR [ebp-204]
	mov	ecx, 51					; 00000033H
	mov	eax, -858993460				; ccccccccH
	rep stosd
	pop	ecx
	mov	DWORD PTR _this$[ebp], ecx

; 409  : 	RakPeer::SetCompileFrequencyTable( b );

	movzx	eax, BYTE PTR _b$[ebp]
	push	eax
	mov	ecx, DWORD PTR _this$[ebp]
	add	ecx, 4
	call	?SetCompileFrequencyTable@RakPeer@@UAEX_N@Z ; RakPeer::SetCompileFrequencyTable

; 410  : }

	pop	edi
	pop	esi
	pop	ebx
	add	esp, 204				; 000000ccH
	cmp	ebp, esp
	call	__RTC_CheckEsp
	mov	esp, ebp
	pop	ebp
	ret	4
?SetTrackFrequencyTable@RakServer@@UAEX_N@Z ENDP	; RakServer::SetTrackFrequencyTable
_TEXT	ENDS
; Function compile flags: /Odtp /RTCsu /ZI
; File z:\sampsrc\02xu1\raknet\rakserver.cpp
;	COMDAT ?RPC@RakServer@@UAE_NPADPAVBitStream@RakNet@@W4PacketPriority@@W4PacketReliability@@DUPlayerID@@_N5@Z
_TEXT	SEGMENT
_this$ = -8						; size = 4
_uniqueID$ = 8						; size = 4
_parameters$ = 12					; size = 4
_priority$ = 16						; size = 4
_reliability$ = 20					; size = 4
_orderingChannel$ = 24					; size = 1
_playerId$ = 28						; size = 6
_broadcast$ = 36					; size = 1
_shiftTimestamp$ = 40					; size = 1
?RPC@RakServer@@UAE_NPADPAVBitStream@RakNet@@W4PacketPriority@@W4PacketReliability@@DUPlayerID@@_N5@Z PROC ; RakServer::RPC, COMDAT
; _this$ = ecx

; 402  : {

	push	ebp
	mov	ebp, esp
	sub	esp, 204				; 000000ccH
	push	ebx
	push	esi
	push	edi
	push	ecx
	lea	edi, DWORD PTR [ebp-204]
	mov	ecx, 51					; 00000033H
	mov	eax, -858993460				; ccccccccH
	rep stosd
	pop	ecx
	mov	DWORD PTR _this$[ebp], ecx

; 403  : 	return RakPeer::RPC( uniqueID, parameters, priority, reliability, orderingChannel, playerId, broadcast, shiftTimestamp, UNASSIGNED_NETWORK_ID, 0 );

	push	0
	mov	eax, DWORD PTR _UNASSIGNED_NETWORK_ID+4
	push	eax
	mov	ecx, DWORD PTR _UNASSIGNED_NETWORK_ID
	push	ecx
	movzx	edx, BYTE PTR _shiftTimestamp$[ebp]
	push	edx
	movzx	eax, BYTE PTR _broadcast$[ebp]
	push	eax
	sub	esp, 8
	mov	ecx, esp
	mov	edx, DWORD PTR _playerId$[ebp]
	mov	DWORD PTR [ecx], edx
	mov	ax, WORD PTR _playerId$[ebp+4]
	mov	WORD PTR [ecx+4], ax
	movzx	ecx, BYTE PTR _orderingChannel$[ebp]
	push	ecx
	mov	edx, DWORD PTR _reliability$[ebp]
	push	edx
	mov	eax, DWORD PTR _priority$[ebp]
	push	eax
	mov	ecx, DWORD PTR _parameters$[ebp]
	push	ecx
	mov	edx, DWORD PTR _uniqueID$[ebp]
	push	edx
	mov	ecx, DWORD PTR _this$[ebp]
	add	ecx, 4
	call	?RPC@RakPeer@@UAE_NPADPAVBitStream@RakNet@@W4PacketPriority@@W4PacketReliability@@DUPlayerID@@_N5UNetworkID@@1@Z ; RakPeer::RPC

; 404  : }

	pop	edi
	pop	esi
	pop	ebx
	add	esp, 204				; 000000ccH
	cmp	ebp, esp
	call	__RTC_CheckEsp
	mov	esp, ebp
	pop	ebp
	ret	36					; 00000024H
?RPC@RakServer@@UAE_NPADPAVBitStream@RakNet@@W4PacketPriority@@W4PacketReliability@@DUPlayerID@@_N5@Z ENDP ; RakServer::RPC
_TEXT	ENDS
; Function compile flags: /Odtp /RTCsu /ZI
; File z:\sampsrc\02xu1\raknet\rakserver.cpp
;	COMDAT ?RPC@RakServer@@UAE_NPADPAVBitStream@RakNet@@W4PacketPriority@@W4PacketReliability@@DUPlayerID@@_N5UNetworkID@@1@Z
_TEXT	SEGMENT
_this$ = -8						; size = 4
_uniqueID$ = 8						; size = 4
_parameters$ = 12					; size = 4
_priority$ = 16						; size = 4
_reliability$ = 20					; size = 4
_orderingChannel$ = 24					; size = 1
_playerId$ = 28						; size = 6
_broadcast$ = 36					; size = 1
_shiftTimestamp$ = 40					; size = 1
_networkID$ = 44					; size = 8
_replyFromTarget$ = 52					; size = 4
?RPC@RakServer@@UAE_NPADPAVBitStream@RakNet@@W4PacketPriority@@W4PacketReliability@@DUPlayerID@@_N5UNetworkID@@1@Z PROC ; RakServer::RPC, COMDAT
; _this$ = ecx

; 396  : {

	push	ebp
	mov	ebp, esp
	sub	esp, 204				; 000000ccH
	push	ebx
	push	esi
	push	edi
	push	ecx
	lea	edi, DWORD PTR [ebp-204]
	mov	ecx, 51					; 00000033H
	mov	eax, -858993460				; ccccccccH
	rep stosd
	pop	ecx
	mov	DWORD PTR _this$[ebp], ecx

; 397  : 	return RakPeer::RPC( uniqueID, parameters, priority, reliability, orderingChannel, playerId, broadcast, shiftTimestamp, networkID, replyFromTarget );

	mov	eax, DWORD PTR _replyFromTarget$[ebp]
	push	eax
	mov	ecx, DWORD PTR _networkID$[ebp+4]
	push	ecx
	mov	edx, DWORD PTR _networkID$[ebp]
	push	edx
	movzx	eax, BYTE PTR _shiftTimestamp$[ebp]
	push	eax
	movzx	ecx, BYTE PTR _broadcast$[ebp]
	push	ecx
	sub	esp, 8
	mov	edx, esp
	mov	eax, DWORD PTR _playerId$[ebp]
	mov	DWORD PTR [edx], eax
	mov	cx, WORD PTR _playerId$[ebp+4]
	mov	WORD PTR [edx+4], cx
	movzx	edx, BYTE PTR _orderingChannel$[ebp]
	push	edx
	mov	eax, DWORD PTR _reliability$[ebp]
	push	eax
	mov	ecx, DWORD PTR _priority$[ebp]
	push	ecx
	mov	edx, DWORD PTR _parameters$[ebp]
	push	edx
	mov	eax, DWORD PTR _uniqueID$[ebp]
	push	eax
	mov	ecx, DWORD PTR _this$[ebp]
	add	ecx, 4
	call	?RPC@RakPeer@@UAE_NPADPAVBitStream@RakNet@@W4PacketPriority@@W4PacketReliability@@DUPlayerID@@_N5UNetworkID@@1@Z ; RakPeer::RPC

; 398  : }

	pop	edi
	pop	esi
	pop	ebx
	add	esp, 204				; 000000ccH
	cmp	ebp, esp
	call	__RTC_CheckEsp
	mov	esp, ebp
	pop	ebp
	ret	48					; 00000030H
?RPC@RakServer@@UAE_NPADPAVBitStream@RakNet@@W4PacketPriority@@W4PacketReliability@@DUPlayerID@@_N5UNetworkID@@1@Z ENDP ; RakServer::RPC
_TEXT	ENDS
; Function compile flags: /Odtp /RTCsu /ZI
; File z:\sampsrc\02xu1\raknet\rakserver.cpp
;	COMDAT ?RPC@RakServer@@UAE_NPADPBDIW4PacketPriority@@W4PacketReliability@@DUPlayerID@@_N5UNetworkID@@PAVBitStream@RakNet@@@Z
_TEXT	SEGMENT
_this$ = -8						; size = 4
_uniqueID$ = 8						; size = 4
_data$ = 12						; size = 4
_bitLength$ = 16					; size = 4
_priority$ = 20						; size = 4
_reliability$ = 24					; size = 4
_orderingChannel$ = 28					; size = 1
_playerId$ = 32						; size = 6
_broadcast$ = 40					; size = 1
_shiftTimestamp$ = 44					; size = 1
_networkID$ = 48					; size = 8
_replyFromTarget$ = 56					; size = 4
?RPC@RakServer@@UAE_NPADPBDIW4PacketPriority@@W4PacketReliability@@DUPlayerID@@_N5UNetworkID@@PAVBitStream@RakNet@@@Z PROC ; RakServer::RPC, COMDAT
; _this$ = ecx

; 391  : {

	push	ebp
	mov	ebp, esp
	sub	esp, 204				; 000000ccH
	push	ebx
	push	esi
	push	edi
	push	ecx
	lea	edi, DWORD PTR [ebp-204]
	mov	ecx, 51					; 00000033H
	mov	eax, -858993460				; ccccccccH
	rep stosd
	pop	ecx
	mov	DWORD PTR _this$[ebp], ecx

; 392  : 	return RakPeer::RPC( uniqueID, data, bitLength, priority, reliability, orderingChannel, playerId, broadcast, shiftTimestamp, networkID, replyFromTarget );

	mov	eax, DWORD PTR _replyFromTarget$[ebp]
	push	eax
	mov	ecx, DWORD PTR _networkID$[ebp+4]
	push	ecx
	mov	edx, DWORD PTR _networkID$[ebp]
	push	edx
	movzx	eax, BYTE PTR _shiftTimestamp$[ebp]
	push	eax
	movzx	ecx, BYTE PTR _broadcast$[ebp]
	push	ecx
	sub	esp, 8
	mov	edx, esp
	mov	eax, DWORD PTR _playerId$[ebp]
	mov	DWORD PTR [edx], eax
	mov	cx, WORD PTR _playerId$[ebp+4]
	mov	WORD PTR [edx+4], cx
	movzx	edx, BYTE PTR _orderingChannel$[ebp]
	push	edx
	mov	eax, DWORD PTR _reliability$[ebp]
	push	eax
	mov	ecx, DWORD PTR _priority$[ebp]
	push	ecx
	mov	edx, DWORD PTR _bitLength$[ebp]
	push	edx
	mov	eax, DWORD PTR _data$[ebp]
	push	eax
	mov	ecx, DWORD PTR _uniqueID$[ebp]
	push	ecx
	mov	ecx, DWORD PTR _this$[ebp]
	add	ecx, 4
	call	?RPC@RakPeer@@UAE_NPADPBDIW4PacketPriority@@W4PacketReliability@@DUPlayerID@@_N5UNetworkID@@PAVBitStream@RakNet@@@Z ; RakPeer::RPC

; 393  : }

	pop	edi
	pop	esi
	pop	ebx
	add	esp, 204				; 000000ccH
	cmp	ebp, esp
	call	__RTC_CheckEsp
	mov	esp, ebp
	pop	ebp
	ret	52					; 00000034H
?RPC@RakServer@@UAE_NPADPBDIW4PacketPriority@@W4PacketReliability@@DUPlayerID@@_N5UNetworkID@@PAVBitStream@RakNet@@@Z ENDP ; RakServer::RPC
_TEXT	ENDS
; Function compile flags: /Odtp /RTCsu /ZI
; File z:\sampsrc\02xu1\raknet\rakserver.cpp
;	COMDAT ?UnregisterAsRemoteProcedureCall@RakServer@@UAEXPAD@Z
_TEXT	SEGMENT
_this$ = -8						; size = 4
_uniqueID$ = 8						; size = 4
?UnregisterAsRemoteProcedureCall@RakServer@@UAEXPAD@Z PROC ; RakServer::UnregisterAsRemoteProcedureCall, COMDAT
; _this$ = ecx

; 386  : {

	push	ebp
	mov	ebp, esp
	sub	esp, 204				; 000000ccH
	push	ebx
	push	esi
	push	edi
	push	ecx
	lea	edi, DWORD PTR [ebp-204]
	mov	ecx, 51					; 00000033H
	mov	eax, -858993460				; ccccccccH
	rep stosd
	pop	ecx
	mov	DWORD PTR _this$[ebp], ecx

; 387  : 	RakPeer::UnregisterAsRemoteProcedureCall( uniqueID );

	mov	eax, DWORD PTR _uniqueID$[ebp]
	push	eax
	mov	ecx, DWORD PTR _this$[ebp]
	add	ecx, 4
	call	?UnregisterAsRemoteProcedureCall@RakPeer@@UAEXPAD@Z ; RakPeer::UnregisterAsRemoteProcedureCall

; 388  : }

	pop	edi
	pop	esi
	pop	ebx
	add	esp, 204				; 000000ccH
	cmp	ebp, esp
	call	__RTC_CheckEsp
	mov	esp, ebp
	pop	ebp
	ret	4
?UnregisterAsRemoteProcedureCall@RakServer@@UAEXPAD@Z ENDP ; RakServer::UnregisterAsRemoteProcedureCall
_TEXT	ENDS
; Function compile flags: /Odtp /RTCsu /ZI
; File z:\sampsrc\02xu1\raknet\rakserver.cpp
;	COMDAT ?RegisterClassMemberRPC@RakServer@@UAEXPADPAX@Z
_TEXT	SEGMENT
_this$ = -8						; size = 4
_uniqueID$ = 8						; size = 4
_functionPointer$ = 12					; size = 4
?RegisterClassMemberRPC@RakServer@@UAEXPADPAX@Z PROC	; RakServer::RegisterClassMemberRPC, COMDAT
; _this$ = ecx

; 381  : {

	push	ebp
	mov	ebp, esp
	sub	esp, 204				; 000000ccH
	push	ebx
	push	esi
	push	edi
	push	ecx
	lea	edi, DWORD PTR [ebp-204]
	mov	ecx, 51					; 00000033H
	mov	eax, -858993460				; ccccccccH
	rep stosd
	pop	ecx
	mov	DWORD PTR _this$[ebp], ecx

; 382  : 	RakPeer::RegisterClassMemberRPC( uniqueID, functionPointer );

	mov	eax, DWORD PTR _functionPointer$[ebp]
	push	eax
	mov	ecx, DWORD PTR _uniqueID$[ebp]
	push	ecx
	mov	ecx, DWORD PTR _this$[ebp]
	add	ecx, 4
	call	?RegisterClassMemberRPC@RakPeer@@UAEXPADPAX@Z ; RakPeer::RegisterClassMemberRPC

; 383  : }

	pop	edi
	pop	esi
	pop	ebx
	add	esp, 204				; 000000ccH
	cmp	ebp, esp
	call	__RTC_CheckEsp
	mov	esp, ebp
	pop	ebp
	ret	8
?RegisterClassMemberRPC@RakServer@@UAEXPADPAX@Z ENDP	; RakServer::RegisterClassMemberRPC
_TEXT	ENDS
; Function compile flags: /Odtp /RTCsu /ZI
; File z:\sampsrc\02xu1\raknet\rakserver.cpp
;	COMDAT ?RegisterAsRemoteProcedureCall@RakServer@@UAEXPADP6AXPAURPCParameters@@@Z@Z
_TEXT	SEGMENT
_this$ = -8						; size = 4
_uniqueID$ = 8						; size = 4
_functionPointer$ = 12					; size = 4
?RegisterAsRemoteProcedureCall@RakServer@@UAEXPADP6AXPAURPCParameters@@@Z@Z PROC ; RakServer::RegisterAsRemoteProcedureCall, COMDAT
; _this$ = ecx

; 376  : {

	push	ebp
	mov	ebp, esp
	sub	esp, 204				; 000000ccH
	push	ebx
	push	esi
	push	edi
	push	ecx
	lea	edi, DWORD PTR [ebp-204]
	mov	ecx, 51					; 00000033H
	mov	eax, -858993460				; ccccccccH
	rep stosd
	pop	ecx
	mov	DWORD PTR _this$[ebp], ecx

; 377  : 	RakPeer::RegisterAsRemoteProcedureCall( uniqueID, functionPointer );

	mov	eax, DWORD PTR _functionPointer$[ebp]
	push	eax
	mov	ecx, DWORD PTR _uniqueID$[ebp]
	push	ecx
	mov	ecx, DWORD PTR _this$[ebp]
	add	ecx, 4
	call	?RegisterAsRemoteProcedureCall@RakPeer@@UAEXPADP6AXPAURPCParameters@@@Z@Z ; RakPeer::RegisterAsRemoteProcedureCall

; 378  : }

	pop	edi
	pop	esi
	pop	ebx
	add	esp, 204				; 000000ccH
	cmp	ebp, esp
	call	__RTC_CheckEsp
	mov	esp, ebp
	pop	ebp
	ret	8
?RegisterAsRemoteProcedureCall@RakServer@@UAEXPADP6AXPAURPCParameters@@@Z@Z ENDP ; RakServer::RegisterAsRemoteProcedureCall
_TEXT	ENDS
; Function compile flags: /Odtp /RTCsu /ZI
; File z:\sampsrc\02xu1\raknet\rakserver.cpp
;	COMDAT ?DeleteCompressionLayer@RakServer@@UAE_N_N@Z
_TEXT	SEGMENT
_this$ = -8						; size = 4
_inputLayer$ = 8					; size = 1
?DeleteCompressionLayer@RakServer@@UAE_N_N@Z PROC	; RakServer::DeleteCompressionLayer, COMDAT
; _this$ = ecx

; 371  : {

	push	ebp
	mov	ebp, esp
	sub	esp, 204				; 000000ccH
	push	ebx
	push	esi
	push	edi
	push	ecx
	lea	edi, DWORD PTR [ebp-204]
	mov	ecx, 51					; 00000033H
	mov	eax, -858993460				; ccccccccH
	rep stosd
	pop	ecx
	mov	DWORD PTR _this$[ebp], ecx

; 372  : 	return RakPeer::DeleteCompressionLayer( inputLayer );

	movzx	eax, BYTE PTR _inputLayer$[ebp]
	push	eax
	mov	ecx, DWORD PTR _this$[ebp]
	add	ecx, 4
	call	?DeleteCompressionLayer@RakPeer@@UAE_N_N@Z ; RakPeer::DeleteCompressionLayer

; 373  : }

	pop	edi
	pop	esi
	pop	ebx
	add	esp, 204				; 000000ccH
	cmp	ebp, esp
	call	__RTC_CheckEsp
	mov	esp, ebp
	pop	ebp
	ret	4
?DeleteCompressionLayer@RakServer@@UAE_N_N@Z ENDP	; RakServer::DeleteCompressionLayer
_TEXT	ENDS
; Function compile flags: /Odtp /RTCsu /ZI
; File z:\sampsrc\02xu1\raknet\rakserver.cpp
;	COMDAT ?GenerateCompressionLayer@RakServer@@UAE_NQAI_N@Z
_TEXT	SEGMENT
_this$ = -8						; size = 4
_inputFrequencyTable$ = 8				; size = 4
_inputLayer$ = 12					; size = 1
?GenerateCompressionLayer@RakServer@@UAE_NQAI_N@Z PROC	; RakServer::GenerateCompressionLayer, COMDAT
; _this$ = ecx

; 366  : {

	push	ebp
	mov	ebp, esp
	sub	esp, 204				; 000000ccH
	push	ebx
	push	esi
	push	edi
	push	ecx
	lea	edi, DWORD PTR [ebp-204]
	mov	ecx, 51					; 00000033H
	mov	eax, -858993460				; ccccccccH
	rep stosd
	pop	ecx
	mov	DWORD PTR _this$[ebp], ecx

; 367  : 	return RakPeer::GenerateCompressionLayer( inputFrequencyTable, inputLayer );

	movzx	eax, BYTE PTR _inputLayer$[ebp]
	push	eax
	mov	ecx, DWORD PTR _inputFrequencyTable$[ebp]
	push	ecx
	mov	ecx, DWORD PTR _this$[ebp]
	add	ecx, 4
	call	?GenerateCompressionLayer@RakPeer@@UAE_NQAI_N@Z ; RakPeer::GenerateCompressionLayer

; 368  : }

	pop	edi
	pop	esi
	pop	ebx
	add	esp, 204				; 000000ccH
	cmp	ebp, esp
	call	__RTC_CheckEsp
	mov	esp, ebp
	pop	ebp
	ret	8
?GenerateCompressionLayer@RakServer@@UAE_NQAI_N@Z ENDP	; RakServer::GenerateCompressionLayer
_TEXT	ENDS
; Function compile flags: /Odtp /RTCsu /ZI
; File z:\sampsrc\02xu1\raknet\rakserver.cpp
;	COMDAT ?StopSynchronizedRandomInteger@RakServer@@UAEXXZ
_TEXT	SEGMENT
_this$ = -8						; size = 4
?StopSynchronizedRandomInteger@RakServer@@UAEXXZ PROC	; RakServer::StopSynchronizedRandomInteger, COMDAT
; _this$ = ecx

; 361  : {

	push	ebp
	mov	ebp, esp
	sub	esp, 204				; 000000ccH
	push	ebx
	push	esi
	push	edi
	push	ecx
	lea	edi, DWORD PTR [ebp-204]
	mov	ecx, 51					; 00000033H
	mov	eax, -858993460				; ccccccccH
	rep stosd
	pop	ecx
	mov	DWORD PTR _this$[ebp], ecx

; 362  : 	synchronizedRandomInteger = false;

	mov	eax, DWORD PTR _this$[ebp]
	mov	BYTE PTR [eax+2558], 0

; 363  : }

	pop	edi
	pop	esi
	pop	ebx
	mov	esp, ebp
	pop	ebp
	ret	0
?StopSynchronizedRandomInteger@RakServer@@UAEXXZ ENDP	; RakServer::StopSynchronizedRandomInteger
_TEXT	ENDS
; Function compile flags: /Odtp /RTCsu /ZI
; File z:\sampsrc\02xu1\raknet\rakserver.cpp
;	COMDAT ?StartSynchronizedRandomInteger@RakServer@@UAEXXZ
_TEXT	SEGMENT
_this$ = -8						; size = 4
?StartSynchronizedRandomInteger@RakServer@@UAEXXZ PROC	; RakServer::StartSynchronizedRandomInteger, COMDAT
; _this$ = ecx

; 356  : {

	push	ebp
	mov	ebp, esp
	sub	esp, 204				; 000000ccH
	push	ebx
	push	esi
	push	edi
	push	ecx
	lea	edi, DWORD PTR [ebp-204]
	mov	ecx, 51					; 00000033H
	mov	eax, -858993460				; ccccccccH
	rep stosd
	pop	ecx
	mov	DWORD PTR _this$[ebp], ecx

; 357  : 	synchronizedRandomInteger = true;

	mov	eax, DWORD PTR _this$[ebp]
	mov	BYTE PTR [eax+2558], 1

; 358  : }

	pop	edi
	pop	esi
	pop	ebx
	mov	esp, ebp
	pop	ebp
	ret	0
?StartSynchronizedRandomInteger@RakServer@@UAEXXZ ENDP	; RakServer::StartSynchronizedRandomInteger
_TEXT	ENDS
; Function compile flags: /Odtp /RTCsu /ZI
; File z:\sampsrc\02xu1\raknet\rakserver.cpp
;	COMDAT ?GetSynchronizedRandomInteger@RakServer@@UBEIXZ
_TEXT	SEGMENT
_this$ = -8						; size = 4
?GetSynchronizedRandomInteger@RakServer@@UBEIXZ PROC	; RakServer::GetSynchronizedRandomInteger, COMDAT
; _this$ = ecx

; 351  : {

	push	ebp
	mov	ebp, esp
	sub	esp, 204				; 000000ccH
	push	ebx
	push	esi
	push	edi
	push	ecx
	lea	edi, DWORD PTR [ebp-204]
	mov	ecx, 51					; 00000033H
	mov	eax, -858993460				; ccccccccH
	rep stosd
	pop	ecx
	mov	DWORD PTR _this$[ebp], ecx

; 352  : 	return seed;

	mov	eax, DWORD PTR _this$[ebp]
	mov	eax, DWORD PTR [eax+2542]

; 353  : }

	pop	edi
	pop	esi
	pop	ebx
	mov	esp, ebp
	pop	ebp
	ret	0
?GetSynchronizedRandomInteger@RakServer@@UBEIXZ ENDP	; RakServer::GetSynchronizedRandomInteger
_TEXT	ENDS
; Function compile flags: /Odtp /RTCsu /ZI
; File z:\sampsrc\02xu1\raknet\rakserver.cpp
;	COMDAT ?IsActive@RakServer@@UBE_NXZ
_TEXT	SEGMENT
_this$ = -8						; size = 4
?IsActive@RakServer@@UBE_NXZ PROC			; RakServer::IsActive, COMDAT
; _this$ = ecx

; 346  : {

	push	ebp
	mov	ebp, esp
	sub	esp, 204				; 000000ccH
	push	ebx
	push	esi
	push	edi
	push	ecx
	lea	edi, DWORD PTR [ebp-204]
	mov	ecx, 51					; 00000033H
	mov	eax, -858993460				; ccccccccH
	rep stosd
	pop	ecx
	mov	DWORD PTR _this$[ebp], ecx

; 347  : 	return RakPeer::IsActive();

	mov	ecx, DWORD PTR _this$[ebp]
	add	ecx, 4
	call	?IsActive@RakPeer@@UBE_NXZ		; RakPeer::IsActive

; 348  : }

	pop	edi
	pop	esi
	pop	ebx
	add	esp, 204				; 000000ccH
	cmp	ebp, esp
	call	__RTC_CheckEsp
	mov	esp, ebp
	pop	ebp
	ret	0
?IsActive@RakServer@@UBE_NXZ ENDP			; RakServer::IsActive
_TEXT	ENDS
; Function compile flags: /Odtp /RTCsu /ZI
; File z:\sampsrc\02xu1\raknet\rakserver.cpp
;	COMDAT ?StopOccasionalPing@RakServer@@UAEXXZ
_TEXT	SEGMENT
_this$ = -8						; size = 4
?StopOccasionalPing@RakServer@@UAEXXZ PROC		; RakServer::StopOccasionalPing, COMDAT
; _this$ = ecx

; 341  : {

	push	ebp
	mov	ebp, esp
	sub	esp, 204				; 000000ccH
	push	ebx
	push	esi
	push	edi
	push	ecx
	lea	edi, DWORD PTR [ebp-204]
	mov	ecx, 51					; 00000033H
	mov	eax, -858993460				; ccccccccH
	rep stosd
	pop	ecx
	mov	DWORD PTR _this$[ebp], ecx

; 342  : 	RakPeer::SetOccasionalPing( false );

	push	0
	mov	ecx, DWORD PTR _this$[ebp]
	add	ecx, 4
	call	?SetOccasionalPing@RakPeer@@UAEX_N@Z	; RakPeer::SetOccasionalPing

; 343  : }

	pop	edi
	pop	esi
	pop	ebx
	add	esp, 204				; 000000ccH
	cmp	ebp, esp
	call	__RTC_CheckEsp
	mov	esp, ebp
	pop	ebp
	ret	0
?StopOccasionalPing@RakServer@@UAEXXZ ENDP		; RakServer::StopOccasionalPing
_TEXT	ENDS
; Function compile flags: /Odtp /RTCsu /ZI
; File z:\sampsrc\02xu1\raknet\rakserver.cpp
;	COMDAT ?StartOccasionalPing@RakServer@@UAEXXZ
_TEXT	SEGMENT
_this$ = -8						; size = 4
?StartOccasionalPing@RakServer@@UAEXXZ PROC		; RakServer::StartOccasionalPing, COMDAT
; _this$ = ecx

; 336  : {

	push	ebp
	mov	ebp, esp
	sub	esp, 204				; 000000ccH
	push	ebx
	push	esi
	push	edi
	push	ecx
	lea	edi, DWORD PTR [ebp-204]
	mov	ecx, 51					; 00000033H
	mov	eax, -858993460				; ccccccccH
	rep stosd
	pop	ecx
	mov	DWORD PTR _this$[ebp], ecx

; 337  : 	RakPeer::SetOccasionalPing( true );

	push	1
	mov	ecx, DWORD PTR _this$[ebp]
	add	ecx, 4
	call	?SetOccasionalPing@RakPeer@@UAEX_N@Z	; RakPeer::SetOccasionalPing

; 338  : }

	pop	edi
	pop	esi
	pop	ebx
	add	esp, 204				; 000000ccH
	cmp	ebp, esp
	call	__RTC_CheckEsp
	mov	esp, ebp
	pop	ebp
	ret	0
?StartOccasionalPing@RakServer@@UAEXXZ ENDP		; RakServer::StartOccasionalPing
_TEXT	ENDS
; Function compile flags: /Odtp /RTCsu /ZI
; File z:\sampsrc\02xu1\raknet\rakserver.cpp
;	COMDAT ?GetLowestPing@RakServer@@UAEHUPlayerID@@@Z
_TEXT	SEGMENT
_this$ = -8						; size = 4
_playerId$ = 8						; size = 6
?GetLowestPing@RakServer@@UAEHUPlayerID@@@Z PROC	; RakServer::GetLowestPing, COMDAT
; _this$ = ecx

; 331  : {

	push	ebp
	mov	ebp, esp
	sub	esp, 204				; 000000ccH
	push	ebx
	push	esi
	push	edi
	push	ecx
	lea	edi, DWORD PTR [ebp-204]
	mov	ecx, 51					; 00000033H
	mov	eax, -858993460				; ccccccccH
	rep stosd
	pop	ecx
	mov	DWORD PTR _this$[ebp], ecx

; 332  : 	return RakPeer::GetLowestPing( playerId );

	sub	esp, 8
	mov	eax, esp
	mov	ecx, DWORD PTR _playerId$[ebp]
	mov	DWORD PTR [eax], ecx
	mov	dx, WORD PTR _playerId$[ebp+4]
	mov	WORD PTR [eax+4], dx
	mov	ecx, DWORD PTR _this$[ebp]
	add	ecx, 4
	call	?GetLowestPing@RakPeer@@UBEHUPlayerID@@@Z ; RakPeer::GetLowestPing

; 333  : }

	pop	edi
	pop	esi
	pop	ebx
	add	esp, 204				; 000000ccH
	cmp	ebp, esp
	call	__RTC_CheckEsp
	mov	esp, ebp
	pop	ebp
	ret	8
?GetLowestPing@RakServer@@UAEHUPlayerID@@@Z ENDP	; RakServer::GetLowestPing
_TEXT	ENDS
; Function compile flags: /Odtp /RTCsu /ZI
; File z:\sampsrc\02xu1\raknet\rakserver.cpp
;	COMDAT ?GetLastPing@RakServer@@UAEHUPlayerID@@@Z
_TEXT	SEGMENT
_this$ = -8						; size = 4
_playerId$ = 8						; size = 6
?GetLastPing@RakServer@@UAEHUPlayerID@@@Z PROC		; RakServer::GetLastPing, COMDAT
; _this$ = ecx

; 326  : {

	push	ebp
	mov	ebp, esp
	sub	esp, 204				; 000000ccH
	push	ebx
	push	esi
	push	edi
	push	ecx
	lea	edi, DWORD PTR [ebp-204]
	mov	ecx, 51					; 00000033H
	mov	eax, -858993460				; ccccccccH
	rep stosd
	pop	ecx
	mov	DWORD PTR _this$[ebp], ecx

; 327  : 	return RakPeer::GetLastPing( playerId );

	sub	esp, 8
	mov	eax, esp
	mov	ecx, DWORD PTR _playerId$[ebp]
	mov	DWORD PTR [eax], ecx
	mov	dx, WORD PTR _playerId$[ebp+4]
	mov	WORD PTR [eax+4], dx
	mov	ecx, DWORD PTR _this$[ebp]
	add	ecx, 4
	call	?GetLastPing@RakPeer@@UBEHUPlayerID@@@Z	; RakPeer::GetLastPing

; 328  : }

	pop	edi
	pop	esi
	pop	ebx
	add	esp, 204				; 000000ccH
	cmp	ebp, esp
	call	__RTC_CheckEsp
	mov	esp, ebp
	pop	ebp
	ret	8
?GetLastPing@RakServer@@UAEHUPlayerID@@@Z ENDP		; RakServer::GetLastPing
_TEXT	ENDS
; Function compile flags: /Odtp /RTCsu /ZI
; File z:\sampsrc\02xu1\raknet\rakserver.cpp
;	COMDAT ?GetAveragePing@RakServer@@UAEHUPlayerID@@@Z
_TEXT	SEGMENT
_this$ = -8						; size = 4
_playerId$ = 8						; size = 6
?GetAveragePing@RakServer@@UAEHUPlayerID@@@Z PROC	; RakServer::GetAveragePing, COMDAT
; _this$ = ecx

; 321  : {

	push	ebp
	mov	ebp, esp
	sub	esp, 204				; 000000ccH
	push	ebx
	push	esi
	push	edi
	push	ecx
	lea	edi, DWORD PTR [ebp-204]
	mov	ecx, 51					; 00000033H
	mov	eax, -858993460				; ccccccccH
	rep stosd
	pop	ecx
	mov	DWORD PTR _this$[ebp], ecx

; 322  : 	return RakPeer::GetAveragePing( playerId );

	sub	esp, 8
	mov	eax, esp
	mov	ecx, DWORD PTR _playerId$[ebp]
	mov	DWORD PTR [eax], ecx
	mov	dx, WORD PTR _playerId$[ebp+4]
	mov	WORD PTR [eax+4], dx
	mov	ecx, DWORD PTR _this$[ebp]
	add	ecx, 4
	call	?GetAveragePing@RakPeer@@UAEHUPlayerID@@@Z ; RakPeer::GetAveragePing

; 323  : }

	pop	edi
	pop	esi
	pop	ebx
	add	esp, 204				; 000000ccH
	cmp	ebp, esp
	call	__RTC_CheckEsp
	mov	esp, ebp
	pop	ebp
	ret	8
?GetAveragePing@RakServer@@UAEHUPlayerID@@@Z ENDP	; RakServer::GetAveragePing
_TEXT	ENDS
; Function compile flags: /Odtp /RTCsu /ZI
; File z:\sampsrc\02xu1\raknet\rakserver.cpp
;	COMDAT ?PingPlayer@RakServer@@UAEXUPlayerID@@@Z
_TEXT	SEGMENT
_this$ = -8						; size = 4
_playerId$ = 8						; size = 6
?PingPlayer@RakServer@@UAEXUPlayerID@@@Z PROC		; RakServer::PingPlayer, COMDAT
; _this$ = ecx

; 316  : {

	push	ebp
	mov	ebp, esp
	sub	esp, 204				; 000000ccH
	push	ebx
	push	esi
	push	edi
	push	ecx
	lea	edi, DWORD PTR [ebp-204]
	mov	ecx, 51					; 00000033H
	mov	eax, -858993460				; ccccccccH
	rep stosd
	pop	ecx
	mov	DWORD PTR _this$[ebp], ecx

; 317  : 	RakPeer::Ping( playerId );

	sub	esp, 8
	mov	eax, esp
	mov	ecx, DWORD PTR _playerId$[ebp]
	mov	DWORD PTR [eax], ecx
	mov	dx, WORD PTR _playerId$[ebp+4]
	mov	WORD PTR [eax+4], dx
	mov	ecx, DWORD PTR _this$[ebp]
	add	ecx, 4
	call	?Ping@RakPeer@@UAEXUPlayerID@@@Z	; RakPeer::Ping

; 318  : }

	pop	edi
	pop	esi
	pop	ebx
	add	esp, 204				; 000000ccH
	cmp	ebp, esp
	call	__RTC_CheckEsp
	mov	esp, ebp
	pop	ebp
	ret	8
?PingPlayer@RakServer@@UAEXUPlayerID@@@Z ENDP		; RakServer::PingPlayer
_TEXT	ENDS
; Function compile flags: /Odtp /RTCsu /ZI
; File z:\sampsrc\02xu1\raknet\rakserver.cpp
;	COMDAT ?GetPlayerIPFromID@RakServer@@UAEXUPlayerID@@QADPAG@Z
_TEXT	SEGMENT
_this$ = -8						; size = 4
_playerId$ = 8						; size = 6
_returnValue$ = 16					; size = 4
_port$ = 20						; size = 4
?GetPlayerIPFromID@RakServer@@UAEXUPlayerID@@QADPAG@Z PROC ; RakServer::GetPlayerIPFromID, COMDAT
; _this$ = ecx

; 310  : {

	push	ebp
	mov	ebp, esp
	sub	esp, 204				; 000000ccH
	push	ebx
	push	esi
	push	edi
	push	ecx
	lea	edi, DWORD PTR [ebp-204]
	mov	ecx, 51					; 00000033H
	mov	eax, -858993460				; ccccccccH
	rep stosd
	pop	ecx
	mov	DWORD PTR _this$[ebp], ecx

; 311  : 	*port = playerId.port;

	mov	eax, DWORD PTR _port$[ebp]
	mov	cx, WORD PTR _playerId$[ebp+4]
	mov	WORD PTR [eax], cx

; 312  : 	strcpy( returnValue, RakPeer::PlayerIDToDottedIP( playerId ) );

	sub	esp, 8
	mov	eax, esp
	mov	ecx, DWORD PTR _playerId$[ebp]
	mov	DWORD PTR [eax], ecx
	mov	dx, WORD PTR _playerId$[ebp+4]
	mov	WORD PTR [eax+4], dx
	mov	ecx, DWORD PTR _this$[ebp]
	add	ecx, 4
	call	?PlayerIDToDottedIP@RakPeer@@UBEPBDUPlayerID@@@Z ; RakPeer::PlayerIDToDottedIP
	push	eax
	mov	eax, DWORD PTR _returnValue$[ebp]
	push	eax
	call	_strcpy
	add	esp, 8

; 313  : }

	pop	edi
	pop	esi
	pop	ebx
	add	esp, 204				; 000000ccH
	cmp	ebp, esp
	call	__RTC_CheckEsp
	mov	esp, ebp
	pop	ebp
	ret	16					; 00000010H
?GetPlayerIPFromID@RakServer@@UAEXUPlayerID@@QADPAG@Z ENDP ; RakServer::GetPlayerIPFromID
_TEXT	ENDS
; Function compile flags: /Odtp /RTCsu /ZI
; File z:\sampsrc\02xu1\raknet\rakserver.cpp
;	COMDAT ?GetConnectedPlayers@RakServer@@UAEGXZ
_TEXT	SEGMENT
_numberOfSystems$ = -20					; size = 2
_this$ = -8						; size = 4
?GetConnectedPlayers@RakServer@@UAEGXZ PROC		; RakServer::GetConnectedPlayers, COMDAT
; _this$ = ecx

; 302  : {

	push	ebp
	mov	ebp, esp
	sub	esp, 216				; 000000d8H
	push	ebx
	push	esi
	push	edi
	push	ecx
	lea	edi, DWORD PTR [ebp-216]
	mov	ecx, 54					; 00000036H
	mov	eax, -858993460				; ccccccccH
	rep stosd
	pop	ecx
	mov	DWORD PTR _this$[ebp], ecx

; 303  : 	unsigned short numberOfSystems;
; 304  : 
; 305  : 	RakPeer::GetConnectionList( 0, &numberOfSystems );

	lea	eax, DWORD PTR _numberOfSystems$[ebp]
	push	eax
	push	0
	mov	ecx, DWORD PTR _this$[ebp]
	add	ecx, 4
	call	?GetConnectionList@RakPeer@@UBE_NPAUPlayerID@@PAG@Z ; RakPeer::GetConnectionList

; 306  : 	return numberOfSystems;

	mov	ax, WORD PTR _numberOfSystems$[ebp]

; 307  : }

	push	edx
	mov	ecx, ebp
	push	eax
	lea	edx, DWORD PTR $LN5@GetConnect
	call	@_RTC_CheckStackVars@8
	pop	eax
	pop	edx
	pop	edi
	pop	esi
	pop	ebx
	add	esp, 216				; 000000d8H
	cmp	ebp, esp
	call	__RTC_CheckEsp
	mov	esp, ebp
	pop	ebp
	ret	0
	npad	3
$LN5@GetConnect:
	DD	1
	DD	$LN4@GetConnect
$LN4@GetConnect:
	DD	-20					; ffffffecH
	DD	2
	DD	$LN3@GetConnect
$LN3@GetConnect:
	DB	110					; 0000006eH
	DB	117					; 00000075H
	DB	109					; 0000006dH
	DB	98					; 00000062H
	DB	101					; 00000065H
	DB	114					; 00000072H
	DB	79					; 0000004fH
	DB	102					; 00000066H
	DB	83					; 00000053H
	DB	121					; 00000079H
	DB	115					; 00000073H
	DB	116					; 00000074H
	DB	101					; 00000065H
	DB	109					; 0000006dH
	DB	115					; 00000073H
	DB	0
?GetConnectedPlayers@RakServer@@UAEGXZ ENDP		; RakServer::GetConnectedPlayers
_TEXT	ENDS
; Function compile flags: /Odtp /RTCsu /ZI
; File z:\sampsrc\02xu1\raknet\rakserver.cpp
;	COMDAT ?GetAllowedPlayers@RakServer@@UBEGXZ
_TEXT	SEGMENT
_this$ = -8						; size = 4
?GetAllowedPlayers@RakServer@@UBEGXZ PROC		; RakServer::GetAllowedPlayers, COMDAT
; _this$ = ecx

; 297  : {

	push	ebp
	mov	ebp, esp
	sub	esp, 204				; 000000ccH
	push	ebx
	push	esi
	push	edi
	push	ecx
	lea	edi, DWORD PTR [ebp-204]
	mov	ecx, 51					; 00000033H
	mov	eax, -858993460				; ccccccccH
	rep stosd
	pop	ecx
	mov	DWORD PTR _this$[ebp], ecx

; 298  : 	return RakPeer::GetMaximumIncomingConnections();

	mov	ecx, DWORD PTR _this$[ebp]
	add	ecx, 4
	call	?GetMaximumIncomingConnections@RakPeer@@UBEGXZ ; RakPeer::GetMaximumIncomingConnections

; 299  : }

	pop	edi
	pop	esi
	pop	ebx
	add	esp, 204				; 000000ccH
	cmp	ebp, esp
	call	__RTC_CheckEsp
	mov	esp, ebp
	pop	ebp
	ret	0
?GetAllowedPlayers@RakServer@@UBEGXZ ENDP		; RakServer::GetAllowedPlayers
_TEXT	ENDS
; Function compile flags: /Odtp /RTCsu /ZI
; File z:\sampsrc\02xu1\raknet\rakserver.cpp
;	COMDAT ?SetAllowedPlayers@RakServer@@UAEXG@Z
_TEXT	SEGMENT
_this$ = -8						; size = 4
_AllowedPlayers$ = 8					; size = 2
?SetAllowedPlayers@RakServer@@UAEXG@Z PROC		; RakServer::SetAllowedPlayers, COMDAT
; _this$ = ecx

; 292  : {

	push	ebp
	mov	ebp, esp
	sub	esp, 204				; 000000ccH
	push	ebx
	push	esi
	push	edi
	push	ecx
	lea	edi, DWORD PTR [ebp-204]
	mov	ecx, 51					; 00000033H
	mov	eax, -858993460				; ccccccccH
	rep stosd
	pop	ecx
	mov	DWORD PTR _this$[ebp], ecx

; 293  : 	RakPeer::SetMaximumIncomingConnections( AllowedPlayers );

	movzx	eax, WORD PTR _AllowedPlayers$[ebp]
	push	eax
	mov	ecx, DWORD PTR _this$[ebp]
	add	ecx, 4
	call	?SetMaximumIncomingConnections@RakPeer@@UAEXG@Z ; RakPeer::SetMaximumIncomingConnections

; 294  : }

	pop	edi
	pop	esi
	pop	ebx
	add	esp, 204				; 000000ccH
	cmp	ebp, esp
	call	__RTC_CheckEsp
	mov	esp, ebp
	pop	ebp
	ret	4
?SetAllowedPlayers@RakServer@@UAEXG@Z ENDP		; RakServer::SetAllowedPlayers
_TEXT	ENDS
; Function compile flags: /Odtp /RTCsu /ZI
; File z:\sampsrc\02xu1\raknet\rakserver.cpp
;	COMDAT ?DeallocatePacket@RakServer@@UAEXPAUPacket@@@Z
_TEXT	SEGMENT
_this$ = -8						; size = 4
_packet$ = 8						; size = 4
?DeallocatePacket@RakServer@@UAEXPAUPacket@@@Z PROC	; RakServer::DeallocatePacket, COMDAT
; _this$ = ecx

; 287  : {

	push	ebp
	mov	ebp, esp
	sub	esp, 204				; 000000ccH
	push	ebx
	push	esi
	push	edi
	push	ecx
	lea	edi, DWORD PTR [ebp-204]
	mov	ecx, 51					; 00000033H
	mov	eax, -858993460				; ccccccccH
	rep stosd
	pop	ecx
	mov	DWORD PTR _this$[ebp], ecx

; 288  : 	RakPeer::DeallocatePacket( packet );

	mov	eax, DWORD PTR _packet$[ebp]
	push	eax
	mov	ecx, DWORD PTR _this$[ebp]
	add	ecx, 4
	call	?DeallocatePacket@RakPeer@@UAEXPAUPacket@@@Z ; RakPeer::DeallocatePacket

; 289  : }

	pop	edi
	pop	esi
	pop	ebx
	add	esp, 204				; 000000ccH
	cmp	ebp, esp
	call	__RTC_CheckEsp
	mov	esp, ebp
	pop	ebp
	ret	4
?DeallocatePacket@RakServer@@UAEXPAUPacket@@@Z ENDP	; RakServer::DeallocatePacket
_TEXT	ENDS
; Function compile flags: /Odtp /RTCsu /ZI
; File z:\sampsrc\02xu1\raknet\rakserver.cpp
;	COMDAT ?Kick@RakServer@@UAEXUPlayerID@@@Z
_TEXT	SEGMENT
_this$ = -8						; size = 4
_playerId$ = 8						; size = 6
?Kick@RakServer@@UAEXUPlayerID@@@Z PROC			; RakServer::Kick, COMDAT
; _this$ = ecx

; 282  : {

	push	ebp
	mov	ebp, esp
	sub	esp, 204				; 000000ccH
	push	ebx
	push	esi
	push	edi
	push	ecx
	lea	edi, DWORD PTR [ebp-204]
	mov	ecx, 51					; 00000033H
	mov	eax, -858993460				; ccccccccH
	rep stosd
	pop	ecx
	mov	DWORD PTR _this$[ebp], ecx

; 283  : 	RakPeer::CloseConnection(playerId, true, 0);

	push	0
	push	1
	sub	esp, 8
	mov	eax, esp
	mov	ecx, DWORD PTR _playerId$[ebp]
	mov	DWORD PTR [eax], ecx
	mov	dx, WORD PTR _playerId$[ebp+4]
	mov	WORD PTR [eax+4], dx
	mov	ecx, DWORD PTR _this$[ebp]
	add	ecx, 4
	call	?CloseConnection@RakPeer@@UAEXUPlayerID@@_NE@Z ; RakPeer::CloseConnection

; 284  : }

	pop	edi
	pop	esi
	pop	ebx
	add	esp, 204				; 000000ccH
	cmp	ebp, esp
	call	__RTC_CheckEsp
	mov	esp, ebp
	pop	ebp
	ret	8
?Kick@RakServer@@UAEXUPlayerID@@@Z ENDP			; RakServer::Kick
_TEXT	ENDS
; Function compile flags: /Odtp /RTCsu /ZI
; File z:\sampsrc\02xu1\raknet\rakserver.cpp
;	COMDAT ?Receive@RakServer@@UAEPAUPacket@@XZ
_TEXT	SEGMENT
_i$2 = -1280						; size = 4
_typeId$3 = -1265					; size = 1
_bitStream$4 = -1256					; size = 273
_typeId$5 = -969					; size = 1
_bitStream$6 = -960					; size = 273
_outBitStream$7 = -676					; size = 273
_time$8 = -392						; size = 4
_typeId$9 = -377					; size = 1
_bitStream$10 = -368					; size = 273
_remoteSystem$11 = -84					; size = 4
_count$12 = -72						; size = 4
_i$13 = -60						; size = 4
_time$14 = -48						; size = 4
_packet$ = -36						; size = 4
_this$ = -24						; size = 4
__$ArrayPad$ = -16					; size = 4
__$EHRec$ = -12						; size = 12
?Receive@RakServer@@UAEPAUPacket@@XZ PROC		; RakServer::Receive, COMDAT
; _this$ = ecx

; 111  : {

	push	ebp
	mov	ebp, esp
	push	-1
	push	__ehhandler$?Receive@RakServer@@UAEPAUPacket@@XZ
	mov	eax, DWORD PTR fs:0
	push	eax
	sub	esp, 1464				; 000005b8H
	push	ebx
	push	esi
	push	edi
	push	ecx
	lea	edi, DWORD PTR [ebp-1476]
	mov	ecx, 366				; 0000016eH
	mov	eax, -858993460				; ccccccccH
	rep stosd
	pop	ecx
	mov	eax, DWORD PTR ___security_cookie
	xor	eax, ebp
	mov	DWORD PTR __$ArrayPad$[ebp], eax
	push	eax
	lea	eax, DWORD PTR __$EHRec$[ebp]
	mov	DWORD PTR fs:0, eax
	mov	DWORD PTR _this$[ebp], ecx

; 112  : 	Packet * packet = RakPeer::Receive();

	mov	ecx, DWORD PTR _this$[ebp]
	add	ecx, 4
	call	?Receive@RakPeer@@UAEPAUPacket@@XZ	; RakPeer::Receive
	mov	DWORD PTR _packet$[ebp], eax

; 113  : 
; 114  : 	// This is just a regular time based update.  Nowhere else good to put it
; 115  : 
; 116  : 	if ( RakPeer::IsActive() && occasionalPing )

	mov	ecx, DWORD PTR _this$[ebp]
	add	ecx, 4
	call	?IsActive@RakPeer@@UBE_NXZ		; RakPeer::IsActive
	movzx	eax, al
	test	eax, eax
	je	$LN34@Receive
	mov	eax, DWORD PTR _this$[ebp]
	movzx	ecx, BYTE PTR [eax+10]
	test	ecx, ecx
	je	$LN34@Receive

; 117  : 	{
; 118  : 		RakNetTime time = RakNet::GetTime();

	call	?GetTime@RakNet@@YAIXZ			; RakNet::GetTime
	mov	DWORD PTR _time$14[ebp], eax

; 119  : 
; 120  : 		if ( time > broadcastPingsTime || ( packet && packet->data[ 0 ] == ID_RECEIVED_STATIC_DATA ) )

	mov	eax, DWORD PTR _this$[ebp]
	mov	ecx, DWORD PTR _time$14[ebp]
	cmp	ecx, DWORD PTR [eax+2550]
	ja	SHORT $LN32@Receive
	cmp	DWORD PTR _packet$[ebp], 0
	je	$LN34@Receive
	mov	eax, 1
	imul	ecx, eax, 0
	mov	edx, DWORD PTR _packet$[ebp]
	mov	eax, DWORD PTR [edx+16]
	movzx	ecx, BYTE PTR [eax+ecx]
	cmp	ecx, 38					; 00000026H
	jne	$LN34@Receive
$LN32@Receive:

; 121  : 		{
; 122  : 			if ( time > broadcastPingsTime )

	mov	eax, DWORD PTR _this$[ebp]
	mov	ecx, DWORD PTR _time$14[ebp]
	cmp	ecx, DWORD PTR [eax+2550]
	jbe	SHORT $LN31@Receive

; 123  : 				broadcastPingsTime = time + 30000; // Broadcast pings every 30 seconds

	mov	eax, DWORD PTR _time$14[ebp]
	add	eax, 30000				; 00007530H
	mov	ecx, DWORD PTR _this$[ebp]
	mov	DWORD PTR [ecx+2550], eax
$LN31@Receive:

; 124  : 
; 125  : 			unsigned i, count;
; 126  : 
; 127  : 			RemoteSystemStruct *remoteSystem;
; 128  : 			RakNet::BitStream bitStream( ( PlayerID_Size + sizeof( short ) ) * 32 + sizeof(unsigned char) );

	push	257					; 00000101H
	lea	ecx, DWORD PTR _bitStream$10[ebp]
	call	??0BitStream@RakNet@@QAE@H@Z		; RakNet::BitStream::BitStream
	mov	DWORD PTR __$EHRec$[ebp+8], 0

; 129  : 			unsigned char typeId = ID_BROADCAST_PINGS;

	mov	BYTE PTR _typeId$9[ebp], 21		; 00000015H

; 130  : 
; 131  : 			bitStream.Write( typeId );

	movzx	eax, BYTE PTR _typeId$9[ebp]
	push	eax
	lea	ecx, DWORD PTR _bitStream$10[ebp]
	call	??$Write@E@BitStream@RakNet@@QAEXE@Z	; RakNet::BitStream::Write<unsigned char>

; 132  : 
; 133  : 			//for ( i = 0, count = 0; count < 32 && i < remoteSystemListSize; i++ )
; 134  : 			for ( i = 0, count = 0; count < 32 && i < maximumNumberOfPeers; i++ )

	mov	DWORD PTR _i$13[ebp], 0
	mov	DWORD PTR _count$12[ebp], 0
	jmp	SHORT $LN30@Receive
$LN29@Receive:
	mov	eax, DWORD PTR _i$13[ebp]
	add	eax, 1
	mov	DWORD PTR _i$13[ebp], eax
$LN30@Receive:
	cmp	DWORD PTR _count$12[ebp], 32		; 00000020H
	jae	$LN28@Receive
	mov	eax, DWORD PTR _this$[ebp]
	movzx	ecx, WORD PTR [eax+11]
	cmp	DWORD PTR _i$13[ebp], ecx
	jae	$LN28@Receive

; 135  : 			{
; 136  : 				remoteSystem = remoteSystemList + i;

	imul	eax, DWORD PTR _i$13[ebp], 2058
	mov	ecx, DWORD PTR _this$[ebp]
	add	eax, DWORD PTR [ecx+824]
	mov	DWORD PTR _remoteSystem$11[ebp], eax

; 137  : 
; 138  : 				if ( remoteSystem->playerId != UNASSIGNED_PLAYER_ID && remoteSystem->isActive)

	push	OFFSET _UNASSIGNED_PLAYER_ID
	mov	ecx, DWORD PTR _remoteSystem$11[ebp]
	add	ecx, 1
	call	??9PlayerID@@QBE_NABU0@@Z		; PlayerID::operator!=
	movzx	eax, al
	test	eax, eax
	je	SHORT $LN27@Receive
	mov	eax, DWORD PTR _remoteSystem$11[ebp]
	movzx	ecx, BYTE PTR [eax]
	test	ecx, ecx
	je	SHORT $LN27@Receive

; 139  : 				{
; 140  : 					bitStream.Write( remoteSystem->playerId.binaryAddress );

	mov	eax, DWORD PTR _remoteSystem$11[ebp]
	mov	ecx, DWORD PTR [eax+1]
	push	ecx
	lea	ecx, DWORD PTR _bitStream$10[ebp]
	call	??$Write@I@BitStream@RakNet@@QAEXI@Z	; RakNet::BitStream::Write<unsigned int>

; 141  : 					bitStream.Write( remoteSystem->playerId.port );

	mov	eax, DWORD PTR _remoteSystem$11[ebp]
	movzx	ecx, WORD PTR [eax+5]
	push	ecx
	lea	ecx, DWORD PTR _bitStream$10[ebp]
	call	??$Write@G@BitStream@RakNet@@QAEXG@Z	; RakNet::BitStream::Write<unsigned short>

; 142  : 					bitStream.Write( remoteSystem->pingAndClockDifferential[ remoteSystem->pingAndClockDifferentialWriteIndex ].pingTime );

	mov	eax, DWORD PTR _remoteSystem$11[ebp]
	imul	ecx, DWORD PTR [eax+1734], 6
	mov	edx, DWORD PTR _remoteSystem$11[ebp]
	movzx	eax, WORD PTR [edx+ecx+1704]
	push	eax
	lea	ecx, DWORD PTR _bitStream$10[ebp]
	call	??$Write@G@BitStream@RakNet@@QAEXG@Z	; RakNet::BitStream::Write<unsigned short>

; 143  : 					count++;

	mov	eax, DWORD PTR _count$12[ebp]
	add	eax, 1
	mov	DWORD PTR _count$12[ebp], eax
$LN27@Receive:

; 144  : 				}
; 145  : 			}

	jmp	$LN29@Receive
$LN28@Receive:

; 146  : 
; 147  : 			if ( count > 0 )   // If we wrote anything

	cmp	DWORD PTR _count$12[ebp], 0
	jbe	$LN26@Receive

; 148  : 			{
; 149  : 
; 150  : 				if ( packet && packet->data[ 0 ] == ID_NEW_INCOMING_CONNECTION )   // If this was a new connection

	cmp	DWORD PTR _packet$[ebp], 0
	je	SHORT $LN25@Receive
	mov	eax, 1
	imul	ecx, eax, 0
	mov	edx, DWORD PTR _packet$[ebp]
	mov	eax, DWORD PTR [edx+16]
	movzx	ecx, BYTE PTR [eax+ecx]
	cmp	ecx, 26					; 0000001aH
	jne	SHORT $LN25@Receive

; 151  : 					Send( &bitStream, SYSTEM_PRIORITY, RELIABLE, 0, packet->playerId, false ); // Send to the new connection

	mov	esi, esp
	push	0
	mov	eax, DWORD PTR _packet$[ebp]
	add	eax, 2
	sub	esp, 8
	mov	ecx, esp
	mov	edx, DWORD PTR [eax]
	mov	DWORD PTR [ecx], edx
	mov	ax, WORD PTR [eax+4]
	mov	WORD PTR [ecx+4], ax
	push	0
	push	2
	push	0
	lea	ecx, DWORD PTR _bitStream$10[ebp]
	push	ecx
	mov	edx, DWORD PTR _this$[ebp]
	mov	eax, DWORD PTR [edx]
	mov	ecx, DWORD PTR _this$[ebp]
	mov	edx, DWORD PTR [eax+28]
	call	edx
	cmp	esi, esp
	call	__RTC_CheckEsp

; 152  : 				else

	jmp	SHORT $LN26@Receive
$LN25@Receive:

; 153  : 					Send( &bitStream, SYSTEM_PRIORITY, RELIABLE, 0, UNASSIGNED_PLAYER_ID, true ); // Send to everyone

	mov	esi, esp
	push	1
	sub	esp, 8
	mov	eax, esp
	mov	ecx, DWORD PTR _UNASSIGNED_PLAYER_ID
	mov	DWORD PTR [eax], ecx
	mov	dx, WORD PTR _UNASSIGNED_PLAYER_ID+4
	mov	WORD PTR [eax+4], dx
	push	0
	push	2
	push	0
	lea	eax, DWORD PTR _bitStream$10[ebp]
	push	eax
	mov	ecx, DWORD PTR _this$[ebp]
	mov	edx, DWORD PTR [ecx]
	mov	ecx, DWORD PTR _this$[ebp]
	mov	eax, DWORD PTR [edx+28]
	call	eax
	cmp	esi, esp
	call	__RTC_CheckEsp
$LN26@Receive:

; 154  : 			}
; 155  : 		}

	mov	DWORD PTR __$EHRec$[ebp+8], -1
	lea	ecx, DWORD PTR _bitStream$10[ebp]
	call	??1BitStream@RakNet@@QAE@XZ		; RakNet::BitStream::~BitStream
$LN34@Receive:

; 156  : 	}
; 157  : 
; 158  : 	// This is just a regular time based update.  Nowhere else good to put it
; 159  : 	if ( RakPeer::IsActive() && synchronizedRandomInteger )

	mov	ecx, DWORD PTR _this$[ebp]
	add	ecx, 4
	call	?IsActive@RakPeer@@UBE_NXZ		; RakPeer::IsActive
	movzx	eax, al
	test	eax, eax
	je	$LN23@Receive
	mov	eax, DWORD PTR _this$[ebp]
	movzx	ecx, BYTE PTR [eax+2558]
	test	ecx, ecx
	je	$LN23@Receive

; 160  : 	{
; 161  : 		RakNetTime time = RakNet::GetTime();

	call	?GetTime@RakNet@@YAIXZ			; RakNet::GetTime
	mov	DWORD PTR _time$8[ebp], eax

; 162  : 
; 163  : 		if ( time > nextSeedUpdate || ( packet && packet->data[ 0 ] == ID_NEW_INCOMING_CONNECTION ) )

	mov	eax, DWORD PTR _this$[ebp]
	mov	ecx, DWORD PTR _time$8[ebp]
	cmp	ecx, DWORD PTR [eax+2554]
	ja	SHORT $LN21@Receive
	cmp	DWORD PTR _packet$[ebp], 0
	je	$LN23@Receive
	mov	eax, 1
	imul	ecx, eax, 0
	mov	edx, DWORD PTR _packet$[ebp]
	mov	eax, DWORD PTR [edx+16]
	movzx	ecx, BYTE PTR [eax+ecx]
	cmp	ecx, 26					; 0000001aH
	jne	$LN23@Receive
$LN21@Receive:

; 164  : 		{
; 165  : 			if ( time > nextSeedUpdate )

	mov	eax, DWORD PTR _this$[ebp]
	mov	ecx, DWORD PTR _time$8[ebp]
	cmp	ecx, DWORD PTR [eax+2554]
	jbe	SHORT $LN20@Receive

; 166  : 				nextSeedUpdate = time + 9000; // Seeds are updated every 9 seconds

	mov	eax, DWORD PTR _time$8[ebp]
	add	eax, 9000				; 00002328H
	mov	ecx, DWORD PTR _this$[ebp]
	mov	DWORD PTR [ecx+2554], eax
$LN20@Receive:

; 167  : 
; 168  : 			seed = nextSeed;

	mov	eax, DWORD PTR _this$[ebp]
	mov	ecx, DWORD PTR _this$[ebp]
	mov	edx, DWORD PTR [ecx+2546]
	mov	DWORD PTR [eax+2542], edx

; 169  : 
; 170  : 			nextSeed = randomMT();

	call	?randomMT@@YAIXZ			; randomMT
	mov	ecx, DWORD PTR _this$[ebp]
	mov	DWORD PTR [ecx+2546], eax

; 171  : 
; 172  : 			if ( nextSeed % 2 == 0 )   // Even

	mov	eax, DWORD PTR _this$[ebp]
	mov	eax, DWORD PTR [eax+2546]
	xor	edx, edx
	mov	ecx, 2
	div	ecx
	test	edx, edx
	jne	SHORT $LN19@Receive

; 173  : 				nextSeed--; // make odd

	mov	eax, DWORD PTR _this$[ebp]
	mov	ecx, DWORD PTR [eax+2546]
	sub	ecx, 1
	mov	edx, DWORD PTR _this$[ebp]
	mov	DWORD PTR [edx+2546], ecx
$LN19@Receive:

; 174  : 
; 175  : 			/*		SetRandomNumberSeedStruct s;
; 176  : 
; 177  : 			s.ts = ID_TIMESTAMP;
; 178  : 			s.timeStamp = RakNet::GetTime();
; 179  : 			s.typeId = ID_SET_RANDOM_NUMBER_SEED;
; 180  : 			s.seed = seed;
; 181  : 			s.nextSeed = nextSeed;
; 182  : 			RakNet::BitStream s_BitS( SetRandomNumberSeedStruct_Size );
; 183  : 			s.Serialize( s_BitS );
; 184  : 			*/
; 185  : 
; 186  : 			RakNet::BitStream outBitStream(sizeof(unsigned char)+sizeof(unsigned int)+sizeof(unsigned char)+sizeof(unsigned int)+sizeof(unsigned int));

	push	14					; 0000000eH
	lea	ecx, DWORD PTR _outBitStream$7[ebp]
	call	??0BitStream@RakNet@@QAE@H@Z		; RakNet::BitStream::BitStream
	mov	DWORD PTR __$EHRec$[ebp+8], 1

; 187  : 			outBitStream.Write((unsigned char) ID_TIMESTAMP);

	push	36					; 00000024H
	lea	ecx, DWORD PTR _outBitStream$7[ebp]
	call	??$Write@E@BitStream@RakNet@@QAEXE@Z	; RakNet::BitStream::Write<unsigned char>

; 188  : 			outBitStream.Write((unsigned int) RakNet::GetTime());

	call	?GetTime@RakNet@@YAIXZ			; RakNet::GetTime
	push	eax
	lea	ecx, DWORD PTR _outBitStream$7[ebp]
	call	??$Write@I@BitStream@RakNet@@QAEXI@Z	; RakNet::BitStream::Write<unsigned int>

; 189  : 			outBitStream.Write((unsigned char) ID_SET_RANDOM_NUMBER_SEED);

	push	22					; 00000016H
	lea	ecx, DWORD PTR _outBitStream$7[ebp]
	call	??$Write@E@BitStream@RakNet@@QAEXE@Z	; RakNet::BitStream::Write<unsigned char>

; 190  : 			outBitStream.Write(seed);

	mov	eax, DWORD PTR _this$[ebp]
	mov	ecx, DWORD PTR [eax+2542]
	push	ecx
	lea	ecx, DWORD PTR _outBitStream$7[ebp]
	call	??$Write@I@BitStream@RakNet@@QAEXI@Z	; RakNet::BitStream::Write<unsigned int>

; 191  : 			outBitStream.Write(nextSeed);

	mov	eax, DWORD PTR _this$[ebp]
	mov	ecx, DWORD PTR [eax+2546]
	push	ecx
	lea	ecx, DWORD PTR _outBitStream$7[ebp]
	call	??$Write@I@BitStream@RakNet@@QAEXI@Z	; RakNet::BitStream::Write<unsigned int>

; 192  : 
; 193  : 			if ( packet && packet->data[ 0 ] == ID_NEW_INCOMING_CONNECTION )

	cmp	DWORD PTR _packet$[ebp], 0
	je	SHORT $LN18@Receive
	mov	eax, 1
	imul	ecx, eax, 0
	mov	edx, DWORD PTR _packet$[ebp]
	mov	eax, DWORD PTR [edx+16]
	movzx	ecx, BYTE PTR [eax+ecx]
	cmp	ecx, 26					; 0000001aH
	jne	SHORT $LN18@Receive

; 194  : 				Send( &outBitStream, SYSTEM_PRIORITY, RELIABLE, 0, packet->playerId, false );

	mov	esi, esp
	push	0
	mov	eax, DWORD PTR _packet$[ebp]
	add	eax, 2
	sub	esp, 8
	mov	ecx, esp
	mov	edx, DWORD PTR [eax]
	mov	DWORD PTR [ecx], edx
	mov	ax, WORD PTR [eax+4]
	mov	WORD PTR [ecx+4], ax
	push	0
	push	2
	push	0
	lea	ecx, DWORD PTR _outBitStream$7[ebp]
	push	ecx
	mov	edx, DWORD PTR _this$[ebp]
	mov	eax, DWORD PTR [edx]
	mov	ecx, DWORD PTR _this$[ebp]
	mov	edx, DWORD PTR [eax+28]
	call	edx
	cmp	esi, esp
	call	__RTC_CheckEsp

; 195  : 			else

	jmp	SHORT $LN17@Receive
$LN18@Receive:

; 196  : 				Send( &outBitStream, SYSTEM_PRIORITY, RELIABLE, 0, UNASSIGNED_PLAYER_ID, true );

	mov	esi, esp
	push	1
	sub	esp, 8
	mov	eax, esp
	mov	ecx, DWORD PTR _UNASSIGNED_PLAYER_ID
	mov	DWORD PTR [eax], ecx
	mov	dx, WORD PTR _UNASSIGNED_PLAYER_ID+4
	mov	WORD PTR [eax+4], dx
	push	0
	push	2
	push	0
	lea	eax, DWORD PTR _outBitStream$7[ebp]
	push	eax
	mov	ecx, DWORD PTR _this$[ebp]
	mov	edx, DWORD PTR [ecx]
	mov	ecx, DWORD PTR _this$[ebp]
	mov	eax, DWORD PTR [edx+28]
	call	eax
	cmp	esi, esp
	call	__RTC_CheckEsp
$LN17@Receive:

; 197  : 		}

	mov	DWORD PTR __$EHRec$[ebp+8], -1
	lea	ecx, DWORD PTR _outBitStream$7[ebp]
	call	??1BitStream@RakNet@@QAE@XZ		; RakNet::BitStream::~BitStream
$LN23@Receive:

; 198  : 	}
; 199  : 
; 200  : 	if ( packet )

	cmp	DWORD PTR _packet$[ebp], 0
	je	$LN16@Receive

; 201  : 	{
; 202  : 		// Intercept specific client / server feature packets. This will do an extra send and still pass on the data to the user
; 203  : 
; 204  : 		if ( packet->data[ 0 ] == ID_RECEIVED_STATIC_DATA )

	mov	eax, 1
	imul	ecx, eax, 0
	mov	edx, DWORD PTR _packet$[ebp]
	mov	eax, DWORD PTR [edx+16]
	movzx	ecx, BYTE PTR [eax+ecx]
	cmp	ecx, 38					; 00000026H
	jne	$LN15@Receive

; 205  : 		{
; 206  : 			if ( relayStaticClientData )

	mov	eax, DWORD PTR _this$[ebp]
	movzx	ecx, BYTE PTR [eax+2559]
	test	ecx, ecx
	je	$LN14@Receive

; 207  : 			{
; 208  : 				// Relay static data to the other systems but the sender
; 209  : 				RakNet::BitStream bitStream( packet->length + PlayerID_Size );

	mov	eax, DWORD PTR _packet$[ebp]
	mov	ecx, DWORD PTR [eax+8]
	add	ecx, 6
	push	ecx
	lea	ecx, DWORD PTR _bitStream$6[ebp]
	call	??0BitStream@RakNet@@QAE@H@Z		; RakNet::BitStream::BitStream
	mov	DWORD PTR __$EHRec$[ebp+8], 2

; 210  : 				unsigned char typeId = ID_REMOTE_STATIC_DATA;

	mov	BYTE PTR _typeId$5[ebp], 45		; 0000002dH

; 211  : 				bitStream.Write( typeId );

	movzx	eax, BYTE PTR _typeId$5[ebp]
	push	eax
	lea	ecx, DWORD PTR _bitStream$6[ebp]
	call	??$Write@E@BitStream@RakNet@@QAEXE@Z	; RakNet::BitStream::Write<unsigned char>

; 212  : 				bitStream.Write( packet->playerId.binaryAddress );

	mov	eax, DWORD PTR _packet$[ebp]
	mov	ecx, DWORD PTR [eax+2]
	push	ecx
	lea	ecx, DWORD PTR _bitStream$6[ebp]
	call	??$Write@I@BitStream@RakNet@@QAEXI@Z	; RakNet::BitStream::Write<unsigned int>

; 213  : 				bitStream.Write( packet->playerId.port );

	mov	eax, DWORD PTR _packet$[ebp]
	movzx	ecx, WORD PTR [eax+6]
	push	ecx
	lea	ecx, DWORD PTR _bitStream$6[ebp]
	call	??$Write@G@BitStream@RakNet@@QAEXG@Z	; RakNet::BitStream::Write<unsigned short>

; 214  : 				bitStream.Write( packet->playerIndex );

	mov	eax, DWORD PTR _packet$[ebp]
	movzx	ecx, WORD PTR [eax]
	push	ecx
	lea	ecx, DWORD PTR _bitStream$6[ebp]
	call	??$Write@G@BitStream@RakNet@@QAEXG@Z	; RakNet::BitStream::Write<unsigned short>

; 215  : 				bitStream.Write( ( char* ) packet->data + sizeof(unsigned char), packet->length - sizeof(unsigned char) );

	mov	eax, DWORD PTR _packet$[ebp]
	mov	ecx, DWORD PTR [eax+8]
	sub	ecx, 1
	push	ecx
	mov	edx, DWORD PTR _packet$[ebp]
	mov	eax, DWORD PTR [edx+16]
	add	eax, 1
	push	eax
	lea	ecx, DWORD PTR _bitStream$6[ebp]
	call	?Write@BitStream@RakNet@@QAEXPBDH@Z	; RakNet::BitStream::Write

; 216  : 				Send( &bitStream, SYSTEM_PRIORITY, RELIABLE, 0, packet->playerId, true );

	mov	esi, esp
	push	1
	mov	eax, DWORD PTR _packet$[ebp]
	add	eax, 2
	sub	esp, 8
	mov	ecx, esp
	mov	edx, DWORD PTR [eax]
	mov	DWORD PTR [ecx], edx
	mov	ax, WORD PTR [eax+4]
	mov	WORD PTR [ecx+4], ax
	push	0
	push	2
	push	0
	lea	ecx, DWORD PTR _bitStream$6[ebp]
	push	ecx
	mov	edx, DWORD PTR _this$[ebp]
	mov	eax, DWORD PTR [edx]
	mov	ecx, DWORD PTR _this$[ebp]
	mov	edx, DWORD PTR [eax+28]
	call	edx
	cmp	esi, esp
	call	__RTC_CheckEsp

; 217  : 			}

	mov	DWORD PTR __$EHRec$[ebp+8], -1
	lea	ecx, DWORD PTR _bitStream$6[ebp]
	call	??1BitStream@RakNet@@QAE@XZ		; RakNet::BitStream::~BitStream
$LN14@Receive:

; 218  : 		}
; 219  : 
; 220  : 		else

	jmp	$LN16@Receive
$LN15@Receive:

; 221  : 			if ( packet->data[ 0 ] == ID_DISCONNECTION_NOTIFICATION || packet->data[ 0 ] == ID_CONNECTION_LOST || packet->data[ 0 ] == ID_NEW_INCOMING_CONNECTION )

	mov	eax, 1
	imul	ecx, eax, 0
	mov	edx, DWORD PTR _packet$[ebp]
	mov	eax, DWORD PTR [edx+16]
	movzx	ecx, BYTE PTR [eax+ecx]
	cmp	ecx, 28					; 0000001cH
	je	SHORT $LN11@Receive
	mov	eax, 1
	imul	ecx, eax, 0
	mov	edx, DWORD PTR _packet$[ebp]
	mov	eax, DWORD PTR [edx+16]
	movzx	ecx, BYTE PTR [eax+ecx]
	cmp	ecx, 30					; 0000001eH
	je	SHORT $LN11@Receive
	mov	eax, 1
	imul	ecx, eax, 0
	mov	edx, DWORD PTR _packet$[ebp]
	mov	eax, DWORD PTR [edx+16]
	movzx	ecx, BYTE PTR [eax+ecx]
	cmp	ecx, 26					; 0000001aH
	jne	$LN16@Receive
$LN11@Receive:

; 222  : 			{
; 223  : 				// Relay the disconnection
; 224  : 				RakNet::BitStream bitStream( packet->length + PlayerID_Size );

	mov	eax, DWORD PTR _packet$[ebp]
	mov	ecx, DWORD PTR [eax+8]
	add	ecx, 6
	push	ecx
	lea	ecx, DWORD PTR _bitStream$4[ebp]
	call	??0BitStream@RakNet@@QAE@H@Z		; RakNet::BitStream::BitStream
	mov	DWORD PTR __$EHRec$[ebp+8], 3

; 225  : 				unsigned char typeId;
; 226  : 
; 227  : 				if ( packet->data[ 0 ] == ID_DISCONNECTION_NOTIFICATION )

	mov	eax, 1
	imul	ecx, eax, 0
	mov	edx, DWORD PTR _packet$[ebp]
	mov	eax, DWORD PTR [edx+16]
	movzx	ecx, BYTE PTR [eax+ecx]
	cmp	ecx, 28					; 0000001cH
	jne	SHORT $LN10@Receive

; 228  : 					typeId = ID_REMOTE_DISCONNECTION_NOTIFICATION;

	mov	BYTE PTR _typeId$3[ebp], 39		; 00000027H

; 229  : 				else

	jmp	SHORT $LN9@Receive
$LN10@Receive:

; 230  : 					if ( packet->data[ 0 ] == ID_CONNECTION_LOST )

	mov	eax, 1
	imul	ecx, eax, 0
	mov	edx, DWORD PTR _packet$[ebp]
	mov	eax, DWORD PTR [edx+16]
	movzx	ecx, BYTE PTR [eax+ecx]
	cmp	ecx, 30					; 0000001eH
	jne	SHORT $LN8@Receive

; 231  : 						typeId = ID_REMOTE_CONNECTION_LOST;

	mov	BYTE PTR _typeId$3[ebp], 40		; 00000028H

; 232  : 					else

	jmp	SHORT $LN9@Receive
$LN8@Receive:

; 233  : 						typeId = ID_REMOTE_NEW_INCOMING_CONNECTION;

	mov	BYTE PTR _typeId$3[ebp], 42		; 0000002aH
$LN9@Receive:

; 234  : 
; 235  : 				bitStream.Write( typeId );

	movzx	eax, BYTE PTR _typeId$3[ebp]
	push	eax
	lea	ecx, DWORD PTR _bitStream$4[ebp]
	call	??$Write@E@BitStream@RakNet@@QAEXE@Z	; RakNet::BitStream::Write<unsigned char>

; 236  : 				bitStream.Write( packet->playerId.binaryAddress );

	mov	eax, DWORD PTR _packet$[ebp]
	mov	ecx, DWORD PTR [eax+2]
	push	ecx
	lea	ecx, DWORD PTR _bitStream$4[ebp]
	call	??$Write@I@BitStream@RakNet@@QAEXI@Z	; RakNet::BitStream::Write<unsigned int>

; 237  : 				bitStream.Write( packet->playerId.port );

	mov	eax, DWORD PTR _packet$[ebp]
	movzx	ecx, WORD PTR [eax+6]
	push	ecx
	lea	ecx, DWORD PTR _bitStream$4[ebp]
	call	??$Write@G@BitStream@RakNet@@QAEXG@Z	; RakNet::BitStream::Write<unsigned short>

; 238  : 				bitStream.Write( ( unsigned short& ) packet->playerIndex );

	mov	eax, DWORD PTR _packet$[ebp]
	movzx	ecx, WORD PTR [eax]
	push	ecx
	lea	ecx, DWORD PTR _bitStream$4[ebp]
	call	??$Write@G@BitStream@RakNet@@QAEXG@Z	; RakNet::BitStream::Write<unsigned short>

; 239  : 
; 240  : 				Send( &bitStream, SYSTEM_PRIORITY, RELIABLE, 0, packet->playerId, true );

	mov	esi, esp
	push	1
	mov	eax, DWORD PTR _packet$[ebp]
	add	eax, 2
	sub	esp, 8
	mov	ecx, esp
	mov	edx, DWORD PTR [eax]
	mov	DWORD PTR [ecx], edx
	mov	ax, WORD PTR [eax+4]
	mov	WORD PTR [ecx+4], ax
	push	0
	push	2
	push	0
	lea	ecx, DWORD PTR _bitStream$4[ebp]
	push	ecx
	mov	edx, DWORD PTR _this$[ebp]
	mov	eax, DWORD PTR [edx]
	mov	ecx, DWORD PTR _this$[ebp]
	mov	edx, DWORD PTR [eax+28]
	call	edx
	cmp	esi, esp
	call	__RTC_CheckEsp

; 241  : 
; 242  : 				if ( packet->data[ 0 ] == ID_NEW_INCOMING_CONNECTION )

	mov	eax, 1
	imul	ecx, eax, 0
	mov	edx, DWORD PTR _packet$[ebp]
	mov	eax, DWORD PTR [edx+16]
	movzx	ecx, BYTE PTR [eax+ecx]
	cmp	ecx, 26					; 0000001aH
	jne	$LN6@Receive

; 243  : 				{
; 244  : 					unsigned i;
; 245  : 
; 246  : 					//for ( i = 0; i < remoteSystemListSize; i++ )
; 247  : 					for ( i = 0; i < maximumNumberOfPeers; i++ )

	mov	DWORD PTR _i$2[ebp], 0
	jmp	SHORT $LN5@Receive
$LN4@Receive:
	mov	eax, DWORD PTR _i$2[ebp]
	add	eax, 1
	mov	DWORD PTR _i$2[ebp], eax
$LN5@Receive:
	mov	eax, DWORD PTR _this$[ebp]
	movzx	ecx, WORD PTR [eax+11]
	cmp	DWORD PTR _i$2[ebp], ecx
	jae	$LN6@Receive

; 248  : 					{
; 249  : 						if ( remoteSystemList[ i ].isActive && remoteSystemList[ i ].playerId != UNASSIGNED_PLAYER_ID && packet->playerId != remoteSystemList[ i ].playerId )

	imul	eax, DWORD PTR _i$2[ebp], 2058
	mov	ecx, DWORD PTR _this$[ebp]
	mov	edx, DWORD PTR [ecx+824]
	movzx	eax, BYTE PTR [edx+eax]
	test	eax, eax
	je	$LN2@Receive
	push	OFFSET _UNASSIGNED_PLAYER_ID
	imul	eax, DWORD PTR _i$2[ebp], 2058
	mov	ecx, DWORD PTR _this$[ebp]
	mov	edx, DWORD PTR [ecx+824]
	lea	ecx, DWORD PTR [edx+eax+1]
	call	??9PlayerID@@QBE_NABU0@@Z		; PlayerID::operator!=
	movzx	eax, al
	test	eax, eax
	je	$LN2@Receive
	imul	eax, DWORD PTR _i$2[ebp], 2058
	mov	ecx, DWORD PTR _this$[ebp]
	mov	edx, DWORD PTR [ecx+824]
	lea	eax, DWORD PTR [edx+eax+1]
	push	eax
	mov	ecx, DWORD PTR _packet$[ebp]
	add	ecx, 2
	call	??9PlayerID@@QBE_NABU0@@Z		; PlayerID::operator!=
	movzx	ecx, al
	test	ecx, ecx
	je	$LN2@Receive

; 250  : 						{
; 251  : 							bitStream.Reset();

	lea	ecx, DWORD PTR _bitStream$4[ebp]
	call	?Reset@BitStream@RakNet@@QAEXXZ		; RakNet::BitStream::Reset

; 252  : 							typeId = ID_REMOTE_EXISTING_CONNECTION;

	mov	BYTE PTR _typeId$3[ebp], 44		; 0000002cH

; 253  : 							bitStream.Write( typeId );

	movzx	eax, BYTE PTR _typeId$3[ebp]
	push	eax
	lea	ecx, DWORD PTR _bitStream$4[ebp]
	call	??$Write@E@BitStream@RakNet@@QAEXE@Z	; RakNet::BitStream::Write<unsigned char>

; 254  : 							bitStream.Write( remoteSystemList[ i ].playerId.binaryAddress );

	imul	eax, DWORD PTR _i$2[ebp], 2058
	mov	ecx, DWORD PTR _this$[ebp]
	mov	edx, DWORD PTR [ecx+824]
	mov	eax, DWORD PTR [edx+eax+1]
	push	eax
	lea	ecx, DWORD PTR _bitStream$4[ebp]
	call	??$Write@I@BitStream@RakNet@@QAEXI@Z	; RakNet::BitStream::Write<unsigned int>

; 255  : 							bitStream.Write( remoteSystemList[ i ].playerId.port );

	imul	eax, DWORD PTR _i$2[ebp], 2058
	mov	ecx, DWORD PTR _this$[ebp]
	mov	edx, DWORD PTR [ecx+824]
	movzx	eax, WORD PTR [edx+eax+5]
	push	eax
	lea	ecx, DWORD PTR _bitStream$4[ebp]
	call	??$Write@G@BitStream@RakNet@@QAEXG@Z	; RakNet::BitStream::Write<unsigned short>

; 256  : 							bitStream.Write( ( unsigned short ) i );

	movzx	eax, WORD PTR _i$2[ebp]
	push	eax
	lea	ecx, DWORD PTR _bitStream$4[ebp]
	call	??$Write@G@BitStream@RakNet@@QAEXG@Z	; RakNet::BitStream::Write<unsigned short>

; 257  : 							// One send to tell them of the connection
; 258  : 							Send( &bitStream, SYSTEM_PRIORITY, RELIABLE, 0, packet->playerId, false );

	mov	esi, esp
	push	0
	mov	eax, DWORD PTR _packet$[ebp]
	add	eax, 2
	sub	esp, 8
	mov	ecx, esp
	mov	edx, DWORD PTR [eax]
	mov	DWORD PTR [ecx], edx
	mov	ax, WORD PTR [eax+4]
	mov	WORD PTR [ecx+4], ax
	push	0
	push	2
	push	0
	lea	ecx, DWORD PTR _bitStream$4[ebp]
	push	ecx
	mov	edx, DWORD PTR _this$[ebp]
	mov	eax, DWORD PTR [edx]
	mov	ecx, DWORD PTR _this$[ebp]
	mov	edx, DWORD PTR [eax+28]
	call	edx
	cmp	esi, esp
	call	__RTC_CheckEsp

; 259  : 
; 260  : 							if ( relayStaticClientData )

	mov	eax, DWORD PTR _this$[ebp]
	movzx	ecx, BYTE PTR [eax+2559]
	test	ecx, ecx
	je	$LN2@Receive

; 261  : 							{
; 262  : 								bitStream.Reset();

	lea	ecx, DWORD PTR _bitStream$4[ebp]
	call	?Reset@BitStream@RakNet@@QAEXXZ		; RakNet::BitStream::Reset

; 263  : 								typeId = ID_REMOTE_STATIC_DATA;

	mov	BYTE PTR _typeId$3[ebp], 45		; 0000002dH

; 264  : 								bitStream.Write( typeId );

	movzx	eax, BYTE PTR _typeId$3[ebp]
	push	eax
	lea	ecx, DWORD PTR _bitStream$4[ebp]
	call	??$Write@E@BitStream@RakNet@@QAEXE@Z	; RakNet::BitStream::Write<unsigned char>

; 265  : 								bitStream.Write( remoteSystemList[ i ].playerId.binaryAddress );

	imul	eax, DWORD PTR _i$2[ebp], 2058
	mov	ecx, DWORD PTR _this$[ebp]
	mov	edx, DWORD PTR [ecx+824]
	mov	eax, DWORD PTR [edx+eax+1]
	push	eax
	lea	ecx, DWORD PTR _bitStream$4[ebp]
	call	??$Write@I@BitStream@RakNet@@QAEXI@Z	; RakNet::BitStream::Write<unsigned int>

; 266  : 								bitStream.Write( remoteSystemList[ i ].playerId.port );

	imul	eax, DWORD PTR _i$2[ebp], 2058
	mov	ecx, DWORD PTR _this$[ebp]
	mov	edx, DWORD PTR [ecx+824]
	movzx	eax, WORD PTR [edx+eax+5]
	push	eax
	lea	ecx, DWORD PTR _bitStream$4[ebp]
	call	??$Write@G@BitStream@RakNet@@QAEXG@Z	; RakNet::BitStream::Write<unsigned short>

; 267  : 								bitStream.Write( (unsigned short) i );

	movzx	eax, WORD PTR _i$2[ebp]
	push	eax
	lea	ecx, DWORD PTR _bitStream$4[ebp]
	call	??$Write@G@BitStream@RakNet@@QAEXG@Z	; RakNet::BitStream::Write<unsigned short>

; 268  : 								bitStream.Write( ( char* ) remoteSystemList[ i ].staticData.GetData(), remoteSystemList[ i ].staticData.GetNumberOfBytesUsed() );

	imul	eax, DWORD PTR _i$2[ebp], 2058
	mov	ecx, DWORD PTR _this$[ebp]
	mov	edx, DWORD PTR [ecx+824]
	lea	ecx, DWORD PTR [edx+eax+1748]
	call	?GetNumberOfBytesUsed@BitStream@RakNet@@QBEHXZ ; RakNet::BitStream::GetNumberOfBytesUsed
	push	eax
	imul	eax, DWORD PTR _i$2[ebp], 2058
	mov	ecx, DWORD PTR _this$[ebp]
	mov	edx, DWORD PTR [ecx+824]
	lea	ecx, DWORD PTR [edx+eax+1748]
	call	?GetData@BitStream@RakNet@@QBEPAEXZ	; RakNet::BitStream::GetData
	push	eax
	lea	ecx, DWORD PTR _bitStream$4[ebp]
	call	?Write@BitStream@RakNet@@QAEXPBDH@Z	; RakNet::BitStream::Write

; 269  : 								// Another send to tell them of the static data
; 270  : 								Send( &bitStream, SYSTEM_PRIORITY, RELIABLE, 0, packet->playerId, false );

	mov	esi, esp
	push	0
	mov	eax, DWORD PTR _packet$[ebp]
	add	eax, 2
	sub	esp, 8
	mov	ecx, esp
	mov	edx, DWORD PTR [eax]
	mov	DWORD PTR [ecx], edx
	mov	ax, WORD PTR [eax+4]
	mov	WORD PTR [ecx+4], ax
	push	0
	push	2
	push	0
	lea	ecx, DWORD PTR _bitStream$4[ebp]
	push	ecx
	mov	edx, DWORD PTR _this$[ebp]
	mov	eax, DWORD PTR [edx]
	mov	ecx, DWORD PTR _this$[ebp]
	mov	edx, DWORD PTR [eax+28]
	call	edx
	cmp	esi, esp
	call	__RTC_CheckEsp
$LN2@Receive:

; 271  : 							}
; 272  : 						}
; 273  : 					}

	jmp	$LN4@Receive
$LN6@Receive:

; 274  : 				}
; 275  : 			}

	mov	DWORD PTR __$EHRec$[ebp+8], -1
	lea	ecx, DWORD PTR _bitStream$4[ebp]
	call	??1BitStream@RakNet@@QAE@XZ		; RakNet::BitStream::~BitStream
$LN16@Receive:

; 276  : 	}
; 277  : 
; 278  : 	return packet;

	mov	eax, DWORD PTR _packet$[ebp]

; 279  : }

	push	edx
	mov	ecx, ebp
	push	eax
	lea	edx, DWORD PTR $LN47@Receive
	call	@_RTC_CheckStackVars@8
	pop	eax
	pop	edx
	mov	ecx, DWORD PTR __$EHRec$[ebp]
	mov	DWORD PTR fs:0, ecx
	pop	ecx
	pop	edi
	pop	esi
	pop	ebx
	mov	ecx, DWORD PTR __$ArrayPad$[ebp]
	xor	ecx, ebp
	call	@__security_check_cookie@4
	add	esp, 1476				; 000005c4H
	cmp	ebp, esp
	call	__RTC_CheckEsp
	mov	esp, ebp
	pop	ebp
	ret	0
	npad	1
$LN47@Receive:
	DD	4
	DD	$LN46@Receive
$LN46@Receive:
	DD	-368					; fffffe90H
	DD	273					; 00000111H
	DD	$LN41@Receive
	DD	-676					; fffffd5cH
	DD	273					; 00000111H
	DD	$LN42@Receive
	DD	-960					; fffffc40H
	DD	273					; 00000111H
	DD	$LN43@Receive
	DD	-1256					; fffffb18H
	DD	273					; 00000111H
	DD	$LN44@Receive
$LN44@Receive:
	DB	98					; 00000062H
	DB	105					; 00000069H
	DB	116					; 00000074H
	DB	83					; 00000053H
	DB	116					; 00000074H
	DB	114					; 00000072H
	DB	101					; 00000065H
	DB	97					; 00000061H
	DB	109					; 0000006dH
	DB	0
$LN43@Receive:
	DB	98					; 00000062H
	DB	105					; 00000069H
	DB	116					; 00000074H
	DB	83					; 00000053H
	DB	116					; 00000074H
	DB	114					; 00000072H
	DB	101					; 00000065H
	DB	97					; 00000061H
	DB	109					; 0000006dH
	DB	0
$LN42@Receive:
	DB	111					; 0000006fH
	DB	117					; 00000075H
	DB	116					; 00000074H
	DB	66					; 00000042H
	DB	105					; 00000069H
	DB	116					; 00000074H
	DB	83					; 00000053H
	DB	116					; 00000074H
	DB	114					; 00000072H
	DB	101					; 00000065H
	DB	97					; 00000061H
	DB	109					; 0000006dH
	DB	0
$LN41@Receive:
	DB	98					; 00000062H
	DB	105					; 00000069H
	DB	116					; 00000074H
	DB	83					; 00000053H
	DB	116					; 00000074H
	DB	114					; 00000072H
	DB	101					; 00000065H
	DB	97					; 00000061H
	DB	109					; 0000006dH
	DB	0
_TEXT	ENDS
;	COMDAT text$x
text$x	SEGMENT
__unwindfunclet$?Receive@RakServer@@UAEPAUPacket@@XZ$0:
	lea	ecx, DWORD PTR _bitStream$10[ebp]
	jmp	??1BitStream@RakNet@@QAE@XZ		; RakNet::BitStream::~BitStream
__unwindfunclet$?Receive@RakServer@@UAEPAUPacket@@XZ$1:
	lea	ecx, DWORD PTR _outBitStream$7[ebp]
	jmp	??1BitStream@RakNet@@QAE@XZ		; RakNet::BitStream::~BitStream
__unwindfunclet$?Receive@RakServer@@UAEPAUPacket@@XZ$2:
	lea	ecx, DWORD PTR _bitStream$6[ebp]
	jmp	??1BitStream@RakNet@@QAE@XZ		; RakNet::BitStream::~BitStream
__unwindfunclet$?Receive@RakServer@@UAEPAUPacket@@XZ$3:
	lea	ecx, DWORD PTR _bitStream$4[ebp]
	jmp	??1BitStream@RakNet@@QAE@XZ		; RakNet::BitStream::~BitStream
__ehhandler$?Receive@RakServer@@UAEPAUPacket@@XZ:
	mov	edx, DWORD PTR [esp+8]
	lea	eax, DWORD PTR [edx+12]
	mov	ecx, DWORD PTR [edx-1480]
	xor	ecx, eax
	call	@__security_check_cookie@4
	mov	ecx, DWORD PTR [edx-4]
	xor	ecx, eax
	call	@__security_check_cookie@4
	mov	eax, OFFSET __ehfuncinfo$?Receive@RakServer@@UAEPAUPacket@@XZ
	jmp	___CxxFrameHandler3
text$x	ENDS
?Receive@RakServer@@UAEPAUPacket@@XZ ENDP		; RakServer::Receive
; Function compile flags: /Odtp /RTCsu /ZI
; File z:\sampsrc\02xu1\raknet\rakserver.cpp
;	COMDAT ?Send@RakServer@@UAE_NPAVBitStream@RakNet@@W4PacketPriority@@W4PacketReliability@@DUPlayerID@@_N@Z
_TEXT	SEGMENT
_this$ = -8						; size = 4
_bitStream$ = 8						; size = 4
_priority$ = 12						; size = 4
_reliability$ = 16					; size = 4
_orderingChannel$ = 20					; size = 1
_playerId$ = 24						; size = 6
_broadcast$ = 32					; size = 1
?Send@RakServer@@UAE_NPAVBitStream@RakNet@@W4PacketPriority@@W4PacketReliability@@DUPlayerID@@_N@Z PROC ; RakServer::Send, COMDAT
; _this$ = ecx

; 106  : {

	push	ebp
	mov	ebp, esp
	sub	esp, 204				; 000000ccH
	push	ebx
	push	esi
	push	edi
	push	ecx
	lea	edi, DWORD PTR [ebp-204]
	mov	ecx, 51					; 00000033H
	mov	eax, -858993460				; ccccccccH
	rep stosd
	pop	ecx
	mov	DWORD PTR _this$[ebp], ecx

; 107  : 	return RakPeer::Send( bitStream, priority, reliability, orderingChannel, playerId, broadcast );

	movzx	eax, BYTE PTR _broadcast$[ebp]
	push	eax
	sub	esp, 8
	mov	ecx, esp
	mov	edx, DWORD PTR _playerId$[ebp]
	mov	DWORD PTR [ecx], edx
	mov	ax, WORD PTR _playerId$[ebp+4]
	mov	WORD PTR [ecx+4], ax
	movzx	ecx, BYTE PTR _orderingChannel$[ebp]
	push	ecx
	mov	edx, DWORD PTR _reliability$[ebp]
	push	edx
	mov	eax, DWORD PTR _priority$[ebp]
	push	eax
	mov	ecx, DWORD PTR _bitStream$[ebp]
	push	ecx
	mov	ecx, DWORD PTR _this$[ebp]
	add	ecx, 4
	call	?Send@RakPeer@@UAE_NPAVBitStream@RakNet@@W4PacketPriority@@W4PacketReliability@@DUPlayerID@@_N@Z ; RakPeer::Send

; 108  : }

	pop	edi
	pop	esi
	pop	ebx
	add	esp, 204				; 000000ccH
	cmp	ebp, esp
	call	__RTC_CheckEsp
	mov	esp, ebp
	pop	ebp
	ret	28					; 0000001cH
?Send@RakServer@@UAE_NPAVBitStream@RakNet@@W4PacketPriority@@W4PacketReliability@@DUPlayerID@@_N@Z ENDP ; RakServer::Send
_TEXT	ENDS
; Function compile flags: /Odtp /RTCsu /ZI
; File z:\sampsrc\02xu1\raknet\rakserver.cpp
;	COMDAT ?Send@RakServer@@UAE_NPBDHW4PacketPriority@@W4PacketReliability@@DUPlayerID@@_N@Z
_TEXT	SEGMENT
_this$ = -8						; size = 4
_data$ = 8						; size = 4
_length$ = 12						; size = 4
_priority$ = 16						; size = 4
_reliability$ = 20					; size = 4
_orderingChannel$ = 24					; size = 1
_playerId$ = 28						; size = 6
_broadcast$ = 36					; size = 1
?Send@RakServer@@UAE_NPBDHW4PacketPriority@@W4PacketReliability@@DUPlayerID@@_N@Z PROC ; RakServer::Send, COMDAT
; _this$ = ecx

; 101  : {

	push	ebp
	mov	ebp, esp
	sub	esp, 204				; 000000ccH
	push	ebx
	push	esi
	push	edi
	push	ecx
	lea	edi, DWORD PTR [ebp-204]
	mov	ecx, 51					; 00000033H
	mov	eax, -858993460				; ccccccccH
	rep stosd
	pop	ecx
	mov	DWORD PTR _this$[ebp], ecx

; 102  : 	return RakPeer::Send( data, length, priority, reliability, orderingChannel, playerId, broadcast );

	movzx	eax, BYTE PTR _broadcast$[ebp]
	push	eax
	sub	esp, 8
	mov	ecx, esp
	mov	edx, DWORD PTR _playerId$[ebp]
	mov	DWORD PTR [ecx], edx
	mov	ax, WORD PTR _playerId$[ebp+4]
	mov	WORD PTR [ecx+4], ax
	movzx	ecx, BYTE PTR _orderingChannel$[ebp]
	push	ecx
	mov	edx, DWORD PTR _reliability$[ebp]
	push	edx
	mov	eax, DWORD PTR _priority$[ebp]
	push	eax
	mov	ecx, DWORD PTR _length$[ebp]
	push	ecx
	mov	edx, DWORD PTR _data$[ebp]
	push	edx
	mov	ecx, DWORD PTR _this$[ebp]
	add	ecx, 4
	call	?Send@RakPeer@@UAE_NPBDHW4PacketPriority@@W4PacketReliability@@DUPlayerID@@_N@Z ; RakPeer::Send

; 103  : }

	pop	edi
	pop	esi
	pop	ebx
	add	esp, 204				; 000000ccH
	cmp	ebp, esp
	call	__RTC_CheckEsp
	mov	esp, ebp
	pop	ebp
	ret	32					; 00000020H
?Send@RakServer@@UAE_NPBDHW4PacketPriority@@W4PacketReliability@@DUPlayerID@@_N@Z ENDP ; RakServer::Send
_TEXT	ENDS
; Function compile flags: /Odtp /RTCsu /ZI
; File z:\sampsrc\02xu1\raknet\rakserver.cpp
;	COMDAT ?Disconnect@RakServer@@UAEXIE@Z
_TEXT	SEGMENT
_this$ = -8						; size = 4
_blockDuration$ = 8					; size = 4
_orderingChannel$ = 12					; size = 1
?Disconnect@RakServer@@UAEXIE@Z PROC			; RakServer::Disconnect, COMDAT
; _this$ = ecx

; 96   : {

	push	ebp
	mov	ebp, esp
	sub	esp, 204				; 000000ccH
	push	ebx
	push	esi
	push	edi
	push	ecx
	lea	edi, DWORD PTR [ebp-204]
	mov	ecx, 51					; 00000033H
	mov	eax, -858993460				; ccccccccH
	rep stosd
	pop	ecx
	mov	DWORD PTR _this$[ebp], ecx

; 97   : 	RakPeer::Disconnect( blockDuration, orderingChannel );

	movzx	eax, BYTE PTR _orderingChannel$[ebp]
	push	eax
	mov	ecx, DWORD PTR _blockDuration$[ebp]
	push	ecx
	mov	ecx, DWORD PTR _this$[ebp]
	add	ecx, 4
	call	?Disconnect@RakPeer@@UAEXIE@Z		; RakPeer::Disconnect

; 98   : }

	pop	edi
	pop	esi
	pop	ebx
	add	esp, 204				; 000000ccH
	cmp	ebp, esp
	call	__RTC_CheckEsp
	mov	esp, ebp
	pop	ebp
	ret	8
?Disconnect@RakServer@@UAEXIE@Z ENDP			; RakServer::Disconnect
_TEXT	ENDS
; Function compile flags: /Odtp /RTCsu /ZI
; File z:\sampsrc\02xu1\raknet\rakserver.cpp
;	COMDAT ?HasPassword@RakServer@@UAE_NXZ
_TEXT	SEGMENT
tv75 = -220						; size = 4
_passwordLength$ = -20					; size = 4
_this$ = -8						; size = 4
?HasPassword@RakServer@@UAE_NXZ PROC			; RakServer::HasPassword, COMDAT
; _this$ = ecx

; 89   : {

	push	ebp
	mov	ebp, esp
	sub	esp, 220				; 000000dcH
	push	ebx
	push	esi
	push	edi
	push	ecx
	lea	edi, DWORD PTR [ebp-220]
	mov	ecx, 55					; 00000037H
	mov	eax, -858993460				; ccccccccH
	rep stosd
	pop	ecx
	mov	DWORD PTR _this$[ebp], ecx

; 90   : 	int passwordLength;
; 91   : 	GetIncomingPassword(0, &passwordLength);

	mov	esi, esp
	lea	eax, DWORD PTR _passwordLength$[ebp]
	push	eax
	push	0
	mov	ecx, DWORD PTR _this$[ebp]
	add	ecx, 4
	mov	edx, DWORD PTR _this$[ebp]
	mov	eax, DWORD PTR [edx+4]
	mov	edx, DWORD PTR [eax+28]
	call	edx
	cmp	esi, esp
	call	__RTC_CheckEsp

; 92   : 	return passwordLength > 0;

	cmp	DWORD PTR _passwordLength$[ebp], 0
	jle	SHORT $LN3@HasPasswor
	mov	DWORD PTR tv75[ebp], 1
	jmp	SHORT $LN4@HasPasswor
$LN3@HasPasswor:
	mov	DWORD PTR tv75[ebp], 0
$LN4@HasPasswor:
	mov	al, BYTE PTR tv75[ebp]

; 93   : }

	push	edx
	mov	ecx, ebp
	push	eax
	lea	edx, DWORD PTR $LN7@HasPasswor
	call	@_RTC_CheckStackVars@8
	pop	eax
	pop	edx
	pop	edi
	pop	esi
	pop	ebx
	add	esp, 220				; 000000dcH
	cmp	ebp, esp
	call	__RTC_CheckEsp
	mov	esp, ebp
	pop	ebp
	ret	0
	npad	2
$LN7@HasPasswor:
	DD	1
	DD	$LN6@HasPasswor
$LN6@HasPasswor:
	DD	-20					; ffffffecH
	DD	4
	DD	$LN5@HasPasswor
$LN5@HasPasswor:
	DB	112					; 00000070H
	DB	97					; 00000061H
	DB	115					; 00000073H
	DB	115					; 00000073H
	DB	119					; 00000077H
	DB	111					; 0000006fH
	DB	114					; 00000072H
	DB	100					; 00000064H
	DB	76					; 0000004cH
	DB	101					; 00000065H
	DB	110					; 0000006eH
	DB	103					; 00000067H
	DB	116					; 00000074H
	DB	104					; 00000068H
	DB	0
?HasPassword@RakServer@@UAE_NXZ ENDP			; RakServer::HasPassword
_TEXT	ENDS
; Function compile flags: /Odtp /RTCsu /ZI
; File z:\sampsrc\02xu1\raknet\rakserver.cpp
;	COMDAT ?SetPassword@RakServer@@UAEXPBD@Z
_TEXT	SEGMENT
_this$ = -8						; size = 4
__password$ = 8						; size = 4
?SetPassword@RakServer@@UAEXPBD@Z PROC			; RakServer::SetPassword, COMDAT
; _this$ = ecx

; 76   : {

	push	ebp
	mov	ebp, esp
	sub	esp, 204				; 000000ccH
	push	ebx
	push	esi
	push	edi
	push	ecx
	lea	edi, DWORD PTR [ebp-204]
	mov	ecx, 51					; 00000033H
	mov	eax, -858993460				; ccccccccH
	rep stosd
	pop	ecx
	mov	DWORD PTR _this$[ebp], ecx

; 77   : 	if ( _password )

	cmp	DWORD PTR __password$[ebp], 0
	je	SHORT $LN2@SetPasswor

; 78   : 	{
; 79   : 		RakPeer::SetIncomingPassword( _password, ( int ) strlen( _password ) + 1 );

	mov	eax, DWORD PTR __password$[ebp]
	push	eax
	call	_strlen
	add	esp, 4
	add	eax, 1
	push	eax
	mov	ecx, DWORD PTR __password$[ebp]
	push	ecx
	mov	ecx, DWORD PTR _this$[ebp]
	add	ecx, 4
	call	?SetIncomingPassword@RakPeer@@UAEXPBDH@Z ; RakPeer::SetIncomingPassword

; 80   : 	}
; 81   : 
; 82   : 	else

	jmp	SHORT $LN3@SetPasswor
$LN2@SetPasswor:

; 83   : 	{
; 84   : 		RakPeer::SetIncomingPassword( 0, 0 );

	push	0
	push	0
	mov	ecx, DWORD PTR _this$[ebp]
	add	ecx, 4
	call	?SetIncomingPassword@RakPeer@@UAEXPBDH@Z ; RakPeer::SetIncomingPassword
$LN3@SetPasswor:

; 85   : 	}
; 86   : }

	pop	edi
	pop	esi
	pop	ebx
	add	esp, 204				; 000000ccH
	cmp	ebp, esp
	call	__RTC_CheckEsp
	mov	esp, ebp
	pop	ebp
	ret	4
?SetPassword@RakServer@@UAEXPBD@Z ENDP			; RakServer::SetPassword
_TEXT	ENDS
; Function compile flags: /Odtp /RTCsu /ZI
; File z:\sampsrc\02xu1\raknet\rakserver.cpp
;	COMDAT ?DisableSecurity@RakServer@@UAEXXZ
_TEXT	SEGMENT
_this$ = -8						; size = 4
?DisableSecurity@RakServer@@UAEXXZ PROC			; RakServer::DisableSecurity, COMDAT
; _this$ = ecx

; 43   : {

	push	ebp
	mov	ebp, esp
	sub	esp, 204				; 000000ccH
	push	ebx
	push	esi
	push	edi
	push	ecx
	lea	edi, DWORD PTR [ebp-204]
	mov	ecx, 51					; 00000033H
	mov	eax, -858993460				; ccccccccH
	rep stosd
	pop	ecx
	mov	DWORD PTR _this$[ebp], ecx

; 44   : 	RakPeer::DisableSecurity();

	mov	ecx, DWORD PTR _this$[ebp]
	add	ecx, 4
	call	?DisableSecurity@RakPeer@@UAEXXZ	; RakPeer::DisableSecurity

; 45   : }

	pop	edi
	pop	esi
	pop	ebx
	add	esp, 204				; 000000ccH
	cmp	ebp, esp
	call	__RTC_CheckEsp
	mov	esp, ebp
	pop	ebp
	ret	0
?DisableSecurity@RakServer@@UAEXXZ ENDP			; RakServer::DisableSecurity
_TEXT	ENDS
; Function compile flags: /Odtp /RTCsu /ZI
; File z:\sampsrc\02xu1\raknet\rakserver.cpp
;	COMDAT ?InitializeSecurity@RakServer@@UAEXPBD0@Z
_TEXT	SEGMENT
_this$ = -8						; size = 4
_pubKeyE$ = 8						; size = 4
_pubKeyN$ = 12						; size = 4
?InitializeSecurity@RakServer@@UAEXPBD0@Z PROC		; RakServer::InitializeSecurity, COMDAT
; _this$ = ecx

; 38   : {

	push	ebp
	mov	ebp, esp
	sub	esp, 204				; 000000ccH
	push	ebx
	push	esi
	push	edi
	push	ecx
	lea	edi, DWORD PTR [ebp-204]
	mov	ecx, 51					; 00000033H
	mov	eax, -858993460				; ccccccccH
	rep stosd
	pop	ecx
	mov	DWORD PTR _this$[ebp], ecx

; 39   : 	RakPeer::InitializeSecurity( 0, 0, pubKeyE, pubKeyN );

	mov	eax, DWORD PTR _pubKeyN$[ebp]
	push	eax
	mov	ecx, DWORD PTR _pubKeyE$[ebp]
	push	ecx
	push	0
	push	0
	mov	ecx, DWORD PTR _this$[ebp]
	add	ecx, 4
	call	?InitializeSecurity@RakPeer@@UAEXPBD000@Z ; RakPeer::InitializeSecurity

; 40   : }

	pop	edi
	pop	esi
	pop	ebx
	add	esp, 204				; 000000ccH
	cmp	ebp, esp
	call	__RTC_CheckEsp
	mov	esp, ebp
	pop	ebp
	ret	8
?InitializeSecurity@RakServer@@UAEXPBD0@Z ENDP		; RakServer::InitializeSecurity
_TEXT	ENDS
; Function compile flags: /Odtp /RTCsu /ZI
; File z:\sampsrc\02xu1\raknet\rakserver.cpp
;	COMDAT ?Start@RakServer@@UAE_NGIHGPBD@Z
_TEXT	SEGMENT
_time$ = -32						; size = 4
_init$ = -17						; size = 1
_this$ = -8						; size = 4
_AllowedPlayers$ = 8					; size = 2
_depreciated$ = 12					; size = 4
_threadSleepTimer$ = 16					; size = 4
_port$ = 20						; size = 2
_forceHostAddress$ = 24					; size = 4
?Start@RakServer@@UAE_NGIHGPBD@Z PROC			; RakServer::Start, COMDAT
; _this$ = ecx

; 51   : {

	push	ebp
	mov	ebp, esp
	sub	esp, 228				; 000000e4H
	push	ebx
	push	esi
	push	edi
	push	ecx
	lea	edi, DWORD PTR [ebp-228]
	mov	ecx, 57					; 00000039H
	mov	eax, -858993460				; ccccccccH
	rep stosd
	pop	ecx
	mov	DWORD PTR _this$[ebp], ecx

; 52   : 	bool init;
; 53   : 
; 54   : 	RakPeer::Disconnect( 30 );

	push	0
	push	30					; 0000001eH
	mov	ecx, DWORD PTR _this$[ebp]
	add	ecx, 4
	call	?Disconnect@RakPeer@@UAEXIE@Z		; RakPeer::Disconnect

; 55   : 
; 56   : 	init = RakPeer::Initialize( AllowedPlayers, port, threadSleepTimer, forceHostAddress );

	mov	eax, DWORD PTR _forceHostAddress$[ebp]
	push	eax
	mov	ecx, DWORD PTR _threadSleepTimer$[ebp]
	push	ecx
	movzx	edx, WORD PTR _port$[ebp]
	push	edx
	movzx	eax, WORD PTR _AllowedPlayers$[ebp]
	push	eax
	mov	ecx, DWORD PTR _this$[ebp]
	add	ecx, 4
	call	?Initialize@RakPeer@@UAE_NGGHPBD@Z	; RakPeer::Initialize
	mov	BYTE PTR _init$[ebp], al

; 57   : 	RakPeer::SetMaximumIncomingConnections( AllowedPlayers );

	movzx	eax, WORD PTR _AllowedPlayers$[ebp]
	push	eax
	mov	ecx, DWORD PTR _this$[ebp]
	add	ecx, 4
	call	?SetMaximumIncomingConnections@RakPeer@@UAEXG@Z ; RakPeer::SetMaximumIncomingConnections

; 58   : 
; 59   : 	// Random number seed
; 60   : 	RakNetTime time = RakNet::GetTime();

	call	?GetTime@RakNet@@YAIXZ			; RakNet::GetTime
	mov	DWORD PTR _time$[ebp], eax

; 61   : 	seedMT( (unsigned int) time );

	mov	eax, DWORD PTR _time$[ebp]
	push	eax
	call	?seedMT@@YAXI@Z				; seedMT
	add	esp, 4

; 62   : 	seed = randomMT();

	call	?randomMT@@YAIXZ			; randomMT
	mov	ecx, DWORD PTR _this$[ebp]
	mov	DWORD PTR [ecx+2542], eax

; 63   : 
; 64   : 	if ( seed % 2 == 0 )   // Even

	mov	eax, DWORD PTR _this$[ebp]
	mov	eax, DWORD PTR [eax+2542]
	xor	edx, edx
	mov	ecx, 2
	div	ecx
	test	edx, edx
	jne	SHORT $LN2@Start

; 65   : 		seed--; // make odd

	mov	eax, DWORD PTR _this$[ebp]
	mov	ecx, DWORD PTR [eax+2542]
	sub	ecx, 1
	mov	edx, DWORD PTR _this$[ebp]
	mov	DWORD PTR [edx+2542], ecx
$LN2@Start:

; 66   : 
; 67   : 	nextSeed = randomMT();

	call	?randomMT@@YAIXZ			; randomMT
	mov	ecx, DWORD PTR _this$[ebp]
	mov	DWORD PTR [ecx+2546], eax

; 68   : 
; 69   : 	if ( nextSeed % 2 == 0 )   // Even

	mov	eax, DWORD PTR _this$[ebp]
	mov	eax, DWORD PTR [eax+2546]
	xor	edx, edx
	mov	ecx, 2
	div	ecx
	test	edx, edx
	jne	SHORT $LN1@Start

; 70   : 		nextSeed--; // make odd

	mov	eax, DWORD PTR _this$[ebp]
	mov	ecx, DWORD PTR [eax+2546]
	sub	ecx, 1
	mov	edx, DWORD PTR _this$[ebp]
	mov	DWORD PTR [edx+2546], ecx
$LN1@Start:

; 71   : 
; 72   : 	return init;

	mov	al, BYTE PTR _init$[ebp]

; 73   : }

	pop	edi
	pop	esi
	pop	ebx
	add	esp, 228				; 000000e4H
	cmp	ebp, esp
	call	__RTC_CheckEsp
	mov	esp, ebp
	pop	ebp
	ret	20					; 00000014H
?Start@RakServer@@UAE_NGIHGPBD@Z ENDP			; RakServer::Start
_TEXT	ENDS
; Function compile flags: /Odtp /RTCsu /ZI
; File z:\sampsrc\02xu1\raknet\rakserver.cpp
;	COMDAT ??1RakServer@@UAE@XZ
_TEXT	SEGMENT
_this$ = -20						; size = 4
__$EHRec$ = -12						; size = 12
??1RakServer@@UAE@XZ PROC				; RakServer::~RakServer, COMDAT
; _this$ = ecx

; 35   : {}

	push	ebp
	mov	ebp, esp
	push	-1
	push	__ehhandler$??1RakServer@@UAE@XZ
	mov	eax, DWORD PTR fs:0
	push	eax
	sub	esp, 204				; 000000ccH
	push	ebx
	push	esi
	push	edi
	push	ecx
	lea	edi, DWORD PTR [ebp-216]
	mov	ecx, 51					; 00000033H
	mov	eax, -858993460				; ccccccccH
	rep stosd
	pop	ecx
	mov	eax, DWORD PTR ___security_cookie
	xor	eax, ebp
	push	eax
	lea	eax, DWORD PTR __$EHRec$[ebp]
	mov	DWORD PTR fs:0, eax
	mov	DWORD PTR _this$[ebp], ecx
	mov	eax, DWORD PTR _this$[ebp]
	mov	DWORD PTR [eax], OFFSET ??_7RakServer@@6BRakServerInterface@@@
	mov	eax, DWORD PTR _this$[ebp]
	mov	DWORD PTR [eax+4], OFFSET ??_7RakServer@@6BRakPeer@@@
	mov	DWORD PTR __$EHRec$[ebp+8], 0
	mov	ecx, DWORD PTR _this$[ebp]
	add	ecx, 4
	call	??1RakPeer@@UAE@XZ			; RakPeer::~RakPeer
	mov	DWORD PTR __$EHRec$[ebp+8], -1
	mov	ecx, DWORD PTR _this$[ebp]
	call	??1RakServerInterface@@UAE@XZ		; RakServerInterface::~RakServerInterface
	mov	ecx, DWORD PTR __$EHRec$[ebp]
	mov	DWORD PTR fs:0, ecx
	pop	ecx
	pop	edi
	pop	esi
	pop	ebx
	add	esp, 216				; 000000d8H
	cmp	ebp, esp
	call	__RTC_CheckEsp
	mov	esp, ebp
	pop	ebp
	ret	0
_TEXT	ENDS
;	COMDAT text$x
text$x	SEGMENT
__unwindfunclet$??1RakServer@@UAE@XZ$0:
	mov	ecx, DWORD PTR _this$[ebp]
	jmp	??1RakServerInterface@@UAE@XZ		; RakServerInterface::~RakServerInterface
__ehhandler$??1RakServer@@UAE@XZ:
	mov	edx, DWORD PTR [esp+8]
	lea	eax, DWORD PTR [edx+12]
	mov	ecx, DWORD PTR [edx-220]
	xor	ecx, eax
	call	@__security_check_cookie@4
	mov	eax, OFFSET __ehfuncinfo$??1RakServer@@UAE@XZ
	jmp	___CxxFrameHandler3
text$x	ENDS
??1RakServer@@UAE@XZ ENDP				; RakServer::~RakServer
; Function compile flags: /Odtp /RTCsu /ZI
; File z:\sampsrc\02xu1\raknet\rakserver.cpp
;	COMDAT ??0RakServer@@QAE@XZ
_TEXT	SEGMENT
_this$ = -20						; size = 4
__$EHRec$ = -12						; size = 12
??0RakServer@@QAE@XZ PROC				; RakServer::RakServer, COMDAT
; _this$ = ecx

; 27   : {

	push	ebp
	mov	ebp, esp
	push	-1
	push	__ehhandler$??0RakServer@@QAE@XZ
	mov	eax, DWORD PTR fs:0
	push	eax
	sub	esp, 204				; 000000ccH
	push	ebx
	push	esi
	push	edi
	push	ecx
	lea	edi, DWORD PTR [ebp-216]
	mov	ecx, 51					; 00000033H
	mov	eax, -858993460				; ccccccccH
	rep stosd
	pop	ecx
	mov	eax, DWORD PTR ___security_cookie
	xor	eax, ebp
	push	eax
	lea	eax, DWORD PTR __$EHRec$[ebp]
	mov	DWORD PTR fs:0, eax
	mov	DWORD PTR _this$[ebp], ecx
	mov	ecx, DWORD PTR _this$[ebp]
	call	??0RakServerInterface@@QAE@XZ
	mov	DWORD PTR __$EHRec$[ebp+8], 0
	mov	ecx, DWORD PTR _this$[ebp]
	add	ecx, 4
	call	??0RakPeer@@QAE@XZ			; RakPeer::RakPeer
	mov	eax, DWORD PTR _this$[ebp]
	mov	DWORD PTR [eax], OFFSET ??_7RakServer@@6BRakServerInterface@@@
	mov	eax, DWORD PTR _this$[ebp]
	mov	DWORD PTR [eax+4], OFFSET ??_7RakServer@@6BRakPeer@@@

; 28   : 	nextSeedUpdate = 0;

	mov	eax, DWORD PTR _this$[ebp]
	mov	DWORD PTR [eax+2554], 0

; 29   : 	synchronizedRandomInteger = false;

	mov	eax, DWORD PTR _this$[ebp]
	mov	BYTE PTR [eax+2558], 0

; 30   : 	relayStaticClientData = false;

	mov	eax, DWORD PTR _this$[ebp]
	mov	BYTE PTR [eax+2559], 0

; 31   : 	broadcastPingsTime = 0;

	mov	eax, DWORD PTR _this$[ebp]
	mov	DWORD PTR [eax+2550], 0

; 32   : }

	mov	DWORD PTR __$EHRec$[ebp+8], -1
	mov	eax, DWORD PTR _this$[ebp]
	mov	ecx, DWORD PTR __$EHRec$[ebp]
	mov	DWORD PTR fs:0, ecx
	pop	ecx
	pop	edi
	pop	esi
	pop	ebx
	add	esp, 216				; 000000d8H
	cmp	ebp, esp
	call	__RTC_CheckEsp
	mov	esp, ebp
	pop	ebp
	ret	0
_TEXT	ENDS
;	COMDAT text$x
text$x	SEGMENT
__unwindfunclet$??0RakServer@@QAE@XZ$0:
	mov	ecx, DWORD PTR _this$[ebp]
	jmp	??1RakServerInterface@@UAE@XZ		; RakServerInterface::~RakServerInterface
__ehhandler$??0RakServer@@QAE@XZ:
	mov	edx, DWORD PTR [esp+8]
	lea	eax, DWORD PTR [edx+12]
	mov	ecx, DWORD PTR [edx-220]
	xor	ecx, eax
	call	@__security_check_cookie@4
	mov	eax, OFFSET __ehfuncinfo$??0RakServer@@QAE@XZ
	jmp	___CxxFrameHandler3
text$x	ENDS
??0RakServer@@QAE@XZ ENDP				; RakServer::RakServer
; Function compile flags: /Odtp /RTCsu /ZI
;	COMDAT ??_GRakServerInterface@@UAEPAXI@Z
_TEXT	SEGMENT
_this$ = -8						; size = 4
___flags$ = 8						; size = 4
??_GRakServerInterface@@UAEPAXI@Z PROC			; RakServerInterface::`scalar deleting destructor', COMDAT
; _this$ = ecx
	push	ebp
	mov	ebp, esp
	sub	esp, 204				; 000000ccH
	push	ebx
	push	esi
	push	edi
	push	ecx
	lea	edi, DWORD PTR [ebp-204]
	mov	ecx, 51					; 00000033H
	mov	eax, -858993460				; ccccccccH
	rep stosd
	pop	ecx
	mov	DWORD PTR _this$[ebp], ecx
	mov	ecx, DWORD PTR _this$[ebp]
	call	??1RakServerInterface@@UAE@XZ		; RakServerInterface::~RakServerInterface
	mov	eax, DWORD PTR ___flags$[ebp]
	and	eax, 1
	je	SHORT $LN1@scalar
	mov	eax, DWORD PTR _this$[ebp]
	push	eax
	call	??3@YAXPAX@Z				; operator delete
	add	esp, 4
$LN1@scalar:
	mov	eax, DWORD PTR _this$[ebp]
	pop	edi
	pop	esi
	pop	ebx
	add	esp, 204				; 000000ccH
	cmp	ebp, esp
	call	__RTC_CheckEsp
	mov	esp, ebp
	pop	ebp
	ret	4
??_GRakServerInterface@@UAEPAXI@Z ENDP			; RakServerInterface::`scalar deleting destructor'
_TEXT	ENDS
; Function compile flags: /Odtp /RTCsu /ZI
;	COMDAT ??0RakServerInterface@@QAE@XZ
_TEXT	SEGMENT
_this$ = -8						; size = 4
??0RakServerInterface@@QAE@XZ PROC			; RakServerInterface::RakServerInterface, COMDAT
; _this$ = ecx
	push	ebp
	mov	ebp, esp
	sub	esp, 204				; 000000ccH
	push	ebx
	push	esi
	push	edi
	push	ecx
	lea	edi, DWORD PTR [ebp-204]
	mov	ecx, 51					; 00000033H
	mov	eax, -858993460				; ccccccccH
	rep stosd
	pop	ecx
	mov	DWORD PTR _this$[ebp], ecx
	mov	eax, DWORD PTR _this$[ebp]
	mov	DWORD PTR [eax], OFFSET ??_7RakServerInterface@@6B@
	mov	eax, DWORD PTR _this$[ebp]
	pop	edi
	pop	esi
	pop	ebx
	mov	esp, ebp
	pop	ebp
	ret	0
??0RakServerInterface@@QAE@XZ ENDP			; RakServerInterface::RakServerInterface
_TEXT	ENDS
; Function compile flags: /Odtp /RTCsu /ZI
; File z:\sampsrc\02xu1\raknet\rakserverinterface.h
;	COMDAT ??1RakServerInterface@@UAE@XZ
_TEXT	SEGMENT
_this$ = -8						; size = 4
??1RakServerInterface@@UAE@XZ PROC			; RakServerInterface::~RakServerInterface, COMDAT
; _this$ = ecx

; 36   : 	virtual ~RakServerInterface() {}

	push	ebp
	mov	ebp, esp
	sub	esp, 204				; 000000ccH
	push	ebx
	push	esi
	push	edi
	push	ecx
	lea	edi, DWORD PTR [ebp-204]
	mov	ecx, 51					; 00000033H
	mov	eax, -858993460				; ccccccccH
	rep stosd
	pop	ecx
	mov	DWORD PTR _this$[ebp], ecx
	mov	eax, DWORD PTR _this$[ebp]
	mov	DWORD PTR [eax], OFFSET ??_7RakServerInterface@@6B@
	pop	edi
	pop	esi
	pop	ebx
	mov	esp, ebp
	pop	ebp
	ret	0
??1RakServerInterface@@UAE@XZ ENDP			; RakServerInterface::~RakServerInterface
_TEXT	ENDS
; Function compile flags: /Odtp /RTCsu /ZI
; File z:\sampsrc\02xu1\raknet\bitstream.h
;	COMDAT ??$Write@G@BitStream@RakNet@@QAEXG@Z
_TEXT	SEGMENT
_this$ = -8						; size = 4
_var$ = 8						; size = 2
??$Write@G@BitStream@RakNet@@QAEXG@Z PROC		; RakNet::BitStream::Write<unsigned short>, COMDAT
; _this$ = ecx

; 729  : 	{

	push	ebp
	mov	ebp, esp
	sub	esp, 204				; 000000ccH
	push	ebx
	push	esi
	push	edi
	push	ecx
	lea	edi, DWORD PTR [ebp-204]
	mov	ecx, 51					; 00000033H
	mov	eax, -858993460				; ccccccccH
	rep stosd
	pop	ecx
	mov	DWORD PTR _this$[ebp], ecx

; 730  : #ifdef _MSC_VER
; 731  : #pragma warning(disable:4127)   // conditional expression is constant
; 732  : #endif
; 733  : 		if (sizeof(var)==1)

	xor	eax, eax
	je	SHORT $LN2@Write

; 734  : 			WriteBits( ( unsigned char* ) & var, sizeof( templateType ) * 8, true );

	push	1
	push	16					; 00000010H
	lea	eax, DWORD PTR _var$[ebp]
	push	eax
	mov	ecx, DWORD PTR _this$[ebp]
	call	?WriteBits@BitStream@RakNet@@QAEXPBEH_N@Z ; RakNet::BitStream::WriteBits

; 735  : 		else

	jmp	SHORT $LN3@Write
$LN2@Write:

; 736  : 		{
; 737  : #ifndef __BITSTREAM_NATIVE_END
; 738  : 			if (DoEndianSwap())
; 739  : 			{
; 740  : 				unsigned char output[sizeof(templateType)];
; 741  : 				ReverseBytes((unsigned char*)&var, output, sizeof(templateType));
; 742  : 				WriteBits( ( unsigned char* ) output, sizeof(templateType) * 8, true );
; 743  : 			}
; 744  : 			else
; 745  : #endif
; 746  : 				WriteBits( ( unsigned char* ) & var, sizeof(templateType) * 8, true );

	push	1
	push	16					; 00000010H
	lea	eax, DWORD PTR _var$[ebp]
	push	eax
	mov	ecx, DWORD PTR _this$[ebp]
	call	?WriteBits@BitStream@RakNet@@QAEXPBEH_N@Z ; RakNet::BitStream::WriteBits
$LN3@Write:

; 747  : 		}
; 748  : 	}

	pop	edi
	pop	esi
	pop	ebx
	add	esp, 204				; 000000ccH
	cmp	ebp, esp
	call	__RTC_CheckEsp
	mov	esp, ebp
	pop	ebp
	ret	4
??$Write@G@BitStream@RakNet@@QAEXG@Z ENDP		; RakNet::BitStream::Write<unsigned short>
_TEXT	ENDS
; Function compile flags: /Odtp /RTCsu /ZI
; File z:\sampsrc\02xu1\raknet\bitstream.h
;	COMDAT ??$Write@I@BitStream@RakNet@@QAEXI@Z
_TEXT	SEGMENT
_this$ = -8						; size = 4
_var$ = 8						; size = 4
??$Write@I@BitStream@RakNet@@QAEXI@Z PROC		; RakNet::BitStream::Write<unsigned int>, COMDAT
; _this$ = ecx

; 729  : 	{

	push	ebp
	mov	ebp, esp
	sub	esp, 204				; 000000ccH
	push	ebx
	push	esi
	push	edi
	push	ecx
	lea	edi, DWORD PTR [ebp-204]
	mov	ecx, 51					; 00000033H
	mov	eax, -858993460				; ccccccccH
	rep stosd
	pop	ecx
	mov	DWORD PTR _this$[ebp], ecx

; 730  : #ifdef _MSC_VER
; 731  : #pragma warning(disable:4127)   // conditional expression is constant
; 732  : #endif
; 733  : 		if (sizeof(var)==1)

	xor	eax, eax
	je	SHORT $LN2@Write

; 734  : 			WriteBits( ( unsigned char* ) & var, sizeof( templateType ) * 8, true );

	push	1
	push	32					; 00000020H
	lea	eax, DWORD PTR _var$[ebp]
	push	eax
	mov	ecx, DWORD PTR _this$[ebp]
	call	?WriteBits@BitStream@RakNet@@QAEXPBEH_N@Z ; RakNet::BitStream::WriteBits

; 735  : 		else

	jmp	SHORT $LN3@Write
$LN2@Write:

; 736  : 		{
; 737  : #ifndef __BITSTREAM_NATIVE_END
; 738  : 			if (DoEndianSwap())
; 739  : 			{
; 740  : 				unsigned char output[sizeof(templateType)];
; 741  : 				ReverseBytes((unsigned char*)&var, output, sizeof(templateType));
; 742  : 				WriteBits( ( unsigned char* ) output, sizeof(templateType) * 8, true );
; 743  : 			}
; 744  : 			else
; 745  : #endif
; 746  : 				WriteBits( ( unsigned char* ) & var, sizeof(templateType) * 8, true );

	push	1
	push	32					; 00000020H
	lea	eax, DWORD PTR _var$[ebp]
	push	eax
	mov	ecx, DWORD PTR _this$[ebp]
	call	?WriteBits@BitStream@RakNet@@QAEXPBEH_N@Z ; RakNet::BitStream::WriteBits
$LN3@Write:

; 747  : 		}
; 748  : 	}

	pop	edi
	pop	esi
	pop	ebx
	add	esp, 204				; 000000ccH
	cmp	ebp, esp
	call	__RTC_CheckEsp
	mov	esp, ebp
	pop	ebp
	ret	4
??$Write@I@BitStream@RakNet@@QAEXI@Z ENDP		; RakNet::BitStream::Write<unsigned int>
_TEXT	ENDS
; Function compile flags: /Odtp /RTCsu /ZI
; File z:\sampsrc\02xu1\raknet\bitstream.h
;	COMDAT ?GetData@BitStream@RakNet@@QBEPAEXZ
_TEXT	SEGMENT
_this$ = -8						; size = 4
?GetData@BitStream@RakNet@@QBEPAEXZ PROC		; RakNet::BitStream::GetData, COMDAT
; _this$ = ecx

; 397  : 		inline unsigned char* GetData( void ) const {return data;}

	push	ebp
	mov	ebp, esp
	sub	esp, 204				; 000000ccH
	push	ebx
	push	esi
	push	edi
	push	ecx
	lea	edi, DWORD PTR [ebp-204]
	mov	ecx, 51					; 00000033H
	mov	eax, -858993460				; ccccccccH
	rep stosd
	pop	ecx
	mov	DWORD PTR _this$[ebp], ecx
	mov	eax, DWORD PTR _this$[ebp]
	mov	eax, DWORD PTR [eax+12]
	pop	edi
	pop	esi
	pop	ebx
	mov	esp, ebp
	pop	ebp
	ret	0
?GetData@BitStream@RakNet@@QBEPAEXZ ENDP		; RakNet::BitStream::GetData
_TEXT	ENDS
; Function compile flags: /Odtp /RTCsu /ZI
; File z:\sampsrc\02xu1\raknet\bitstream.h
;	COMDAT ?GetNumberOfBytesUsed@BitStream@RakNet@@QBEHXZ
_TEXT	SEGMENT
_this$ = -8						; size = 4
?GetNumberOfBytesUsed@BitStream@RakNet@@QBEHXZ PROC	; RakNet::BitStream::GetNumberOfBytesUsed, COMDAT
; _this$ = ecx

; 373  : 		inline int GetNumberOfBytesUsed( void ) const {return BITS_TO_BYTES( numberOfBitsUsed );}

	push	ebp
	mov	ebp, esp
	sub	esp, 204				; 000000ccH
	push	ebx
	push	esi
	push	edi
	push	ecx
	lea	edi, DWORD PTR [ebp-204]
	mov	ecx, 51					; 00000033H
	mov	eax, -858993460				; ccccccccH
	rep stosd
	pop	ecx
	mov	DWORD PTR _this$[ebp], ecx
	mov	eax, DWORD PTR _this$[ebp]
	mov	eax, DWORD PTR [eax]
	add	eax, 7
	sar	eax, 3
	pop	edi
	pop	esi
	pop	ebx
	mov	esp, ebp
	pop	ebp
	ret	0
?GetNumberOfBytesUsed@BitStream@RakNet@@QBEHXZ ENDP	; RakNet::BitStream::GetNumberOfBytesUsed
_TEXT	ENDS
END
