; Listing generated by Microsoft (R) Optimizing Compiler Version 18.00.31101.0 

	TITLE	Z:\sampsrc\02Xu1\raknet\ReliabilityLayer.cpp
	.686P
	.XMM
	include listing.inc
	.model	flat

INCLUDELIB LIBCMTD
INCLUDELIB OLDNAMES

CONST	SEGMENT
_PACKETLOSS_TOLERANCE DD 03ca3d70ar		; 0.02
_PING_MULTIPLIER_TO_RESEND DD 040400000r	; 3
_MINIMUM_SEND_BPS DQ 040cc200000000000r		; 14400
_STARTING_SEND_BPS DQ 040dc200000000000r	; 28800
CONST	ENDS
PUBLIC	?Instance@SocketLayer@@SAPAV1@XZ		; SocketLayer::Instance
PUBLIC	?GetNumberOfBitsUsed@BitStream@RakNet@@QBEHXZ	; RakNet::BitStream::GetNumberOfBitsUsed
PUBLIC	?GetWriteOffset@BitStream@RakNet@@QBEHXZ	; RakNet::BitStream::GetWriteOffset
PUBLIC	?GetNumberOfBytesUsed@BitStream@RakNet@@QBEHXZ	; RakNet::BitStream::GetNumberOfBytesUsed
PUBLIC	?GetNumberOfUnreadBits@BitStream@RakNet@@QBEHXZ	; RakNet::BitStream::GetNumberOfUnreadBits
PUBLIC	?GetData@BitStream@RakNet@@QBEPAEXZ		; RakNet::BitStream::GetData
PUBLIC	??$Write@_N@BitStream@RakNet@@QAEX_N@Z		; RakNet::BitStream::Write<bool>
PUBLIC	??$Write@G@BitStream@RakNet@@QAEXG@Z		; RakNet::BitStream::Write<unsigned short>
PUBLIC	??$Read@_N@BitStream@RakNet@@QAE_NAA_N@Z	; RakNet::BitStream::Read<bool>
PUBLIC	??$Read@G@BitStream@RakNet@@QAE_NAAG@Z		; RakNet::BitStream::Read<unsigned short>
PUBLIC	?GetPointer@InternalPacketPool@@QAEPAUInternalPacket@@XZ ; InternalPacketPool::GetPointer
PUBLIC	??0?$Queue@PAUInternalPacket@@@DataStructures@@QAE@XZ ; DataStructures::Queue<InternalPacket *>::Queue<InternalPacket *>
PUBLIC	??1?$Queue@PAUInternalPacket@@@DataStructures@@QAE@XZ ; DataStructures::Queue<InternalPacket *>::~Queue<InternalPacket *>
PUBLIC	?Push@?$Queue@PAUInternalPacket@@@DataStructures@@QAEXABQAUInternalPacket@@@Z ; DataStructures::Queue<InternalPacket *>::Push
PUBLIC	?PushAtHead@?$Queue@PAUInternalPacket@@@DataStructures@@QAEXABQAUInternalPacket@@I@Z ; DataStructures::Queue<InternalPacket *>::PushAtHead
PUBLIC	??A?$Queue@PAUInternalPacket@@@DataStructures@@QBEAAPAUInternalPacket@@I@Z ; DataStructures::Queue<InternalPacket *>::operator[]
PUBLIC	?Del@?$Queue@PAUInternalPacket@@@DataStructures@@QAEXI@Z ; DataStructures::Queue<InternalPacket *>::Del
PUBLIC	?Peek@?$Queue@PAUInternalPacket@@@DataStructures@@QBEPAUInternalPacket@@XZ ; DataStructures::Queue<InternalPacket *>::Peek
PUBLIC	?Pop@?$Queue@PAUInternalPacket@@@DataStructures@@QAEPAUInternalPacket@@XZ ; DataStructures::Queue<InternalPacket *>::Pop
PUBLIC	?Size@?$Queue@PAUInternalPacket@@@DataStructures@@QBEIXZ ; DataStructures::Queue<InternalPacket *>::Size
PUBLIC	?ClearAndForceAllocation@?$Queue@PAUInternalPacket@@@DataStructures@@QAEXH@Z ; DataStructures::Queue<InternalPacket *>::ClearAndForceAllocation
PUBLIC	?SplitPacketIndexComp@@YAHABIABQAUInternalPacket@@@Z ; SplitPacketIndexComp
PUBLIC	??0?$OrderedList@IPAUInternalPacket@@$1?SplitPacketIndexComp@@YAHABIABQAU1@@Z@DataStructures@@QAE@XZ ; DataStructures::OrderedList<unsigned int,InternalPacket *,&SplitPacketIndexComp>::OrderedList<unsigned int,InternalPacket *,&SplitPacketIndexComp>
PUBLIC	??1?$OrderedList@IPAUInternalPacket@@$1?SplitPacketIndexComp@@YAHABIABQAU1@@Z@DataStructures@@QAE@XZ ; DataStructures::OrderedList<unsigned int,InternalPacket *,&SplitPacketIndexComp>::~OrderedList<unsigned int,InternalPacket *,&SplitPacketIndexComp>
PUBLIC	?GetIndexFromKey@?$OrderedList@IPAUInternalPacket@@$1?SplitPacketIndexComp@@YAHABIABQAU1@@Z@DataStructures@@QBEIABIPA_N@Z ; DataStructures::OrderedList<unsigned int,InternalPacket *,&SplitPacketIndexComp>::GetIndexFromKey
PUBLIC	?Insert@?$OrderedList@IPAUInternalPacket@@$1?SplitPacketIndexComp@@YAHABIABQAU1@@Z@DataStructures@@QAEIABIABQAUInternalPacket@@@Z ; DataStructures::OrderedList<unsigned int,InternalPacket *,&SplitPacketIndexComp>::Insert
PUBLIC	??A?$OrderedList@IPAUInternalPacket@@$1?SplitPacketIndexComp@@YAHABIABQAU1@@Z@DataStructures@@QBEAAPAUInternalPacket@@I@Z ; DataStructures::OrderedList<unsigned int,InternalPacket *,&SplitPacketIndexComp>::operator[]
PUBLIC	?Clear@?$OrderedList@IPAUInternalPacket@@$1?SplitPacketIndexComp@@YAHABIABQAU1@@Z@DataStructures@@QAEXXZ ; DataStructures::OrderedList<unsigned int,InternalPacket *,&SplitPacketIndexComp>::Clear
PUBLIC	?Size@?$OrderedList@IPAUInternalPacket@@$1?SplitPacketIndexComp@@YAHABIABQAU1@@Z@DataStructures@@QBEIXZ ; DataStructures::OrderedList<unsigned int,InternalPacket *,&SplitPacketIndexComp>::Size
PUBLIC	??0?$List@PAUInternalPacket@@@DataStructures@@QAE@XZ ; DataStructures::List<InternalPacket *>::List<InternalPacket *>
PUBLIC	??1?$List@PAUInternalPacket@@@DataStructures@@QAE@XZ ; DataStructures::List<InternalPacket *>::~List<InternalPacket *>
PUBLIC	??A?$List@PAUInternalPacket@@@DataStructures@@QBEAAPAUInternalPacket@@I@Z ; DataStructures::List<InternalPacket *>::operator[]
PUBLIC	?Insert@?$List@PAUInternalPacket@@@DataStructures@@QAEXQAUInternalPacket@@I@Z ; DataStructures::List<InternalPacket *>::Insert
PUBLIC	?Insert@?$List@PAUInternalPacket@@@DataStructures@@QAEXQAUInternalPacket@@@Z ; DataStructures::List<InternalPacket *>::Insert
PUBLIC	?RemoveAtIndex@?$List@PAUInternalPacket@@@DataStructures@@QAEXI@Z ; DataStructures::List<InternalPacket *>::RemoveAtIndex
PUBLIC	?Del@?$List@PAUInternalPacket@@@DataStructures@@QAEXI@Z ; DataStructures::List<InternalPacket *>::Del
PUBLIC	?Size@?$List@PAUInternalPacket@@@DataStructures@@QBEIXZ ; DataStructures::List<InternalPacket *>::Size
PUBLIC	?Clear@?$List@PAUInternalPacket@@@DataStructures@@QAEX_N@Z ; DataStructures::List<InternalPacket *>::Clear
PUBLIC	??0SplitPacketChannel@@QAE@XZ			; SplitPacketChannel::SplitPacketChannel
PUBLIC	??1SplitPacketChannel@@QAE@XZ			; SplitPacketChannel::~SplitPacketChannel
PUBLIC	??_GSplitPacketChannel@@QAEPAXI@Z		; SplitPacketChannel::`scalar deleting destructor'
PUBLIC	?SplitPacketChannelComp@@YAHABGABQAUSplitPacketChannel@@@Z ; SplitPacketChannelComp
PUBLIC	??0ReliabilityLayer@@QAE@XZ			; ReliabilityLayer::ReliabilityLayer
PUBLIC	??1ReliabilityLayer@@QAE@XZ			; ReliabilityLayer::~ReliabilityLayer
PUBLIC	?Reset@ReliabilityLayer@@QAEX_N@Z		; ReliabilityLayer::Reset
PUBLIC	?SetEncryptionKey@ReliabilityLayer@@QAEXPBE@Z	; ReliabilityLayer::SetEncryptionKey
PUBLIC	?SetSocket@ReliabilityLayer@@QAEXI@Z		; ReliabilityLayer::SetSocket
PUBLIC	?GetSocket@ReliabilityLayer@@QAEIXZ		; ReliabilityLayer::GetSocket
PUBLIC	?SetTimeoutTime@ReliabilityLayer@@QAEXI@Z	; ReliabilityLayer::SetTimeoutTime
PUBLIC	?GetTimeoutTime@ReliabilityLayer@@QAEIXZ	; ReliabilityLayer::GetTimeoutTime
PUBLIC	?HandleSocketReceiveFromConnectedPlayer@ReliabilityLayer@@QAE_NPBDHUPlayerID@@AAV?$List@PAVPluginInterface@@@DataStructures@@H@Z ; ReliabilityLayer::HandleSocketReceiveFromConnectedPlayer
PUBLIC	?Receive@ReliabilityLayer@@QAEHPAPAE@Z		; ReliabilityLayer::Receive
PUBLIC	?Send@ReliabilityLayer@@QAE_NPADHW4PacketPriority@@W4PacketReliability@@E_NH_J@Z ; ReliabilityLayer::Send
PUBLIC	?Update@ReliabilityLayer@@QAEXIUPlayerID@@H_JAAV?$List@PAVPluginInterface@@@DataStructures@@@Z ; ReliabilityLayer::Update
PUBLIC	?IsCheater@ReliabilityLayer@@QBE_NXZ		; ReliabilityLayer::IsCheater
PUBLIC	?IsDeadConnection@ReliabilityLayer@@QBE_NXZ	; ReliabilityLayer::IsDeadConnection
PUBLIC	?KillConnection@ReliabilityLayer@@QAEXXZ	; ReliabilityLayer::KillConnection
PUBLIC	?SetPing@ReliabilityLayer@@QAEXI@Z		; ReliabilityLayer::SetPing
PUBLIC	?GetStatistics@ReliabilityLayer@@QAEQAURakNetStatisticsStruct@@XZ ; ReliabilityLayer::GetStatistics
PUBLIC	?IsDataWaiting@ReliabilityLayer@@QAE_NXZ	; ReliabilityLayer::IsDataWaiting
PUBLIC	?AreAcksWaiting@ReliabilityLayer@@QAE_NXZ	; ReliabilityLayer::AreAcksWaiting
PUBLIC	?ApplyNetworkSimulator@ReliabilityLayer@@QAEXNII@Z ; ReliabilityLayer::ApplyNetworkSimulator
PUBLIC	?SetSplitMessageProgressInterval@ReliabilityLayer@@QAEXH@Z ; ReliabilityLayer::SetSplitMessageProgressInterval
PUBLIC	?SetUnreliableTimeout@ReliabilityLayer@@QAEXI@Z	; ReliabilityLayer::SetUnreliableTimeout
PUBLIC	?GenerateDatagram@ReliabilityLayer@@AAEIPAVBitStream@RakNet@@HPA_N_JUPlayerID@@AAV?$List@PAVPluginInterface@@@DataStructures@@@Z ; ReliabilityLayer::GenerateDatagram
PUBLIC	?SendBitStream@ReliabilityLayer@@AAEXIUPlayerID@@PAVBitStream@RakNet@@@Z ; ReliabilityLayer::SendBitStream
PUBLIC	?WriteToBitStreamFromInternalPacket@ReliabilityLayer@@AAEHPAVBitStream@RakNet@@QBUInternalPacket@@@Z ; ReliabilityLayer::WriteToBitStreamFromInternalPacket
PUBLIC	?CreateInternalPacketFromBitStream@ReliabilityLayer@@AAEPAUInternalPacket@@PAVBitStream@RakNet@@_J@Z ; ReliabilityLayer::CreateInternalPacketFromBitStream
PUBLIC	?RemovePacketFromResendListAndDeleteOlderReliableSequenced@ReliabilityLayer@@AAEIG_J@Z ; ReliabilityLayer::RemovePacketFromResendListAndDeleteOlderReliableSequenced
PUBLIC	?SendAcknowledgementPacket@ReliabilityLayer@@AAEXG_J@Z ; ReliabilityLayer::SendAcknowledgementPacket
PUBLIC	?IsSendThrottled@ReliabilityLayer@@AAE_NH@Z	; ReliabilityLayer::IsSendThrottled
PUBLIC	?UpdateWindowFromPacketloss@ReliabilityLayer@@AAEX_J@Z ; ReliabilityLayer::UpdateWindowFromPacketloss
PUBLIC	?UpdateWindowFromAck@ReliabilityLayer@@AAEX_J@Z	; ReliabilityLayer::UpdateWindowFromAck
PUBLIC	?GetBitStreamHeaderLength@ReliabilityLayer@@AAEHQBUInternalPacket@@@Z ; ReliabilityLayer::GetBitStreamHeaderLength
PUBLIC	?GetSHA1@ReliabilityLayer@@AAEXQAEIQAD@Z	; ReliabilityLayer::GetSHA1
PUBLIC	?CheckSHA1@ReliabilityLayer@@AAE_NQADQAEI@Z	; ReliabilityLayer::CheckSHA1
PUBLIC	?DeleteSequencedPacketsInList@ReliabilityLayer@@AAEXEAAV?$List@PAUInternalPacket@@@DataStructures@@H@Z ; ReliabilityLayer::DeleteSequencedPacketsInList
PUBLIC	?DeleteSequencedPacketsInList@ReliabilityLayer@@AAEXEAAV?$Queue@PAUInternalPacket@@@DataStructures@@@Z ; ReliabilityLayer::DeleteSequencedPacketsInList
PUBLIC	?IsOlderOrderedPacket@ReliabilityLayer@@AAE_NGG@Z ; ReliabilityLayer::IsOlderOrderedPacket
PUBLIC	?SplitPacket@ReliabilityLayer@@AAEXPAUInternalPacket@@H@Z ; ReliabilityLayer::SplitPacket
PUBLIC	?InsertIntoSplitPacketList@ReliabilityLayer@@AAEXPAUInternalPacket@@_J@Z ; ReliabilityLayer::InsertIntoSplitPacketList
PUBLIC	?BuildPacketFromSplitPacketList@ReliabilityLayer@@AAEPAUInternalPacket@@G_J@Z ; ReliabilityLayer::BuildPacketFromSplitPacketList
PUBLIC	?DeleteOldUnreliableSplitPackets@ReliabilityLayer@@AAEX_J@Z ; ReliabilityLayer::DeleteOldUnreliableSplitPackets
PUBLIC	?CreateInternalPacketCopy@ReliabilityLayer@@AAEPAUInternalPacket@@PAU2@HH_J@Z ; ReliabilityLayer::CreateInternalPacketCopy
PUBLIC	?GetOrderingListAtOrderingStream@ReliabilityLayer@@AAEPAV?$LinkedList@PAUInternalPacket@@@DataStructures@@E@Z ; ReliabilityLayer::GetOrderingListAtOrderingStream
PUBLIC	?AddToOrderingList@ReliabilityLayer@@AAEXPAUInternalPacket@@@Z ; ReliabilityLayer::AddToOrderingList
PUBLIC	?InsertPacketIntoResendList@ReliabilityLayer@@AAEXPAUInternalPacket@@_J_N2@Z ; ReliabilityLayer::InsertPacketIntoResendList
PUBLIC	?FreeMemory@ReliabilityLayer@@AAEX_N@Z		; ReliabilityLayer::FreeMemory
PUBLIC	?FreeThreadedMemory@ReliabilityLayer@@AAEXXZ	; ReliabilityLayer::FreeThreadedMemory
PUBLIC	?FreeThreadSafeMemory@ReliabilityLayer@@AAEXXZ	; ReliabilityLayer::FreeThreadSafeMemory
PUBLIC	?InitializeVariables@ReliabilityLayer@@AAEXXZ	; ReliabilityLayer::InitializeVariables
PUBLIC	?UpdateNextActionTime@ReliabilityLayer@@AAEXXZ	; ReliabilityLayer::UpdateNextActionTime
PUBLIC	?GetResendListDataSize@ReliabilityLayer@@ABEIXZ	; ReliabilityLayer::GetResendListDataSize
PUBLIC	?UpdateThreadedMemory@ReliabilityLayer@@AAEXXZ	; ReliabilityLayer::UpdateThreadedMemory
PUBLIC	??0?$List@PAV?$LinkedList@PAUInternalPacket@@@DataStructures@@@DataStructures@@QAE@XZ ; DataStructures::List<DataStructures::LinkedList<InternalPacket *> *>::List<DataStructures::LinkedList<InternalPacket *> *>
PUBLIC	??1?$List@PAV?$LinkedList@PAUInternalPacket@@@DataStructures@@@DataStructures@@QAE@XZ ; DataStructures::List<DataStructures::LinkedList<InternalPacket *> *>::~List<DataStructures::LinkedList<InternalPacket *> *>
PUBLIC	??A?$List@PAV?$LinkedList@PAUInternalPacket@@@DataStructures@@@DataStructures@@QBEAAPAV?$LinkedList@PAUInternalPacket@@@1@I@Z ; DataStructures::List<DataStructures::LinkedList<InternalPacket *> *>::operator[]
PUBLIC	?Replace@?$List@PAV?$LinkedList@PAUInternalPacket@@@DataStructures@@@DataStructures@@QAEXQAV?$LinkedList@PAUInternalPacket@@@2@0I@Z ; DataStructures::List<DataStructures::LinkedList<InternalPacket *> *>::Replace
PUBLIC	?Size@?$List@PAV?$LinkedList@PAUInternalPacket@@@DataStructures@@@DataStructures@@QBEIXZ ; DataStructures::List<DataStructures::LinkedList<InternalPacket *> *>::Size
PUBLIC	?Clear@?$List@PAV?$LinkedList@PAUInternalPacket@@@DataStructures@@@DataStructures@@QAEX_N@Z ; DataStructures::List<DataStructures::LinkedList<InternalPacket *> *>::Clear
PUBLIC	??0?$RangeList@G@DataStructures@@QAE@XZ		; DataStructures::RangeList<unsigned short>::RangeList<unsigned short>
PUBLIC	??1?$RangeList@G@DataStructures@@QAE@XZ		; DataStructures::RangeList<unsigned short>::~RangeList<unsigned short>
PUBLIC	?Insert@?$RangeList@G@DataStructures@@QAEXG@Z	; DataStructures::RangeList<unsigned short>::Insert
PUBLIC	?Clear@?$RangeList@G@DataStructures@@QAEXXZ	; DataStructures::RangeList<unsigned short>::Clear
PUBLIC	?Size@?$RangeList@G@DataStructures@@QAEIXZ	; DataStructures::RangeList<unsigned short>::Size
PUBLIC	?Serialize@?$RangeList@G@DataStructures@@QAEIPAVBitStream@RakNet@@H_N@Z ; DataStructures::RangeList<unsigned short>::Serialize
PUBLIC	?Deserialize@?$RangeList@G@DataStructures@@QAE_NPAVBitStream@RakNet@@@Z ; DataStructures::RangeList<unsigned short>::Deserialize
PUBLIC	??$RangeNodeComp@G@DataStructures@@YAHABGABU?$RangeNode@G@0@@Z ; DataStructures::RangeNodeComp<unsigned short>
PUBLIC	??0?$OrderedList@GU?$RangeNode@G@DataStructures@@$1??$RangeNodeComp@G@2@YAHABGABU12@@Z@DataStructures@@QAE@XZ ; DataStructures::OrderedList<unsigned short,DataStructures::RangeNode<unsigned short>,&DataStructures::RangeNodeComp<unsigned short> >::OrderedList<unsigned short,DataStructures::RangeNode<unsigned short>,&DataStructures::RangeNodeComp<unsigned short> >
PUBLIC	??1?$OrderedList@GU?$RangeNode@G@DataStructures@@$1??$RangeNodeComp@G@2@YAHABGABU12@@Z@DataStructures@@QAE@XZ ; DataStructures::OrderedList<unsigned short,DataStructures::RangeNode<unsigned short>,&DataStructures::RangeNodeComp<unsigned short> >::~OrderedList<unsigned short,DataStructures::RangeNode<unsigned short>,&DataStructures::RangeNodeComp<unsigned short> >
PUBLIC	?GetIndexFromKey@?$OrderedList@GU?$RangeNode@G@DataStructures@@$1??$RangeNodeComp@G@2@YAHABGABU12@@Z@DataStructures@@QBEIABGPA_N@Z ; DataStructures::OrderedList<unsigned short,DataStructures::RangeNode<unsigned short>,&DataStructures::RangeNodeComp<unsigned short> >::GetIndexFromKey
PUBLIC	?Insert@?$OrderedList@GU?$RangeNode@G@DataStructures@@$1??$RangeNodeComp@G@2@YAHABGABU12@@Z@DataStructures@@QAEIABGABU?$RangeNode@G@2@@Z ; DataStructures::OrderedList<unsigned short,DataStructures::RangeNode<unsigned short>,&DataStructures::RangeNodeComp<unsigned short> >::Insert
PUBLIC	??A?$OrderedList@GU?$RangeNode@G@DataStructures@@$1??$RangeNodeComp@G@2@YAHABGABU12@@Z@DataStructures@@QBEAAU?$RangeNode@G@1@I@Z ; DataStructures::OrderedList<unsigned short,DataStructures::RangeNode<unsigned short>,&DataStructures::RangeNodeComp<unsigned short> >::operator[]
PUBLIC	?RemoveAtIndex@?$OrderedList@GU?$RangeNode@G@DataStructures@@$1??$RangeNodeComp@G@2@YAHABGABU12@@Z@DataStructures@@QAEXI@Z ; DataStructures::OrderedList<unsigned short,DataStructures::RangeNode<unsigned short>,&DataStructures::RangeNodeComp<unsigned short> >::RemoveAtIndex
PUBLIC	?InsertAtIndex@?$OrderedList@GU?$RangeNode@G@DataStructures@@$1??$RangeNodeComp@G@2@YAHABGABU12@@Z@DataStructures@@QAEXABU?$RangeNode@G@2@I@Z ; DataStructures::OrderedList<unsigned short,DataStructures::RangeNode<unsigned short>,&DataStructures::RangeNodeComp<unsigned short> >::InsertAtIndex
PUBLIC	?InsertAtEnd@?$OrderedList@GU?$RangeNode@G@DataStructures@@$1??$RangeNodeComp@G@2@YAHABGABU12@@Z@DataStructures@@QAEXABU?$RangeNode@G@2@@Z ; DataStructures::OrderedList<unsigned short,DataStructures::RangeNode<unsigned short>,&DataStructures::RangeNodeComp<unsigned short> >::InsertAtEnd
PUBLIC	?Del@?$OrderedList@GU?$RangeNode@G@DataStructures@@$1??$RangeNodeComp@G@2@YAHABGABU12@@Z@DataStructures@@QAEXI@Z ; DataStructures::OrderedList<unsigned short,DataStructures::RangeNode<unsigned short>,&DataStructures::RangeNodeComp<unsigned short> >::Del
PUBLIC	?Clear@?$OrderedList@GU?$RangeNode@G@DataStructures@@$1??$RangeNodeComp@G@2@YAHABGABU12@@Z@DataStructures@@QAEXXZ ; DataStructures::OrderedList<unsigned short,DataStructures::RangeNode<unsigned short>,&DataStructures::RangeNodeComp<unsigned short> >::Clear
PUBLIC	?Size@?$OrderedList@GU?$RangeNode@G@DataStructures@@$1??$RangeNodeComp@G@2@YAHABGABU12@@Z@DataStructures@@QBEIXZ ; DataStructures::OrderedList<unsigned short,DataStructures::RangeNode<unsigned short>,&DataStructures::RangeNodeComp<unsigned short> >::Size
PUBLIC	??0?$List@U?$RangeNode@G@DataStructures@@@DataStructures@@QAE@XZ ; DataStructures::List<DataStructures::RangeNode<unsigned short> >::List<DataStructures::RangeNode<unsigned short> >
PUBLIC	??1?$List@U?$RangeNode@G@DataStructures@@@DataStructures@@QAE@XZ ; DataStructures::List<DataStructures::RangeNode<unsigned short> >::~List<DataStructures::RangeNode<unsigned short> >
PUBLIC	??A?$List@U?$RangeNode@G@DataStructures@@@DataStructures@@QBEAAU?$RangeNode@G@1@I@Z ; DataStructures::List<DataStructures::RangeNode<unsigned short> >::operator[]
PUBLIC	?Insert@?$List@U?$RangeNode@G@DataStructures@@@DataStructures@@QAEXU?$RangeNode@G@2@I@Z ; DataStructures::List<DataStructures::RangeNode<unsigned short> >::Insert
PUBLIC	?Insert@?$List@U?$RangeNode@G@DataStructures@@@DataStructures@@QAEXU?$RangeNode@G@2@@Z ; DataStructures::List<DataStructures::RangeNode<unsigned short> >::Insert
PUBLIC	?RemoveAtIndex@?$List@U?$RangeNode@G@DataStructures@@@DataStructures@@QAEXI@Z ; DataStructures::List<DataStructures::RangeNode<unsigned short> >::RemoveAtIndex
PUBLIC	?Del@?$List@U?$RangeNode@G@DataStructures@@@DataStructures@@QAEXI@Z ; DataStructures::List<DataStructures::RangeNode<unsigned short> >::Del
PUBLIC	?Size@?$List@U?$RangeNode@G@DataStructures@@@DataStructures@@QBEIXZ ; DataStructures::List<DataStructures::RangeNode<unsigned short> >::Size
PUBLIC	?Clear@?$List@U?$RangeNode@G@DataStructures@@@DataStructures@@QAEX_N@Z ; DataStructures::List<DataStructures::RangeNode<unsigned short> >::Clear
PUBLIC	??0?$BPlusTree@GPAUInternalPacket@@$0CA@@DataStructures@@QAE@XZ ; DataStructures::BPlusTree<unsigned short,InternalPacket *,32>::BPlusTree<unsigned short,InternalPacket *,32>
PUBLIC	??1?$BPlusTree@GPAUInternalPacket@@$0CA@@DataStructures@@QAE@XZ ; DataStructures::BPlusTree<unsigned short,InternalPacket *,32>::~BPlusTree<unsigned short,InternalPacket *,32>
PUBLIC	?Delete@?$BPlusTree@GPAUInternalPacket@@$0CA@@DataStructures@@QAE_NGAAPAUInternalPacket@@@Z ; DataStructures::BPlusTree<unsigned short,InternalPacket *,32>::Delete
PUBLIC	?Insert@?$BPlusTree@GPAUInternalPacket@@$0CA@@DataStructures@@QAE_NGABQAUInternalPacket@@@Z ; DataStructures::BPlusTree<unsigned short,InternalPacket *,32>::Insert
PUBLIC	?Preallocate@?$BPlusTree@GPAUInternalPacket@@$0CA@@DataStructures@@QAEXH@Z ; DataStructures::BPlusTree<unsigned short,InternalPacket *,32>::Preallocate
PUBLIC	?Clear@?$BPlusTree@GPAUInternalPacket@@$0CA@@DataStructures@@QAEXXZ ; DataStructures::BPlusTree<unsigned short,InternalPacket *,32>::Clear
PUBLIC	?Size@?$BPlusTree@GPAUInternalPacket@@$0CA@@DataStructures@@QBEIXZ ; DataStructures::BPlusTree<unsigned short,InternalPacket *,32>::Size
PUBLIC	?IsEmpty@?$BPlusTree@GPAUInternalPacket@@$0CA@@DataStructures@@QBE_NXZ ; DataStructures::BPlusTree<unsigned short,InternalPacket *,32>::IsEmpty
PUBLIC	?GetListHead@?$BPlusTree@GPAUInternalPacket@@$0CA@@DataStructures@@QBEPAU?$Page@GPAUInternalPacket@@$0CA@@2@XZ ; DataStructures::BPlusTree<unsigned short,InternalPacket *,32>::GetListHead
PUBLIC	?DeleteFromPageAtIndex@?$BPlusTree@GPAUInternalPacket@@$0CA@@DataStructures@@IAEXHPAU?$Page@GPAUInternalPacket@@$0CA@@2@@Z ; DataStructures::BPlusTree<unsigned short,InternalPacket *,32>::DeleteFromPageAtIndex
PUBLIC	?FreePages@?$BPlusTree@GPAUInternalPacket@@$0CA@@DataStructures@@IAEXXZ ; DataStructures::BPlusTree<unsigned short,InternalPacket *,32>::FreePages
PUBLIC	?GetIndexOf@?$BPlusTree@GPAUInternalPacket@@$0CA@@DataStructures@@IBE_NGPAU?$Page@GPAUInternalPacket@@$0CA@@2@PAH@Z ; DataStructures::BPlusTree<unsigned short,InternalPacket *,32>::GetIndexOf
PUBLIC	?CanRotateLeft@?$BPlusTree@GPAUInternalPacket@@$0CA@@DataStructures@@IAE_NPAU?$Page@GPAUInternalPacket@@$0CA@@2@H@Z ; DataStructures::BPlusTree<unsigned short,InternalPacket *,32>::CanRotateLeft
PUBLIC	?CanRotateRight@?$BPlusTree@GPAUInternalPacket@@$0CA@@DataStructures@@IAE_NPAU?$Page@GPAUInternalPacket@@$0CA@@2@H@Z ; DataStructures::BPlusTree<unsigned short,InternalPacket *,32>::CanRotateRight
PUBLIC	?RotateRight@?$BPlusTree@GPAUInternalPacket@@$0CA@@DataStructures@@IAEXPAU?$Page@GPAUInternalPacket@@$0CA@@2@HPAUReturnAction@12@@Z ; DataStructures::BPlusTree<unsigned short,InternalPacket *,32>::RotateRight
PUBLIC	?RotateLeft@?$BPlusTree@GPAUInternalPacket@@$0CA@@DataStructures@@IAEXPAU?$Page@GPAUInternalPacket@@$0CA@@2@HPAUReturnAction@12@@Z ; DataStructures::BPlusTree<unsigned short,InternalPacket *,32>::RotateLeft
PUBLIC	?InsertIntoNode@?$BPlusTree@GPAUInternalPacket@@$0CA@@DataStructures@@IAEPAU?$Page@GPAUInternalPacket@@$0CA@@2@GABQAUInternalPacket@@HPAU32@1PAUReturnAction@12@@Z ; DataStructures::BPlusTree<unsigned short,InternalPacket *,32>::InsertIntoNode
PUBLIC	?InsertBranchDown@?$BPlusTree@GPAUInternalPacket@@$0CA@@DataStructures@@IAEPAU?$Page@GPAUInternalPacket@@$0CA@@2@GABQAUInternalPacket@@PAU32@PAUReturnAction@12@PA_N@Z ; DataStructures::BPlusTree<unsigned short,InternalPacket *,32>::InsertBranchDown
PUBLIC	?FindDeleteRebalance@?$BPlusTree@GPAUInternalPacket@@$0CA@@DataStructures@@IAE_NGPAU?$Page@GPAUInternalPacket@@$0CA@@2@PA_NGPAUReturnAction@12@AAPAUInternalPacket@@@Z ; DataStructures::BPlusTree<unsigned short,InternalPacket *,32>::FindDeleteRebalance
PUBLIC	?FixUnderflow@?$BPlusTree@GPAUInternalPacket@@$0CA@@DataStructures@@IAE_NHPAU?$Page@GPAUInternalPacket@@$0CA@@2@GPAUReturnAction@12@@Z ; DataStructures::BPlusTree<unsigned short,InternalPacket *,32>::FixUnderflow
PUBLIC	?ShiftNodeLeft@?$BPlusTree@GPAUInternalPacket@@$0CA@@DataStructures@@IAEXPAU?$Page@GPAUInternalPacket@@$0CA@@2@@Z ; DataStructures::BPlusTree<unsigned short,InternalPacket *,32>::ShiftNodeLeft
PUBLIC	?ShiftNodeRight@?$BPlusTree@GPAUInternalPacket@@$0CA@@DataStructures@@IAEXPAU?$Page@GPAUInternalPacket@@$0CA@@2@@Z ; DataStructures::BPlusTree<unsigned short,InternalPacket *,32>::ShiftNodeRight
PUBLIC	??0?$MemoryPool@U?$Page@GPAUInternalPacket@@$0CA@@DataStructures@@@DataStructures@@QAE@XZ ; DataStructures::MemoryPool<DataStructures::Page<unsigned short,InternalPacket *,32> >::MemoryPool<DataStructures::Page<unsigned short,InternalPacket *,32> >
PUBLIC	??1?$MemoryPool@U?$Page@GPAUInternalPacket@@$0CA@@DataStructures@@@DataStructures@@QAE@XZ ; DataStructures::MemoryPool<DataStructures::Page<unsigned short,InternalPacket *,32> >::~MemoryPool<DataStructures::Page<unsigned short,InternalPacket *,32> >
PUBLIC	?Preallocate@?$MemoryPool@U?$Page@GPAUInternalPacket@@$0CA@@DataStructures@@@DataStructures@@QAEXI@Z ; DataStructures::MemoryPool<DataStructures::Page<unsigned short,InternalPacket *,32> >::Preallocate
PUBLIC	?Allocate@?$MemoryPool@U?$Page@GPAUInternalPacket@@$0CA@@DataStructures@@@DataStructures@@QAEPAU?$Page@GPAUInternalPacket@@$0CA@@2@XZ ; DataStructures::MemoryPool<DataStructures::Page<unsigned short,InternalPacket *,32> >::Allocate
PUBLIC	?Release@?$MemoryPool@U?$Page@GPAUInternalPacket@@$0CA@@DataStructures@@@DataStructures@@QAEXPAU?$Page@GPAUInternalPacket@@$0CA@@2@@Z ; DataStructures::MemoryPool<DataStructures::Page<unsigned short,InternalPacket *,32> >::Release
PUBLIC	??0?$List@PAU?$Page@GPAUInternalPacket@@$0CA@@DataStructures@@@DataStructures@@QAE@XZ ; DataStructures::List<DataStructures::Page<unsigned short,InternalPacket *,32> *>::List<DataStructures::Page<unsigned short,InternalPacket *,32> *>
PUBLIC	??1?$List@PAU?$Page@GPAUInternalPacket@@$0CA@@DataStructures@@@DataStructures@@QAE@XZ ; DataStructures::List<DataStructures::Page<unsigned short,InternalPacket *,32> *>::~List<DataStructures::Page<unsigned short,InternalPacket *,32> *>
PUBLIC	??A?$List@PAU?$Page@GPAUInternalPacket@@$0CA@@DataStructures@@@DataStructures@@QBEAAPAU?$Page@GPAUInternalPacket@@$0CA@@1@I@Z ; DataStructures::List<DataStructures::Page<unsigned short,InternalPacket *,32> *>::operator[]
PUBLIC	?Insert@?$List@PAU?$Page@GPAUInternalPacket@@$0CA@@DataStructures@@@DataStructures@@QAEXQAU?$Page@GPAUInternalPacket@@$0CA@@2@@Z ; DataStructures::List<DataStructures::Page<unsigned short,InternalPacket *,32> *>::Insert
PUBLIC	?Del@?$List@PAU?$Page@GPAUInternalPacket@@$0CA@@DataStructures@@@DataStructures@@QAEXI@Z ; DataStructures::List<DataStructures::Page<unsigned short,InternalPacket *,32> *>::Del
PUBLIC	?Size@?$List@PAU?$Page@GPAUInternalPacket@@$0CA@@DataStructures@@@DataStructures@@QBEIXZ ; DataStructures::List<DataStructures::Page<unsigned short,InternalPacket *,32> *>::Size
PUBLIC	??0?$OrderedList@GPAUSplitPacketChannel@@$1?SplitPacketChannelComp@@YAHABGABQAU1@@Z@DataStructures@@QAE@XZ ; DataStructures::OrderedList<unsigned short,SplitPacketChannel *,&SplitPacketChannelComp>::OrderedList<unsigned short,SplitPacketChannel *,&SplitPacketChannelComp>
PUBLIC	??1?$OrderedList@GPAUSplitPacketChannel@@$1?SplitPacketChannelComp@@YAHABGABQAU1@@Z@DataStructures@@QAE@XZ ; DataStructures::OrderedList<unsigned short,SplitPacketChannel *,&SplitPacketChannelComp>::~OrderedList<unsigned short,SplitPacketChannel *,&SplitPacketChannelComp>
PUBLIC	?GetIndexFromKey@?$OrderedList@GPAUSplitPacketChannel@@$1?SplitPacketChannelComp@@YAHABGABQAU1@@Z@DataStructures@@QBEIABGPA_N@Z ; DataStructures::OrderedList<unsigned short,SplitPacketChannel *,&SplitPacketChannelComp>::GetIndexFromKey
PUBLIC	?Insert@?$OrderedList@GPAUSplitPacketChannel@@$1?SplitPacketChannelComp@@YAHABGABQAU1@@Z@DataStructures@@QAEIABGABQAUSplitPacketChannel@@@Z ; DataStructures::OrderedList<unsigned short,SplitPacketChannel *,&SplitPacketChannelComp>::Insert
PUBLIC	??A?$OrderedList@GPAUSplitPacketChannel@@$1?SplitPacketChannelComp@@YAHABGABQAU1@@Z@DataStructures@@QBEAAPAUSplitPacketChannel@@I@Z ; DataStructures::OrderedList<unsigned short,SplitPacketChannel *,&SplitPacketChannelComp>::operator[]
PUBLIC	?RemoveAtIndex@?$OrderedList@GPAUSplitPacketChannel@@$1?SplitPacketChannelComp@@YAHABGABQAU1@@Z@DataStructures@@QAEXI@Z ; DataStructures::OrderedList<unsigned short,SplitPacketChannel *,&SplitPacketChannelComp>::RemoveAtIndex
PUBLIC	?Clear@?$OrderedList@GPAUSplitPacketChannel@@$1?SplitPacketChannelComp@@YAHABGABQAU1@@Z@DataStructures@@QAEXXZ ; DataStructures::OrderedList<unsigned short,SplitPacketChannel *,&SplitPacketChannelComp>::Clear
PUBLIC	?Size@?$OrderedList@GPAUSplitPacketChannel@@$1?SplitPacketChannelComp@@YAHABGABQAU1@@Z@DataStructures@@QBEIXZ ; DataStructures::OrderedList<unsigned short,SplitPacketChannel *,&SplitPacketChannelComp>::Size
PUBLIC	??0?$List@PAUSplitPacketChannel@@@DataStructures@@QAE@XZ ; DataStructures::List<SplitPacketChannel *>::List<SplitPacketChannel *>
PUBLIC	??1?$List@PAUSplitPacketChannel@@@DataStructures@@QAE@XZ ; DataStructures::List<SplitPacketChannel *>::~List<SplitPacketChannel *>
PUBLIC	??A?$List@PAUSplitPacketChannel@@@DataStructures@@QBEAAPAUSplitPacketChannel@@I@Z ; DataStructures::List<SplitPacketChannel *>::operator[]
PUBLIC	?Insert@?$List@PAUSplitPacketChannel@@@DataStructures@@QAEXQAUSplitPacketChannel@@I@Z ; DataStructures::List<SplitPacketChannel *>::Insert
PUBLIC	?Insert@?$List@PAUSplitPacketChannel@@@DataStructures@@QAEXQAUSplitPacketChannel@@@Z ; DataStructures::List<SplitPacketChannel *>::Insert
PUBLIC	?RemoveAtIndex@?$List@PAUSplitPacketChannel@@@DataStructures@@QAEXI@Z ; DataStructures::List<SplitPacketChannel *>::RemoveAtIndex
PUBLIC	?Del@?$List@PAUSplitPacketChannel@@@DataStructures@@QAEXI@Z ; DataStructures::List<SplitPacketChannel *>::Del
PUBLIC	?Size@?$List@PAUSplitPacketChannel@@@DataStructures@@QBEIXZ ; DataStructures::List<SplitPacketChannel *>::Size
PUBLIC	?Clear@?$List@PAUSplitPacketChannel@@@DataStructures@@QAEX_N@Z ; DataStructures::List<SplitPacketChannel *>::Clear
PUBLIC	??0?$Queue@_J@DataStructures@@QAE@XZ		; DataStructures::Queue<__int64>::Queue<__int64>
PUBLIC	??1?$Queue@_J@DataStructures@@QAE@XZ		; DataStructures::Queue<__int64>::~Queue<__int64>
PUBLIC	?Push@?$Queue@_J@DataStructures@@QAEXAB_J@Z	; DataStructures::Queue<__int64>::Push
PUBLIC	??A?$Queue@_J@DataStructures@@QBEAA_JI@Z	; DataStructures::Queue<__int64>::operator[]
PUBLIC	?Peek@?$Queue@_J@DataStructures@@QBE_JXZ	; DataStructures::Queue<__int64>::Peek
PUBLIC	?Pop@?$Queue@_J@DataStructures@@QAE_JXZ		; DataStructures::Queue<__int64>::Pop
PUBLIC	?Size@?$Queue@_J@DataStructures@@QBEIXZ		; DataStructures::Queue<__int64>::Size
PUBLIC	?AllocationSize@?$Queue@_J@DataStructures@@QBEIXZ ; DataStructures::Queue<__int64>::AllocationSize
PUBLIC	?Compress@?$Queue@_J@DataStructures@@QAEXXZ	; DataStructures::Queue<__int64>::Compress
PUBLIC	?ClearAndForceAllocation@?$Queue@_J@DataStructures@@QAEXH@Z ; DataStructures::Queue<__int64>::ClearAndForceAllocation
PUBLIC	??0?$List@PAUDataAndTime@ReliabilityLayer@@@DataStructures@@QAE@XZ ; DataStructures::List<ReliabilityLayer::DataAndTime *>::List<ReliabilityLayer::DataAndTime *>
PUBLIC	??1?$List@PAUDataAndTime@ReliabilityLayer@@@DataStructures@@QAE@XZ ; DataStructures::List<ReliabilityLayer::DataAndTime *>::~List<ReliabilityLayer::DataAndTime *>
PUBLIC	??A?$List@PAUDataAndTime@ReliabilityLayer@@@DataStructures@@QBEAAPAUDataAndTime@ReliabilityLayer@@I@Z ; DataStructures::List<ReliabilityLayer::DataAndTime *>::operator[]
PUBLIC	?Insert@?$List@PAUDataAndTime@ReliabilityLayer@@@DataStructures@@QAEXQAUDataAndTime@ReliabilityLayer@@@Z ; DataStructures::List<ReliabilityLayer::DataAndTime *>::Insert
PUBLIC	?Del@?$List@PAUDataAndTime@ReliabilityLayer@@@DataStructures@@QAEXI@Z ; DataStructures::List<ReliabilityLayer::DataAndTime *>::Del
PUBLIC	?Size@?$List@PAUDataAndTime@ReliabilityLayer@@@DataStructures@@QBEIXZ ; DataStructures::List<ReliabilityLayer::DataAndTime *>::Size
PUBLIC	?Clear@?$List@PAUDataAndTime@ReliabilityLayer@@@DataStructures@@QAEX_N@Z ; DataStructures::List<ReliabilityLayer::DataAndTime *>::Clear
PUBLIC	??0?$CircularLinkedList@PAUInternalPacket@@@DataStructures@@QAE@XZ ; DataStructures::CircularLinkedList<InternalPacket *>::CircularLinkedList<InternalPacket *>
PUBLIC	??1?$CircularLinkedList@PAUInternalPacket@@@DataStructures@@QAE@XZ ; DataStructures::CircularLinkedList<InternalPacket *>::~CircularLinkedList<InternalPacket *>
PUBLIC	?Add@?$CircularLinkedList@PAUInternalPacket@@@DataStructures@@QAEAAPAUInternalPacket@@ABQAU3@@Z ; DataStructures::CircularLinkedList<InternalPacket *>::Add
PUBLIC	?Del@?$CircularLinkedList@PAUInternalPacket@@@DataStructures@@QAEXXZ ; DataStructures::CircularLinkedList<InternalPacket *>::Del
PUBLIC	?Size@?$CircularLinkedList@PAUInternalPacket@@@DataStructures@@QAEIXZ ; DataStructures::CircularLinkedList<InternalPacket *>::Size
PUBLIC	?Peek@?$CircularLinkedList@PAUInternalPacket@@@DataStructures@@QAEAAPAUInternalPacket@@XZ ; DataStructures::CircularLinkedList<InternalPacket *>::Peek
PUBLIC	?Pop@?$CircularLinkedList@PAUInternalPacket@@@DataStructures@@QAEPAUInternalPacket@@XZ ; DataStructures::CircularLinkedList<InternalPacket *>::Pop
PUBLIC	?Clear@?$CircularLinkedList@PAUInternalPacket@@@DataStructures@@QAEXXZ ; DataStructures::CircularLinkedList<InternalPacket *>::Clear
PUBLIC	?Beginning@?$CircularLinkedList@PAUInternalPacket@@@DataStructures@@QAEXXZ ; DataStructures::CircularLinkedList<InternalPacket *>::Beginning
PUBLIC	?End@?$CircularLinkedList@PAUInternalPacket@@@DataStructures@@QAEXXZ ; DataStructures::CircularLinkedList<InternalPacket *>::End
PUBLIC	??0?$LinkedList@PAUInternalPacket@@@DataStructures@@QAE@XZ ; DataStructures::LinkedList<InternalPacket *>::LinkedList<InternalPacket *>
PUBLIC	??1?$LinkedList@PAUInternalPacket@@@DataStructures@@QAE@XZ ; DataStructures::LinkedList<InternalPacket *>::~LinkedList<InternalPacket *>
PUBLIC	??E?$LinkedList@PAUInternalPacket@@@DataStructures@@QAEAAV01@XZ ; DataStructures::LinkedList<InternalPacket *>::operator++
PUBLIC	??E?$LinkedList@PAUInternalPacket@@@DataStructures@@QAEAAV01@H@Z ; DataStructures::LinkedList<InternalPacket *>::operator++
PUBLIC	??_G?$LinkedList@PAUInternalPacket@@@DataStructures@@QAEPAXI@Z ; DataStructures::LinkedList<InternalPacket *>::`scalar deleting destructor'
PUBLIC	??0?$RangeNode@G@DataStructures@@QAE@XZ		; DataStructures::RangeNode<unsigned short>::RangeNode<unsigned short>
PUBLIC	??1?$RangeNode@G@DataStructures@@QAE@XZ		; DataStructures::RangeNode<unsigned short>::~RangeNode<unsigned short>
PUBLIC	??0?$RangeNode@G@DataStructures@@QAE@GG@Z	; DataStructures::RangeNode<unsigned short>::RangeNode<unsigned short>
PUBLIC	??_E?$RangeNode@G@DataStructures@@QAEPAXI@Z	; DataStructures::RangeNode<unsigned short>::`vector deleting destructor'
PUBLIC	??A?$List@PAVPluginInterface@@@DataStructures@@QBEAAPAVPluginInterface@@I@Z ; DataStructures::List<PluginInterface *>::operator[]
PUBLIC	?Size@?$List@PAVPluginInterface@@@DataStructures@@QBEIXZ ; DataStructures::List<PluginInterface *>::Size
PUBLIC	??$WriteCompressed@I@BitStream@RakNet@@QAEXI@Z	; RakNet::BitStream::WriteCompressed<unsigned int>
PUBLIC	??$WriteCompressed@G@BitStream@RakNet@@QAEXG@Z	; RakNet::BitStream::WriteCompressed<unsigned short>
PUBLIC	??$ReadCompressed@I@BitStream@RakNet@@QAE_NAAI@Z ; RakNet::BitStream::ReadCompressed<unsigned int>
PUBLIC	??$ReadCompressed@G@BitStream@RakNet@@QAE_NAAG@Z ; RakNet::BitStream::ReadCompressed<unsigned short>
PUBLIC	??0?$Queue@PAU?$Page@GPAUInternalPacket@@$0CA@@DataStructures@@@DataStructures@@QAE@XZ ; DataStructures::Queue<DataStructures::Page<unsigned short,InternalPacket *,32> *>::Queue<DataStructures::Page<unsigned short,InternalPacket *,32> *>
PUBLIC	??1?$Queue@PAU?$Page@GPAUInternalPacket@@$0CA@@DataStructures@@@DataStructures@@QAE@XZ ; DataStructures::Queue<DataStructures::Page<unsigned short,InternalPacket *,32> *>::~Queue<DataStructures::Page<unsigned short,InternalPacket *,32> *>
PUBLIC	?Push@?$Queue@PAU?$Page@GPAUInternalPacket@@$0CA@@DataStructures@@@DataStructures@@QAEXABQAU?$Page@GPAUInternalPacket@@$0CA@@2@@Z ; DataStructures::Queue<DataStructures::Page<unsigned short,InternalPacket *,32> *>::Push
PUBLIC	?Pop@?$Queue@PAU?$Page@GPAUInternalPacket@@$0CA@@DataStructures@@@DataStructures@@QAEPAU?$Page@GPAUInternalPacket@@$0CA@@2@XZ ; DataStructures::Queue<DataStructures::Page<unsigned short,InternalPacket *,32> *>::Pop
PUBLIC	?Size@?$Queue@PAU?$Page@GPAUInternalPacket@@$0CA@@DataStructures@@@DataStructures@@QBEIXZ ; DataStructures::Queue<DataStructures::Page<unsigned short,InternalPacket *,32> *>::Size
PUBLIC	?__LINE__Var@?1??HandleSocketReceiveFromConnectedPlayer@ReliabilityLayer@@QAE_NPBDHUPlayerID@@AAV?$List@PAVPluginInterface@@@DataStructures@@H@Z@4JA ; `ReliabilityLayer::HandleSocketReceiveFromConnectedPlayer'::`2'::__LINE__Var
PUBLIC	??_C@_1FK@FKLHGKMO@?$AAz?$AA?3?$AA?2?$AAs?$AAa?$AAm?$AAp?$AAs?$AAr?$AAc?$AA?2?$AA0?$AA2?$AAx?$AAu?$AA1?$AA?2?$AAr?$AAa?$AAk?$AAn?$AAe?$AAt?$AA?2?$AAr?$AAe?$AAl?$AAi?$AAa?$AAb?$AAi?$AAl@ ; `string'
PUBLIC	??_C@_1EA@BNPCOFAI@?$AA?$CB?$AA?$CI?$AA?5?$AAl?$AAe?$AAn?$AAg?$AAt?$AAh?$AA?5?$AA?$DM?$AA?$DN?$AA?5?$AA0?$AA?5?$AA?$HM?$AA?$HM?$AA?5?$AAb?$AAu?$AAf?$AAf?$AAe?$AAr?$AA?5?$AA?$DN?$AA?$DN?$AA?5?$AA0?$AA?5?$AA?$CJ?$AA?$AA@ ; `string'
PUBLIC	??_C@_1IC@KPHIMKPK@?$AAi?$AAn?$AAc?$AAo?$AAm?$AAi?$AAn?$AAg?$AAA?$AAc?$AAk?$AAs?$AA?4?$AAr?$AAa?$AAn?$AAg?$AAe?$AAs?$AA?$FL?$AAi?$AA?$FN?$AA?4?$AAm?$AAi?$AAn?$AAI?$AAn?$AAd?$AAe?$AAx?$AA?$DM@ ; `string'
PUBLIC	??_C@_1JA@FAAHMOBE@?$AAh?$AAa?$AAs?$AAR?$AAe?$AAc?$AAe?$AAi?$AAv?$AAe?$AAd?$AAP?$AAa?$AAc?$AAk?$AAe?$AAt?$AAQ?$AAu?$AAe?$AAu?$AAe?$AA?4?$AAS?$AAi?$AAz?$AAe?$AA?$CI?$AA?$CJ?$AA?5?$AA?$DM?$AA?5@ ; `string'
PUBLIC	??_C@_1HI@MKMNOBIC@?$AAi?$AAn?$AAt?$AAe?$AAr?$AAn?$AAa?$AAl?$AAP?$AAa?$AAc?$AAk?$AAe?$AAt?$AA?9?$AA?$DO?$AAo?$AAr?$AAd?$AAe?$AAr?$AAi?$AAn?$AAg?$AAC?$AAh?$AAa?$AAn?$AAn?$AAe?$AAl?$AA?5@ ; `string'
PUBLIC	??_C@_0BE@HCJJFHJF@Got?5invalid?5packet?6?$AA@	; `string'
PUBLIC	??_C@_0DA@MOADJCKG@Got?5invalid?5ordering?5channel?5?$CFi?5@ ; `string'
PUBLIC	?__LINE__Var@?1??Send@ReliabilityLayer@@QAE_NPADHW4PacketPriority@@W4PacketReliability@@E_NH_J@Z@4JA ; `ReliabilityLayer::Send'::`2'::__LINE__Var
PUBLIC	??_C@_1HC@GDCNHECB@?$AA?$CB?$AA?$CI?$AA?5?$AAr?$AAe?$AAl?$AAi?$AAa?$AAb?$AAi?$AAl?$AAi?$AAt?$AAy?$AA?5?$AA?$DO?$AA?5?$AAR?$AAE?$AAL?$AAI?$AAA?$AAB?$AAL?$AAE?$AA_?$AAS?$AAE?$AAQ?$AAU?$AAE?$AAN@ ; `string'
PUBLIC	??_C@_1GK@MADIINNK@?$AA?$CB?$AA?$CI?$AA?5?$AAp?$AAr?$AAi?$AAo?$AAr?$AAi?$AAt?$AAy?$AA?5?$AA?$DO?$AA?5?$AAN?$AAU?$AAM?$AAB?$AAE?$AAR?$AA_?$AAO?$AAF?$AA_?$AAP?$AAR?$AAI?$AAO?$AAR?$AAI?$AAT?$AAI@ ; `string'
PUBLIC	??_C@_1JC@KFGENCHD@?$AA?$CB?$AA?$CI?$AA?5?$AAo?$AAr?$AAd?$AAe?$AAr?$AAi?$AAn?$AAg?$AAC?$AAh?$AAa?$AAn?$AAn?$AAe?$AAl?$AA?5?$AA?$DM?$AA?5?$AA0?$AA?5?$AA?$HM?$AA?$HM?$AA?5?$AAo?$AAr?$AAd?$AAe?$AAr?$AAi@ ; `string'
PUBLIC	??_C@_1CO@KEDLFNFL@?$AAn?$AAu?$AAm?$AAb?$AAe?$AAr?$AAO?$AAf?$AAB?$AAi?$AAt?$AAs?$AAT?$AAo?$AAS?$AAe?$AAn?$AAd?$AA?5?$AA?$DO?$AA?5?$AA0?$AA?$AA@ ; `string'
PUBLIC	??_C@_0EF@BEKPCEMB@Error?$CB?$CB?5ReliabilityLayer?3?3Send?5b@ ; `string'
PUBLIC	?__LINE__Var@?1??SendBitStream@ReliabilityLayer@@AAEXIUPlayerID@@PAVBitStream@RakNet@@@Z@4JA ; `ReliabilityLayer::SendBitStream'::`2'::__LINE__Var
PUBLIC	??_C@_1CI@ENDPABPL@?$AA?$CI?$AA?5?$AAl?$AAe?$AAn?$AAg?$AAt?$AAh?$AA?5?$AA?$CF?$AA?5?$AA8?$AA?5?$AA?$CJ?$AA?5?$AA?$DN?$AA?$DN?$AA?5?$AA0?$AA?$AA@ ; `string'
PUBLIC	?__LINE__Var@?1??GenerateDatagram@ReliabilityLayer@@AAEIPAVBitStream@RakNet@@HPA_N_JUPlayerID@@AAV?$List@PAVPluginInterface@@@DataStructures@@@Z@4JA ; `ReliabilityLayer::GenerateDatagram'::`2'::__LINE__Var
PUBLIC	??_C@_1DM@HJOKLFNH@?$AAi?$AAn?$AAt?$AAe?$AAr?$AAn?$AAa?$AAl?$AAP?$AAa?$AAc?$AAk?$AAe?$AAt?$AA?9?$AA?$DO?$AAp?$AAr?$AAi?$AAo?$AAr?$AAi?$AAt?$AAy?$AA?5?$AA?$DO?$AA?$DN?$AA?5?$AA0?$AA?$AA@ ; `string'
PUBLIC	?__LINE__Var@?1??GetBitStreamHeaderLength@ReliabilityLayer@@AAEHQBUInternalPacket@@@Z@4JA ; `ReliabilityLayer::GetBitStreamHeaderLength'::`2'::__LINE__Var
PUBLIC	??_C@_1BO@FAHOLNMM@?$AAi?$AAn?$AAt?$AAe?$AAr?$AAn?$AAa?$AAl?$AAP?$AAa?$AAc?$AAk?$AAe?$AAt?$AA?$AA@ ; `string'
PUBLIC	?__LINE__Var@?1??WriteToBitStreamFromInternalPacket@ReliabilityLayer@@AAEHPAVBitStream@RakNet@@QBUInternalPacket@@@Z@4JA ; `ReliabilityLayer::WriteToBitStreamFromInternalPacket'::`2'::__LINE__Var
PUBLIC	??_C@_1DI@CEDLGLL@?$AAb?$AAi?$AAt?$AAS?$AAt?$AAr?$AAe?$AAa?$AAm?$AA?5?$AA?$CG?$AA?$CG?$AA?5?$AAi?$AAn?$AAt?$AAe?$AAr?$AAn?$AAa?$AAl?$AAP?$AAa?$AAc?$AAk?$AAe?$AAt?$AA?$AA@ ; `string'
PUBLIC	??_C@_1EE@LOHKMABB@?$AAi?$AAn?$AAt?$AAe?$AAr?$AAn?$AAa?$AAl?$AAP?$AAa?$AAc?$AAk?$AAe?$AAt?$AA?9?$AA?$DO?$AAd?$AAa?$AAt?$AAa?$AAB?$AAi?$AAt?$AAL?$AAe?$AAn?$AAg?$AAt?$AAh?$AA?5?$AA?$DO?$AA?5@ ; `string'
PUBLIC	??_C@_1IE@GICOMIGA@?$AAB?$AAI?$AAT?$AAS?$AA_?$AAT?$AAO?$AA_?$AAB?$AAY?$AAT?$AAE?$AAS?$AA?$CI?$AA?5?$AAi?$AAn?$AAt?$AAe?$AAr?$AAn?$AAa?$AAl?$AAP?$AAa?$AAc?$AAk?$AAe?$AAt?$AA?9?$AA?$DO?$AAd@ ; `string'
PUBLIC	?__LINE__Var@?1??SplitPacket@ReliabilityLayer@@AAEXPAUInternalPacket@@H@Z@4JA ; `ReliabilityLayer::SplitPacket'::`2'::__LINE__Var
PUBLIC	??_C@_1FI@DMENGPEG@?$AAd?$AAa?$AAt?$AAa?$AAB?$AAy?$AAt?$AAe?$AAL?$AAe?$AAn?$AAg?$AAt?$AAh?$AA?5?$AA?$DO?$AA?5?$AAm?$AAa?$AAx?$AAD?$AAa?$AAt?$AAa?$AAS?$AAi?$AAz?$AAe?$AA?5?$AA?9?$AA?5?$AAh@ ; `string'
PUBLIC	?__LINE__Var@?1??BuildPacketFromSplitPacketList@ReliabilityLayer@@AAEPAUInternalPacket@@G_J@Z@4JA ; `ReliabilityLayer::BuildPacketFromSplitPacketList'::`2'::__LINE__Var
PUBLIC	??_C@_1BK@EBNJALNF@?$AAo?$AAb?$AAj?$AAe?$AAc?$AAt?$AAE?$AAx?$AAi?$AAs?$AAt?$AAs?$AA?$AA@ ; `string'
PUBLIC	?__LINE__Var@?1??AddToOrderingList@ReliabilityLayer@@AAEXPAUInternalPacket@@@Z@4JA ; `ReliabilityLayer::AddToOrderingList'::`2'::__LINE__Var
PUBLIC	?__LINE__Var@?1??InsertPacketIntoResendList@ReliabilityLayer@@AAEXPAUInternalPacket@@_J_N2@Z@4JA ; `ReliabilityLayer::InsertPacketIntoResendList'::`2'::__LINE__Var
PUBLIC	??_C@_1EE@KHBHHHAB@?$AAi?$AAn?$AAt?$AAe?$AAr?$AAn?$AAa?$AAl?$AAP?$AAa?$AAc?$AAk?$AAe?$AAt?$AA?9?$AA?$DO?$AAn?$AAe?$AAx?$AAt?$AAA?$AAc?$AAt?$AAi?$AAo?$AAn?$AAT?$AAi?$AAm?$AAe?$AA?$CB?$AA?$DN@ ; `string'
PUBLIC	??_C@_1EG@DIEEECKO@?$AAz?$AA?3?$AA?2?$AAs?$AAa?$AAm?$AAp?$AAs?$AAr?$AAc?$AA?2?$AA0?$AA2?$AAx?$AAu?$AA1?$AA?2?$AAr?$AAa?$AAk?$AAn?$AAe?$AAt?$AA?2?$AAd?$AAs?$AA_?$AAq?$AAu?$AAe?$AAu?$AAe@ ; `string'
PUBLIC	??_C@_1BE@OMEGJCHO@?$AAn?$AAe?$AAw?$AA_?$AAa?$AAr?$AAr?$AAa?$AAy?$AA?$AA@ ; `string'
PUBLIC	??_C@_1CE@CLDOPLDF@?$AAp?$AAo?$AAs?$AAi?$AAt?$AAi?$AAo?$AAn?$AA?5?$AA?$DM?$AA?5?$AAS?$AAi?$AAz?$AAe?$AA?$CI?$AA?$CJ?$AA?$AA@ ; `string'
PUBLIC	??_C@_1BK@BHOIKEPB@?$AAh?$AAe?$AAa?$AAd?$AA?5?$AA?$CB?$AA?$DN?$AA?5?$AAt?$AAa?$AAi?$AAl?$AA?$AA@ ; `string'
PUBLIC	??_C@_1EG@MGMFGCAG@?$AAa?$AAl?$AAl?$AAo?$AAc?$AAa?$AAt?$AAi?$AAo?$AAn?$AA_?$AAs?$AAi?$AAz?$AAe?$AA?5?$AA?$DO?$AA?5?$AA0?$AA?5?$AA?$CG?$AA?$CG?$AA?5?$AAS?$AAi?$AAz?$AAe?$AA?$CI?$AA?$CJ?$AA?5?$AA?$DO?$AA?$DN@ ; `string'
PUBLIC	??_C@_1GG@JDEIIJCO@?$AAa?$AAl?$AAl?$AAo?$AAc?$AAa?$AAt?$AAi?$AAo?$AAn?$AA_?$AAs?$AAi?$AAz?$AAe?$AA?5?$AA?$DO?$AA?5?$AA0?$AA?5?$AA?$CG?$AA?$CG?$AA?5?$AAS?$AAi?$AAz?$AAe?$AA?$CI?$AA?$CJ?$AA?5?$AA?$DO?$AA?$DN@ ; `string'
PUBLIC	??_C@_1EE@MBOIAKFO@?$AAz?$AA?3?$AA?2?$AAs?$AAa?$AAm?$AAp?$AAs?$AAr?$AAc?$AA?2?$AA0?$AA2?$AAx?$AAu?$AA1?$AA?2?$AAr?$AAa?$AAk?$AAn?$AAe?$AAt?$AA?2?$AAd?$AAs?$AA_?$AAl?$AAi?$AAs?$AAt?$AA?4@ ; `string'
PUBLIC	??_C@_1CK@HINNGFPG@?$AAp?$AAo?$AAs?$AAi?$AAt?$AAi?$AAo?$AAn?$AA?5?$AA?$DM?$AA?5?$AAl?$AAi?$AAs?$AAt?$AA_?$AAs?$AAi?$AAz?$AAe?$AA?$AA@ ; `string'
PUBLIC	??_C@_1DE@KHAHCBKC@?$AAl?$AAi?$AAs?$AAt?$AA_?$AAs?$AAi?$AAz?$AAe?$AA?5?$AA?$DN?$AA?$DN?$AA?5?$AAp?$AAo?$AAs?$AAi?$AAt?$AAi?$AAo?$AAn?$AA?5?$AA?$CL?$AA?5?$AA1?$AA?$AA@ ; `string'
PUBLIC	??_C@_1EO@BAKEJDDB@?$AAz?$AA?3?$AA?2?$AAs?$AAa?$AAm?$AAp?$AAs?$AAr?$AAc?$AA?2?$AA0?$AA2?$AAx?$AAu?$AA1?$AA?2?$AAr?$AAa?$AAk?$AAn?$AAe?$AAt?$AA?2?$AAd?$AAs?$AA_?$AAr?$AAa?$AAn?$AAg?$AAe@ ; `string'
PUBLIC	??_C@_1EG@DIEFEKLO@?$AAr?$AAa?$AAn?$AAg?$AAe?$AAs?$AA?4?$AAS?$AAi?$AAz?$AAe?$AA?$CI?$AA?$CJ?$AA?5?$AA?$DM?$AA?5?$AA?$CI?$AAu?$AAn?$AAs?$AAi?$AAg?$AAn?$AAe?$AAd?$AA?5?$AAs?$AAh?$AAo?$AAr?$AAt?$AA?$CJ@ ; `string'
PUBLIC	??_C@_1EO@DHNPHPFC@?$AAz?$AA?3?$AA?2?$AAs?$AAa?$AAm?$AAp?$AAs?$AAr?$AAc?$AA?2?$AA0?$AA2?$AAx?$AAu?$AA1?$AA?2?$AAr?$AAa?$AAk?$AAn?$AAe?$AAt?$AA?2?$AAd?$AAs?$AA_?$AAb?$AAp?$AAl?$AAu?$AAs@ ; `string'
PUBLIC	??_C@_1GM@PECFPFGO@?$AAr?$AAe?$AAt?$AAu?$AAr?$AAn?$AAA?$AAc?$AAt?$AAi?$AAo?$AAn?$AA?4?$AAa?$AAc?$AAt?$AAi?$AAo?$AAn?$AA?$DN?$AA?$DN?$AAR?$AAe?$AAt?$AAu?$AAr?$AAn?$AAA?$AAc?$AAt?$AAi?$AAo@ ; `string'
PUBLIC	??_C@_1BO@JBFMBKMD@?$AAl?$AAi?$AAs?$AAt?$AA_?$AAs?$AAi?$AAz?$AAe?$AA?$DO?$AA?$DN?$AAn?$AAu?$AAm?$AA?$AA@ ; `string'
PUBLIC	??_C@_1CM@FMCFHBCK@?$AAp?$AAo?$AAs?$AAi?$AAt?$AAi?$AAo?$AAn?$AA?5?$AA?$DM?$AA?$DN?$AA?5?$AAl?$AAi?$AAs?$AAt?$AA_?$AAs?$AAi?$AAz?$AAe?$AA?$AA@ ; `string'
PUBLIC	??_C@_1BK@CAFOCCOP@?$AAp?$AAa?$AAg?$AAe?$AA?9?$AA?$DO?$AAs?$AAi?$AAz?$AAe?$AA?$DO?$AA0?$AA?$AA@ ; `string'
PUBLIC	??_C@_1GO@DFNPOHCN@?$AAr?$AAe?$AAt?$AAu?$AAr?$AAn?$AAA?$AAc?$AAt?$AAi?$AAo?$AAn?$AA?9?$AA?$DO?$AAa?$AAc?$AAt?$AAi?$AAo?$AAn?$AA?$DN?$AA?$DN?$AAR?$AAe?$AAt?$AAu?$AAr?$AAn?$AAA?$AAc?$AAt?$AAi@ ; `string'
PUBLIC	??_C@_1FA@EECGGCBA@?$AAz?$AA?3?$AA?2?$AAs?$AAa?$AAm?$AAp?$AAs?$AAr?$AAc?$AA?2?$AA0?$AA2?$AAx?$AAu?$AA1?$AA?2?$AAr?$AAa?$AAk?$AAn?$AAe?$AAt?$AA?2?$AAd?$AAs?$AA_?$AAm?$AAe?$AAm?$AAo?$AAr@ ; `string'
PUBLIC	??_C@_1BK@JNGCOJCH@?$AAb?$AAl?$AAo?$AAc?$AAk?$AAs?$AAO?$AAu?$AAt?$AA?$DN?$AA?$DN?$AA0?$AA?$AA@ ; `string'
PUBLIC	??_C@_1BI@OFKIDLPK@?$AAb?$AAl?$AAo?$AAc?$AAk?$AAs?$AAO?$AAu?$AAt?$AA?$DO?$AA0?$AA?$AA@ ; `string'
PUBLIC	??_C@_1BC@GBMFMLDI@?$AAb?$AA?$DN?$AA?$DN?$AAf?$AAa?$AAl?$AAs?$AAe?$AA?$AA@ ; `string'
PUBLIC	__real@00000000
PUBLIC	__real@0000000000000000
PUBLIC	__real@3fc999999999999a
PUBLIC	__real@3feccccccccccccd
PUBLIC	__real@3ff0cccccccccccd
PUBLIC	__real@3ff8000000000000
PUBLIC	__real@40000000
PUBLIC	__real@4000000000000000
PUBLIC	__real@4010000000000000
PUBLIC	__real@40800000
PUBLIC	__real@412e848000000000
PUBLIC	__xmm@41f00000000000000000000000000000
EXTRN	??_L@YGXPAXIHP6EX0@Z1@Z:PROC			; `eh vector constructor iterator'
EXTRN	??_M@YGXPAXIHP6EX0@Z@Z:PROC			; `eh vector destructor iterator'
EXTRN	??2@YAPAXI@Z:PROC				; operator new
EXTRN	??3@YAXPAX@Z:PROC				; operator delete
EXTRN	_memcpy:PROC
EXTRN	_memset:PROC
EXTRN	_memmove:PROC
EXTRN	?SendTo@SocketLayer@@QAEHIPBDHIG@Z:PROC		; SocketLayer::SendTo
EXTRN	__wassert:PROC
EXTRN	??0BitStream@RakNet@@QAE@XZ:PROC		; RakNet::BitStream::BitStream
EXTRN	??0BitStream@RakNet@@QAE@H@Z:PROC		; RakNet::BitStream::BitStream
EXTRN	??0BitStream@RakNet@@QAE@PAEI_N@Z:PROC		; RakNet::BitStream::BitStream
EXTRN	??1BitStream@RakNet@@QAE@XZ:PROC		; RakNet::BitStream::~BitStream
EXTRN	?Reset@BitStream@RakNet@@QAEXXZ:PROC		; RakNet::BitStream::Reset
EXTRN	?Write@BitStream@RakNet@@QAEXPBDH@Z:PROC	; RakNet::BitStream::Write
EXTRN	?Write@BitStream@RakNet@@QAEXPAV12@H@Z:PROC	; RakNet::BitStream::Write
EXTRN	?WriteBits@BitStream@RakNet@@QAEXPBEH_N@Z:PROC	; RakNet::BitStream::WriteBits
EXTRN	?WriteAlignedBytes@BitStream@RakNet@@QAEXPBEH@Z:PROC ; RakNet::BitStream::WriteAlignedBytes
EXTRN	?ReadAlignedBytes@BitStream@RakNet@@QAE_NPAEH@Z:PROC ; RakNet::BitStream::ReadAlignedBytes
EXTRN	?ReadBits@BitStream@RakNet@@QAE_NPAEH_N@Z:PROC	; RakNet::BitStream::ReadBits
EXTRN	?Write0@BitStream@RakNet@@QAEXXZ:PROC		; RakNet::BitStream::Write0
EXTRN	?Write1@BitStream@RakNet@@QAEXXZ:PROC		; RakNet::BitStream::Write1
EXTRN	?WriteCompressed@BitStream@RakNet@@AAEXPBEH_N@Z:PROC ; RakNet::BitStream::WriteCompressed
EXTRN	?ReadCompressed@BitStream@RakNet@@AAE_NPAEH_N@Z:PROC ; RakNet::BitStream::ReadCompressed
EXTRN	??0InternalPacketPool@@QAE@XZ:PROC		; InternalPacketPool::InternalPacketPool
EXTRN	??1InternalPacketPool@@QAE@XZ:PROC		; InternalPacketPool::~InternalPacketPool
EXTRN	?ReleasePointer@InternalPacketPool@@QAEXPAUInternalPacket@@@Z:PROC ; InternalPacketPool::ReleasePointer
EXTRN	?ClearPool@InternalPacketPool@@QAEXXZ:PROC	; InternalPacketPool::ClearPool
EXTRN	_printf:PROC
EXTRN	??0TEABlockEncryptor@@QAE@XZ:PROC		; TEABlockEncryptor::TEABlockEncryptor
EXTRN	??1TEABlockEncryptor@@QAE@XZ:PROC		; TEABlockEncryptor::~TEABlockEncryptor
EXTRN	?IsKeySet@TEABlockEncryptor@@QBE_NXZ:PROC	; TEABlockEncryptor::IsKeySet
EXTRN	?SetKey@TEABlockEncryptor@@QAEXQBE@Z:PROC	; TEABlockEncryptor::SetKey
EXTRN	?UnsetKey@TEABlockEncryptor@@QAEXXZ:PROC	; TEABlockEncryptor::UnsetKey
EXTRN	?Encrypt@TEABlockEncryptor@@QAEXPAEH0PAH@Z:PROC	; TEABlockEncryptor::Encrypt
EXTRN	?Decrypt@TEABlockEncryptor@@QAE_NPAEH0PAH@Z:PROC ; TEABlockEncryptor::Decrypt
EXTRN	??0CSHA1@@QAE@XZ:PROC				; CSHA1::CSHA1
EXTRN	??1CSHA1@@UAE@XZ:PROC				; CSHA1::~CSHA1
EXTRN	?Reset@CSHA1@@QAEXXZ:PROC			; CSHA1::Reset
EXTRN	?Update@CSHA1@@QAEXPAEI@Z:PROC			; CSHA1::Update
EXTRN	?Final@CSHA1@@QAEXXZ:PROC			; CSHA1::Final
EXTRN	?GetHash@CSHA1@@QBEPAEXZ:PROC			; CSHA1::GetHash
EXTRN	?GetTime@RakNet@@YAIXZ:PROC			; RakNet::GetTime
EXTRN	?GetTimeNS@RakNet@@YA_JXZ:PROC			; RakNet::GetTimeNS
EXTRN	?randomMT@@YAIXZ:PROC				; randomMT
EXTRN	?frandomMT@@YAMXZ:PROC				; frandomMT
EXTRN	@_RTC_AllocaHelper@12:PROC
EXTRN	@_RTC_CheckStackVars2@12:PROC
EXTRN	@_RTC_CheckStackVars@8:PROC
EXTRN	@__security_check_cookie@4:PROC
EXTRN	__RTC_CheckEsp:PROC
EXTRN	__RTC_InitBase:PROC
EXTRN	__RTC_Shutdown:PROC
EXTRN	___CxxFrameHandler3:PROC
EXTRN	__alldiv:PROC
EXTRN	__alloca_probe_16:PROC
EXTRN	__ftoui3:PROC
EXTRN	__ltod3:PROC
EXTRN	?I@SocketLayer@@0V1@A:BYTE			; SocketLayer::I
EXTRN	___security_cookie:DWORD
EXTRN	__fltused:DWORD
;	COMDAT __xmm@41f00000000000000000000000000000
CONST	SEGMENT
__xmm@41f00000000000000000000000000000 DB 00H, 00H, 00H, 00H, 00H, 00H, 00H
	DB	00H, 00H, 00H, 00H, 00H, 00H, 00H, 0f0H, 'A'
CONST	ENDS
;	COMDAT __real@412e848000000000
CONST	SEGMENT
__real@412e848000000000 DQ 0412e848000000000r	; 1e+006
CONST	ENDS
;	COMDAT __real@40800000
CONST	SEGMENT
__real@40800000 DD 040800000r			; 4
CONST	ENDS
;	COMDAT __real@4010000000000000
CONST	SEGMENT
__real@4010000000000000 DQ 04010000000000000r	; 4
CONST	ENDS
;	COMDAT __real@4000000000000000
CONST	SEGMENT
__real@4000000000000000 DQ 04000000000000000r	; 2
CONST	ENDS
;	COMDAT __real@40000000
CONST	SEGMENT
__real@40000000 DD 040000000r			; 2
CONST	ENDS
;	COMDAT __real@3ff8000000000000
CONST	SEGMENT
__real@3ff8000000000000 DQ 03ff8000000000000r	; 1.5
CONST	ENDS
;	COMDAT __real@3ff0cccccccccccd
CONST	SEGMENT
__real@3ff0cccccccccccd DQ 03ff0cccccccccccdr	; 1.05
CONST	ENDS
;	COMDAT __real@3feccccccccccccd
CONST	SEGMENT
__real@3feccccccccccccd DQ 03feccccccccccccdr	; 0.9
CONST	ENDS
;	COMDAT __real@3fc999999999999a
CONST	SEGMENT
__real@3fc999999999999a DQ 03fc999999999999ar	; 0.2
CONST	ENDS
;	COMDAT __real@0000000000000000
CONST	SEGMENT
__real@0000000000000000 DQ 00000000000000000r	; 0
CONST	ENDS
;	COMDAT __real@00000000
CONST	SEGMENT
__real@00000000 DD 000000000r			; 0
CONST	ENDS
;	COMDAT rtc$TMZ
rtc$TMZ	SEGMENT
__RTC_Shutdown.rtc$TMZ DD FLAT:__RTC_Shutdown
rtc$TMZ	ENDS
;	COMDAT rtc$IMZ
rtc$IMZ	SEGMENT
__RTC_InitBase.rtc$IMZ DD FLAT:__RTC_InitBase
rtc$IMZ	ENDS
;	COMDAT ??_C@_1BC@GBMFMLDI@?$AAb?$AA?$DN?$AA?$DN?$AAf?$AAa?$AAl?$AAs?$AAe?$AA?$AA@
CONST	SEGMENT
??_C@_1BC@GBMFMLDI@?$AAb?$AA?$DN?$AA?$DN?$AAf?$AAa?$AAl?$AAs?$AAe?$AA?$AA@ DB 'b'
	DB	00H, '=', 00H, '=', 00H, 'f', 00H, 'a', 00H, 'l', 00H, 's', 00H
	DB	'e', 00H, 00H, 00H				; `string'
CONST	ENDS
;	COMDAT ??_C@_1BI@OFKIDLPK@?$AAb?$AAl?$AAo?$AAc?$AAk?$AAs?$AAO?$AAu?$AAt?$AA?$DO?$AA0?$AA?$AA@
CONST	SEGMENT
??_C@_1BI@OFKIDLPK@?$AAb?$AAl?$AAo?$AAc?$AAk?$AAs?$AAO?$AAu?$AAt?$AA?$DO?$AA0?$AA?$AA@ DB 'b'
	DB	00H, 'l', 00H, 'o', 00H, 'c', 00H, 'k', 00H, 's', 00H, 'O', 00H
	DB	'u', 00H, 't', 00H, '>', 00H, '0', 00H, 00H, 00H ; `string'
CONST	ENDS
;	COMDAT ??_C@_1BK@JNGCOJCH@?$AAb?$AAl?$AAo?$AAc?$AAk?$AAs?$AAO?$AAu?$AAt?$AA?$DN?$AA?$DN?$AA0?$AA?$AA@
CONST	SEGMENT
??_C@_1BK@JNGCOJCH@?$AAb?$AAl?$AAo?$AAc?$AAk?$AAs?$AAO?$AAu?$AAt?$AA?$DN?$AA?$DN?$AA0?$AA?$AA@ DB 'b'
	DB	00H, 'l', 00H, 'o', 00H, 'c', 00H, 'k', 00H, 's', 00H, 'O', 00H
	DB	'u', 00H, 't', 00H, '=', 00H, '=', 00H, '0', 00H, 00H, 00H ; `string'
CONST	ENDS
;	COMDAT ??_C@_1FA@EECGGCBA@?$AAz?$AA?3?$AA?2?$AAs?$AAa?$AAm?$AAp?$AAs?$AAr?$AAc?$AA?2?$AA0?$AA2?$AAx?$AAu?$AA1?$AA?2?$AAr?$AAa?$AAk?$AAn?$AAe?$AAt?$AA?2?$AAd?$AAs?$AA_?$AAm?$AAe?$AAm?$AAo?$AAr@
CONST	SEGMENT
??_C@_1FA@EECGGCBA@?$AAz?$AA?3?$AA?2?$AAs?$AAa?$AAm?$AAp?$AAs?$AAr?$AAc?$AA?2?$AA0?$AA2?$AAx?$AAu?$AA1?$AA?2?$AAr?$AAa?$AAk?$AAn?$AAe?$AAt?$AA?2?$AAd?$AAs?$AA_?$AAm?$AAe?$AAm?$AAo?$AAr@ DB 'z'
	DB	00H, ':', 00H, '\', 00H, 's', 00H, 'a', 00H, 'm', 00H, 'p', 00H
	DB	's', 00H, 'r', 00H, 'c', 00H, '\', 00H, '0', 00H, '2', 00H, 'x'
	DB	00H, 'u', 00H, '1', 00H, '\', 00H, 'r', 00H, 'a', 00H, 'k', 00H
	DB	'n', 00H, 'e', 00H, 't', 00H, '\', 00H, 'd', 00H, 's', 00H, '_'
	DB	00H, 'm', 00H, 'e', 00H, 'm', 00H, 'o', 00H, 'r', 00H, 'y', 00H
	DB	'p', 00H, 'o', 00H, 'o', 00H, 'l', 00H, '.', 00H, 'h', 00H, 00H
	DB	00H						; `string'
CONST	ENDS
;	COMDAT ??_C@_1GO@DFNPOHCN@?$AAr?$AAe?$AAt?$AAu?$AAr?$AAn?$AAA?$AAc?$AAt?$AAi?$AAo?$AAn?$AA?9?$AA?$DO?$AAa?$AAc?$AAt?$AAi?$AAo?$AAn?$AA?$DN?$AA?$DN?$AAR?$AAe?$AAt?$AAu?$AAr?$AAn?$AAA?$AAc?$AAt?$AAi@
CONST	SEGMENT
??_C@_1GO@DFNPOHCN@?$AAr?$AAe?$AAt?$AAu?$AAr?$AAn?$AAA?$AAc?$AAt?$AAi?$AAo?$AAn?$AA?9?$AA?$DO?$AAa?$AAc?$AAt?$AAi?$AAo?$AAn?$AA?$DN?$AA?$DN?$AAR?$AAe?$AAt?$AAu?$AAr?$AAn?$AAA?$AAc?$AAt?$AAi@ DB 'r'
	DB	00H, 'e', 00H, 't', 00H, 'u', 00H, 'r', 00H, 'n', 00H, 'A', 00H
	DB	'c', 00H, 't', 00H, 'i', 00H, 'o', 00H, 'n', 00H, '-', 00H, '>'
	DB	00H, 'a', 00H, 'c', 00H, 't', 00H, 'i', 00H, 'o', 00H, 'n', 00H
	DB	'=', 00H, '=', 00H, 'R', 00H, 'e', 00H, 't', 00H, 'u', 00H, 'r'
	DB	00H, 'n', 00H, 'A', 00H, 'c', 00H, 't', 00H, 'i', 00H, 'o', 00H
	DB	'n', 00H, ':', 00H, ':', 00H, 'P', 00H, 'U', 00H, 'S', 00H, 'H'
	DB	00H, '_', 00H, 'K', 00H, 'E', 00H, 'Y', 00H, '_', 00H, 'T', 00H
	DB	'O', 00H, '_', 00H, 'P', 00H, 'A', 00H, 'R', 00H, 'E', 00H, 'N'
	DB	00H, 'T', 00H, 00H, 00H			; `string'
CONST	ENDS
;	COMDAT ??_C@_1BK@CAFOCCOP@?$AAp?$AAa?$AAg?$AAe?$AA?9?$AA?$DO?$AAs?$AAi?$AAz?$AAe?$AA?$DO?$AA0?$AA?$AA@
CONST	SEGMENT
??_C@_1BK@CAFOCCOP@?$AAp?$AAa?$AAg?$AAe?$AA?9?$AA?$DO?$AAs?$AAi?$AAz?$AAe?$AA?$DO?$AA0?$AA?$AA@ DB 'p'
	DB	00H, 'a', 00H, 'g', 00H, 'e', 00H, '-', 00H, '>', 00H, 's', 00H
	DB	'i', 00H, 'z', 00H, 'e', 00H, '>', 00H, '0', 00H, 00H, 00H ; `string'
CONST	ENDS
;	COMDAT ??_C@_1CM@FMCFHBCK@?$AAp?$AAo?$AAs?$AAi?$AAt?$AAi?$AAo?$AAn?$AA?5?$AA?$DM?$AA?$DN?$AA?5?$AAl?$AAi?$AAs?$AAt?$AA_?$AAs?$AAi?$AAz?$AAe?$AA?$AA@
CONST	SEGMENT
??_C@_1CM@FMCFHBCK@?$AAp?$AAo?$AAs?$AAi?$AAt?$AAi?$AAo?$AAn?$AA?5?$AA?$DM?$AA?$DN?$AA?5?$AAl?$AAi?$AAs?$AAt?$AA_?$AAs?$AAi?$AAz?$AAe?$AA?$AA@ DB 'p'
	DB	00H, 'o', 00H, 's', 00H, 'i', 00H, 't', 00H, 'i', 00H, 'o', 00H
	DB	'n', 00H, ' ', 00H, '<', 00H, '=', 00H, ' ', 00H, 'l', 00H, 'i'
	DB	00H, 's', 00H, 't', 00H, '_', 00H, 's', 00H, 'i', 00H, 'z', 00H
	DB	'e', 00H, 00H, 00H				; `string'
CONST	ENDS
;	COMDAT ??_C@_1BO@JBFMBKMD@?$AAl?$AAi?$AAs?$AAt?$AA_?$AAs?$AAi?$AAz?$AAe?$AA?$DO?$AA?$DN?$AAn?$AAu?$AAm?$AA?$AA@
CONST	SEGMENT
??_C@_1BO@JBFMBKMD@?$AAl?$AAi?$AAs?$AAt?$AA_?$AAs?$AAi?$AAz?$AAe?$AA?$DO?$AA?$DN?$AAn?$AAu?$AAm?$AA?$AA@ DB 'l'
	DB	00H, 'i', 00H, 's', 00H, 't', 00H, '_', 00H, 's', 00H, 'i', 00H
	DB	'z', 00H, 'e', 00H, '>', 00H, '=', 00H, 'n', 00H, 'u', 00H, 'm'
	DB	00H, 00H, 00H				; `string'
CONST	ENDS
;	COMDAT ??_C@_1GM@PECFPFGO@?$AAr?$AAe?$AAt?$AAu?$AAr?$AAn?$AAA?$AAc?$AAt?$AAi?$AAo?$AAn?$AA?4?$AAa?$AAc?$AAt?$AAi?$AAo?$AAn?$AA?$DN?$AA?$DN?$AAR?$AAe?$AAt?$AAu?$AAr?$AAn?$AAA?$AAc?$AAt?$AAi?$AAo@
CONST	SEGMENT
??_C@_1GM@PECFPFGO@?$AAr?$AAe?$AAt?$AAu?$AAr?$AAn?$AAA?$AAc?$AAt?$AAi?$AAo?$AAn?$AA?4?$AAa?$AAc?$AAt?$AAi?$AAo?$AAn?$AA?$DN?$AA?$DN?$AAR?$AAe?$AAt?$AAu?$AAr?$AAn?$AAA?$AAc?$AAt?$AAi?$AAo@ DB 'r'
	DB	00H, 'e', 00H, 't', 00H, 'u', 00H, 'r', 00H, 'n', 00H, 'A', 00H
	DB	'c', 00H, 't', 00H, 'i', 00H, 'o', 00H, 'n', 00H, '.', 00H, 'a'
	DB	00H, 'c', 00H, 't', 00H, 'i', 00H, 'o', 00H, 'n', 00H, '=', 00H
	DB	'=', 00H, 'R', 00H, 'e', 00H, 't', 00H, 'u', 00H, 'r', 00H, 'n'
	DB	00H, 'A', 00H, 'c', 00H, 't', 00H, 'i', 00H, 'o', 00H, 'n', 00H
	DB	':', 00H, ':', 00H, 'P', 00H, 'U', 00H, 'S', 00H, 'H', 00H, '_'
	DB	00H, 'K', 00H, 'E', 00H, 'Y', 00H, '_', 00H, 'T', 00H, 'O', 00H
	DB	'_', 00H, 'P', 00H, 'A', 00H, 'R', 00H, 'E', 00H, 'N', 00H, 'T'
	DB	00H, 00H, 00H				; `string'
CONST	ENDS
;	COMDAT ??_C@_1EO@DHNPHPFC@?$AAz?$AA?3?$AA?2?$AAs?$AAa?$AAm?$AAp?$AAs?$AAr?$AAc?$AA?2?$AA0?$AA2?$AAx?$AAu?$AA1?$AA?2?$AAr?$AAa?$AAk?$AAn?$AAe?$AAt?$AA?2?$AAd?$AAs?$AA_?$AAb?$AAp?$AAl?$AAu?$AAs@
CONST	SEGMENT
??_C@_1EO@DHNPHPFC@?$AAz?$AA?3?$AA?2?$AAs?$AAa?$AAm?$AAp?$AAs?$AAr?$AAc?$AA?2?$AA0?$AA2?$AAx?$AAu?$AA1?$AA?2?$AAr?$AAa?$AAk?$AAn?$AAe?$AAt?$AA?2?$AAd?$AAs?$AA_?$AAb?$AAp?$AAl?$AAu?$AAs@ DB 'z'
	DB	00H, ':', 00H, '\', 00H, 's', 00H, 'a', 00H, 'm', 00H, 'p', 00H
	DB	's', 00H, 'r', 00H, 'c', 00H, '\', 00H, '0', 00H, '2', 00H, 'x'
	DB	00H, 'u', 00H, '1', 00H, '\', 00H, 'r', 00H, 'a', 00H, 'k', 00H
	DB	'n', 00H, 'e', 00H, 't', 00H, '\', 00H, 'd', 00H, 's', 00H, '_'
	DB	00H, 'b', 00H, 'p', 00H, 'l', 00H, 'u', 00H, 's', 00H, 't', 00H
	DB	'r', 00H, 'e', 00H, 'e', 00H, '.', 00H, 'h', 00H, 00H, 00H ; `string'
CONST	ENDS
;	COMDAT ??_C@_1EG@DIEFEKLO@?$AAr?$AAa?$AAn?$AAg?$AAe?$AAs?$AA?4?$AAS?$AAi?$AAz?$AAe?$AA?$CI?$AA?$CJ?$AA?5?$AA?$DM?$AA?5?$AA?$CI?$AAu?$AAn?$AAs?$AAi?$AAg?$AAn?$AAe?$AAd?$AA?5?$AAs?$AAh?$AAo?$AAr?$AAt?$AA?$CJ@
CONST	SEGMENT
??_C@_1EG@DIEFEKLO@?$AAr?$AAa?$AAn?$AAg?$AAe?$AAs?$AA?4?$AAS?$AAi?$AAz?$AAe?$AA?$CI?$AA?$CJ?$AA?5?$AA?$DM?$AA?5?$AA?$CI?$AAu?$AAn?$AAs?$AAi?$AAg?$AAn?$AAe?$AAd?$AA?5?$AAs?$AAh?$AAo?$AAr?$AAt?$AA?$CJ@ DB 'r'
	DB	00H, 'a', 00H, 'n', 00H, 'g', 00H, 'e', 00H, 's', 00H, '.', 00H
	DB	'S', 00H, 'i', 00H, 'z', 00H, 'e', 00H, '(', 00H, ')', 00H, ' '
	DB	00H, '<', 00H, ' ', 00H, '(', 00H, 'u', 00H, 'n', 00H, 's', 00H
	DB	'i', 00H, 'g', 00H, 'n', 00H, 'e', 00H, 'd', 00H, ' ', 00H, 's'
	DB	00H, 'h', 00H, 'o', 00H, 'r', 00H, 't', 00H, ')', 00H, '-', 00H
	DB	'1', 00H, 00H, 00H				; `string'
CONST	ENDS
;	COMDAT ??_C@_1EO@BAKEJDDB@?$AAz?$AA?3?$AA?2?$AAs?$AAa?$AAm?$AAp?$AAs?$AAr?$AAc?$AA?2?$AA0?$AA2?$AAx?$AAu?$AA1?$AA?2?$AAr?$AAa?$AAk?$AAn?$AAe?$AAt?$AA?2?$AAd?$AAs?$AA_?$AAr?$AAa?$AAn?$AAg?$AAe@
CONST	SEGMENT
??_C@_1EO@BAKEJDDB@?$AAz?$AA?3?$AA?2?$AAs?$AAa?$AAm?$AAp?$AAs?$AAr?$AAc?$AA?2?$AA0?$AA2?$AAx?$AAu?$AA1?$AA?2?$AAr?$AAa?$AAk?$AAn?$AAe?$AAt?$AA?2?$AAd?$AAs?$AA_?$AAr?$AAa?$AAn?$AAg?$AAe@ DB 'z'
	DB	00H, ':', 00H, '\', 00H, 's', 00H, 'a', 00H, 'm', 00H, 'p', 00H
	DB	's', 00H, 'r', 00H, 'c', 00H, '\', 00H, '0', 00H, '2', 00H, 'x'
	DB	00H, 'u', 00H, '1', 00H, '\', 00H, 'r', 00H, 'a', 00H, 'k', 00H
	DB	'n', 00H, 'e', 00H, 't', 00H, '\', 00H, 'd', 00H, 's', 00H, '_'
	DB	00H, 'r', 00H, 'a', 00H, 'n', 00H, 'g', 00H, 'e', 00H, 'l', 00H
	DB	'i', 00H, 's', 00H, 't', 00H, '.', 00H, 'h', 00H, 00H, 00H ; `string'
CONST	ENDS
;	COMDAT ??_C@_1DE@KHAHCBKC@?$AAl?$AAi?$AAs?$AAt?$AA_?$AAs?$AAi?$AAz?$AAe?$AA?5?$AA?$DN?$AA?$DN?$AA?5?$AAp?$AAo?$AAs?$AAi?$AAt?$AAi?$AAo?$AAn?$AA?5?$AA?$CL?$AA?5?$AA1?$AA?$AA@
CONST	SEGMENT
??_C@_1DE@KHAHCBKC@?$AAl?$AAi?$AAs?$AAt?$AA_?$AAs?$AAi?$AAz?$AAe?$AA?5?$AA?$DN?$AA?$DN?$AA?5?$AAp?$AAo?$AAs?$AAi?$AAt?$AAi?$AAo?$AAn?$AA?5?$AA?$CL?$AA?5?$AA1?$AA?$AA@ DB 'l'
	DB	00H, 'i', 00H, 's', 00H, 't', 00H, '_', 00H, 's', 00H, 'i', 00H
	DB	'z', 00H, 'e', 00H, ' ', 00H, '=', 00H, '=', 00H, ' ', 00H, 'p'
	DB	00H, 'o', 00H, 's', 00H, 'i', 00H, 't', 00H, 'i', 00H, 'o', 00H
	DB	'n', 00H, ' ', 00H, '+', 00H, ' ', 00H, '1', 00H, 00H, 00H ; `string'
CONST	ENDS
;	COMDAT ??_C@_1CK@HINNGFPG@?$AAp?$AAo?$AAs?$AAi?$AAt?$AAi?$AAo?$AAn?$AA?5?$AA?$DM?$AA?5?$AAl?$AAi?$AAs?$AAt?$AA_?$AAs?$AAi?$AAz?$AAe?$AA?$AA@
CONST	SEGMENT
??_C@_1CK@HINNGFPG@?$AAp?$AAo?$AAs?$AAi?$AAt?$AAi?$AAo?$AAn?$AA?5?$AA?$DM?$AA?5?$AAl?$AAi?$AAs?$AAt?$AA_?$AAs?$AAi?$AAz?$AAe?$AA?$AA@ DB 'p'
	DB	00H, 'o', 00H, 's', 00H, 'i', 00H, 't', 00H, 'i', 00H, 'o', 00H
	DB	'n', 00H, ' ', 00H, '<', 00H, ' ', 00H, 'l', 00H, 'i', 00H, 's'
	DB	00H, 't', 00H, '_', 00H, 's', 00H, 'i', 00H, 'z', 00H, 'e', 00H
	DB	00H, 00H					; `string'
CONST	ENDS
;	COMDAT ??_C@_1EE@MBOIAKFO@?$AAz?$AA?3?$AA?2?$AAs?$AAa?$AAm?$AAp?$AAs?$AAr?$AAc?$AA?2?$AA0?$AA2?$AAx?$AAu?$AA1?$AA?2?$AAr?$AAa?$AAk?$AAn?$AAe?$AAt?$AA?2?$AAd?$AAs?$AA_?$AAl?$AAi?$AAs?$AAt?$AA?4@
CONST	SEGMENT
??_C@_1EE@MBOIAKFO@?$AAz?$AA?3?$AA?2?$AAs?$AAa?$AAm?$AAp?$AAs?$AAr?$AAc?$AA?2?$AA0?$AA2?$AAx?$AAu?$AA1?$AA?2?$AAr?$AAa?$AAk?$AAn?$AAe?$AAt?$AA?2?$AAd?$AAs?$AA_?$AAl?$AAi?$AAs?$AAt?$AA?4@ DB 'z'
	DB	00H, ':', 00H, '\', 00H, 's', 00H, 'a', 00H, 'm', 00H, 'p', 00H
	DB	's', 00H, 'r', 00H, 'c', 00H, '\', 00H, '0', 00H, '2', 00H, 'x'
	DB	00H, 'u', 00H, '1', 00H, '\', 00H, 'r', 00H, 'a', 00H, 'k', 00H
	DB	'n', 00H, 'e', 00H, 't', 00H, '\', 00H, 'd', 00H, 's', 00H, '_'
	DB	00H, 'l', 00H, 'i', 00H, 's', 00H, 't', 00H, '.', 00H, 'h', 00H
	DB	00H, 00H					; `string'
CONST	ENDS
;	COMDAT ??_C@_1GG@JDEIIJCO@?$AAa?$AAl?$AAl?$AAo?$AAc?$AAa?$AAt?$AAi?$AAo?$AAn?$AA_?$AAs?$AAi?$AAz?$AAe?$AA?5?$AA?$DO?$AA?5?$AA0?$AA?5?$AA?$CG?$AA?$CG?$AA?5?$AAS?$AAi?$AAz?$AAe?$AA?$CI?$AA?$CJ?$AA?5?$AA?$DO?$AA?$DN@
CONST	SEGMENT
??_C@_1GG@JDEIIJCO@?$AAa?$AAl?$AAl?$AAo?$AAc?$AAa?$AAt?$AAi?$AAo?$AAn?$AA_?$AAs?$AAi?$AAz?$AAe?$AA?5?$AA?$DO?$AA?5?$AA0?$AA?5?$AA?$CG?$AA?$CG?$AA?5?$AAS?$AAi?$AAz?$AAe?$AA?$CI?$AA?$CJ?$AA?5?$AA?$DO?$AA?$DN@ DB 'a'
	DB	00H, 'l', 00H, 'l', 00H, 'o', 00H, 'c', 00H, 'a', 00H, 't', 00H
	DB	'i', 00H, 'o', 00H, 'n', 00H, '_', 00H, 's', 00H, 'i', 00H, 'z'
	DB	00H, 'e', 00H, ' ', 00H, '>', 00H, ' ', 00H, '0', 00H, ' ', 00H
	DB	'&', 00H, '&', 00H, ' ', 00H, 'S', 00H, 'i', 00H, 'z', 00H, 'e'
	DB	00H, '(', 00H, ')', 00H, ' ', 00H, '>', 00H, '=', 00H, ' ', 00H
	DB	'0', 00H, ' ', 00H, '&', 00H, '&', 00H, ' ', 00H, 'h', 00H, 'e'
	DB	00H, 'a', 00H, 'd', 00H, ' ', 00H, '!', 00H, '=', 00H, ' ', 00H
	DB	't', 00H, 'a', 00H, 'i', 00H, 'l', 00H, 00H, 00H ; `string'
CONST	ENDS
;	COMDAT ??_C@_1EG@MGMFGCAG@?$AAa?$AAl?$AAl?$AAo?$AAc?$AAa?$AAt?$AAi?$AAo?$AAn?$AA_?$AAs?$AAi?$AAz?$AAe?$AA?5?$AA?$DO?$AA?5?$AA0?$AA?5?$AA?$CG?$AA?$CG?$AA?5?$AAS?$AAi?$AAz?$AAe?$AA?$CI?$AA?$CJ?$AA?5?$AA?$DO?$AA?$DN@
CONST	SEGMENT
??_C@_1EG@MGMFGCAG@?$AAa?$AAl?$AAl?$AAo?$AAc?$AAa?$AAt?$AAi?$AAo?$AAn?$AA_?$AAs?$AAi?$AAz?$AAe?$AA?5?$AA?$DO?$AA?5?$AA0?$AA?5?$AA?$CG?$AA?$CG?$AA?5?$AAS?$AAi?$AAz?$AAe?$AA?$CI?$AA?$CJ?$AA?5?$AA?$DO?$AA?$DN@ DB 'a'
	DB	00H, 'l', 00H, 'l', 00H, 'o', 00H, 'c', 00H, 'a', 00H, 't', 00H
	DB	'i', 00H, 'o', 00H, 'n', 00H, '_', 00H, 's', 00H, 'i', 00H, 'z'
	DB	00H, 'e', 00H, ' ', 00H, '>', 00H, ' ', 00H, '0', 00H, ' ', 00H
	DB	'&', 00H, '&', 00H, ' ', 00H, 'S', 00H, 'i', 00H, 'z', 00H, 'e'
	DB	00H, '(', 00H, ')', 00H, ' ', 00H, '>', 00H, '=', 00H, ' ', 00H
	DB	'0', 00H, 00H, 00H				; `string'
CONST	ENDS
;	COMDAT ??_C@_1BK@BHOIKEPB@?$AAh?$AAe?$AAa?$AAd?$AA?5?$AA?$CB?$AA?$DN?$AA?5?$AAt?$AAa?$AAi?$AAl?$AA?$AA@
CONST	SEGMENT
??_C@_1BK@BHOIKEPB@?$AAh?$AAe?$AAa?$AAd?$AA?5?$AA?$CB?$AA?$DN?$AA?5?$AAt?$AAa?$AAi?$AAl?$AA?$AA@ DB 'h'
	DB	00H, 'e', 00H, 'a', 00H, 'd', 00H, ' ', 00H, '!', 00H, '=', 00H
	DB	' ', 00H, 't', 00H, 'a', 00H, 'i', 00H, 'l', 00H, 00H, 00H ; `string'
CONST	ENDS
;	COMDAT ??_C@_1CE@CLDOPLDF@?$AAp?$AAo?$AAs?$AAi?$AAt?$AAi?$AAo?$AAn?$AA?5?$AA?$DM?$AA?5?$AAS?$AAi?$AAz?$AAe?$AA?$CI?$AA?$CJ?$AA?$AA@
CONST	SEGMENT
??_C@_1CE@CLDOPLDF@?$AAp?$AAo?$AAs?$AAi?$AAt?$AAi?$AAo?$AAn?$AA?5?$AA?$DM?$AA?5?$AAS?$AAi?$AAz?$AAe?$AA?$CI?$AA?$CJ?$AA?$AA@ DB 'p'
	DB	00H, 'o', 00H, 's', 00H, 'i', 00H, 't', 00H, 'i', 00H, 'o', 00H
	DB	'n', 00H, ' ', 00H, '<', 00H, ' ', 00H, 'S', 00H, 'i', 00H, 'z'
	DB	00H, 'e', 00H, '(', 00H, ')', 00H, 00H, 00H	; `string'
CONST	ENDS
;	COMDAT ??_C@_1BE@OMEGJCHO@?$AAn?$AAe?$AAw?$AA_?$AAa?$AAr?$AAr?$AAa?$AAy?$AA?$AA@
CONST	SEGMENT
??_C@_1BE@OMEGJCHO@?$AAn?$AAe?$AAw?$AA_?$AAa?$AAr?$AAr?$AAa?$AAy?$AA?$AA@ DB 'n'
	DB	00H, 'e', 00H, 'w', 00H, '_', 00H, 'a', 00H, 'r', 00H, 'r', 00H
	DB	'a', 00H, 'y', 00H, 00H, 00H			; `string'
CONST	ENDS
;	COMDAT ??_C@_1EG@DIEEECKO@?$AAz?$AA?3?$AA?2?$AAs?$AAa?$AAm?$AAp?$AAs?$AAr?$AAc?$AA?2?$AA0?$AA2?$AAx?$AAu?$AA1?$AA?2?$AAr?$AAa?$AAk?$AAn?$AAe?$AAt?$AA?2?$AAd?$AAs?$AA_?$AAq?$AAu?$AAe?$AAu?$AAe@
CONST	SEGMENT
??_C@_1EG@DIEEECKO@?$AAz?$AA?3?$AA?2?$AAs?$AAa?$AAm?$AAp?$AAs?$AAr?$AAc?$AA?2?$AA0?$AA2?$AAx?$AAu?$AA1?$AA?2?$AAr?$AAa?$AAk?$AAn?$AAe?$AAt?$AA?2?$AAd?$AAs?$AA_?$AAq?$AAu?$AAe?$AAu?$AAe@ DB 'z'
	DB	00H, ':', 00H, '\', 00H, 's', 00H, 'a', 00H, 'm', 00H, 'p', 00H
	DB	's', 00H, 'r', 00H, 'c', 00H, '\', 00H, '0', 00H, '2', 00H, 'x'
	DB	00H, 'u', 00H, '1', 00H, '\', 00H, 'r', 00H, 'a', 00H, 'k', 00H
	DB	'n', 00H, 'e', 00H, 't', 00H, '\', 00H, 'd', 00H, 's', 00H, '_'
	DB	00H, 'q', 00H, 'u', 00H, 'e', 00H, 'u', 00H, 'e', 00H, '.', 00H
	DB	'h', 00H, 00H, 00H				; `string'
CONST	ENDS
;	COMDAT ??_C@_1EE@KHBHHHAB@?$AAi?$AAn?$AAt?$AAe?$AAr?$AAn?$AAa?$AAl?$AAP?$AAa?$AAc?$AAk?$AAe?$AAt?$AA?9?$AA?$DO?$AAn?$AAe?$AAx?$AAt?$AAA?$AAc?$AAt?$AAi?$AAo?$AAn?$AAT?$AAi?$AAm?$AAe?$AA?$CB?$AA?$DN@
CONST	SEGMENT
??_C@_1EE@KHBHHHAB@?$AAi?$AAn?$AAt?$AAe?$AAr?$AAn?$AAa?$AAl?$AAP?$AAa?$AAc?$AAk?$AAe?$AAt?$AA?9?$AA?$DO?$AAn?$AAe?$AAx?$AAt?$AAA?$AAc?$AAt?$AAi?$AAo?$AAn?$AAT?$AAi?$AAm?$AAe?$AA?$CB?$AA?$DN@ DB 'i'
	DB	00H, 'n', 00H, 't', 00H, 'e', 00H, 'r', 00H, 'n', 00H, 'a', 00H
	DB	'l', 00H, 'P', 00H, 'a', 00H, 'c', 00H, 'k', 00H, 'e', 00H, 't'
	DB	00H, '-', 00H, '>', 00H, 'n', 00H, 'e', 00H, 'x', 00H, 't', 00H
	DB	'A', 00H, 'c', 00H, 't', 00H, 'i', 00H, 'o', 00H, 'n', 00H, 'T'
	DB	00H, 'i', 00H, 'm', 00H, 'e', 00H, '!', 00H, '=', 00H, '0', 00H
	DB	00H, 00H					; `string'
CONST	ENDS
;	COMDAT ?__LINE__Var@?1??InsertPacketIntoResendList@ReliabilityLayer@@AAEXPAUInternalPacket@@_J_N2@Z@4JA
_DATA	SEGMENT
?__LINE__Var@?1??InsertPacketIntoResendList@ReliabilityLayer@@AAEXPAUInternalPacket@@_J_N2@Z@4JA DD 0962H ; `ReliabilityLayer::InsertPacketIntoResendList'::`2'::__LINE__Var
_DATA	ENDS
;	COMDAT ?__LINE__Var@?1??AddToOrderingList@ReliabilityLayer@@AAEXPAUInternalPacket@@@Z@4JA
_DATA	SEGMENT
?__LINE__Var@?1??AddToOrderingList@ReliabilityLayer@@AAEXPAUInternalPacket@@@Z@4JA DD 093bH ; `ReliabilityLayer::AddToOrderingList'::`2'::__LINE__Var
_DATA	ENDS
;	COMDAT ??_C@_1BK@EBNJALNF@?$AAo?$AAb?$AAj?$AAe?$AAc?$AAt?$AAE?$AAx?$AAi?$AAs?$AAt?$AAs?$AA?$AA@
CONST	SEGMENT
??_C@_1BK@EBNJALNF@?$AAo?$AAb?$AAj?$AAe?$AAc?$AAt?$AAE?$AAx?$AAi?$AAs?$AAt?$AAs?$AA?$AA@ DB 'o'
	DB	00H, 'b', 00H, 'j', 00H, 'e', 00H, 'c', 00H, 't', 00H, 'E', 00H
	DB	'x', 00H, 'i', 00H, 's', 00H, 't', 00H, 's', 00H, 00H, 00H ; `string'
CONST	ENDS
;	COMDAT ?__LINE__Var@?1??BuildPacketFromSplitPacketList@ReliabilityLayer@@AAEPAUInternalPacket@@G_J@Z@4JA
_DATA	SEGMENT
?__LINE__Var@?1??BuildPacketFromSplitPacketList@ReliabilityLayer@@AAEPAUInternalPacket@@G_J@Z@4JA DD 08caH ; `ReliabilityLayer::BuildPacketFromSplitPacketList'::`2'::__LINE__Var
_DATA	ENDS
;	COMDAT ??_C@_1FI@DMENGPEG@?$AAd?$AAa?$AAt?$AAa?$AAB?$AAy?$AAt?$AAe?$AAL?$AAe?$AAn?$AAg?$AAt?$AAh?$AA?5?$AA?$DO?$AA?5?$AAm?$AAa?$AAx?$AAD?$AAa?$AAt?$AAa?$AAS?$AAi?$AAz?$AAe?$AA?5?$AA?9?$AA?5?$AAh@
CONST	SEGMENT
??_C@_1FI@DMENGPEG@?$AAd?$AAa?$AAt?$AAa?$AAB?$AAy?$AAt?$AAe?$AAL?$AAe?$AAn?$AAg?$AAt?$AAh?$AA?5?$AA?$DO?$AA?5?$AAm?$AAa?$AAx?$AAD?$AAa?$AAt?$AAa?$AAS?$AAi?$AAz?$AAe?$AA?5?$AA?9?$AA?5?$AAh@ DB 'd'
	DB	00H, 'a', 00H, 't', 00H, 'a', 00H, 'B', 00H, 'y', 00H, 't', 00H
	DB	'e', 00H, 'L', 00H, 'e', 00H, 'n', 00H, 'g', 00H, 't', 00H, 'h'
	DB	00H, ' ', 00H, '>', 00H, ' ', 00H, 'm', 00H, 'a', 00H, 'x', 00H
	DB	'D', 00H, 'a', 00H, 't', 00H, 'a', 00H, 'S', 00H, 'i', 00H, 'z'
	DB	00H, 'e', 00H, ' ', 00H, '-', 00H, ' ', 00H, 'h', 00H, 'e', 00H
	DB	'a', 00H, 'd', 00H, 'e', 00H, 'r', 00H, 'L', 00H, 'e', 00H, 'n'
	DB	00H, 'g', 00H, 't', 00H, 'h', 00H, 00H, 00H	; `string'
CONST	ENDS
;	COMDAT ?__LINE__Var@?1??SplitPacket@ReliabilityLayer@@AAEXPAUInternalPacket@@H@Z@4JA
_DATA	SEGMENT
?__LINE__Var@?1??SplitPacket@ReliabilityLayer@@AAEXPAUInternalPacket@@H@Z@4JA DD 0818H ; `ReliabilityLayer::SplitPacket'::`2'::__LINE__Var
_DATA	ENDS
;	COMDAT ??_C@_1IE@GICOMIGA@?$AAB?$AAI?$AAT?$AAS?$AA_?$AAT?$AAO?$AA_?$AAB?$AAY?$AAT?$AAE?$AAS?$AA?$CI?$AA?5?$AAi?$AAn?$AAt?$AAe?$AAr?$AAn?$AAa?$AAl?$AAP?$AAa?$AAc?$AAk?$AAe?$AAt?$AA?9?$AA?$DO?$AAd@
CONST	SEGMENT
??_C@_1IE@GICOMIGA@?$AAB?$AAI?$AAT?$AAS?$AA_?$AAT?$AAO?$AA_?$AAB?$AAY?$AAT?$AAE?$AAS?$AA?$CI?$AA?5?$AAi?$AAn?$AAt?$AAe?$AAr?$AAn?$AAa?$AAl?$AAP?$AAa?$AAc?$AAk?$AAe?$AAt?$AA?9?$AA?$DO?$AAd@ DB 'B'
	DB	00H, 'I', 00H, 'T', 00H, 'S', 00H, '_', 00H, 'T', 00H, 'O', 00H
	DB	'_', 00H, 'B', 00H, 'Y', 00H, 'T', 00H, 'E', 00H, 'S', 00H, '('
	DB	00H, ' ', 00H, 'i', 00H, 'n', 00H, 't', 00H, 'e', 00H, 'r', 00H
	DB	'n', 00H, 'a', 00H, 'l', 00H, 'P', 00H, 'a', 00H, 'c', 00H, 'k'
	DB	00H, 'e', 00H, 't', 00H, '-', 00H, '>', 00H, 'd', 00H, 'a', 00H
	DB	't', 00H, 'a', 00H, 'B', 00H, 'i', 00H, 't', 00H, 'L', 00H, 'e'
	DB	00H, 'n', 00H, 'g', 00H, 't', 00H, 'h', 00H, ' ', 00H, ')', 00H
	DB	' ', 00H, '<', 00H, ' ', 00H, 'M', 00H, 'A', 00H, 'X', 00H, 'I'
	DB	00H, 'M', 00H, 'U', 00H, 'M', 00H, '_', 00H, 'M', 00H, 'T', 00H
	DB	'U', 00H, '_', 00H, 'S', 00H, 'I', 00H, 'Z', 00H, 'E', 00H, 00H
	DB	00H						; `string'
CONST	ENDS
;	COMDAT ??_C@_1EE@LOHKMABB@?$AAi?$AAn?$AAt?$AAe?$AAr?$AAn?$AAa?$AAl?$AAP?$AAa?$AAc?$AAk?$AAe?$AAt?$AA?9?$AA?$DO?$AAd?$AAa?$AAt?$AAa?$AAB?$AAi?$AAt?$AAL?$AAe?$AAn?$AAg?$AAt?$AAh?$AA?5?$AA?$DO?$AA?5@
CONST	SEGMENT
??_C@_1EE@LOHKMABB@?$AAi?$AAn?$AAt?$AAe?$AAr?$AAn?$AAa?$AAl?$AAP?$AAa?$AAc?$AAk?$AAe?$AAt?$AA?9?$AA?$DO?$AAd?$AAa?$AAt?$AAa?$AAB?$AAi?$AAt?$AAL?$AAe?$AAn?$AAg?$AAt?$AAh?$AA?5?$AA?$DO?$AA?5@ DB 'i'
	DB	00H, 'n', 00H, 't', 00H, 'e', 00H, 'r', 00H, 'n', 00H, 'a', 00H
	DB	'l', 00H, 'P', 00H, 'a', 00H, 'c', 00H, 'k', 00H, 'e', 00H, 't'
	DB	00H, '-', 00H, '>', 00H, 'd', 00H, 'a', 00H, 't', 00H, 'a', 00H
	DB	'B', 00H, 'i', 00H, 't', 00H, 'L', 00H, 'e', 00H, 'n', 00H, 'g'
	DB	00H, 't', 00H, 'h', 00H, ' ', 00H, '>', 00H, ' ', 00H, '0', 00H
	DB	00H, 00H					; `string'
CONST	ENDS
;	COMDAT ??_C@_1DI@CEDLGLL@?$AAb?$AAi?$AAt?$AAS?$AAt?$AAr?$AAe?$AAa?$AAm?$AA?5?$AA?$CG?$AA?$CG?$AA?5?$AAi?$AAn?$AAt?$AAe?$AAr?$AAn?$AAa?$AAl?$AAP?$AAa?$AAc?$AAk?$AAe?$AAt?$AA?$AA@
CONST	SEGMENT
??_C@_1DI@CEDLGLL@?$AAb?$AAi?$AAt?$AAS?$AAt?$AAr?$AAe?$AAa?$AAm?$AA?5?$AA?$CG?$AA?$CG?$AA?5?$AAi?$AAn?$AAt?$AAe?$AAr?$AAn?$AAa?$AAl?$AAP?$AAa?$AAc?$AAk?$AAe?$AAt?$AA?$AA@ DB 'b'
	DB	00H, 'i', 00H, 't', 00H, 'S', 00H, 't', 00H, 'r', 00H, 'e', 00H
	DB	'a', 00H, 'm', 00H, ' ', 00H, '&', 00H, '&', 00H, ' ', 00H, 'i'
	DB	00H, 'n', 00H, 't', 00H, 'e', 00H, 'r', 00H, 'n', 00H, 'a', 00H
	DB	'l', 00H, 'P', 00H, 'a', 00H, 'c', 00H, 'k', 00H, 'e', 00H, 't'
	DB	00H, 00H, 00H				; `string'
CONST	ENDS
;	COMDAT ?__LINE__Var@?1??WriteToBitStreamFromInternalPacket@ReliabilityLayer@@AAEHPAVBitStream@RakNet@@QBUInternalPacket@@@Z@4JA
_DATA	SEGMENT
?__LINE__Var@?1??WriteToBitStreamFromInternalPacket@ReliabilityLayer@@AAEHPAVBitStream@RakNet@@QBUInternalPacket@@@Z@4JA DD 0688H ; `ReliabilityLayer::WriteToBitStreamFromInternalPacket'::`2'::__LINE__Var
_DATA	ENDS
;	COMDAT ??_C@_1BO@FAHOLNMM@?$AAi?$AAn?$AAt?$AAe?$AAr?$AAn?$AAa?$AAl?$AAP?$AAa?$AAc?$AAk?$AAe?$AAt?$AA?$AA@
CONST	SEGMENT
??_C@_1BO@FAHOLNMM@?$AAi?$AAn?$AAt?$AAe?$AAr?$AAn?$AAa?$AAl?$AAP?$AAa?$AAc?$AAk?$AAe?$AAt?$AA?$AA@ DB 'i'
	DB	00H, 'n', 00H, 't', 00H, 'e', 00H, 'r', 00H, 'n', 00H, 'a', 00H
	DB	'l', 00H, 'P', 00H, 'a', 00H, 'c', 00H, 'k', 00H, 'e', 00H, 't'
	DB	00H, 00H, 00H				; `string'
CONST	ENDS
;	COMDAT ?__LINE__Var@?1??GetBitStreamHeaderLength@ReliabilityLayer@@AAEHQBUInternalPacket@@@Z@4JA
_DATA	SEGMENT
?__LINE__Var@?1??GetBitStreamHeaderLength@ReliabilityLayer@@AAEHQBUInternalPacket@@@Z@4JA DD 064eH ; `ReliabilityLayer::GetBitStreamHeaderLength'::`2'::__LINE__Var
_DATA	ENDS
;	COMDAT ??_C@_1DM@HJOKLFNH@?$AAi?$AAn?$AAt?$AAe?$AAr?$AAn?$AAa?$AAl?$AAP?$AAa?$AAc?$AAk?$AAe?$AAt?$AA?9?$AA?$DO?$AAp?$AAr?$AAi?$AAo?$AAr?$AAi?$AAt?$AAy?$AA?5?$AA?$DO?$AA?$DN?$AA?5?$AA0?$AA?$AA@
CONST	SEGMENT
??_C@_1DM@HJOKLFNH@?$AAi?$AAn?$AAt?$AAe?$AAr?$AAn?$AAa?$AAl?$AAP?$AAa?$AAc?$AAk?$AAe?$AAt?$AA?9?$AA?$DO?$AAp?$AAr?$AAi?$AAo?$AAr?$AAi?$AAt?$AAy?$AA?5?$AA?$DO?$AA?$DN?$AA?5?$AA0?$AA?$AA@ DB 'i'
	DB	00H, 'n', 00H, 't', 00H, 'e', 00H, 'r', 00H, 'n', 00H, 'a', 00H
	DB	'l', 00H, 'P', 00H, 'a', 00H, 'c', 00H, 'k', 00H, 'e', 00H, 't'
	DB	00H, '-', 00H, '>', 00H, 'p', 00H, 'r', 00H, 'i', 00H, 'o', 00H
	DB	'r', 00H, 'i', 00H, 't', 00H, 'y', 00H, ' ', 00H, '>', 00H, '='
	DB	00H, ' ', 00H, '0', 00H, 00H, 00H		; `string'
CONST	ENDS
;	COMDAT ?__LINE__Var@?1??GenerateDatagram@ReliabilityLayer@@AAEIPAVBitStream@RakNet@@HPA_N_JUPlayerID@@AAV?$List@PAVPluginInterface@@@DataStructures@@@Z@4JA
_DATA	SEGMENT
?__LINE__Var@?1??GenerateDatagram@ReliabilityLayer@@AAEIPAVBitStream@RakNet@@HPA_N_JUPlayerID@@AAV?$List@PAVPluginInterface@@@DataStructures@@@Z@4JA DD 04d9H ; `ReliabilityLayer::GenerateDatagram'::`2'::__LINE__Var
_DATA	ENDS
;	COMDAT ??_C@_1CI@ENDPABPL@?$AA?$CI?$AA?5?$AAl?$AAe?$AAn?$AAg?$AAt?$AAh?$AA?5?$AA?$CF?$AA?5?$AA8?$AA?5?$AA?$CJ?$AA?5?$AA?$DN?$AA?$DN?$AA?5?$AA0?$AA?$AA@
CONST	SEGMENT
??_C@_1CI@ENDPABPL@?$AA?$CI?$AA?5?$AAl?$AAe?$AAn?$AAg?$AAt?$AAh?$AA?5?$AA?$CF?$AA?5?$AA8?$AA?5?$AA?$CJ?$AA?5?$AA?$DN?$AA?$DN?$AA?5?$AA0?$AA?$AA@ DB '('
	DB	00H, ' ', 00H, 'l', 00H, 'e', 00H, 'n', 00H, 'g', 00H, 't', 00H
	DB	'h', 00H, ' ', 00H, '%', 00H, ' ', 00H, '8', 00H, ' ', 00H, ')'
	DB	00H, ' ', 00H, '=', 00H, '=', 00H, ' ', 00H, '0', 00H, 00H, 00H ; `string'
CONST	ENDS
;	COMDAT ?__LINE__Var@?1??SendBitStream@ReliabilityLayer@@AAEXIUPlayerID@@PAVBitStream@RakNet@@@Z@4JA
_DATA	SEGMENT
?__LINE__Var@?1??SendBitStream@ReliabilityLayer@@AAEXIUPlayerID@@PAVBitStream@RakNet@@@Z@4JA DD 0497H ; `ReliabilityLayer::SendBitStream'::`2'::__LINE__Var
_DATA	ENDS
;	COMDAT ??_C@_0EF@BEKPCEMB@Error?$CB?$CB?5ReliabilityLayer?3?3Send?5b@
CONST	SEGMENT
??_C@_0EF@BEKPCEMB@Error?$CB?$CB?5ReliabilityLayer?3?3Send?5b@ DB 'Error!'
	DB	'! ReliabilityLayer::Send bitStream->GetNumberOfBytesUsed()==0'
	DB	0aH, 00H					; `string'
CONST	ENDS
;	COMDAT ??_C@_1CO@KEDLFNFL@?$AAn?$AAu?$AAm?$AAb?$AAe?$AAr?$AAO?$AAf?$AAB?$AAi?$AAt?$AAs?$AAT?$AAo?$AAS?$AAe?$AAn?$AAd?$AA?5?$AA?$DO?$AA?5?$AA0?$AA?$AA@
CONST	SEGMENT
??_C@_1CO@KEDLFNFL@?$AAn?$AAu?$AAm?$AAb?$AAe?$AAr?$AAO?$AAf?$AAB?$AAi?$AAt?$AAs?$AAT?$AAo?$AAS?$AAe?$AAn?$AAd?$AA?5?$AA?$DO?$AA?5?$AA0?$AA?$AA@ DB 'n'
	DB	00H, 'u', 00H, 'm', 00H, 'b', 00H, 'e', 00H, 'r', 00H, 'O', 00H
	DB	'f', 00H, 'B', 00H, 'i', 00H, 't', 00H, 's', 00H, 'T', 00H, 'o'
	DB	00H, 'S', 00H, 'e', 00H, 'n', 00H, 'd', 00H, ' ', 00H, '>', 00H
	DB	' ', 00H, '0', 00H, 00H, 00H			; `string'
CONST	ENDS
;	COMDAT ??_C@_1JC@KFGENCHD@?$AA?$CB?$AA?$CI?$AA?5?$AAo?$AAr?$AAd?$AAe?$AAr?$AAi?$AAn?$AAg?$AAC?$AAh?$AAa?$AAn?$AAn?$AAe?$AAl?$AA?5?$AA?$DM?$AA?5?$AA0?$AA?5?$AA?$HM?$AA?$HM?$AA?5?$AAo?$AAr?$AAd?$AAe?$AAr?$AAi@
CONST	SEGMENT
??_C@_1JC@KFGENCHD@?$AA?$CB?$AA?$CI?$AA?5?$AAo?$AAr?$AAd?$AAe?$AAr?$AAi?$AAn?$AAg?$AAC?$AAh?$AAa?$AAn?$AAn?$AAe?$AAl?$AA?5?$AA?$DM?$AA?5?$AA0?$AA?5?$AA?$HM?$AA?$HM?$AA?5?$AAo?$AAr?$AAd?$AAe?$AAr?$AAi@ DB '!'
	DB	00H, '(', 00H, ' ', 00H, 'o', 00H, 'r', 00H, 'd', 00H, 'e', 00H
	DB	'r', 00H, 'i', 00H, 'n', 00H, 'g', 00H, 'C', 00H, 'h', 00H, 'a'
	DB	00H, 'n', 00H, 'n', 00H, 'e', 00H, 'l', 00H, ' ', 00H, '<', 00H
	DB	' ', 00H, '0', 00H, ' ', 00H, '|', 00H, '|', 00H, ' ', 00H, 'o'
	DB	00H, 'r', 00H, 'd', 00H, 'e', 00H, 'r', 00H, 'i', 00H, 'n', 00H
	DB	'g', 00H, 'C', 00H, 'h', 00H, 'a', 00H, 'n', 00H, 'n', 00H, 'e'
	DB	00H, 'l', 00H, ' ', 00H, '>', 00H, '=', 00H, ' ', 00H, 'N', 00H
	DB	'U', 00H, 'M', 00H, 'B', 00H, 'E', 00H, 'R', 00H, '_', 00H, 'O'
	DB	00H, 'F', 00H, '_', 00H, 'O', 00H, 'R', 00H, 'D', 00H, 'E', 00H
	DB	'R', 00H, 'E', 00H, 'D', 00H, '_', 00H, 'S', 00H, 'T', 00H, 'R'
	DB	00H, 'E', 00H, 'A', 00H, 'M', 00H, 'S', 00H, ' ', 00H, ')', 00H
	DB	00H, 00H					; `string'
CONST	ENDS
;	COMDAT ??_C@_1GK@MADIINNK@?$AA?$CB?$AA?$CI?$AA?5?$AAp?$AAr?$AAi?$AAo?$AAr?$AAi?$AAt?$AAy?$AA?5?$AA?$DO?$AA?5?$AAN?$AAU?$AAM?$AAB?$AAE?$AAR?$AA_?$AAO?$AAF?$AA_?$AAP?$AAR?$AAI?$AAO?$AAR?$AAI?$AAT?$AAI@
CONST	SEGMENT
??_C@_1GK@MADIINNK@?$AA?$CB?$AA?$CI?$AA?5?$AAp?$AAr?$AAi?$AAo?$AAr?$AAi?$AAt?$AAy?$AA?5?$AA?$DO?$AA?5?$AAN?$AAU?$AAM?$AAB?$AAE?$AAR?$AA_?$AAO?$AAF?$AA_?$AAP?$AAR?$AAI?$AAO?$AAR?$AAI?$AAT?$AAI@ DB '!'
	DB	00H, '(', 00H, ' ', 00H, 'p', 00H, 'r', 00H, 'i', 00H, 'o', 00H
	DB	'r', 00H, 'i', 00H, 't', 00H, 'y', 00H, ' ', 00H, '>', 00H, ' '
	DB	00H, 'N', 00H, 'U', 00H, 'M', 00H, 'B', 00H, 'E', 00H, 'R', 00H
	DB	'_', 00H, 'O', 00H, 'F', 00H, '_', 00H, 'P', 00H, 'R', 00H, 'I'
	DB	00H, 'O', 00H, 'R', 00H, 'I', 00H, 'T', 00H, 'I', 00H, 'E', 00H
	DB	'S', 00H, ' ', 00H, '|', 00H, '|', 00H, ' ', 00H, 'p', 00H, 'r'
	DB	00H, 'i', 00H, 'o', 00H, 'r', 00H, 'i', 00H, 't', 00H, 'y', 00H
	DB	' ', 00H, '<', 00H, ' ', 00H, '0', 00H, ' ', 00H, ')', 00H, 00H
	DB	00H						; `string'
CONST	ENDS
;	COMDAT ??_C@_1HC@GDCNHECB@?$AA?$CB?$AA?$CI?$AA?5?$AAr?$AAe?$AAl?$AAi?$AAa?$AAb?$AAi?$AAl?$AAi?$AAt?$AAy?$AA?5?$AA?$DO?$AA?5?$AAR?$AAE?$AAL?$AAI?$AAA?$AAB?$AAL?$AAE?$AA_?$AAS?$AAE?$AAQ?$AAU?$AAE?$AAN@
CONST	SEGMENT
??_C@_1HC@GDCNHECB@?$AA?$CB?$AA?$CI?$AA?5?$AAr?$AAe?$AAl?$AAi?$AAa?$AAb?$AAi?$AAl?$AAi?$AAt?$AAy?$AA?5?$AA?$DO?$AA?5?$AAR?$AAE?$AAL?$AAI?$AAA?$AAB?$AAL?$AAE?$AA_?$AAS?$AAE?$AAQ?$AAU?$AAE?$AAN@ DB '!'
	DB	00H, '(', 00H, ' ', 00H, 'r', 00H, 'e', 00H, 'l', 00H, 'i', 00H
	DB	'a', 00H, 'b', 00H, 'i', 00H, 'l', 00H, 'i', 00H, 't', 00H, 'y'
	DB	00H, ' ', 00H, '>', 00H, ' ', 00H, 'R', 00H, 'E', 00H, 'L', 00H
	DB	'I', 00H, 'A', 00H, 'B', 00H, 'L', 00H, 'E', 00H, '_', 00H, 'S'
	DB	00H, 'E', 00H, 'Q', 00H, 'U', 00H, 'E', 00H, 'N', 00H, 'C', 00H
	DB	'E', 00H, 'D', 00H, ' ', 00H, '|', 00H, '|', 00H, ' ', 00H, 'r'
	DB	00H, 'e', 00H, 'l', 00H, 'i', 00H, 'a', 00H, 'b', 00H, 'i', 00H
	DB	'l', 00H, 'i', 00H, 't', 00H, 'y', 00H, ' ', 00H, '<', 00H, ' '
	DB	00H, '0', 00H, ' ', 00H, ')', 00H, 00H, 00H	; `string'
CONST	ENDS
;	COMDAT ?__LINE__Var@?1??Send@ReliabilityLayer@@QAE_NPADHW4PacketPriority@@W4PacketReliability@@E_NH_J@Z@4JA
_DATA	SEGMENT
?__LINE__Var@?1??Send@ReliabilityLayer@@QAE_NPADHW4PacketPriority@@W4PacketReliability@@E_NH_J@Z@4JA DD 0336H ; `ReliabilityLayer::Send'::`2'::__LINE__Var
_DATA	ENDS
;	COMDAT ??_C@_0DA@MOADJCKG@Got?5invalid?5ordering?5channel?5?$CFi?5@
CONST	SEGMENT
??_C@_0DA@MOADJCKG@Got?5invalid?5ordering?5channel?5?$CFi?5@ DB 'Got inva'
	DB	'lid ordering channel %i from packet %i', 0aH, 00H ; `string'
CONST	ENDS
;	COMDAT ??_C@_0BE@HCJJFHJF@Got?5invalid?5packet?6?$AA@
CONST	SEGMENT
??_C@_0BE@HCJJFHJF@Got?5invalid?5packet?6?$AA@ DB 'Got invalid packet', 0aH
	DB	00H						; `string'
CONST	ENDS
;	COMDAT ??_C@_1HI@MKMNOBIC@?$AAi?$AAn?$AAt?$AAe?$AAr?$AAn?$AAa?$AAl?$AAP?$AAa?$AAc?$AAk?$AAe?$AAt?$AA?9?$AA?$DO?$AAo?$AAr?$AAd?$AAe?$AAr?$AAi?$AAn?$AAg?$AAC?$AAh?$AAa?$AAn?$AAn?$AAe?$AAl?$AA?5@
CONST	SEGMENT
??_C@_1HI@MKMNOBIC@?$AAi?$AAn?$AAt?$AAe?$AAr?$AAn?$AAa?$AAl?$AAP?$AAa?$AAc?$AAk?$AAe?$AAt?$AA?9?$AA?$DO?$AAo?$AAr?$AAd?$AAe?$AAr?$AAi?$AAn?$AAg?$AAC?$AAh?$AAa?$AAn?$AAn?$AAe?$AAl?$AA?5@ DB 'i'
	DB	00H, 'n', 00H, 't', 00H, 'e', 00H, 'r', 00H, 'n', 00H, 'a', 00H
	DB	'l', 00H, 'P', 00H, 'a', 00H, 'c', 00H, 'k', 00H, 'e', 00H, 't'
	DB	00H, '-', 00H, '>', 00H, 'o', 00H, 'r', 00H, 'd', 00H, 'e', 00H
	DB	'r', 00H, 'i', 00H, 'n', 00H, 'g', 00H, 'C', 00H, 'h', 00H, 'a'
	DB	00H, 'n', 00H, 'n', 00H, 'e', 00H, 'l', 00H, ' ', 00H, '<', 00H
	DB	' ', 00H, 'N', 00H, 'U', 00H, 'M', 00H, 'B', 00H, 'E', 00H, 'R'
	DB	00H, '_', 00H, 'O', 00H, 'F', 00H, '_', 00H, 'O', 00H, 'R', 00H
	DB	'D', 00H, 'E', 00H, 'R', 00H, 'E', 00H, 'D', 00H, '_', 00H, 'S'
	DB	00H, 'T', 00H, 'R', 00H, 'E', 00H, 'A', 00H, 'M', 00H, 'S', 00H
	DB	00H, 00H					; `string'
CONST	ENDS
;	COMDAT ??_C@_1JA@FAAHMOBE@?$AAh?$AAa?$AAs?$AAR?$AAe?$AAc?$AAe?$AAi?$AAv?$AAe?$AAd?$AAP?$AAa?$AAc?$AAk?$AAe?$AAt?$AAQ?$AAu?$AAe?$AAu?$AAe?$AA?4?$AAS?$AAi?$AAz?$AAe?$AA?$CI?$AA?$CJ?$AA?5?$AA?$DM?$AA?5@
CONST	SEGMENT
??_C@_1JA@FAAHMOBE@?$AAh?$AAa?$AAs?$AAR?$AAe?$AAc?$AAe?$AAi?$AAv?$AAe?$AAd?$AAP?$AAa?$AAc?$AAk?$AAe?$AAt?$AAQ?$AAu?$AAe?$AAu?$AAe?$AA?4?$AAS?$AAi?$AAz?$AAe?$AA?$CI?$AA?$CJ?$AA?5?$AA?$DM?$AA?5@ DB 'h'
	DB	00H, 'a', 00H, 's', 00H, 'R', 00H, 'e', 00H, 'c', 00H, 'e', 00H
	DB	'i', 00H, 'v', 00H, 'e', 00H, 'd', 00H, 'P', 00H, 'a', 00H, 'c'
	DB	00H, 'k', 00H, 'e', 00H, 't', 00H, 'Q', 00H, 'u', 00H, 'e', 00H
	DB	'u', 00H, 'e', 00H, '.', 00H, 'S', 00H, 'i', 00H, 'z', 00H, 'e'
	DB	00H, '(', 00H, ')', 00H, ' ', 00H, '<', 00H, ' ', 00H, '(', 00H
	DB	'u', 00H, 'n', 00H, 's', 00H, 'i', 00H, 'g', 00H, 'n', 00H, 'e'
	DB	00H, 'd', 00H, ' ', 00H, 'i', 00H, 'n', 00H, 't', 00H, ')', 00H
	DB	'(', 00H, '(', 00H, 'M', 00H, 'e', 00H, 's', 00H, 's', 00H, 'a'
	DB	00H, 'g', 00H, 'e', 00H, 'N', 00H, 'u', 00H, 'm', 00H, 'b', 00H
	DB	'e', 00H, 'r', 00H, 'T', 00H, 'y', 00H, 'p', 00H, 'e', 00H, ')'
	DB	00H, '(', 00H, '-', 00H, '1', 00H, ')', 00H, ')', 00H, 00H, 00H ; `string'
CONST	ENDS
;	COMDAT ??_C@_1IC@KPHIMKPK@?$AAi?$AAn?$AAc?$AAo?$AAm?$AAi?$AAn?$AAg?$AAA?$AAc?$AAk?$AAs?$AA?4?$AAr?$AAa?$AAn?$AAg?$AAe?$AAs?$AA?$FL?$AAi?$AA?$FN?$AA?4?$AAm?$AAi?$AAn?$AAI?$AAn?$AAd?$AAe?$AAx?$AA?$DM@
CONST	SEGMENT
??_C@_1IC@KPHIMKPK@?$AAi?$AAn?$AAc?$AAo?$AAm?$AAi?$AAn?$AAg?$AAA?$AAc?$AAk?$AAs?$AA?4?$AAr?$AAa?$AAn?$AAg?$AAe?$AAs?$AA?$FL?$AAi?$AA?$FN?$AA?4?$AAm?$AAi?$AAn?$AAI?$AAn?$AAd?$AAe?$AAx?$AA?$DM@ DB 'i'
	DB	00H, 'n', 00H, 'c', 00H, 'o', 00H, 'm', 00H, 'i', 00H, 'n', 00H
	DB	'g', 00H, 'A', 00H, 'c', 00H, 'k', 00H, 's', 00H, '.', 00H, 'r'
	DB	00H, 'a', 00H, 'n', 00H, 'g', 00H, 'e', 00H, 's', 00H, '[', 00H
	DB	'i', 00H, ']', 00H, '.', 00H, 'm', 00H, 'i', 00H, 'n', 00H, 'I'
	DB	00H, 'n', 00H, 'd', 00H, 'e', 00H, 'x', 00H, '<', 00H, '=', 00H
	DB	'i', 00H, 'n', 00H, 'c', 00H, 'o', 00H, 'm', 00H, 'i', 00H, 'n'
	DB	00H, 'g', 00H, 'A', 00H, 'c', 00H, 'k', 00H, 's', 00H, '.', 00H
	DB	'r', 00H, 'a', 00H, 'n', 00H, 'g', 00H, 'e', 00H, 's', 00H, '['
	DB	00H, 'i', 00H, ']', 00H, '.', 00H, 'm', 00H, 'a', 00H, 'x', 00H
	DB	'I', 00H, 'n', 00H, 'd', 00H, 'e', 00H, 'x', 00H, 00H, 00H ; `string'
CONST	ENDS
;	COMDAT ??_C@_1EA@BNPCOFAI@?$AA?$CB?$AA?$CI?$AA?5?$AAl?$AAe?$AAn?$AAg?$AAt?$AAh?$AA?5?$AA?$DM?$AA?$DN?$AA?5?$AA0?$AA?5?$AA?$HM?$AA?$HM?$AA?5?$AAb?$AAu?$AAf?$AAf?$AAe?$AAr?$AA?5?$AA?$DN?$AA?$DN?$AA?5?$AA0?$AA?5?$AA?$CJ?$AA?$AA@
CONST	SEGMENT
??_C@_1EA@BNPCOFAI@?$AA?$CB?$AA?$CI?$AA?5?$AAl?$AAe?$AAn?$AAg?$AAt?$AAh?$AA?5?$AA?$DM?$AA?$DN?$AA?5?$AA0?$AA?5?$AA?$HM?$AA?$HM?$AA?5?$AAb?$AAu?$AAf?$AAf?$AAe?$AAr?$AA?5?$AA?$DN?$AA?$DN?$AA?5?$AA0?$AA?5?$AA?$CJ?$AA?$AA@ DB '!'
	DB	00H, '(', 00H, ' ', 00H, 'l', 00H, 'e', 00H, 'n', 00H, 'g', 00H
	DB	't', 00H, 'h', 00H, ' ', 00H, '<', 00H, '=', 00H, ' ', 00H, '0'
	DB	00H, ' ', 00H, '|', 00H, '|', 00H, ' ', 00H, 'b', 00H, 'u', 00H
	DB	'f', 00H, 'f', 00H, 'e', 00H, 'r', 00H, ' ', 00H, '=', 00H, '='
	DB	00H, ' ', 00H, '0', 00H, ' ', 00H, ')', 00H, 00H, 00H ; `string'
CONST	ENDS
;	COMDAT ??_C@_1FK@FKLHGKMO@?$AAz?$AA?3?$AA?2?$AAs?$AAa?$AAm?$AAp?$AAs?$AAr?$AAc?$AA?2?$AA0?$AA2?$AAx?$AAu?$AA1?$AA?2?$AAr?$AAa?$AAk?$AAn?$AAe?$AAt?$AA?2?$AAr?$AAe?$AAl?$AAi?$AAa?$AAb?$AAi?$AAl@
CONST	SEGMENT
??_C@_1FK@FKLHGKMO@?$AAz?$AA?3?$AA?2?$AAs?$AAa?$AAm?$AAp?$AAs?$AAr?$AAc?$AA?2?$AA0?$AA2?$AAx?$AAu?$AA1?$AA?2?$AAr?$AAa?$AAk?$AAn?$AAe?$AAt?$AA?2?$AAr?$AAe?$AAl?$AAi?$AAa?$AAb?$AAi?$AAl@ DB 'z'
	DB	00H, ':', 00H, '\', 00H, 's', 00H, 'a', 00H, 'm', 00H, 'p', 00H
	DB	's', 00H, 'r', 00H, 'c', 00H, '\', 00H, '0', 00H, '2', 00H, 'x'
	DB	00H, 'u', 00H, '1', 00H, '\', 00H, 'r', 00H, 'a', 00H, 'k', 00H
	DB	'n', 00H, 'e', 00H, 't', 00H, '\', 00H, 'r', 00H, 'e', 00H, 'l'
	DB	00H, 'i', 00H, 'a', 00H, 'b', 00H, 'i', 00H, 'l', 00H, 'i', 00H
	DB	't', 00H, 'y', 00H, 'l', 00H, 'a', 00H, 'y', 00H, 'e', 00H, 'r'
	DB	00H, '.', 00H, 'c', 00H, 'p', 00H, 'p', 00H, 00H, 00H ; `string'
CONST	ENDS
;	COMDAT ?__LINE__Var@?1??HandleSocketReceiveFromConnectedPlayer@ReliabilityLayer@@QAE_NPBDHUPlayerID@@AAV?$List@PAVPluginInterface@@@DataStructures@@H@Z@4JA
_DATA	SEGMENT
?__LINE__Var@?1??HandleSocketReceiveFromConnectedPlayer@ReliabilityLayer@@QAE_NPBDHUPlayerID@@AAV?$List@PAVPluginInterface@@@DataStructures@@H@Z@4JA DD 014dH ; `ReliabilityLayer::HandleSocketReceiveFromConnectedPlayer'::`2'::__LINE__Var
_DATA	ENDS
;	COMDAT xdata$x
xdata$x	SEGMENT
__unwindtable$??1?$LinkedList@PAUInternalPacket@@@DataStructures@@QAE@XZ DD 0ffffffffH
	DD	FLAT:__unwindfunclet$??1?$LinkedList@PAUInternalPacket@@@DataStructures@@QAE@XZ$0
__ehfuncinfo$??1?$LinkedList@PAUInternalPacket@@@DataStructures@@QAE@XZ DD 019930522H
	DD	01H
	DD	FLAT:__unwindtable$??1?$LinkedList@PAUInternalPacket@@@DataStructures@@QAE@XZ
	DD	2 DUP(00H)
	DD	2 DUP(00H)
	DD	00H
	DD	01H
xdata$x	ENDS
;	COMDAT xdata$x
xdata$x	SEGMENT
__unwindtable$??1?$OrderedList@GPAUSplitPacketChannel@@$1?SplitPacketChannelComp@@YAHABGABQAU1@@Z@DataStructures@@QAE@XZ DD 0ffffffffH
	DD	FLAT:__unwindfunclet$??1?$OrderedList@GPAUSplitPacketChannel@@$1?SplitPacketChannelComp@@YAHABGABQAU1@@Z@DataStructures@@QAE@XZ$0
__ehfuncinfo$??1?$OrderedList@GPAUSplitPacketChannel@@$1?SplitPacketChannelComp@@YAHABGABQAU1@@Z@DataStructures@@QAE@XZ DD 019930522H
	DD	01H
	DD	FLAT:__unwindtable$??1?$OrderedList@GPAUSplitPacketChannel@@$1?SplitPacketChannelComp@@YAHABGABQAU1@@Z@DataStructures@@QAE@XZ
	DD	2 DUP(00H)
	DD	2 DUP(00H)
	DD	00H
	DD	01H
xdata$x	ENDS
;	COMDAT xdata$x
xdata$x	SEGMENT
__unwindtable$??1?$MemoryPool@U?$Page@GPAUInternalPacket@@$0CA@@DataStructures@@@DataStructures@@QAE@XZ DD 0ffffffffH
	DD	FLAT:__unwindfunclet$??1?$MemoryPool@U?$Page@GPAUInternalPacket@@$0CA@@DataStructures@@@DataStructures@@QAE@XZ$0
__ehfuncinfo$??1?$MemoryPool@U?$Page@GPAUInternalPacket@@$0CA@@DataStructures@@@DataStructures@@QAE@XZ DD 019930522H
	DD	01H
	DD	FLAT:__unwindtable$??1?$MemoryPool@U?$Page@GPAUInternalPacket@@$0CA@@DataStructures@@@DataStructures@@QAE@XZ
	DD	2 DUP(00H)
	DD	2 DUP(00H)
	DD	00H
	DD	01H
xdata$x	ENDS
;	COMDAT xdata$x
xdata$x	SEGMENT
__unwindtable$?FreePages@?$BPlusTree@GPAUInternalPacket@@$0CA@@DataStructures@@IAEXXZ DD 0ffffffffH
	DD	FLAT:__unwindfunclet$?FreePages@?$BPlusTree@GPAUInternalPacket@@$0CA@@DataStructures@@IAEXXZ$0
__ehfuncinfo$?FreePages@?$BPlusTree@GPAUInternalPacket@@$0CA@@DataStructures@@IAEXXZ DD 019930522H
	DD	01H
	DD	FLAT:__unwindtable$?FreePages@?$BPlusTree@GPAUInternalPacket@@$0CA@@DataStructures@@IAEXXZ
	DD	2 DUP(00H)
	DD	2 DUP(00H)
	DD	00H
	DD	01H
xdata$x	ENDS
;	COMDAT xdata$x
xdata$x	SEGMENT
__unwindtable$??1?$BPlusTree@GPAUInternalPacket@@$0CA@@DataStructures@@QAE@XZ DD 0ffffffffH
	DD	FLAT:__unwindfunclet$??1?$BPlusTree@GPAUInternalPacket@@$0CA@@DataStructures@@QAE@XZ$0
__ehfuncinfo$??1?$BPlusTree@GPAUInternalPacket@@$0CA@@DataStructures@@QAE@XZ DD 019930522H
	DD	01H
	DD	FLAT:__unwindtable$??1?$BPlusTree@GPAUInternalPacket@@$0CA@@DataStructures@@QAE@XZ
	DD	2 DUP(00H)
	DD	2 DUP(00H)
	DD	00H
	DD	01H
xdata$x	ENDS
;	COMDAT xdata$x
xdata$x	SEGMENT
__unwindtable$?Insert@?$List@U?$RangeNode@G@DataStructures@@@DataStructures@@QAEXU?$RangeNode@G@2@@Z DD 0ffffffffH
	DD	FLAT:__unwindfunclet$?Insert@?$List@U?$RangeNode@G@DataStructures@@@DataStructures@@QAEXU?$RangeNode@G@2@@Z$0
	DD	00H
	DD	FLAT:__unwindfunclet$?Insert@?$List@U?$RangeNode@G@DataStructures@@@DataStructures@@QAEXU?$RangeNode@G@2@@Z$1
__ehfuncinfo$?Insert@?$List@U?$RangeNode@G@DataStructures@@@DataStructures@@QAEXU?$RangeNode@G@2@@Z DD 019930522H
	DD	02H
	DD	FLAT:__unwindtable$?Insert@?$List@U?$RangeNode@G@DataStructures@@@DataStructures@@QAEXU?$RangeNode@G@2@@Z
	DD	2 DUP(00H)
	DD	2 DUP(00H)
	DD	00H
	DD	01H
xdata$x	ENDS
;	COMDAT xdata$x
xdata$x	SEGMENT
__unwindtable$?Insert@?$List@U?$RangeNode@G@DataStructures@@@DataStructures@@QAEXU?$RangeNode@G@2@I@Z DD 0ffffffffH
	DD	FLAT:__unwindfunclet$?Insert@?$List@U?$RangeNode@G@DataStructures@@@DataStructures@@QAEXU?$RangeNode@G@2@I@Z$0
	DD	00H
	DD	FLAT:__unwindfunclet$?Insert@?$List@U?$RangeNode@G@DataStructures@@@DataStructures@@QAEXU?$RangeNode@G@2@I@Z$1
__ehfuncinfo$?Insert@?$List@U?$RangeNode@G@DataStructures@@@DataStructures@@QAEXU?$RangeNode@G@2@I@Z DD 019930522H
	DD	02H
	DD	FLAT:__unwindtable$?Insert@?$List@U?$RangeNode@G@DataStructures@@@DataStructures@@QAEXU?$RangeNode@G@2@I@Z
	DD	2 DUP(00H)
	DD	2 DUP(00H)
	DD	00H
	DD	01H
xdata$x	ENDS
;	COMDAT xdata$x
xdata$x	SEGMENT
__unwindtable$??1?$OrderedList@GU?$RangeNode@G@DataStructures@@$1??$RangeNodeComp@G@2@YAHABGABU12@@Z@DataStructures@@QAE@XZ DD 0ffffffffH
	DD	FLAT:__unwindfunclet$??1?$OrderedList@GU?$RangeNode@G@DataStructures@@$1??$RangeNodeComp@G@2@YAHABGABU12@@Z@DataStructures@@QAE@XZ$0
__ehfuncinfo$??1?$OrderedList@GU?$RangeNode@G@DataStructures@@$1??$RangeNodeComp@G@2@YAHABGABU12@@Z@DataStructures@@QAE@XZ DD 019930522H
	DD	01H
	DD	FLAT:__unwindtable$??1?$OrderedList@GU?$RangeNode@G@DataStructures@@$1??$RangeNodeComp@G@2@YAHABGABU12@@Z@DataStructures@@QAE@XZ
	DD	2 DUP(00H)
	DD	2 DUP(00H)
	DD	00H
	DD	01H
xdata$x	ENDS
;	COMDAT xdata$x
xdata$x	SEGMENT
__unwindtable$?Deserialize@?$RangeList@G@DataStructures@@QAE_NPAVBitStream@RakNet@@@Z DD 0ffffffffH
	DD	FLAT:__unwindfunclet$?Deserialize@?$RangeList@G@DataStructures@@QAE_NPAVBitStream@RakNet@@@Z$0
__ehfuncinfo$?Deserialize@?$RangeList@G@DataStructures@@QAE_NPAVBitStream@RakNet@@@Z DD 019930522H
	DD	01H
	DD	FLAT:__unwindtable$?Deserialize@?$RangeList@G@DataStructures@@QAE_NPAVBitStream@RakNet@@@Z
	DD	2 DUP(00H)
	DD	2 DUP(00H)
	DD	00H
	DD	01H
xdata$x	ENDS
;	COMDAT xdata$x
xdata$x	SEGMENT
__unwindtable$?Serialize@?$RangeList@G@DataStructures@@QAEIPAVBitStream@RakNet@@H_N@Z DD 0ffffffffH
	DD	FLAT:__unwindfunclet$?Serialize@?$RangeList@G@DataStructures@@QAEIPAVBitStream@RakNet@@H_N@Z$0
__ehfuncinfo$?Serialize@?$RangeList@G@DataStructures@@QAEIPAVBitStream@RakNet@@H_N@Z DD 019930522H
	DD	01H
	DD	FLAT:__unwindtable$?Serialize@?$RangeList@G@DataStructures@@QAEIPAVBitStream@RakNet@@H_N@Z
	DD	2 DUP(00H)
	DD	2 DUP(00H)
	DD	00H
	DD	01H
xdata$x	ENDS
;	COMDAT xdata$x
xdata$x	SEGMENT
__unwindtable$?Insert@?$RangeList@G@DataStructures@@QAEXG@Z DD 0ffffffffH
	DD	FLAT:__unwindfunclet$?Insert@?$RangeList@G@DataStructures@@QAEXG@Z$0
	DD	0ffffffffH
	DD	FLAT:__unwindfunclet$?Insert@?$RangeList@G@DataStructures@@QAEXG@Z$1
	DD	0ffffffffH
	DD	FLAT:__unwindfunclet$?Insert@?$RangeList@G@DataStructures@@QAEXG@Z$2
__ehfuncinfo$?Insert@?$RangeList@G@DataStructures@@QAEXG@Z DD 019930522H
	DD	03H
	DD	FLAT:__unwindtable$?Insert@?$RangeList@G@DataStructures@@QAEXG@Z
	DD	2 DUP(00H)
	DD	2 DUP(00H)
	DD	00H
	DD	01H
xdata$x	ENDS
;	COMDAT xdata$x
xdata$x	SEGMENT
__unwindtable$??1?$RangeList@G@DataStructures@@QAE@XZ DD 0ffffffffH
	DD	FLAT:__unwindfunclet$??1?$RangeList@G@DataStructures@@QAE@XZ$0
__ehfuncinfo$??1?$RangeList@G@DataStructures@@QAE@XZ DD 019930522H
	DD	01H
	DD	FLAT:__unwindtable$??1?$RangeList@G@DataStructures@@QAE@XZ
	DD	2 DUP(00H)
	DD	2 DUP(00H)
	DD	00H
	DD	01H
xdata$x	ENDS
;	COMDAT xdata$x
xdata$x	SEGMENT
__unwindtable$??0?$RangeList@G@DataStructures@@QAE@XZ DD 0ffffffffH
	DD	FLAT:__unwindfunclet$??0?$RangeList@G@DataStructures@@QAE@XZ$0
	DD	00H
	DD	FLAT:__unwindfunclet$??0?$RangeList@G@DataStructures@@QAE@XZ$1
__ehfuncinfo$??0?$RangeList@G@DataStructures@@QAE@XZ DD 019930522H
	DD	02H
	DD	FLAT:__unwindtable$??0?$RangeList@G@DataStructures@@QAE@XZ
	DD	2 DUP(00H)
	DD	2 DUP(00H)
	DD	00H
	DD	01H
xdata$x	ENDS
;	COMDAT xdata$x
xdata$x	SEGMENT
__unwindtable$?AddToOrderingList@ReliabilityLayer@@AAEXPAUInternalPacket@@@Z DD 0ffffffffH
	DD	FLAT:__unwindfunclet$?AddToOrderingList@ReliabilityLayer@@AAEXPAUInternalPacket@@@Z$0
__ehfuncinfo$?AddToOrderingList@ReliabilityLayer@@AAEXPAUInternalPacket@@@Z DD 019930522H
	DD	01H
	DD	FLAT:__unwindtable$?AddToOrderingList@ReliabilityLayer@@AAEXPAUInternalPacket@@@Z
	DD	2 DUP(00H)
	DD	2 DUP(00H)
	DD	00H
	DD	01H
xdata$x	ENDS
;	COMDAT xdata$x
xdata$x	SEGMENT
__unwindtable$?InsertIntoSplitPacketList@ReliabilityLayer@@AAEXPAUInternalPacket@@_J@Z DD 0ffffffffH
	DD	FLAT:__unwindfunclet$?InsertIntoSplitPacketList@ReliabilityLayer@@AAEXPAUInternalPacket@@_J@Z$0
__ehfuncinfo$?InsertIntoSplitPacketList@ReliabilityLayer@@AAEXPAUInternalPacket@@_J@Z DD 019930522H
	DD	01H
	DD	FLAT:__unwindtable$?InsertIntoSplitPacketList@ReliabilityLayer@@AAEXPAUInternalPacket@@_J@Z
	DD	2 DUP(00H)
	DD	2 DUP(00H)
	DD	00H
	DD	01H
xdata$x	ENDS
;	COMDAT xdata$x
xdata$x	SEGMENT
__unwindtable$?GetSHA1@ReliabilityLayer@@AAEXQAEIQAD@Z DD 0ffffffffH
	DD	FLAT:__unwindfunclet$?GetSHA1@ReliabilityLayer@@AAEXQAEIQAD@Z$0
__ehfuncinfo$?GetSHA1@ReliabilityLayer@@AAEXQAEIQAD@Z DD 019930522H
	DD	01H
	DD	FLAT:__unwindtable$?GetSHA1@ReliabilityLayer@@AAEXQAEIQAD@Z
	DD	2 DUP(00H)
	DD	2 DUP(00H)
	DD	00H
	DD	01H
xdata$x	ENDS
;	COMDAT xdata$x
xdata$x	SEGMENT
__unwindtable$?HandleSocketReceiveFromConnectedPlayer@ReliabilityLayer@@QAE_NPBDHUPlayerID@@AAV?$List@PAVPluginInterface@@@DataStructures@@H@Z DD 0ffffffffH
	DD	FLAT:__unwindfunclet$?HandleSocketReceiveFromConnectedPlayer@ReliabilityLayer@@QAE_NPBDHUPlayerID@@AAV?$List@PAVPluginInterface@@@DataStructures@@H@Z$7
	DD	00H
	DD	FLAT:__unwindfunclet$?HandleSocketReceiveFromConnectedPlayer@ReliabilityLayer@@QAE_NPBDHUPlayerID@@AAV?$List@PAVPluginInterface@@@DataStructures@@H@Z$8
__ehfuncinfo$?HandleSocketReceiveFromConnectedPlayer@ReliabilityLayer@@QAE_NPBDHUPlayerID@@AAV?$List@PAVPluginInterface@@@DataStructures@@H@Z DD 019930522H
	DD	02H
	DD	FLAT:__unwindtable$?HandleSocketReceiveFromConnectedPlayer@ReliabilityLayer@@QAE_NPBDHUPlayerID@@AAV?$List@PAVPluginInterface@@@DataStructures@@H@Z
	DD	2 DUP(00H)
	DD	2 DUP(00H)
	DD	00H
	DD	01H
xdata$x	ENDS
;	COMDAT xdata$x
xdata$x	SEGMENT
__ehfuncinfo$??1ReliabilityLayer@@QAE@XZ DD 019930522H
	DD	0cH
	DD	FLAT:__unwindtable$??1ReliabilityLayer@@QAE@XZ
	DD	2 DUP(00H)
	DD	2 DUP(00H)
	DD	00H
	DD	01H
__unwindtable$??1ReliabilityLayer@@QAE@XZ DD 0ffffffffH
	DD	FLAT:__unwindfunclet$??1ReliabilityLayer@@QAE@XZ$0
	DD	00H
	DD	FLAT:__unwindfunclet$??1ReliabilityLayer@@QAE@XZ$1
	DD	01H
	DD	FLAT:__unwindfunclet$??1ReliabilityLayer@@QAE@XZ$2
	DD	02H
	DD	FLAT:__unwindfunclet$??1ReliabilityLayer@@QAE@XZ$3
	DD	03H
	DD	FLAT:__unwindfunclet$??1ReliabilityLayer@@QAE@XZ$4
	DD	04H
	DD	FLAT:__unwindfunclet$??1ReliabilityLayer@@QAE@XZ$5
	DD	05H
	DD	FLAT:__unwindfunclet$??1ReliabilityLayer@@QAE@XZ$6
	DD	06H
	DD	FLAT:__unwindfunclet$??1ReliabilityLayer@@QAE@XZ$7
	DD	07H
	DD	FLAT:__unwindfunclet$??1ReliabilityLayer@@QAE@XZ$8
	DD	08H
	DD	FLAT:__unwindfunclet$??1ReliabilityLayer@@QAE@XZ$9
	DD	09H
	DD	FLAT:__unwindfunclet$??1ReliabilityLayer@@QAE@XZ$10
	DD	0aH
	DD	FLAT:__unwindfunclet$??1ReliabilityLayer@@QAE@XZ$11
xdata$x	ENDS
;	COMDAT xdata$x
xdata$x	SEGMENT
__ehfuncinfo$??0ReliabilityLayer@@QAE@XZ DD 019930522H
	DD	0cH
	DD	FLAT:__unwindtable$??0ReliabilityLayer@@QAE@XZ
	DD	2 DUP(00H)
	DD	2 DUP(00H)
	DD	00H
	DD	01H
__unwindtable$??0ReliabilityLayer@@QAE@XZ DD 0ffffffffH
	DD	FLAT:__unwindfunclet$??0ReliabilityLayer@@QAE@XZ$0
	DD	00H
	DD	FLAT:__unwindfunclet$??0ReliabilityLayer@@QAE@XZ$1
	DD	01H
	DD	FLAT:__unwindfunclet$??0ReliabilityLayer@@QAE@XZ$2
	DD	02H
	DD	FLAT:__unwindfunclet$??0ReliabilityLayer@@QAE@XZ$3
	DD	03H
	DD	FLAT:__unwindfunclet$??0ReliabilityLayer@@QAE@XZ$4
	DD	04H
	DD	FLAT:__unwindfunclet$??0ReliabilityLayer@@QAE@XZ$5
	DD	05H
	DD	FLAT:__unwindfunclet$??0ReliabilityLayer@@QAE@XZ$6
	DD	06H
	DD	FLAT:__unwindfunclet$??0ReliabilityLayer@@QAE@XZ$7
	DD	07H
	DD	FLAT:__unwindfunclet$??0ReliabilityLayer@@QAE@XZ$8
	DD	08H
	DD	FLAT:__unwindfunclet$??0ReliabilityLayer@@QAE@XZ$9
	DD	09H
	DD	FLAT:__unwindfunclet$??0ReliabilityLayer@@QAE@XZ$10
	DD	0aH
	DD	FLAT:__unwindfunclet$??0ReliabilityLayer@@QAE@XZ$11
xdata$x	ENDS
;	COMDAT xdata$x
xdata$x	SEGMENT
__unwindtable$??1?$OrderedList@IPAUInternalPacket@@$1?SplitPacketIndexComp@@YAHABIABQAU1@@Z@DataStructures@@QAE@XZ DD 0ffffffffH
	DD	FLAT:__unwindfunclet$??1?$OrderedList@IPAUInternalPacket@@$1?SplitPacketIndexComp@@YAHABIABQAU1@@Z@DataStructures@@QAE@XZ$0
__ehfuncinfo$??1?$OrderedList@IPAUInternalPacket@@$1?SplitPacketIndexComp@@YAHABIABQAU1@@Z@DataStructures@@QAE@XZ DD 019930522H
	DD	01H
	DD	FLAT:__unwindtable$??1?$OrderedList@IPAUInternalPacket@@$1?SplitPacketIndexComp@@YAHABIABQAU1@@Z@DataStructures@@QAE@XZ
	DD	2 DUP(00H)
	DD	2 DUP(00H)
	DD	00H
	DD	01H
xdata$x	ENDS
; Function compile flags: /Odtp /RTCsu /ZI
; File z:\sampsrc\02xu1\raknet\ds_queue.h
;	COMDAT ?Size@?$Queue@PAU?$Page@GPAUInternalPacket@@$0CA@@DataStructures@@@DataStructures@@QBEIXZ
_TEXT	SEGMENT
_this$ = -8						; size = 4
?Size@?$Queue@PAU?$Page@GPAUInternalPacket@@$0CA@@DataStructures@@@DataStructures@@QBEIXZ PROC ; DataStructures::Queue<DataStructures::Page<unsigned short,InternalPacket *,32> *>::Size, COMDAT
; _this$ = ecx

; 62   : 	{

	push	ebp
	mov	ebp, esp
	sub	esp, 204				; 000000ccH
	push	ebx
	push	esi
	push	edi
	push	ecx
	lea	edi, DWORD PTR [ebp-204]
	mov	ecx, 51					; 00000033H
	mov	eax, -858993460				; ccccccccH
	rep stosd
	pop	ecx
	mov	DWORD PTR _this$[ebp], ecx

; 63   : 		if ( head <= tail )

	mov	eax, DWORD PTR _this$[ebp]
	mov	ecx, DWORD PTR _this$[ebp]
	mov	edx, DWORD PTR [eax+4]
	cmp	edx, DWORD PTR [ecx+8]
	ja	SHORT $LN2@Size

; 64   : 			return tail -head;

	mov	eax, DWORD PTR _this$[ebp]
	mov	ecx, DWORD PTR _this$[ebp]
	mov	eax, DWORD PTR [eax+8]
	sub	eax, DWORD PTR [ecx+4]
	jmp	SHORT $LN3@Size

; 65   : 		else

	jmp	SHORT $LN3@Size
$LN2@Size:

; 66   : 			return allocation_size -head + tail;

	mov	eax, DWORD PTR _this$[ebp]
	mov	ecx, DWORD PTR _this$[ebp]
	mov	eax, DWORD PTR [eax+12]
	sub	eax, DWORD PTR [ecx+4]
	mov	edx, DWORD PTR _this$[ebp]
	add	eax, DWORD PTR [edx+8]
$LN3@Size:

; 67   : 	}

	pop	edi
	pop	esi
	pop	ebx
	mov	esp, ebp
	pop	ebp
	ret	0
?Size@?$Queue@PAU?$Page@GPAUInternalPacket@@$0CA@@DataStructures@@@DataStructures@@QBEIXZ ENDP ; DataStructures::Queue<DataStructures::Page<unsigned short,InternalPacket *,32> *>::Size
_TEXT	ENDS
; Function compile flags: /Odtp /RTCsu /ZI
; File z:\sampsrc\02xu1\raknet\ds_queue.h
;	COMDAT ?Pop@?$Queue@PAU?$Page@GPAUInternalPacket@@$0CA@@DataStructures@@@DataStructures@@QAEPAU?$Page@GPAUInternalPacket@@$0CA@@2@XZ
_TEXT	SEGMENT
tv78 = -208						; size = 4
_this$ = -8						; size = 4
?Pop@?$Queue@PAU?$Page@GPAUInternalPacket@@$0CA@@DataStructures@@@DataStructures@@QAEPAU?$Page@GPAUInternalPacket@@$0CA@@2@XZ PROC ; DataStructures::Queue<DataStructures::Page<unsigned short,InternalPacket *,32> *>::Pop, COMDAT
; _this$ = ecx

; 99   : 	{

	push	ebp
	mov	ebp, esp
	sub	esp, 208				; 000000d0H
	push	ebx
	push	esi
	push	edi
	push	ecx
	lea	edi, DWORD PTR [ebp-208]
	mov	ecx, 52					; 00000034H
	mov	eax, -858993460				; ccccccccH
	rep stosd
	pop	ecx
	mov	DWORD PTR _this$[ebp], ecx

; 100  : #ifdef _DEBUG
; 101  : 		assert( allocation_size > 0 && Size() >= 0 && head != tail);

	mov	eax, DWORD PTR _this$[ebp]
	cmp	DWORD PTR [eax+12], 0
	jbe	SHORT $LN5@Pop
	mov	ecx, DWORD PTR _this$[ebp]
	call	?Size@?$Queue@PAU?$Page@GPAUInternalPacket@@$0CA@@DataStructures@@@DataStructures@@QBEIXZ ; DataStructures::Queue<DataStructures::Page<unsigned short,InternalPacket *,32> *>::Size
	test	eax, eax
	jb	SHORT $LN5@Pop
	mov	ecx, DWORD PTR _this$[ebp]
	mov	edx, DWORD PTR _this$[ebp]
	mov	eax, DWORD PTR [ecx+4]
	cmp	eax, DWORD PTR [edx+8]
	jne	SHORT $LN6@Pop
$LN5@Pop:
	push	101					; 00000065H
	push	OFFSET ??_C@_1EG@DIEEECKO@?$AAz?$AA?3?$AA?2?$AAs?$AAa?$AAm?$AAp?$AAs?$AAr?$AAc?$AA?2?$AA0?$AA2?$AAx?$AAu?$AA1?$AA?2?$AAr?$AAa?$AAk?$AAn?$AAe?$AAt?$AA?2?$AAd?$AAs?$AA_?$AAq?$AAu?$AAe?$AAu?$AAe@
	push	OFFSET ??_C@_1GG@JDEIIJCO@?$AAa?$AAl?$AAl?$AAo?$AAc?$AAa?$AAt?$AAi?$AAo?$AAn?$AA_?$AAs?$AAi?$AAz?$AAe?$AA?5?$AA?$DO?$AA?5?$AA0?$AA?5?$AA?$CG?$AA?$CG?$AA?5?$AAS?$AAi?$AAz?$AAe?$AA?$CI?$AA?$CJ?$AA?5?$AA?$DO?$AA?$DN@
	call	__wassert
	add	esp, 12					; 0000000cH
$LN6@Pop:

; 102  : #endif
; 103  : 		//head=(head+1) % allocation_size;
; 104  : 
; 105  : 		if ( ++head == allocation_size )

	mov	eax, DWORD PTR _this$[ebp]
	mov	ecx, DWORD PTR [eax+4]
	add	ecx, 1
	mov	DWORD PTR tv78[ebp], ecx
	mov	edx, DWORD PTR _this$[ebp]
	mov	eax, DWORD PTR tv78[ebp]
	mov	DWORD PTR [edx+4], eax
	mov	ecx, DWORD PTR _this$[ebp]
	mov	edx, DWORD PTR tv78[ebp]
	cmp	edx, DWORD PTR [ecx+12]
	jne	SHORT $LN2@Pop

; 106  : 			head = 0;

	mov	eax, DWORD PTR _this$[ebp]
	mov	DWORD PTR [eax+4], 0
$LN2@Pop:

; 107  : 
; 108  : 		if ( head == 0 )

	mov	eax, DWORD PTR _this$[ebp]
	cmp	DWORD PTR [eax+4], 0
	jne	SHORT $LN1@Pop

; 109  : 			return ( queue_type ) array[ allocation_size -1 ];

	mov	eax, DWORD PTR _this$[ebp]
	mov	ecx, DWORD PTR [eax+12]
	mov	edx, DWORD PTR _this$[ebp]
	mov	eax, DWORD PTR [edx]
	mov	eax, DWORD PTR [eax+ecx*4-4]
	jmp	SHORT $LN3@Pop
$LN1@Pop:

; 110  : 
; 111  : 		return ( queue_type ) array[ head -1 ];

	mov	eax, DWORD PTR _this$[ebp]
	mov	ecx, DWORD PTR [eax+4]
	mov	edx, DWORD PTR _this$[ebp]
	mov	eax, DWORD PTR [edx]
	mov	eax, DWORD PTR [eax+ecx*4-4]
$LN3@Pop:

; 112  : 	}

	pop	edi
	pop	esi
	pop	ebx
	add	esp, 208				; 000000d0H
	cmp	ebp, esp
	call	__RTC_CheckEsp
	mov	esp, ebp
	pop	ebp
	ret	0
?Pop@?$Queue@PAU?$Page@GPAUInternalPacket@@$0CA@@DataStructures@@@DataStructures@@QAEPAU?$Page@GPAUInternalPacket@@$0CA@@2@XZ ENDP ; DataStructures::Queue<DataStructures::Page<unsigned short,InternalPacket *,32> *>::Pop
_TEXT	ENDS
; Function compile flags: /Odtp /RTCsu /ZI
; File z:\sampsrc\02xu1\raknet\ds_queue.h
;	COMDAT ?Push@?$Queue@PAU?$Page@GPAUInternalPacket@@$0CA@@DataStructures@@@DataStructures@@QAEXABQAU?$Page@GPAUInternalPacket@@$0CA@@2@@Z
_TEXT	SEGMENT
$T1 = -260						; size = 4
$T2 = -248						; size = 4
$T3 = -236						; size = 4
_counter$4 = -32					; size = 4
_new_array$5 = -20					; size = 4
_this$ = -8						; size = 4
_input$ = 8						; size = 4
?Push@?$Queue@PAU?$Page@GPAUInternalPacket@@$0CA@@DataStructures@@@DataStructures@@QAEXABQAU?$Page@GPAUInternalPacket@@$0CA@@2@@Z PROC ; DataStructures::Queue<DataStructures::Page<unsigned short,InternalPacket *,32> *>::Push, COMDAT
; _this$ = ecx

; 182  : 	{

	push	ebp
	mov	ebp, esp
	sub	esp, 264				; 00000108H
	push	ebx
	push	esi
	push	edi
	push	ecx
	lea	edi, DWORD PTR [ebp-264]
	mov	ecx, 66					; 00000042H
	mov	eax, -858993460				; ccccccccH
	rep stosd
	pop	ecx
	mov	DWORD PTR _this$[ebp], ecx

; 183  : 		if ( allocation_size == 0 )

	mov	eax, DWORD PTR _this$[ebp]
	cmp	DWORD PTR [eax+12], 0
	jne	SHORT $LN6@Push

; 184  : 		{
; 185  : 			array = new queue_type[ 16 ];

	push	64					; 00000040H
	call	??2@YAPAXI@Z				; operator new
	add	esp, 4
	mov	DWORD PTR $T1[ebp], eax
	mov	eax, DWORD PTR _this$[ebp]
	mov	ecx, DWORD PTR $T1[ebp]
	mov	DWORD PTR [eax], ecx

; 186  : 			head = 0;

	mov	eax, DWORD PTR _this$[ebp]
	mov	DWORD PTR [eax+4], 0

; 187  : 			tail = 1;

	mov	eax, DWORD PTR _this$[ebp]
	mov	DWORD PTR [eax+8], 1

; 188  : 			array[ 0 ] = input;

	mov	eax, 4
	imul	ecx, eax, 0
	mov	edx, DWORD PTR _this$[ebp]
	mov	eax, DWORD PTR [edx]
	mov	edx, DWORD PTR _input$[ebp]
	mov	edx, DWORD PTR [edx]
	mov	DWORD PTR [ecx+eax], edx

; 189  : 			allocation_size = 16;

	mov	eax, DWORD PTR _this$[ebp]
	mov	DWORD PTR [eax+12], 16			; 00000010H

; 190  : 			return ;

	jmp	$LN7@Push
$LN6@Push:

; 191  : 		}
; 192  : 
; 193  : 		array[ tail++ ] = input;

	mov	eax, DWORD PTR _this$[ebp]
	mov	ecx, DWORD PTR [eax+8]
	mov	edx, DWORD PTR _this$[ebp]
	mov	eax, DWORD PTR [edx]
	mov	edx, DWORD PTR _input$[ebp]
	mov	edx, DWORD PTR [edx]
	mov	DWORD PTR [eax+ecx*4], edx
	mov	eax, DWORD PTR _this$[ebp]
	mov	ecx, DWORD PTR [eax+8]
	add	ecx, 1
	mov	edx, DWORD PTR _this$[ebp]
	mov	DWORD PTR [edx+8], ecx

; 194  : 
; 195  : 		if ( tail == allocation_size )

	mov	eax, DWORD PTR _this$[ebp]
	mov	ecx, DWORD PTR _this$[ebp]
	mov	edx, DWORD PTR [eax+8]
	cmp	edx, DWORD PTR [ecx+12]
	jne	SHORT $LN5@Push

; 196  : 			tail = 0;

	mov	eax, DWORD PTR _this$[ebp]
	mov	DWORD PTR [eax+8], 0
$LN5@Push:

; 197  : 
; 198  : 		if ( tail == head )

	mov	eax, DWORD PTR _this$[ebp]
	mov	ecx, DWORD PTR _this$[ebp]
	mov	edx, DWORD PTR [eax+8]
	cmp	edx, DWORD PTR [ecx+4]
	jne	$LN7@Push

; 199  : 		{
; 200  : 			//  unsigned int index=tail;
; 201  : 
; 202  : 			// Need to allocate more memory.
; 203  : 			queue_type * new_array;
; 204  : 			new_array = new queue_type[ allocation_size * 2 ];

	mov	eax, DWORD PTR _this$[ebp]
	mov	eax, DWORD PTR [eax+12]
	shl	eax, 1
	xor	ecx, ecx
	mov	edx, 4
	mul	edx
	seto	cl
	neg	ecx
	or	ecx, eax
	push	ecx
	call	??2@YAPAXI@Z				; operator new
	add	esp, 4
	mov	DWORD PTR $T2[ebp], eax
	mov	eax, DWORD PTR $T2[ebp]
	mov	DWORD PTR _new_array$5[ebp], eax

; 205  : #ifdef _DEBUG
; 206  : 
; 207  : 			assert( new_array );

	cmp	DWORD PTR _new_array$5[ebp], 0
	jne	SHORT $LN9@Push
	push	207					; 000000cfH
	push	OFFSET ??_C@_1EG@DIEEECKO@?$AAz?$AA?3?$AA?2?$AAs?$AAa?$AAm?$AAp?$AAs?$AAr?$AAc?$AA?2?$AA0?$AA2?$AAx?$AAu?$AA1?$AA?2?$AAr?$AAa?$AAk?$AAn?$AAe?$AAt?$AA?2?$AAd?$AAs?$AA_?$AAq?$AAu?$AAe?$AAu?$AAe@
	push	OFFSET ??_C@_1BE@OMEGJCHO@?$AAn?$AAe?$AAw?$AA_?$AAa?$AAr?$AAr?$AAa?$AAy?$AA?$AA@
	call	__wassert
	add	esp, 12					; 0000000cH
$LN9@Push:

; 208  : #endif
; 209  : 
; 210  : 			for ( unsigned int counter = 0; counter < allocation_size; ++counter )

	mov	DWORD PTR _counter$4[ebp], 0
	jmp	SHORT $LN3@Push
$LN2@Push:
	mov	eax, DWORD PTR _counter$4[ebp]
	add	eax, 1
	mov	DWORD PTR _counter$4[ebp], eax
$LN3@Push:
	mov	eax, DWORD PTR _this$[ebp]
	mov	ecx, DWORD PTR _counter$4[ebp]
	cmp	ecx, DWORD PTR [eax+12]
	jae	SHORT $LN1@Push

; 211  : 				new_array[ counter ] = array[ ( head + counter ) % ( allocation_size ) ];

	mov	eax, DWORD PTR _this$[ebp]
	mov	eax, DWORD PTR [eax+4]
	add	eax, DWORD PTR _counter$4[ebp]
	mov	ecx, DWORD PTR _this$[ebp]
	xor	edx, edx
	div	DWORD PTR [ecx+12]
	mov	eax, DWORD PTR _this$[ebp]
	mov	ecx, DWORD PTR [eax]
	mov	eax, DWORD PTR _counter$4[ebp]
	mov	esi, DWORD PTR _new_array$5[ebp]
	mov	ecx, DWORD PTR [ecx+edx*4]
	mov	DWORD PTR [esi+eax*4], ecx
	jmp	SHORT $LN2@Push
$LN1@Push:

; 212  : 
; 213  : 			head = 0;

	mov	eax, DWORD PTR _this$[ebp]
	mov	DWORD PTR [eax+4], 0

; 214  : 
; 215  : 			tail = allocation_size;

	mov	eax, DWORD PTR _this$[ebp]
	mov	ecx, DWORD PTR _this$[ebp]
	mov	edx, DWORD PTR [ecx+12]
	mov	DWORD PTR [eax+8], edx

; 216  : 
; 217  : 			allocation_size *= 2;

	mov	eax, DWORD PTR _this$[ebp]
	mov	ecx, DWORD PTR [eax+12]
	shl	ecx, 1
	mov	edx, DWORD PTR _this$[ebp]
	mov	DWORD PTR [edx+12], ecx

; 218  : 
; 219  : 			// Delete the old array and move the pointer to the new array
; 220  : 			delete [] array;

	mov	eax, DWORD PTR _this$[ebp]
	mov	ecx, DWORD PTR [eax]
	mov	DWORD PTR $T3[ebp], ecx
	mov	edx, DWORD PTR $T3[ebp]
	push	edx
	call	??3@YAXPAX@Z				; operator delete
	add	esp, 4

; 221  : 
; 222  : 			array = new_array;

	mov	eax, DWORD PTR _this$[ebp]
	mov	ecx, DWORD PTR _new_array$5[ebp]
	mov	DWORD PTR [eax], ecx
$LN7@Push:

; 223  : 		}
; 224  : 
; 225  : 	}

	pop	edi
	pop	esi
	pop	ebx
	add	esp, 264				; 00000108H
	cmp	ebp, esp
	call	__RTC_CheckEsp
	mov	esp, ebp
	pop	ebp
	ret	4
?Push@?$Queue@PAU?$Page@GPAUInternalPacket@@$0CA@@DataStructures@@@DataStructures@@QAEXABQAU?$Page@GPAUInternalPacket@@$0CA@@2@@Z ENDP ; DataStructures::Queue<DataStructures::Page<unsigned short,InternalPacket *,32> *>::Push
_TEXT	ENDS
; Function compile flags: /Odtp /RTCsu /ZI
; File z:\sampsrc\02xu1\raknet\ds_queue.h
;	COMDAT ??1?$Queue@PAU?$Page@GPAUInternalPacket@@$0CA@@DataStructures@@@DataStructures@@QAE@XZ
_TEXT	SEGMENT
$T1 = -212						; size = 4
_this$ = -8						; size = 4
??1?$Queue@PAU?$Page@GPAUInternalPacket@@$0CA@@DataStructures@@@DataStructures@@QAE@XZ PROC ; DataStructures::Queue<DataStructures::Page<unsigned short,InternalPacket *,32> *>::~Queue<DataStructures::Page<unsigned short,InternalPacket *,32> *>, COMDAT
; _this$ = ecx

; 92   : 	{

	push	ebp
	mov	ebp, esp
	sub	esp, 216				; 000000d8H
	push	ebx
	push	esi
	push	edi
	push	ecx
	lea	edi, DWORD PTR [ebp-216]
	mov	ecx, 54					; 00000036H
	mov	eax, -858993460				; ccccccccH
	rep stosd
	pop	ecx
	mov	DWORD PTR _this$[ebp], ecx

; 93   : 		if (allocation_size>0)

	mov	eax, DWORD PTR _this$[ebp]
	cmp	DWORD PTR [eax+12], 0
	jbe	SHORT $LN2@Queue

; 94   : 			delete [] array;

	mov	eax, DWORD PTR _this$[ebp]
	mov	ecx, DWORD PTR [eax]
	mov	DWORD PTR $T1[ebp], ecx
	mov	edx, DWORD PTR $T1[ebp]
	push	edx
	call	??3@YAXPAX@Z				; operator delete
	add	esp, 4
$LN2@Queue:

; 95   : 	}

	pop	edi
	pop	esi
	pop	ebx
	add	esp, 216				; 000000d8H
	cmp	ebp, esp
	call	__RTC_CheckEsp
	mov	esp, ebp
	pop	ebp
	ret	0
??1?$Queue@PAU?$Page@GPAUInternalPacket@@$0CA@@DataStructures@@@DataStructures@@QAE@XZ ENDP ; DataStructures::Queue<DataStructures::Page<unsigned short,InternalPacket *,32> *>::~Queue<DataStructures::Page<unsigned short,InternalPacket *,32> *>
_TEXT	ENDS
; Function compile flags: /Odtp /RTCsu /ZI
; File z:\sampsrc\02xu1\raknet\ds_queue.h
;	COMDAT ??0?$Queue@PAU?$Page@GPAUInternalPacket@@$0CA@@DataStructures@@@DataStructures@@QAE@XZ
_TEXT	SEGMENT
$T1 = -212						; size = 4
_this$ = -8						; size = 4
??0?$Queue@PAU?$Page@GPAUInternalPacket@@$0CA@@DataStructures@@@DataStructures@@QAE@XZ PROC ; DataStructures::Queue<DataStructures::Page<unsigned short,InternalPacket *,32> *>::Queue<DataStructures::Page<unsigned short,InternalPacket *,32> *>, COMDAT
; _this$ = ecx

; 83   : 	{

	push	ebp
	mov	ebp, esp
	sub	esp, 216				; 000000d8H
	push	ebx
	push	esi
	push	edi
	push	ecx
	lea	edi, DWORD PTR [ebp-216]
	mov	ecx, 54					; 00000036H
	mov	eax, -858993460				; ccccccccH
	rep stosd
	pop	ecx
	mov	DWORD PTR _this$[ebp], ecx

; 84   : 		allocation_size = 16;

	mov	eax, DWORD PTR _this$[ebp]
	mov	DWORD PTR [eax+12], 16			; 00000010H

; 85   : 		array = new queue_type[ allocation_size ];

	xor	ecx, ecx
	mov	edx, DWORD PTR _this$[ebp]
	mov	eax, DWORD PTR [edx+12]
	mov	edx, 4
	mul	edx
	seto	cl
	neg	ecx
	or	ecx, eax
	push	ecx
	call	??2@YAPAXI@Z				; operator new
	add	esp, 4
	mov	DWORD PTR $T1[ebp], eax
	mov	eax, DWORD PTR _this$[ebp]
	mov	ecx, DWORD PTR $T1[ebp]
	mov	DWORD PTR [eax], ecx

; 86   : 		head = 0;

	mov	eax, DWORD PTR _this$[ebp]
	mov	DWORD PTR [eax+4], 0

; 87   : 		tail = 0;

	mov	eax, DWORD PTR _this$[ebp]
	mov	DWORD PTR [eax+8], 0

; 88   : 	}

	mov	eax, DWORD PTR _this$[ebp]
	pop	edi
	pop	esi
	pop	ebx
	add	esp, 216				; 000000d8H
	cmp	ebp, esp
	call	__RTC_CheckEsp
	mov	esp, ebp
	pop	ebp
	ret	0
??0?$Queue@PAU?$Page@GPAUInternalPacket@@$0CA@@DataStructures@@@DataStructures@@QAE@XZ ENDP ; DataStructures::Queue<DataStructures::Page<unsigned short,InternalPacket *,32> *>::Queue<DataStructures::Page<unsigned short,InternalPacket *,32> *>
_TEXT	ENDS
; Function compile flags: /Odtp /RTCsu /ZI
; File z:\sampsrc\02xu1\raknet\bitstream.h
;	COMDAT ??$ReadCompressed@G@BitStream@RakNet@@QAE_NAAG@Z
_TEXT	SEGMENT
_this$ = -8						; size = 4
_var$ = 8						; size = 4
??$ReadCompressed@G@BitStream@RakNet@@QAE_NAAG@Z PROC	; RakNet::BitStream::ReadCompressed<unsigned short>, COMDAT
; _this$ = ecx

; 1080 : 	{

	push	ebp
	mov	ebp, esp
	sub	esp, 204				; 000000ccH
	push	ebx
	push	esi
	push	edi
	push	ecx
	lea	edi, DWORD PTR [ebp-204]
	mov	ecx, 51					; 00000033H
	mov	eax, -858993460				; ccccccccH
	rep stosd
	pop	ecx
	mov	DWORD PTR _this$[ebp], ecx

; 1081 : #ifdef _MSC_VER
; 1082 : #pragma warning(disable:4127)   // conditional expression is constant
; 1083 : #endif
; 1084 : 		if (sizeof(var)==1)

	xor	eax, eax
	je	SHORT $LN2@ReadCompre

; 1085 : 			return ReadCompressed( ( unsigned char* ) &var, sizeof(templateType) * 8, true );

	push	1
	push	16					; 00000010H
	mov	eax, DWORD PTR _var$[ebp]
	push	eax
	mov	ecx, DWORD PTR _this$[ebp]
	call	?ReadCompressed@BitStream@RakNet@@AAE_NPAEH_N@Z ; RakNet::BitStream::ReadCompressed
	jmp	SHORT $LN3@ReadCompre

; 1086 : 		else

	jmp	SHORT $LN3@ReadCompre
$LN2@ReadCompre:

; 1087 : 		{
; 1088 : #ifndef __BITSTREAM_NATIVE_END
; 1089 : 			if (DoEndianSwap())
; 1090 : 			{
; 1091 : 				unsigned char output[sizeof(templateType)];
; 1092 : 				if (ReadCompressed( ( unsigned char* ) output, sizeof(templateType) * 8, true ))
; 1093 : 				{
; 1094 : 					ReverseBytes(output, (unsigned char*)&var, sizeof(templateType));
; 1095 : 					return true;
; 1096 : 				}
; 1097 : 				return false;
; 1098 : 			}
; 1099 : 			else
; 1100 : #endif
; 1101 : 				return ReadCompressed( ( unsigned char* ) & var, sizeof(templateType) * 8, true );

	push	1
	push	16					; 00000010H
	mov	eax, DWORD PTR _var$[ebp]
	push	eax
	mov	ecx, DWORD PTR _this$[ebp]
	call	?ReadCompressed@BitStream@RakNet@@AAE_NPAEH_N@Z ; RakNet::BitStream::ReadCompressed
$LN3@ReadCompre:

; 1102 : 		}
; 1103 : 	}

	pop	edi
	pop	esi
	pop	ebx
	add	esp, 204				; 000000ccH
	cmp	ebp, esp
	call	__RTC_CheckEsp
	mov	esp, ebp
	pop	ebp
	ret	4
??$ReadCompressed@G@BitStream@RakNet@@QAE_NAAG@Z ENDP	; RakNet::BitStream::ReadCompressed<unsigned short>
_TEXT	ENDS
; Function compile flags: /Odtp /RTCsu /ZI
; File z:\sampsrc\02xu1\raknet\bitstream.h
;	COMDAT ??$ReadCompressed@I@BitStream@RakNet@@QAE_NAAI@Z
_TEXT	SEGMENT
_this$ = -8						; size = 4
_var$ = 8						; size = 4
??$ReadCompressed@I@BitStream@RakNet@@QAE_NAAI@Z PROC	; RakNet::BitStream::ReadCompressed<unsigned int>, COMDAT
; _this$ = ecx

; 1080 : 	{

	push	ebp
	mov	ebp, esp
	sub	esp, 204				; 000000ccH
	push	ebx
	push	esi
	push	edi
	push	ecx
	lea	edi, DWORD PTR [ebp-204]
	mov	ecx, 51					; 00000033H
	mov	eax, -858993460				; ccccccccH
	rep stosd
	pop	ecx
	mov	DWORD PTR _this$[ebp], ecx

; 1081 : #ifdef _MSC_VER
; 1082 : #pragma warning(disable:4127)   // conditional expression is constant
; 1083 : #endif
; 1084 : 		if (sizeof(var)==1)

	xor	eax, eax
	je	SHORT $LN2@ReadCompre

; 1085 : 			return ReadCompressed( ( unsigned char* ) &var, sizeof(templateType) * 8, true );

	push	1
	push	32					; 00000020H
	mov	eax, DWORD PTR _var$[ebp]
	push	eax
	mov	ecx, DWORD PTR _this$[ebp]
	call	?ReadCompressed@BitStream@RakNet@@AAE_NPAEH_N@Z ; RakNet::BitStream::ReadCompressed
	jmp	SHORT $LN3@ReadCompre

; 1086 : 		else

	jmp	SHORT $LN3@ReadCompre
$LN2@ReadCompre:

; 1087 : 		{
; 1088 : #ifndef __BITSTREAM_NATIVE_END
; 1089 : 			if (DoEndianSwap())
; 1090 : 			{
; 1091 : 				unsigned char output[sizeof(templateType)];
; 1092 : 				if (ReadCompressed( ( unsigned char* ) output, sizeof(templateType) * 8, true ))
; 1093 : 				{
; 1094 : 					ReverseBytes(output, (unsigned char*)&var, sizeof(templateType));
; 1095 : 					return true;
; 1096 : 				}
; 1097 : 				return false;
; 1098 : 			}
; 1099 : 			else
; 1100 : #endif
; 1101 : 				return ReadCompressed( ( unsigned char* ) & var, sizeof(templateType) * 8, true );

	push	1
	push	32					; 00000020H
	mov	eax, DWORD PTR _var$[ebp]
	push	eax
	mov	ecx, DWORD PTR _this$[ebp]
	call	?ReadCompressed@BitStream@RakNet@@AAE_NPAEH_N@Z ; RakNet::BitStream::ReadCompressed
$LN3@ReadCompre:

; 1102 : 		}
; 1103 : 	}

	pop	edi
	pop	esi
	pop	ebx
	add	esp, 204				; 000000ccH
	cmp	ebp, esp
	call	__RTC_CheckEsp
	mov	esp, ebp
	pop	ebp
	ret	4
??$ReadCompressed@I@BitStream@RakNet@@QAE_NAAI@Z ENDP	; RakNet::BitStream::ReadCompressed<unsigned int>
_TEXT	ENDS
; Function compile flags: /Odtp /RTCsu /ZI
; File z:\sampsrc\02xu1\raknet\bitstream.h
;	COMDAT ??$WriteCompressed@G@BitStream@RakNet@@QAEXG@Z
_TEXT	SEGMENT
_this$ = -8						; size = 4
_var$ = 8						; size = 2
??$WriteCompressed@G@BitStream@RakNet@@QAEXG@Z PROC	; RakNet::BitStream::WriteCompressed<unsigned short>, COMDAT
; _this$ = ecx

; 865  : 	{

	push	ebp
	mov	ebp, esp
	sub	esp, 204				; 000000ccH
	push	ebx
	push	esi
	push	edi
	push	ecx
	lea	edi, DWORD PTR [ebp-204]
	mov	ecx, 51					; 00000033H
	mov	eax, -858993460				; ccccccccH
	rep stosd
	pop	ecx
	mov	DWORD PTR _this$[ebp], ecx

; 866  : #ifdef _MSC_VER
; 867  : #pragma warning(disable:4127)   // conditional expression is constant
; 868  : #endif
; 869  : 		if (sizeof(var)==1)

	xor	eax, eax
	je	SHORT $LN2@WriteCompr

; 870  : 			WriteCompressed( ( unsigned char* ) & var, sizeof( templateType ) * 8, true );

	push	1
	push	16					; 00000010H
	lea	eax, DWORD PTR _var$[ebp]
	push	eax
	mov	ecx, DWORD PTR _this$[ebp]
	call	?WriteCompressed@BitStream@RakNet@@AAEXPBEH_N@Z ; RakNet::BitStream::WriteCompressed

; 871  : 		else

	jmp	SHORT $LN3@WriteCompr
$LN2@WriteCompr:

; 872  : 		{
; 873  : #ifndef __BITSTREAM_NATIVE_END
; 874  : #ifdef _MSC_VER
; 875  : #pragma warning(disable:4244)   // '=' : conversion from 'unsigned long' to 'unsigned short', possible loss of data
; 876  : #endif
; 877  : 
; 878  : 			if (DoEndianSwap())
; 879  : 			{
; 880  : 				unsigned char output[sizeof(templateType)];
; 881  : 				ReverseBytes((unsigned char*)&var, output, sizeof(templateType));
; 882  : 				WriteCompressed( ( unsigned char* ) output, sizeof(templateType) * 8, true );
; 883  : 			}
; 884  : 			else
; 885  : #endif
; 886  : 				WriteCompressed( ( unsigned char* ) & var, sizeof(templateType) * 8, true );

	push	1
	push	16					; 00000010H
	lea	eax, DWORD PTR _var$[ebp]
	push	eax
	mov	ecx, DWORD PTR _this$[ebp]
	call	?WriteCompressed@BitStream@RakNet@@AAEXPBEH_N@Z ; RakNet::BitStream::WriteCompressed
$LN3@WriteCompr:

; 887  : 		}
; 888  : 	}

	pop	edi
	pop	esi
	pop	ebx
	add	esp, 204				; 000000ccH
	cmp	ebp, esp
	call	__RTC_CheckEsp
	mov	esp, ebp
	pop	ebp
	ret	4
??$WriteCompressed@G@BitStream@RakNet@@QAEXG@Z ENDP	; RakNet::BitStream::WriteCompressed<unsigned short>
_TEXT	ENDS
; Function compile flags: /Odtp /RTCsu /ZI
; File z:\sampsrc\02xu1\raknet\bitstream.h
;	COMDAT ??$WriteCompressed@I@BitStream@RakNet@@QAEXI@Z
_TEXT	SEGMENT
_this$ = -8						; size = 4
_var$ = 8						; size = 4
??$WriteCompressed@I@BitStream@RakNet@@QAEXI@Z PROC	; RakNet::BitStream::WriteCompressed<unsigned int>, COMDAT
; _this$ = ecx

; 865  : 	{

	push	ebp
	mov	ebp, esp
	sub	esp, 204				; 000000ccH
	push	ebx
	push	esi
	push	edi
	push	ecx
	lea	edi, DWORD PTR [ebp-204]
	mov	ecx, 51					; 00000033H
	mov	eax, -858993460				; ccccccccH
	rep stosd
	pop	ecx
	mov	DWORD PTR _this$[ebp], ecx

; 866  : #ifdef _MSC_VER
; 867  : #pragma warning(disable:4127)   // conditional expression is constant
; 868  : #endif
; 869  : 		if (sizeof(var)==1)

	xor	eax, eax
	je	SHORT $LN2@WriteCompr

; 870  : 			WriteCompressed( ( unsigned char* ) & var, sizeof( templateType ) * 8, true );

	push	1
	push	32					; 00000020H
	lea	eax, DWORD PTR _var$[ebp]
	push	eax
	mov	ecx, DWORD PTR _this$[ebp]
	call	?WriteCompressed@BitStream@RakNet@@AAEXPBEH_N@Z ; RakNet::BitStream::WriteCompressed

; 871  : 		else

	jmp	SHORT $LN3@WriteCompr
$LN2@WriteCompr:

; 872  : 		{
; 873  : #ifndef __BITSTREAM_NATIVE_END
; 874  : #ifdef _MSC_VER
; 875  : #pragma warning(disable:4244)   // '=' : conversion from 'unsigned long' to 'unsigned short', possible loss of data
; 876  : #endif
; 877  : 
; 878  : 			if (DoEndianSwap())
; 879  : 			{
; 880  : 				unsigned char output[sizeof(templateType)];
; 881  : 				ReverseBytes((unsigned char*)&var, output, sizeof(templateType));
; 882  : 				WriteCompressed( ( unsigned char* ) output, sizeof(templateType) * 8, true );
; 883  : 			}
; 884  : 			else
; 885  : #endif
; 886  : 				WriteCompressed( ( unsigned char* ) & var, sizeof(templateType) * 8, true );

	push	1
	push	32					; 00000020H
	lea	eax, DWORD PTR _var$[ebp]
	push	eax
	mov	ecx, DWORD PTR _this$[ebp]
	call	?WriteCompressed@BitStream@RakNet@@AAEXPBEH_N@Z ; RakNet::BitStream::WriteCompressed
$LN3@WriteCompr:

; 887  : 		}
; 888  : 	}

	pop	edi
	pop	esi
	pop	ebx
	add	esp, 204				; 000000ccH
	cmp	ebp, esp
	call	__RTC_CheckEsp
	mov	esp, ebp
	pop	ebp
	ret	4
??$WriteCompressed@I@BitStream@RakNet@@QAEXI@Z ENDP	; RakNet::BitStream::WriteCompressed<unsigned int>
_TEXT	ENDS
; Function compile flags: /Odtp /RTCsu /ZI
; File z:\sampsrc\02xu1\raknet\ds_list.h
;	COMDAT ?Size@?$List@PAVPluginInterface@@@DataStructures@@QBEIXZ
_TEXT	SEGMENT
_this$ = -8						; size = 4
?Size@?$List@PAVPluginInterface@@@DataStructures@@QBEIXZ PROC ; DataStructures::List<PluginInterface *>::Size, COMDAT
; _this$ = ecx

; 373  : 	{

	push	ebp
	mov	ebp, esp
	sub	esp, 204				; 000000ccH
	push	ebx
	push	esi
	push	edi
	push	ecx
	lea	edi, DWORD PTR [ebp-204]
	mov	ecx, 51					; 00000033H
	mov	eax, -858993460				; ccccccccH
	rep stosd
	pop	ecx
	mov	DWORD PTR _this$[ebp], ecx

; 374  : 		return list_size;

	mov	eax, DWORD PTR _this$[ebp]
	mov	eax, DWORD PTR [eax+4]

; 375  : 	}

	pop	edi
	pop	esi
	pop	ebx
	mov	esp, ebp
	pop	ebp
	ret	0
?Size@?$List@PAVPluginInterface@@@DataStructures@@QBEIXZ ENDP ; DataStructures::List<PluginInterface *>::Size
_TEXT	ENDS
; Function compile flags: /Odtp /RTCsu /ZI
; File z:\sampsrc\02xu1\raknet\ds_list.h
;	COMDAT ??A?$List@PAVPluginInterface@@@DataStructures@@QBEAAPAVPluginInterface@@I@Z
_TEXT	SEGMENT
_this$ = -8						; size = 4
_position$ = 8						; size = 4
??A?$List@PAVPluginInterface@@@DataStructures@@QBEAAPAVPluginInterface@@I@Z PROC ; DataStructures::List<PluginInterface *>::operator[], COMDAT
; _this$ = ecx

; 185  : 	{

	push	ebp
	mov	ebp, esp
	sub	esp, 204				; 000000ccH
	push	ebx
	push	esi
	push	edi
	push	ecx
	lea	edi, DWORD PTR [ebp-204]
	mov	ecx, 51					; 00000033H
	mov	eax, -858993460				; ccccccccH
	rep stosd
	pop	ecx
	mov	DWORD PTR _this$[ebp], ecx

; 186  : #ifdef _DEBUG
; 187  : 		assert ( position < list_size );

	mov	eax, DWORD PTR _this$[ebp]
	mov	ecx, DWORD PTR _position$[ebp]
	cmp	ecx, DWORD PTR [eax+4]
	jb	SHORT $LN3@operator
	push	187					; 000000bbH
	push	OFFSET ??_C@_1EE@MBOIAKFO@?$AAz?$AA?3?$AA?2?$AAs?$AAa?$AAm?$AAp?$AAs?$AAr?$AAc?$AA?2?$AA0?$AA2?$AAx?$AAu?$AA1?$AA?2?$AAr?$AAa?$AAk?$AAn?$AAe?$AAt?$AA?2?$AAd?$AAs?$AA_?$AAl?$AAi?$AAs?$AAt?$AA?4@
	push	OFFSET ??_C@_1CK@HINNGFPG@?$AAp?$AAo?$AAs?$AAi?$AAt?$AAi?$AAo?$AAn?$AA?5?$AA?$DM?$AA?5?$AAl?$AAi?$AAs?$AAt?$AA_?$AAs?$AAi?$AAz?$AAe?$AA?$AA@
	call	__wassert
	add	esp, 12					; 0000000cH
$LN3@operator:

; 188  : #endif
; 189  : 		return listArray[ position ];

	mov	eax, DWORD PTR _this$[ebp]
	mov	ecx, DWORD PTR [eax]
	mov	edx, DWORD PTR _position$[ebp]
	lea	eax, DWORD PTR [ecx+edx*4]

; 190  : 	}

	pop	edi
	pop	esi
	pop	ebx
	add	esp, 204				; 000000ccH
	cmp	ebp, esp
	call	__RTC_CheckEsp
	mov	esp, ebp
	pop	ebp
	ret	4
??A?$List@PAVPluginInterface@@@DataStructures@@QBEAAPAVPluginInterface@@I@Z ENDP ; DataStructures::List<PluginInterface *>::operator[]
_TEXT	ENDS
; Function compile flags: /Odtp /RTCsu /ZI
;	COMDAT ??_E?$RangeNode@G@DataStructures@@QAEPAXI@Z
_TEXT	SEGMENT
_this$ = -8						; size = 4
___flags$ = 8						; size = 4
??_E?$RangeNode@G@DataStructures@@QAEPAXI@Z PROC	; DataStructures::RangeNode<unsigned short>::`vector deleting destructor', COMDAT
; _this$ = ecx
	push	ebp
	mov	ebp, esp
	sub	esp, 204				; 000000ccH
	push	ebx
	push	esi
	push	edi
	push	ecx
	lea	edi, DWORD PTR [ebp-204]
	mov	ecx, 51					; 00000033H
	mov	eax, -858993460				; ccccccccH
	rep stosd
	pop	ecx
	mov	DWORD PTR _this$[ebp], ecx
	mov	eax, DWORD PTR ___flags$[ebp]
	and	eax, 2
	je	SHORT $LN3@vector
	push	OFFSET ??1?$RangeNode@G@DataStructures@@QAE@XZ ; DataStructures::RangeNode<unsigned short>::~RangeNode<unsigned short>
	mov	eax, DWORD PTR _this$[ebp]
	mov	ecx, DWORD PTR [eax-4]
	push	ecx
	push	4
	mov	edx, DWORD PTR _this$[ebp]
	push	edx
	call	??_M@YGXPAXIHP6EX0@Z@Z
	mov	eax, DWORD PTR ___flags$[ebp]
	and	eax, 1
	je	SHORT $LN2@vector
	mov	eax, DWORD PTR _this$[ebp]
	sub	eax, 4
	push	eax
	call	??3@YAXPAX@Z				; operator delete
	add	esp, 4
$LN2@vector:
	mov	eax, DWORD PTR _this$[ebp]
	sub	eax, 4
	jmp	SHORT $LN4@vector
$LN3@vector:
	mov	ecx, DWORD PTR _this$[ebp]
	call	??1?$RangeNode@G@DataStructures@@QAE@XZ	; DataStructures::RangeNode<unsigned short>::~RangeNode<unsigned short>
	mov	eax, DWORD PTR ___flags$[ebp]
	and	eax, 1
	je	SHORT $LN1@vector
	mov	eax, DWORD PTR _this$[ebp]
	push	eax
	call	??3@YAXPAX@Z				; operator delete
	add	esp, 4
$LN1@vector:
	mov	eax, DWORD PTR _this$[ebp]
$LN4@vector:
	pop	edi
	pop	esi
	pop	ebx
	add	esp, 204				; 000000ccH
	cmp	ebp, esp
	call	__RTC_CheckEsp
	mov	esp, ebp
	pop	ebp
	ret	4
??_E?$RangeNode@G@DataStructures@@QAEPAXI@Z ENDP	; DataStructures::RangeNode<unsigned short>::`vector deleting destructor'
_TEXT	ENDS
; Function compile flags: /Odtp /RTCsu /ZI
; File z:\sampsrc\02xu1\raknet\ds_rangelist.h
;	COMDAT ??0?$RangeNode@G@DataStructures@@QAE@GG@Z
_TEXT	SEGMENT
_this$ = -8						; size = 4
_min$ = 8						; size = 2
_max$ = 12						; size = 2
??0?$RangeNode@G@DataStructures@@QAE@GG@Z PROC		; DataStructures::RangeNode<unsigned short>::RangeNode<unsigned short>, COMDAT
; _this$ = ecx

; 15   :         RangeNode(range_type min, range_type max) {minIndex=min; maxIndex=max;}

	push	ebp
	mov	ebp, esp
	sub	esp, 204				; 000000ccH
	push	ebx
	push	esi
	push	edi
	push	ecx
	lea	edi, DWORD PTR [ebp-204]
	mov	ecx, 51					; 00000033H
	mov	eax, -858993460				; ccccccccH
	rep stosd
	pop	ecx
	mov	DWORD PTR _this$[ebp], ecx
	mov	eax, DWORD PTR _this$[ebp]
	mov	cx, WORD PTR _min$[ebp]
	mov	WORD PTR [eax], cx
	mov	eax, DWORD PTR _this$[ebp]
	mov	cx, WORD PTR _max$[ebp]
	mov	WORD PTR [eax+2], cx
	mov	eax, DWORD PTR _this$[ebp]
	pop	edi
	pop	esi
	pop	ebx
	mov	esp, ebp
	pop	ebp
	ret	8
??0?$RangeNode@G@DataStructures@@QAE@GG@Z ENDP		; DataStructures::RangeNode<unsigned short>::RangeNode<unsigned short>
_TEXT	ENDS
; Function compile flags: /Odtp /RTCsu /ZI
; File z:\sampsrc\02xu1\raknet\ds_rangelist.h
;	COMDAT ??1?$RangeNode@G@DataStructures@@QAE@XZ
_TEXT	SEGMENT
_this$ = -8						; size = 4
??1?$RangeNode@G@DataStructures@@QAE@XZ PROC		; DataStructures::RangeNode<unsigned short>::~RangeNode<unsigned short>, COMDAT
; _this$ = ecx

; 14   :         ~RangeNode() {}

	push	ebp
	mov	ebp, esp
	sub	esp, 204				; 000000ccH
	push	ebx
	push	esi
	push	edi
	push	ecx
	lea	edi, DWORD PTR [ebp-204]
	mov	ecx, 51					; 00000033H
	mov	eax, -858993460				; ccccccccH
	rep stosd
	pop	ecx
	mov	DWORD PTR _this$[ebp], ecx
	pop	edi
	pop	esi
	pop	ebx
	mov	esp, ebp
	pop	ebp
	ret	0
??1?$RangeNode@G@DataStructures@@QAE@XZ ENDP		; DataStructures::RangeNode<unsigned short>::~RangeNode<unsigned short>
_TEXT	ENDS
; Function compile flags: /Odtp /RTCsu /ZI
; File z:\sampsrc\02xu1\raknet\ds_rangelist.h
;	COMDAT ??0?$RangeNode@G@DataStructures@@QAE@XZ
_TEXT	SEGMENT
_this$ = -8						; size = 4
??0?$RangeNode@G@DataStructures@@QAE@XZ PROC		; DataStructures::RangeNode<unsigned short>::RangeNode<unsigned short>, COMDAT
; _this$ = ecx

; 13   :         RangeNode() {}

	push	ebp
	mov	ebp, esp
	sub	esp, 204				; 000000ccH
	push	ebx
	push	esi
	push	edi
	push	ecx
	lea	edi, DWORD PTR [ebp-204]
	mov	ecx, 51					; 00000033H
	mov	eax, -858993460				; ccccccccH
	rep stosd
	pop	ecx
	mov	DWORD PTR _this$[ebp], ecx
	mov	eax, DWORD PTR _this$[ebp]
	pop	edi
	pop	esi
	pop	ebx
	mov	esp, ebp
	pop	ebp
	ret	0
??0?$RangeNode@G@DataStructures@@QAE@XZ ENDP		; DataStructures::RangeNode<unsigned short>::RangeNode<unsigned short>
_TEXT	ENDS
; Function compile flags: /Odtp /RTCsu /ZI
;	COMDAT ??_G?$LinkedList@PAUInternalPacket@@@DataStructures@@QAEPAXI@Z
_TEXT	SEGMENT
_this$ = -8						; size = 4
___flags$ = 8						; size = 4
??_G?$LinkedList@PAUInternalPacket@@@DataStructures@@QAEPAXI@Z PROC ; DataStructures::LinkedList<InternalPacket *>::`scalar deleting destructor', COMDAT
; _this$ = ecx
	push	ebp
	mov	ebp, esp
	sub	esp, 204				; 000000ccH
	push	ebx
	push	esi
	push	edi
	push	ecx
	lea	edi, DWORD PTR [ebp-204]
	mov	ecx, 51					; 00000033H
	mov	eax, -858993460				; ccccccccH
	rep stosd
	pop	ecx
	mov	DWORD PTR _this$[ebp], ecx
	mov	ecx, DWORD PTR _this$[ebp]
	call	??1?$LinkedList@PAUInternalPacket@@@DataStructures@@QAE@XZ ; DataStructures::LinkedList<InternalPacket *>::~LinkedList<InternalPacket *>
	mov	eax, DWORD PTR ___flags$[ebp]
	and	eax, 1
	je	SHORT $LN1@scalar
	mov	eax, DWORD PTR _this$[ebp]
	push	eax
	call	??3@YAXPAX@Z				; operator delete
	add	esp, 4
$LN1@scalar:
	mov	eax, DWORD PTR _this$[ebp]
	pop	edi
	pop	esi
	pop	ebx
	add	esp, 204				; 000000ccH
	cmp	ebp, esp
	call	__RTC_CheckEsp
	mov	esp, ebp
	pop	ebp
	ret	4
??_G?$LinkedList@PAUInternalPacket@@@DataStructures@@QAEPAXI@Z ENDP ; DataStructures::LinkedList<InternalPacket *>::`scalar deleting destructor'
_TEXT	ENDS
; Function compile flags: /Odtp /RTCsu /ZI
; File z:\sampsrc\02xu1\raknet\ds_linkedlist.h
;	COMDAT ??E?$LinkedList@PAUInternalPacket@@@DataStructures@@QAEAAV01@H@Z
_TEXT	SEGMENT
_this$ = -8						; size = 4
___formal$ = 8						; size = 4
??E?$LinkedList@PAUInternalPacket@@@DataStructures@@QAEAAV01@H@Z PROC ; DataStructures::LinkedList<InternalPacket *>::operator++, COMDAT
; _this$ = ecx

; 1219 : 	{

	push	ebp
	mov	ebp, esp
	sub	esp, 204				; 000000ccH
	push	ebx
	push	esi
	push	edi
	push	ecx
	lea	edi, DWORD PTR [ebp-204]
	mov	ecx, 51					; 00000033H
	mov	eax, -858993460				; ccccccccH
	rep stosd
	pop	ecx
	mov	DWORD PTR _this$[ebp], ecx

; 1220 : 		return this->operator++();

	mov	ecx, DWORD PTR _this$[ebp]
	call	??E?$LinkedList@PAUInternalPacket@@@DataStructures@@QAEAAV01@XZ ; DataStructures::LinkedList<InternalPacket *>::operator++

; 1221 : 	}

	pop	edi
	pop	esi
	pop	ebx
	add	esp, 204				; 000000ccH
	cmp	ebp, esp
	call	__RTC_CheckEsp
	mov	esp, ebp
	pop	ebp
	ret	4
??E?$LinkedList@PAUInternalPacket@@@DataStructures@@QAEAAV01@H@Z ENDP ; DataStructures::LinkedList<InternalPacket *>::operator++
_TEXT	ENDS
; Function compile flags: /Odtp /RTCsu /ZI
; File z:\sampsrc\02xu1\raknet\ds_linkedlist.h
;	COMDAT ??E?$LinkedList@PAUInternalPacket@@@DataStructures@@QAEAAV01@XZ
_TEXT	SEGMENT
_this$ = -8						; size = 4
??E?$LinkedList@PAUInternalPacket@@@DataStructures@@QAEAAV01@XZ PROC ; DataStructures::LinkedList<InternalPacket *>::operator++, COMDAT
; _this$ = ecx

; 1198 : 	{

	push	ebp
	mov	ebp, esp
	sub	esp, 204				; 000000ccH
	push	ebx
	push	esi
	push	edi
	push	ecx
	lea	edi, DWORD PTR [ebp-204]
	mov	ecx, 51					; 00000033H
	mov	eax, -858993460				; ccccccccH
	rep stosd
	pop	ecx
	mov	DWORD PTR _this$[ebp], ecx

; 1199 : 		if ( ( this->list_size != 0 ) && ( this->position->next != this->root ) )

	mov	eax, DWORD PTR _this$[ebp]
	cmp	DWORD PTR [eax], 0
	je	SHORT $LN1@operator
	mov	eax, DWORD PTR _this$[ebp]
	mov	ecx, DWORD PTR [eax+8]
	mov	edx, DWORD PTR _this$[ebp]
	mov	eax, DWORD PTR [ecx+8]
	cmp	eax, DWORD PTR [edx+4]
	je	SHORT $LN1@operator

; 1200 : 			this->position = this->position->next;

	mov	eax, DWORD PTR _this$[ebp]
	mov	ecx, DWORD PTR [eax+8]
	mov	edx, DWORD PTR _this$[ebp]
	mov	eax, DWORD PTR [ecx+8]
	mov	DWORD PTR [edx+8], eax
$LN1@operator:

; 1201 : 
; 1202 : 		return *this;

	mov	eax, DWORD PTR _this$[ebp]

; 1203 : 	}

	pop	edi
	pop	esi
	pop	ebx
	mov	esp, ebp
	pop	ebp
	ret	0
??E?$LinkedList@PAUInternalPacket@@@DataStructures@@QAEAAV01@XZ ENDP ; DataStructures::LinkedList<InternalPacket *>::operator++
_TEXT	ENDS
; Function compile flags: /Odtp /RTCsu /ZI
; File z:\sampsrc\02xu1\raknet\ds_linkedlist.h
;	COMDAT ??1?$LinkedList@PAUInternalPacket@@@DataStructures@@QAE@XZ
_TEXT	SEGMENT
_this$ = -20						; size = 4
__$EHRec$ = -12						; size = 12
??1?$LinkedList@PAUInternalPacket@@@DataStructures@@QAE@XZ PROC ; DataStructures::LinkedList<InternalPacket *>::~LinkedList<InternalPacket *>, COMDAT
; _this$ = ecx

; 361  : 	{

	push	ebp
	mov	ebp, esp
	push	-1
	push	__ehhandler$??1?$LinkedList@PAUInternalPacket@@@DataStructures@@QAE@XZ
	mov	eax, DWORD PTR fs:0
	push	eax
	sub	esp, 204				; 000000ccH
	push	ebx
	push	esi
	push	edi
	push	ecx
	lea	edi, DWORD PTR [ebp-216]
	mov	ecx, 51					; 00000033H
	mov	eax, -858993460				; ccccccccH
	rep stosd
	pop	ecx
	mov	eax, DWORD PTR ___security_cookie
	xor	eax, ebp
	push	eax
	lea	eax, DWORD PTR __$EHRec$[ebp]
	mov	DWORD PTR fs:0, eax
	mov	DWORD PTR _this$[ebp], ecx
	mov	DWORD PTR __$EHRec$[ebp+8], 0

; 362  : 		this->Clear();

	mov	ecx, DWORD PTR _this$[ebp]
	call	?Clear@?$CircularLinkedList@PAUInternalPacket@@@DataStructures@@QAEXXZ ; DataStructures::CircularLinkedList<InternalPacket *>::Clear

; 363  : 	}

	mov	DWORD PTR __$EHRec$[ebp+8], -1
	mov	ecx, DWORD PTR _this$[ebp]
	call	??1?$CircularLinkedList@PAUInternalPacket@@@DataStructures@@QAE@XZ ; DataStructures::CircularLinkedList<InternalPacket *>::~CircularLinkedList<InternalPacket *>
	mov	ecx, DWORD PTR __$EHRec$[ebp]
	mov	DWORD PTR fs:0, ecx
	pop	ecx
	pop	edi
	pop	esi
	pop	ebx
	add	esp, 216				; 000000d8H
	cmp	ebp, esp
	call	__RTC_CheckEsp
	mov	esp, ebp
	pop	ebp
	ret	0
_TEXT	ENDS
;	COMDAT text$x
text$x	SEGMENT
__unwindfunclet$??1?$LinkedList@PAUInternalPacket@@@DataStructures@@QAE@XZ$0:
	mov	ecx, DWORD PTR _this$[ebp]
	jmp	??1?$CircularLinkedList@PAUInternalPacket@@@DataStructures@@QAE@XZ ; DataStructures::CircularLinkedList<InternalPacket *>::~CircularLinkedList<InternalPacket *>
__ehhandler$??1?$LinkedList@PAUInternalPacket@@@DataStructures@@QAE@XZ:
	mov	edx, DWORD PTR [esp+8]
	lea	eax, DWORD PTR [edx+12]
	mov	ecx, DWORD PTR [edx-220]
	xor	ecx, eax
	call	@__security_check_cookie@4
	mov	eax, OFFSET __ehfuncinfo$??1?$LinkedList@PAUInternalPacket@@@DataStructures@@QAE@XZ
	jmp	___CxxFrameHandler3
text$x	ENDS
??1?$LinkedList@PAUInternalPacket@@@DataStructures@@QAE@XZ ENDP ; DataStructures::LinkedList<InternalPacket *>::~LinkedList<InternalPacket *>
; Function compile flags: /Odtp /RTCsu /ZI
; File z:\sampsrc\02xu1\raknet\ds_linkedlist.h
;	COMDAT ??0?$LinkedList@PAUInternalPacket@@@DataStructures@@QAE@XZ
_TEXT	SEGMENT
_this$ = -8						; size = 4
??0?$LinkedList@PAUInternalPacket@@@DataStructures@@QAE@XZ PROC ; DataStructures::LinkedList<InternalPacket *>::LinkedList<InternalPacket *>, COMDAT
; _this$ = ecx

; 222  : 		LinkedList()

	push	ebp
	mov	ebp, esp
	sub	esp, 204				; 000000ccH
	push	ebx
	push	esi
	push	edi
	push	ecx
	lea	edi, DWORD PTR [ebp-204]
	mov	ecx, 51					; 00000033H
	mov	eax, -858993460				; ccccccccH
	rep stosd
	pop	ecx
	mov	DWORD PTR _this$[ebp], ecx
	mov	ecx, DWORD PTR _this$[ebp]
	call	??0?$CircularLinkedList@PAUInternalPacket@@@DataStructures@@QAE@XZ ; DataStructures::CircularLinkedList<InternalPacket *>::CircularLinkedList<InternalPacket *>
	mov	eax, DWORD PTR _this$[ebp]
	pop	edi
	pop	esi
	pop	ebx
	add	esp, 204				; 000000ccH
	cmp	ebp, esp
	call	__RTC_CheckEsp
	mov	esp, ebp
	pop	ebp
	ret	0
??0?$LinkedList@PAUInternalPacket@@@DataStructures@@QAE@XZ ENDP ; DataStructures::LinkedList<InternalPacket *>::LinkedList<InternalPacket *>
_TEXT	ENDS
; Function compile flags: /Odtp /RTCsu /ZI
; File z:\sampsrc\02xu1\raknet\ds_linkedlist.h
;	COMDAT ?End@?$CircularLinkedList@PAUInternalPacket@@@DataStructures@@QAEXXZ
_TEXT	SEGMENT
_this$ = -8						; size = 4
?End@?$CircularLinkedList@PAUInternalPacket@@@DataStructures@@QAEXXZ PROC ; DataStructures::CircularLinkedList<InternalPacket *>::End, COMDAT
; _this$ = ecx

; 249  : 	{

	push	ebp
	mov	ebp, esp
	sub	esp, 204				; 000000ccH
	push	ebx
	push	esi
	push	edi
	push	ecx
	lea	edi, DWORD PTR [ebp-204]
	mov	ecx, 51					; 00000033H
	mov	eax, -858993460				; ccccccccH
	rep stosd
	pop	ecx
	mov	DWORD PTR _this$[ebp], ecx

; 250  : 		if ( this->root )

	mov	eax, DWORD PTR _this$[ebp]
	cmp	DWORD PTR [eax+4], 0
	je	SHORT $LN2@End

; 251  : 			this->position = this->root->previous;

	mov	eax, DWORD PTR _this$[ebp]
	mov	ecx, DWORD PTR [eax+4]
	mov	edx, DWORD PTR _this$[ebp]
	mov	eax, DWORD PTR [ecx+4]
	mov	DWORD PTR [edx+8], eax
$LN2@End:

; 252  : 	}

	pop	edi
	pop	esi
	pop	ebx
	mov	esp, ebp
	pop	ebp
	ret	0
?End@?$CircularLinkedList@PAUInternalPacket@@@DataStructures@@QAEXXZ ENDP ; DataStructures::CircularLinkedList<InternalPacket *>::End
_TEXT	ENDS
; Function compile flags: /Odtp /RTCsu /ZI
; File z:\sampsrc\02xu1\raknet\ds_linkedlist.h
;	COMDAT ?Beginning@?$CircularLinkedList@PAUInternalPacket@@@DataStructures@@QAEXXZ
_TEXT	SEGMENT
_this$ = -8						; size = 4
?Beginning@?$CircularLinkedList@PAUInternalPacket@@@DataStructures@@QAEXXZ PROC ; DataStructures::CircularLinkedList<InternalPacket *>::Beginning, COMDAT
; _this$ = ecx

; 242  : 	{

	push	ebp
	mov	ebp, esp
	sub	esp, 204				; 000000ccH
	push	ebx
	push	esi
	push	edi
	push	ecx
	lea	edi, DWORD PTR [ebp-204]
	mov	ecx, 51					; 00000033H
	mov	eax, -858993460				; ccccccccH
	rep stosd
	pop	ecx
	mov	DWORD PTR _this$[ebp], ecx

; 243  : 		if ( this->root )

	mov	eax, DWORD PTR _this$[ebp]
	cmp	DWORD PTR [eax+4], 0
	je	SHORT $LN2@Beginning

; 244  : 			this->position = this->root;

	mov	eax, DWORD PTR _this$[ebp]
	mov	ecx, DWORD PTR _this$[ebp]
	mov	edx, DWORD PTR [ecx+4]
	mov	DWORD PTR [eax+8], edx
$LN2@Beginning:

; 245  : 	}

	pop	edi
	pop	esi
	pop	ebx
	mov	esp, ebp
	pop	ebp
	ret	0
?Beginning@?$CircularLinkedList@PAUInternalPacket@@@DataStructures@@QAEXXZ ENDP ; DataStructures::CircularLinkedList<InternalPacket *>::Beginning
_TEXT	ENDS
; Function compile flags: /Odtp /RTCsu /ZI
; File z:\sampsrc\02xu1\raknet\ds_linkedlist.h
;	COMDAT ?Clear@?$CircularLinkedList@PAUInternalPacket@@@DataStructures@@QAEXXZ
_TEXT	SEGMENT
$T1 = -248						; size = 4
$T2 = -236						; size = 4
_temp$3 = -32						; size = 4
_current$4 = -20					; size = 4
_this$ = -8						; size = 4
?Clear@?$CircularLinkedList@PAUInternalPacket@@@DataStructures@@QAEXXZ PROC ; DataStructures::CircularLinkedList<InternalPacket *>::Clear, COMDAT
; _this$ = ecx

; 959  : 	{

	push	ebp
	mov	ebp, esp
	sub	esp, 252				; 000000fcH
	push	ebx
	push	esi
	push	edi
	push	ecx
	lea	edi, DWORD PTR [ebp-252]
	mov	ecx, 63					; 0000003fH
	mov	eax, -858993460				; ccccccccH
	rep stosd
	pop	ecx
	mov	DWORD PTR _this$[ebp], ecx

; 960  : 		if ( this->list_size == 0 )

	mov	eax, DWORD PTR _this$[ebp]
	cmp	DWORD PTR [eax], 0
	jne	SHORT $LN7@Clear

; 961  : 			return ;

	jmp	SHORT $LN8@Clear

; 962  : 		else

	jmp	SHORT $LN6@Clear
$LN7@Clear:

; 963  : 			if ( this->list_size == 1 )  // {delete root->item; delete root;}

	mov	eax, DWORD PTR _this$[ebp]
	cmp	DWORD PTR [eax], 1
	jne	SHORT $LN5@Clear

; 964  : 			{
; 965  : 				delete this->root;

	mov	eax, DWORD PTR _this$[ebp]
	mov	ecx, DWORD PTR [eax+4]
	mov	DWORD PTR $T1[ebp], ecx
	mov	edx, DWORD PTR $T1[ebp]
	push	edx
	call	??3@YAXPAX@Z				; operator delete
	add	esp, 4

; 966  : 			}
; 967  : 
; 968  : 			else

	jmp	SHORT $LN6@Clear
$LN5@Clear:

; 969  : 			{
; 970  : 				node* current;
; 971  : 				node* temp;
; 972  : 
; 973  : 				current = this->root;

	mov	eax, DWORD PTR _this$[ebp]
	mov	ecx, DWORD PTR [eax+4]
	mov	DWORD PTR _current$4[ebp], ecx
$LN3@Clear:

; 974  : 
; 975  : 				do
; 976  : 				{
; 977  : 					temp = current;

	mov	eax, DWORD PTR _current$4[ebp]
	mov	DWORD PTR _temp$3[ebp], eax

; 978  : 					current = current->next;

	mov	eax, DWORD PTR _current$4[ebp]
	mov	ecx, DWORD PTR [eax+8]
	mov	DWORD PTR _current$4[ebp], ecx

; 979  : 					// delete temp->item;
; 980  : 					delete temp;

	mov	eax, DWORD PTR _temp$3[ebp]
	mov	DWORD PTR $T2[ebp], eax
	mov	ecx, DWORD PTR $T2[ebp]
	push	ecx
	call	??3@YAXPAX@Z				; operator delete
	add	esp, 4

; 981  : 				}
; 982  : 
; 983  : 				while ( current != this->root );

	mov	eax, DWORD PTR _this$[ebp]
	mov	ecx, DWORD PTR _current$4[ebp]
	cmp	ecx, DWORD PTR [eax+4]
	jne	SHORT $LN3@Clear
$LN6@Clear:

; 984  : 			}
; 985  : 
; 986  : 			this->list_size = 0;

	mov	eax, DWORD PTR _this$[ebp]
	mov	DWORD PTR [eax], 0

; 987  : 			this->root = 0;

	mov	eax, DWORD PTR _this$[ebp]
	mov	DWORD PTR [eax+4], 0

; 988  : 			this->position = 0;

	mov	eax, DWORD PTR _this$[ebp]
	mov	DWORD PTR [eax+8], 0
$LN8@Clear:

; 989  : 	}

	pop	edi
	pop	esi
	pop	ebx
	add	esp, 252				; 000000fcH
	cmp	ebp, esp
	call	__RTC_CheckEsp
	mov	esp, ebp
	pop	ebp
	ret	0
?Clear@?$CircularLinkedList@PAUInternalPacket@@@DataStructures@@QAEXXZ ENDP ; DataStructures::CircularLinkedList<InternalPacket *>::Clear
_TEXT	ENDS
; Function compile flags: /Odtp /RTCsu /ZI
; File z:\sampsrc\02xu1\raknet\ds_linkedlist.h
;	COMDAT ?Pop@?$CircularLinkedList@PAUInternalPacket@@@DataStructures@@QAEPAUInternalPacket@@XZ
_TEXT	SEGMENT
_element$ = -20						; size = 4
_this$ = -8						; size = 4
?Pop@?$CircularLinkedList@PAUInternalPacket@@@DataStructures@@QAEPAUInternalPacket@@XZ PROC ; DataStructures::CircularLinkedList<InternalPacket *>::Pop, COMDAT
; _this$ = ecx

; 894  : 	{

	push	ebp
	mov	ebp, esp
	sub	esp, 216				; 000000d8H
	push	ebx
	push	esi
	push	edi
	push	ecx
	lea	edi, DWORD PTR [ebp-216]
	mov	ecx, 54					; 00000036H
	mov	eax, -858993460				; ccccccccH
	rep stosd
	pop	ecx
	mov	DWORD PTR _this$[ebp], ecx

; 895  : 		CircularLinkedListType element;
; 896  : 		element = Peek();

	mov	ecx, DWORD PTR _this$[ebp]
	call	?Peek@?$CircularLinkedList@PAUInternalPacket@@@DataStructures@@QAEAAPAUInternalPacket@@XZ ; DataStructures::CircularLinkedList<InternalPacket *>::Peek
	mov	eax, DWORD PTR [eax]
	mov	DWORD PTR _element$[ebp], eax

; 897  : 		Del();

	mov	ecx, DWORD PTR _this$[ebp]
	call	?Del@?$CircularLinkedList@PAUInternalPacket@@@DataStructures@@QAEXXZ ; DataStructures::CircularLinkedList<InternalPacket *>::Del

; 898  : 		return CircularLinkedListType( element ); // return temporary

	mov	eax, DWORD PTR _element$[ebp]

; 899  : 	}

	pop	edi
	pop	esi
	pop	ebx
	add	esp, 216				; 000000d8H
	cmp	ebp, esp
	call	__RTC_CheckEsp
	mov	esp, ebp
	pop	ebp
	ret	0
?Pop@?$CircularLinkedList@PAUInternalPacket@@@DataStructures@@QAEPAUInternalPacket@@XZ ENDP ; DataStructures::CircularLinkedList<InternalPacket *>::Pop
_TEXT	ENDS
; Function compile flags: /Odtp /RTCsu /ZI
; File z:\sampsrc\02xu1\raknet\ds_linkedlist.h
;	COMDAT ?Peek@?$CircularLinkedList@PAUInternalPacket@@@DataStructures@@QAEAAPAUInternalPacket@@XZ
_TEXT	SEGMENT
_this$ = -8						; size = 4
?Peek@?$CircularLinkedList@PAUInternalPacket@@@DataStructures@@QAEAAPAUInternalPacket@@XZ PROC ; DataStructures::CircularLinkedList<InternalPacket *>::Peek, COMDAT
; _this$ = ecx

; 887  : 	{

	push	ebp
	mov	ebp, esp
	sub	esp, 204				; 000000ccH
	push	ebx
	push	esi
	push	edi
	push	ecx
	lea	edi, DWORD PTR [ebp-204]
	mov	ecx, 51					; 00000033H
	mov	eax, -858993460				; ccccccccH
	rep stosd
	pop	ecx
	mov	DWORD PTR _this$[ebp], ecx

; 888  : 		// return *(position->item);
; 889  : 		return this->position->item;

	mov	eax, DWORD PTR _this$[ebp]
	mov	eax, DWORD PTR [eax+8]

; 890  : 	}

	pop	edi
	pop	esi
	pop	ebx
	mov	esp, ebp
	pop	ebp
	ret	0
?Peek@?$CircularLinkedList@PAUInternalPacket@@@DataStructures@@QAEAAPAUInternalPacket@@XZ ENDP ; DataStructures::CircularLinkedList<InternalPacket *>::Peek
_TEXT	ENDS
; Function compile flags: /Odtp /RTCsu /ZI
; File z:\sampsrc\02xu1\raknet\ds_linkedlist.h
;	COMDAT ?Size@?$CircularLinkedList@PAUInternalPacket@@@DataStructures@@QAEIXZ
_TEXT	SEGMENT
_this$ = -8						; size = 4
?Size@?$CircularLinkedList@PAUInternalPacket@@@DataStructures@@QAEIXZ PROC ; DataStructures::CircularLinkedList<InternalPacket *>::Size, COMDAT
; _this$ = ecx

; 881  : 	{

	push	ebp
	mov	ebp, esp
	sub	esp, 204				; 000000ccH
	push	ebx
	push	esi
	push	edi
	push	ecx
	lea	edi, DWORD PTR [ebp-204]
	mov	ecx, 51					; 00000033H
	mov	eax, -858993460				; ccccccccH
	rep stosd
	pop	ecx
	mov	DWORD PTR _this$[ebp], ecx

; 882  : 		return this->list_size;

	mov	eax, DWORD PTR _this$[ebp]
	mov	eax, DWORD PTR [eax]

; 883  : 	}

	pop	edi
	pop	esi
	pop	ebx
	mov	esp, ebp
	pop	ebp
	ret	0
?Size@?$CircularLinkedList@PAUInternalPacket@@@DataStructures@@QAEIXZ ENDP ; DataStructures::CircularLinkedList<InternalPacket *>::Size
_TEXT	ENDS
; Function compile flags: /Odtp /RTCsu /ZI
; File z:\sampsrc\02xu1\raknet\ds_linkedlist.h
;	COMDAT ?Del@?$CircularLinkedList@PAUInternalPacket@@@DataStructures@@QAEXXZ
_TEXT	SEGMENT
$T1 = -236						; size = 4
$T2 = -224						; size = 4
_new_position$ = -20					; size = 4
_this$ = -8						; size = 4
?Del@?$CircularLinkedList@PAUInternalPacket@@@DataStructures@@QAEXXZ PROC ; DataStructures::CircularLinkedList<InternalPacket *>::Del, COMDAT
; _this$ = ecx

; 785  : 	{

	push	ebp
	mov	ebp, esp
	sub	esp, 240				; 000000f0H
	push	ebx
	push	esi
	push	edi
	push	ecx
	lea	edi, DWORD PTR [ebp-240]
	mov	ecx, 60					; 0000003cH
	mov	eax, -858993460				; ccccccccH
	rep stosd
	pop	ecx
	mov	DWORD PTR _this$[ebp], ecx

; 786  : 		node * new_position;
; 787  : 
; 788  : 		if ( this->list_size == 0 )

	mov	eax, DWORD PTR _this$[ebp]
	cmp	DWORD PTR [eax], 0
	jne	SHORT $LN5@Del

; 789  : 			return ;

	jmp	$LN6@Del

; 790  : 
; 791  : 		else

	jmp	$LN6@Del
$LN5@Del:

; 792  : 			if ( this->list_size == 1 )

	mov	eax, DWORD PTR _this$[ebp]
	cmp	DWORD PTR [eax], 1
	jne	SHORT $LN3@Del

; 793  : 			{
; 794  : 				// delete root->item;
; 795  : 				delete this->root;

	mov	eax, DWORD PTR _this$[ebp]
	mov	ecx, DWORD PTR [eax+4]
	mov	DWORD PTR $T1[ebp], ecx
	mov	edx, DWORD PTR $T1[ebp]
	push	edx
	call	??3@YAXPAX@Z				; operator delete
	add	esp, 4

; 796  : 				this->root = this->position = 0;

	mov	eax, DWORD PTR _this$[ebp]
	mov	DWORD PTR [eax+8], 0
	mov	ecx, DWORD PTR _this$[ebp]
	mov	DWORD PTR [ecx+4], 0

; 797  : 				this->list_size = 0;

	mov	eax, DWORD PTR _this$[ebp]
	mov	DWORD PTR [eax], 0

; 798  : 			}
; 799  : 
; 800  : 			else

	jmp	SHORT $LN6@Del
$LN3@Del:

; 801  : 			{
; 802  : 				( this->position->previous ) ->next = this->position->next;

	mov	eax, DWORD PTR _this$[ebp]
	mov	ecx, DWORD PTR [eax+8]
	mov	edx, DWORD PTR _this$[ebp]
	mov	eax, DWORD PTR [edx+8]
	mov	edx, DWORD PTR [eax+4]
	mov	eax, DWORD PTR [ecx+8]
	mov	DWORD PTR [edx+8], eax

; 803  : 				( this->position->next ) ->previous = this->position->previous;

	mov	eax, DWORD PTR _this$[ebp]
	mov	ecx, DWORD PTR [eax+8]
	mov	edx, DWORD PTR _this$[ebp]
	mov	eax, DWORD PTR [edx+8]
	mov	edx, DWORD PTR [eax+8]
	mov	eax, DWORD PTR [ecx+4]
	mov	DWORD PTR [edx+4], eax

; 804  : 				new_position = this->position->next;

	mov	eax, DWORD PTR _this$[ebp]
	mov	ecx, DWORD PTR [eax+8]
	mov	edx, DWORD PTR [ecx+8]
	mov	DWORD PTR _new_position$[ebp], edx

; 805  : 
; 806  : 				if ( this->position == this->root )

	mov	eax, DWORD PTR _this$[ebp]
	mov	ecx, DWORD PTR _this$[ebp]
	mov	edx, DWORD PTR [eax+8]
	cmp	edx, DWORD PTR [ecx+4]
	jne	SHORT $LN1@Del

; 807  : 					this->root = new_position;

	mov	eax, DWORD PTR _this$[ebp]
	mov	ecx, DWORD PTR _new_position$[ebp]
	mov	DWORD PTR [eax+4], ecx
$LN1@Del:

; 808  : 
; 809  : 				// delete position->item;
; 810  : 				delete this->position;

	mov	eax, DWORD PTR _this$[ebp]
	mov	ecx, DWORD PTR [eax+8]
	mov	DWORD PTR $T2[ebp], ecx
	mov	edx, DWORD PTR $T2[ebp]
	push	edx
	call	??3@YAXPAX@Z				; operator delete
	add	esp, 4

; 811  : 
; 812  : 				this->position = new_position;

	mov	eax, DWORD PTR _this$[ebp]
	mov	ecx, DWORD PTR _new_position$[ebp]
	mov	DWORD PTR [eax+8], ecx

; 813  : 
; 814  : 				this->list_size--;

	mov	eax, DWORD PTR _this$[ebp]
	mov	ecx, DWORD PTR [eax]
	sub	ecx, 1
	mov	edx, DWORD PTR _this$[ebp]
	mov	DWORD PTR [edx], ecx
$LN6@Del:

; 815  : 			}
; 816  : 	}

	pop	edi
	pop	esi
	pop	ebx
	add	esp, 240				; 000000f0H
	cmp	ebp, esp
	call	__RTC_CheckEsp
	mov	esp, ebp
	pop	ebp
	ret	0
?Del@?$CircularLinkedList@PAUInternalPacket@@@DataStructures@@QAEXXZ ENDP ; DataStructures::CircularLinkedList<InternalPacket *>::Del
_TEXT	ENDS
; Function compile flags: /Odtp /RTCsu /ZI
; File z:\sampsrc\02xu1\raknet\ds_linkedlist.h
;	COMDAT ?Add@?$CircularLinkedList@PAUInternalPacket@@@DataStructures@@QAEAAPAUInternalPacket@@ABQAU3@@Z
_TEXT	SEGMENT
$T1 = -248						; size = 4
$T2 = -236						; size = 4
$T3 = -224						; size = 4
_new_node$ = -20					; size = 4
_this$ = -8						; size = 4
_input$ = 8						; size = 4
?Add@?$CircularLinkedList@PAUInternalPacket@@@DataStructures@@QAEAAPAUInternalPacket@@ABQAU3@@Z PROC ; DataStructures::CircularLinkedList<InternalPacket *>::Add, COMDAT
; _this$ = ecx

; 701  : 	{

	push	ebp
	mov	ebp, esp
	sub	esp, 252				; 000000fcH
	push	ebx
	push	esi
	push	edi
	push	ecx
	lea	edi, DWORD PTR [ebp-252]
	mov	ecx, 63					; 0000003fH
	mov	eax, -858993460				; ccccccccH
	rep stosd
	pop	ecx
	mov	DWORD PTR _this$[ebp], ecx

; 702  : 		node * new_node;
; 703  : 
; 704  : 		if ( this->list_size == 0 )

	mov	eax, DWORD PTR _this$[ebp]
	cmp	DWORD PTR [eax], 0
	jne	SHORT $LN4@Add

; 705  : 		{
; 706  : 			this->root = new typename CircularLinkedList::node;

	push	12					; 0000000cH
	call	??2@YAPAXI@Z				; operator new
	add	esp, 4
	mov	DWORD PTR $T1[ebp], eax
	mov	eax, DWORD PTR _this$[ebp]
	mov	ecx, DWORD PTR $T1[ebp]
	mov	DWORD PTR [eax+4], ecx

; 707  : 			// root->item = new CircularLinkedListType;
; 708  : 			// *(root->item)=input;
; 709  : 			this->root->item = input;

	mov	eax, DWORD PTR _this$[ebp]
	mov	ecx, DWORD PTR [eax+4]
	mov	edx, DWORD PTR _input$[ebp]
	mov	eax, DWORD PTR [edx]
	mov	DWORD PTR [ecx], eax

; 710  : 			this->root->next = this->root;

	mov	eax, DWORD PTR _this$[ebp]
	mov	ecx, DWORD PTR [eax+4]
	mov	edx, DWORD PTR _this$[ebp]
	mov	eax, DWORD PTR [edx+4]
	mov	DWORD PTR [ecx+8], eax

; 711  : 			this->root->previous = this->root;

	mov	eax, DWORD PTR _this$[ebp]
	mov	ecx, DWORD PTR [eax+4]
	mov	edx, DWORD PTR _this$[ebp]
	mov	eax, DWORD PTR [edx+4]
	mov	DWORD PTR [ecx+4], eax

; 712  : 			this->list_size = 1;

	mov	eax, DWORD PTR _this$[ebp]
	mov	DWORD PTR [eax], 1

; 713  : 			this->position = this->root;

	mov	eax, DWORD PTR _this$[ebp]
	mov	ecx, DWORD PTR _this$[ebp]
	mov	edx, DWORD PTR [ecx+4]
	mov	DWORD PTR [eax+8], edx

; 714  : 			// return *(position->item);
; 715  : 			return this->position->item;

	mov	eax, DWORD PTR _this$[ebp]
	mov	eax, DWORD PTR [eax+8]
	jmp	$LN5@Add

; 716  : 		}
; 717  : 
; 718  : 		else

	jmp	$LN5@Add
$LN4@Add:

; 719  : 			if ( list_size == 1 )

	mov	eax, DWORD PTR _this$[ebp]
	cmp	DWORD PTR [eax], 1
	jne	$LN2@Add

; 720  : 			{
; 721  : 				this->position = new typename CircularLinkedList::node;

	push	12					; 0000000cH
	call	??2@YAPAXI@Z				; operator new
	add	esp, 4
	mov	DWORD PTR $T2[ebp], eax
	mov	eax, DWORD PTR _this$[ebp]
	mov	ecx, DWORD PTR $T2[ebp]
	mov	DWORD PTR [eax+8], ecx

; 722  : 				// position->item = new CircularLinkedListType;
; 723  : 				this->root->next = this->position;

	mov	eax, DWORD PTR _this$[ebp]
	mov	ecx, DWORD PTR [eax+4]
	mov	edx, DWORD PTR _this$[ebp]
	mov	eax, DWORD PTR [edx+8]
	mov	DWORD PTR [ecx+8], eax

; 724  : 				this->root->previous = this->position;

	mov	eax, DWORD PTR _this$[ebp]
	mov	ecx, DWORD PTR [eax+4]
	mov	edx, DWORD PTR _this$[ebp]
	mov	eax, DWORD PTR [edx+8]
	mov	DWORD PTR [ecx+4], eax

; 725  : 				this->position->previous = this->root;

	mov	eax, DWORD PTR _this$[ebp]
	mov	ecx, DWORD PTR [eax+8]
	mov	edx, DWORD PTR _this$[ebp]
	mov	eax, DWORD PTR [edx+4]
	mov	DWORD PTR [ecx+4], eax

; 726  : 				this->position->next = this->root;

	mov	eax, DWORD PTR _this$[ebp]
	mov	ecx, DWORD PTR [eax+8]
	mov	edx, DWORD PTR _this$[ebp]
	mov	eax, DWORD PTR [edx+4]
	mov	DWORD PTR [ecx+8], eax

; 727  : 				// *(position->item)=input;
; 728  : 				this->position->item = input;

	mov	eax, DWORD PTR _this$[ebp]
	mov	ecx, DWORD PTR [eax+8]
	mov	edx, DWORD PTR _input$[ebp]
	mov	eax, DWORD PTR [edx]
	mov	DWORD PTR [ecx], eax

; 729  : 				this->list_size = 2;

	mov	eax, DWORD PTR _this$[ebp]
	mov	DWORD PTR [eax], 2

; 730  : 				this->position = this->root; // Don't move the position from the root

	mov	eax, DWORD PTR _this$[ebp]
	mov	ecx, DWORD PTR _this$[ebp]
	mov	edx, DWORD PTR [ecx+4]
	mov	DWORD PTR [eax+8], edx

; 731  : 				// return *(position->item);
; 732  : 				return this->position->item;

	mov	eax, DWORD PTR _this$[ebp]
	mov	eax, DWORD PTR [eax+8]
	jmp	SHORT $LN5@Add

; 733  : 			}
; 734  : 
; 735  : 			else

	jmp	SHORT $LN5@Add
$LN2@Add:

; 736  : 			{
; 737  : 				/*
; 738  : 
; 739  : 				   B
; 740  : 			       |
; 741  : 				A --- C
; 742  : 
; 743  : 				new_node=B
; 744  : 				position=A
; 745  : 				position->next=C
; 746  : 
; 747  : 				Note that the order of the following statements is important  */
; 748  : 
; 749  : 				new_node = new typename CircularLinkedList::node;

	push	12					; 0000000cH
	call	??2@YAPAXI@Z				; operator new
	add	esp, 4
	mov	DWORD PTR $T3[ebp], eax
	mov	eax, DWORD PTR $T3[ebp]
	mov	DWORD PTR _new_node$[ebp], eax

; 750  : 				// new_node->item = new CircularLinkedListType;
; 751  : 
; 752  : 				// *(new_node->item)=input;
; 753  : 				new_node->item = input;

	mov	eax, DWORD PTR _new_node$[ebp]
	mov	ecx, DWORD PTR _input$[ebp]
	mov	edx, DWORD PTR [ecx]
	mov	DWORD PTR [eax], edx

; 754  : 
; 755  : 				// Point last of B to A
; 756  : 				new_node->previous = this->position;

	mov	eax, DWORD PTR _new_node$[ebp]
	mov	ecx, DWORD PTR _this$[ebp]
	mov	edx, DWORD PTR [ecx+8]
	mov	DWORD PTR [eax+4], edx

; 757  : 
; 758  : 				// Point next of B to C
; 759  : 				new_node->next = ( this->position->next );

	mov	eax, DWORD PTR _this$[ebp]
	mov	ecx, DWORD PTR [eax+8]
	mov	edx, DWORD PTR _new_node$[ebp]
	mov	eax, DWORD PTR [ecx+8]
	mov	DWORD PTR [edx+8], eax

; 760  : 
; 761  : 				// Point last of C to B
; 762  : 				( this->position->next ) ->previous = new_node;

	mov	eax, DWORD PTR _this$[ebp]
	mov	ecx, DWORD PTR [eax+8]
	mov	edx, DWORD PTR [ecx+8]
	mov	eax, DWORD PTR _new_node$[ebp]
	mov	DWORD PTR [edx+4], eax

; 763  : 
; 764  : 				// Point next of A to B
; 765  : 				( this->position->next ) = new_node;

	mov	eax, DWORD PTR _this$[ebp]
	mov	ecx, DWORD PTR [eax+8]
	mov	edx, DWORD PTR _new_node$[ebp]
	mov	DWORD PTR [ecx+8], edx

; 766  : 
; 767  : 				// Increase the recorded size of the list by one
; 768  : 				this->list_size++;

	mov	eax, DWORD PTR _this$[ebp]
	mov	ecx, DWORD PTR [eax]
	add	ecx, 1
	mov	edx, DWORD PTR _this$[ebp]
	mov	DWORD PTR [edx], ecx

; 769  : 
; 770  : 				// return *(new_node->item);
; 771  : 				return new_node->item;

	mov	eax, DWORD PTR _new_node$[ebp]
$LN5@Add:

; 772  : 			}
; 773  : 	}

	pop	edi
	pop	esi
	pop	ebx
	add	esp, 252				; 000000fcH
	cmp	ebp, esp
	call	__RTC_CheckEsp
	mov	esp, ebp
	pop	ebp
	ret	4
?Add@?$CircularLinkedList@PAUInternalPacket@@@DataStructures@@QAEAAPAUInternalPacket@@ABQAU3@@Z ENDP ; DataStructures::CircularLinkedList<InternalPacket *>::Add
_TEXT	ENDS
; Function compile flags: /Odtp /RTCsu /ZI
; File z:\sampsrc\02xu1\raknet\ds_linkedlist.h
;	COMDAT ??1?$CircularLinkedList@PAUInternalPacket@@@DataStructures@@QAE@XZ
_TEXT	SEGMENT
_this$ = -8						; size = 4
??1?$CircularLinkedList@PAUInternalPacket@@@DataStructures@@QAE@XZ PROC ; DataStructures::CircularLinkedList<InternalPacket *>::~CircularLinkedList<InternalPacket *>, COMDAT
; _this$ = ecx

; 355  : 	{

	push	ebp
	mov	ebp, esp
	sub	esp, 204				; 000000ccH
	push	ebx
	push	esi
	push	edi
	push	ecx
	lea	edi, DWORD PTR [ebp-204]
	mov	ecx, 51					; 00000033H
	mov	eax, -858993460				; ccccccccH
	rep stosd
	pop	ecx
	mov	DWORD PTR _this$[ebp], ecx

; 356  : 		this->Clear();

	mov	ecx, DWORD PTR _this$[ebp]
	call	?Clear@?$CircularLinkedList@PAUInternalPacket@@@DataStructures@@QAEXXZ ; DataStructures::CircularLinkedList<InternalPacket *>::Clear

; 357  : 	}

	pop	edi
	pop	esi
	pop	ebx
	add	esp, 204				; 000000ccH
	cmp	ebp, esp
	call	__RTC_CheckEsp
	mov	esp, ebp
	pop	ebp
	ret	0
??1?$CircularLinkedList@PAUInternalPacket@@@DataStructures@@QAE@XZ ENDP ; DataStructures::CircularLinkedList<InternalPacket *>::~CircularLinkedList<InternalPacket *>
_TEXT	ENDS
; Function compile flags: /Odtp /RTCsu /ZI
; File z:\sampsrc\02xu1\raknet\ds_linkedlist.h
;	COMDAT ??0?$CircularLinkedList@PAUInternalPacket@@@DataStructures@@QAE@XZ
_TEXT	SEGMENT
_this$ = -8						; size = 4
??0?$CircularLinkedList@PAUInternalPacket@@@DataStructures@@QAE@XZ PROC ; DataStructures::CircularLinkedList<InternalPacket *>::CircularLinkedList<InternalPacket *>, COMDAT
; _this$ = ecx

; 347  : 	{

	push	ebp
	mov	ebp, esp
	sub	esp, 204				; 000000ccH
	push	ebx
	push	esi
	push	edi
	push	ecx
	lea	edi, DWORD PTR [ebp-204]
	mov	ecx, 51					; 00000033H
	mov	eax, -858993460				; ccccccccH
	rep stosd
	pop	ecx
	mov	DWORD PTR _this$[ebp], ecx

; 348  : 		this->root = 0;

	mov	eax, DWORD PTR _this$[ebp]
	mov	DWORD PTR [eax+4], 0

; 349  : 		this->position = 0;

	mov	eax, DWORD PTR _this$[ebp]
	mov	DWORD PTR [eax+8], 0

; 350  : 		this->list_size = 0;

	mov	eax, DWORD PTR _this$[ebp]
	mov	DWORD PTR [eax], 0

; 351  : 	}

	mov	eax, DWORD PTR _this$[ebp]
	pop	edi
	pop	esi
	pop	ebx
	mov	esp, ebp
	pop	ebp
	ret	0
??0?$CircularLinkedList@PAUInternalPacket@@@DataStructures@@QAE@XZ ENDP ; DataStructures::CircularLinkedList<InternalPacket *>::CircularLinkedList<InternalPacket *>
_TEXT	ENDS
; Function compile flags: /Odtp /RTCsu /ZI
; File z:\sampsrc\02xu1\raknet\ds_list.h
;	COMDAT ?Clear@?$List@PAUDataAndTime@ReliabilityLayer@@@DataStructures@@QAEX_N@Z
_TEXT	SEGMENT
$T1 = -212						; size = 4
_this$ = -8						; size = 4
_doNotDeallocate$ = 8					; size = 1
?Clear@?$List@PAUDataAndTime@ReliabilityLayer@@@DataStructures@@QAEX_N@Z PROC ; DataStructures::List<ReliabilityLayer::DataAndTime *>::Clear, COMDAT
; _this$ = ecx

; 379  : 	{

	push	ebp
	mov	ebp, esp
	sub	esp, 216				; 000000d8H
	push	ebx
	push	esi
	push	edi
	push	ecx
	lea	edi, DWORD PTR [ebp-216]
	mov	ecx, 54					; 00000036H
	mov	eax, -858993460				; ccccccccH
	rep stosd
	pop	ecx
	mov	DWORD PTR _this$[ebp], ecx

; 380  : 		if ( allocation_size == 0 )

	mov	eax, DWORD PTR _this$[ebp]
	cmp	DWORD PTR [eax+8], 0
	jne	SHORT $LN2@Clear

; 381  : 			return;

	jmp	SHORT $LN3@Clear
$LN2@Clear:

; 382  : 
; 383  : 		if (allocation_size>512 && doNotDeallocate==false)

	mov	eax, DWORD PTR _this$[ebp]
	cmp	DWORD PTR [eax+8], 512			; 00000200H
	jbe	SHORT $LN1@Clear
	movzx	eax, BYTE PTR _doNotDeallocate$[ebp]
	test	eax, eax
	jne	SHORT $LN1@Clear

; 384  : 		{
; 385  : 			delete [] listArray;

	mov	eax, DWORD PTR _this$[ebp]
	mov	ecx, DWORD PTR [eax]
	mov	DWORD PTR $T1[ebp], ecx
	mov	edx, DWORD PTR $T1[ebp]
	push	edx
	call	??3@YAXPAX@Z				; operator delete
	add	esp, 4

; 386  : 			allocation_size = 0;

	mov	eax, DWORD PTR _this$[ebp]
	mov	DWORD PTR [eax+8], 0

; 387  : 			listArray = 0;

	mov	eax, DWORD PTR _this$[ebp]
	mov	DWORD PTR [eax], 0
$LN1@Clear:

; 388  : 		}
; 389  : 		list_size = 0;

	mov	eax, DWORD PTR _this$[ebp]
	mov	DWORD PTR [eax+4], 0
$LN3@Clear:

; 390  : 	}

	pop	edi
	pop	esi
	pop	ebx
	add	esp, 216				; 000000d8H
	cmp	ebp, esp
	call	__RTC_CheckEsp
	mov	esp, ebp
	pop	ebp
	ret	4
?Clear@?$List@PAUDataAndTime@ReliabilityLayer@@@DataStructures@@QAEX_N@Z ENDP ; DataStructures::List<ReliabilityLayer::DataAndTime *>::Clear
_TEXT	ENDS
; Function compile flags: /Odtp /RTCsu /ZI
; File z:\sampsrc\02xu1\raknet\ds_list.h
;	COMDAT ?Size@?$List@PAUDataAndTime@ReliabilityLayer@@@DataStructures@@QBEIXZ
_TEXT	SEGMENT
_this$ = -8						; size = 4
?Size@?$List@PAUDataAndTime@ReliabilityLayer@@@DataStructures@@QBEIXZ PROC ; DataStructures::List<ReliabilityLayer::DataAndTime *>::Size, COMDAT
; _this$ = ecx

; 373  : 	{

	push	ebp
	mov	ebp, esp
	sub	esp, 204				; 000000ccH
	push	ebx
	push	esi
	push	edi
	push	ecx
	lea	edi, DWORD PTR [ebp-204]
	mov	ecx, 51					; 00000033H
	mov	eax, -858993460				; ccccccccH
	rep stosd
	pop	ecx
	mov	DWORD PTR _this$[ebp], ecx

; 374  : 		return list_size;

	mov	eax, DWORD PTR _this$[ebp]
	mov	eax, DWORD PTR [eax+4]

; 375  : 	}

	pop	edi
	pop	esi
	pop	ebx
	mov	esp, ebp
	pop	ebp
	ret	0
?Size@?$List@PAUDataAndTime@ReliabilityLayer@@@DataStructures@@QBEIXZ ENDP ; DataStructures::List<ReliabilityLayer::DataAndTime *>::Size
_TEXT	ENDS
; Function compile flags: /Odtp /RTCsu /ZI
; File z:\sampsrc\02xu1\raknet\ds_list.h
;	COMDAT ?Del@?$List@PAUDataAndTime@ReliabilityLayer@@@DataStructures@@QAEXI@Z
_TEXT	SEGMENT
_this$ = -8						; size = 4
_num$ = 8						; size = 4
?Del@?$List@PAUDataAndTime@ReliabilityLayer@@@DataStructures@@QAEXI@Z PROC ; DataStructures::List<ReliabilityLayer::DataAndTime *>::Del, COMDAT
; _this$ = ecx

; 353  : 	{

	push	ebp
	mov	ebp, esp
	sub	esp, 204				; 000000ccH
	push	ebx
	push	esi
	push	edi
	push	ecx
	lea	edi, DWORD PTR [ebp-204]
	mov	ecx, 51					; 00000033H
	mov	eax, -858993460				; ccccccccH
	rep stosd
	pop	ecx
	mov	DWORD PTR _this$[ebp], ecx

; 354  : 		// Delete the last elements on the list.  No compression needed
; 355  : #ifdef _DEBUG
; 356  : 		assert(list_size>=num);

	mov	eax, DWORD PTR _this$[ebp]
	mov	ecx, DWORD PTR [eax+4]
	cmp	ecx, DWORD PTR _num$[ebp]
	jae	SHORT $LN3@Del
	push	356					; 00000164H
	push	OFFSET ??_C@_1EE@MBOIAKFO@?$AAz?$AA?3?$AA?2?$AAs?$AAa?$AAm?$AAp?$AAs?$AAr?$AAc?$AA?2?$AA0?$AA2?$AAx?$AAu?$AA1?$AA?2?$AAr?$AAa?$AAk?$AAn?$AAe?$AAt?$AA?2?$AAd?$AAs?$AA_?$AAl?$AAi?$AAs?$AAt?$AA?4@
	push	OFFSET ??_C@_1BO@JBFMBKMD@?$AAl?$AAi?$AAs?$AAt?$AA_?$AAs?$AAi?$AAz?$AAe?$AA?$DO?$AA?$DN?$AAn?$AAu?$AAm?$AA?$AA@
	call	__wassert
	add	esp, 12					; 0000000cH
$LN3@Del:

; 357  : #endif
; 358  : 		list_size-=num;

	mov	eax, DWORD PTR _this$[ebp]
	mov	ecx, DWORD PTR [eax+4]
	sub	ecx, DWORD PTR _num$[ebp]
	mov	edx, DWORD PTR _this$[ebp]
	mov	DWORD PTR [edx+4], ecx

; 359  : 	}

	pop	edi
	pop	esi
	pop	ebx
	add	esp, 204				; 000000ccH
	cmp	ebp, esp
	call	__RTC_CheckEsp
	mov	esp, ebp
	pop	ebp
	ret	4
?Del@?$List@PAUDataAndTime@ReliabilityLayer@@@DataStructures@@QAEXI@Z ENDP ; DataStructures::List<ReliabilityLayer::DataAndTime *>::Del
_TEXT	ENDS
; Function compile flags: /Odtp /RTCsu /ZI
; File z:\sampsrc\02xu1\raknet\ds_list.h
;	COMDAT ?Insert@?$List@PAUDataAndTime@ReliabilityLayer@@@DataStructures@@QAEXQAUDataAndTime@ReliabilityLayer@@@Z
_TEXT	SEGMENT
$T1 = -236						; size = 4
$T2 = -224						; size = 4
_new_array$3 = -20					; size = 4
_this$ = -8						; size = 4
_input$ = 8						; size = 4
?Insert@?$List@PAUDataAndTime@ReliabilityLayer@@@DataStructures@@QAEXQAUDataAndTime@ReliabilityLayer@@@Z PROC ; DataStructures::List<ReliabilityLayer::DataAndTime *>::Insert, COMDAT
; _this$ = ecx

; 242  : 	{

	push	ebp
	mov	ebp, esp
	sub	esp, 240				; 000000f0H
	push	ebx
	push	esi
	push	edi
	push	ecx
	lea	edi, DWORD PTR [ebp-240]
	mov	ecx, 60					; 0000003cH
	mov	eax, -858993460				; ccccccccH
	rep stosd
	pop	ecx
	mov	DWORD PTR _this$[ebp], ecx

; 243  : 		// Reallocate list if necessary
; 244  : 
; 245  : 		if ( list_size == allocation_size )

	mov	eax, DWORD PTR _this$[ebp]
	mov	ecx, DWORD PTR _this$[ebp]
	mov	edx, DWORD PTR [eax+4]
	cmp	edx, DWORD PTR [ecx+8]
	jne	$LN3@Insert

; 246  : 		{
; 247  : 			// allocate twice the currently allocated memory
; 248  : 			list_type * new_array;
; 249  : 
; 250  : 			if ( allocation_size == 0 )

	mov	eax, DWORD PTR _this$[ebp]
	cmp	DWORD PTR [eax+8], 0
	jne	SHORT $LN2@Insert

; 251  : 				allocation_size = 16;

	mov	eax, DWORD PTR _this$[ebp]
	mov	DWORD PTR [eax+8], 16			; 00000010H

; 252  : 			else

	jmp	SHORT $LN1@Insert
$LN2@Insert:

; 253  : 				allocation_size *= 2;

	mov	eax, DWORD PTR _this$[ebp]
	mov	ecx, DWORD PTR [eax+8]
	shl	ecx, 1
	mov	edx, DWORD PTR _this$[ebp]
	mov	DWORD PTR [edx+8], ecx
$LN1@Insert:

; 254  : 
; 255  : 			new_array = new list_type [ allocation_size ];

	xor	ecx, ecx
	mov	edx, DWORD PTR _this$[ebp]
	mov	eax, DWORD PTR [edx+8]
	mov	edx, 4
	mul	edx
	seto	cl
	neg	ecx
	or	ecx, eax
	push	ecx
	call	??2@YAPAXI@Z				; operator new
	add	esp, 4
	mov	DWORD PTR $T1[ebp], eax
	mov	eax, DWORD PTR $T1[ebp]
	mov	DWORD PTR _new_array$3[ebp], eax

; 256  : 
; 257  : 			// copy old array over
; 258  : 			//	for ( unsigned int counter = 0; counter < list_size; ++counter )
; 259  : 			//		new_array[ counter ] = listArray[ counter ];
; 260  : 
; 261  : 			// Don't call constructors, assignment operators, etc.
; 262  : 			memcpy(new_array, listArray, list_size*sizeof(list_type));

	mov	eax, DWORD PTR _this$[ebp]
	mov	ecx, DWORD PTR [eax+4]
	shl	ecx, 2
	push	ecx
	mov	edx, DWORD PTR _this$[ebp]
	mov	eax, DWORD PTR [edx]
	push	eax
	mov	ecx, DWORD PTR _new_array$3[ebp]
	push	ecx
	call	_memcpy
	add	esp, 12					; 0000000cH

; 263  : 
; 264  : 			// set old array to point to the newly allocated and twice as large array
; 265  : 			delete[] listArray;

	mov	eax, DWORD PTR _this$[ebp]
	mov	ecx, DWORD PTR [eax]
	mov	DWORD PTR $T2[ebp], ecx
	mov	edx, DWORD PTR $T2[ebp]
	push	edx
	call	??3@YAXPAX@Z				; operator delete
	add	esp, 4

; 266  : 
; 267  : 			listArray = new_array;

	mov	eax, DWORD PTR _this$[ebp]
	mov	ecx, DWORD PTR _new_array$3[ebp]
	mov	DWORD PTR [eax], ecx
$LN3@Insert:

; 268  : 		}
; 269  : 
; 270  : 		// Insert the new item at the correct spot
; 271  : 		listArray[ list_size ] = input;

	mov	eax, DWORD PTR _this$[ebp]
	mov	ecx, DWORD PTR [eax+4]
	mov	edx, DWORD PTR _this$[ebp]
	mov	eax, DWORD PTR [edx]
	mov	edx, DWORD PTR _input$[ebp]
	mov	DWORD PTR [eax+ecx*4], edx

; 272  : 
; 273  : 		++list_size;

	mov	eax, DWORD PTR _this$[ebp]
	mov	ecx, DWORD PTR [eax+4]
	add	ecx, 1
	mov	edx, DWORD PTR _this$[ebp]
	mov	DWORD PTR [edx+4], ecx

; 274  : 	}

	pop	edi
	pop	esi
	pop	ebx
	add	esp, 240				; 000000f0H
	cmp	ebp, esp
	call	__RTC_CheckEsp
	mov	esp, ebp
	pop	ebp
	ret	4
?Insert@?$List@PAUDataAndTime@ReliabilityLayer@@@DataStructures@@QAEXQAUDataAndTime@ReliabilityLayer@@@Z ENDP ; DataStructures::List<ReliabilityLayer::DataAndTime *>::Insert
_TEXT	ENDS
; Function compile flags: /Odtp /RTCsu /ZI
; File z:\sampsrc\02xu1\raknet\ds_list.h
;	COMDAT ??A?$List@PAUDataAndTime@ReliabilityLayer@@@DataStructures@@QBEAAPAUDataAndTime@ReliabilityLayer@@I@Z
_TEXT	SEGMENT
_this$ = -8						; size = 4
_position$ = 8						; size = 4
??A?$List@PAUDataAndTime@ReliabilityLayer@@@DataStructures@@QBEAAPAUDataAndTime@ReliabilityLayer@@I@Z PROC ; DataStructures::List<ReliabilityLayer::DataAndTime *>::operator[], COMDAT
; _this$ = ecx

; 185  : 	{

	push	ebp
	mov	ebp, esp
	sub	esp, 204				; 000000ccH
	push	ebx
	push	esi
	push	edi
	push	ecx
	lea	edi, DWORD PTR [ebp-204]
	mov	ecx, 51					; 00000033H
	mov	eax, -858993460				; ccccccccH
	rep stosd
	pop	ecx
	mov	DWORD PTR _this$[ebp], ecx

; 186  : #ifdef _DEBUG
; 187  : 		assert ( position < list_size );

	mov	eax, DWORD PTR _this$[ebp]
	mov	ecx, DWORD PTR _position$[ebp]
	cmp	ecx, DWORD PTR [eax+4]
	jb	SHORT $LN3@operator
	push	187					; 000000bbH
	push	OFFSET ??_C@_1EE@MBOIAKFO@?$AAz?$AA?3?$AA?2?$AAs?$AAa?$AAm?$AAp?$AAs?$AAr?$AAc?$AA?2?$AA0?$AA2?$AAx?$AAu?$AA1?$AA?2?$AAr?$AAa?$AAk?$AAn?$AAe?$AAt?$AA?2?$AAd?$AAs?$AA_?$AAl?$AAi?$AAs?$AAt?$AA?4@
	push	OFFSET ??_C@_1CK@HINNGFPG@?$AAp?$AAo?$AAs?$AAi?$AAt?$AAi?$AAo?$AAn?$AA?5?$AA?$DM?$AA?5?$AAl?$AAi?$AAs?$AAt?$AA_?$AAs?$AAi?$AAz?$AAe?$AA?$AA@
	call	__wassert
	add	esp, 12					; 0000000cH
$LN3@operator:

; 188  : #endif
; 189  : 		return listArray[ position ];

	mov	eax, DWORD PTR _this$[ebp]
	mov	ecx, DWORD PTR [eax]
	mov	edx, DWORD PTR _position$[ebp]
	lea	eax, DWORD PTR [ecx+edx*4]

; 190  : 	}

	pop	edi
	pop	esi
	pop	ebx
	add	esp, 204				; 000000ccH
	cmp	ebp, esp
	call	__RTC_CheckEsp
	mov	esp, ebp
	pop	ebp
	ret	4
??A?$List@PAUDataAndTime@ReliabilityLayer@@@DataStructures@@QBEAAPAUDataAndTime@ReliabilityLayer@@I@Z ENDP ; DataStructures::List<ReliabilityLayer::DataAndTime *>::operator[]
_TEXT	ENDS
; Function compile flags: /Odtp /RTCsu /ZI
; File z:\sampsrc\02xu1\raknet\ds_list.h
;	COMDAT ??1?$List@PAUDataAndTime@ReliabilityLayer@@@DataStructures@@QAE@XZ
_TEXT	SEGMENT
$T1 = -212						; size = 4
_this$ = -8						; size = 4
??1?$List@PAUDataAndTime@ReliabilityLayer@@@DataStructures@@QAE@XZ PROC ; DataStructures::List<ReliabilityLayer::DataAndTime *>::~List<ReliabilityLayer::DataAndTime *>, COMDAT
; _this$ = ecx

; 121  : 	{

	push	ebp
	mov	ebp, esp
	sub	esp, 216				; 000000d8H
	push	ebx
	push	esi
	push	edi
	push	ecx
	lea	edi, DWORD PTR [ebp-216]
	mov	ecx, 54					; 00000036H
	mov	eax, -858993460				; ccccccccH
	rep stosd
	pop	ecx
	mov	DWORD PTR _this$[ebp], ecx

; 122  : 		if (allocation_size>0)

	mov	eax, DWORD PTR _this$[ebp]
	cmp	DWORD PTR [eax+8], 0
	jbe	SHORT $LN2@List

; 123  : 			delete [] listArray;

	mov	eax, DWORD PTR _this$[ebp]
	mov	ecx, DWORD PTR [eax]
	mov	DWORD PTR $T1[ebp], ecx
	mov	edx, DWORD PTR $T1[ebp]
	push	edx
	call	??3@YAXPAX@Z				; operator delete
	add	esp, 4
$LN2@List:

; 124  : 	}

	pop	edi
	pop	esi
	pop	ebx
	add	esp, 216				; 000000d8H
	cmp	ebp, esp
	call	__RTC_CheckEsp
	mov	esp, ebp
	pop	ebp
	ret	0
??1?$List@PAUDataAndTime@ReliabilityLayer@@@DataStructures@@QAE@XZ ENDP ; DataStructures::List<ReliabilityLayer::DataAndTime *>::~List<ReliabilityLayer::DataAndTime *>
_TEXT	ENDS
; Function compile flags: /Odtp /RTCsu /ZI
; File z:\sampsrc\02xu1\raknet\ds_list.h
;	COMDAT ??0?$List@PAUDataAndTime@ReliabilityLayer@@@DataStructures@@QAE@XZ
_TEXT	SEGMENT
_this$ = -8						; size = 4
??0?$List@PAUDataAndTime@ReliabilityLayer@@@DataStructures@@QAE@XZ PROC ; DataStructures::List<ReliabilityLayer::DataAndTime *>::List<ReliabilityLayer::DataAndTime *>, COMDAT
; _this$ = ecx

; 113  : 	{

	push	ebp
	mov	ebp, esp
	sub	esp, 204				; 000000ccH
	push	ebx
	push	esi
	push	edi
	push	ecx
	lea	edi, DWORD PTR [ebp-204]
	mov	ecx, 51					; 00000033H
	mov	eax, -858993460				; ccccccccH
	rep stosd
	pop	ecx
	mov	DWORD PTR _this$[ebp], ecx

; 114  : 		allocation_size = 0;

	mov	eax, DWORD PTR _this$[ebp]
	mov	DWORD PTR [eax+8], 0

; 115  : 		listArray = 0;

	mov	eax, DWORD PTR _this$[ebp]
	mov	DWORD PTR [eax], 0

; 116  : 		list_size = 0;

	mov	eax, DWORD PTR _this$[ebp]
	mov	DWORD PTR [eax+4], 0

; 117  : 	}

	mov	eax, DWORD PTR _this$[ebp]
	pop	edi
	pop	esi
	pop	ebx
	mov	esp, ebp
	pop	ebp
	ret	0
??0?$List@PAUDataAndTime@ReliabilityLayer@@@DataStructures@@QAE@XZ ENDP ; DataStructures::List<ReliabilityLayer::DataAndTime *>::List<ReliabilityLayer::DataAndTime *>
_TEXT	ENDS
; Function compile flags: /Odtp /RTCsu /ZI
; File z:\sampsrc\02xu1\raknet\ds_queue.h
;	COMDAT ?ClearAndForceAllocation@?$Queue@_J@DataStructures@@QAEXH@Z
_TEXT	SEGMENT
$T1 = -224						; size = 4
$T2 = -212						; size = 4
_this$ = -8						; size = 4
_size$ = 8						; size = 4
?ClearAndForceAllocation@?$Queue@_J@DataStructures@@QAEXH@Z PROC ; DataStructures::Queue<__int64>::ClearAndForceAllocation, COMDAT
; _this$ = ecx

; 346  : 	{

	push	ebp
	mov	ebp, esp
	sub	esp, 228				; 000000e4H
	push	ebx
	push	esi
	push	edi
	push	ecx
	lea	edi, DWORD PTR [ebp-228]
	mov	ecx, 57					; 00000039H
	mov	eax, -858993460				; ccccccccH
	rep stosd
	pop	ecx
	mov	DWORD PTR _this$[ebp], ecx

; 347  : 		delete [] array;

	mov	eax, DWORD PTR _this$[ebp]
	mov	ecx, DWORD PTR [eax]
	mov	DWORD PTR $T1[ebp], ecx
	mov	edx, DWORD PTR $T1[ebp]
	push	edx
	call	??3@YAXPAX@Z				; operator delete
	add	esp, 4

; 348  : 		array = new queue_type[ size ];

	xor	ecx, ecx
	mov	eax, DWORD PTR _size$[ebp]
	mov	edx, 8
	mul	edx
	seto	cl
	neg	ecx
	or	ecx, eax
	push	ecx
	call	??2@YAPAXI@Z				; operator new
	add	esp, 4
	mov	DWORD PTR $T2[ebp], eax
	mov	eax, DWORD PTR _this$[ebp]
	mov	ecx, DWORD PTR $T2[ebp]
	mov	DWORD PTR [eax], ecx

; 349  : 		allocation_size = size;

	mov	eax, DWORD PTR _this$[ebp]
	mov	ecx, DWORD PTR _size$[ebp]
	mov	DWORD PTR [eax+12], ecx

; 350  : 		head = 0;

	mov	eax, DWORD PTR _this$[ebp]
	mov	DWORD PTR [eax+4], 0

; 351  : 		tail = 0;

	mov	eax, DWORD PTR _this$[ebp]
	mov	DWORD PTR [eax+8], 0

; 352  : 	}

	pop	edi
	pop	esi
	pop	ebx
	add	esp, 228				; 000000e4H
	cmp	ebp, esp
	call	__RTC_CheckEsp
	mov	esp, ebp
	pop	ebp
	ret	4
?ClearAndForceAllocation@?$Queue@_J@DataStructures@@QAEXH@Z ENDP ; DataStructures::Queue<__int64>::ClearAndForceAllocation
_TEXT	ENDS
; Function compile flags: /Odtp /RTCsu /ZI
; File z:\sampsrc\02xu1\raknet\ds_queue.h
;	COMDAT ?Compress@?$Queue@_J@DataStructures@@QAEXXZ
_TEXT	SEGMENT
$T1 = -260						; size = 4
$T2 = -248						; size = 4
_counter$3 = -44					; size = 4
_newAllocationSize$ = -32				; size = 4
_new_array$ = -20					; size = 4
_this$ = -8						; size = 4
?Compress@?$Queue@_J@DataStructures@@QAEXXZ PROC	; DataStructures::Queue<__int64>::Compress, COMDAT
; _this$ = ecx

; 301  : 	{

	push	ebp
	mov	ebp, esp
	sub	esp, 264				; 00000108H
	push	ebx
	push	esi
	push	edi
	push	ecx
	lea	edi, DWORD PTR [ebp-264]
	mov	ecx, 66					; 00000042H
	mov	eax, -858993460				; ccccccccH
	rep stosd
	pop	ecx
	mov	DWORD PTR _this$[ebp], ecx

; 302  : 		queue_type* new_array;
; 303  : 		unsigned int newAllocationSize;
; 304  : 		if (allocation_size==0)

	mov	eax, DWORD PTR _this$[ebp]
	cmp	DWORD PTR [eax+12], 0
	jne	SHORT $LN6@Compress

; 305  : 			return;

	jmp	$LN7@Compress
$LN6@Compress:

; 306  : 
; 307  : 		newAllocationSize=1;

	mov	DWORD PTR _newAllocationSize$[ebp], 1
$LN5@Compress:

; 308  : 		while (newAllocationSize <= Size())

	mov	ecx, DWORD PTR _this$[ebp]
	call	?Size@?$Queue@_J@DataStructures@@QBEIXZ	; DataStructures::Queue<__int64>::Size
	cmp	DWORD PTR _newAllocationSize$[ebp], eax
	ja	SHORT $LN4@Compress

; 309  : 			newAllocationSize<<=1; // Must be a better way to do this but I'm too dumb to figure it out quickly :)

	mov	eax, DWORD PTR _newAllocationSize$[ebp]
	shl	eax, 1
	mov	DWORD PTR _newAllocationSize$[ebp], eax
	jmp	SHORT $LN5@Compress
$LN4@Compress:

; 310  : 
; 311  : 		new_array = new queue_type [newAllocationSize];

	xor	ecx, ecx
	mov	eax, DWORD PTR _newAllocationSize$[ebp]
	mov	edx, 8
	mul	edx
	seto	cl
	neg	ecx
	or	ecx, eax
	push	ecx
	call	??2@YAPAXI@Z				; operator new
	add	esp, 4
	mov	DWORD PTR $T1[ebp], eax
	mov	eax, DWORD PTR $T1[ebp]
	mov	DWORD PTR _new_array$[ebp], eax

; 312  : 
; 313  : 		for (unsigned int counter=0; counter < Size(); ++counter)

	mov	DWORD PTR _counter$3[ebp], 0
	jmp	SHORT $LN3@Compress
$LN2@Compress:
	mov	eax, DWORD PTR _counter$3[ebp]
	add	eax, 1
	mov	DWORD PTR _counter$3[ebp], eax
$LN3@Compress:
	mov	ecx, DWORD PTR _this$[ebp]
	call	?Size@?$Queue@_J@DataStructures@@QBEIXZ	; DataStructures::Queue<__int64>::Size
	cmp	DWORD PTR _counter$3[ebp], eax
	jae	SHORT $LN1@Compress

; 314  : 			new_array[counter] = array[(head + counter)%(allocation_size)];

	mov	eax, DWORD PTR _this$[ebp]
	mov	eax, DWORD PTR [eax+4]
	add	eax, DWORD PTR _counter$3[ebp]
	mov	ecx, DWORD PTR _this$[ebp]
	xor	edx, edx
	div	DWORD PTR [ecx+12]
	mov	eax, DWORD PTR _this$[ebp]
	mov	ecx, DWORD PTR [eax]
	mov	eax, DWORD PTR _counter$3[ebp]
	mov	esi, DWORD PTR _new_array$[ebp]
	mov	edi, DWORD PTR [ecx+edx*8]
	mov	DWORD PTR [esi+eax*8], edi
	mov	ecx, DWORD PTR [ecx+edx*8+4]
	mov	DWORD PTR [esi+eax*8+4], ecx
	jmp	SHORT $LN2@Compress
$LN1@Compress:

; 315  : 
; 316  : 		tail=Size();

	mov	ecx, DWORD PTR _this$[ebp]
	call	?Size@?$Queue@_J@DataStructures@@QBEIXZ	; DataStructures::Queue<__int64>::Size
	mov	ecx, DWORD PTR _this$[ebp]
	mov	DWORD PTR [ecx+8], eax

; 317  : 		allocation_size=newAllocationSize;

	mov	eax, DWORD PTR _this$[ebp]
	mov	ecx, DWORD PTR _newAllocationSize$[ebp]
	mov	DWORD PTR [eax+12], ecx

; 318  : 		head=0;

	mov	eax, DWORD PTR _this$[ebp]
	mov	DWORD PTR [eax+4], 0

; 319  : 
; 320  : 		// Delete the old array and move the pointer to the new array
; 321  : 		delete [] array;

	mov	eax, DWORD PTR _this$[ebp]
	mov	ecx, DWORD PTR [eax]
	mov	DWORD PTR $T2[ebp], ecx
	mov	edx, DWORD PTR $T2[ebp]
	push	edx
	call	??3@YAXPAX@Z				; operator delete
	add	esp, 4

; 322  : 		array=new_array;

	mov	eax, DWORD PTR _this$[ebp]
	mov	ecx, DWORD PTR _new_array$[ebp]
	mov	DWORD PTR [eax], ecx
$LN7@Compress:

; 323  : 	}

	pop	edi
	pop	esi
	pop	ebx
	add	esp, 264				; 00000108H
	cmp	ebp, esp
	call	__RTC_CheckEsp
	mov	esp, ebp
	pop	ebp
	ret	0
?Compress@?$Queue@_J@DataStructures@@QAEXXZ ENDP	; DataStructures::Queue<__int64>::Compress
_TEXT	ENDS
; Function compile flags: /Odtp /RTCsu /ZI
; File z:\sampsrc\02xu1\raknet\ds_queue.h
;	COMDAT ?AllocationSize@?$Queue@_J@DataStructures@@QBEIXZ
_TEXT	SEGMENT
_this$ = -8						; size = 4
?AllocationSize@?$Queue@_J@DataStructures@@QBEIXZ PROC	; DataStructures::Queue<__int64>::AllocationSize, COMDAT
; _this$ = ecx

; 77   : 	{

	push	ebp
	mov	ebp, esp
	sub	esp, 204				; 000000ccH
	push	ebx
	push	esi
	push	edi
	push	ecx
	lea	edi, DWORD PTR [ebp-204]
	mov	ecx, 51					; 00000033H
	mov	eax, -858993460				; ccccccccH
	rep stosd
	pop	ecx
	mov	DWORD PTR _this$[ebp], ecx

; 78   : 		return allocation_size;

	mov	eax, DWORD PTR _this$[ebp]
	mov	eax, DWORD PTR [eax+12]

; 79   : 	}

	pop	edi
	pop	esi
	pop	ebx
	mov	esp, ebp
	pop	ebp
	ret	0
?AllocationSize@?$Queue@_J@DataStructures@@QBEIXZ ENDP	; DataStructures::Queue<__int64>::AllocationSize
_TEXT	ENDS
; Function compile flags: /Odtp /RTCsu /ZI
; File z:\sampsrc\02xu1\raknet\ds_queue.h
;	COMDAT ?Size@?$Queue@_J@DataStructures@@QBEIXZ
_TEXT	SEGMENT
_this$ = -8						; size = 4
?Size@?$Queue@_J@DataStructures@@QBEIXZ PROC		; DataStructures::Queue<__int64>::Size, COMDAT
; _this$ = ecx

; 62   : 	{

	push	ebp
	mov	ebp, esp
	sub	esp, 204				; 000000ccH
	push	ebx
	push	esi
	push	edi
	push	ecx
	lea	edi, DWORD PTR [ebp-204]
	mov	ecx, 51					; 00000033H
	mov	eax, -858993460				; ccccccccH
	rep stosd
	pop	ecx
	mov	DWORD PTR _this$[ebp], ecx

; 63   : 		if ( head <= tail )

	mov	eax, DWORD PTR _this$[ebp]
	mov	ecx, DWORD PTR _this$[ebp]
	mov	edx, DWORD PTR [eax+4]
	cmp	edx, DWORD PTR [ecx+8]
	ja	SHORT $LN2@Size

; 64   : 			return tail -head;

	mov	eax, DWORD PTR _this$[ebp]
	mov	ecx, DWORD PTR _this$[ebp]
	mov	eax, DWORD PTR [eax+8]
	sub	eax, DWORD PTR [ecx+4]
	jmp	SHORT $LN3@Size

; 65   : 		else

	jmp	SHORT $LN3@Size
$LN2@Size:

; 66   : 			return allocation_size -head + tail;

	mov	eax, DWORD PTR _this$[ebp]
	mov	ecx, DWORD PTR _this$[ebp]
	mov	eax, DWORD PTR [eax+12]
	sub	eax, DWORD PTR [ecx+4]
	mov	edx, DWORD PTR _this$[ebp]
	add	eax, DWORD PTR [edx+8]
$LN3@Size:

; 67   : 	}

	pop	edi
	pop	esi
	pop	ebx
	mov	esp, ebp
	pop	ebp
	ret	0
?Size@?$Queue@_J@DataStructures@@QBEIXZ ENDP		; DataStructures::Queue<__int64>::Size
_TEXT	ENDS
; Function compile flags: /Odtp /RTCsu /ZI
; File z:\sampsrc\02xu1\raknet\ds_queue.h
;	COMDAT ?Pop@?$Queue@_J@DataStructures@@QAE_JXZ
_TEXT	SEGMENT
tv78 = -208						; size = 4
_this$ = -8						; size = 4
?Pop@?$Queue@_J@DataStructures@@QAE_JXZ PROC		; DataStructures::Queue<__int64>::Pop, COMDAT
; _this$ = ecx

; 99   : 	{

	push	ebp
	mov	ebp, esp
	sub	esp, 208				; 000000d0H
	push	ebx
	push	esi
	push	edi
	push	ecx
	lea	edi, DWORD PTR [ebp-208]
	mov	ecx, 52					; 00000034H
	mov	eax, -858993460				; ccccccccH
	rep stosd
	pop	ecx
	mov	DWORD PTR _this$[ebp], ecx

; 100  : #ifdef _DEBUG
; 101  : 		assert( allocation_size > 0 && Size() >= 0 && head != tail);

	mov	eax, DWORD PTR _this$[ebp]
	cmp	DWORD PTR [eax+12], 0
	jbe	SHORT $LN5@Pop
	mov	ecx, DWORD PTR _this$[ebp]
	call	?Size@?$Queue@_J@DataStructures@@QBEIXZ	; DataStructures::Queue<__int64>::Size
	test	eax, eax
	jb	SHORT $LN5@Pop
	mov	ecx, DWORD PTR _this$[ebp]
	mov	edx, DWORD PTR _this$[ebp]
	mov	eax, DWORD PTR [ecx+4]
	cmp	eax, DWORD PTR [edx+8]
	jne	SHORT $LN6@Pop
$LN5@Pop:
	push	101					; 00000065H
	push	OFFSET ??_C@_1EG@DIEEECKO@?$AAz?$AA?3?$AA?2?$AAs?$AAa?$AAm?$AAp?$AAs?$AAr?$AAc?$AA?2?$AA0?$AA2?$AAx?$AAu?$AA1?$AA?2?$AAr?$AAa?$AAk?$AAn?$AAe?$AAt?$AA?2?$AAd?$AAs?$AA_?$AAq?$AAu?$AAe?$AAu?$AAe@
	push	OFFSET ??_C@_1GG@JDEIIJCO@?$AAa?$AAl?$AAl?$AAo?$AAc?$AAa?$AAt?$AAi?$AAo?$AAn?$AA_?$AAs?$AAi?$AAz?$AAe?$AA?5?$AA?$DO?$AA?5?$AA0?$AA?5?$AA?$CG?$AA?$CG?$AA?5?$AAS?$AAi?$AAz?$AAe?$AA?$CI?$AA?$CJ?$AA?5?$AA?$DO?$AA?$DN@
	call	__wassert
	add	esp, 12					; 0000000cH
$LN6@Pop:

; 102  : #endif
; 103  : 		//head=(head+1) % allocation_size;
; 104  : 
; 105  : 		if ( ++head == allocation_size )

	mov	eax, DWORD PTR _this$[ebp]
	mov	ecx, DWORD PTR [eax+4]
	add	ecx, 1
	mov	DWORD PTR tv78[ebp], ecx
	mov	edx, DWORD PTR _this$[ebp]
	mov	eax, DWORD PTR tv78[ebp]
	mov	DWORD PTR [edx+4], eax
	mov	ecx, DWORD PTR _this$[ebp]
	mov	edx, DWORD PTR tv78[ebp]
	cmp	edx, DWORD PTR [ecx+12]
	jne	SHORT $LN2@Pop

; 106  : 			head = 0;

	mov	eax, DWORD PTR _this$[ebp]
	mov	DWORD PTR [eax+4], 0
$LN2@Pop:

; 107  : 
; 108  : 		if ( head == 0 )

	mov	eax, DWORD PTR _this$[ebp]
	cmp	DWORD PTR [eax+4], 0
	jne	SHORT $LN1@Pop

; 109  : 			return ( queue_type ) array[ allocation_size -1 ];

	mov	eax, DWORD PTR _this$[ebp]
	mov	ecx, DWORD PTR [eax+12]
	mov	edx, DWORD PTR _this$[ebp]
	mov	edx, DWORD PTR [edx]
	mov	eax, DWORD PTR [edx+ecx*8-8]
	mov	edx, DWORD PTR [edx+ecx*8-4]
	jmp	SHORT $LN3@Pop
$LN1@Pop:

; 110  : 
; 111  : 		return ( queue_type ) array[ head -1 ];

	mov	eax, DWORD PTR _this$[ebp]
	mov	ecx, DWORD PTR [eax+4]
	mov	edx, DWORD PTR _this$[ebp]
	mov	edx, DWORD PTR [edx]
	mov	eax, DWORD PTR [edx+ecx*8-8]
	mov	edx, DWORD PTR [edx+ecx*8-4]
$LN3@Pop:

; 112  : 	}

	pop	edi
	pop	esi
	pop	ebx
	add	esp, 208				; 000000d0H
	cmp	ebp, esp
	call	__RTC_CheckEsp
	mov	esp, ebp
	pop	ebp
	ret	0
?Pop@?$Queue@_J@DataStructures@@QAE_JXZ ENDP		; DataStructures::Queue<__int64>::Pop
_TEXT	ENDS
; Function compile flags: /Odtp /RTCsu /ZI
; File z:\sampsrc\02xu1\raknet\ds_queue.h
;	COMDAT ?Peek@?$Queue@_J@DataStructures@@QBE_JXZ
_TEXT	SEGMENT
_this$ = -8						; size = 4
?Peek@?$Queue@_J@DataStructures@@QBE_JXZ PROC		; DataStructures::Queue<__int64>::Peek, COMDAT
; _this$ = ecx

; 171  : 	{

	push	ebp
	mov	ebp, esp
	sub	esp, 204				; 000000ccH
	push	ebx
	push	esi
	push	edi
	push	ecx
	lea	edi, DWORD PTR [ebp-204]
	mov	ecx, 51					; 00000033H
	mov	eax, -858993460				; ccccccccH
	rep stosd
	pop	ecx
	mov	DWORD PTR _this$[ebp], ecx

; 172  : #ifdef _DEBUG
; 173  : 		assert( head != tail );

	mov	eax, DWORD PTR _this$[ebp]
	mov	ecx, DWORD PTR _this$[ebp]
	mov	edx, DWORD PTR [eax+4]
	cmp	edx, DWORD PTR [ecx+8]
	jne	SHORT $LN3@Peek
	push	173					; 000000adH
	push	OFFSET ??_C@_1EG@DIEEECKO@?$AAz?$AA?3?$AA?2?$AAs?$AAa?$AAm?$AAp?$AAs?$AAr?$AAc?$AA?2?$AA0?$AA2?$AAx?$AAu?$AA1?$AA?2?$AAr?$AAa?$AAk?$AAn?$AAe?$AAt?$AA?2?$AAd?$AAs?$AA_?$AAq?$AAu?$AAe?$AAu?$AAe@
	push	OFFSET ??_C@_1BK@BHOIKEPB@?$AAh?$AAe?$AAa?$AAd?$AA?5?$AA?$CB?$AA?$DN?$AA?5?$AAt?$AAa?$AAi?$AAl?$AA?$AA@
	call	__wassert
	add	esp, 12					; 0000000cH
$LN3@Peek:

; 174  : 		assert( allocation_size > 0 && Size() >= 0 );

	mov	eax, DWORD PTR _this$[ebp]
	cmp	DWORD PTR [eax+12], 0
	jbe	SHORT $LN4@Peek
	mov	ecx, DWORD PTR _this$[ebp]
	call	?Size@?$Queue@_J@DataStructures@@QBEIXZ	; DataStructures::Queue<__int64>::Size
	test	eax, eax
	jae	SHORT $LN5@Peek
$LN4@Peek:
	push	174					; 000000aeH
	push	OFFSET ??_C@_1EG@DIEEECKO@?$AAz?$AA?3?$AA?2?$AAs?$AAa?$AAm?$AAp?$AAs?$AAr?$AAc?$AA?2?$AA0?$AA2?$AAx?$AAu?$AA1?$AA?2?$AAr?$AAa?$AAk?$AAn?$AAe?$AAt?$AA?2?$AAd?$AAs?$AA_?$AAq?$AAu?$AAe?$AAu?$AAe@
	push	OFFSET ??_C@_1EG@MGMFGCAG@?$AAa?$AAl?$AAl?$AAo?$AAc?$AAa?$AAt?$AAi?$AAo?$AAn?$AA_?$AAs?$AAi?$AAz?$AAe?$AA?5?$AA?$DO?$AA?5?$AA0?$AA?5?$AA?$CG?$AA?$CG?$AA?5?$AAS?$AAi?$AAz?$AAe?$AA?$CI?$AA?$CJ?$AA?5?$AA?$DO?$AA?$DN@
	call	__wassert
	add	esp, 12					; 0000000cH
$LN5@Peek:

; 175  : #endif
; 176  : 
; 177  : 		return ( queue_type ) array[ head ];

	mov	eax, DWORD PTR _this$[ebp]
	mov	ecx, DWORD PTR [eax+4]
	mov	edx, DWORD PTR _this$[ebp]
	mov	edx, DWORD PTR [edx]
	mov	eax, DWORD PTR [edx+ecx*8]
	mov	edx, DWORD PTR [edx+ecx*8+4]

; 178  : 	}

	pop	edi
	pop	esi
	pop	ebx
	add	esp, 204				; 000000ccH
	cmp	ebp, esp
	call	__RTC_CheckEsp
	mov	esp, ebp
	pop	ebp
	ret	0
?Peek@?$Queue@_J@DataStructures@@QBE_JXZ ENDP		; DataStructures::Queue<__int64>::Peek
_TEXT	ENDS
; Function compile flags: /Odtp /RTCsu /ZI
; File z:\sampsrc\02xu1\raknet\ds_queue.h
;	COMDAT ??A?$Queue@_J@DataStructures@@QBEAA_JI@Z
_TEXT	SEGMENT
_this$ = -8						; size = 4
_position$ = 8						; size = 4
??A?$Queue@_J@DataStructures@@QBEAA_JI@Z PROC		; DataStructures::Queue<__int64>::operator[], COMDAT
; _this$ = ecx

; 356  : 	{

	push	ebp
	mov	ebp, esp
	sub	esp, 204				; 000000ccH
	push	ebx
	push	esi
	push	edi
	push	ecx
	lea	edi, DWORD PTR [ebp-204]
	mov	ecx, 51					; 00000033H
	mov	eax, -858993460				; ccccccccH
	rep stosd
	pop	ecx
	mov	DWORD PTR _this$[ebp], ecx

; 357  : #ifdef _DEBUG
; 358  : 		assert( position < Size() );

	mov	ecx, DWORD PTR _this$[ebp]
	call	?Size@?$Queue@_J@DataStructures@@QBEIXZ	; DataStructures::Queue<__int64>::Size
	cmp	DWORD PTR _position$[ebp], eax
	jb	SHORT $LN5@operator
	push	358					; 00000166H
	push	OFFSET ??_C@_1EG@DIEEECKO@?$AAz?$AA?3?$AA?2?$AAs?$AAa?$AAm?$AAp?$AAs?$AAr?$AAc?$AA?2?$AA0?$AA2?$AAx?$AAu?$AA1?$AA?2?$AAr?$AAa?$AAk?$AAn?$AAe?$AAt?$AA?2?$AAd?$AAs?$AA_?$AAq?$AAu?$AAe?$AAu?$AAe@
	push	OFFSET ??_C@_1CE@CLDOPLDF@?$AAp?$AAo?$AAs?$AAi?$AAt?$AAi?$AAo?$AAn?$AA?5?$AA?$DM?$AA?5?$AAS?$AAi?$AAz?$AAe?$AA?$CI?$AA?$CJ?$AA?$AA@
	call	__wassert
	add	esp, 12					; 0000000cH
$LN5@operator:

; 359  : #endif
; 360  : 		//return array[(head + position) % allocation_size];
; 361  : 
; 362  : 		if ( head + position >= allocation_size )

	mov	eax, DWORD PTR _this$[ebp]
	mov	ecx, DWORD PTR [eax+4]
	add	ecx, DWORD PTR _position$[ebp]
	mov	edx, DWORD PTR _this$[ebp]
	cmp	ecx, DWORD PTR [edx+12]
	jb	SHORT $LN2@operator

; 363  : 			return array[ head + position - allocation_size ];

	mov	eax, DWORD PTR _this$[ebp]
	mov	ecx, DWORD PTR [eax+4]
	add	ecx, DWORD PTR _position$[ebp]
	mov	edx, DWORD PTR _this$[ebp]
	sub	ecx, DWORD PTR [edx+12]
	mov	eax, DWORD PTR _this$[ebp]
	mov	edx, DWORD PTR [eax]
	lea	eax, DWORD PTR [edx+ecx*8]
	jmp	SHORT $LN3@operator

; 364  : 		else

	jmp	SHORT $LN3@operator
$LN2@operator:

; 365  : 			return array[ head + position ];

	mov	eax, DWORD PTR _this$[ebp]
	mov	ecx, DWORD PTR [eax+4]
	add	ecx, DWORD PTR _position$[ebp]
	mov	edx, DWORD PTR _this$[ebp]
	mov	eax, DWORD PTR [edx]
	lea	eax, DWORD PTR [eax+ecx*8]
$LN3@operator:

; 366  : 	}

	pop	edi
	pop	esi
	pop	ebx
	add	esp, 204				; 000000ccH
	cmp	ebp, esp
	call	__RTC_CheckEsp
	mov	esp, ebp
	pop	ebp
	ret	4
??A?$Queue@_J@DataStructures@@QBEAA_JI@Z ENDP		; DataStructures::Queue<__int64>::operator[]
_TEXT	ENDS
; Function compile flags: /Odtp /RTCsu /ZI
; File z:\sampsrc\02xu1\raknet\ds_queue.h
;	COMDAT ?Push@?$Queue@_J@DataStructures@@QAEXAB_J@Z
_TEXT	SEGMENT
$T1 = -260						; size = 4
$T2 = -248						; size = 4
$T3 = -236						; size = 4
_counter$4 = -32					; size = 4
_new_array$5 = -20					; size = 4
_this$ = -8						; size = 4
_input$ = 8						; size = 4
?Push@?$Queue@_J@DataStructures@@QAEXAB_J@Z PROC	; DataStructures::Queue<__int64>::Push, COMDAT
; _this$ = ecx

; 182  : 	{

	push	ebp
	mov	ebp, esp
	sub	esp, 264				; 00000108H
	push	ebx
	push	esi
	push	edi
	push	ecx
	lea	edi, DWORD PTR [ebp-264]
	mov	ecx, 66					; 00000042H
	mov	eax, -858993460				; ccccccccH
	rep stosd
	pop	ecx
	mov	DWORD PTR _this$[ebp], ecx

; 183  : 		if ( allocation_size == 0 )

	mov	eax, DWORD PTR _this$[ebp]
	cmp	DWORD PTR [eax+12], 0
	jne	SHORT $LN6@Push

; 184  : 		{
; 185  : 			array = new queue_type[ 16 ];

	push	128					; 00000080H
	call	??2@YAPAXI@Z				; operator new
	add	esp, 4
	mov	DWORD PTR $T1[ebp], eax
	mov	eax, DWORD PTR _this$[ebp]
	mov	ecx, DWORD PTR $T1[ebp]
	mov	DWORD PTR [eax], ecx

; 186  : 			head = 0;

	mov	eax, DWORD PTR _this$[ebp]
	mov	DWORD PTR [eax+4], 0

; 187  : 			tail = 1;

	mov	eax, DWORD PTR _this$[ebp]
	mov	DWORD PTR [eax+8], 1

; 188  : 			array[ 0 ] = input;

	mov	eax, 8
	imul	ecx, eax, 0
	mov	edx, DWORD PTR _this$[ebp]
	mov	eax, DWORD PTR [edx]
	mov	edx, DWORD PTR _input$[ebp]
	mov	esi, DWORD PTR [edx]
	mov	DWORD PTR [ecx+eax], esi
	mov	edx, DWORD PTR [edx+4]
	mov	DWORD PTR [ecx+eax+4], edx

; 189  : 			allocation_size = 16;

	mov	eax, DWORD PTR _this$[ebp]
	mov	DWORD PTR [eax+12], 16			; 00000010H

; 190  : 			return ;

	jmp	$LN7@Push
$LN6@Push:

; 191  : 		}
; 192  : 
; 193  : 		array[ tail++ ] = input;

	mov	eax, DWORD PTR _this$[ebp]
	mov	ecx, DWORD PTR [eax+8]
	mov	edx, DWORD PTR _this$[ebp]
	mov	eax, DWORD PTR [edx]
	mov	edx, DWORD PTR _input$[ebp]
	mov	esi, DWORD PTR [edx]
	mov	DWORD PTR [eax+ecx*8], esi
	mov	edx, DWORD PTR [edx+4]
	mov	DWORD PTR [eax+ecx*8+4], edx
	mov	eax, DWORD PTR _this$[ebp]
	mov	ecx, DWORD PTR [eax+8]
	add	ecx, 1
	mov	edx, DWORD PTR _this$[ebp]
	mov	DWORD PTR [edx+8], ecx

; 194  : 
; 195  : 		if ( tail == allocation_size )

	mov	eax, DWORD PTR _this$[ebp]
	mov	ecx, DWORD PTR _this$[ebp]
	mov	edx, DWORD PTR [eax+8]
	cmp	edx, DWORD PTR [ecx+12]
	jne	SHORT $LN5@Push

; 196  : 			tail = 0;

	mov	eax, DWORD PTR _this$[ebp]
	mov	DWORD PTR [eax+8], 0
$LN5@Push:

; 197  : 
; 198  : 		if ( tail == head )

	mov	eax, DWORD PTR _this$[ebp]
	mov	ecx, DWORD PTR _this$[ebp]
	mov	edx, DWORD PTR [eax+8]
	cmp	edx, DWORD PTR [ecx+4]
	jne	$LN7@Push

; 199  : 		{
; 200  : 			//  unsigned int index=tail;
; 201  : 
; 202  : 			// Need to allocate more memory.
; 203  : 			queue_type * new_array;
; 204  : 			new_array = new queue_type[ allocation_size * 2 ];

	mov	eax, DWORD PTR _this$[ebp]
	mov	eax, DWORD PTR [eax+12]
	shl	eax, 1
	xor	ecx, ecx
	mov	edx, 8
	mul	edx
	seto	cl
	neg	ecx
	or	ecx, eax
	push	ecx
	call	??2@YAPAXI@Z				; operator new
	add	esp, 4
	mov	DWORD PTR $T2[ebp], eax
	mov	eax, DWORD PTR $T2[ebp]
	mov	DWORD PTR _new_array$5[ebp], eax

; 205  : #ifdef _DEBUG
; 206  : 
; 207  : 			assert( new_array );

	cmp	DWORD PTR _new_array$5[ebp], 0
	jne	SHORT $LN9@Push
	push	207					; 000000cfH
	push	OFFSET ??_C@_1EG@DIEEECKO@?$AAz?$AA?3?$AA?2?$AAs?$AAa?$AAm?$AAp?$AAs?$AAr?$AAc?$AA?2?$AA0?$AA2?$AAx?$AAu?$AA1?$AA?2?$AAr?$AAa?$AAk?$AAn?$AAe?$AAt?$AA?2?$AAd?$AAs?$AA_?$AAq?$AAu?$AAe?$AAu?$AAe@
	push	OFFSET ??_C@_1BE@OMEGJCHO@?$AAn?$AAe?$AAw?$AA_?$AAa?$AAr?$AAr?$AAa?$AAy?$AA?$AA@
	call	__wassert
	add	esp, 12					; 0000000cH
$LN9@Push:

; 208  : #endif
; 209  : 
; 210  : 			for ( unsigned int counter = 0; counter < allocation_size; ++counter )

	mov	DWORD PTR _counter$4[ebp], 0
	jmp	SHORT $LN3@Push
$LN2@Push:
	mov	eax, DWORD PTR _counter$4[ebp]
	add	eax, 1
	mov	DWORD PTR _counter$4[ebp], eax
$LN3@Push:
	mov	eax, DWORD PTR _this$[ebp]
	mov	ecx, DWORD PTR _counter$4[ebp]
	cmp	ecx, DWORD PTR [eax+12]
	jae	SHORT $LN1@Push

; 211  : 				new_array[ counter ] = array[ ( head + counter ) % ( allocation_size ) ];

	mov	eax, DWORD PTR _this$[ebp]
	mov	eax, DWORD PTR [eax+4]
	add	eax, DWORD PTR _counter$4[ebp]
	mov	ecx, DWORD PTR _this$[ebp]
	xor	edx, edx
	div	DWORD PTR [ecx+12]
	mov	eax, DWORD PTR _this$[ebp]
	mov	ecx, DWORD PTR [eax]
	mov	eax, DWORD PTR _counter$4[ebp]
	mov	esi, DWORD PTR _new_array$5[ebp]
	mov	edi, DWORD PTR [ecx+edx*8]
	mov	DWORD PTR [esi+eax*8], edi
	mov	ecx, DWORD PTR [ecx+edx*8+4]
	mov	DWORD PTR [esi+eax*8+4], ecx
	jmp	SHORT $LN2@Push
$LN1@Push:

; 212  : 
; 213  : 			head = 0;

	mov	eax, DWORD PTR _this$[ebp]
	mov	DWORD PTR [eax+4], 0

; 214  : 
; 215  : 			tail = allocation_size;

	mov	eax, DWORD PTR _this$[ebp]
	mov	ecx, DWORD PTR _this$[ebp]
	mov	edx, DWORD PTR [ecx+12]
	mov	DWORD PTR [eax+8], edx

; 216  : 
; 217  : 			allocation_size *= 2;

	mov	eax, DWORD PTR _this$[ebp]
	mov	ecx, DWORD PTR [eax+12]
	shl	ecx, 1
	mov	edx, DWORD PTR _this$[ebp]
	mov	DWORD PTR [edx+12], ecx

; 218  : 
; 219  : 			// Delete the old array and move the pointer to the new array
; 220  : 			delete [] array;

	mov	eax, DWORD PTR _this$[ebp]
	mov	ecx, DWORD PTR [eax]
	mov	DWORD PTR $T3[ebp], ecx
	mov	edx, DWORD PTR $T3[ebp]
	push	edx
	call	??3@YAXPAX@Z				; operator delete
	add	esp, 4

; 221  : 
; 222  : 			array = new_array;

	mov	eax, DWORD PTR _this$[ebp]
	mov	ecx, DWORD PTR _new_array$5[ebp]
	mov	DWORD PTR [eax], ecx
$LN7@Push:

; 223  : 		}
; 224  : 
; 225  : 	}

	pop	edi
	pop	esi
	pop	ebx
	add	esp, 264				; 00000108H
	cmp	ebp, esp
	call	__RTC_CheckEsp
	mov	esp, ebp
	pop	ebp
	ret	4
?Push@?$Queue@_J@DataStructures@@QAEXAB_J@Z ENDP	; DataStructures::Queue<__int64>::Push
_TEXT	ENDS
; Function compile flags: /Odtp /RTCsu /ZI
; File z:\sampsrc\02xu1\raknet\ds_queue.h
;	COMDAT ??1?$Queue@_J@DataStructures@@QAE@XZ
_TEXT	SEGMENT
$T1 = -212						; size = 4
_this$ = -8						; size = 4
??1?$Queue@_J@DataStructures@@QAE@XZ PROC		; DataStructures::Queue<__int64>::~Queue<__int64>, COMDAT
; _this$ = ecx

; 92   : 	{

	push	ebp
	mov	ebp, esp
	sub	esp, 216				; 000000d8H
	push	ebx
	push	esi
	push	edi
	push	ecx
	lea	edi, DWORD PTR [ebp-216]
	mov	ecx, 54					; 00000036H
	mov	eax, -858993460				; ccccccccH
	rep stosd
	pop	ecx
	mov	DWORD PTR _this$[ebp], ecx

; 93   : 		if (allocation_size>0)

	mov	eax, DWORD PTR _this$[ebp]
	cmp	DWORD PTR [eax+12], 0
	jbe	SHORT $LN2@Queue

; 94   : 			delete [] array;

	mov	eax, DWORD PTR _this$[ebp]
	mov	ecx, DWORD PTR [eax]
	mov	DWORD PTR $T1[ebp], ecx
	mov	edx, DWORD PTR $T1[ebp]
	push	edx
	call	??3@YAXPAX@Z				; operator delete
	add	esp, 4
$LN2@Queue:

; 95   : 	}

	pop	edi
	pop	esi
	pop	ebx
	add	esp, 216				; 000000d8H
	cmp	ebp, esp
	call	__RTC_CheckEsp
	mov	esp, ebp
	pop	ebp
	ret	0
??1?$Queue@_J@DataStructures@@QAE@XZ ENDP		; DataStructures::Queue<__int64>::~Queue<__int64>
_TEXT	ENDS
; Function compile flags: /Odtp /RTCsu /ZI
; File z:\sampsrc\02xu1\raknet\ds_queue.h
;	COMDAT ??0?$Queue@_J@DataStructures@@QAE@XZ
_TEXT	SEGMENT
$T1 = -212						; size = 4
_this$ = -8						; size = 4
??0?$Queue@_J@DataStructures@@QAE@XZ PROC		; DataStructures::Queue<__int64>::Queue<__int64>, COMDAT
; _this$ = ecx

; 83   : 	{

	push	ebp
	mov	ebp, esp
	sub	esp, 216				; 000000d8H
	push	ebx
	push	esi
	push	edi
	push	ecx
	lea	edi, DWORD PTR [ebp-216]
	mov	ecx, 54					; 00000036H
	mov	eax, -858993460				; ccccccccH
	rep stosd
	pop	ecx
	mov	DWORD PTR _this$[ebp], ecx

; 84   : 		allocation_size = 16;

	mov	eax, DWORD PTR _this$[ebp]
	mov	DWORD PTR [eax+12], 16			; 00000010H

; 85   : 		array = new queue_type[ allocation_size ];

	xor	ecx, ecx
	mov	edx, DWORD PTR _this$[ebp]
	mov	eax, DWORD PTR [edx+12]
	mov	edx, 8
	mul	edx
	seto	cl
	neg	ecx
	or	ecx, eax
	push	ecx
	call	??2@YAPAXI@Z				; operator new
	add	esp, 4
	mov	DWORD PTR $T1[ebp], eax
	mov	eax, DWORD PTR _this$[ebp]
	mov	ecx, DWORD PTR $T1[ebp]
	mov	DWORD PTR [eax], ecx

; 86   : 		head = 0;

	mov	eax, DWORD PTR _this$[ebp]
	mov	DWORD PTR [eax+4], 0

; 87   : 		tail = 0;

	mov	eax, DWORD PTR _this$[ebp]
	mov	DWORD PTR [eax+8], 0

; 88   : 	}

	mov	eax, DWORD PTR _this$[ebp]
	pop	edi
	pop	esi
	pop	ebx
	add	esp, 216				; 000000d8H
	cmp	ebp, esp
	call	__RTC_CheckEsp
	mov	esp, ebp
	pop	ebp
	ret	0
??0?$Queue@_J@DataStructures@@QAE@XZ ENDP		; DataStructures::Queue<__int64>::Queue<__int64>
_TEXT	ENDS
; Function compile flags: /Odtp /RTCsu /ZI
; File z:\sampsrc\02xu1\raknet\ds_list.h
;	COMDAT ?Clear@?$List@PAUSplitPacketChannel@@@DataStructures@@QAEX_N@Z
_TEXT	SEGMENT
$T1 = -212						; size = 4
_this$ = -8						; size = 4
_doNotDeallocate$ = 8					; size = 1
?Clear@?$List@PAUSplitPacketChannel@@@DataStructures@@QAEX_N@Z PROC ; DataStructures::List<SplitPacketChannel *>::Clear, COMDAT
; _this$ = ecx

; 379  : 	{

	push	ebp
	mov	ebp, esp
	sub	esp, 216				; 000000d8H
	push	ebx
	push	esi
	push	edi
	push	ecx
	lea	edi, DWORD PTR [ebp-216]
	mov	ecx, 54					; 00000036H
	mov	eax, -858993460				; ccccccccH
	rep stosd
	pop	ecx
	mov	DWORD PTR _this$[ebp], ecx

; 380  : 		if ( allocation_size == 0 )

	mov	eax, DWORD PTR _this$[ebp]
	cmp	DWORD PTR [eax+8], 0
	jne	SHORT $LN2@Clear

; 381  : 			return;

	jmp	SHORT $LN3@Clear
$LN2@Clear:

; 382  : 
; 383  : 		if (allocation_size>512 && doNotDeallocate==false)

	mov	eax, DWORD PTR _this$[ebp]
	cmp	DWORD PTR [eax+8], 512			; 00000200H
	jbe	SHORT $LN1@Clear
	movzx	eax, BYTE PTR _doNotDeallocate$[ebp]
	test	eax, eax
	jne	SHORT $LN1@Clear

; 384  : 		{
; 385  : 			delete [] listArray;

	mov	eax, DWORD PTR _this$[ebp]
	mov	ecx, DWORD PTR [eax]
	mov	DWORD PTR $T1[ebp], ecx
	mov	edx, DWORD PTR $T1[ebp]
	push	edx
	call	??3@YAXPAX@Z				; operator delete
	add	esp, 4

; 386  : 			allocation_size = 0;

	mov	eax, DWORD PTR _this$[ebp]
	mov	DWORD PTR [eax+8], 0

; 387  : 			listArray = 0;

	mov	eax, DWORD PTR _this$[ebp]
	mov	DWORD PTR [eax], 0
$LN1@Clear:

; 388  : 		}
; 389  : 		list_size = 0;

	mov	eax, DWORD PTR _this$[ebp]
	mov	DWORD PTR [eax+4], 0
$LN3@Clear:

; 390  : 	}

	pop	edi
	pop	esi
	pop	ebx
	add	esp, 216				; 000000d8H
	cmp	ebp, esp
	call	__RTC_CheckEsp
	mov	esp, ebp
	pop	ebp
	ret	4
?Clear@?$List@PAUSplitPacketChannel@@@DataStructures@@QAEX_N@Z ENDP ; DataStructures::List<SplitPacketChannel *>::Clear
_TEXT	ENDS
; Function compile flags: /Odtp /RTCsu /ZI
; File z:\sampsrc\02xu1\raknet\ds_list.h
;	COMDAT ?Size@?$List@PAUSplitPacketChannel@@@DataStructures@@QBEIXZ
_TEXT	SEGMENT
_this$ = -8						; size = 4
?Size@?$List@PAUSplitPacketChannel@@@DataStructures@@QBEIXZ PROC ; DataStructures::List<SplitPacketChannel *>::Size, COMDAT
; _this$ = ecx

; 373  : 	{

	push	ebp
	mov	ebp, esp
	sub	esp, 204				; 000000ccH
	push	ebx
	push	esi
	push	edi
	push	ecx
	lea	edi, DWORD PTR [ebp-204]
	mov	ecx, 51					; 00000033H
	mov	eax, -858993460				; ccccccccH
	rep stosd
	pop	ecx
	mov	DWORD PTR _this$[ebp], ecx

; 374  : 		return list_size;

	mov	eax, DWORD PTR _this$[ebp]
	mov	eax, DWORD PTR [eax+4]

; 375  : 	}

	pop	edi
	pop	esi
	pop	ebx
	mov	esp, ebp
	pop	ebp
	ret	0
?Size@?$List@PAUSplitPacketChannel@@@DataStructures@@QBEIXZ ENDP ; DataStructures::List<SplitPacketChannel *>::Size
_TEXT	ENDS
; Function compile flags: /Odtp /RTCsu /ZI
; File z:\sampsrc\02xu1\raknet\ds_list.h
;	COMDAT ?Del@?$List@PAUSplitPacketChannel@@@DataStructures@@QAEXI@Z
_TEXT	SEGMENT
_this$ = -8						; size = 4
_num$ = 8						; size = 4
?Del@?$List@PAUSplitPacketChannel@@@DataStructures@@QAEXI@Z PROC ; DataStructures::List<SplitPacketChannel *>::Del, COMDAT
; _this$ = ecx

; 353  : 	{

	push	ebp
	mov	ebp, esp
	sub	esp, 204				; 000000ccH
	push	ebx
	push	esi
	push	edi
	push	ecx
	lea	edi, DWORD PTR [ebp-204]
	mov	ecx, 51					; 00000033H
	mov	eax, -858993460				; ccccccccH
	rep stosd
	pop	ecx
	mov	DWORD PTR _this$[ebp], ecx

; 354  : 		// Delete the last elements on the list.  No compression needed
; 355  : #ifdef _DEBUG
; 356  : 		assert(list_size>=num);

	mov	eax, DWORD PTR _this$[ebp]
	mov	ecx, DWORD PTR [eax+4]
	cmp	ecx, DWORD PTR _num$[ebp]
	jae	SHORT $LN3@Del
	push	356					; 00000164H
	push	OFFSET ??_C@_1EE@MBOIAKFO@?$AAz?$AA?3?$AA?2?$AAs?$AAa?$AAm?$AAp?$AAs?$AAr?$AAc?$AA?2?$AA0?$AA2?$AAx?$AAu?$AA1?$AA?2?$AAr?$AAa?$AAk?$AAn?$AAe?$AAt?$AA?2?$AAd?$AAs?$AA_?$AAl?$AAi?$AAs?$AAt?$AA?4@
	push	OFFSET ??_C@_1BO@JBFMBKMD@?$AAl?$AAi?$AAs?$AAt?$AA_?$AAs?$AAi?$AAz?$AAe?$AA?$DO?$AA?$DN?$AAn?$AAu?$AAm?$AA?$AA@
	call	__wassert
	add	esp, 12					; 0000000cH
$LN3@Del:

; 357  : #endif
; 358  : 		list_size-=num;

	mov	eax, DWORD PTR _this$[ebp]
	mov	ecx, DWORD PTR [eax+4]
	sub	ecx, DWORD PTR _num$[ebp]
	mov	edx, DWORD PTR _this$[ebp]
	mov	DWORD PTR [edx+4], ecx

; 359  : 	}

	pop	edi
	pop	esi
	pop	ebx
	add	esp, 204				; 000000ccH
	cmp	ebp, esp
	call	__RTC_CheckEsp
	mov	esp, ebp
	pop	ebp
	ret	4
?Del@?$List@PAUSplitPacketChannel@@@DataStructures@@QAEXI@Z ENDP ; DataStructures::List<SplitPacketChannel *>::Del
_TEXT	ENDS
; Function compile flags: /Odtp /RTCsu /ZI
; File z:\sampsrc\02xu1\raknet\ds_list.h
;	COMDAT ?RemoveAtIndex@?$List@PAUSplitPacketChannel@@@DataStructures@@QAEXI@Z
_TEXT	SEGMENT
_this$ = -8						; size = 4
_position$ = 8						; size = 4
?RemoveAtIndex@?$List@PAUSplitPacketChannel@@@DataStructures@@QAEXI@Z PROC ; DataStructures::List<SplitPacketChannel *>::RemoveAtIndex, COMDAT
; _this$ = ecx

; 333  : 	{

	push	ebp
	mov	ebp, esp
	sub	esp, 204				; 000000ccH
	push	ebx
	push	esi
	push	edi
	push	ecx
	lea	edi, DWORD PTR [ebp-204]
	mov	ecx, 51					; 00000033H
	mov	eax, -858993460				; ccccccccH
	rep stosd
	pop	ecx
	mov	DWORD PTR _this$[ebp], ecx

; 334  : #ifdef _DEBUG
; 335  : 		assert( position < list_size );

	mov	eax, DWORD PTR _this$[ebp]
	mov	ecx, DWORD PTR _position$[ebp]
	cmp	ecx, DWORD PTR [eax+4]
	jb	SHORT $LN4@RemoveAtIn
	push	335					; 0000014fH
	push	OFFSET ??_C@_1EE@MBOIAKFO@?$AAz?$AA?3?$AA?2?$AAs?$AAa?$AAm?$AAp?$AAs?$AAr?$AAc?$AA?2?$AA0?$AA2?$AAx?$AAu?$AA1?$AA?2?$AAr?$AAa?$AAk?$AAn?$AAe?$AAt?$AA?2?$AAd?$AAs?$AA_?$AAl?$AAi?$AAs?$AAt?$AA?4@
	push	OFFSET ??_C@_1CK@HINNGFPG@?$AAp?$AAo?$AAs?$AAi?$AAt?$AAi?$AAo?$AAn?$AA?5?$AA?$DM?$AA?5?$AAl?$AAi?$AAs?$AAt?$AA_?$AAs?$AAi?$AAz?$AAe?$AA?$AA@
	call	__wassert
	add	esp, 12					; 0000000cH
$LN4@RemoveAtIn:

; 336  : #endif
; 337  : 
; 338  : 		if ( position < list_size )

	mov	eax, DWORD PTR _this$[ebp]
	mov	ecx, DWORD PTR _position$[ebp]
	cmp	ecx, DWORD PTR [eax+4]
	jae	SHORT $LN2@RemoveAtIn

; 339  : 		{
; 340  : 			// Compress the array
; 341  : 			/*
; 342  : 			for ( unsigned int counter = position; counter < list_size - 1 ; ++counter )
; 343  : 			listArray[ counter ] = listArray[ counter + 1 ];
; 344  : 			*/
; 345  : 			memmove(listArray+position, listArray+position+1, (list_size-1-position) * sizeof(list_type));

	mov	eax, DWORD PTR _this$[ebp]
	mov	ecx, DWORD PTR [eax+4]
	sub	ecx, 1
	sub	ecx, DWORD PTR _position$[ebp]
	shl	ecx, 2
	push	ecx
	mov	edx, DWORD PTR _this$[ebp]
	mov	eax, DWORD PTR [edx]
	mov	ecx, DWORD PTR _position$[ebp]
	lea	edx, DWORD PTR [eax+ecx*4+4]
	push	edx
	mov	eax, DWORD PTR _this$[ebp]
	mov	ecx, DWORD PTR [eax]
	mov	edx, DWORD PTR _position$[ebp]
	lea	eax, DWORD PTR [ecx+edx*4]
	push	eax
	call	_memmove
	add	esp, 12					; 0000000cH

; 346  : 
; 347  : 			Del();

	push	1
	mov	ecx, DWORD PTR _this$[ebp]
	call	?Del@?$List@PAUSplitPacketChannel@@@DataStructures@@QAEXI@Z ; DataStructures::List<SplitPacketChannel *>::Del
$LN2@RemoveAtIn:

; 348  : 		}
; 349  : 	}

	pop	edi
	pop	esi
	pop	ebx
	add	esp, 204				; 000000ccH
	cmp	ebp, esp
	call	__RTC_CheckEsp
	mov	esp, ebp
	pop	ebp
	ret	4
?RemoveAtIndex@?$List@PAUSplitPacketChannel@@@DataStructures@@QAEXI@Z ENDP ; DataStructures::List<SplitPacketChannel *>::RemoveAtIndex
_TEXT	ENDS
; Function compile flags: /Odtp /RTCsu /ZI
; File z:\sampsrc\02xu1\raknet\ds_list.h
;	COMDAT ?Insert@?$List@PAUSplitPacketChannel@@@DataStructures@@QAEXQAUSplitPacketChannel@@@Z
_TEXT	SEGMENT
$T1 = -236						; size = 4
$T2 = -224						; size = 4
_new_array$3 = -20					; size = 4
_this$ = -8						; size = 4
_input$ = 8						; size = 4
?Insert@?$List@PAUSplitPacketChannel@@@DataStructures@@QAEXQAUSplitPacketChannel@@@Z PROC ; DataStructures::List<SplitPacketChannel *>::Insert, COMDAT
; _this$ = ecx

; 242  : 	{

	push	ebp
	mov	ebp, esp
	sub	esp, 240				; 000000f0H
	push	ebx
	push	esi
	push	edi
	push	ecx
	lea	edi, DWORD PTR [ebp-240]
	mov	ecx, 60					; 0000003cH
	mov	eax, -858993460				; ccccccccH
	rep stosd
	pop	ecx
	mov	DWORD PTR _this$[ebp], ecx

; 243  : 		// Reallocate list if necessary
; 244  : 
; 245  : 		if ( list_size == allocation_size )

	mov	eax, DWORD PTR _this$[ebp]
	mov	ecx, DWORD PTR _this$[ebp]
	mov	edx, DWORD PTR [eax+4]
	cmp	edx, DWORD PTR [ecx+8]
	jne	$LN3@Insert

; 246  : 		{
; 247  : 			// allocate twice the currently allocated memory
; 248  : 			list_type * new_array;
; 249  : 
; 250  : 			if ( allocation_size == 0 )

	mov	eax, DWORD PTR _this$[ebp]
	cmp	DWORD PTR [eax+8], 0
	jne	SHORT $LN2@Insert

; 251  : 				allocation_size = 16;

	mov	eax, DWORD PTR _this$[ebp]
	mov	DWORD PTR [eax+8], 16			; 00000010H

; 252  : 			else

	jmp	SHORT $LN1@Insert
$LN2@Insert:

; 253  : 				allocation_size *= 2;

	mov	eax, DWORD PTR _this$[ebp]
	mov	ecx, DWORD PTR [eax+8]
	shl	ecx, 1
	mov	edx, DWORD PTR _this$[ebp]
	mov	DWORD PTR [edx+8], ecx
$LN1@Insert:

; 254  : 
; 255  : 			new_array = new list_type [ allocation_size ];

	xor	ecx, ecx
	mov	edx, DWORD PTR _this$[ebp]
	mov	eax, DWORD PTR [edx+8]
	mov	edx, 4
	mul	edx
	seto	cl
	neg	ecx
	or	ecx, eax
	push	ecx
	call	??2@YAPAXI@Z				; operator new
	add	esp, 4
	mov	DWORD PTR $T1[ebp], eax
	mov	eax, DWORD PTR $T1[ebp]
	mov	DWORD PTR _new_array$3[ebp], eax

; 256  : 
; 257  : 			// copy old array over
; 258  : 			//	for ( unsigned int counter = 0; counter < list_size; ++counter )
; 259  : 			//		new_array[ counter ] = listArray[ counter ];
; 260  : 
; 261  : 			// Don't call constructors, assignment operators, etc.
; 262  : 			memcpy(new_array, listArray, list_size*sizeof(list_type));

	mov	eax, DWORD PTR _this$[ebp]
	mov	ecx, DWORD PTR [eax+4]
	shl	ecx, 2
	push	ecx
	mov	edx, DWORD PTR _this$[ebp]
	mov	eax, DWORD PTR [edx]
	push	eax
	mov	ecx, DWORD PTR _new_array$3[ebp]
	push	ecx
	call	_memcpy
	add	esp, 12					; 0000000cH

; 263  : 
; 264  : 			// set old array to point to the newly allocated and twice as large array
; 265  : 			delete[] listArray;

	mov	eax, DWORD PTR _this$[ebp]
	mov	ecx, DWORD PTR [eax]
	mov	DWORD PTR $T2[ebp], ecx
	mov	edx, DWORD PTR $T2[ebp]
	push	edx
	call	??3@YAXPAX@Z				; operator delete
	add	esp, 4

; 266  : 
; 267  : 			listArray = new_array;

	mov	eax, DWORD PTR _this$[ebp]
	mov	ecx, DWORD PTR _new_array$3[ebp]
	mov	DWORD PTR [eax], ecx
$LN3@Insert:

; 268  : 		}
; 269  : 
; 270  : 		// Insert the new item at the correct spot
; 271  : 		listArray[ list_size ] = input;

	mov	eax, DWORD PTR _this$[ebp]
	mov	ecx, DWORD PTR [eax+4]
	mov	edx, DWORD PTR _this$[ebp]
	mov	eax, DWORD PTR [edx]
	mov	edx, DWORD PTR _input$[ebp]
	mov	DWORD PTR [eax+ecx*4], edx

; 272  : 
; 273  : 		++list_size;

	mov	eax, DWORD PTR _this$[ebp]
	mov	ecx, DWORD PTR [eax+4]
	add	ecx, 1
	mov	edx, DWORD PTR _this$[ebp]
	mov	DWORD PTR [edx+4], ecx

; 274  : 	}

	pop	edi
	pop	esi
	pop	ebx
	add	esp, 240				; 000000f0H
	cmp	ebp, esp
	call	__RTC_CheckEsp
	mov	esp, ebp
	pop	ebp
	ret	4
?Insert@?$List@PAUSplitPacketChannel@@@DataStructures@@QAEXQAUSplitPacketChannel@@@Z ENDP ; DataStructures::List<SplitPacketChannel *>::Insert
_TEXT	ENDS
; Function compile flags: /Odtp /RTCsu /ZI
; File z:\sampsrc\02xu1\raknet\ds_list.h
;	COMDAT ?Insert@?$List@PAUSplitPacketChannel@@@DataStructures@@QAEXQAUSplitPacketChannel@@I@Z
_TEXT	SEGMENT
$T1 = -236						; size = 4
$T2 = -224						; size = 4
_new_array$3 = -20					; size = 4
_this$ = -8						; size = 4
_input$ = 8						; size = 4
_position$ = 12						; size = 4
?Insert@?$List@PAUSplitPacketChannel@@@DataStructures@@QAEXQAUSplitPacketChannel@@I@Z PROC ; DataStructures::List<SplitPacketChannel *>::Insert, COMDAT
; _this$ = ecx

; 194  : 	{

	push	ebp
	mov	ebp, esp
	sub	esp, 240				; 000000f0H
	push	ebx
	push	esi
	push	edi
	push	ecx
	lea	edi, DWORD PTR [ebp-240]
	mov	ecx, 60					; 0000003cH
	mov	eax, -858993460				; ccccccccH
	rep stosd
	pop	ecx
	mov	DWORD PTR _this$[ebp], ecx

; 195  : #ifdef _DEBUG
; 196  : 		assert( position <= list_size );

	mov	eax, DWORD PTR _this$[ebp]
	mov	ecx, DWORD PTR _position$[ebp]
	cmp	ecx, DWORD PTR [eax+4]
	jbe	SHORT $LN6@Insert
	push	196					; 000000c4H
	push	OFFSET ??_C@_1EE@MBOIAKFO@?$AAz?$AA?3?$AA?2?$AAs?$AAa?$AAm?$AAp?$AAs?$AAr?$AAc?$AA?2?$AA0?$AA2?$AAx?$AAu?$AA1?$AA?2?$AAr?$AAa?$AAk?$AAn?$AAe?$AAt?$AA?2?$AAd?$AAs?$AA_?$AAl?$AAi?$AAs?$AAt?$AA?4@
	push	OFFSET ??_C@_1CM@FMCFHBCK@?$AAp?$AAo?$AAs?$AAi?$AAt?$AAi?$AAo?$AAn?$AA?5?$AA?$DM?$AA?$DN?$AA?5?$AAl?$AAi?$AAs?$AAt?$AA_?$AAs?$AAi?$AAz?$AAe?$AA?$AA@
	call	__wassert
	add	esp, 12					; 0000000cH
$LN6@Insert:

; 197  : #endif
; 198  : 
; 199  : 		// Reallocate list if necessary
; 200  : 		if ( list_size == allocation_size )

	mov	eax, DWORD PTR _this$[ebp]
	mov	ecx, DWORD PTR _this$[ebp]
	mov	edx, DWORD PTR [eax+4]
	cmp	edx, DWORD PTR [ecx+8]
	jne	$LN3@Insert

; 201  : 		{
; 202  : 			// allocate twice the currently allocated memory
; 203  : 			list_type * new_array;
; 204  : 
; 205  : 			if ( allocation_size == 0 )

	mov	eax, DWORD PTR _this$[ebp]
	cmp	DWORD PTR [eax+8], 0
	jne	SHORT $LN2@Insert

; 206  : 				allocation_size = 16;

	mov	eax, DWORD PTR _this$[ebp]
	mov	DWORD PTR [eax+8], 16			; 00000010H

; 207  : 			else

	jmp	SHORT $LN1@Insert
$LN2@Insert:

; 208  : 				allocation_size *= 2;

	mov	eax, DWORD PTR _this$[ebp]
	mov	ecx, DWORD PTR [eax+8]
	shl	ecx, 1
	mov	edx, DWORD PTR _this$[ebp]
	mov	DWORD PTR [edx+8], ecx
$LN1@Insert:

; 209  : 
; 210  : 			new_array = new list_type [ allocation_size ];

	xor	ecx, ecx
	mov	edx, DWORD PTR _this$[ebp]
	mov	eax, DWORD PTR [edx+8]
	mov	edx, 4
	mul	edx
	seto	cl
	neg	ecx
	or	ecx, eax
	push	ecx
	call	??2@YAPAXI@Z				; operator new
	add	esp, 4
	mov	DWORD PTR $T1[ebp], eax
	mov	eax, DWORD PTR $T1[ebp]
	mov	DWORD PTR _new_array$3[ebp], eax

; 211  : 
; 212  : 			// copy old array over
; 213  : 			//for ( unsigned int counter = 0; counter < list_size; ++counter )
; 214  : 			//	new_array[ counter ] = listArray[ counter ];
; 215  : 
; 216  : 			// Don't call constructors, assignment operators, etc.
; 217  : 			memcpy(new_array, listArray, list_size*sizeof(list_type));

	mov	eax, DWORD PTR _this$[ebp]
	mov	ecx, DWORD PTR [eax+4]
	shl	ecx, 2
	push	ecx
	mov	edx, DWORD PTR _this$[ebp]
	mov	eax, DWORD PTR [edx]
	push	eax
	mov	ecx, DWORD PTR _new_array$3[ebp]
	push	ecx
	call	_memcpy
	add	esp, 12					; 0000000cH

; 218  : 
; 219  : 			// set old array to point to the newly allocated and twice as large array
; 220  : 			delete[] listArray;

	mov	eax, DWORD PTR _this$[ebp]
	mov	ecx, DWORD PTR [eax]
	mov	DWORD PTR $T2[ebp], ecx
	mov	edx, DWORD PTR $T2[ebp]
	push	edx
	call	??3@YAXPAX@Z				; operator delete
	add	esp, 4

; 221  : 
; 222  : 			listArray = new_array;

	mov	eax, DWORD PTR _this$[ebp]
	mov	ecx, DWORD PTR _new_array$3[ebp]
	mov	DWORD PTR [eax], ecx
$LN3@Insert:

; 223  : 		}
; 224  : 
; 225  : 		// Move the elements in the list to make room
; 226  : 		//for ( unsigned int counter = list_size; counter != position; counter-- )
; 227  : 		//	listArray[ counter ] = listArray[ counter - 1 ];
; 228  : 
; 229  : 		// Don't call constructors, assignment operators, etc.
; 230  : 		memmove(listArray+position+1, listArray+position, (list_size-position)*sizeof(list_type));

	mov	eax, DWORD PTR _this$[ebp]
	mov	ecx, DWORD PTR [eax+4]
	sub	ecx, DWORD PTR _position$[ebp]
	shl	ecx, 2
	push	ecx
	mov	edx, DWORD PTR _this$[ebp]
	mov	eax, DWORD PTR [edx]
	mov	ecx, DWORD PTR _position$[ebp]
	lea	edx, DWORD PTR [eax+ecx*4]
	push	edx
	mov	eax, DWORD PTR _this$[ebp]
	mov	ecx, DWORD PTR [eax]
	mov	edx, DWORD PTR _position$[ebp]
	lea	eax, DWORD PTR [ecx+edx*4+4]
	push	eax
	call	_memmove
	add	esp, 12					; 0000000cH

; 231  : 
; 232  : 		// Insert the new item at the correct spot
; 233  : 		listArray[ position ] = input;

	mov	eax, DWORD PTR _this$[ebp]
	mov	ecx, DWORD PTR [eax]
	mov	edx, DWORD PTR _position$[ebp]
	mov	eax, DWORD PTR _input$[ebp]
	mov	DWORD PTR [ecx+edx*4], eax

; 234  : 
; 235  : 		++list_size;

	mov	eax, DWORD PTR _this$[ebp]
	mov	ecx, DWORD PTR [eax+4]
	add	ecx, 1
	mov	edx, DWORD PTR _this$[ebp]
	mov	DWORD PTR [edx+4], ecx

; 236  : 
; 237  : 	}

	pop	edi
	pop	esi
	pop	ebx
	add	esp, 240				; 000000f0H
	cmp	ebp, esp
	call	__RTC_CheckEsp
	mov	esp, ebp
	pop	ebp
	ret	8
?Insert@?$List@PAUSplitPacketChannel@@@DataStructures@@QAEXQAUSplitPacketChannel@@I@Z ENDP ; DataStructures::List<SplitPacketChannel *>::Insert
_TEXT	ENDS
; Function compile flags: /Odtp /RTCsu /ZI
; File z:\sampsrc\02xu1\raknet\ds_list.h
;	COMDAT ??A?$List@PAUSplitPacketChannel@@@DataStructures@@QBEAAPAUSplitPacketChannel@@I@Z
_TEXT	SEGMENT
_this$ = -8						; size = 4
_position$ = 8						; size = 4
??A?$List@PAUSplitPacketChannel@@@DataStructures@@QBEAAPAUSplitPacketChannel@@I@Z PROC ; DataStructures::List<SplitPacketChannel *>::operator[], COMDAT
; _this$ = ecx

; 185  : 	{

	push	ebp
	mov	ebp, esp
	sub	esp, 204				; 000000ccH
	push	ebx
	push	esi
	push	edi
	push	ecx
	lea	edi, DWORD PTR [ebp-204]
	mov	ecx, 51					; 00000033H
	mov	eax, -858993460				; ccccccccH
	rep stosd
	pop	ecx
	mov	DWORD PTR _this$[ebp], ecx

; 186  : #ifdef _DEBUG
; 187  : 		assert ( position < list_size );

	mov	eax, DWORD PTR _this$[ebp]
	mov	ecx, DWORD PTR _position$[ebp]
	cmp	ecx, DWORD PTR [eax+4]
	jb	SHORT $LN3@operator
	push	187					; 000000bbH
	push	OFFSET ??_C@_1EE@MBOIAKFO@?$AAz?$AA?3?$AA?2?$AAs?$AAa?$AAm?$AAp?$AAs?$AAr?$AAc?$AA?2?$AA0?$AA2?$AAx?$AAu?$AA1?$AA?2?$AAr?$AAa?$AAk?$AAn?$AAe?$AAt?$AA?2?$AAd?$AAs?$AA_?$AAl?$AAi?$AAs?$AAt?$AA?4@
	push	OFFSET ??_C@_1CK@HINNGFPG@?$AAp?$AAo?$AAs?$AAi?$AAt?$AAi?$AAo?$AAn?$AA?5?$AA?$DM?$AA?5?$AAl?$AAi?$AAs?$AAt?$AA_?$AAs?$AAi?$AAz?$AAe?$AA?$AA@
	call	__wassert
	add	esp, 12					; 0000000cH
$LN3@operator:

; 188  : #endif
; 189  : 		return listArray[ position ];

	mov	eax, DWORD PTR _this$[ebp]
	mov	ecx, DWORD PTR [eax]
	mov	edx, DWORD PTR _position$[ebp]
	lea	eax, DWORD PTR [ecx+edx*4]

; 190  : 	}

	pop	edi
	pop	esi
	pop	ebx
	add	esp, 204				; 000000ccH
	cmp	ebp, esp
	call	__RTC_CheckEsp
	mov	esp, ebp
	pop	ebp
	ret	4
??A?$List@PAUSplitPacketChannel@@@DataStructures@@QBEAAPAUSplitPacketChannel@@I@Z ENDP ; DataStructures::List<SplitPacketChannel *>::operator[]
_TEXT	ENDS
; Function compile flags: /Odtp /RTCsu /ZI
; File z:\sampsrc\02xu1\raknet\ds_list.h
;	COMDAT ??1?$List@PAUSplitPacketChannel@@@DataStructures@@QAE@XZ
_TEXT	SEGMENT
$T1 = -212						; size = 4
_this$ = -8						; size = 4
??1?$List@PAUSplitPacketChannel@@@DataStructures@@QAE@XZ PROC ; DataStructures::List<SplitPacketChannel *>::~List<SplitPacketChannel *>, COMDAT
; _this$ = ecx

; 121  : 	{

	push	ebp
	mov	ebp, esp
	sub	esp, 216				; 000000d8H
	push	ebx
	push	esi
	push	edi
	push	ecx
	lea	edi, DWORD PTR [ebp-216]
	mov	ecx, 54					; 00000036H
	mov	eax, -858993460				; ccccccccH
	rep stosd
	pop	ecx
	mov	DWORD PTR _this$[ebp], ecx

; 122  : 		if (allocation_size>0)

	mov	eax, DWORD PTR _this$[ebp]
	cmp	DWORD PTR [eax+8], 0
	jbe	SHORT $LN2@List

; 123  : 			delete [] listArray;

	mov	eax, DWORD PTR _this$[ebp]
	mov	ecx, DWORD PTR [eax]
	mov	DWORD PTR $T1[ebp], ecx
	mov	edx, DWORD PTR $T1[ebp]
	push	edx
	call	??3@YAXPAX@Z				; operator delete
	add	esp, 4
$LN2@List:

; 124  : 	}

	pop	edi
	pop	esi
	pop	ebx
	add	esp, 216				; 000000d8H
	cmp	ebp, esp
	call	__RTC_CheckEsp
	mov	esp, ebp
	pop	ebp
	ret	0
??1?$List@PAUSplitPacketChannel@@@DataStructures@@QAE@XZ ENDP ; DataStructures::List<SplitPacketChannel *>::~List<SplitPacketChannel *>
_TEXT	ENDS
; Function compile flags: /Odtp /RTCsu /ZI
; File z:\sampsrc\02xu1\raknet\ds_list.h
;	COMDAT ??0?$List@PAUSplitPacketChannel@@@DataStructures@@QAE@XZ
_TEXT	SEGMENT
_this$ = -8						; size = 4
??0?$List@PAUSplitPacketChannel@@@DataStructures@@QAE@XZ PROC ; DataStructures::List<SplitPacketChannel *>::List<SplitPacketChannel *>, COMDAT
; _this$ = ecx

; 113  : 	{

	push	ebp
	mov	ebp, esp
	sub	esp, 204				; 000000ccH
	push	ebx
	push	esi
	push	edi
	push	ecx
	lea	edi, DWORD PTR [ebp-204]
	mov	ecx, 51					; 00000033H
	mov	eax, -858993460				; ccccccccH
	rep stosd
	pop	ecx
	mov	DWORD PTR _this$[ebp], ecx

; 114  : 		allocation_size = 0;

	mov	eax, DWORD PTR _this$[ebp]
	mov	DWORD PTR [eax+8], 0

; 115  : 		listArray = 0;

	mov	eax, DWORD PTR _this$[ebp]
	mov	DWORD PTR [eax], 0

; 116  : 		list_size = 0;

	mov	eax, DWORD PTR _this$[ebp]
	mov	DWORD PTR [eax+4], 0

; 117  : 	}

	mov	eax, DWORD PTR _this$[ebp]
	pop	edi
	pop	esi
	pop	ebx
	mov	esp, ebp
	pop	ebp
	ret	0
??0?$List@PAUSplitPacketChannel@@@DataStructures@@QAE@XZ ENDP ; DataStructures::List<SplitPacketChannel *>::List<SplitPacketChannel *>
_TEXT	ENDS
; Function compile flags: /Odtp /RTCsu /ZI
; File z:\sampsrc\02xu1\raknet\ds_orderedlist.h
;	COMDAT ?Size@?$OrderedList@GPAUSplitPacketChannel@@$1?SplitPacketChannelComp@@YAHABGABQAU1@@Z@DataStructures@@QBEIXZ
_TEXT	SEGMENT
_this$ = -8						; size = 4
?Size@?$OrderedList@GPAUSplitPacketChannel@@$1?SplitPacketChannelComp@@YAHABGABQAU1@@Z@DataStructures@@QBEIXZ PROC ; DataStructures::OrderedList<unsigned short,SplitPacketChannel *,&SplitPacketChannelComp>::Size, COMDAT
; _this$ = ecx

; 231  : 	{

	push	ebp
	mov	ebp, esp
	sub	esp, 204				; 000000ccH
	push	ebx
	push	esi
	push	edi
	push	ecx
	lea	edi, DWORD PTR [ebp-204]
	mov	ecx, 51					; 00000033H
	mov	eax, -858993460				; ccccccccH
	rep stosd
	pop	ecx
	mov	DWORD PTR _this$[ebp], ecx

; 232  : 		return orderedList.Size();

	mov	ecx, DWORD PTR _this$[ebp]
	call	?Size@?$List@PAUSplitPacketChannel@@@DataStructures@@QBEIXZ ; DataStructures::List<SplitPacketChannel *>::Size

; 233  : 	}

	pop	edi
	pop	esi
	pop	ebx
	add	esp, 204				; 000000ccH
	cmp	ebp, esp
	call	__RTC_CheckEsp
	mov	esp, ebp
	pop	ebp
	ret	0
?Size@?$OrderedList@GPAUSplitPacketChannel@@$1?SplitPacketChannelComp@@YAHABGABQAU1@@Z@DataStructures@@QBEIXZ ENDP ; DataStructures::OrderedList<unsigned short,SplitPacketChannel *,&SplitPacketChannelComp>::Size
_TEXT	ENDS
; Function compile flags: /Odtp /RTCsu /ZI
; File z:\sampsrc\02xu1\raknet\ds_orderedlist.h
;	COMDAT ?Clear@?$OrderedList@GPAUSplitPacketChannel@@$1?SplitPacketChannelComp@@YAHABGABQAU1@@Z@DataStructures@@QAEXXZ
_TEXT	SEGMENT
_this$ = -8						; size = 4
?Clear@?$OrderedList@GPAUSplitPacketChannel@@$1?SplitPacketChannelComp@@YAHABGABQAU1@@Z@DataStructures@@QAEXXZ PROC ; DataStructures::OrderedList<unsigned short,SplitPacketChannel *,&SplitPacketChannelComp>::Clear, COMDAT
; _this$ = ecx

; 219  : 	{

	push	ebp
	mov	ebp, esp
	sub	esp, 204				; 000000ccH
	push	ebx
	push	esi
	push	edi
	push	ecx
	lea	edi, DWORD PTR [ebp-204]
	mov	ecx, 51					; 00000033H
	mov	eax, -858993460				; ccccccccH
	rep stosd
	pop	ecx
	mov	DWORD PTR _this$[ebp], ecx

; 220  : 		orderedList.Clear();

	push	0
	mov	ecx, DWORD PTR _this$[ebp]
	call	?Clear@?$List@PAUSplitPacketChannel@@@DataStructures@@QAEX_N@Z ; DataStructures::List<SplitPacketChannel *>::Clear

; 221  : 	}

	pop	edi
	pop	esi
	pop	ebx
	add	esp, 204				; 000000ccH
	cmp	ebp, esp
	call	__RTC_CheckEsp
	mov	esp, ebp
	pop	ebp
	ret	0
?Clear@?$OrderedList@GPAUSplitPacketChannel@@$1?SplitPacketChannelComp@@YAHABGABQAU1@@Z@DataStructures@@QAEXXZ ENDP ; DataStructures::OrderedList<unsigned short,SplitPacketChannel *,&SplitPacketChannelComp>::Clear
_TEXT	ENDS
; Function compile flags: /Odtp /RTCsu /ZI
; File z:\sampsrc\02xu1\raknet\ds_orderedlist.h
;	COMDAT ?RemoveAtIndex@?$OrderedList@GPAUSplitPacketChannel@@$1?SplitPacketChannelComp@@YAHABGABQAU1@@Z@DataStructures@@QAEXI@Z
_TEXT	SEGMENT
_this$ = -8						; size = 4
_index$ = 8						; size = 4
?RemoveAtIndex@?$OrderedList@GPAUSplitPacketChannel@@$1?SplitPacketChannelComp@@YAHABGABQAU1@@Z@DataStructures@@QAEXI@Z PROC ; DataStructures::OrderedList<unsigned short,SplitPacketChannel *,&SplitPacketChannelComp>::RemoveAtIndex, COMDAT
; _this$ = ecx

; 195  : 	{

	push	ebp
	mov	ebp, esp
	sub	esp, 204				; 000000ccH
	push	ebx
	push	esi
	push	edi
	push	ecx
	lea	edi, DWORD PTR [ebp-204]
	mov	ecx, 51					; 00000033H
	mov	eax, -858993460				; ccccccccH
	rep stosd
	pop	ecx
	mov	DWORD PTR _this$[ebp], ecx

; 196  : 		orderedList.RemoveAtIndex(index);

	mov	eax, DWORD PTR _index$[ebp]
	push	eax
	mov	ecx, DWORD PTR _this$[ebp]
	call	?RemoveAtIndex@?$List@PAUSplitPacketChannel@@@DataStructures@@QAEXI@Z ; DataStructures::List<SplitPacketChannel *>::RemoveAtIndex

; 197  : 	}

	pop	edi
	pop	esi
	pop	ebx
	add	esp, 204				; 000000ccH
	cmp	ebp, esp
	call	__RTC_CheckEsp
	mov	esp, ebp
	pop	ebp
	ret	4
?RemoveAtIndex@?$OrderedList@GPAUSplitPacketChannel@@$1?SplitPacketChannelComp@@YAHABGABQAU1@@Z@DataStructures@@QAEXI@Z ENDP ; DataStructures::OrderedList<unsigned short,SplitPacketChannel *,&SplitPacketChannelComp>::RemoveAtIndex
_TEXT	ENDS
; Function compile flags: /Odtp /RTCsu /ZI
; File z:\sampsrc\02xu1\raknet\ds_orderedlist.h
;	COMDAT ??A?$OrderedList@GPAUSplitPacketChannel@@$1?SplitPacketChannelComp@@YAHABGABQAU1@@Z@DataStructures@@QBEAAPAUSplitPacketChannel@@I@Z
_TEXT	SEGMENT
_this$ = -8						; size = 4
_position$ = 8						; size = 4
??A?$OrderedList@GPAUSplitPacketChannel@@$1?SplitPacketChannelComp@@YAHABGABQAU1@@Z@DataStructures@@QBEAAPAUSplitPacketChannel@@I@Z PROC ; DataStructures::OrderedList<unsigned short,SplitPacketChannel *,&SplitPacketChannelComp>::operator[], COMDAT
; _this$ = ecx

; 225  : 	{

	push	ebp
	mov	ebp, esp
	sub	esp, 204				; 000000ccH
	push	ebx
	push	esi
	push	edi
	push	ecx
	lea	edi, DWORD PTR [ebp-204]
	mov	ecx, 51					; 00000033H
	mov	eax, -858993460				; ccccccccH
	rep stosd
	pop	ecx
	mov	DWORD PTR _this$[ebp], ecx

; 226  : 		return orderedList[position];

	mov	eax, DWORD PTR _position$[ebp]
	push	eax
	mov	ecx, DWORD PTR _this$[ebp]
	call	??A?$List@PAUSplitPacketChannel@@@DataStructures@@QBEAAPAUSplitPacketChannel@@I@Z ; DataStructures::List<SplitPacketChannel *>::operator[]

; 227  : 	}

	pop	edi
	pop	esi
	pop	ebx
	add	esp, 204				; 000000ccH
	cmp	ebp, esp
	call	__RTC_CheckEsp
	mov	esp, ebp
	pop	ebp
	ret	4
??A?$OrderedList@GPAUSplitPacketChannel@@$1?SplitPacketChannelComp@@YAHABGABQAU1@@Z@DataStructures@@QBEAAPAUSplitPacketChannel@@I@Z ENDP ; DataStructures::OrderedList<unsigned short,SplitPacketChannel *,&SplitPacketChannelComp>::operator[]
_TEXT	ENDS
; Function compile flags: /Odtp /RTCsu /ZI
; File z:\sampsrc\02xu1\raknet\ds_orderedlist.h
;	COMDAT ?Insert@?$OrderedList@GPAUSplitPacketChannel@@$1?SplitPacketChannelComp@@YAHABGABQAU1@@Z@DataStructures@@QAEIABGABQAUSplitPacketChannel@@@Z
_TEXT	SEGMENT
_index$ = -32						; size = 4
_objectExists$ = -17					; size = 1
_this$ = -8						; size = 4
_key$ = 8						; size = 4
_data$ = 12						; size = 4
?Insert@?$OrderedList@GPAUSplitPacketChannel@@$1?SplitPacketChannelComp@@YAHABGABQAU1@@Z@DataStructures@@QAEIABGABQAUSplitPacketChannel@@@Z PROC ; DataStructures::OrderedList<unsigned short,SplitPacketChannel *,&SplitPacketChannelComp>::Insert, COMDAT
; _this$ = ecx

; 156  : 	{

	push	ebp
	mov	ebp, esp
	sub	esp, 228				; 000000e4H
	push	ebx
	push	esi
	push	edi
	push	ecx
	lea	edi, DWORD PTR [ebp-228]
	mov	ecx, 57					; 00000039H
	mov	eax, -858993460				; ccccccccH
	rep stosd
	pop	ecx
	mov	DWORD PTR _this$[ebp], ecx

; 157  : 		bool objectExists;
; 158  : 		unsigned index;
; 159  : 		index = GetIndexFromKey(key, &objectExists);

	lea	eax, DWORD PTR _objectExists$[ebp]
	push	eax
	mov	ecx, DWORD PTR _key$[ebp]
	push	ecx
	mov	ecx, DWORD PTR _this$[ebp]
	call	?GetIndexFromKey@?$OrderedList@GPAUSplitPacketChannel@@$1?SplitPacketChannelComp@@YAHABGABQAU1@@Z@DataStructures@@QBEIABGPA_N@Z ; DataStructures::OrderedList<unsigned short,SplitPacketChannel *,&SplitPacketChannelComp>::GetIndexFromKey
	mov	DWORD PTR _index$[ebp], eax

; 160  : 
; 161  : 		// Don't allow duplicate insertion.
; 162  : 		if (objectExists)

	movzx	eax, BYTE PTR _objectExists$[ebp]
	test	eax, eax
	je	SHORT $LN3@Insert

; 163  : 			return (unsigned)-1;

	or	eax, -1
	jmp	SHORT $LN4@Insert
$LN3@Insert:

; 164  : 
; 165  : 		if (index>=orderedList.Size())

	mov	ecx, DWORD PTR _this$[ebp]
	call	?Size@?$List@PAUSplitPacketChannel@@@DataStructures@@QBEIXZ ; DataStructures::List<SplitPacketChannel *>::Size
	cmp	DWORD PTR _index$[ebp], eax
	jb	SHORT $LN2@Insert

; 166  : 		{
; 167  : 			orderedList.Insert(data);

	mov	eax, DWORD PTR _data$[ebp]
	mov	ecx, DWORD PTR [eax]
	push	ecx
	mov	ecx, DWORD PTR _this$[ebp]
	call	?Insert@?$List@PAUSplitPacketChannel@@@DataStructures@@QAEXQAUSplitPacketChannel@@@Z ; DataStructures::List<SplitPacketChannel *>::Insert

; 168  : 			return orderedList.Size()-1;

	mov	ecx, DWORD PTR _this$[ebp]
	call	?Size@?$List@PAUSplitPacketChannel@@@DataStructures@@QBEIXZ ; DataStructures::List<SplitPacketChannel *>::Size
	sub	eax, 1
	jmp	SHORT $LN4@Insert

; 169  : 		}
; 170  : 		else

	jmp	SHORT $LN4@Insert
$LN2@Insert:

; 171  : 		{
; 172  : 			orderedList.Insert(data,index);

	mov	eax, DWORD PTR _index$[ebp]
	push	eax
	mov	ecx, DWORD PTR _data$[ebp]
	mov	edx, DWORD PTR [ecx]
	push	edx
	mov	ecx, DWORD PTR _this$[ebp]
	call	?Insert@?$List@PAUSplitPacketChannel@@@DataStructures@@QAEXQAUSplitPacketChannel@@I@Z ; DataStructures::List<SplitPacketChannel *>::Insert

; 173  : 			return index;

	mov	eax, DWORD PTR _index$[ebp]
$LN4@Insert:

; 174  : 		}		
; 175  : 	}

	push	edx
	mov	ecx, ebp
	push	eax
	lea	edx, DWORD PTR $LN8@Insert
	call	@_RTC_CheckStackVars@8
	pop	eax
	pop	edx
	pop	edi
	pop	esi
	pop	ebx
	add	esp, 228				; 000000e4H
	cmp	ebp, esp
	call	__RTC_CheckEsp
	mov	esp, ebp
	pop	ebp
	ret	8
	npad	3
$LN8@Insert:
	DD	1
	DD	$LN7@Insert
$LN7@Insert:
	DD	-17					; ffffffefH
	DD	1
	DD	$LN6@Insert
$LN6@Insert:
	DB	111					; 0000006fH
	DB	98					; 00000062H
	DB	106					; 0000006aH
	DB	101					; 00000065H
	DB	99					; 00000063H
	DB	116					; 00000074H
	DB	69					; 00000045H
	DB	120					; 00000078H
	DB	105					; 00000069H
	DB	115					; 00000073H
	DB	116					; 00000074H
	DB	115					; 00000073H
	DB	0
?Insert@?$OrderedList@GPAUSplitPacketChannel@@$1?SplitPacketChannelComp@@YAHABGABQAU1@@Z@DataStructures@@QAEIABGABQAUSplitPacketChannel@@@Z ENDP ; DataStructures::OrderedList<unsigned short,SplitPacketChannel *,&SplitPacketChannelComp>::Insert
_TEXT	ENDS
; Function compile flags: /Odtp /RTCsu /ZI
; File z:\sampsrc\02xu1\raknet\ds_orderedlist.h
;	COMDAT ?GetIndexFromKey@?$OrderedList@GPAUSplitPacketChannel@@$1?SplitPacketChannelComp@@YAHABGABQAU1@@Z@DataStructures@@QBEIABGPA_N@Z
_TEXT	SEGMENT
_res$ = -56						; size = 4
_lowerBound$ = -44					; size = 4
_upperBound$ = -32					; size = 4
_index$ = -20						; size = 4
_this$ = -8						; size = 4
_key$ = 8						; size = 4
_objectExists$ = 12					; size = 4
?GetIndexFromKey@?$OrderedList@GPAUSplitPacketChannel@@$1?SplitPacketChannelComp@@YAHABGABQAU1@@Z@DataStructures@@QBEIABGPA_N@Z PROC ; DataStructures::OrderedList<unsigned short,SplitPacketChannel *,&SplitPacketChannelComp>::GetIndexFromKey, COMDAT
; _this$ = ecx

; 110  : 	{

	push	ebp
	mov	ebp, esp
	sub	esp, 252				; 000000fcH
	push	ebx
	push	esi
	push	edi
	push	ecx
	lea	edi, DWORD PTR [ebp-252]
	mov	ecx, 63					; 0000003fH
	mov	eax, -858993460				; ccccccccH
	rep stosd
	pop	ecx
	mov	DWORD PTR _this$[ebp], ecx

; 111  : 		int index, upperBound, lowerBound;
; 112  : 		int res;
; 113  : 
; 114  : 		if (orderedList.Size()==0)

	mov	ecx, DWORD PTR _this$[ebp]
	call	?Size@?$List@PAUSplitPacketChannel@@@DataStructures@@QBEIXZ ; DataStructures::List<SplitPacketChannel *>::Size
	test	eax, eax
	jne	SHORT $LN8@GetIndexFr

; 115  : 		{
; 116  : 			*objectExists=false;

	mov	eax, DWORD PTR _objectExists$[ebp]
	mov	BYTE PTR [eax], 0

; 117  : 			return 0;

	xor	eax, eax
	jmp	$LN9@GetIndexFr
$LN8@GetIndexFr:

; 118  : 		}
; 119  : 
; 120  : 		upperBound=(int)orderedList.Size()-1;

	mov	ecx, DWORD PTR _this$[ebp]
	call	?Size@?$List@PAUSplitPacketChannel@@@DataStructures@@QBEIXZ ; DataStructures::List<SplitPacketChannel *>::Size
	sub	eax, 1
	mov	DWORD PTR _upperBound$[ebp], eax

; 121  : 		lowerBound=0;

	mov	DWORD PTR _lowerBound$[ebp], 0

; 122  : 		index = (int)orderedList.Size()/2;

	mov	ecx, DWORD PTR _this$[ebp]
	call	?Size@?$List@PAUSplitPacketChannel@@@DataStructures@@QBEIXZ ; DataStructures::List<SplitPacketChannel *>::Size
	cdq
	sub	eax, edx
	sar	eax, 1
	mov	DWORD PTR _index$[ebp], eax
$LN7@GetIndexFr:

; 123  : 
; 124  : #ifdef _MSC_VER
; 125  : 	#pragma warning( disable : 4127 ) // warning C4127: conditional expression is constant
; 126  : #endif
; 127  : 		while (1)

	mov	eax, 1
	test	eax, eax
	je	SHORT $LN9@GetIndexFr

; 128  : 		{
; 129  : 			res = comparison_function(key,orderedList[index]);

	mov	eax, DWORD PTR _index$[ebp]
	push	eax
	mov	ecx, DWORD PTR _this$[ebp]
	call	??A?$List@PAUSplitPacketChannel@@@DataStructures@@QBEAAPAUSplitPacketChannel@@I@Z ; DataStructures::List<SplitPacketChannel *>::operator[]
	push	eax
	mov	ecx, DWORD PTR _key$[ebp]
	push	ecx
	call	?SplitPacketChannelComp@@YAHABGABQAUSplitPacketChannel@@@Z ; SplitPacketChannelComp
	add	esp, 8
	mov	DWORD PTR _res$[ebp], eax

; 130  : 			if (res==0)

	cmp	DWORD PTR _res$[ebp], 0
	jne	SHORT $LN5@GetIndexFr

; 131  : 			{
; 132  : 				*objectExists=true;

	mov	eax, DWORD PTR _objectExists$[ebp]
	mov	BYTE PTR [eax], 1

; 133  : 				return index;

	mov	eax, DWORD PTR _index$[ebp]
	jmp	SHORT $LN9@GetIndexFr
	jmp	SHORT $LN4@GetIndexFr
$LN5@GetIndexFr:

; 134  : 			}
; 135  : 			else if (res<0)

	cmp	DWORD PTR _res$[ebp], 0
	jge	SHORT $LN3@GetIndexFr

; 136  : 			{
; 137  : 				upperBound=index-1;

	mov	eax, DWORD PTR _index$[ebp]
	sub	eax, 1
	mov	DWORD PTR _upperBound$[ebp], eax

; 138  : 			}
; 139  : 			else// if (res>0)

	jmp	SHORT $LN4@GetIndexFr
$LN3@GetIndexFr:

; 140  : 			{
; 141  : 				lowerBound=index+1;

	mov	eax, DWORD PTR _index$[ebp]
	add	eax, 1
	mov	DWORD PTR _lowerBound$[ebp], eax
$LN4@GetIndexFr:

; 142  : 			}
; 143  : 
; 144  : 			index=lowerBound+(upperBound-lowerBound)/2;

	mov	eax, DWORD PTR _upperBound$[ebp]
	sub	eax, DWORD PTR _lowerBound$[ebp]
	cdq
	sub	eax, edx
	sar	eax, 1
	add	eax, DWORD PTR _lowerBound$[ebp]
	mov	DWORD PTR _index$[ebp], eax

; 145  : 
; 146  : 			if (lowerBound>upperBound)

	mov	eax, DWORD PTR _lowerBound$[ebp]
	cmp	eax, DWORD PTR _upperBound$[ebp]
	jle	SHORT $LN1@GetIndexFr

; 147  : 			{
; 148  : 				*objectExists=false;

	mov	eax, DWORD PTR _objectExists$[ebp]
	mov	BYTE PTR [eax], 0

; 149  : 				return lowerBound; // No match

	mov	eax, DWORD PTR _lowerBound$[ebp]
	jmp	SHORT $LN9@GetIndexFr
$LN1@GetIndexFr:

; 150  : 			}
; 151  : 		}

	jmp	SHORT $LN7@GetIndexFr
$LN9@GetIndexFr:

; 152  : 	}

	pop	edi
	pop	esi
	pop	ebx
	add	esp, 252				; 000000fcH
	cmp	ebp, esp
	call	__RTC_CheckEsp
	mov	esp, ebp
	pop	ebp
	ret	8
?GetIndexFromKey@?$OrderedList@GPAUSplitPacketChannel@@$1?SplitPacketChannelComp@@YAHABGABQAU1@@Z@DataStructures@@QBEIABGPA_N@Z ENDP ; DataStructures::OrderedList<unsigned short,SplitPacketChannel *,&SplitPacketChannelComp>::GetIndexFromKey
_TEXT	ENDS
; Function compile flags: /Odtp /RTCsu /ZI
; File z:\sampsrc\02xu1\raknet\ds_orderedlist.h
;	COMDAT ??1?$OrderedList@GPAUSplitPacketChannel@@$1?SplitPacketChannelComp@@YAHABGABQAU1@@Z@DataStructures@@QAE@XZ
_TEXT	SEGMENT
_this$ = -20						; size = 4
__$EHRec$ = -12						; size = 12
??1?$OrderedList@GPAUSplitPacketChannel@@$1?SplitPacketChannelComp@@YAHABGABQAU1@@Z@DataStructures@@QAE@XZ PROC ; DataStructures::OrderedList<unsigned short,SplitPacketChannel *,&SplitPacketChannelComp>::~OrderedList<unsigned short,SplitPacketChannel *,&SplitPacketChannelComp>, COMDAT
; _this$ = ecx

; 72   : 	{

	push	ebp
	mov	ebp, esp
	push	-1
	push	__ehhandler$??1?$OrderedList@GPAUSplitPacketChannel@@$1?SplitPacketChannelComp@@YAHABGABQAU1@@Z@DataStructures@@QAE@XZ
	mov	eax, DWORD PTR fs:0
	push	eax
	sub	esp, 204				; 000000ccH
	push	ebx
	push	esi
	push	edi
	push	ecx
	lea	edi, DWORD PTR [ebp-216]
	mov	ecx, 51					; 00000033H
	mov	eax, -858993460				; ccccccccH
	rep stosd
	pop	ecx
	mov	eax, DWORD PTR ___security_cookie
	xor	eax, ebp
	push	eax
	lea	eax, DWORD PTR __$EHRec$[ebp]
	mov	DWORD PTR fs:0, eax
	mov	DWORD PTR _this$[ebp], ecx
	mov	DWORD PTR __$EHRec$[ebp+8], 0

; 73   : 		Clear();

	mov	ecx, DWORD PTR _this$[ebp]
	call	?Clear@?$OrderedList@GPAUSplitPacketChannel@@$1?SplitPacketChannelComp@@YAHABGABQAU1@@Z@DataStructures@@QAEXXZ ; DataStructures::OrderedList<unsigned short,SplitPacketChannel *,&SplitPacketChannelComp>::Clear

; 74   : 	}

	mov	DWORD PTR __$EHRec$[ebp+8], -1
	mov	ecx, DWORD PTR _this$[ebp]
	call	??1?$List@PAUSplitPacketChannel@@@DataStructures@@QAE@XZ ; DataStructures::List<SplitPacketChannel *>::~List<SplitPacketChannel *>
	mov	ecx, DWORD PTR __$EHRec$[ebp]
	mov	DWORD PTR fs:0, ecx
	pop	ecx
	pop	edi
	pop	esi
	pop	ebx
	add	esp, 216				; 000000d8H
	cmp	ebp, esp
	call	__RTC_CheckEsp
	mov	esp, ebp
	pop	ebp
	ret	0
_TEXT	ENDS
;	COMDAT text$x
text$x	SEGMENT
__unwindfunclet$??1?$OrderedList@GPAUSplitPacketChannel@@$1?SplitPacketChannelComp@@YAHABGABQAU1@@Z@DataStructures@@QAE@XZ$0:
	mov	ecx, DWORD PTR _this$[ebp]
	jmp	??1?$List@PAUSplitPacketChannel@@@DataStructures@@QAE@XZ ; DataStructures::List<SplitPacketChannel *>::~List<SplitPacketChannel *>
__ehhandler$??1?$OrderedList@GPAUSplitPacketChannel@@$1?SplitPacketChannelComp@@YAHABGABQAU1@@Z@DataStructures@@QAE@XZ:
	mov	edx, DWORD PTR [esp+8]
	lea	eax, DWORD PTR [edx+12]
	mov	ecx, DWORD PTR [edx-220]
	xor	ecx, eax
	call	@__security_check_cookie@4
	mov	eax, OFFSET __ehfuncinfo$??1?$OrderedList@GPAUSplitPacketChannel@@$1?SplitPacketChannelComp@@YAHABGABQAU1@@Z@DataStructures@@QAE@XZ
	jmp	___CxxFrameHandler3
text$x	ENDS
??1?$OrderedList@GPAUSplitPacketChannel@@$1?SplitPacketChannelComp@@YAHABGABQAU1@@Z@DataStructures@@QAE@XZ ENDP ; DataStructures::OrderedList<unsigned short,SplitPacketChannel *,&SplitPacketChannelComp>::~OrderedList<unsigned short,SplitPacketChannel *,&SplitPacketChannelComp>
; Function compile flags: /Odtp /RTCsu /ZI
; File z:\sampsrc\02xu1\raknet\ds_orderedlist.h
;	COMDAT ??0?$OrderedList@GPAUSplitPacketChannel@@$1?SplitPacketChannelComp@@YAHABGABQAU1@@Z@DataStructures@@QAE@XZ
_TEXT	SEGMENT
_this$ = -8						; size = 4
??0?$OrderedList@GPAUSplitPacketChannel@@$1?SplitPacketChannelComp@@YAHABGABQAU1@@Z@DataStructures@@QAE@XZ PROC ; DataStructures::OrderedList<unsigned short,SplitPacketChannel *,&SplitPacketChannelComp>::OrderedList<unsigned short,SplitPacketChannel *,&SplitPacketChannelComp>, COMDAT
; _this$ = ecx

; 67   : 	{

	push	ebp
	mov	ebp, esp
	sub	esp, 204				; 000000ccH
	push	ebx
	push	esi
	push	edi
	push	ecx
	lea	edi, DWORD PTR [ebp-204]
	mov	ecx, 51					; 00000033H
	mov	eax, -858993460				; ccccccccH
	rep stosd
	pop	ecx
	mov	DWORD PTR _this$[ebp], ecx
	mov	ecx, DWORD PTR _this$[ebp]
	call	??0?$List@PAUSplitPacketChannel@@@DataStructures@@QAE@XZ ; DataStructures::List<SplitPacketChannel *>::List<SplitPacketChannel *>

; 68   : 	}

	mov	eax, DWORD PTR _this$[ebp]
	pop	edi
	pop	esi
	pop	ebx
	add	esp, 204				; 000000ccH
	cmp	ebp, esp
	call	__RTC_CheckEsp
	mov	esp, ebp
	pop	ebp
	ret	0
??0?$OrderedList@GPAUSplitPacketChannel@@$1?SplitPacketChannelComp@@YAHABGABQAU1@@Z@DataStructures@@QAE@XZ ENDP ; DataStructures::OrderedList<unsigned short,SplitPacketChannel *,&SplitPacketChannelComp>::OrderedList<unsigned short,SplitPacketChannel *,&SplitPacketChannelComp>
_TEXT	ENDS
; Function compile flags: /Odtp /RTCsu /ZI
; File z:\sampsrc\02xu1\raknet\ds_list.h
;	COMDAT ?Size@?$List@PAU?$Page@GPAUInternalPacket@@$0CA@@DataStructures@@@DataStructures@@QBEIXZ
_TEXT	SEGMENT
_this$ = -8						; size = 4
?Size@?$List@PAU?$Page@GPAUInternalPacket@@$0CA@@DataStructures@@@DataStructures@@QBEIXZ PROC ; DataStructures::List<DataStructures::Page<unsigned short,InternalPacket *,32> *>::Size, COMDAT
; _this$ = ecx

; 373  : 	{

	push	ebp
	mov	ebp, esp
	sub	esp, 204				; 000000ccH
	push	ebx
	push	esi
	push	edi
	push	ecx
	lea	edi, DWORD PTR [ebp-204]
	mov	ecx, 51					; 00000033H
	mov	eax, -858993460				; ccccccccH
	rep stosd
	pop	ecx
	mov	DWORD PTR _this$[ebp], ecx

; 374  : 		return list_size;

	mov	eax, DWORD PTR _this$[ebp]
	mov	eax, DWORD PTR [eax+4]

; 375  : 	}

	pop	edi
	pop	esi
	pop	ebx
	mov	esp, ebp
	pop	ebp
	ret	0
?Size@?$List@PAU?$Page@GPAUInternalPacket@@$0CA@@DataStructures@@@DataStructures@@QBEIXZ ENDP ; DataStructures::List<DataStructures::Page<unsigned short,InternalPacket *,32> *>::Size
_TEXT	ENDS
; Function compile flags: /Odtp /RTCsu /ZI
; File z:\sampsrc\02xu1\raknet\ds_list.h
;	COMDAT ?Del@?$List@PAU?$Page@GPAUInternalPacket@@$0CA@@DataStructures@@@DataStructures@@QAEXI@Z
_TEXT	SEGMENT
_this$ = -8						; size = 4
_num$ = 8						; size = 4
?Del@?$List@PAU?$Page@GPAUInternalPacket@@$0CA@@DataStructures@@@DataStructures@@QAEXI@Z PROC ; DataStructures::List<DataStructures::Page<unsigned short,InternalPacket *,32> *>::Del, COMDAT
; _this$ = ecx

; 353  : 	{

	push	ebp
	mov	ebp, esp
	sub	esp, 204				; 000000ccH
	push	ebx
	push	esi
	push	edi
	push	ecx
	lea	edi, DWORD PTR [ebp-204]
	mov	ecx, 51					; 00000033H
	mov	eax, -858993460				; ccccccccH
	rep stosd
	pop	ecx
	mov	DWORD PTR _this$[ebp], ecx

; 354  : 		// Delete the last elements on the list.  No compression needed
; 355  : #ifdef _DEBUG
; 356  : 		assert(list_size>=num);

	mov	eax, DWORD PTR _this$[ebp]
	mov	ecx, DWORD PTR [eax+4]
	cmp	ecx, DWORD PTR _num$[ebp]
	jae	SHORT $LN3@Del
	push	356					; 00000164H
	push	OFFSET ??_C@_1EE@MBOIAKFO@?$AAz?$AA?3?$AA?2?$AAs?$AAa?$AAm?$AAp?$AAs?$AAr?$AAc?$AA?2?$AA0?$AA2?$AAx?$AAu?$AA1?$AA?2?$AAr?$AAa?$AAk?$AAn?$AAe?$AAt?$AA?2?$AAd?$AAs?$AA_?$AAl?$AAi?$AAs?$AAt?$AA?4@
	push	OFFSET ??_C@_1BO@JBFMBKMD@?$AAl?$AAi?$AAs?$AAt?$AA_?$AAs?$AAi?$AAz?$AAe?$AA?$DO?$AA?$DN?$AAn?$AAu?$AAm?$AA?$AA@
	call	__wassert
	add	esp, 12					; 0000000cH
$LN3@Del:

; 357  : #endif
; 358  : 		list_size-=num;

	mov	eax, DWORD PTR _this$[ebp]
	mov	ecx, DWORD PTR [eax+4]
	sub	ecx, DWORD PTR _num$[ebp]
	mov	edx, DWORD PTR _this$[ebp]
	mov	DWORD PTR [edx+4], ecx

; 359  : 	}

	pop	edi
	pop	esi
	pop	ebx
	add	esp, 204				; 000000ccH
	cmp	ebp, esp
	call	__RTC_CheckEsp
	mov	esp, ebp
	pop	ebp
	ret	4
?Del@?$List@PAU?$Page@GPAUInternalPacket@@$0CA@@DataStructures@@@DataStructures@@QAEXI@Z ENDP ; DataStructures::List<DataStructures::Page<unsigned short,InternalPacket *,32> *>::Del
_TEXT	ENDS
; Function compile flags: /Odtp /RTCsu /ZI
; File z:\sampsrc\02xu1\raknet\ds_list.h
;	COMDAT ?Insert@?$List@PAU?$Page@GPAUInternalPacket@@$0CA@@DataStructures@@@DataStructures@@QAEXQAU?$Page@GPAUInternalPacket@@$0CA@@2@@Z
_TEXT	SEGMENT
$T1 = -236						; size = 4
$T2 = -224						; size = 4
_new_array$3 = -20					; size = 4
_this$ = -8						; size = 4
_input$ = 8						; size = 4
?Insert@?$List@PAU?$Page@GPAUInternalPacket@@$0CA@@DataStructures@@@DataStructures@@QAEXQAU?$Page@GPAUInternalPacket@@$0CA@@2@@Z PROC ; DataStructures::List<DataStructures::Page<unsigned short,InternalPacket *,32> *>::Insert, COMDAT
; _this$ = ecx

; 242  : 	{

	push	ebp
	mov	ebp, esp
	sub	esp, 240				; 000000f0H
	push	ebx
	push	esi
	push	edi
	push	ecx
	lea	edi, DWORD PTR [ebp-240]
	mov	ecx, 60					; 0000003cH
	mov	eax, -858993460				; ccccccccH
	rep stosd
	pop	ecx
	mov	DWORD PTR _this$[ebp], ecx

; 243  : 		// Reallocate list if necessary
; 244  : 
; 245  : 		if ( list_size == allocation_size )

	mov	eax, DWORD PTR _this$[ebp]
	mov	ecx, DWORD PTR _this$[ebp]
	mov	edx, DWORD PTR [eax+4]
	cmp	edx, DWORD PTR [ecx+8]
	jne	$LN3@Insert

; 246  : 		{
; 247  : 			// allocate twice the currently allocated memory
; 248  : 			list_type * new_array;
; 249  : 
; 250  : 			if ( allocation_size == 0 )

	mov	eax, DWORD PTR _this$[ebp]
	cmp	DWORD PTR [eax+8], 0
	jne	SHORT $LN2@Insert

; 251  : 				allocation_size = 16;

	mov	eax, DWORD PTR _this$[ebp]
	mov	DWORD PTR [eax+8], 16			; 00000010H

; 252  : 			else

	jmp	SHORT $LN1@Insert
$LN2@Insert:

; 253  : 				allocation_size *= 2;

	mov	eax, DWORD PTR _this$[ebp]
	mov	ecx, DWORD PTR [eax+8]
	shl	ecx, 1
	mov	edx, DWORD PTR _this$[ebp]
	mov	DWORD PTR [edx+8], ecx
$LN1@Insert:

; 254  : 
; 255  : 			new_array = new list_type [ allocation_size ];

	xor	ecx, ecx
	mov	edx, DWORD PTR _this$[ebp]
	mov	eax, DWORD PTR [edx+8]
	mov	edx, 4
	mul	edx
	seto	cl
	neg	ecx
	or	ecx, eax
	push	ecx
	call	??2@YAPAXI@Z				; operator new
	add	esp, 4
	mov	DWORD PTR $T1[ebp], eax
	mov	eax, DWORD PTR $T1[ebp]
	mov	DWORD PTR _new_array$3[ebp], eax

; 256  : 
; 257  : 			// copy old array over
; 258  : 			//	for ( unsigned int counter = 0; counter < list_size; ++counter )
; 259  : 			//		new_array[ counter ] = listArray[ counter ];
; 260  : 
; 261  : 			// Don't call constructors, assignment operators, etc.
; 262  : 			memcpy(new_array, listArray, list_size*sizeof(list_type));

	mov	eax, DWORD PTR _this$[ebp]
	mov	ecx, DWORD PTR [eax+4]
	shl	ecx, 2
	push	ecx
	mov	edx, DWORD PTR _this$[ebp]
	mov	eax, DWORD PTR [edx]
	push	eax
	mov	ecx, DWORD PTR _new_array$3[ebp]
	push	ecx
	call	_memcpy
	add	esp, 12					; 0000000cH

; 263  : 
; 264  : 			// set old array to point to the newly allocated and twice as large array
; 265  : 			delete[] listArray;

	mov	eax, DWORD PTR _this$[ebp]
	mov	ecx, DWORD PTR [eax]
	mov	DWORD PTR $T2[ebp], ecx
	mov	edx, DWORD PTR $T2[ebp]
	push	edx
	call	??3@YAXPAX@Z				; operator delete
	add	esp, 4

; 266  : 
; 267  : 			listArray = new_array;

	mov	eax, DWORD PTR _this$[ebp]
	mov	ecx, DWORD PTR _new_array$3[ebp]
	mov	DWORD PTR [eax], ecx
$LN3@Insert:

; 268  : 		}
; 269  : 
; 270  : 		// Insert the new item at the correct spot
; 271  : 		listArray[ list_size ] = input;

	mov	eax, DWORD PTR _this$[ebp]
	mov	ecx, DWORD PTR [eax+4]
	mov	edx, DWORD PTR _this$[ebp]
	mov	eax, DWORD PTR [edx]
	mov	edx, DWORD PTR _input$[ebp]
	mov	DWORD PTR [eax+ecx*4], edx

; 272  : 
; 273  : 		++list_size;

	mov	eax, DWORD PTR _this$[ebp]
	mov	ecx, DWORD PTR [eax+4]
	add	ecx, 1
	mov	edx, DWORD PTR _this$[ebp]
	mov	DWORD PTR [edx+4], ecx

; 274  : 	}

	pop	edi
	pop	esi
	pop	ebx
	add	esp, 240				; 000000f0H
	cmp	ebp, esp
	call	__RTC_CheckEsp
	mov	esp, ebp
	pop	ebp
	ret	4
?Insert@?$List@PAU?$Page@GPAUInternalPacket@@$0CA@@DataStructures@@@DataStructures@@QAEXQAU?$Page@GPAUInternalPacket@@$0CA@@2@@Z ENDP ; DataStructures::List<DataStructures::Page<unsigned short,InternalPacket *,32> *>::Insert
_TEXT	ENDS
; Function compile flags: /Odtp /RTCsu /ZI
; File z:\sampsrc\02xu1\raknet\ds_list.h
;	COMDAT ??A?$List@PAU?$Page@GPAUInternalPacket@@$0CA@@DataStructures@@@DataStructures@@QBEAAPAU?$Page@GPAUInternalPacket@@$0CA@@1@I@Z
_TEXT	SEGMENT
_this$ = -8						; size = 4
_position$ = 8						; size = 4
??A?$List@PAU?$Page@GPAUInternalPacket@@$0CA@@DataStructures@@@DataStructures@@QBEAAPAU?$Page@GPAUInternalPacket@@$0CA@@1@I@Z PROC ; DataStructures::List<DataStructures::Page<unsigned short,InternalPacket *,32> *>::operator[], COMDAT
; _this$ = ecx

; 185  : 	{

	push	ebp
	mov	ebp, esp
	sub	esp, 204				; 000000ccH
	push	ebx
	push	esi
	push	edi
	push	ecx
	lea	edi, DWORD PTR [ebp-204]
	mov	ecx, 51					; 00000033H
	mov	eax, -858993460				; ccccccccH
	rep stosd
	pop	ecx
	mov	DWORD PTR _this$[ebp], ecx

; 186  : #ifdef _DEBUG
; 187  : 		assert ( position < list_size );

	mov	eax, DWORD PTR _this$[ebp]
	mov	ecx, DWORD PTR _position$[ebp]
	cmp	ecx, DWORD PTR [eax+4]
	jb	SHORT $LN3@operator
	push	187					; 000000bbH
	push	OFFSET ??_C@_1EE@MBOIAKFO@?$AAz?$AA?3?$AA?2?$AAs?$AAa?$AAm?$AAp?$AAs?$AAr?$AAc?$AA?2?$AA0?$AA2?$AAx?$AAu?$AA1?$AA?2?$AAr?$AAa?$AAk?$AAn?$AAe?$AAt?$AA?2?$AAd?$AAs?$AA_?$AAl?$AAi?$AAs?$AAt?$AA?4@
	push	OFFSET ??_C@_1CK@HINNGFPG@?$AAp?$AAo?$AAs?$AAi?$AAt?$AAi?$AAo?$AAn?$AA?5?$AA?$DM?$AA?5?$AAl?$AAi?$AAs?$AAt?$AA_?$AAs?$AAi?$AAz?$AAe?$AA?$AA@
	call	__wassert
	add	esp, 12					; 0000000cH
$LN3@operator:

; 188  : #endif
; 189  : 		return listArray[ position ];

	mov	eax, DWORD PTR _this$[ebp]
	mov	ecx, DWORD PTR [eax]
	mov	edx, DWORD PTR _position$[ebp]
	lea	eax, DWORD PTR [ecx+edx*4]

; 190  : 	}

	pop	edi
	pop	esi
	pop	ebx
	add	esp, 204				; 000000ccH
	cmp	ebp, esp
	call	__RTC_CheckEsp
	mov	esp, ebp
	pop	ebp
	ret	4
??A?$List@PAU?$Page@GPAUInternalPacket@@$0CA@@DataStructures@@@DataStructures@@QBEAAPAU?$Page@GPAUInternalPacket@@$0CA@@1@I@Z ENDP ; DataStructures::List<DataStructures::Page<unsigned short,InternalPacket *,32> *>::operator[]
_TEXT	ENDS
; Function compile flags: /Odtp /RTCsu /ZI
; File z:\sampsrc\02xu1\raknet\ds_list.h
;	COMDAT ??1?$List@PAU?$Page@GPAUInternalPacket@@$0CA@@DataStructures@@@DataStructures@@QAE@XZ
_TEXT	SEGMENT
$T1 = -212						; size = 4
_this$ = -8						; size = 4
??1?$List@PAU?$Page@GPAUInternalPacket@@$0CA@@DataStructures@@@DataStructures@@QAE@XZ PROC ; DataStructures::List<DataStructures::Page<unsigned short,InternalPacket *,32> *>::~List<DataStructures::Page<unsigned short,InternalPacket *,32> *>, COMDAT
; _this$ = ecx

; 121  : 	{

	push	ebp
	mov	ebp, esp
	sub	esp, 216				; 000000d8H
	push	ebx
	push	esi
	push	edi
	push	ecx
	lea	edi, DWORD PTR [ebp-216]
	mov	ecx, 54					; 00000036H
	mov	eax, -858993460				; ccccccccH
	rep stosd
	pop	ecx
	mov	DWORD PTR _this$[ebp], ecx

; 122  : 		if (allocation_size>0)

	mov	eax, DWORD PTR _this$[ebp]
	cmp	DWORD PTR [eax+8], 0
	jbe	SHORT $LN2@List

; 123  : 			delete [] listArray;

	mov	eax, DWORD PTR _this$[ebp]
	mov	ecx, DWORD PTR [eax]
	mov	DWORD PTR $T1[ebp], ecx
	mov	edx, DWORD PTR $T1[ebp]
	push	edx
	call	??3@YAXPAX@Z				; operator delete
	add	esp, 4
$LN2@List:

; 124  : 	}

	pop	edi
	pop	esi
	pop	ebx
	add	esp, 216				; 000000d8H
	cmp	ebp, esp
	call	__RTC_CheckEsp
	mov	esp, ebp
	pop	ebp
	ret	0
??1?$List@PAU?$Page@GPAUInternalPacket@@$0CA@@DataStructures@@@DataStructures@@QAE@XZ ENDP ; DataStructures::List<DataStructures::Page<unsigned short,InternalPacket *,32> *>::~List<DataStructures::Page<unsigned short,InternalPacket *,32> *>
_TEXT	ENDS
; Function compile flags: /Odtp /RTCsu /ZI
; File z:\sampsrc\02xu1\raknet\ds_list.h
;	COMDAT ??0?$List@PAU?$Page@GPAUInternalPacket@@$0CA@@DataStructures@@@DataStructures@@QAE@XZ
_TEXT	SEGMENT
_this$ = -8						; size = 4
??0?$List@PAU?$Page@GPAUInternalPacket@@$0CA@@DataStructures@@@DataStructures@@QAE@XZ PROC ; DataStructures::List<DataStructures::Page<unsigned short,InternalPacket *,32> *>::List<DataStructures::Page<unsigned short,InternalPacket *,32> *>, COMDAT
; _this$ = ecx

; 113  : 	{

	push	ebp
	mov	ebp, esp
	sub	esp, 204				; 000000ccH
	push	ebx
	push	esi
	push	edi
	push	ecx
	lea	edi, DWORD PTR [ebp-204]
	mov	ecx, 51					; 00000033H
	mov	eax, -858993460				; ccccccccH
	rep stosd
	pop	ecx
	mov	DWORD PTR _this$[ebp], ecx

; 114  : 		allocation_size = 0;

	mov	eax, DWORD PTR _this$[ebp]
	mov	DWORD PTR [eax+8], 0

; 115  : 		listArray = 0;

	mov	eax, DWORD PTR _this$[ebp]
	mov	DWORD PTR [eax], 0

; 116  : 		list_size = 0;

	mov	eax, DWORD PTR _this$[ebp]
	mov	DWORD PTR [eax+4], 0

; 117  : 	}

	mov	eax, DWORD PTR _this$[ebp]
	pop	edi
	pop	esi
	pop	ebx
	mov	esp, ebp
	pop	ebp
	ret	0
??0?$List@PAU?$Page@GPAUInternalPacket@@$0CA@@DataStructures@@@DataStructures@@QAE@XZ ENDP ; DataStructures::List<DataStructures::Page<unsigned short,InternalPacket *,32> *>::List<DataStructures::Page<unsigned short,InternalPacket *,32> *>
_TEXT	ENDS
; Function compile flags: /Odtp /RTCsu /ZI
; File z:\sampsrc\02xu1\raknet\ds_memorypool.h
;	COMDAT ?Release@?$MemoryPool@U?$Page@GPAUInternalPacket@@$0CA@@DataStructures@@@DataStructures@@QAEXPAU?$Page@GPAUInternalPacket@@$0CA@@2@@Z
_TEXT	SEGMENT
_this$ = -8						; size = 4
_m$ = 8							; size = 4
?Release@?$MemoryPool@U?$Page@GPAUInternalPacket@@$0CA@@DataStructures@@@DataStructures@@QAEXPAU?$Page@GPAUInternalPacket@@$0CA@@2@@Z PROC ; DataStructures::MemoryPool<DataStructures::Page<unsigned short,InternalPacket *,32> >::Release, COMDAT
; _this$ = ecx

; 70   : 	{

	push	ebp
	mov	ebp, esp
	sub	esp, 204				; 000000ccH
	push	ebx
	push	esi
	push	edi
	push	ecx
	lea	edi, DWORD PTR [ebp-204]
	mov	ecx, 51					; 00000033H
	mov	eax, -858993460				; ccccccccH
	rep stosd
	pop	ecx
	mov	DWORD PTR _this$[ebp], ecx

; 71   : 		pool.Insert(m);

	mov	eax, DWORD PTR _m$[ebp]
	push	eax
	mov	ecx, DWORD PTR _this$[ebp]
	add	ecx, 4
	call	?Insert@?$List@PAU?$Page@GPAUInternalPacket@@$0CA@@DataStructures@@@DataStructures@@QAEXQAU?$Page@GPAUInternalPacket@@$0CA@@2@@Z ; DataStructures::List<DataStructures::Page<unsigned short,InternalPacket *,32> *>::Insert

; 72   : #ifdef _DEBUG
; 73   : 		assert(blocksOut>0);

	mov	eax, DWORD PTR _this$[ebp]
	cmp	DWORD PTR [eax], 0
	jg	SHORT $LN3@Release
	push	73					; 00000049H
	push	OFFSET ??_C@_1FA@EECGGCBA@?$AAz?$AA?3?$AA?2?$AAs?$AAa?$AAm?$AAp?$AAs?$AAr?$AAc?$AA?2?$AA0?$AA2?$AAx?$AAu?$AA1?$AA?2?$AAr?$AAa?$AAk?$AAn?$AAe?$AAt?$AA?2?$AAd?$AAs?$AA_?$AAm?$AAe?$AAm?$AAo?$AAr@
	push	OFFSET ??_C@_1BI@OFKIDLPK@?$AAb?$AAl?$AAo?$AAc?$AAk?$AAs?$AAO?$AAu?$AAt?$AA?$DO?$AA0?$AA?$AA@
	call	__wassert
	add	esp, 12					; 0000000cH
$LN3@Release:

; 74   : 		blocksOut--;

	mov	eax, DWORD PTR _this$[ebp]
	mov	ecx, DWORD PTR [eax]
	sub	ecx, 1
	mov	edx, DWORD PTR _this$[ebp]
	mov	DWORD PTR [edx], ecx

; 75   : #endif
; 76   : 	}

	pop	edi
	pop	esi
	pop	ebx
	add	esp, 204				; 000000ccH
	cmp	ebp, esp
	call	__RTC_CheckEsp
	mov	esp, ebp
	pop	ebp
	ret	4
?Release@?$MemoryPool@U?$Page@GPAUInternalPacket@@$0CA@@DataStructures@@@DataStructures@@QAEXPAU?$Page@GPAUInternalPacket@@$0CA@@2@@Z ENDP ; DataStructures::MemoryPool<DataStructures::Page<unsigned short,InternalPacket *,32> >::Release
_TEXT	ENDS
; Function compile flags: /Odtp /RTCsu /ZI
; File z:\sampsrc\02xu1\raknet\ds_memorypool.h
;	COMDAT ?Allocate@?$MemoryPool@U?$Page@GPAUInternalPacket@@$0CA@@DataStructures@@@DataStructures@@QAEPAU?$Page@GPAUInternalPacket@@$0CA@@2@XZ
_TEXT	SEGMENT
$T1 = -224						; size = 4
_out$2 = -20						; size = 4
_this$ = -8						; size = 4
?Allocate@?$MemoryPool@U?$Page@GPAUInternalPacket@@$0CA@@DataStructures@@@DataStructures@@QAEPAU?$Page@GPAUInternalPacket@@$0CA@@2@XZ PROC ; DataStructures::MemoryPool<DataStructures::Page<unsigned short,InternalPacket *,32> >::Allocate, COMDAT
; _this$ = ecx

; 54   : 	{

	push	ebp
	mov	ebp, esp
	sub	esp, 228				; 000000e4H
	push	ebx
	push	esi
	push	edi
	push	ecx
	lea	edi, DWORD PTR [ebp-228]
	mov	ecx, 57					; 00000039H
	mov	eax, -858993460				; ccccccccH
	rep stosd
	pop	ecx
	mov	DWORD PTR _this$[ebp], ecx

; 55   : #ifdef _DEBUG
; 56   : 		blocksOut++;

	mov	eax, DWORD PTR _this$[ebp]
	mov	ecx, DWORD PTR [eax]
	add	ecx, 1
	mov	edx, DWORD PTR _this$[ebp]
	mov	DWORD PTR [edx], ecx

; 57   : #endif
; 58   : 		if (pool.Size()==0)

	mov	ecx, DWORD PTR _this$[ebp]
	add	ecx, 4
	call	?Size@?$List@PAU?$Page@GPAUInternalPacket@@$0CA@@DataStructures@@@DataStructures@@QBEIXZ ; DataStructures::List<DataStructures::Page<unsigned short,InternalPacket *,32> *>::Size
	test	eax, eax
	jne	SHORT $LN2@Allocate

; 59   : 			return new MemoryBlockType;

	push	337					; 00000151H
	call	??2@YAPAXI@Z				; operator new
	add	esp, 4
	mov	DWORD PTR $T1[ebp], eax
	mov	eax, DWORD PTR $T1[ebp]
	jmp	SHORT $LN3@Allocate

; 60   : 		else

	jmp	SHORT $LN3@Allocate
$LN2@Allocate:

; 61   : 		{
; 62   : 			MemoryBlockType* out;
; 63   : 			out=pool[pool.Size()-1];

	mov	ecx, DWORD PTR _this$[ebp]
	add	ecx, 4
	call	?Size@?$List@PAU?$Page@GPAUInternalPacket@@$0CA@@DataStructures@@@DataStructures@@QBEIXZ ; DataStructures::List<DataStructures::Page<unsigned short,InternalPacket *,32> *>::Size
	sub	eax, 1
	push	eax
	mov	ecx, DWORD PTR _this$[ebp]
	add	ecx, 4
	call	??A?$List@PAU?$Page@GPAUInternalPacket@@$0CA@@DataStructures@@@DataStructures@@QBEAAPAU?$Page@GPAUInternalPacket@@$0CA@@1@I@Z ; DataStructures::List<DataStructures::Page<unsigned short,InternalPacket *,32> *>::operator[]
	mov	eax, DWORD PTR [eax]
	mov	DWORD PTR _out$2[ebp], eax

; 64   : 			pool.Del();

	push	1
	mov	ecx, DWORD PTR _this$[ebp]
	add	ecx, 4
	call	?Del@?$List@PAU?$Page@GPAUInternalPacket@@$0CA@@DataStructures@@@DataStructures@@QAEXI@Z ; DataStructures::List<DataStructures::Page<unsigned short,InternalPacket *,32> *>::Del

; 65   : 			return out;

	mov	eax, DWORD PTR _out$2[ebp]
$LN3@Allocate:

; 66   : 		}
; 67   : 	}

	pop	edi
	pop	esi
	pop	ebx
	add	esp, 228				; 000000e4H
	cmp	ebp, esp
	call	__RTC_CheckEsp
	mov	esp, ebp
	pop	ebp
	ret	0
?Allocate@?$MemoryPool@U?$Page@GPAUInternalPacket@@$0CA@@DataStructures@@@DataStructures@@QAEPAU?$Page@GPAUInternalPacket@@$0CA@@2@XZ ENDP ; DataStructures::MemoryPool<DataStructures::Page<unsigned short,InternalPacket *,32> >::Allocate
_TEXT	ENDS
; Function compile flags: /Odtp /RTCsu /ZI
; File z:\sampsrc\02xu1\raknet\ds_memorypool.h
;	COMDAT ?Preallocate@?$MemoryPool@U?$Page@GPAUInternalPacket@@$0CA@@DataStructures@@@DataStructures@@QAEXI@Z
_TEXT	SEGMENT
$T1 = -224						; size = 4
_i$ = -20						; size = 4
_this$ = -8						; size = 4
_numElements$ = 8					; size = 4
?Preallocate@?$MemoryPool@U?$Page@GPAUInternalPacket@@$0CA@@DataStructures@@@DataStructures@@QAEXI@Z PROC ; DataStructures::MemoryPool<DataStructures::Page<unsigned short,InternalPacket *,32> >::Preallocate, COMDAT
; _this$ = ecx

; 44   : 	{

	push	ebp
	mov	ebp, esp
	sub	esp, 228				; 000000e4H
	push	ebx
	push	esi
	push	edi
	push	ecx
	lea	edi, DWORD PTR [ebp-228]
	mov	ecx, 57					; 00000039H
	mov	eax, -858993460				; ccccccccH
	rep stosd
	pop	ecx
	mov	DWORD PTR _this$[ebp], ecx

; 45   : 		unsigned i;
; 46   : 		for (i=pool.Size(); i < numElements; i++)

	mov	ecx, DWORD PTR _this$[ebp]
	add	ecx, 4
	call	?Size@?$List@PAU?$Page@GPAUInternalPacket@@$0CA@@DataStructures@@@DataStructures@@QBEIXZ ; DataStructures::List<DataStructures::Page<unsigned short,InternalPacket *,32> *>::Size
	mov	DWORD PTR _i$[ebp], eax
	jmp	SHORT $LN3@Preallocat
$LN2@Preallocat:
	mov	eax, DWORD PTR _i$[ebp]
	add	eax, 1
	mov	DWORD PTR _i$[ebp], eax
$LN3@Preallocat:
	mov	eax, DWORD PTR _i$[ebp]
	cmp	eax, DWORD PTR _numElements$[ebp]
	jae	SHORT $LN4@Preallocat

; 47   : 		{
; 48   : 			pool.Insert(new MemoryBlockType);

	push	337					; 00000151H
	call	??2@YAPAXI@Z				; operator new
	add	esp, 4
	mov	DWORD PTR $T1[ebp], eax
	mov	eax, DWORD PTR $T1[ebp]
	push	eax
	mov	ecx, DWORD PTR _this$[ebp]
	add	ecx, 4
	call	?Insert@?$List@PAU?$Page@GPAUInternalPacket@@$0CA@@DataStructures@@@DataStructures@@QAEXQAU?$Page@GPAUInternalPacket@@$0CA@@2@@Z ; DataStructures::List<DataStructures::Page<unsigned short,InternalPacket *,32> *>::Insert

; 49   : 		}

	jmp	SHORT $LN2@Preallocat
$LN4@Preallocat:

; 50   : 	}

	pop	edi
	pop	esi
	pop	ebx
	add	esp, 228				; 000000e4H
	cmp	ebp, esp
	call	__RTC_CheckEsp
	mov	esp, ebp
	pop	ebp
	ret	4
?Preallocate@?$MemoryPool@U?$Page@GPAUInternalPacket@@$0CA@@DataStructures@@@DataStructures@@QAEXI@Z ENDP ; DataStructures::MemoryPool<DataStructures::Page<unsigned short,InternalPacket *,32> >::Preallocate
_TEXT	ENDS
; Function compile flags: /Odtp /RTCsu /ZI
; File z:\sampsrc\02xu1\raknet\ds_memorypool.h
;	COMDAT ??1?$MemoryPool@U?$Page@GPAUInternalPacket@@$0CA@@DataStructures@@@DataStructures@@QAE@XZ
_TEXT	SEGMENT
$T2 = -236						; size = 4
_i$ = -32						; size = 4
_this$ = -20						; size = 4
__$EHRec$ = -12						; size = 12
??1?$MemoryPool@U?$Page@GPAUInternalPacket@@$0CA@@DataStructures@@@DataStructures@@QAE@XZ PROC ; DataStructures::MemoryPool<DataStructures::Page<unsigned short,InternalPacket *,32> >::~MemoryPool<DataStructures::Page<unsigned short,InternalPacket *,32> >, COMDAT
; _this$ = ecx

; 33   : 	{

	push	ebp
	mov	ebp, esp
	push	-1
	push	__ehhandler$??1?$MemoryPool@U?$Page@GPAUInternalPacket@@$0CA@@DataStructures@@@DataStructures@@QAE@XZ
	mov	eax, DWORD PTR fs:0
	push	eax
	sub	esp, 228				; 000000e4H
	push	ebx
	push	esi
	push	edi
	push	ecx
	lea	edi, DWORD PTR [ebp-240]
	mov	ecx, 57					; 00000039H
	mov	eax, -858993460				; ccccccccH
	rep stosd
	pop	ecx
	mov	eax, DWORD PTR ___security_cookie
	xor	eax, ebp
	push	eax
	lea	eax, DWORD PTR __$EHRec$[ebp]
	mov	DWORD PTR fs:0, eax
	mov	DWORD PTR _this$[ebp], ecx
	mov	DWORD PTR __$EHRec$[ebp+8], 0

; 34   : #ifdef _DEBUG
; 35   : 		assert(blocksOut==0);

	mov	eax, DWORD PTR _this$[ebp]
	cmp	DWORD PTR [eax], 0
	je	SHORT $LN6@MemoryPool
	push	35					; 00000023H
	push	OFFSET ??_C@_1FA@EECGGCBA@?$AAz?$AA?3?$AA?2?$AAs?$AAa?$AAm?$AAp?$AAs?$AAr?$AAc?$AA?2?$AA0?$AA2?$AAx?$AAu?$AA1?$AA?2?$AAr?$AAa?$AAk?$AAn?$AAe?$AAt?$AA?2?$AAd?$AAs?$AA_?$AAm?$AAe?$AAm?$AAo?$AAr@
	push	OFFSET ??_C@_1BK@JNGCOJCH@?$AAb?$AAl?$AAo?$AAc?$AAk?$AAs?$AAO?$AAu?$AAt?$AA?$DN?$AA?$DN?$AA0?$AA?$AA@
	call	__wassert
	add	esp, 12					; 0000000cH
$LN6@MemoryPool:

; 36   : #endif
; 37   : 		unsigned i;
; 38   : 		for (i=0; i < pool.Size(); i++)

	mov	DWORD PTR _i$[ebp], 0
	jmp	SHORT $LN3@MemoryPool
$LN2@MemoryPool:
	mov	eax, DWORD PTR _i$[ebp]
	add	eax, 1
	mov	DWORD PTR _i$[ebp], eax
$LN3@MemoryPool:
	mov	ecx, DWORD PTR _this$[ebp]
	add	ecx, 4
	call	?Size@?$List@PAU?$Page@GPAUInternalPacket@@$0CA@@DataStructures@@@DataStructures@@QBEIXZ ; DataStructures::List<DataStructures::Page<unsigned short,InternalPacket *,32> *>::Size
	cmp	DWORD PTR _i$[ebp], eax
	jae	SHORT $LN4@MemoryPool

; 39   : 			delete pool[i];

	mov	eax, DWORD PTR _i$[ebp]
	push	eax
	mov	ecx, DWORD PTR _this$[ebp]
	add	ecx, 4
	call	??A?$List@PAU?$Page@GPAUInternalPacket@@$0CA@@DataStructures@@@DataStructures@@QBEAAPAU?$Page@GPAUInternalPacket@@$0CA@@1@I@Z ; DataStructures::List<DataStructures::Page<unsigned short,InternalPacket *,32> *>::operator[]
	mov	ecx, DWORD PTR [eax]
	mov	DWORD PTR $T2[ebp], ecx
