; Listing generated by Microsoft (R) Optimizing Compiler Version 18.00.31101.0 

	TITLE	Z:\sampsrc\02Xu1\saco\net\remoteplayer.cpp
	.686P
	.XMM
	include listing.inc
	.model	flat

INCLUDELIB LIBCMTD
INCLUDELIB OLDNAMES

PUBLIC	?fOnFootCorrectionMultiplier@@3MA		; fOnFootCorrectionMultiplier
PUBLIC	?fInCarCorrectionMultiplier@@3MA		; fInCarCorrectionMultiplier
PUBLIC	?fInaccuracyFactorMultiplier@@3MA		; fInaccuracyFactorMultiplier
PUBLIC	?fInCarInaccuracyFactorMultiplier@@3MA		; fInCarInaccuracyFactorMultiplier
_DATA	SEGMENT
?fOnFootCorrectionMultiplier@@3MA DD 03d75c28fr	; 0.06	; fOnFootCorrectionMultiplier
?fInCarCorrectionMultiplier@@3MA DD 03d75c28fr	; 0.06	; fInCarCorrectionMultiplier
?fInaccuracyFactorMultiplier@@3MA DD 040a00000r	; 5	; fInaccuracyFactorMultiplier
?fInCarInaccuracyFactorMultiplier@@3MA DD 03f800000r ; 1 ; fInCarInaccuracyFactorMultiplier
_DATA	ENDS
PUBLIC	_sqrtf
PUBLIC	?sqrt@@YAMM@Z					; sqrt
PUBLIC	?SetCameraMode@CPlayerPed@@QAEXE@Z		; CPlayerPed::SetCameraMode
PUBLIC	?SetCameraExtendedZoom@CPlayerPed@@QAEXM@Z	; CPlayerPed::SetCameraExtendedZoom
PUBLIC	?FindPlayerPed@CGame@@QAEPAVCPlayerPed@@XZ	; CGame::FindPlayerPed
PUBLIC	?IsSpectating@CLocalPlayer@@QAEHXZ		; CLocalPlayer::IsSpectating
PUBLIC	??0CRemotePlayer@@QAE@XZ			; CRemotePlayer::CRemotePlayer
PUBLIC	??1CRemotePlayer@@QAE@XZ			; CRemotePlayer::~CRemotePlayer
PUBLIC	?GetState@CRemotePlayer@@QAEEXZ			; CRemotePlayer::GetState
PUBLIC	?Process@CRemotePlayer@@QAEXE@Z			; CRemotePlayer::Process
PUBLIC	?ProcessSpecialActions@CRemotePlayer@@QAEXE@Z	; CRemotePlayer::ProcessSpecialActions
PUBLIC	?HandleVehicleEntryExit@CRemotePlayer@@QAEXXZ	; CRemotePlayer::HandleVehicleEntryExit
PUBLIC	?HandlePlayerPedStreaming@CRemotePlayer@@QAEXXZ	; CRemotePlayer::HandlePlayerPedStreaming
PUBLIC	?ForceOutOfCurrentVehicle@CRemotePlayer@@QAEXXZ	; CRemotePlayer::ForceOutOfCurrentVehicle
PUBLIC	?IsSurfingOrTurretMode@CRemotePlayer@@QAEHXZ	; CRemotePlayer::IsSurfingOrTurretMode
PUBLIC	?UpdateSurfing@CRemotePlayer@@QAEXXZ		; CRemotePlayer::UpdateSurfing
PUBLIC	?Say@CRemotePlayer@@QAEXPAE@Z			; CRemotePlayer::Say
PUBLIC	?Privmsg@CRemotePlayer@@QAEXPAD@Z		; CRemotePlayer::Privmsg
PUBLIC	?TeamPrivmsg@CRemotePlayer@@QAEXPAD@Z		; CRemotePlayer::TeamPrivmsg
PUBLIC	?GetPlayerPed@CRemotePlayer@@QAEPAVCPlayerPed@@XZ ; CRemotePlayer::GetPlayerPed
PUBLIC	?IsActive@CRemotePlayer@@QAEHXZ			; CRemotePlayer::IsActive
PUBLIC	?UpdateIncarTargetPosition@CRemotePlayer@@QAEXXZ ; CRemotePlayer::UpdateIncarTargetPosition
PUBLIC	?UpdateOnfootTargetPosition@CRemotePlayer@@QAEXXZ ; CRemotePlayer::UpdateOnfootTargetPosition
PUBLIC	?UpdateOnFootPositionAndSpeed@CRemotePlayer@@QAEXPAU_VECTOR@@0@Z ; CRemotePlayer::UpdateOnFootPositionAndSpeed
PUBLIC	?UpdateInCarMatrixAndSpeed@CRemotePlayer@@QAEXU_MATRIX4X4@@U_VECTOR@@@Z ; CRemotePlayer::UpdateInCarMatrixAndSpeed
PUBLIC	?UpdateTrainDriverMatrixAndSpeed@CRemotePlayer@@QAEXPAU_MATRIX4X4@@PAU_VECTOR@@M@Z ; CRemotePlayer::UpdateTrainDriverMatrixAndSpeed
PUBLIC	?UpdateAimFromSyncData@CRemotePlayer@@QAEXPAU_AIM_SYNC_DATA@@@Z ; CRemotePlayer::UpdateAimFromSyncData
PUBLIC	?StoreOnFootFullSyncData@CRemotePlayer@@QAEXPAU_ONFOOT_SYNC_DATA@@@Z ; CRemotePlayer::StoreOnFootFullSyncData
PUBLIC	?StoreInCarFullSyncData@CRemotePlayer@@QAEXPAU_INCAR_SYNC_DATA@@@Z ; CRemotePlayer::StoreInCarFullSyncData
PUBLIC	?StorePassengerFullSyncData@CRemotePlayer@@QAEXPAU_PASSENGER_SYNC_DATA@@@Z ; CRemotePlayer::StorePassengerFullSyncData
PUBLIC	?StoreTrailerFullSyncData@CRemotePlayer@@QAEXPAU_TRAILER_SYNC_DATA@@@Z ; CRemotePlayer::StoreTrailerFullSyncData
PUBLIC	?Spawn@CRemotePlayer@@QAEHEHPAU_VECTOR@@MK@Z	; CRemotePlayer::Spawn
PUBLIC	?HandleDeath@CRemotePlayer@@QAEXXZ		; CRemotePlayer::HandleDeath
PUBLIC	?ResetAllSyncAttributes@CRemotePlayer@@QAEXXZ	; CRemotePlayer::ResetAllSyncAttributes
PUBLIC	?GetDistanceFromRemotePlayer@CRemotePlayer@@QAEMPAV1@@Z ; CRemotePlayer::GetDistanceFromRemotePlayer
PUBLIC	?GetDistanceFromLocalPlayer@CRemotePlayer@@QAEMXZ ; CRemotePlayer::GetDistanceFromLocalPlayer
PUBLIC	?SetPlayerColor@CRemotePlayer@@QAEXK@Z		; CRemotePlayer::SetPlayerColor
PUBLIC	?GetPlayerColorAsRGBA@CRemotePlayer@@QAEKXZ	; CRemotePlayer::GetPlayerColorAsRGBA
PUBLIC	?GetPlayerColorAsARGB@CRemotePlayer@@QAEKXZ	; CRemotePlayer::GetPlayerColorAsARGB
PUBLIC	?EnterVehicle@CRemotePlayer@@QAEXGH@Z		; CRemotePlayer::EnterVehicle
PUBLIC	?ExitVehicle@CRemotePlayer@@QAEXXZ		; CRemotePlayer::ExitVehicle
PUBLIC	?StateChange@CRemotePlayer@@QAEXEE@Z		; CRemotePlayer::StateChange
PUBLIC	?SetState@CRemotePlayer@@QAEXE@Z		; CRemotePlayer::SetState
PUBLIC	?GetPlayerName@CPlayerPool@@QAEPADE@Z		; CPlayerPool::GetPlayerName
PUBLIC	?GetLocalPlayer@CPlayerPool@@QAEPAVCLocalPlayer@@XZ ; CPlayerPool::GetLocalPlayer
PUBLIC	?GetAt@CVehiclePool@@QAEPAVCVehicle@@G@Z	; CVehiclePool::GetAt
PUBLIC	?GetPlayerPool@CNetGame@@QAEPAVCPlayerPool@@XZ	; CNetGame::GetPlayerPool
PUBLIC	?GetVehiclePool@CNetGame@@QAEPAVCVehiclePool@@XZ ; CNetGame::GetVehiclePool
PUBLIC	??_C@_0M@KHFAPNLB@FollowPedSA?$AA@		; `string'
PUBLIC	??_C@_0BD@BPPCHFDC@PM?5from?5?$CFs?$CI?$CFd?$CJ?3?5?$CFs?$AA@ ; `string'
PUBLIC	??_C@_0BI@EOHHFAPA@Team?5PM?5from?5?$CFs?$CI?$CFd?$CJ?3?5?$CFs?$AA@ ; `string'
PUBLIC	??_C@_0BC@MFLMFHIM@?$HOr?$HOCar?5Jacked?$HOw?$HO?$CB?$AA@ ; `string'
PUBLIC	__real@00000000
PUBLIC	__real@38d1b717
PUBLIC	__real@3b03126f
PUBLIC	__real@3ccccccd
PUBLIC	__real@3dcccccd
PUBLIC	__real@3e800000
PUBLIC	__real@3f000000
PUBLIC	__real@3f800000
PUBLIC	__real@40200000
PUBLIC	__real@40a00000
PUBLIC	__real@41000000
PUBLIC	__real@41200000
PUBLIC	__real@41a00000
PUBLIC	__real@427c0000
PUBLIC	__real@42c80000
PUBLIC	__real@43480000
PUBLIC	__real@447a0000
PUBLIC	__real@461c4000
EXTRN	??2@YAPAXI@Z:PROC				; operator new
EXTRN	??3@YAXPAX@Z:PROC				; operator delete
EXTRN	_sprintf:PROC
EXTRN	_memcpy:PROC
EXTRN	_memset:PROC
EXTRN	__imp__GetTickCount@0:PROC
EXTRN	_sqrt:PROC
EXTRN	?IsAdded@CEntity@@QAEHXZ:PROC			; CEntity::IsAdded
EXTRN	?GetMatrix@CEntity@@QAEXPAU_MATRIX4X4@@@Z:PROC	; CEntity::GetMatrix
EXTRN	?SetMatrix@CEntity@@QAEXU_MATRIX4X4@@@Z:PROC	; CEntity::SetMatrix
EXTRN	?GetMoveSpeedVector@CEntity@@QAEXPAU_VECTOR@@@Z:PROC ; CEntity::GetMoveSpeedVector
EXTRN	?SetMoveSpeedVector@CEntity@@QAEXU_VECTOR@@@Z:PROC ; CEntity::SetMoveSpeedVector
EXTRN	?GetTurnSpeedVector@CEntity@@QAEXPAU_VECTOR@@@Z:PROC ; CEntity::GetTurnSpeedVector
EXTRN	?GetModelIndex@CEntity@@QAEIXZ:PROC		; CEntity::GetModelIndex
EXTRN	?TeleportTo@CEntity@@QAEXMMM@Z:PROC		; CEntity::TeleportTo
EXTRN	?GetDistanceFromLocalPlayerPed@CEntity@@QAEMXZ:PROC ; CEntity::GetDistanceFromLocalPlayerPed
EXTRN	?ApplyMoveSpeed@CEntity@@QAEXXZ:PROC		; CEntity::ApplyMoveSpeed
EXTRN	?GetVehicleSubtype@CVehicle@@QAEIXZ:PROC	; CVehicle::GetVehicleSubtype
EXTRN	?SetHealth@CVehicle@@QAEXM@Z:PROC		; CVehicle::SetHealth
EXTRN	?SetHydraThrusters@CVehicle@@QAEXK@Z:PROC	; CVehicle::SetHydraThrusters
EXTRN	?SetTrainSpeed@CVehicle@@QAEXM@Z:PROC		; CVehicle::SetTrainSpeed
EXTRN	?SetSirenOn@CVehicle@@QAEXH@Z:PROC		; CVehicle::SetSirenOn
EXTRN	?SetLandingGearState@CVehicle@@QAEXW4eLandingGearState@@@Z:PROC ; CVehicle::SetLandingGearState
EXTRN	?SetWheelPopped@CVehicle@@QAEXKK@Z:PROC		; CVehicle::SetWheelPopped
EXTRN	?AttachTrailer@CVehicle@@QAEXXZ:PROC		; CVehicle::AttachTrailer
EXTRN	?DetachTrailer@CVehicle@@QAEXXZ:PROC		; CVehicle::DetachTrailer
EXTRN	?SetTrailer@CVehicle@@QAEXPAV1@@Z:PROC		; CVehicle::SetTrailer
EXTRN	?GetTrailer@CVehicle@@QAEPAV1@XZ:PROC		; CVehicle::GetTrailer
EXTRN	?IsRCVehicle@CVehicle@@QAEHXZ:PROC		; CVehicle::IsRCVehicle
EXTRN	?VerifyInstance@CVehicle@@QAEHXZ:PROC		; CVehicle::VerifyInstance
EXTRN	?GameGetRemotePlayerAim@@YGPAU_CAMERA_AIM@@H@Z:PROC ; GameGetRemotePlayerAim
EXTRN	?GameSetPlayerCameraMode@@YGXEE@Z:PROC		; GameSetPlayerCameraMode
EXTRN	?GameSetPlayerCameraExtZoom@@YGXEM@Z:PROC	; GameSetPlayerCameraExtZoom
EXTRN	?SetKeys@CPlayerPed@@QAEXGGG@Z:PROC		; CPlayerPed::SetKeys
EXTRN	?SetCurrentAim@CPlayerPed@@QAEXPAU_CAMERA_AIM@@@Z:PROC ; CPlayerPed::SetCurrentAim
EXTRN	?Destroy@CPlayerPed@@QAEXXZ:PROC		; CPlayerPed::Destroy
EXTRN	?GetCurrentWeapon@CPlayerPed@@QAEEXZ:PROC	; CPlayerPed::GetCurrentWeapon
EXTRN	?SetHealth@CPlayerPed@@QAEXM@Z:PROC		; CPlayerPed::SetHealth
EXTRN	?IsInVehicle@CPlayerPed@@QAEHXZ:PROC		; CPlayerPed::IsInVehicle
EXTRN	?GetActionTrigger@CPlayerPed@@QAEEXZ:PROC	; CPlayerPed::GetActionTrigger
EXTRN	?SetTargetRotation@CPlayerPed@@QAEXM@Z:PROC	; CPlayerPed::SetTargetRotation
EXTRN	?ForceTargetRotation@CPlayerPed@@QAEXM@Z:PROC	; CPlayerPed::ForceTargetRotation
EXTRN	?GiveWeapon@CPlayerPed@@QAEXHH@Z:PROC		; CPlayerPed::GiveWeapon
EXTRN	?SetArmedWeapon@CPlayerPed@@QAEXH@Z:PROC	; CPlayerPed::SetArmedWeapon
EXTRN	?GetCurrentWeaponSlot@CPlayerPed@@QAEPAU_WEAPON_SLOT_TYPE@@XZ:PROC ; CPlayerPed::GetCurrentWeaponSlot
EXTRN	?PutDirectlyInVehicle@CPlayerPed@@QAEXHH@Z:PROC	; CPlayerPed::PutDirectlyInVehicle
EXTRN	?EnterVehicle@CPlayerPed@@QAEXHH@Z:PROC		; CPlayerPed::EnterVehicle
EXTRN	?ExitCurrentVehicle@CPlayerPed@@QAEXXZ:PROC	; CPlayerPed::ExitCurrentVehicle
EXTRN	?RemoveFromVehicleAndPutAt@CPlayerPed@@QAEXMMM@Z:PROC ; CPlayerPed::RemoveFromVehicleAndPutAt
EXTRN	?IsAPassenger@CPlayerPed@@QAEHXZ:PROC		; CPlayerPed::IsAPassenger
EXTRN	?GetGtaVehicle@CPlayerPed@@QAEPAU_VEHICLE_TYPE@@XZ:PROC ; CPlayerPed::GetGtaVehicle
EXTRN	?StartJetpack@CPlayerPed@@QAEXXZ:PROC		; CPlayerPed::StartJetpack
EXTRN	?StopJetpack@CPlayerPed@@QAEXXZ:PROC		; CPlayerPed::StopJetpack
EXTRN	?IsInJetpackMode@CPlayerPed@@QAEHXZ:PROC	; CPlayerPed::IsInJetpackMode
EXTRN	?StartPassengerDriveByMode@CPlayerPed@@QAEHXZ:PROC ; CPlayerPed::StartPassengerDriveByMode
EXTRN	?SetCollisionChecking@CPlayerPed@@QAEXH@Z:PROC	; CPlayerPed::SetCollisionChecking
EXTRN	?SetGravityProcessing@CPlayerPed@@QAEXH@Z:PROC	; CPlayerPed::SetGravityProcessing
EXTRN	?SetDead@CPlayerPed@@QAEXXZ:PROC		; CPlayerPed::SetDead
EXTRN	?IsOnGround@CPlayerPed@@QAEHXZ:PROC		; CPlayerPed::IsOnGround
EXTRN	??0CPlayerPed@@QAE@XZ:PROC			; CPlayerPed::CPlayerPed
EXTRN	?ProcessVehicleHorn@CPlayerPed@@QAEXXZ:PROC	; CPlayerPed::ProcessVehicleHorn
EXTRN	?ProcessParachutes@CPlayerPed@@QAEXXZ:PROC	; CPlayerPed::ProcessParachutes
EXTRN	?CheckVehicleParachute@CPlayerPed@@QAEXXZ:PROC	; CPlayerPed::CheckVehicleParachute
EXTRN	?StartDancing@CPlayerPed@@QAEXH@Z:PROC		; CPlayerPed::StartDancing
EXTRN	?StopDancing@CPlayerPed@@QAEXXZ:PROC		; CPlayerPed::StopDancing
EXTRN	?IsDancing@CPlayerPed@@QAEHXZ:PROC		; CPlayerPed::IsDancing
EXTRN	?ProcessDancing@CPlayerPed@@QAEXXZ:PROC		; CPlayerPed::ProcessDancing
EXTRN	?HandsUp@CPlayerPed@@QAEXXZ:PROC		; CPlayerPed::HandsUp
EXTRN	?HasHandsUp@CPlayerPed@@QAEHXZ:PROC		; CPlayerPed::HasHandsUp
EXTRN	?StartPissing@CPlayerPed@@QAEXXZ:PROC		; CPlayerPed::StartPissing
EXTRN	?StopPissing@CPlayerPed@@QAEXXZ:PROC		; CPlayerPed::StopPissing
EXTRN	?IsPissing@CPlayerPed@@QAEHXZ:PROC		; CPlayerPed::IsPissing
EXTRN	?ProcessMarkers@CPlayerPed@@QAEXHMH@Z:PROC	; CPlayerPed::ProcessMarkers
EXTRN	?ApplyCommandTask@CPlayerPed@@QAEXPADHHHPAU_VECTOR@@HMHHH@Z:PROC ; CPlayerPed::ApplyCommandTask
EXTRN	?ToggleCellphone@CPlayerPed@@QAEXH@Z:PROC	; CPlayerPed::ToggleCellphone
EXTRN	?IsCellphoneEnabled@CPlayerPed@@QAEHXZ:PROC	; CPlayerPed::IsCellphoneEnabled
EXTRN	?SetAimZ@CPlayerPed@@QAEXM@Z:PROC		; CPlayerPed::SetAimZ
EXTRN	?NewPlayer@CGame@@QAEPAVCPlayerPed@@HHMMMME@Z:PROC ; CGame::NewPlayer
EXTRN	?IsGameLoaded@CGame@@QAEHXZ:PROC		; CGame::IsGameLoaded
EXTRN	?DisplayGameText@CGame@@QAEXPADHH@Z:PROC	; CGame::DisplayGameText
EXTRN	?FindIDFromGtaPtr@CVehiclePool@@QAEGPAU_VEHICLE_TYPE@@@Z:PROC ; CVehiclePool::FindIDFromGtaPtr
EXTRN	?FindGtaIDFromID@CVehiclePool@@QAEHH@Z:PROC	; CVehiclePool::FindGtaIDFromID
EXTRN	?AddChatMessage@CChatWindow@@QAEXPADK0@Z:PROC	; CChatWindow::AddChatMessage
EXTRN	?AddClientMessage@CChatWindow@@QAEXKPAD@Z:PROC	; CChatWindow::AddClientMessage
EXTRN	?DecompressNormalVector@@YAXPAU_VECTOR@@PAU_C_VECTOR1@@@Z:PROC ; DecompressNormalVector
EXTRN	?FloatOffset@@YAMMM@Z:PROC			; FloatOffset
EXTRN	?SetRadarColor@@YGXEK@Z:PROC			; SetRadarColor
EXTRN	?TranslateColorCodeToRGBA@@YGKH@Z:PROC		; TranslateColorCodeToRGBA
EXTRN	@_RTC_CheckStackVars@8:PROC
EXTRN	@__security_check_cookie@4:PROC
EXTRN	__RTC_CheckEsp:PROC
EXTRN	__RTC_InitBase:PROC
EXTRN	__RTC_Shutdown:PROC
EXTRN	___CxxFrameHandler3:PROC
EXTRN	?pGame@@3PAVCGame@@A:DWORD			; pGame
EXTRN	?pChatWindow@@3PAVCChatWindow@@A:DWORD		; pChatWindow
EXTRN	?pNetGame@@3PAVCNetGame@@A:DWORD		; pNetGame
EXTRN	___security_cookie:DWORD
EXTRN	__fltused:DWORD
;	COMDAT __real@461c4000
CONST	SEGMENT
__real@461c4000 DD 0461c4000r			; 10000
CONST	ENDS
;	COMDAT __real@447a0000
CONST	SEGMENT
__real@447a0000 DD 0447a0000r			; 1000
CONST	ENDS
;	COMDAT __real@43480000
CONST	SEGMENT
__real@43480000 DD 043480000r			; 200
CONST	ENDS
;	COMDAT __real@42c80000
CONST	SEGMENT
__real@42c80000 DD 042c80000r			; 100
CONST	ENDS
;	COMDAT __real@427c0000
CONST	SEGMENT
__real@427c0000 DD 0427c0000r			; 63
CONST	ENDS
;	COMDAT __real@41a00000
CONST	SEGMENT
__real@41a00000 DD 041a00000r			; 20
CONST	ENDS
;	COMDAT __real@41200000
CONST	SEGMENT
__real@41200000 DD 041200000r			; 10
CONST	ENDS
;	COMDAT __real@41000000
CONST	SEGMENT
__real@41000000 DD 041000000r			; 8
CONST	ENDS
;	COMDAT __real@40a00000
CONST	SEGMENT
__real@40a00000 DD 040a00000r			; 5
CONST	ENDS
;	COMDAT __real@40200000
CONST	SEGMENT
__real@40200000 DD 040200000r			; 2.5
CONST	ENDS
;	COMDAT __real@3f800000
CONST	SEGMENT
__real@3f800000 DD 03f800000r			; 1
CONST	ENDS
;	COMDAT __real@3f000000
CONST	SEGMENT
__real@3f000000 DD 03f000000r			; 0.5
CONST	ENDS
;	COMDAT __real@3e800000
CONST	SEGMENT
__real@3e800000 DD 03e800000r			; 0.25
CONST	ENDS
;	COMDAT __real@3dcccccd
CONST	SEGMENT
__real@3dcccccd DD 03dcccccdr			; 0.1
CONST	ENDS
;	COMDAT __real@3ccccccd
CONST	SEGMENT
__real@3ccccccd DD 03ccccccdr			; 0.025
CONST	ENDS
;	COMDAT __real@3b03126f
CONST	SEGMENT
__real@3b03126f DD 03b03126fr			; 0.002
CONST	ENDS
;	COMDAT __real@38d1b717
CONST	SEGMENT
__real@38d1b717 DD 038d1b717r			; 0.0001
CONST	ENDS
;	COMDAT __real@00000000
CONST	SEGMENT
__real@00000000 DD 000000000r			; 0
CONST	ENDS
;	COMDAT rtc$TMZ
rtc$TMZ	SEGMENT
__RTC_Shutdown.rtc$TMZ DD FLAT:__RTC_Shutdown
rtc$TMZ	ENDS
;	COMDAT rtc$IMZ
rtc$IMZ	SEGMENT
__RTC_InitBase.rtc$IMZ DD FLAT:__RTC_InitBase
rtc$IMZ	ENDS
;	COMDAT ??_C@_0BC@MFLMFHIM@?$HOr?$HOCar?5Jacked?$HOw?$HO?$CB?$AA@
CONST	SEGMENT
??_C@_0BC@MFLMFHIM@?$HOr?$HOCar?5Jacked?$HOw?$HO?$CB?$AA@ DB '~r~Car Jack'
	DB	'ed~w~!', 00H				; `string'
CONST	ENDS
;	COMDAT ??_C@_0BI@EOHHFAPA@Team?5PM?5from?5?$CFs?$CI?$CFd?$CJ?3?5?$CFs?$AA@
CONST	SEGMENT
??_C@_0BI@EOHHFAPA@Team?5PM?5from?5?$CFs?$CI?$CFd?$CJ?3?5?$CFs?$AA@ DB 'T'
	DB	'eam PM from %s(%d): %s', 00H		; `string'
CONST	ENDS
;	COMDAT ??_C@_0BD@BPPCHFDC@PM?5from?5?$CFs?$CI?$CFd?$CJ?3?5?$CFs?$AA@
CONST	SEGMENT
??_C@_0BD@BPPCHFDC@PM?5from?5?$CFs?$CI?$CFd?$CJ?3?5?$CFs?$AA@ DB 'PM from'
	DB	' %s(%d): %s', 00H				; `string'
CONST	ENDS
;	COMDAT ??_C@_0M@KHFAPNLB@FollowPedSA?$AA@
CONST	SEGMENT
??_C@_0M@KHFAPNLB@FollowPedSA?$AA@ DB 'FollowPedSA', 00H ; `string'
CONST	ENDS
;	COMDAT xdata$x
xdata$x	SEGMENT
__unwindtable$?FindPlayerPed@CGame@@QAEPAVCPlayerPed@@XZ DD 0ffffffffH
	DD	FLAT:__unwindfunclet$?FindPlayerPed@CGame@@QAEPAVCPlayerPed@@XZ$0
__ehfuncinfo$?FindPlayerPed@CGame@@QAEPAVCPlayerPed@@XZ DD 019930522H
	DD	01H
	DD	FLAT:__unwindtable$?FindPlayerPed@CGame@@QAEPAVCPlayerPed@@XZ
	DD	2 DUP(00H)
	DD	2 DUP(00H)
	DD	00H
	DD	01H
xdata$x	ENDS
; Function compile flags: /Odtp /RTCsu /ZI
; File z:\sampsrc\02xu1\saco\net\netgame.h
;	COMDAT ?GetVehiclePool@CNetGame@@QAEPAVCVehiclePool@@XZ
_TEXT	SEGMENT
_this$ = -8						; size = 4
?GetVehiclePool@CNetGame@@QAEPAVCVehiclePool@@XZ PROC	; CNetGame::GetVehiclePool, COMDAT
; _this$ = ecx

; 97   : 	CVehiclePool * GetVehiclePool() { return m_pVehiclePool; };

	push	ebp
	mov	ebp, esp
	sub	esp, 204				; 000000ccH
	push	ebx
	push	esi
	push	edi
	push	ecx
	lea	edi, DWORD PTR [ebp-204]
	mov	ecx, 51					; 00000033H
	mov	eax, -858993460				; ccccccccH
	rep stosd
	pop	ecx
	mov	DWORD PTR _this$[ebp], ecx
	mov	eax, DWORD PTR _this$[ebp]
	mov	eax, DWORD PTR [eax+24]
	pop	edi
	pop	esi
	pop	ebx
	mov	esp, ebp
	pop	ebp
	ret	0
?GetVehiclePool@CNetGame@@QAEPAVCVehiclePool@@XZ ENDP	; CNetGame::GetVehiclePool
_TEXT	ENDS
; Function compile flags: /Odtp /RTCsu /ZI
; File z:\sampsrc\02xu1\saco\net\netgame.h
;	COMDAT ?GetPlayerPool@CNetGame@@QAEPAVCPlayerPool@@XZ
_TEXT	SEGMENT
_this$ = -8						; size = 4
?GetPlayerPool@CNetGame@@QAEPAVCPlayerPool@@XZ PROC	; CNetGame::GetPlayerPool, COMDAT
; _this$ = ecx

; 96   : 	CPlayerPool * GetPlayerPool() { return m_pPlayerPool; };

	push	ebp
	mov	ebp, esp
	sub	esp, 204				; 000000ccH
	push	ebx
	push	esi
	push	edi
	push	ecx
	lea	edi, DWORD PTR [ebp-204]
	mov	ecx, 51					; 00000033H
	mov	eax, -858993460				; ccccccccH
	rep stosd
	pop	ecx
	mov	DWORD PTR _this$[ebp], ecx
	mov	eax, DWORD PTR _this$[ebp]
	mov	eax, DWORD PTR [eax+16]
	pop	edi
	pop	esi
	pop	ebx
	mov	esp, ebp
	pop	ebp
	ret	0
?GetPlayerPool@CNetGame@@QAEPAVCPlayerPool@@XZ ENDP	; CNetGame::GetPlayerPool
_TEXT	ENDS
; Function compile flags: /Odtp /RTCsu /ZI
; File z:\sampsrc\02xu1\saco\net\vehiclepool.h
;	COMDAT ?GetAt@CVehiclePool@@QAEPAVCVehicle@@G@Z
_TEXT	SEGMENT
_this$ = -8						; size = 4
_VehicleID$ = 8						; size = 2
?GetAt@CVehiclePool@@QAEPAVCVehicle@@G@Z PROC		; CVehiclePool::GetAt, COMDAT
; _this$ = ecx

; 58   : 	CVehicle* GetAt(VEHICLEID VehicleID) {

	push	ebp
	mov	ebp, esp
	sub	esp, 204				; 000000ccH
	push	ebx
	push	esi
	push	edi
	push	ecx
	lea	edi, DWORD PTR [ebp-204]
	mov	ecx, 51					; 00000033H
	mov	eax, -858993460				; ccccccccH
	rep stosd
	pop	ecx
	mov	DWORD PTR _this$[ebp], ecx

; 59   : 		if(VehicleID >= MAX_VEHICLES || !m_bVehicleSlotState[VehicleID]) { return NULL; }

	movzx	eax, WORD PTR _VehicleID$[ebp]
	cmp	eax, 702				; 000002beH
	jge	SHORT $LN1@GetAt
	movzx	eax, WORD PTR _VehicleID$[ebp]
	mov	ecx, DWORD PTR _this$[ebp]
	cmp	DWORD PTR [ecx+eax*4], 0
	jne	SHORT $LN2@GetAt
$LN1@GetAt:
	xor	eax, eax
	jmp	SHORT $LN3@GetAt
$LN2@GetAt:

; 60   : 		return m_pVehicles[VehicleID];

	movzx	eax, WORD PTR _VehicleID$[ebp]
	mov	ecx, DWORD PTR _this$[ebp]
	mov	eax, DWORD PTR [ecx+eax*4+2808]
$LN3@GetAt:

; 61   : 	};

	pop	edi
	pop	esi
	pop	ebx
	mov	esp, ebp
	pop	ebp
	ret	4
?GetAt@CVehiclePool@@QAEPAVCVehicle@@G@Z ENDP		; CVehiclePool::GetAt
_TEXT	ENDS
; Function compile flags: /Odtp /RTCsu /ZI
; File z:\sampsrc\02xu1\saco\net\playerpool.h
;	COMDAT ?GetLocalPlayer@CPlayerPool@@QAEPAVCLocalPlayer@@XZ
_TEXT	SEGMENT
_this$ = -8						; size = 4
?GetLocalPlayer@CPlayerPool@@QAEPAVCLocalPlayer@@XZ PROC ; CPlayerPool::GetLocalPlayer, COMDAT
; _this$ = ecx

; 46   : 	CLocalPlayer * GetLocalPlayer() { return m_pLocalPlayer; };

	push	ebp
	mov	ebp, esp
	sub	esp, 204				; 000000ccH
	push	ebx
	push	esi
	push	edi
	push	ecx
	lea	edi, DWORD PTR [ebp-204]
	mov	ecx, 51					; 00000033H
	mov	eax, -858993460				; ccccccccH
	rep stosd
	pop	ecx
	mov	DWORD PTR _this$[ebp], ecx
	mov	eax, DWORD PTR _this$[ebp]
	mov	eax, DWORD PTR [eax]
	pop	edi
	pop	esi
	pop	ebx
	mov	esp, ebp
	pop	ebp
	ret	0
?GetLocalPlayer@CPlayerPool@@QAEPAVCLocalPlayer@@XZ ENDP ; CPlayerPool::GetLocalPlayer
_TEXT	ENDS
; Function compile flags: /Odtp /RTCsu /ZI
; File z:\sampsrc\02xu1\saco\net\playerpool.h
;	COMDAT ?GetPlayerName@CPlayerPool@@QAEPADE@Z
_TEXT	SEGMENT
_this$ = -8						; size = 4
_bytePlayerID$ = 8					; size = 1
?GetPlayerName@CPlayerPool@@QAEPADE@Z PROC		; CPlayerPool::GetPlayerName, COMDAT
; _this$ = ecx

; 41   : 	PCHAR GetPlayerName(BYTE bytePlayerID) { return m_szPlayerNames[bytePlayerID]; };

	push	ebp
	mov	ebp, esp
	sub	esp, 204				; 000000ccH
	push	ebx
	push	esi
	push	edi
	push	ecx
	lea	edi, DWORD PTR [ebp-204]
	mov	ecx, 51					; 00000033H
	mov	eax, -858993460				; ccccccccH
	rep stosd
	pop	ecx
	mov	DWORD PTR _this$[ebp], ecx
	movzx	eax, BYTE PTR _bytePlayerID$[ebp]
	imul	ecx, eax, 25
	mov	edx, DWORD PTR _this$[ebp]
	lea	eax, DWORD PTR [edx+ecx+4093]
	pop	edi
	pop	esi
	pop	ebx
	mov	esp, ebp
	pop	ebp
	ret	4
?GetPlayerName@CPlayerPool@@QAEPADE@Z ENDP		; CPlayerPool::GetPlayerName
_TEXT	ENDS
; Function compile flags: /Odtp /RTCsu /ZI
; File z:\sampsrc\02xu1\saco\net\remoteplayer.h
;	COMDAT ?SetState@CRemotePlayer@@QAEXE@Z
_TEXT	SEGMENT
_this$ = -8						; size = 4
_byteState$ = 8						; size = 1
?SetState@CRemotePlayer@@QAEXE@Z PROC			; CRemotePlayer::SetState, COMDAT
; _this$ = ecx

; 155  : 	void SetState(BYTE byteState) {	

	push	ebp
	mov	ebp, esp
	sub	esp, 204				; 000000ccH
	push	ebx
	push	esi
	push	edi
	push	ecx
	lea	edi, DWORD PTR [ebp-204]
	mov	ecx, 51					; 00000033H
	mov	eax, -858993460				; ccccccccH
	rep stosd
	pop	ecx
	mov	DWORD PTR _this$[ebp], ecx

; 156  : 		if(byteState != m_byteState) {

	movzx	eax, BYTE PTR _byteState$[ebp]
	mov	ecx, DWORD PTR _this$[ebp]
	movzx	edx, BYTE PTR [ecx+315]
	cmp	eax, edx
	je	SHORT $LN2@SetState

; 157  : 			StateChange(byteState,m_byteState);

	mov	eax, DWORD PTR _this$[ebp]
	movzx	ecx, BYTE PTR [eax+315]
	push	ecx
	movzx	edx, BYTE PTR _byteState$[ebp]
	push	edx
	mov	ecx, DWORD PTR _this$[ebp]
	call	?StateChange@CRemotePlayer@@QAEXEE@Z	; CRemotePlayer::StateChange

; 158  : 			m_byteState = byteState;	

	mov	eax, DWORD PTR _this$[ebp]
	mov	cl, BYTE PTR _byteState$[ebp]
	mov	BYTE PTR [eax+315], cl
$LN2@SetState:

; 159  : 		}
; 160  : 	};

	pop	edi
	pop	esi
	pop	ebx
	add	esp, 204				; 000000ccH
	cmp	ebp, esp
	call	__RTC_CheckEsp
	mov	esp, ebp
	pop	ebp
	ret	4
?SetState@CRemotePlayer@@QAEXE@Z ENDP			; CRemotePlayer::SetState
_TEXT	ENDS
; Function compile flags: /Odtp /RTCsu /ZI
; File z:\sampsrc\02xu1\saco\net\remoteplayer.cpp
;	COMDAT ?StateChange@CRemotePlayer@@QAEXEE@Z
_TEXT	SEGMENT
_mat$1 = -108						; size = 64
_LocalVehicle$2 = -36					; size = 2
_pLocalPlayerPed$3 = -24				; size = 4
_this$ = -12						; size = 4
__$ArrayPad$ = -4					; size = 4
_byteNewState$ = 8					; size = 1
_byteOldState$ = 12					; size = 1
?StateChange@CRemotePlayer@@QAEXEE@Z PROC		; CRemotePlayer::StateChange, COMDAT
; _this$ = ecx

; 1114 : {

	push	ebp
	mov	ebp, esp
	sub	esp, 304				; 00000130H
	push	ebx
	push	esi
	push	edi
	push	ecx
	lea	edi, DWORD PTR [ebp-304]
	mov	ecx, 76					; 0000004cH
	mov	eax, -858993460				; ccccccccH
	rep stosd
	pop	ecx
	mov	eax, DWORD PTR ___security_cookie
	xor	eax, ebp
	mov	DWORD PTR __$ArrayPad$[ebp], eax
	mov	DWORD PTR _this$[ebp], ecx

; 1115 : 	if(byteNewState == PLAYER_STATE_DRIVER && byteOldState == PLAYER_STATE_ONFOOT)

	movzx	eax, BYTE PTR _byteNewState$[ebp]
	cmp	eax, 2
	jne	$LN1@StateChang
	movzx	eax, BYTE PTR _byteOldState$[ebp]
	cmp	eax, 1
	jne	$LN1@StateChang

; 1116 : 	{
; 1117 : 		// If their new vehicle is the one the local player
; 1118 : 		// is driving, we'll have to kick the local player out
; 1119 : 		CPlayerPed *pLocalPlayerPed = pGame->FindPlayerPed();

	mov	ecx, DWORD PTR ?pGame@@3PAVCGame@@A	; pGame
	call	?FindPlayerPed@CGame@@QAEPAVCPlayerPed@@XZ ; CGame::FindPlayerPed
	mov	DWORD PTR _pLocalPlayerPed$3[ebp], eax

; 1120 : 		VEHICLEID LocalVehicle=0xFFFF;

	mov	eax, 65535				; 0000ffffH
	mov	WORD PTR _LocalVehicle$2[ebp], ax

; 1121 : 		MATRIX4X4 mat;
; 1122 : 
; 1123 : 		if(pLocalPlayerPed && pLocalPlayerPed->IsInVehicle() && !pLocalPlayerPed->IsAPassenger())

	cmp	DWORD PTR _pLocalPlayerPed$3[ebp], 0
	je	$LN1@StateChang
	mov	ecx, DWORD PTR _pLocalPlayerPed$3[ebp]
	call	?IsInVehicle@CPlayerPed@@QAEHXZ		; CPlayerPed::IsInVehicle
	test	eax, eax
	je	$LN1@StateChang
	mov	ecx, DWORD PTR _pLocalPlayerPed$3[ebp]
	call	?IsAPassenger@CPlayerPed@@QAEHXZ	; CPlayerPed::IsAPassenger
	test	eax, eax
	jne	$LN1@StateChang

; 1124 : 		{
; 1125 : 			LocalVehicle = pNetGame->GetVehiclePool()->FindIDFromGtaPtr(pLocalPlayerPed->GetGtaVehicle());

	mov	ecx, DWORD PTR _pLocalPlayerPed$3[ebp]
	call	?GetGtaVehicle@CPlayerPed@@QAEPAU_VEHICLE_TYPE@@XZ ; CPlayerPed::GetGtaVehicle
	push	eax
	mov	ecx, DWORD PTR ?pNetGame@@3PAVCNetGame@@A ; pNetGame
	call	?GetVehiclePool@CNetGame@@QAEPAVCVehiclePool@@XZ ; CNetGame::GetVehiclePool
	mov	ecx, eax
	call	?FindIDFromGtaPtr@CVehiclePool@@QAEGPAU_VEHICLE_TYPE@@@Z ; CVehiclePool::FindIDFromGtaPtr
	mov	WORD PTR _LocalVehicle$2[ebp], ax

; 1126 : 			if(LocalVehicle == m_VehicleID) {

	movzx	eax, WORD PTR _LocalVehicle$2[ebp]
	mov	ecx, DWORD PTR _this$[ebp]
	movzx	edx, WORD PTR [ecx+316]
	cmp	eax, edx
	jne	SHORT $LN1@StateChang

; 1127 : 				pLocalPlayerPed->GetMatrix(&mat);

	lea	eax, DWORD PTR _mat$1[ebp]
	push	eax
	mov	ecx, DWORD PTR _pLocalPlayerPed$3[ebp]
	call	?GetMatrix@CEntity@@QAEXPAU_MATRIX4X4@@@Z ; CEntity::GetMatrix

; 1128 : 				pLocalPlayerPed->RemoveFromVehicleAndPutAt(mat.pos.X,mat.pos.Y,mat.pos.Z + 1.0f);	

	movss	xmm0, DWORD PTR _mat$1[ebp+56]
	addss	xmm0, DWORD PTR __real@3f800000
	push	ecx
	movss	DWORD PTR [esp], xmm0
	push	ecx
	movss	xmm0, DWORD PTR _mat$1[ebp+52]
	movss	DWORD PTR [esp], xmm0
	push	ecx
	movss	xmm0, DWORD PTR _mat$1[ebp+48]
	movss	DWORD PTR [esp], xmm0
	mov	ecx, DWORD PTR _pLocalPlayerPed$3[ebp]
	call	?RemoveFromVehicleAndPutAt@CPlayerPed@@QAEXMMM@Z ; CPlayerPed::RemoveFromVehicleAndPutAt

; 1129 : 				pGame->DisplayGameText("~r~Car Jacked~w~!",1000,5);

	push	5
	push	1000					; 000003e8H
	push	OFFSET ??_C@_0BC@MFLMFHIM@?$HOr?$HOCar?5Jacked?$HOw?$HO?$CB?$AA@
	mov	ecx, DWORD PTR ?pGame@@3PAVCGame@@A	; pGame
	call	?DisplayGameText@CGame@@QAEXPADHH@Z	; CGame::DisplayGameText
$LN1@StateChang:

; 1130 : 			}
; 1131 : 		}
; 1132 : 	}	
; 1133 : }

	push	edx
	mov	ecx, ebp
	push	eax
	lea	edx, DWORD PTR $LN8@StateChang
	call	@_RTC_CheckStackVars@8
	pop	eax
	pop	edx
	pop	edi
	pop	esi
	pop	ebx
	mov	ecx, DWORD PTR __$ArrayPad$[ebp]
	xor	ecx, ebp
	call	@__security_check_cookie@4
	add	esp, 304				; 00000130H
	cmp	ebp, esp
	call	__RTC_CheckEsp
	mov	esp, ebp
	pop	ebp
	ret	8
	npad	2
$LN8@StateChang:
	DD	1
	DD	$LN7@StateChang
$LN7@StateChang:
	DD	-108					; ffffff94H
	DD	64					; 00000040H
	DD	$LN6@StateChang
$LN6@StateChang:
	DB	109					; 0000006dH
	DB	97					; 00000061H
	DB	116					; 00000074H
	DB	0
?StateChange@CRemotePlayer@@QAEXEE@Z ENDP		; CRemotePlayer::StateChange
_TEXT	ENDS
; Function compile flags: /Odtp /RTCsu /ZI
; File z:\sampsrc\02xu1\saco\net\remoteplayer.cpp
;	COMDAT ?ExitVehicle@CRemotePlayer@@QAEXXZ
_TEXT	SEGMENT
tv133 = -208						; size = 4
_this$ = -8						; size = 4
?ExitVehicle@CRemotePlayer@@QAEXXZ PROC			; CRemotePlayer::ExitVehicle, COMDAT
; _this$ = ecx

; 1099 : {

	push	ebp
	mov	ebp, esp
	sub	esp, 208				; 000000d0H
	push	ebx
	push	esi
	push	edi
	push	ecx
	lea	edi, DWORD PTR [ebp-208]
	mov	ecx, 52					; 00000034H
	mov	eax, -858993460				; ccccccccH
	rep stosd
	pop	ecx
	mov	DWORD PTR _this$[ebp], ecx

; 1100 : 	if(m_pPlayerPed && m_pPlayerPed->IsInVehicle()) {

	mov	eax, DWORD PTR _this$[ebp]
	cmp	DWORD PTR [eax], 0
	je	SHORT $LN1@ExitVehicl
	mov	eax, DWORD PTR _this$[ebp]
	mov	ecx, DWORD PTR [eax]
	call	?IsInVehicle@CPlayerPed@@QAEHXZ		; CPlayerPed::IsInVehicle
	test	eax, eax
	je	SHORT $LN1@ExitVehicl

; 1101 : 		SetState(PLAYER_STATE_EXIT_VEHICLE);

	push	4
	mov	ecx, DWORD PTR _this$[ebp]
	call	?SetState@CRemotePlayer@@QAEXE@Z	; CRemotePlayer::SetState

; 1102 : 		m_pPlayerPed->SetKeys(0,0,0);

	push	0
	push	0
	push	0
	mov	eax, DWORD PTR _this$[ebp]
	mov	ecx, DWORD PTR [eax]
	call	?SetKeys@CPlayerPed@@QAEXGGG@Z		; CPlayerPed::SetKeys

; 1103 : 		if(m_bVisible && m_pPlayerPed->GetDistanceFromLocalPlayerPed() < 200.0f) {

	mov	eax, DWORD PTR _this$[ebp]
	cmp	DWORD PTR [eax+336], 0
	je	SHORT $LN1@ExitVehicl
	mov	eax, DWORD PTR _this$[ebp]
	mov	ecx, DWORD PTR [eax]
	call	?GetDistanceFromLocalPlayerPed@CEntity@@QAEMXZ ; CEntity::GetDistanceFromLocalPlayerPed
	fstp	DWORD PTR tv133[ebp]
	movss	xmm0, DWORD PTR __real@43480000
	comiss	xmm0, DWORD PTR tv133[ebp]
	jbe	SHORT $LN1@ExitVehicl

; 1104 : 			m_pPlayerPed->ExitCurrentVehicle();

	mov	eax, DWORD PTR _this$[ebp]
	mov	ecx, DWORD PTR [eax]
	call	?ExitCurrentVehicle@CPlayerPed@@QAEXXZ	; CPlayerPed::ExitCurrentVehicle
$LN1@ExitVehicl:

; 1105 : 		}
; 1106 : 	}
; 1107 : 	m_dwWaitForEntryExitAnims = GetTickCount() + 1500;

	mov	esi, esp
	call	DWORD PTR __imp__GetTickCount@0
	cmp	esi, esp
	call	__RTC_CheckEsp
	add	eax, 1500				; 000005dcH
	mov	ecx, DWORD PTR _this$[ebp]
	mov	DWORD PTR [ecx+348], eax

; 1108 : }

	pop	edi
	pop	esi
	pop	ebx
	add	esp, 208				; 000000d0H
	cmp	ebp, esp
	call	__RTC_CheckEsp
	mov	esp, ebp
	pop	ebp
	ret	0
?ExitVehicle@CRemotePlayer@@QAEXXZ ENDP			; CRemotePlayer::ExitVehicle
_TEXT	ENDS
; Function compile flags: /Odtp /RTCsu /ZI
; File z:\sampsrc\02xu1\saco\net\remoteplayer.cpp
;	COMDAT ?EnterVehicle@CRemotePlayer@@QAEXGH@Z
_TEXT	SEGMENT
_pVehicle$ = -32					; size = 4
_pVehiclePool$ = -20					; size = 4
_this$ = -8						; size = 4
_VehicleID$ = 8						; size = 2
_bPassenger$ = 12					; size = 4
?EnterVehicle@CRemotePlayer@@QAEXGH@Z PROC		; CRemotePlayer::EnterVehicle, COMDAT
; _this$ = ecx

; 1075 : {

	push	ebp
	mov	ebp, esp
	sub	esp, 228				; 000000e4H
	push	ebx
	push	esi
	push	edi
	push	ecx
	lea	edi, DWORD PTR [ebp-228]
	mov	ecx, 57					; 00000039H
	mov	eax, -858993460				; ccccccccH
	rep stosd
	pop	ecx
	mov	DWORD PTR _this$[ebp], ecx

; 1076 : 	CVehiclePool *pVehiclePool = pNetGame->GetVehiclePool();

	mov	ecx, DWORD PTR ?pNetGame@@3PAVCNetGame@@A ; pNetGame
	call	?GetVehiclePool@CNetGame@@QAEPAVCVehiclePool@@XZ ; CNetGame::GetVehiclePool
	mov	DWORD PTR _pVehiclePool$[ebp], eax

; 1077 : 	CVehicle *pVehicle = pVehiclePool->GetAt(VehicleID);

	movzx	eax, WORD PTR _VehicleID$[ebp]
	push	eax
	mov	ecx, DWORD PTR _pVehiclePool$[ebp]
	call	?GetAt@CVehiclePool@@QAEPAVCVehicle@@G@Z ; CVehiclePool::GetAt
	mov	DWORD PTR _pVehicle$[ebp], eax

; 1078 : 
; 1079 : 	if(m_pPlayerPed && pVehicle && !m_pPlayerPed->IsInVehicle()) {

	mov	eax, DWORD PTR _this$[ebp]
	cmp	DWORD PTR [eax], 0
	je	$LN4@EnterVehic
	cmp	DWORD PTR _pVehicle$[ebp], 0
	je	SHORT $LN4@EnterVehic
	mov	eax, DWORD PTR _this$[ebp]
	mov	ecx, DWORD PTR [eax]
	call	?IsInVehicle@CPlayerPed@@QAEHXZ		; CPlayerPed::IsInVehicle
	test	eax, eax
	jne	SHORT $LN4@EnterVehic

; 1080 : 
; 1081 : 		if(bPassenger) {

	cmp	DWORD PTR _bPassenger$[ebp], 0
	je	SHORT $LN3@EnterVehic

; 1082 : 			SetState(PLAYER_STATE_ENTER_VEHICLE_PASSENGER);

	push	6
	mov	ecx, DWORD PTR _this$[ebp]
	call	?SetState@CRemotePlayer@@QAEXE@Z	; CRemotePlayer::SetState

; 1083 : 		} else {

	jmp	SHORT $LN2@EnterVehic
$LN3@EnterVehic:

; 1084 : 			SetState(PLAYER_STATE_ENTER_VEHICLE_DRIVER);

	push	5
	mov	ecx, DWORD PTR _this$[ebp]
	call	?SetState@CRemotePlayer@@QAEXE@Z	; CRemotePlayer::SetState
$LN2@EnterVehic:

; 1085 : 		}
; 1086 : 		
; 1087 : 		m_pPlayerPed->SetKeys(0,0,0);

	push	0
	push	0
	push	0
	mov	eax, DWORD PTR _this$[ebp]
	mov	ecx, DWORD PTR [eax]
	call	?SetKeys@CPlayerPed@@QAEXGGG@Z		; CPlayerPed::SetKeys

; 1088 : 
; 1089 : 		if(m_bVisible && m_pPlayerPed->IsAdded() && pVehicle->IsAdded()) {

	mov	eax, DWORD PTR _this$[ebp]
	cmp	DWORD PTR [eax+336], 0
	je	SHORT $LN4@EnterVehic
	mov	eax, DWORD PTR _this$[ebp]
	mov	ecx, DWORD PTR [eax]
	call	?IsAdded@CEntity@@QAEHXZ		; CEntity::IsAdded
	test	eax, eax
	je	SHORT $LN4@EnterVehic
	mov	ecx, DWORD PTR _pVehicle$[ebp]
	call	?IsAdded@CEntity@@QAEHXZ		; CEntity::IsAdded
	test	eax, eax
	je	SHORT $LN4@EnterVehic

; 1090 : 			m_pPlayerPed->EnterVehicle(pVehiclePool->FindGtaIDFromID(VehicleID),bPassenger);

	mov	eax, DWORD PTR _bPassenger$[ebp]
	push	eax
	movzx	ecx, WORD PTR _VehicleID$[ebp]
	push	ecx
	mov	ecx, DWORD PTR _pVehiclePool$[ebp]
	call	?FindGtaIDFromID@CVehiclePool@@QAEHH@Z	; CVehiclePool::FindGtaIDFromID
	push	eax
	mov	edx, DWORD PTR _this$[ebp]
	mov	ecx, DWORD PTR [edx]
	call	?EnterVehicle@CPlayerPed@@QAEXHH@Z	; CPlayerPed::EnterVehicle
$LN4@EnterVehic:

; 1091 : 		}
; 1092 : 	}
; 1093 : 	m_dwWaitForEntryExitAnims = GetTickCount() + 1500;

	mov	esi, esp
	call	DWORD PTR __imp__GetTickCount@0
	cmp	esi, esp
	call	__RTC_CheckEsp
	add	eax, 1500				; 000005dcH
	mov	ecx, DWORD PTR _this$[ebp]
	mov	DWORD PTR [ecx+348], eax

; 1094 : }

	pop	edi
	pop	esi
	pop	ebx
	add	esp, 228				; 000000e4H
	cmp	ebp, esp
	call	__RTC_CheckEsp
	mov	esp, ebp
	pop	ebp
	ret	8
?EnterVehicle@CRemotePlayer@@QAEXGH@Z ENDP		; CRemotePlayer::EnterVehicle
_TEXT	ENDS
; Function compile flags: /Odtp /RTCsu /ZI
; File z:\sampsrc\02xu1\saco\net\remoteplayer.cpp
;	COMDAT ?GetPlayerColorAsARGB@CRemotePlayer@@QAEKXZ
_TEXT	SEGMENT
_this$ = -8						; size = 4
?GetPlayerColorAsARGB@CRemotePlayer@@QAEKXZ PROC	; CRemotePlayer::GetPlayerColorAsARGB, COMDAT
; _this$ = ecx

; 1068 : {

	push	ebp
	mov	ebp, esp
	sub	esp, 204				; 000000ccH
	push	ebx
	push	esi
	push	edi
	push	ecx
	lea	edi, DWORD PTR [ebp-204]
	mov	ecx, 51					; 00000033H
	mov	eax, -858993460				; ccccccccH
	rep stosd
	pop	ecx
	mov	DWORD PTR _this$[ebp], ecx

; 1069 : 	return (TranslateColorCodeToRGBA(m_bytePlayerID) >> 8) | 0xFF000000;	

	mov	eax, DWORD PTR _this$[ebp]
	movzx	ecx, BYTE PTR [eax+4]
	push	ecx
	call	?TranslateColorCodeToRGBA@@YGKH@Z	; TranslateColorCodeToRGBA
	shr	eax, 8
	or	eax, -16777216				; ff000000H

; 1070 : }

	pop	edi
	pop	esi
	pop	ebx
	add	esp, 204				; 000000ccH
	cmp	ebp, esp
	call	__RTC_CheckEsp
	mov	esp, ebp
	pop	ebp
	ret	0
?GetPlayerColorAsARGB@CRemotePlayer@@QAEKXZ ENDP	; CRemotePlayer::GetPlayerColorAsARGB
_TEXT	ENDS
; Function compile flags: /Odtp /RTCsu /ZI
; File z:\sampsrc\02xu1\saco\net\remoteplayer.cpp
;	COMDAT ?GetPlayerColorAsRGBA@CRemotePlayer@@QAEKXZ
_TEXT	SEGMENT
_this$ = -8						; size = 4
?GetPlayerColorAsRGBA@CRemotePlayer@@QAEKXZ PROC	; CRemotePlayer::GetPlayerColorAsRGBA, COMDAT
; _this$ = ecx

; 1061 : {

	push	ebp
	mov	ebp, esp
	sub	esp, 204				; 000000ccH
	push	ebx
	push	esi
	push	edi
	push	ecx
	lea	edi, DWORD PTR [ebp-204]
	mov	ecx, 51					; 00000033H
	mov	eax, -858993460				; ccccccccH
	rep stosd
	pop	ecx
	mov	DWORD PTR _this$[ebp], ecx

; 1062 : 	return TranslateColorCodeToRGBA(m_bytePlayerID);

	mov	eax, DWORD PTR _this$[ebp]
	movzx	ecx, BYTE PTR [eax+4]
	push	ecx
	call	?TranslateColorCodeToRGBA@@YGKH@Z	; TranslateColorCodeToRGBA

; 1063 : }

	pop	edi
	pop	esi
	pop	ebx
	add	esp, 204				; 000000ccH
	cmp	ebp, esp
	call	__RTC_CheckEsp
	mov	esp, ebp
	pop	ebp
	ret	0
?GetPlayerColorAsRGBA@CRemotePlayer@@QAEKXZ ENDP	; CRemotePlayer::GetPlayerColorAsRGBA
_TEXT	ENDS
; Function compile flags: /Odtp /RTCsu /ZI
; File z:\sampsrc\02xu1\saco\net\remoteplayer.cpp
;	COMDAT ?SetPlayerColor@CRemotePlayer@@QAEXK@Z
_TEXT	SEGMENT
_this$ = -8						; size = 4
_dwColor$ = 8						; size = 4
?SetPlayerColor@CRemotePlayer@@QAEXK@Z PROC		; CRemotePlayer::SetPlayerColor, COMDAT
; _this$ = ecx

; 1054 : {

	push	ebp
	mov	ebp, esp
	sub	esp, 204				; 000000ccH
	push	ebx
	push	esi
	push	edi
	push	ecx
	lea	edi, DWORD PTR [ebp-204]
	mov	ecx, 51					; 00000033H
	mov	eax, -858993460				; ccccccccH
	rep stosd
	pop	ecx
	mov	DWORD PTR _this$[ebp], ecx

; 1055 : 	SetRadarColor(m_bytePlayerID,dwColor);	

	mov	eax, DWORD PTR _dwColor$[ebp]
	push	eax
	mov	ecx, DWORD PTR _this$[ebp]
	movzx	edx, BYTE PTR [ecx+4]
	push	edx
	call	?SetRadarColor@@YGXEK@Z			; SetRadarColor

; 1056 : }

	pop	edi
	pop	esi
	pop	ebx
	add	esp, 204				; 000000ccH
	cmp	ebp, esp
	call	__RTC_CheckEsp
	mov	esp, ebp
	pop	ebp
	ret	4
?SetPlayerColor@CRemotePlayer@@QAEXK@Z ENDP		; CRemotePlayer::SetPlayerColor
_TEXT	ENDS
; Function compile flags: /Odtp /RTCsu /ZI
; File z:\sampsrc\02xu1\saco\net\remoteplayer.cpp
;	COMDAT ?GetDistanceFromLocalPlayer@CRemotePlayer@@QAEMXZ
_TEXT	SEGMENT
_this$ = -8						; size = 4
?GetDistanceFromLocalPlayer@CRemotePlayer@@QAEMXZ PROC	; CRemotePlayer::GetDistanceFromLocalPlayer, COMDAT
; _this$ = ecx

; 1041 : {

	push	ebp
	mov	ebp, esp
	sub	esp, 204				; 000000ccH
	push	ebx
	push	esi
	push	edi
	push	ecx
	lea	edi, DWORD PTR [ebp-204]
	mov	ecx, 51					; 00000033H
	mov	eax, -858993460				; ccccccccH
	rep stosd
	pop	ecx
	mov	DWORD PTR _this$[ebp], ecx

; 1042 : 	if(!m_pPlayerPed) return 10000.0f; // very far away

	mov	eax, DWORD PTR _this$[ebp]
	cmp	DWORD PTR [eax], 0
	jne	SHORT $LN3@GetDistanc
	fld	DWORD PTR __real@461c4000
	jmp	SHORT $LN1@GetDistanc
$LN3@GetDistanc:

; 1043 : 
; 1044 : 	if(GetState() == PLAYER_STATE_DRIVER && m_pCurrentVehicle && m_pPlayerPed->IsInVehicle()) {

	mov	ecx, DWORD PTR _this$[ebp]
	call	?GetState@CRemotePlayer@@QAEEXZ		; CRemotePlayer::GetState
	movzx	eax, al
	cmp	eax, 2
	jne	SHORT $LN2@GetDistanc
	mov	eax, DWORD PTR _this$[ebp]
	cmp	DWORD PTR [eax+311], 0
	je	SHORT $LN2@GetDistanc
	mov	eax, DWORD PTR _this$[ebp]
	mov	ecx, DWORD PTR [eax]
	call	?IsInVehicle@CPlayerPed@@QAEHXZ		; CPlayerPed::IsInVehicle
	test	eax, eax
	je	SHORT $LN2@GetDistanc

; 1045 : 		return m_pCurrentVehicle->GetDistanceFromLocalPlayerPed();

	mov	eax, DWORD PTR _this$[ebp]
	mov	ecx, DWORD PTR [eax+311]
	call	?GetDistanceFromLocalPlayerPed@CEntity@@QAEMXZ ; CEntity::GetDistanceFromLocalPlayerPed
	jmp	SHORT $LN1@GetDistanc

; 1046 : 	} else {

	jmp	SHORT $LN1@GetDistanc
$LN2@GetDistanc:

; 1047 : 		return m_pPlayerPed->GetDistanceFromLocalPlayerPed();

	mov	eax, DWORD PTR _this$[ebp]
	mov	ecx, DWORD PTR [eax]
	call	?GetDistanceFromLocalPlayerPed@CEntity@@QAEMXZ ; CEntity::GetDistanceFromLocalPlayerPed
$LN1@GetDistanc:

; 1048 : 	}
; 1049 : }

	pop	edi
	pop	esi
	pop	ebx
	add	esp, 204				; 000000ccH
	cmp	ebp, esp
	call	__RTC_CheckEsp
	mov	esp, ebp
	pop	ebp
	ret	0
?GetDistanceFromLocalPlayer@CRemotePlayer@@QAEMXZ ENDP	; CRemotePlayer::GetDistanceFromLocalPlayer
_TEXT	ENDS
; Function compile flags: /Odtp /RTCsu /ZI
; File z:\sampsrc\02xu1\saco\net\remoteplayer.cpp
;	COMDAT ?GetDistanceFromRemotePlayer@CRemotePlayer@@QAEMPAV1@@Z
_TEXT	SEGMENT
_fSZ$ = -192						; size = 4
_fSY$ = -180						; size = 4
_fSX$ = -168						; size = 4
_matThisPlayer$ = -156					; size = 64
_matFromPlayer$ = -84					; size = 64
_this$ = -12						; size = 4
__$ArrayPad$ = -4					; size = 4
_pFromPlayer$ = 8					; size = 4
?GetDistanceFromRemotePlayer@CRemotePlayer@@QAEMPAV1@@Z PROC ; CRemotePlayer::GetDistanceFromRemotePlayer, COMDAT
; _this$ = ecx

; 1020 : {

	push	ebp
	mov	ebp, esp
	sub	esp, 388				; 00000184H
	push	ebx
	push	esi
	push	edi
	push	ecx
	lea	edi, DWORD PTR [ebp-388]
	mov	ecx, 97					; 00000061H
	mov	eax, -858993460				; ccccccccH
	rep stosd
	pop	ecx
	mov	eax, DWORD PTR ___security_cookie
	xor	eax, ebp
	mov	DWORD PTR __$ArrayPad$[ebp], eax
	mov	DWORD PTR _this$[ebp], ecx

; 1021 : 	MATRIX4X4	matFromPlayer;
; 1022 : 	MATRIX4X4	matThisPlayer;
; 1023 : 
; 1024 : 	float		fSX,fSY,fSZ;
; 1025 : 
; 1026 : 	if(!m_pPlayerPed) return 10000.0f; // very far away

	mov	eax, DWORD PTR _this$[ebp]
	cmp	DWORD PTR [eax], 0
	jne	SHORT $LN1@GetDistanc
	fld	DWORD PTR __real@461c4000
	jmp	$LN2@GetDistanc
$LN1@GetDistanc:

; 1027 : 	
; 1028 : 	m_pPlayerPed->GetMatrix(&matThisPlayer);

	lea	eax, DWORD PTR _matThisPlayer$[ebp]
	push	eax
	mov	ecx, DWORD PTR _this$[ebp]
	mov	ecx, DWORD PTR [ecx]
	call	?GetMatrix@CEntity@@QAEXPAU_MATRIX4X4@@@Z ; CEntity::GetMatrix

; 1029 : 	pFromPlayer->GetPlayerPed()->GetMatrix(&matFromPlayer);

	lea	eax, DWORD PTR _matFromPlayer$[ebp]
	push	eax
	mov	ecx, DWORD PTR _pFromPlayer$[ebp]
	call	?GetPlayerPed@CRemotePlayer@@QAEPAVCPlayerPed@@XZ ; CRemotePlayer::GetPlayerPed
	mov	ecx, eax
	call	?GetMatrix@CEntity@@QAEXPAU_MATRIX4X4@@@Z ; CEntity::GetMatrix

; 1030 : 	
; 1031 : 	fSX = (matThisPlayer.pos.X - matFromPlayer.pos.X) * (matThisPlayer.pos.X - matFromPlayer.pos.X);

	movss	xmm0, DWORD PTR _matThisPlayer$[ebp+48]
	subss	xmm0, DWORD PTR _matFromPlayer$[ebp+48]
	movss	xmm1, DWORD PTR _matThisPlayer$[ebp+48]
	subss	xmm1, DWORD PTR _matFromPlayer$[ebp+48]
	mulss	xmm0, xmm1
	movss	DWORD PTR _fSX$[ebp], xmm0

; 1032 : 	fSY = (matThisPlayer.pos.Y - matFromPlayer.pos.Y) * (matThisPlayer.pos.Y - matFromPlayer.pos.Y);

	movss	xmm0, DWORD PTR _matThisPlayer$[ebp+52]
	subss	xmm0, DWORD PTR _matFromPlayer$[ebp+52]
	movss	xmm1, DWORD PTR _matThisPlayer$[ebp+52]
	subss	xmm1, DWORD PTR _matFromPlayer$[ebp+52]
	mulss	xmm0, xmm1
	movss	DWORD PTR _fSY$[ebp], xmm0

; 1033 : 	fSZ = (matThisPlayer.pos.Z - matFromPlayer.pos.Z) * (matThisPlayer.pos.Z - matFromPlayer.pos.Z);

	movss	xmm0, DWORD PTR _matThisPlayer$[ebp+56]
	subss	xmm0, DWORD PTR _matFromPlayer$[ebp+56]
	movss	xmm1, DWORD PTR _matThisPlayer$[ebp+56]
	subss	xmm1, DWORD PTR _matFromPlayer$[ebp+56]
	mulss	xmm0, xmm1
	movss	DWORD PTR _fSZ$[ebp], xmm0

; 1034 : 		
; 1035 : 	return (float)sqrt(fSX + fSY + fSZ);	

	movss	xmm0, DWORD PTR _fSX$[ebp]
	addss	xmm0, DWORD PTR _fSY$[ebp]
	addss	xmm0, DWORD PTR _fSZ$[ebp]
	push	ecx
	movss	DWORD PTR [esp], xmm0
	call	?sqrt@@YAMM@Z				; sqrt
	add	esp, 4
$LN2@GetDistanc:

; 1036 : }

	push	edx
	mov	ecx, ebp
	push	eax
	lea	edx, DWORD PTR $LN7@GetDistanc
	call	@_RTC_CheckStackVars@8
	pop	eax
	pop	edx
	pop	edi
	pop	esi
	pop	ebx
	mov	ecx, DWORD PTR __$ArrayPad$[ebp]
	xor	ecx, ebp
	call	@__security_check_cookie@4
	add	esp, 388				; 00000184H
	cmp	ebp, esp
	call	__RTC_CheckEsp
	mov	esp, ebp
	pop	ebp
	ret	4
	npad	1
$LN7@GetDistanc:
	DD	2
	DD	$LN6@GetDistanc
$LN6@GetDistanc:
	DD	-84					; ffffffacH
	DD	64					; 00000040H
	DD	$LN4@GetDistanc
	DD	-156					; ffffff64H
	DD	64					; 00000040H
	DD	$LN5@GetDistanc
$LN5@GetDistanc:
	DB	109					; 0000006dH
	DB	97					; 00000061H
	DB	116					; 00000074H
	DB	84					; 00000054H
	DB	104					; 00000068H
	DB	105					; 00000069H
	DB	115					; 00000073H
	DB	80					; 00000050H
	DB	108					; 0000006cH
	DB	97					; 00000061H
	DB	121					; 00000079H
	DB	101					; 00000065H
	DB	114					; 00000072H
	DB	0
$LN4@GetDistanc:
	DB	109					; 0000006dH
	DB	97					; 00000061H
	DB	116					; 00000074H
	DB	70					; 00000046H
	DB	114					; 00000072H
	DB	111					; 0000006fH
	DB	109					; 0000006dH
	DB	80					; 00000050H
	DB	108					; 0000006cH
	DB	97					; 00000061H
	DB	121					; 00000079H
	DB	101					; 00000065H
	DB	114					; 00000072H
	DB	0
?GetDistanceFromRemotePlayer@CRemotePlayer@@QAEMPAV1@@Z ENDP ; CRemotePlayer::GetDistanceFromRemotePlayer
_TEXT	ENDS
; Function compile flags: /Odtp /RTCsu /ZI
; File z:\sampsrc\02xu1\saco\net\remoteplayer.cpp
;	COMDAT ?ResetAllSyncAttributes@CRemotePlayer@@QAEXXZ
_TEXT	SEGMENT
_this$ = -8						; size = 4
?ResetAllSyncAttributes@CRemotePlayer@@QAEXXZ PROC	; CRemotePlayer::ResetAllSyncAttributes, COMDAT
; _this$ = ecx

; 957  : {	

	push	ebp
	mov	ebp, esp
	sub	esp, 204				; 000000ccH
	push	ebx
	push	esi
	push	edi
	push	ecx
	lea	edi, DWORD PTR [ebp-204]
	mov	ecx, 51					; 00000033H
	mov	eax, -858993460				; ccccccccH
	rep stosd
	pop	ecx
	mov	DWORD PTR _this$[ebp], ecx

; 958  : 	m_VehicleID = 0;

	xor	eax, eax
	mov	ecx, DWORD PTR _this$[ebp]
	mov	WORD PTR [ecx+316], ax

; 959  : 	memset(&m_ofSync,0,sizeof(ONFOOT_SYNC_DATA));

	push	52					; 00000034H
	push	0
	mov	eax, DWORD PTR _this$[ebp]
	add	eax, 6
	push	eax
	call	_memset
	add	esp, 12					; 0000000cH

; 960  : 	memset(&m_icSync,0,sizeof(INCAR_SYNC_DATA));

	push	73					; 00000049H
	push	0
	mov	eax, DWORD PTR _this$[ebp]
	add	eax, 58					; 0000003aH
	push	eax
	call	_memset
	add	esp, 12					; 0000000cH

; 961  : 	memset(&m_psSync,0,sizeof(PASSENGER_SYNC_DATA));

	push	24					; 00000018H
	push	0
	mov	eax, DWORD PTR _this$[ebp]
	add	eax, 131				; 00000083H
	push	eax
	call	_memset
	add	esp, 12					; 0000000cH

; 962  : 	memset(&m_aimSync,0,sizeof(AIM_SYNC_DATA));

	push	42					; 0000002aH
	push	0
	mov	eax, DWORD PTR _this$[ebp]
	add	eax, 155				; 0000009bH
	push	eax
	call	_memset
	add	esp, 12					; 0000000cH

; 963  : 	m_fReportedHealth = 0.0f;

	mov	eax, DWORD PTR _this$[ebp]
	movss	xmm0, DWORD PTR __real@00000000
	movss	DWORD PTR [eax+340], xmm0

; 964  : 	m_fReportedArmour = 0.0f;

	mov	eax, DWORD PTR _this$[ebp]
	movss	xmm0, DWORD PTR __real@00000000
	movss	DWORD PTR [eax+344], xmm0

; 965  : 	m_pCurrentVehicle = NULL;

	mov	eax, DWORD PTR _this$[ebp]
	mov	DWORD PTR [eax+311], 0

; 966  : 	m_byteSeatID = 0;

	mov	eax, DWORD PTR _this$[ebp]
	mov	BYTE PTR [eax+318], 0

; 967  : 	m_bPassengerDriveByMode = FALSE;

	mov	eax, DWORD PTR _this$[ebp]
	mov	DWORD PTR [eax+320], 0

; 968  : 	m_iIsInAModShop = 0;

	mov	eax, DWORD PTR _this$[ebp]
	mov	DWORD PTR [eax+352], 0

; 969  : 	m_dwWaitForEntryExitAnims = GetTickCount();

	mov	esi, esp
	call	DWORD PTR __imp__GetTickCount@0
	cmp	esi, esp
	call	__RTC_CheckEsp
	mov	ecx, DWORD PTR _this$[ebp]
	mov	DWORD PTR [ecx+348], eax

; 970  : }

	pop	edi
	pop	esi
	pop	ebx
	add	esp, 204				; 000000ccH
	cmp	ebp, esp
	call	__RTC_CheckEsp
	mov	esp, ebp
	pop	ebp
	ret	0
?ResetAllSyncAttributes@CRemotePlayer@@QAEXXZ ENDP	; CRemotePlayer::ResetAllSyncAttributes
_TEXT	ENDS
; Function compile flags: /Odtp /RTCsu /ZI
; File z:\sampsrc\02xu1\saco\net\remoteplayer.cpp
;	COMDAT ?HandleDeath@CRemotePlayer@@QAEXXZ
_TEXT	SEGMENT
_pLocalPlayer$ = -20					; size = 4
_this$ = -8						; size = 4
?HandleDeath@CRemotePlayer@@QAEXXZ PROC			; CRemotePlayer::HandleDeath, COMDAT
; _this$ = ecx

; 975  : {

	push	ebp
	mov	ebp, esp
	sub	esp, 216				; 000000d8H
	push	ebx
	push	esi
	push	edi
	push	ecx
	lea	edi, DWORD PTR [ebp-216]
	mov	ecx, 54					; 00000036H
	mov	eax, -858993460				; ccccccccH
	rep stosd
	pop	ecx
	mov	DWORD PTR _this$[ebp], ecx

; 976  : 	CLocalPlayer *pLocalPlayer = pNetGame->GetPlayerPool()->GetLocalPlayer();

	mov	ecx, DWORD PTR ?pNetGame@@3PAVCNetGame@@A ; pNetGame
	call	?GetPlayerPool@CNetGame@@QAEPAVCPlayerPool@@XZ ; CNetGame::GetPlayerPool
	mov	ecx, eax
	call	?GetLocalPlayer@CPlayerPool@@QAEPAVCLocalPlayer@@XZ ; CPlayerPool::GetLocalPlayer
	mov	DWORD PTR _pLocalPlayer$[ebp], eax

; 977  : 	if (pLocalPlayer->IsSpectating() && pLocalPlayer->m_SpectateID == m_bytePlayerID) {

	mov	ecx, DWORD PTR _pLocalPlayer$[ebp]
	call	?IsSpectating@CLocalPlayer@@QAEHXZ	; CLocalPlayer::IsSpectating

; 978  : 			//pLocalPlayer->ToggleSpectating(FALSE);
; 979  : 	}
; 980  : 	if(m_pPlayerPed) {

	mov	eax, DWORD PTR _this$[ebp]
	cmp	DWORD PTR [eax], 0
	je	SHORT $LN1@HandleDeat

; 981  : 		m_pPlayerPed->SetKeys(0,0,0);

	push	0
	push	0
	push	0
	mov	eax, DWORD PTR _this$[ebp]
	mov	ecx, DWORD PTR [eax]
	call	?SetKeys@CPlayerPed@@QAEXGGG@Z		; CPlayerPed::SetKeys

; 982  : 		m_pPlayerPed->SetDead();

	mov	eax, DWORD PTR _this$[ebp]
	mov	ecx, DWORD PTR [eax]
	call	?SetDead@CPlayerPed@@QAEXXZ		; CPlayerPed::SetDead
$LN1@HandleDeat:

; 983  : 	}
; 984  : 	SetState(PLAYER_STATE_WASTED);

	push	7
	mov	ecx, DWORD PTR _this$[ebp]
	call	?SetState@CRemotePlayer@@QAEXE@Z	; CRemotePlayer::SetState

; 985  : 	ResetAllSyncAttributes();

	mov	ecx, DWORD PTR _this$[ebp]
	call	?ResetAllSyncAttributes@CRemotePlayer@@QAEXXZ ; CRemotePlayer::ResetAllSyncAttributes

; 986  : }

	pop	edi
	pop	esi
	pop	ebx
	add	esp, 216				; 000000d8H
	cmp	ebp, esp
	call	__RTC_CheckEsp
	mov	esp, ebp
	pop	ebp
	ret	0
?HandleDeath@CRemotePlayer@@QAEXXZ ENDP			; CRemotePlayer::HandleDeath
_TEXT	ENDS
; Function compile flags: /Odtp /RTCsu /ZI
; File z:\sampsrc\02xu1\saco\net\remoteplayer.cpp
;	COMDAT ?Spawn@CRemotePlayer@@QAEHEHPAU_VECTOR@@MK@Z
_TEXT	SEGMENT
tv82 = -244						; size = 4
$T1 = -236						; size = 4
$T2 = -224						; size = 4
_pPlayer$ = -20						; size = 4
_this$ = -8						; size = 4
_byteTeam$ = 8						; size = 1
_iSkin$ = 12						; size = 4
_vecPos$ = 16						; size = 4
_fRotation$ = 20					; size = 4
_dwColor$ = 24						; size = 4
?Spawn@CRemotePlayer@@QAEHEHPAU_VECTOR@@MK@Z PROC	; CRemotePlayer::Spawn, COMDAT
; _this$ = ecx

; 925  : {

	push	ebp
	mov	ebp, esp
	sub	esp, 244				; 000000f4H
	push	ebx
	push	esi
	push	edi
	push	ecx
	lea	edi, DWORD PTR [ebp-244]
	mov	ecx, 61					; 0000003dH
	mov	eax, -858993460				; ccccccccH
	rep stosd
	pop	ecx
	mov	DWORD PTR _this$[ebp], ecx

; 926  : 	if(!pGame->IsGameLoaded()) return FALSE;

	mov	ecx, DWORD PTR ?pGame@@3PAVCGame@@A	; pGame
	call	?IsGameLoaded@CGame@@QAEHXZ		; CGame::IsGameLoaded
	test	eax, eax
	jne	SHORT $LN4@Spawn
	xor	eax, eax
	jmp	$LN5@Spawn
$LN4@Spawn:

; 927  : 
; 928  : 	if(m_pPlayerPed != NULL) {

	mov	eax, DWORD PTR _this$[ebp]
	cmp	DWORD PTR [eax], 0
	je	SHORT $LN8@Spawn

; 929  : 		m_pPlayerPed->Destroy();

	mov	eax, DWORD PTR _this$[ebp]
	mov	ecx, DWORD PTR [eax]
	call	?Destroy@CPlayerPed@@QAEXXZ		; CPlayerPed::Destroy

; 930  : 		delete m_pPlayerPed;

	mov	eax, DWORD PTR _this$[ebp]
	mov	ecx, DWORD PTR [eax]
	mov	DWORD PTR $T2[ebp], ecx
	mov	edx, DWORD PTR $T2[ebp]
	mov	DWORD PTR $T1[ebp], edx
	cmp	DWORD PTR $T1[ebp], 0
	je	SHORT $LN7@Spawn
	mov	esi, esp
	push	1
	mov	eax, DWORD PTR $T1[ebp]
	mov	edx, DWORD PTR [eax]
	mov	ecx, DWORD PTR $T1[ebp]
	mov	eax, DWORD PTR [edx]
	call	eax
	cmp	esi, esp
	call	__RTC_CheckEsp
	mov	DWORD PTR tv82[ebp], eax
	jmp	SHORT $LN8@Spawn
$LN7@Spawn:
	mov	DWORD PTR tv82[ebp], 0
$LN8@Spawn:

; 931  : 	}
; 932  : 
; 933  : 	CPlayerPed *pPlayer = pGame->NewPlayer(m_bytePlayerID+2,iSkin,vecPos->X,
; 934  : 		vecPos->Y,vecPos->Z,fRotation,pNetGame->m_bShowPlayerMarkers); // the +2 is because we can't use 0 or 1, even though the server does.

	mov	eax, DWORD PTR ?pNetGame@@3PAVCNetGame@@A ; pNetGame
	movzx	ecx, BYTE PTR [eax+58]
	push	ecx
	push	ecx
	movss	xmm0, DWORD PTR _fRotation$[ebp]
	movss	DWORD PTR [esp], xmm0
	mov	edx, DWORD PTR _vecPos$[ebp]
	push	ecx
	movss	xmm0, DWORD PTR [edx+8]
	movss	DWORD PTR [esp], xmm0
	mov	eax, DWORD PTR _vecPos$[ebp]
	push	ecx
	movss	xmm0, DWORD PTR [eax+4]
	movss	DWORD PTR [esp], xmm0
	mov	ecx, DWORD PTR _vecPos$[ebp]
	push	ecx
	movss	xmm0, DWORD PTR [ecx]
	movss	DWORD PTR [esp], xmm0
	mov	edx, DWORD PTR _iSkin$[ebp]
	push	edx
	mov	eax, DWORD PTR _this$[ebp]
	movzx	ecx, BYTE PTR [eax+4]
	add	ecx, 2
	push	ecx
	mov	ecx, DWORD PTR ?pGame@@3PAVCGame@@A	; pGame
	call	?NewPlayer@CGame@@QAEPAVCPlayerPed@@HHMMMME@Z ; CGame::NewPlayer
	mov	DWORD PTR _pPlayer$[ebp], eax

; 935  : 	
; 936  : 	if(pPlayer) 

	cmp	DWORD PTR _pPlayer$[ebp], 0
	je	SHORT $LN2@Spawn

; 937  : 	{
; 938  : 		if(dwColor!=0) SetPlayerColor(dwColor);

	cmp	DWORD PTR _dwColor$[ebp], 0
	je	SHORT $LN1@Spawn
	mov	eax, DWORD PTR _dwColor$[ebp]
	push	eax
	mov	ecx, DWORD PTR _this$[ebp]
	call	?SetPlayerColor@CRemotePlayer@@QAEXK@Z	; CRemotePlayer::SetPlayerColor
$LN1@Spawn:

; 939  : 
; 940  : 		m_pPlayerPed = pPlayer;

	mov	eax, DWORD PTR _this$[ebp]
	mov	ecx, DWORD PTR _pPlayer$[ebp]
	mov	DWORD PTR [eax], ecx

; 941  : 		m_fReportedHealth = 100.0f;

	mov	eax, DWORD PTR _this$[ebp]
	movss	xmm0, DWORD PTR __real@42c80000
	movss	DWORD PTR [eax+340], xmm0

; 942  : 		pPlayer->SetKeys(0,0,0);

	push	0
	push	0
	push	0
	mov	ecx, DWORD PTR _pPlayer$[ebp]
	call	?SetKeys@CPlayerPed@@QAEXGGG@Z		; CPlayerPed::SetKeys

; 943  : 		ResetAllSyncAttributes();

	mov	ecx, DWORD PTR _this$[ebp]
	call	?ResetAllSyncAttributes@CRemotePlayer@@QAEXXZ ; CRemotePlayer::ResetAllSyncAttributes

; 944  : 
; 945  : 		SetState(PLAYER_STATE_SPAWNED);

	push	8
	mov	ecx, DWORD PTR _this$[ebp]
	call	?SetState@CRemotePlayer@@QAEXE@Z	; CRemotePlayer::SetState

; 946  : 
; 947  : 		return TRUE;

	mov	eax, 1
	jmp	SHORT $LN5@Spawn
$LN2@Spawn:

; 948  : 	}
; 949  : 
; 950  : 	SetState(PLAYER_STATE_NONE);

	push	0
	mov	ecx, DWORD PTR _this$[ebp]
	call	?SetState@CRemotePlayer@@QAEXE@Z	; CRemotePlayer::SetState

; 951  : 	return FALSE;

	xor	eax, eax
$LN5@Spawn:

; 952  : }

	pop	edi
	pop	esi
	pop	ebx
	add	esp, 244				; 000000f4H
	cmp	ebp, esp
	call	__RTC_CheckEsp
	mov	esp, ebp
	pop	ebp
	ret	20					; 00000014H
?Spawn@CRemotePlayer@@QAEHEHPAU_VECTOR@@MK@Z ENDP	; CRemotePlayer::Spawn
_TEXT	ENDS
; Function compile flags: /Odtp /RTCsu /ZI
; File z:\sampsrc\02xu1\saco\net\remoteplayer.cpp
;	COMDAT ?StoreTrailerFullSyncData@CRemotePlayer@@QAEXPAU_TRAILER_SYNC_DATA@@@Z
_TEXT	SEGMENT
_matWorld$1 = -108					; size = 64
_pVehicle$ = -36					; size = 4
_TrailerID$ = -24					; size = 2
_this$ = -12						; size = 4
__$ArrayPad$ = -4					; size = 4
_trSync$ = 8						; size = 4
?StoreTrailerFullSyncData@CRemotePlayer@@QAEXPAU_TRAILER_SYNC_DATA@@@Z PROC ; CRemotePlayer::StoreTrailerFullSyncData, COMDAT
; _this$ = ecx

; 904  : {

	push	ebp
	mov	ebp, esp
	sub	esp, 304				; 00000130H
	push	ebx
	push	esi
	push	edi
	push	ecx
	lea	edi, DWORD PTR [ebp-304]
	mov	ecx, 76					; 0000004cH
	mov	eax, -858993460				; ccccccccH
	rep stosd
	pop	ecx
	mov	eax, DWORD PTR ___security_cookie
	xor	eax, ebp
	mov	DWORD PTR __$ArrayPad$[ebp], eax
	mov	DWORD PTR _this$[ebp], ecx

; 905  : 	VEHICLEID TrailerID = m_icSync.TrailerID;

	mov	eax, DWORD PTR _this$[ebp]
	mov	cx, WORD PTR [eax+121]
	mov	WORD PTR _TrailerID$[ebp], cx

; 906  : 	if (!TrailerID) return;

	movzx	eax, WORD PTR _TrailerID$[ebp]
	test	eax, eax
	jne	SHORT $LN2@StoreTrail
	jmp	$LN3@StoreTrail
$LN2@StoreTrail:

; 907  : 	
; 908  : 	CVehicle *pVehicle = pNetGame->GetVehiclePool()->GetAt(TrailerID);

	movzx	eax, WORD PTR _TrailerID$[ebp]
	push	eax
	mov	ecx, DWORD PTR ?pNetGame@@3PAVCNetGame@@A ; pNetGame
	call	?GetVehiclePool@CNetGame@@QAEPAVCVehiclePool@@XZ ; CNetGame::GetVehiclePool
	mov	ecx, eax
	call	?GetAt@CVehiclePool@@QAEPAVCVehicle@@G@Z ; CVehiclePool::GetAt
	mov	DWORD PTR _pVehicle$[ebp], eax

; 909  : 	if(pVehicle) 

	cmp	DWORD PTR _pVehicle$[ebp], 0
	je	SHORT $LN3@StoreTrail

; 910  : 	{
; 911  : 		MATRIX4X4 matWorld;
; 912  : 
; 913  : 		memcpy(&matWorld.pos, &trSync->vecPos, sizeof(VECTOR));

	push	12					; 0000000cH
	mov	eax, DWORD PTR _trSync$[ebp]
	add	eax, 18					; 00000012H
	push	eax
	lea	ecx, DWORD PTR _matWorld$1[ebp+48]
	push	ecx
	call	_memcpy
	add	esp, 12					; 0000000cH

; 914  : 		DecompressNormalVector(&matWorld.up, &trSync->cvecDirection);

	mov	eax, DWORD PTR _trSync$[ebp]
	add	eax, 9
	push	eax
	lea	ecx, DWORD PTR _matWorld$1[ebp+16]
	push	ecx
	call	?DecompressNormalVector@@YAXPAU_VECTOR@@PAU_C_VECTOR1@@@Z ; DecompressNormalVector
	add	esp, 8

; 915  : 		DecompressNormalVector(&matWorld.right, &trSync->cvecRoll);

	mov	eax, DWORD PTR _trSync$[ebp]
	push	eax
	lea	ecx, DWORD PTR _matWorld$1[ebp]
	push	ecx
	call	?DecompressNormalVector@@YAXPAU_VECTOR@@PAU_C_VECTOR1@@@Z ; DecompressNormalVector
	add	esp, 8

; 916  : 		
; 917  : 		pVehicle->SetMatrix(matWorld);

	sub	esp, 64					; 00000040H
	mov	ecx, 16					; 00000010H
	lea	esi, DWORD PTR _matWorld$1[ebp]
	mov	edi, esp
	rep movsd
	mov	ecx, DWORD PTR _pVehicle$[ebp]
	call	?SetMatrix@CEntity@@QAEXU_MATRIX4X4@@@Z	; CEntity::SetMatrix

; 918  : 		pVehicle->SetMoveSpeedVector(trSync->vecMoveSpeed);

	mov	eax, DWORD PTR _trSync$[ebp]
	add	eax, 30					; 0000001eH
	sub	esp, 12					; 0000000cH
	mov	ecx, esp
	mov	edx, DWORD PTR [eax]
	mov	DWORD PTR [ecx], edx
	mov	edx, DWORD PTR [eax+4]
	mov	DWORD PTR [ecx+4], edx
	mov	eax, DWORD PTR [eax+8]
	mov	DWORD PTR [ecx+8], eax
	mov	ecx, DWORD PTR _pVehicle$[ebp]
	call	?SetMoveSpeedVector@CEntity@@QAEXU_VECTOR@@@Z ; CEntity::SetMoveSpeedVector
$LN3@StoreTrail:

; 919  : 	}
; 920  : }

	push	edx
	mov	ecx, ebp
	push	eax
	lea	edx, DWORD PTR $LN7@StoreTrail
	call	@_RTC_CheckStackVars@8
	pop	eax
	pop	edx
	pop	edi
	pop	esi
	pop	ebx
	mov	ecx, DWORD PTR __$ArrayPad$[ebp]
	xor	ecx, ebp
	call	@__security_check_cookie@4
	add	esp, 304				; 00000130H
	cmp	ebp, esp
	call	__RTC_CheckEsp
	mov	esp, ebp
	pop	ebp
	ret	4
$LN7@StoreTrail:
	DD	1
	DD	$LN6@StoreTrail
$LN6@StoreTrail:
	DD	-108					; ffffff94H
	DD	64					; 00000040H
	DD	$LN5@StoreTrail
$LN5@StoreTrail:
	DB	109					; 0000006dH
	DB	97					; 00000061H
	DB	116					; 00000074H
	DB	87					; 00000057H
	DB	111					; 0000006fH
	DB	114					; 00000072H
	DB	108					; 0000006cH
	DB	100					; 00000064H
	DB	0
?StoreTrailerFullSyncData@CRemotePlayer@@QAEXPAU_TRAILER_SYNC_DATA@@@Z ENDP ; CRemotePlayer::StoreTrailerFullSyncData
_TEXT	ENDS
; Function compile flags: /Odtp /RTCsu /ZI
; File z:\sampsrc\02xu1\saco\net\remoteplayer.cpp
;	COMDAT ?StorePassengerFullSyncData@CRemotePlayer@@QAEXPAU_PASSENGER_SYNC_DATA@@@Z
_TEXT	SEGMENT
_this$ = -8						; size = 4
_ppsSync$ = 8						; size = 4
?StorePassengerFullSyncData@CRemotePlayer@@QAEXPAU_PASSENGER_SYNC_DATA@@@Z PROC ; CRemotePlayer::StorePassengerFullSyncData, COMDAT
; _this$ = ecx

; 845  : {

	push	ebp
	mov	ebp, esp
	sub	esp, 204				; 000000ccH
	push	ebx
	push	esi
	push	edi
	push	ecx
	lea	edi, DWORD PTR [ebp-204]
	mov	ecx, 51					; 00000033H
	mov	eax, -858993460				; ccccccccH
	rep stosd
	pop	ecx
	mov	DWORD PTR _this$[ebp], ecx

; 846  : 	if(GetTickCount() < m_dwWaitForEntryExitAnims) return;

	mov	esi, esp
	call	DWORD PTR __imp__GetTickCount@0
	cmp	esi, esp
	call	__RTC_CheckEsp
	mov	ecx, DWORD PTR _this$[ebp]
	cmp	eax, DWORD PTR [ecx+348]
	jae	SHORT $LN1@StorePasse
	jmp	$LN2@StorePasse
$LN1@StorePasse:

; 847  : 	memcpy(&m_psSync,ppsSync,sizeof(PASSENGER_SYNC_DATA));

	push	24					; 00000018H
	mov	eax, DWORD PTR _ppsSync$[ebp]
	push	eax
	mov	ecx, DWORD PTR _this$[ebp]
	add	ecx, 131				; 00000083H
	push	ecx
	call	_memcpy
	add	esp, 12					; 0000000cH

; 848  : 
; 849  : 	m_VehicleID = ppsSync->VehicleID;

	mov	eax, DWORD PTR _this$[ebp]
	mov	ecx, DWORD PTR _ppsSync$[ebp]
	mov	dx, WORD PTR [ecx]
	mov	WORD PTR [eax+316], dx

; 850  : 	m_byteSeatID = ppsSync->byteSeatFlags & 127;

	mov	eax, DWORD PTR _ppsSync$[ebp]
	mov	cl, BYTE PTR [eax+2]
	and	cl, 127					; 0000007fH
	movzx	edx, cl
	and	edx, 127				; 0000007fH
	mov	eax, DWORD PTR _this$[ebp]
	mov	BYTE PTR [eax+318], dl

; 851  : 	m_pCurrentVehicle = pNetGame->GetVehiclePool()->GetAt(m_VehicleID);

	mov	eax, DWORD PTR _this$[ebp]
	movzx	ecx, WORD PTR [eax+316]
	push	ecx
	mov	ecx, DWORD PTR ?pNetGame@@3PAVCNetGame@@A ; pNetGame
	call	?GetVehiclePool@CNetGame@@QAEPAVCVehiclePool@@XZ ; CNetGame::GetVehiclePool
	mov	ecx, eax
	call	?GetAt@CVehiclePool@@QAEPAVCVehicle@@G@Z ; CVehiclePool::GetAt
	mov	edx, DWORD PTR _this$[ebp]
	mov	DWORD PTR [edx+311], eax

; 852  : 
; 853  : 	m_fReportedHealth = (float)ppsSync->bytePlayerHealth;

	mov	eax, DWORD PTR _ppsSync$[ebp]
	movzx	ecx, BYTE PTR [eax+4]
	cvtsi2ss xmm0, ecx
	mov	edx, DWORD PTR _this$[ebp]
	movss	DWORD PTR [edx+340], xmm0

; 854  : 	m_fReportedArmour = (float)ppsSync->bytePlayerArmour;

	mov	eax, DWORD PTR _ppsSync$[ebp]
	movzx	ecx, BYTE PTR [eax+5]
	cvtsi2ss xmm0, ecx
	mov	edx, DWORD PTR _this$[ebp]
	movss	DWORD PTR [edx+344], xmm0

; 855  : 	m_byteUpdateFromNetwork = UPDATE_TYPE_PASSENGER;

	mov	eax, DWORD PTR _this$[ebp]
	mov	BYTE PTR [eax+5], 3

; 856  : 	
; 857  : 	SetState(PLAYER_STATE_PASSENGER);

	push	3
	mov	ecx, DWORD PTR _this$[ebp]
	call	?SetState@CRemotePlayer@@QAEXE@Z	; CRemotePlayer::SetState
$LN2@StorePasse:

; 858  : }

	pop	edi
	pop	esi
	pop	ebx
	add	esp, 204				; 000000ccH
	cmp	ebp, esp
	call	__RTC_CheckEsp
	mov	esp, ebp
	pop	ebp
	ret	4
?StorePassengerFullSyncData@CRemotePlayer@@QAEXPAU_PASSENGER_SYNC_DATA@@@Z ENDP ; CRemotePlayer::StorePassengerFullSyncData
_TEXT	ENDS
; Function compile flags: /Odtp /RTCsu /ZI
; File z:\sampsrc\02xu1\saco\net\remoteplayer.cpp
;	COMDAT ?StoreInCarFullSyncData@CRemotePlayer@@QAEXPAU_INCAR_SYNC_DATA@@@Z
_TEXT	SEGMENT
_this$ = -8						; size = 4
_picSync$ = 8						; size = 4
?StoreInCarFullSyncData@CRemotePlayer@@QAEXPAU_INCAR_SYNC_DATA@@@Z PROC ; CRemotePlayer::StoreInCarFullSyncData, COMDAT
; _this$ = ecx

; 827  : {	

	push	ebp
	mov	ebp, esp
	sub	esp, 204				; 000000ccH
	push	ebx
	push	esi
	push	edi
	push	ecx
	lea	edi, DWORD PTR [ebp-204]
	mov	ecx, 51					; 00000033H
	mov	eax, -858993460				; ccccccccH
	rep stosd
	pop	ecx
	mov	DWORD PTR _this$[ebp], ecx

; 828  : 	if(GetTickCount() < m_dwWaitForEntryExitAnims) return;

	mov	esi, esp
	call	DWORD PTR __imp__GetTickCount@0
	cmp	esi, esp
	call	__RTC_CheckEsp
	mov	ecx, DWORD PTR _this$[ebp]
	cmp	eax, DWORD PTR [ecx+348]
	jae	SHORT $LN1@StoreInCar
	jmp	$LN2@StoreInCar
$LN1@StoreInCar:

; 829  : 	memcpy(&m_icSync,picSync,sizeof(INCAR_SYNC_DATA));

	push	73					; 00000049H
	mov	eax, DWORD PTR _picSync$[ebp]
	push	eax
	mov	ecx, DWORD PTR _this$[ebp]
	add	ecx, 58					; 0000003aH
	push	ecx
	call	_memcpy
	add	esp, 12					; 0000000cH

; 830  : 
; 831  : 	m_VehicleID = picSync->VehicleID;

	mov	eax, DWORD PTR _this$[ebp]
	mov	ecx, DWORD PTR _picSync$[ebp]
	mov	dx, WORD PTR [ecx]
	mov	WORD PTR [eax+316], dx

; 832  : 	m_byteSeatID = 0;

	mov	eax, DWORD PTR _this$[ebp]
	mov	BYTE PTR [eax+318], 0

; 833  : 	m_pCurrentVehicle = pNetGame->GetVehiclePool()->GetAt(m_VehicleID);

	mov	eax, DWORD PTR _this$[ebp]
	movzx	ecx, WORD PTR [eax+316]
	push	ecx
	mov	ecx, DWORD PTR ?pNetGame@@3PAVCNetGame@@A ; pNetGame
	call	?GetVehiclePool@CNetGame@@QAEPAVCVehiclePool@@XZ ; CNetGame::GetVehiclePool
	mov	ecx, eax
	call	?GetAt@CVehiclePool@@QAEPAVCVehicle@@G@Z ; CVehiclePool::GetAt
	mov	edx, DWORD PTR _this$[ebp]
	mov	DWORD PTR [edx+311], eax

; 834  : 
; 835  : 	m_fReportedHealth = (float)picSync->bytePlayerHealth;

	mov	eax, DWORD PTR _picSync$[ebp]
	movzx	ecx, BYTE PTR [eax+54]
	cvtsi2ss xmm0, ecx
	mov	edx, DWORD PTR _this$[ebp]
	movss	DWORD PTR [edx+340], xmm0

; 836  : 	m_fReportedArmour =	(float)picSync->bytePlayerArmour;

	mov	eax, DWORD PTR _picSync$[ebp]
	movzx	ecx, BYTE PTR [eax+55]
	cvtsi2ss xmm0, ecx
	mov	edx, DWORD PTR _this$[ebp]
	movss	DWORD PTR [edx+344], xmm0

; 837  : 	m_byteUpdateFromNetwork = UPDATE_TYPE_INCAR;

	mov	eax, DWORD PTR _this$[ebp]
	mov	BYTE PTR [eax+5], 2

; 838  : 	
; 839  : 	SetState(PLAYER_STATE_DRIVER);

	push	2
	mov	ecx, DWORD PTR _this$[ebp]
	call	?SetState@CRemotePlayer@@QAEXE@Z	; CRemotePlayer::SetState
$LN2@StoreInCar:

; 840  : }

	pop	edi
	pop	esi
	pop	ebx
	add	esp, 204				; 000000ccH
	cmp	ebp, esp
	call	__RTC_CheckEsp
	mov	esp, ebp
	pop	ebp
	ret	4
?StoreInCarFullSyncData@CRemotePlayer@@QAEXPAU_INCAR_SYNC_DATA@@@Z ENDP ; CRemotePlayer::StoreInCarFullSyncData
_TEXT	ENDS
; Function compile flags: /Odtp /RTCsu /ZI
; File z:\sampsrc\02xu1\saco\net\remoteplayer.cpp
;	COMDAT ?StoreOnFootFullSyncData@CRemotePlayer@@QAEXPAU_ONFOOT_SYNC_DATA@@@Z
_TEXT	SEGMENT
_this$ = -8						; size = 4
_pofSync$ = 8						; size = 4
?StoreOnFootFullSyncData@CRemotePlayer@@QAEXPAU_ONFOOT_SYNC_DATA@@@Z PROC ; CRemotePlayer::StoreOnFootFullSyncData, COMDAT
; _this$ = ecx

; 812  : {

	push	ebp
	mov	ebp, esp
	sub	esp, 204				; 000000ccH
	push	ebx
	push	esi
	push	edi
	push	ecx
	lea	edi, DWORD PTR [ebp-204]
	mov	ecx, 51					; 00000033H
	mov	eax, -858993460				; ccccccccH
	rep stosd
	pop	ecx
	mov	DWORD PTR _this$[ebp], ecx

; 813  : 	if(GetTickCount() < m_dwWaitForEntryExitAnims) return;

	mov	esi, esp
	call	DWORD PTR __imp__GetTickCount@0
	cmp	esi, esp
	call	__RTC_CheckEsp
	mov	ecx, DWORD PTR _this$[ebp]
	cmp	eax, DWORD PTR [ecx+348]
	jae	SHORT $LN1@StoreOnFoo
	jmp	SHORT $LN2@StoreOnFoo
$LN1@StoreOnFoo:

; 814  : 
; 815  : 	m_pCurrentVehicle = NULL;

	mov	eax, DWORD PTR _this$[ebp]
	mov	DWORD PTR [eax+311], 0

; 816  : 	memcpy(&m_ofSync,pofSync,sizeof(ONFOOT_SYNC_DATA));

	push	52					; 00000034H
	mov	eax, DWORD PTR _pofSync$[ebp]
	push	eax
	mov	ecx, DWORD PTR _this$[ebp]
	add	ecx, 6
	push	ecx
	call	_memcpy
	add	esp, 12					; 0000000cH

; 817  : 	m_fReportedHealth = (float)pofSync->byteHealth;

	mov	eax, DWORD PTR _pofSync$[ebp]
	movzx	ecx, BYTE PTR [eax+22]
	cvtsi2ss xmm0, ecx
	mov	edx, DWORD PTR _this$[ebp]
	movss	DWORD PTR [edx+340], xmm0

; 818  : 	m_fReportedArmour = (float)pofSync->byteArmour;

	mov	eax, DWORD PTR _pofSync$[ebp]
	movzx	ecx, BYTE PTR [eax+23]
	cvtsi2ss xmm0, ecx
	mov	edx, DWORD PTR _this$[ebp]
	movss	DWORD PTR [edx+344], xmm0

; 819  : 	m_byteUpdateFromNetwork = UPDATE_TYPE_ONFOOT;

	mov	eax, DWORD PTR _this$[ebp]
	mov	BYTE PTR [eax+5], 1

; 820  : 	
; 821  : 	SetState(PLAYER_STATE_ONFOOT);

	push	1
	mov	ecx, DWORD PTR _this$[ebp]
	call	?SetState@CRemotePlayer@@QAEXE@Z	; CRemotePlayer::SetState
$LN2@StoreOnFoo:

; 822  : }

	pop	edi
	pop	esi
	pop	ebx
	add	esp, 204				; 000000ccH
	cmp	ebp, esp
	call	__RTC_CheckEsp
	mov	esp, ebp
	pop	ebp
	ret	4
?StoreOnFootFullSyncData@CRemotePlayer@@QAEXPAU_ONFOOT_SYNC_DATA@@@Z ENDP ; CRemotePlayer::StoreOnFootFullSyncData
_TEXT	ENDS
; Function compile flags: /Odtp /RTCsu /ZI
; File z:\sampsrc\02xu1\saco\net\remoteplayer.cpp
;	COMDAT ?UpdateAimFromSyncData@CRemotePlayer@@QAEXPAU_AIM_SYNC_DATA@@@Z
_TEXT	SEGMENT
_pwstWeapon$ = -92					; size = 4
_fExtZoom$ = -80					; size = 4
_Aim$ = -68						; size = 48
_this$ = -12						; size = 4
__$ArrayPad$ = -4					; size = 4
_paimSync$ = 8						; size = 4
?UpdateAimFromSyncData@CRemotePlayer@@QAEXPAU_AIM_SYNC_DATA@@@Z PROC ; CRemotePlayer::UpdateAimFromSyncData, COMDAT
; _this$ = ecx

; 863  : {

	push	ebp
	mov	ebp, esp
	sub	esp, 288				; 00000120H
	push	ebx
	push	esi
	push	edi
	push	ecx
	lea	edi, DWORD PTR [ebp-288]
	mov	ecx, 72					; 00000048H
	mov	eax, -858993460				; ccccccccH
	rep stosd
	pop	ecx
	mov	eax, DWORD PTR ___security_cookie
	xor	eax, ebp
	mov	DWORD PTR __$ArrayPad$[ebp], eax
	mov	DWORD PTR _this$[ebp], ecx

; 864  : 	if(!m_pPlayerPed) return;

	mov	eax, DWORD PTR _this$[ebp]
	cmp	DWORD PTR [eax], 0
	jne	SHORT $LN6@UpdateAimF
	jmp	$LN7@UpdateAimF
$LN6@UpdateAimF:

; 865  : 	m_pPlayerPed->SetCameraMode(paimSync->byteCamMode);

	mov	eax, DWORD PTR _paimSync$[ebp]
	movzx	ecx, BYTE PTR [eax]
	push	ecx
	mov	edx, DWORD PTR _this$[ebp]
	mov	ecx, DWORD PTR [edx]
	call	?SetCameraMode@CPlayerPed@@QAEXE@Z	; CPlayerPed::SetCameraMode

; 866  : 
; 867  : 	CAMERA_AIM Aim;
; 868  : 
; 869  : 	Aim.f1x = paimSync->vecAimf1.X;

	mov	eax, DWORD PTR _paimSync$[ebp]
	movss	xmm0, DWORD PTR [eax+2]
	movss	DWORD PTR _Aim$[ebp], xmm0

; 870  : 	Aim.f1y = paimSync->vecAimf1.Y;

	mov	eax, DWORD PTR _paimSync$[ebp]
	movss	xmm0, DWORD PTR [eax+6]
	movss	DWORD PTR _Aim$[ebp+4], xmm0

; 871  : 	Aim.f1z = paimSync->vecAimf1.Z;

	mov	eax, DWORD PTR _paimSync$[ebp]
	movss	xmm0, DWORD PTR [eax+10]
	movss	DWORD PTR _Aim$[ebp+8], xmm0

; 872  : 	Aim.f2x = paimSync->vecAimf2.X;

	mov	eax, DWORD PTR _paimSync$[ebp]
	movss	xmm0, DWORD PTR [eax+14]
	movss	DWORD PTR _Aim$[ebp+36], xmm0

; 873  : 	Aim.f2y = paimSync->vecAimf2.Y;

	mov	eax, DWORD PTR _paimSync$[ebp]
	movss	xmm0, DWORD PTR [eax+18]
	movss	DWORD PTR _Aim$[ebp+40], xmm0

; 874  : 	Aim.f2z = paimSync->vecAimf2.Z;

	mov	eax, DWORD PTR _paimSync$[ebp]
	movss	xmm0, DWORD PTR [eax+22]
	movss	DWORD PTR _Aim$[ebp+44], xmm0

; 875  : 	Aim.pos1x = paimSync->vecAimPos.X;

	mov	eax, DWORD PTR _paimSync$[ebp]
	movss	xmm0, DWORD PTR [eax+26]
	movss	DWORD PTR _Aim$[ebp+12], xmm0

; 876  : 	Aim.pos1y = paimSync->vecAimPos.Y;

	mov	eax, DWORD PTR _paimSync$[ebp]
	movss	xmm0, DWORD PTR [eax+30]
	movss	DWORD PTR _Aim$[ebp+16], xmm0

; 877  : 	Aim.pos1z = paimSync->vecAimPos.Z;

	mov	eax, DWORD PTR _paimSync$[ebp]
	movss	xmm0, DWORD PTR [eax+34]
	movss	DWORD PTR _Aim$[ebp+20], xmm0

; 878  : 	Aim.pos2x = paimSync->vecAimPos.X;

	mov	eax, DWORD PTR _paimSync$[ebp]
	movss	xmm0, DWORD PTR [eax+26]
	movss	DWORD PTR _Aim$[ebp+24], xmm0

; 879  : 	Aim.pos2y = paimSync->vecAimPos.Y;

	mov	eax, DWORD PTR _paimSync$[ebp]
	movss	xmm0, DWORD PTR [eax+30]
	movss	DWORD PTR _Aim$[ebp+28], xmm0

; 880  : 	Aim.pos2z = paimSync->vecAimPos.Z;

	mov	eax, DWORD PTR _paimSync$[ebp]
	movss	xmm0, DWORD PTR [eax+34]
	movss	DWORD PTR _Aim$[ebp+32], xmm0

; 881  : 
; 882  : 	m_pPlayerPed->SetCurrentAim(&Aim);

	lea	eax, DWORD PTR _Aim$[ebp]
	push	eax
	mov	ecx, DWORD PTR _this$[ebp]
	mov	ecx, DWORD PTR [ecx]
	call	?SetCurrentAim@CPlayerPed@@QAEXPAU_CAMERA_AIM@@@Z ; CPlayerPed::SetCurrentAim

; 883  : 	m_pPlayerPed->SetAimZ(paimSync->fAimZ);

	mov	eax, DWORD PTR _paimSync$[ebp]
	push	ecx
	movss	xmm0, DWORD PTR [eax+38]
	movss	DWORD PTR [esp], xmm0
	mov	ecx, DWORD PTR _this$[ebp]
	mov	ecx, DWORD PTR [ecx]
	call	?SetAimZ@CPlayerPed@@QAEXM@Z		; CPlayerPed::SetAimZ

; 884  : 
; 885  : 	float fExtZoom = (float)(paimSync->byteCamExtZoom)/63.0f;

	mov	eax, DWORD PTR _paimSync$[ebp]
	mov	cl, BYTE PTR [eax+1]
	and	cl, 63					; 0000003fH
	movzx	edx, cl
	cvtsi2ss xmm0, edx
	divss	xmm0, DWORD PTR __real@427c0000
	movss	DWORD PTR _fExtZoom$[ebp], xmm0

; 886  : 	m_pPlayerPed->SetCameraExtendedZoom(fExtZoom);

	push	ecx
	movss	xmm0, DWORD PTR _fExtZoom$[ebp]
	movss	DWORD PTR [esp], xmm0
	mov	eax, DWORD PTR _this$[ebp]
	mov	ecx, DWORD PTR [eax]
	call	?SetCameraExtendedZoom@CPlayerPed@@QAEXM@Z ; CPlayerPed::SetCameraExtendedZoom

; 887  : 
; 888  : 	WEAPON_SLOT_TYPE* pwstWeapon = m_pPlayerPed->GetCurrentWeaponSlot();

	mov	eax, DWORD PTR _this$[ebp]
	mov	ecx, DWORD PTR [eax]
	call	?GetCurrentWeaponSlot@CPlayerPed@@QAEPAU_WEAPON_SLOT_TYPE@@XZ ; CPlayerPed::GetCurrentWeaponSlot
	mov	DWORD PTR _pwstWeapon$[ebp], eax

; 889  : 	if (paimSync->byteWeaponState == WS_RELOADING)

	mov	eax, DWORD PTR _paimSync$[ebp]
	mov	cl, BYTE PTR [eax+1]
	shr	cl, 6
	and	cl, 3
	movzx	edx, cl
	cmp	edx, 3
	jne	SHORT $LN5@UpdateAimF

; 890  : 		pwstWeapon->dwState = 2;		// Reloading

	mov	eax, DWORD PTR _pwstWeapon$[ebp]
	mov	DWORD PTR [eax+4], 2

; 891  : 	else

	jmp	SHORT $LN1@UpdateAimF
$LN5@UpdateAimF:

; 892  : 		if (paimSync->byteWeaponState != WS_MORE_BULLETS) 

	mov	eax, DWORD PTR _paimSync$[ebp]
	mov	cl, BYTE PTR [eax+1]
	shr	cl, 6
	and	cl, 3
	movzx	edx, cl
	cmp	edx, 2
	je	SHORT $LN3@UpdateAimF

; 893  : 			pwstWeapon->dwAmmoInClip = (DWORD)paimSync->byteWeaponState;

	mov	eax, DWORD PTR _paimSync$[ebp]
	mov	cl, BYTE PTR [eax+1]
	shr	cl, 6
	and	cl, 3
	movzx	edx, cl
	mov	eax, DWORD PTR _pwstWeapon$[ebp]
	mov	DWORD PTR [eax+8], edx

; 894  : 		else

	jmp	SHORT $LN1@UpdateAimF
$LN3@UpdateAimF:

; 895  : 			if (pwstWeapon->dwAmmoInClip < 2)

	mov	eax, DWORD PTR _pwstWeapon$[ebp]
	cmp	DWORD PTR [eax+8], 2
	jae	SHORT $LN1@UpdateAimF

; 896  : 				pwstWeapon->dwAmmoInClip = 2;

	mov	eax, DWORD PTR _pwstWeapon$[ebp]
	mov	DWORD PTR [eax+8], 2
$LN1@UpdateAimF:
$LN7@UpdateAimF:

; 897  : 
; 898  : 
; 899  : }

	push	edx
	mov	ecx, ebp
	push	eax
	lea	edx, DWORD PTR $LN11@UpdateAimF
	call	@_RTC_CheckStackVars@8
	pop	eax
	pop	edx
	pop	edi
	pop	esi
	pop	ebx
	mov	ecx, DWORD PTR __$ArrayPad$[ebp]
	xor	ecx, ebp
	call	@__security_check_cookie@4
	add	esp, 288				; 00000120H
	cmp	ebp, esp
	call	__RTC_CheckEsp
	mov	esp, ebp
	pop	ebp
	ret	4
	npad	1
$LN11@UpdateAimF:
	DD	1
	DD	$LN10@UpdateAimF
$LN10@UpdateAimF:
	DD	-68					; ffffffbcH
	DD	48					; 00000030H
	DD	$LN9@UpdateAimF
$LN9@UpdateAimF:
	DB	65					; 00000041H
	DB	105					; 00000069H
	DB	109					; 0000006dH
	DB	0
?UpdateAimFromSyncData@CRemotePlayer@@QAEXPAU_AIM_SYNC_DATA@@@Z ENDP ; CRemotePlayer::UpdateAimFromSyncData
_TEXT	ENDS
; Function compile flags: /Odtp /RTCsu /ZI
; File z:\sampsrc\02xu1\saco\net\remoteplayer.cpp
;	COMDAT ?UpdateTrainDriverMatrixAndSpeed@CRemotePlayer@@QAEXPAU_MATRIX4X4@@PAU_VECTOR@@M@Z
_TEXT	SEGMENT
_fDif$ = -128						; size = 4
_bTeleport$ = -116					; size = 4
_vecInternalMoveSpeed$ = -104				; size = 12
_matVehicle$ = -84					; size = 64
_this$ = -12						; size = 4
__$ArrayPad$ = -4					; size = 4
_matWorld$ = 8						; size = 4
_vecMoveSpeed$ = 12					; size = 4
_fTrainSpeed$ = 16					; size = 4
?UpdateTrainDriverMatrixAndSpeed@CRemotePlayer@@QAEXPAU_MATRIX4X4@@PAU_VECTOR@@M@Z PROC ; CRemotePlayer::UpdateTrainDriverMatrixAndSpeed, COMDAT
; _this$ = ecx

; 775  : {

	push	ebp
	mov	ebp, esp
	sub	esp, 324				; 00000144H
	push	ebx
	push	esi
	push	edi
	push	ecx
	lea	edi, DWORD PTR [ebp-324]
	mov	ecx, 81					; 00000051H
	mov	eax, -858993460				; ccccccccH
	rep stosd
	pop	ecx
	mov	eax, DWORD PTR ___security_cookie
	xor	eax, ebp
	mov	DWORD PTR __$ArrayPad$[ebp], eax
	mov	DWORD PTR _this$[ebp], ecx

; 776  : 	MATRIX4X4 matVehicle;
; 777  : 	VECTOR vecInternalMoveSpeed;
; 778  : 	BOOL bTeleport=FALSE;

	mov	DWORD PTR _bTeleport$[ebp], 0

; 779  : 	float fDif;
; 780  : 
; 781  : 	if(!m_pPlayerPed || !m_pCurrentVehicle) return;

	mov	eax, DWORD PTR _this$[ebp]
	cmp	DWORD PTR [eax], 0
	je	SHORT $LN8@UpdateTrai
	mov	eax, DWORD PTR _this$[ebp]
	cmp	DWORD PTR [eax+311], 0
	jne	SHORT $LN9@UpdateTrai
$LN8@UpdateTrai:
	jmp	$LN10@UpdateTrai
$LN9@UpdateTrai:

; 782  : 
; 783  : 	m_pCurrentVehicle->GetMatrix(&matVehicle);

	lea	eax, DWORD PTR _matVehicle$[ebp]
	push	eax
	mov	ecx, DWORD PTR _this$[ebp]
	mov	ecx, DWORD PTR [ecx+311]
	call	?GetMatrix@CEntity@@QAEXPAU_MATRIX4X4@@@Z ; CEntity::GetMatrix

; 784  : 
; 785  : 	if(matWorld->pos.X >= matVehicle.pos.X) {

	mov	eax, DWORD PTR _matWorld$[ebp]
	movss	xmm0, DWORD PTR [eax+48]
	comiss	xmm0, DWORD PTR _matVehicle$[ebp+48]
	jb	SHORT $LN7@UpdateTrai

; 786  : 		fDif = matWorld->pos.X - matVehicle.pos.X;

	mov	eax, DWORD PTR _matWorld$[ebp]
	movss	xmm0, DWORD PTR [eax+48]
	subss	xmm0, DWORD PTR _matVehicle$[ebp+48]
	movss	DWORD PTR _fDif$[ebp], xmm0

; 787  : 	} else {

	jmp	SHORT $LN6@UpdateTrai
$LN7@UpdateTrai:

; 788  : 		fDif = matVehicle.pos.X - matWorld->pos.X;

	mov	eax, DWORD PTR _matWorld$[ebp]
	movss	xmm0, DWORD PTR _matVehicle$[ebp+48]
	subss	xmm0, DWORD PTR [eax+48]
	movss	DWORD PTR _fDif$[ebp], xmm0
$LN6@UpdateTrai:

; 789  : 	}
; 790  : 	if(fDif > 10.0f) bTeleport=TRUE;

	movss	xmm0, DWORD PTR _fDif$[ebp]
	comiss	xmm0, DWORD PTR __real@41200000
	jbe	SHORT $LN5@UpdateTrai
	mov	DWORD PTR _bTeleport$[ebp], 1
$LN5@UpdateTrai:

; 791  : 
; 792  : 	if(matWorld->pos.Y >= matVehicle.pos.Y) {

	mov	eax, DWORD PTR _matWorld$[ebp]
	movss	xmm0, DWORD PTR [eax+52]
	comiss	xmm0, DWORD PTR _matVehicle$[ebp+52]
	jb	SHORT $LN4@UpdateTrai

; 793  : 		fDif = matWorld->pos.Y - matVehicle.pos.Y;

	mov	eax, DWORD PTR _matWorld$[ebp]
	movss	xmm0, DWORD PTR [eax+52]
	subss	xmm0, DWORD PTR _matVehicle$[ebp+52]
	movss	DWORD PTR _fDif$[ebp], xmm0

; 794  : 	} else {

	jmp	SHORT $LN3@UpdateTrai
$LN4@UpdateTrai:

; 795  : 		fDif = matVehicle.pos.Y - matWorld->pos.Y;

	mov	eax, DWORD PTR _matWorld$[ebp]
	movss	xmm0, DWORD PTR _matVehicle$[ebp+52]
	subss	xmm0, DWORD PTR [eax+52]
	movss	DWORD PTR _fDif$[ebp], xmm0
$LN3@UpdateTrai:

; 796  : 	}
; 797  : 	if(fDif > 10.0f) bTeleport=TRUE;

	movss	xmm0, DWORD PTR _fDif$[ebp]
	comiss	xmm0, DWORD PTR __real@41200000
	jbe	SHORT $LN2@UpdateTrai
	mov	DWORD PTR _bTeleport$[ebp], 1
$LN2@UpdateTrai:

; 798  : 
; 799  : 	if(bTeleport) m_pCurrentVehicle->TeleportTo(matWorld->pos.X,matWorld->pos.Y,matWorld->pos.Z);

	cmp	DWORD PTR _bTeleport$[ebp], 0
	je	SHORT $LN1@UpdateTrai
	mov	eax, DWORD PTR _matWorld$[ebp]
	push	ecx
	movss	xmm0, DWORD PTR [eax+56]
	movss	DWORD PTR [esp], xmm0
	mov	ecx, DWORD PTR _matWorld$[ebp]
	push	ecx
	movss	xmm0, DWORD PTR [ecx+52]
	movss	DWORD PTR [esp], xmm0
	mov	edx, DWORD PTR _matWorld$[ebp]
	push	ecx
	movss	xmm0, DWORD PTR [edx+48]
	movss	DWORD PTR [esp], xmm0
	mov	eax, DWORD PTR _this$[ebp]
	mov	ecx, DWORD PTR [eax+311]
	call	?TeleportTo@CEntity@@QAEXMMM@Z		; CEntity::TeleportTo
$LN1@UpdateTrai:

; 800  : 	
; 801  : 	m_pCurrentVehicle->GetMoveSpeedVector(&vecInternalMoveSpeed);

	lea	eax, DWORD PTR _vecInternalMoveSpeed$[ebp]
	push	eax
	mov	ecx, DWORD PTR _this$[ebp]
	mov	ecx, DWORD PTR [ecx+311]
	call	?GetMoveSpeedVector@CEntity@@QAEXPAU_VECTOR@@@Z ; CEntity::GetMoveSpeedVector

; 802  : 	vecInternalMoveSpeed.X = vecMoveSpeed->X;

	mov	eax, DWORD PTR _vecMoveSpeed$[ebp]
	movss	xmm0, DWORD PTR [eax]
	movss	DWORD PTR _vecInternalMoveSpeed$[ebp], xmm0

; 803  : 	vecInternalMoveSpeed.Y = vecMoveSpeed->Y;

	mov	eax, DWORD PTR _vecMoveSpeed$[ebp]
	movss	xmm0, DWORD PTR [eax+4]
	movss	DWORD PTR _vecInternalMoveSpeed$[ebp+4], xmm0

; 804  : 	vecInternalMoveSpeed.Z = vecMoveSpeed->Z;

	mov	eax, DWORD PTR _vecMoveSpeed$[ebp]
	movss	xmm0, DWORD PTR [eax+8]
	movss	DWORD PTR _vecInternalMoveSpeed$[ebp+8], xmm0

; 805  : 	m_pCurrentVehicle->SetMoveSpeedVector(vecInternalMoveSpeed);

	sub	esp, 12					; 0000000cH
	mov	eax, esp
	mov	ecx, DWORD PTR _vecInternalMoveSpeed$[ebp]
	mov	DWORD PTR [eax], ecx
	mov	edx, DWORD PTR _vecInternalMoveSpeed$[ebp+4]
	mov	DWORD PTR [eax+4], edx
	mov	ecx, DWORD PTR _vecInternalMoveSpeed$[ebp+8]
	mov	DWORD PTR [eax+8], ecx
	mov	edx, DWORD PTR _this$[ebp]
	mov	ecx, DWORD PTR [edx+311]
	call	?SetMoveSpeedVector@CEntity@@QAEXU_VECTOR@@@Z ; CEntity::SetMoveSpeedVector

; 806  : 	m_pCurrentVehicle->SetTrainSpeed(fTrainSpeed);

	push	ecx
	movss	xmm0, DWORD PTR _fTrainSpeed$[ebp]
	movss	DWORD PTR [esp], xmm0
	mov	eax, DWORD PTR _this$[ebp]
	mov	ecx, DWORD PTR [eax+311]
	call	?SetTrainSpeed@CVehicle@@QAEXM@Z	; CVehicle::SetTrainSpeed
$LN10@UpdateTrai:

; 807  : }

	push	edx
	mov	ecx, ebp
	push	eax
	lea	edx, DWORD PTR $LN15@UpdateTrai
	call	@_RTC_CheckStackVars@8
	pop	eax
	pop	edx
	pop	edi
	pop	esi
	pop	ebx
	mov	ecx, DWORD PTR __$ArrayPad$[ebp]
	xor	ecx, ebp
	call	@__security_check_cookie@4
	add	esp, 324				; 00000144H
	cmp	ebp, esp
	call	__RTC_CheckEsp
	mov	esp, ebp
	pop	ebp
	ret	12					; 0000000cH
	npad	3
$LN15@UpdateTrai:
	DD	2
	DD	$LN14@UpdateTrai
$LN14@UpdateTrai:
	DD	-84					; ffffffacH
	DD	64					; 00000040H
	DD	$LN12@UpdateTrai
	DD	-104					; ffffff98H
	DD	12					; 0000000cH
	DD	$LN13@UpdateTrai
$LN13@UpdateTrai:
	DB	118					; 00000076H
	DB	101					; 00000065H
	DB	99					; 00000063H
	DB	73					; 00000049H
	DB	110					; 0000006eH
	DB	116					; 00000074H
	DB	101					; 00000065H
	DB	114					; 00000072H
	DB	110					; 0000006eH
	DB	97					; 00000061H
	DB	108					; 0000006cH
	DB	77					; 0000004dH
	DB	111					; 0000006fH
	DB	118					; 00000076H
	DB	101					; 00000065H
	DB	83					; 00000053H
	DB	112					; 00000070H
	DB	101					; 00000065H
	DB	101					; 00000065H
	DB	100					; 00000064H
	DB	0
$LN12@UpdateTrai:
	DB	109					; 0000006dH
	DB	97					; 00000061H
	DB	116					; 00000074H
	DB	86					; 00000056H
	DB	101					; 00000065H
	DB	104					; 00000068H
	DB	105					; 00000069H
	DB	99					; 00000063H
	DB	108					; 0000006cH
	DB	101					; 00000065H
	DB	0
?UpdateTrainDriverMatrixAndSpeed@CRemotePlayer@@QAEXPAU_MATRIX4X4@@PAU_VECTOR@@M@Z ENDP ; CRemotePlayer::UpdateTrainDriverMatrixAndSpeed
_TEXT	ENDS
; Function compile flags: /Odtp /RTCsu /ZI
; File z:\sampsrc\02xu1\saco\net\remoteplayer.cpp
;	COMDAT ?UpdateInCarMatrixAndSpeed@CRemotePlayer@@QAEXU_MATRIX4X4@@U_VECTOR@@@Z
_TEXT	SEGMENT
_matEnt$ = -84						; size = 64
_this$ = -12						; size = 4
__$ArrayPad$ = -4					; size = 4
_mat$ = 8						; size = 64
_vecMove$ = 72						; size = 12
?UpdateInCarMatrixAndSpeed@CRemotePlayer@@QAEXU_MATRIX4X4@@U_VECTOR@@@Z PROC ; CRemotePlayer::UpdateInCarMatrixAndSpeed, COMDAT
; _this$ = ecx

; 738  : {	

	push	ebp
	mov	ebp, esp
	sub	esp, 280				; 00000118H
	push	ebx
	push	esi
	push	edi
	push	ecx
	lea	edi, DWORD PTR [ebp-280]
	mov	ecx, 70					; 00000046H
	mov	eax, -858993460				; ccccccccH
	rep stosd
	pop	ecx
	mov	eax, DWORD PTR ___security_cookie
	xor	eax, ebp
	mov	DWORD PTR __$ArrayPad$[ebp], eax
	mov	DWORD PTR _this$[ebp], ecx

; 739  : 	/*
; 740  : 	float fLowestPing = (float)pNetGame->GetRakClient()->GetLowestPing();
; 741  : 	float fEstimateFramesPassed = fLowestPing * 0.025f;
; 742  : 
; 743  : 	if(fEstimateFramesPassed > 1.0f) {
; 744  : 		m_vecIncarTargetPos.X += (vecMove.X * fEstimateFramesPassed);
; 745  : 		m_vecIncarTargetPos.Y += (vecMove.Y * fEstimateFramesPassed);
; 746  : 		m_vecIncarTargetPos.Z += (vecMove.Z * fEstimateFramesPassed);
; 747  : 	}*/
; 748  : 
; 749  : 	MATRIX4X4 matEnt;
; 750  : 	m_pCurrentVehicle->GetMatrix(&matEnt);

	lea	eax, DWORD PTR _matEnt$[ebp]
	push	eax
	mov	ecx, DWORD PTR _this$[ebp]
	mov	ecx, DWORD PTR [ecx+311]
	call	?GetMatrix@CEntity@@QAEXPAU_MATRIX4X4@@@Z ; CEntity::GetMatrix

; 751  : 
; 752  : 	matEnt.right.X = mat.right.X;

	movss	xmm0, DWORD PTR _mat$[ebp]
	movss	DWORD PTR _matEnt$[ebp], xmm0

; 753  : 	matEnt.right.Y = mat.right.Y;

	movss	xmm0, DWORD PTR _mat$[ebp+4]
	movss	DWORD PTR _matEnt$[ebp+4], xmm0

; 754  : 	matEnt.right.Z = mat.right.Z;

	movss	xmm0, DWORD PTR _mat$[ebp+8]
	movss	DWORD PTR _matEnt$[ebp+8], xmm0

; 755  : 
; 756  : 	matEnt.up.X = mat.up.X;

	movss	xmm0, DWORD PTR _mat$[ebp+16]
	movss	DWORD PTR _matEnt$[ebp+16], xmm0

; 757  : 	matEnt.up.Y = mat.up.Y;

	movss	xmm0, DWORD PTR _mat$[ebp+20]
	movss	DWORD PTR _matEnt$[ebp+20], xmm0

; 758  : 	matEnt.up.Z = mat.up.Z;

	movss	xmm0, DWORD PTR _mat$[ebp+24]
	movss	DWORD PTR _matEnt$[ebp+24], xmm0

; 759  : 
; 760  : 	m_vecIncarTargetPos.X = mat.pos.X;

	mov	eax, DWORD PTR _this$[ebp]
	movss	xmm0, DWORD PTR _mat$[ebp+48]
	movss	DWORD PTR [eax+263], xmm0

; 761  : 	m_vecIncarTargetPos.Y = mat.pos.Y;

	mov	eax, DWORD PTR _this$[ebp]
	movss	xmm0, DWORD PTR _mat$[ebp+52]
	movss	DWORD PTR [eax+267], xmm0

; 762  : 	m_vecIncarTargetPos.Z = mat.pos.Z;

	mov	eax, DWORD PTR _this$[ebp]
	movss	xmm0, DWORD PTR _mat$[ebp+56]
	movss	DWORD PTR [eax+271], xmm0

; 763  : 
; 764  : 	m_vecIncarTargetSpeed.X = vecMove.X;

	mov	eax, DWORD PTR _this$[ebp]
	movss	xmm0, DWORD PTR _vecMove$[ebp]
	movss	DWORD PTR [eax+275], xmm0

; 765  : 	m_vecIncarTargetSpeed.Y = vecMove.Y;

	mov	eax, DWORD PTR _this$[ebp]
	movss	xmm0, DWORD PTR _vecMove$[ebp+4]
	movss	DWORD PTR [eax+279], xmm0

; 766  : 	m_vecIncarTargetSpeed.Z = vecMove.Z;

	mov	eax, DWORD PTR _this$[ebp]
	movss	xmm0, DWORD PTR _vecMove$[ebp+8]
	movss	DWORD PTR [eax+283], xmm0

; 767  : 
; 768  : 	m_pCurrentVehicle->SetMatrix(matEnt);

	sub	esp, 64					; 00000040H
	mov	ecx, 16					; 00000010H
	lea	esi, DWORD PTR _matEnt$[ebp]
	mov	edi, esp
	rep movsd
	mov	eax, DWORD PTR _this$[ebp]
	mov	ecx, DWORD PTR [eax+311]
	call	?SetMatrix@CEntity@@QAEXU_MATRIX4X4@@@Z	; CEntity::SetMatrix

; 769  : 	m_pCurrentVehicle->SetMoveSpeedVector(vecMove);

	sub	esp, 12					; 0000000cH
	mov	eax, esp
	mov	ecx, DWORD PTR _vecMove$[ebp]
	mov	DWORD PTR [eax], ecx
	mov	edx, DWORD PTR _vecMove$[ebp+4]
	mov	DWORD PTR [eax+4], edx
	mov	ecx, DWORD PTR _vecMove$[ebp+8]
	mov	DWORD PTR [eax+8], ecx
	mov	edx, DWORD PTR _this$[ebp]
	mov	ecx, DWORD PTR [edx+311]
	call	?SetMoveSpeedVector@CEntity@@QAEXU_VECTOR@@@Z ; CEntity::SetMoveSpeedVector

; 770  : }

	push	edx
	mov	ecx, ebp
	push	eax
	lea	edx, DWORD PTR $LN5@UpdateInCa
	call	@_RTC_CheckStackVars@8
	pop	eax
	pop	edx
	pop	edi
	pop	esi
	pop	ebx
	mov	ecx, DWORD PTR __$ArrayPad$[ebp]
	xor	ecx, ebp
	call	@__security_check_cookie@4
	add	esp, 280				; 00000118H
	cmp	ebp, esp
	call	__RTC_CheckEsp
	mov	esp, ebp
	pop	ebp
	ret	76					; 0000004cH
	npad	3
$LN5@UpdateInCa:
	DD	1
	DD	$LN4@UpdateInCa
$LN4@UpdateInCa:
	DD	-84					; ffffffacH
	DD	64					; 00000040H
	DD	$LN3@UpdateInCa
$LN3@UpdateInCa:
	DB	109					; 0000006dH
	DB	97					; 00000061H
	DB	116					; 00000074H
	DB	69					; 00000045H
	DB	110					; 0000006eH
	DB	116					; 00000074H
	DB	0
?UpdateInCarMatrixAndSpeed@CRemotePlayer@@QAEXU_MATRIX4X4@@U_VECTOR@@@Z ENDP ; CRemotePlayer::UpdateInCarMatrixAndSpeed
_TEXT	ENDS
; Function compile flags: /Odtp /RTCsu /ZI
; File z:\sampsrc\02xu1\saco\net\remoteplayer.cpp
;	COMDAT ?UpdateOnFootPositionAndSpeed@CRemotePlayer@@QAEXPAU_VECTOR@@0@Z
_TEXT	SEGMENT
_this$ = -8						; size = 4
_vecPos$ = 8						; size = 4
_vecMove$ = 12						; size = 4
?UpdateOnFootPositionAndSpeed@CRemotePlayer@@QAEXPAU_VECTOR@@0@Z PROC ; CRemotePlayer::UpdateOnFootPositionAndSpeed, COMDAT
; _this$ = ecx

; 627  : {

	push	ebp
	mov	ebp, esp
	sub	esp, 204				; 000000ccH
	push	ebx
	push	esi
	push	edi
	push	ecx
	lea	edi, DWORD PTR [ebp-204]
	mov	ecx, 51					; 00000033H
	mov	eax, -858993460				; ccccccccH
	rep stosd
	pop	ecx
	mov	DWORD PTR _this$[ebp], ecx

; 628  : 	/* lag comp
; 629  : 	float fLowestPing = (float)pNetGame->GetRakClient()->GetLastPing();
; 630  : 	float fEstimateFramesPassed = fLowestPing * 0.1f;
; 631  : 
; 632  : 	if(fEstimateFramesPassed > 1.0f) {
; 633  : 		m_vecOnfootTargetPos.X += (vecMove->X * fEstimateFramesPassed);
; 634  : 		m_vecOnfootTargetPos.Y += (vecMove->Y * fEstimateFramesPassed);
; 635  : 		//m_vecOnfootTargetPos.Z += (vecMove->Z * fEstimateFramesPassed);
; 636  : 	}*/
; 637  :     
; 638  :     m_vecOnfootTargetPos.X = vecPos->X;

	mov	eax, DWORD PTR _this$[ebp]
	mov	ecx, DWORD PTR _vecPos$[ebp]
	mov	edx, DWORD PTR [ecx]
	mov	DWORD PTR [eax+239], edx

; 639  : 	m_vecOnfootTargetPos.Y = vecPos->Y;

	mov	eax, DWORD PTR _this$[ebp]
	mov	ecx, DWORD PTR _vecPos$[ebp]
	mov	edx, DWORD PTR [ecx+4]
	mov	DWORD PTR [eax+243], edx

; 640  : 	m_vecOnfootTargetPos.Z = vecPos->Z;

	mov	eax, DWORD PTR _this$[ebp]
	mov	ecx, DWORD PTR _vecPos$[ebp]
	mov	edx, DWORD PTR [ecx+8]
	mov	DWORD PTR [eax+247], edx

; 641  :     m_vecOnfootTargetSpeed.X = vecMove->X;

	mov	eax, DWORD PTR _this$[ebp]
	mov	ecx, DWORD PTR _vecMove$[ebp]
	mov	edx, DWORD PTR [ecx]
	mov	DWORD PTR [eax+251], edx

; 642  : 	m_vecOnfootTargetSpeed.Y = vecMove->Y;

	mov	eax, DWORD PTR _this$[ebp]
	mov	ecx, DWORD PTR _vecMove$[ebp]
	mov	edx, DWORD PTR [ecx+4]
	mov	DWORD PTR [eax+255], edx

; 643  : 	m_vecOnfootTargetSpeed.Z = vecMove->Z;

	mov	eax, DWORD PTR _this$[ebp]
	mov	ecx, DWORD PTR _vecMove$[ebp]
	mov	edx, DWORD PTR [ecx+8]
	mov	DWORD PTR [eax+259], edx

; 644  : 
; 645  : 	m_pPlayerPed->SetMoveSpeedVector(m_vecOnfootTargetSpeed);

	mov	eax, DWORD PTR _this$[ebp]
	add	eax, 251				; 000000fbH
	sub	esp, 12					; 0000000cH
	mov	ecx, esp
	mov	edx, DWORD PTR [eax]
	mov	DWORD PTR [ecx], edx
	mov	edx, DWORD PTR [eax+4]
	mov	DWORD PTR [ecx+4], edx
	mov	eax, DWORD PTR [eax+8]
	mov	DWORD PTR [ecx+8], eax
	mov	ecx, DWORD PTR _this$[ebp]
	mov	ecx, DWORD PTR [ecx]
	call	?SetMoveSpeedVector@CEntity@@QAEXU_VECTOR@@@Z ; CEntity::SetMoveSpeedVector

; 646  : }

	pop	edi
	pop	esi
	pop	ebx
	add	esp, 204				; 000000ccH
	cmp	ebp, esp
	call	__RTC_CheckEsp
	mov	esp, ebp
	pop	ebp
	ret	8
?UpdateOnFootPositionAndSpeed@CRemotePlayer@@QAEXPAU_VECTOR@@0@Z ENDP ; CRemotePlayer::UpdateOnFootPositionAndSpeed
_TEXT	ENDS
; Function compile flags: /Odtp /RTCsu /ZI
; File z:\sampsrc\02xu1\saco\net\remoteplayer.cpp
;	COMDAT ?UpdateOnfootTargetPosition@CRemotePlayer@@QAEXXZ
_TEXT	SEGMENT
_fMultiplyAmount$ = -116				; size = 4
_vec$ = -104						; size = 12
_matEnt$ = -84						; size = 64
_this$ = -12						; size = 4
__$ArrayPad$ = -4					; size = 4
?UpdateOnfootTargetPosition@CRemotePlayer@@QAEXXZ PROC	; CRemotePlayer::UpdateOnfootTargetPosition, COMDAT
; _this$ = ecx

; 558  : {

	push	ebp
	mov	ebp, esp
	sub	esp, 312				; 00000138H
	push	ebx
	push	esi
	push	edi
	push	ecx
	lea	edi, DWORD PTR [ebp-312]
	mov	ecx, 78					; 0000004eH
	mov	eax, -858993460				; ccccccccH
	rep stosd
	pop	ecx
	mov	eax, DWORD PTR ___security_cookie
	xor	eax, ebp
	mov	DWORD PTR __$ArrayPad$[ebp], eax
	mov	DWORD PTR _this$[ebp], ecx

; 559  : 	MATRIX4X4 matEnt;
; 560  : 
; 561  : 	if(!m_pPlayerPed) return;

	mov	eax, DWORD PTR _this$[ebp]
	cmp	DWORD PTR [eax], 0
	jne	SHORT $LN10@UpdateOnfo
	jmp	$LN11@UpdateOnfo
$LN10@UpdateOnfo:

; 562  : 	m_pPlayerPed->GetMatrix(&matEnt);

	lea	eax, DWORD PTR _matEnt$[ebp]
	push	eax
	mov	ecx, DWORD PTR _this$[ebp]
	mov	ecx, DWORD PTR [ecx]
	call	?GetMatrix@CEntity@@QAEXPAU_MATRIX4X4@@@Z ; CEntity::GetMatrix

; 563  : 
; 564  : 	if(!m_pPlayerPed->IsAdded() || !m_pPlayerPed->IsOnGround()) {

	mov	eax, DWORD PTR _this$[ebp]
	mov	ecx, DWORD PTR [eax]
	call	?IsAdded@CEntity@@QAEHXZ		; CEntity::IsAdded
	test	eax, eax
	je	SHORT $LN8@UpdateOnfo
	mov	eax, DWORD PTR _this$[ebp]
	mov	ecx, DWORD PTR [eax]
	call	?IsOnGround@CPlayerPed@@QAEHXZ		; CPlayerPed::IsOnGround
	test	eax, eax
	jne	SHORT $LN9@UpdateOnfo
$LN8@UpdateOnfo:

; 565  :         matEnt.pos.X = m_vecOnfootTargetPos.X;

	mov	eax, DWORD PTR _this$[ebp]
	movss	xmm0, DWORD PTR [eax+239]
	movss	DWORD PTR _matEnt$[ebp+48], xmm0

; 566  : 		matEnt.pos.Y = m_vecOnfootTargetPos.Y;

	mov	eax, DWORD PTR _this$[ebp]
	movss	xmm0, DWORD PTR [eax+243]
	movss	DWORD PTR _matEnt$[ebp+52], xmm0

; 567  : 		matEnt.pos.Z = m_vecOnfootTargetPos.Z;

	mov	eax, DWORD PTR _this$[ebp]
	movss	xmm0, DWORD PTR [eax+247]
	movss	DWORD PTR _matEnt$[ebp+56], xmm0

; 568  : 		m_pPlayerPed->SetMatrix(matEnt);

	sub	esp, 64					; 00000040H
	mov	ecx, 16					; 00000010H
	lea	esi, DWORD PTR _matEnt$[ebp]
	mov	edi, esp
	rep movsd
	mov	eax, DWORD PTR _this$[ebp]
	mov	ecx, DWORD PTR [eax]
	call	?SetMatrix@CEntity@@QAEXU_MATRIX4X4@@@Z	; CEntity::SetMatrix
$LN9@UpdateOnfo:

; 569  : 	}
; 570  : 
; 571  : 	m_vecPositionInaccuracy.X = FloatOffset(m_vecOnfootTargetPos.X,matEnt.pos.X);

	push	ecx
	movss	xmm0, DWORD PTR _matEnt$[ebp+48]
	movss	DWORD PTR [esp], xmm0
	mov	eax, DWORD PTR _this$[ebp]
	push	ecx
	movss	xmm0, DWORD PTR [eax+239]
	movss	DWORD PTR [esp], xmm0
	call	?FloatOffset@@YAMMM@Z			; FloatOffset
	add	esp, 8
	mov	ecx, DWORD PTR _this$[ebp]
	fstp	DWORD PTR [ecx+287]

; 572  : 	m_vecPositionInaccuracy.Y = FloatOffset(m_vecOnfootTargetPos.Y,matEnt.pos.Y);

	push	ecx
	movss	xmm0, DWORD PTR _matEnt$[ebp+52]
	movss	DWORD PTR [esp], xmm0
	mov	eax, DWORD PTR _this$[ebp]
	push	ecx
	movss	xmm0, DWORD PTR [eax+243]
	movss	DWORD PTR [esp], xmm0
	call	?FloatOffset@@YAMMM@Z			; FloatOffset
	add	esp, 8
	mov	ecx, DWORD PTR _this$[ebp]
	fstp	DWORD PTR [ecx+291]

; 573  :     m_vecPositionInaccuracy.Z = FloatOffset(m_vecOnfootTargetPos.Z,matEnt.pos.Z);

	push	ecx
	movss	xmm0, DWORD PTR _matEnt$[ebp+56]
	movss	DWORD PTR [esp], xmm0
	mov	eax, DWORD PTR _this$[ebp]
	push	ecx
	movss	xmm0, DWORD PTR [eax+247]
	movss	DWORD PTR [esp], xmm0
	call	?FloatOffset@@YAMMM@Z			; FloatOffset
	add	esp, 8
	mov	ecx, DWORD PTR _this$[ebp]
	fstp	DWORD PTR [ecx+295]

; 574  : 
; 575  :      // check for an already valid position
; 576  : 	if( (m_vecPositionInaccuracy.X <= 0.0001f) &&
; 577  : 		(m_vecPositionInaccuracy.Y <= 0.0001f) &&
; 578  : 		(m_vecPositionInaccuracy.Z <= 0.0001f) )

	mov	eax, DWORD PTR _this$[ebp]
	movss	xmm0, DWORD PTR __real@38d1b717
	comiss	xmm0, DWORD PTR [eax+287]
	jb	SHORT $LN7@UpdateOnfo
	mov	eax, DWORD PTR _this$[ebp]
	movss	xmm0, DWORD PTR __real@38d1b717
	comiss	xmm0, DWORD PTR [eax+291]
	jb	SHORT $LN7@UpdateOnfo
	mov	eax, DWORD PTR _this$[ebp]
	movss	xmm0, DWORD PTR __real@38d1b717
	comiss	xmm0, DWORD PTR [eax+295]
	jb	SHORT $LN7@UpdateOnfo

; 579  : 	{
; 580  : 		// nothing to do
; 581  : 		return;

	jmp	$LN11@UpdateOnfo
$LN7@UpdateOnfo:

; 582  : 	}
; 583  : 
; 584  : 	// Directly translate way-out position
; 585  : 	if( (m_vecPositionInaccuracy.X > 2.5f) ||
; 586  : 		(m_vecPositionInaccuracy.Y > 2.5f) ||
; 587  : 		(m_vecPositionInaccuracy.Z > 1.0f) ) {

	mov	eax, DWORD PTR _this$[ebp]
	movss	xmm0, DWORD PTR [eax+287]
	comiss	xmm0, DWORD PTR __real@40200000
	ja	SHORT $LN5@UpdateOnfo
	mov	eax, DWORD PTR _this$[ebp]
	movss	xmm0, DWORD PTR [eax+291]
	comiss	xmm0, DWORD PTR __real@40200000
	ja	SHORT $LN5@UpdateOnfo
	mov	eax, DWORD PTR _this$[ebp]
	movss	xmm0, DWORD PTR [eax+295]
	comiss	xmm0, DWORD PTR __real@3f800000
	jbe	SHORT $LN6@UpdateOnfo
$LN5@UpdateOnfo:

; 588  : 
; 589  : 		matEnt.pos.X = m_vecOnfootTargetPos.X;

	mov	eax, DWORD PTR _this$[ebp]
	movss	xmm0, DWORD PTR [eax+239]
	movss	DWORD PTR _matEnt$[ebp+48], xmm0

; 590  : 		matEnt.pos.Y = m_vecOnfootTargetPos.Y;

	mov	eax, DWORD PTR _this$[ebp]
	movss	xmm0, DWORD PTR [eax+243]
	movss	DWORD PTR _matEnt$[ebp+52], xmm0

; 591  : 		matEnt.pos.Z = m_vecOnfootTargetPos.Z;

	mov	eax, DWORD PTR _this$[ebp]
	movss	xmm0, DWORD PTR [eax+247]
	movss	DWORD PTR _matEnt$[ebp+56], xmm0

; 592  : 
; 593  : 		m_pPlayerPed->SetMatrix(matEnt);

	sub	esp, 64					; 00000040H
	mov	ecx, 16					; 00000010H
	lea	esi, DWORD PTR _matEnt$[ebp]
	mov	edi, esp
	rep movsd
	mov	eax, DWORD PTR _this$[ebp]
	mov	ecx, DWORD PTR [eax]
	call	?SetMatrix@CEntity@@QAEXU_MATRIX4X4@@@Z	; CEntity::SetMatrix

; 594  : 
; 595  : 		return;

	jmp	$LN11@UpdateOnfo
$LN6@UpdateOnfo:

; 596  : 	}
; 597  : 
; 598  : 	// Avoid direct translation by increasing velocity
; 599  : 	// towards the target
; 600  : 	
; 601  : 	VECTOR vec;
; 602  : 	m_pPlayerPed->GetMoveSpeedVector(&vec);

	lea	eax, DWORD PTR _vec$[ebp]
	push	eax
	mov	ecx, DWORD PTR _this$[ebp]
	mov	ecx, DWORD PTR [ecx]
	call	?GetMoveSpeedVector@CEntity@@QAEXPAU_VECTOR@@@Z ; CEntity::GetMoveSpeedVector

; 603  : 
; 604  : 	float fMultiplyAmount = fOnFootCorrectionMultiplier;

	movss	xmm0, DWORD PTR ?fOnFootCorrectionMultiplier@@3MA
	movss	DWORD PTR _fMultiplyAmount$[ebp], xmm0

; 605  : 
; 606  : 	if(!m_pPlayerPed->IsOnGround()) {

	mov	eax, DWORD PTR _this$[ebp]
	mov	ecx, DWORD PTR [eax]
	call	?IsOnGround@CPlayerPed@@QAEHXZ		; CPlayerPed::IsOnGround
	test	eax, eax
	jne	SHORT $LN4@UpdateOnfo

; 607  : 		fMultiplyAmount = fMultiplyAmount * 0.25f;

	movss	xmm0, DWORD PTR _fMultiplyAmount$[ebp]
	mulss	xmm0, DWORD PTR __real@3e800000
	movss	DWORD PTR _fMultiplyAmount$[ebp], xmm0
$LN4@UpdateOnfo:

; 608  : 	}
; 609  : 
; 610  : 	if( m_vecPositionInaccuracy.X > 0.0001f ) {

	mov	eax, DWORD PTR _this$[ebp]
	movss	xmm0, DWORD PTR [eax+287]
	comiss	xmm0, DWORD PTR __real@38d1b717
	jbe	SHORT $LN3@UpdateOnfo

; 611  : 		vec.X += ((m_vecOnfootTargetPos.X - matEnt.pos.X) * fInaccuracyFactorMultiplier) * fMultiplyAmount;

	mov	eax, DWORD PTR _this$[ebp]
	movss	xmm0, DWORD PTR [eax+239]
	subss	xmm0, DWORD PTR _matEnt$[ebp+48]
	mulss	xmm0, DWORD PTR ?fInaccuracyFactorMultiplier@@3MA
	mulss	xmm0, DWORD PTR _fMultiplyAmount$[ebp]
	addss	xmm0, DWORD PTR _vec$[ebp]
	movss	DWORD PTR _vec$[ebp], xmm0
$LN3@UpdateOnfo:

; 612  : 	}
; 613  : 	if( m_vecPositionInaccuracy.Y > 0.0001f ) {

	mov	eax, DWORD PTR _this$[ebp]
	movss	xmm0, DWORD PTR [eax+291]
	comiss	xmm0, DWORD PTR __real@38d1b717
	jbe	SHORT $LN2@UpdateOnfo

; 614  : 		vec.Y += ((m_vecOnfootTargetPos.Y - matEnt.pos.Y) * fInaccuracyFactorMultiplier) * fMultiplyAmount;

	mov	eax, DWORD PTR _this$[ebp]
	movss	xmm0, DWORD PTR [eax+243]
	subss	xmm0, DWORD PTR _matEnt$[ebp+52]
	mulss	xmm0, DWORD PTR ?fInaccuracyFactorMultiplier@@3MA
	mulss	xmm0, DWORD PTR _fMultiplyAmount$[ebp]
	addss	xmm0, DWORD PTR _vec$[ebp+4]
	movss	DWORD PTR _vec$[ebp+4], xmm0
$LN2@UpdateOnfo:

; 615  : 	}
; 616  : 	if( m_vecPositionInaccuracy.Z > 0.0001f ) {

	mov	eax, DWORD PTR _this$[ebp]
	movss	xmm0, DWORD PTR [eax+295]
	comiss	xmm0, DWORD PTR __real@38d1b717
	jbe	SHORT $LN1@UpdateOnfo

; 617  : 		vec.Z += ((m_vecOnfootTargetPos.Z - matEnt.pos.Z) * fInaccuracyFactorMultiplier) * 0.025f;

	mov	eax, DWORD PTR _this$[ebp]
	movss	xmm0, DWORD PTR [eax+247]
	subss	xmm0, DWORD PTR _matEnt$[ebp+56]
	mulss	xmm0, DWORD PTR ?fInaccuracyFactorMultiplier@@3MA
	mulss	xmm0, DWORD PTR __real@3ccccccd
	addss	xmm0, DWORD PTR _vec$[ebp+8]
	movss	DWORD PTR _vec$[ebp+8], xmm0
$LN1@UpdateOnfo:

; 618  : 	}
; 619  : 
; 620  : 	m_pPlayerPed->SetMoveSpeedVector(vec);

	sub	esp, 12					; 0000000cH
	mov	eax, esp
	mov	ecx, DWORD PTR _vec$[ebp]
	mov	DWORD PTR [eax], ecx
	mov	edx, DWORD PTR _vec$[ebp+4]
	mov	DWORD PTR [eax+4], edx
	mov	ecx, DWORD PTR _vec$[ebp+8]
	mov	DWORD PTR [eax+8], ecx
	mov	edx, DWORD PTR _this$[ebp]
	mov	ecx, DWORD PTR [edx]
	call	?SetMoveSpeedVector@CEntity@@QAEXU_VECTOR@@@Z ; CEntity::SetMoveSpeedVector

; 621  : 	m_pPlayerPed->ApplyMoveSpeed();

	mov	eax, DWORD PTR _this$[ebp]
	mov	ecx, DWORD PTR [eax]
	call	?ApplyMoveSpeed@CEntity@@QAEXXZ		; CEntity::ApplyMoveSpeed
$LN11@UpdateOnfo:

; 622  : }

	push	edx
	mov	ecx, ebp
	push	eax
	lea	edx, DWORD PTR $LN16@UpdateOnfo
	call	@_RTC_CheckStackVars@8
	pop	eax
	pop	edx
	pop	edi
	pop	esi
	pop	ebx
	mov	ecx, DWORD PTR __$ArrayPad$[ebp]
	xor	ecx, ebp
	call	@__security_check_cookie@4
	add	esp, 312				; 00000138H
	cmp	ebp, esp
	call	__RTC_CheckEsp
	mov	esp, ebp
	pop	ebp
	ret	0
	npad	1
$LN16@UpdateOnfo:
	DD	2
	DD	$LN15@UpdateOnfo
$LN15@UpdateOnfo:
	DD	-84					; ffffffacH
	DD	64					; 00000040H
	DD	$LN13@UpdateOnfo
	DD	-104					; ffffff98H
	DD	12					; 0000000cH
	DD	$LN14@UpdateOnfo
$LN14@UpdateOnfo:
	DB	118					; 00000076H
	DB	101					; 00000065H
	DB	99					; 00000063H
	DB	0
$LN13@UpdateOnfo:
	DB	109					; 0000006dH
	DB	97					; 00000061H
	DB	116					; 00000074H
	DB	69					; 00000045H
	DB	110					; 0000006eH
	DB	116					; 00000074H
	DB	0
?UpdateOnfootTargetPosition@CRemotePlayer@@QAEXXZ ENDP	; CRemotePlayer::UpdateOnfootTargetPosition
_TEXT	ENDS
; Function compile flags: /Odtp /RTCsu /ZI
; File z:\sampsrc\02xu1\saco\net\remoteplayer.cpp
;	COMDAT ?UpdateIncarTargetPosition@CRemotePlayer@@QAEXXZ
_TEXT	SEGMENT
_fTestZInaccuracy$ = -116				; size = 4
_vec$ = -104						; size = 12
_matEnt$ = -84						; size = 64
_this$ = -12						; size = 4
__$ArrayPad$ = -4					; size = 4
?UpdateIncarTargetPosition@CRemotePlayer@@QAEXXZ PROC	; CRemotePlayer::UpdateIncarTargetPosition, COMDAT
; _this$ = ecx

; 651  : {

	push	ebp
	mov	ebp, esp
	sub	esp, 312				; 00000138H
	push	ebx
	push	esi
	push	edi
	push	ecx
	lea	edi, DWORD PTR [ebp-312]
	mov	ecx, 78					; 0000004eH
	mov	eax, -858993460				; ccccccccH
	rep stosd
	pop	ecx
	mov	eax, DWORD PTR ___security_cookie
	xor	eax, ebp
	mov	DWORD PTR __$ArrayPad$[ebp], eax
	mov	DWORD PTR _this$[ebp], ecx

; 652  : 	MATRIX4X4 matEnt;
; 653  : 	VECTOR vec = {0.0f,0.0f,0.0f};

	movss	xmm0, DWORD PTR __real@00000000
	movss	DWORD PTR _vec$[ebp], xmm0
	movss	xmm0, DWORD PTR __real@00000000
	movss	DWORD PTR _vec$[ebp+4], xmm0
	movss	xmm0, DWORD PTR __real@00000000
	movss	DWORD PTR _vec$[ebp+8], xmm0

; 654  : 
; 655  : 	if(!m_pCurrentVehicle) return;

	mov	eax, DWORD PTR _this$[ebp]
	cmp	DWORD PTR [eax+311], 0
	jne	SHORT $LN11@UpdateInca
	jmp	$LN12@UpdateInca
$LN11@UpdateInca:

; 656  : 	m_pCurrentVehicle->GetMatrix(&matEnt);

	lea	eax, DWORD PTR _matEnt$[ebp]
	push	eax
	mov	ecx, DWORD PTR _this$[ebp]
	mov	ecx, DWORD PTR [ecx+311]
	call	?GetMatrix@CEntity@@QAEXPAU_MATRIX4X4@@@Z ; CEntity::GetMatrix

; 657  : 
; 658  : 	if(!m_pCurrentVehicle->IsAdded()) {

	mov	eax, DWORD PTR _this$[ebp]
	mov	ecx, DWORD PTR [eax+311]
	call	?IsAdded@CEntity@@QAEHXZ		; CEntity::IsAdded
	test	eax, eax
	jne	SHORT $LN10@UpdateInca

; 659  : 		matEnt.pos.X = m_vecIncarTargetPos.X;

	mov	eax, DWORD PTR _this$[ebp]
	movss	xmm0, DWORD PTR [eax+263]
	movss	DWORD PTR _matEnt$[ebp+48], xmm0

; 660  : 		matEnt.pos.Y = m_vecIncarTargetPos.Y;

	mov	eax, DWORD PTR _this$[ebp]
	movss	xmm0, DWORD PTR [eax+267]
	movss	DWORD PTR _matEnt$[ebp+52], xmm0

; 661  : 		matEnt.pos.Z = m_vecIncarTargetPos.Z;

	mov	eax, DWORD PTR _this$[ebp]
	movss	xmm0, DWORD PTR [eax+271]
	movss	DWORD PTR _matEnt$[ebp+56], xmm0

; 662  : 		m_pCurrentVehicle->SetMatrix(matEnt);

	sub	esp, 64					; 00000040H
	mov	ecx, 16					; 00000010H
	lea	esi, DWORD PTR _matEnt$[ebp]
	mov	edi, esp
	rep movsd
	mov	eax, DWORD PTR _this$[ebp]
	mov	ecx, DWORD PTR [eax+311]
	call	?SetMatrix@CEntity@@QAEXU_MATRIX4X4@@@Z	; CEntity::SetMatrix

; 663  :         //m_pCurrentVehicle->SetMoveSpeedVector(vec);
; 664  : 		return;

	jmp	$LN12@UpdateInca
$LN10@UpdateInca:

; 665  : 	}
; 666  : 
; 667  :   	// Don't apply any updates from vehicle mod shops
; 668  : 	if(m_iIsInAModShop)

	mov	eax, DWORD PTR _this$[ebp]
	cmp	DWORD PTR [eax+352], 0
	je	$LN9@UpdateInca

; 669  : 	{
; 670  : 		m_pPlayerPed->SetKeys(0,0,0);

	push	0
	push	0
	push	0
	mov	eax, DWORD PTR _this$[ebp]
	mov	ecx, DWORD PTR [eax]
	call	?SetKeys@CPlayerPed@@QAEXGGG@Z		; CPlayerPed::SetKeys

; 671  : 		m_pCurrentVehicle->SetMoveSpeedVector(vec);

	sub	esp, 12					; 0000000cH
	mov	eax, esp
	mov	ecx, DWORD PTR _vec$[ebp]
	mov	DWORD PTR [eax], ecx
	mov	edx, DWORD PTR _vec$[ebp+4]
	mov	DWORD PTR [eax+4], edx
	mov	ecx, DWORD PTR _vec$[ebp+8]
	mov	DWORD PTR [eax+8], ecx
	mov	edx, DWORD PTR _this$[ebp]
	mov	ecx, DWORD PTR [edx+311]
	call	?SetMoveSpeedVector@CEntity@@QAEXU_VECTOR@@@Z ; CEntity::SetMoveSpeedVector

; 672  : 		m_icSync.udAnalog = 0;

	xor	eax, eax
	mov	ecx, DWORD PTR _this$[ebp]
	mov	WORD PTR [ecx+62], ax

; 673  : 		m_icSync.lrAnalog = 0;

	xor	eax, eax
	mov	ecx, DWORD PTR _this$[ebp]
	mov	WORD PTR [ecx+60], ax

; 674  : 		m_icSync.wKeys = 0;

	xor	eax, eax
	mov	ecx, DWORD PTR _this$[ebp]
	mov	WORD PTR [ecx+64], ax

; 675  : 		m_icSync.vecMoveSpeed.X = 0.0f;

	mov	eax, DWORD PTR _this$[ebp]
	movss	xmm0, DWORD PTR __real@00000000
	movss	DWORD PTR [eax+96], xmm0

; 676  : 		m_icSync.vecMoveSpeed.Y = 0.0f;

	mov	eax, DWORD PTR _this$[ebp]
	movss	xmm0, DWORD PTR __real@00000000
	movss	DWORD PTR [eax+100], xmm0

; 677  : 		m_icSync.vecMoveSpeed.Z = 0.0f;

	mov	eax, DWORD PTR _this$[ebp]
	movss	xmm0, DWORD PTR __real@00000000
	movss	DWORD PTR [eax+104], xmm0

; 678  : 		return;

	jmp	$LN12@UpdateInca
$LN9@UpdateInca:

; 679  : 	}
; 680  : 	
; 681  : 	m_vecPositionInaccuracy.X = FloatOffset(m_vecIncarTargetPos.X,matEnt.pos.X);

	push	ecx
	movss	xmm0, DWORD PTR _matEnt$[ebp+48]
	movss	DWORD PTR [esp], xmm0
	mov	eax, DWORD PTR _this$[ebp]
	push	ecx
	movss	xmm0, DWORD PTR [eax+263]
	movss	DWORD PTR [esp], xmm0
	call	?FloatOffset@@YAMMM@Z			; FloatOffset
	add	esp, 8
	mov	ecx, DWORD PTR _this$[ebp]
	fstp	DWORD PTR [ecx+287]

; 682  : 	m_vecPositionInaccuracy.Y = FloatOffset(m_vecIncarTargetPos.Y,matEnt.pos.Y);

	push	ecx
	movss	xmm0, DWORD PTR _matEnt$[ebp+52]
	movss	DWORD PTR [esp], xmm0
	mov	eax, DWORD PTR _this$[ebp]
	push	ecx
	movss	xmm0, DWORD PTR [eax+267]
	movss	DWORD PTR [esp], xmm0
	call	?FloatOffset@@YAMMM@Z			; FloatOffset
	add	esp, 8
	mov	ecx, DWORD PTR _this$[ebp]
	fstp	DWORD PTR [ecx+291]

; 683  :     m_vecPositionInaccuracy.Z = FloatOffset(m_vecIncarTargetPos.Z,matEnt.pos.Z);

	push	ecx
	movss	xmm0, DWORD PTR _matEnt$[ebp+56]
	movss	DWORD PTR [esp], xmm0
	mov	eax, DWORD PTR _this$[ebp]
	push	ecx
	movss	xmm0, DWORD PTR [eax+271]
	movss	DWORD PTR [esp], xmm0
	call	?FloatOffset@@YAMMM@Z			; FloatOffset
	add	esp, 8
	mov	ecx, DWORD PTR _this$[ebp]
	fstp	DWORD PTR [ecx+295]

; 684  : 
; 685  :     // check for an already valid position
; 686  : 	if( (m_vecPositionInaccuracy.X <= 0.002f) &&
; 687  : 		(m_vecPositionInaccuracy.Y <= 0.002f) &&
; 688  : 		(m_vecPositionInaccuracy.Z <= 0.002f) )

	mov	eax, DWORD PTR _this$[ebp]
	movss	xmm0, DWORD PTR __real@3b03126f
	comiss	xmm0, DWORD PTR [eax+287]
	jb	SHORT $LN8@UpdateInca
	mov	eax, DWORD PTR _this$[ebp]
	movss	xmm0, DWORD PTR __real@3b03126f
	comiss	xmm0, DWORD PTR [eax+291]
	jb	SHORT $LN8@UpdateInca
	mov	eax, DWORD PTR _this$[ebp]
	movss	xmm0, DWORD PTR __real@3b03126f
	comiss	xmm0, DWORD PTR [eax+295]
	jb	SHORT $LN8@UpdateInca

; 689  : 	{
; 690  : 		// nothing to do
; 691  : 		return;

	jmp	$LN12@UpdateInca
$LN8@UpdateInca:

; 692  : 	}
; 693  : 
; 694  : 	float fTestZInaccuracy = 0.5f;

	movss	xmm0, DWORD PTR __real@3f000000
	movss	DWORD PTR _fTestZInaccuracy$[ebp], xmm0

; 695  : 
; 696  : 	if( m_pCurrentVehicle->GetVehicleSubtype() == VEHICLE_SUBTYPE_BOAT ||
; 697  : 		m_pCurrentVehicle->GetVehicleSubtype() == VEHICLE_SUBTYPE_PLANE ||
; 698  : 		m_pCurrentVehicle->GetVehicleSubtype() == VEHICLE_SUBTYPE_HELI )

	mov	eax, DWORD PTR _this$[ebp]
	mov	ecx, DWORD PTR [eax+311]
	call	?GetVehicleSubtype@CVehicle@@QAEIXZ	; CVehicle::GetVehicleSubtype
	cmp	eax, 4
	je	SHORT $LN6@UpdateInca
	mov	eax, DWORD PTR _this$[ebp]
	mov	ecx, DWORD PTR [eax+311]
	call	?GetVehicleSubtype@CVehicle@@QAEIXZ	; CVehicle::GetVehicleSubtype
	cmp	eax, 5
	je	SHORT $LN6@UpdateInca
	mov	eax, DWORD PTR _this$[ebp]
	mov	ecx, DWORD PTR [eax+311]
	call	?GetVehicleSubtype@CVehicle@@QAEIXZ	; CVehicle::GetVehicleSubtype
	cmp	eax, 3
	jne	SHORT $LN7@UpdateInca
$LN6@UpdateInca:

; 699  : 	{
; 700  : 		fTestZInaccuracy = 5.0f;

	movss	xmm0, DWORD PTR __real@40a00000
	movss	DWORD PTR _fTestZInaccuracy$[ebp], xmm0
$LN7@UpdateInca:

; 701  : 	}
; 702  : 
; 703  : 	// Directly translate way-out position
; 704  : 	if( (m_vecPositionInaccuracy.X > 8.0f) ||
; 705  : 		(m_vecPositionInaccuracy.Y > 8.0f) ||
; 706  : 		(m_vecPositionInaccuracy.Z > fTestZInaccuracy) )

	mov	eax, DWORD PTR _this$[ebp]
	movss	xmm0, DWORD PTR [eax+287]
	comiss	xmm0, DWORD PTR __real@41000000
	ja	SHORT $LN4@UpdateInca
	mov	eax, DWORD PTR _this$[ebp]
	movss	xmm0, DWORD PTR [eax+291]
	comiss	xmm0, DWORD PTR __real@41000000
	ja	SHORT $LN4@UpdateInca
	mov	eax, DWORD PTR _this$[ebp]
	movss	xmm0, DWORD PTR [eax+295]
	comiss	xmm0, DWORD PTR _fTestZInaccuracy$[ebp]
	jbe	SHORT $LN5@UpdateInca
$LN4@UpdateInca:

; 707  : 	{
; 708  : 		matEnt.pos.X = m_vecIncarTargetPos.X;

	mov	eax, DWORD PTR _this$[ebp]
	movss	xmm0, DWORD PTR [eax+263]
	movss	DWORD PTR _matEnt$[ebp+48], xmm0

; 709  : 		matEnt.pos.Y = m_vecIncarTargetPos.Y;

	mov	eax, DWORD PTR _this$[ebp]
	movss	xmm0, DWORD PTR [eax+267]
	movss	DWORD PTR _matEnt$[ebp+52], xmm0

; 710  : 		matEnt.pos.Z = m_vecIncarTargetPos.Z;

	mov	eax, DWORD PTR _this$[ebp]
	movss	xmm0, DWORD PTR [eax+271]
	movss	DWORD PTR _matEnt$[ebp+56], xmm0

; 711  : 
; 712  : 		m_pCurrentVehicle->SetMatrix(matEnt);

	sub	esp, 64					; 00000040H
	mov	ecx, 16					; 00000010H
	lea	esi, DWORD PTR _matEnt$[ebp]
	mov	edi, esp
	rep movsd
	mov	eax, DWORD PTR _this$[ebp]
	mov	ecx, DWORD PTR [eax+311]
	call	?SetMatrix@CEntity@@QAEXU_MATRIX4X4@@@Z	; CEntity::SetMatrix

; 713  :         m_pCurrentVehicle->SetMoveSpeedVector(m_vecIncarTargetSpeed);

	mov	eax, DWORD PTR _this$[ebp]
	add	eax, 275				; 00000113H
	sub	esp, 12					; 0000000cH
	mov	ecx, esp
	mov	edx, DWORD PTR [eax]
	mov	DWORD PTR [ecx], edx
	mov	edx, DWORD PTR [eax+4]
	mov	DWORD PTR [ecx+4], edx
	mov	eax, DWORD PTR [eax+8]
	mov	DWORD PTR [ecx+8], eax
	mov	ecx, DWORD PTR _this$[ebp]
	mov	ecx, DWORD PTR [ecx+311]
	call	?SetMoveSpeedVector@CEntity@@QAEXU_VECTOR@@@Z ; CEntity::SetMoveSpeedVector

; 714  : 
; 715  : 		return;

	jmp	$LN12@UpdateInca
$LN5@UpdateInca:

; 716  : 	}
; 717  : 
; 718  : 	// Avoid direct translation by increasing velocity
; 719  : 	// towards the target
; 720  : 	m_pCurrentVehicle->GetMoveSpeedVector(&vec);

	lea	eax, DWORD PTR _vec$[ebp]
	push	eax
	mov	ecx, DWORD PTR _this$[ebp]
	mov	ecx, DWORD PTR [ecx+311]
	call	?GetMoveSpeedVector@CEntity@@QAEXPAU_VECTOR@@@Z ; CEntity::GetMoveSpeedVector

; 721  : 
; 722  : 	if( m_vecPositionInaccuracy.X > 0.002f ) {

	mov	eax, DWORD PTR _this$[ebp]
	movss	xmm0, DWORD PTR [eax+287]
	comiss	xmm0, DWORD PTR __real@3b03126f
	jbe	SHORT $LN3@UpdateInca

; 723  : 		vec.X += (m_vecIncarTargetPos.X - matEnt.pos.X) * fInCarCorrectionMultiplier;

	mov	eax, DWORD PTR _this$[ebp]
	movss	xmm0, DWORD PTR [eax+263]
	subss	xmm0, DWORD PTR _matEnt$[ebp+48]
	mulss	xmm0, DWORD PTR ?fInCarCorrectionMultiplier@@3MA
	addss	xmm0, DWORD PTR _vec$[ebp]
	movss	DWORD PTR _vec$[ebp], xmm0
$LN3@UpdateInca:

; 724  : 	}
; 725  : 	if( m_vecPositionInaccuracy.Y > 0.002f ) {

	mov	eax, DWORD PTR _this$[ebp]
	movss	xmm0, DWORD PTR [eax+291]
	comiss	xmm0, DWORD PTR __real@3b03126f
	jbe	SHORT $LN2@UpdateInca

; 726  : 		vec.Y += (m_vecIncarTargetPos.Y - matEnt.pos.Y) * fInCarCorrectionMultiplier;

	mov	eax, DWORD PTR _this$[ebp]
	movss	xmm0, DWORD PTR [eax+267]
	subss	xmm0, DWORD PTR _matEnt$[ebp+52]
	mulss	xmm0, DWORD PTR ?fInCarCorrectionMultiplier@@3MA
	addss	xmm0, DWORD PTR _vec$[ebp+4]
	movss	DWORD PTR _vec$[ebp+4], xmm0
$LN2@UpdateInca:

; 727  : 	}
; 728  : 	if( m_vecPositionInaccuracy.Z > 0.002f ) {

	mov	eax, DWORD PTR _this$[ebp]
	movss	xmm0, DWORD PTR [eax+295]
	comiss	xmm0, DWORD PTR __real@3b03126f
	jbe	SHORT $LN1@UpdateInca

; 729  : 		vec.Z += (m_vecIncarTargetPos.Z - matEnt.pos.Z) * fInCarCorrectionMultiplier;

	mov	eax, DWORD PTR _this$[ebp]
	movss	xmm0, DWORD PTR [eax+271]
	subss	xmm0, DWORD PTR _matEnt$[ebp+56]
	mulss	xmm0, DWORD PTR ?fInCarCorrectionMultiplier@@3MA
	addss	xmm0, DWORD PTR _vec$[ebp+8]
	movss	DWORD PTR _vec$[ebp+8], xmm0
$LN1@UpdateInca:

; 730  : 	}
; 731  : 
; 732  : 	m_pCurrentVehicle->SetMoveSpeedVector(vec);

	sub	esp, 12					; 0000000cH
	mov	eax, esp
	mov	ecx, DWORD PTR _vec$[ebp]
	mov	DWORD PTR [eax], ecx
	mov	edx, DWORD PTR _vec$[ebp+4]
	mov	DWORD PTR [eax+4], edx
	mov	ecx, DWORD PTR _vec$[ebp+8]
	mov	DWORD PTR [eax+8], ecx
	mov	edx, DWORD PTR _this$[ebp]
	mov	ecx, DWORD PTR [edx+311]
	call	?SetMoveSpeedVector@CEntity@@QAEXU_VECTOR@@@Z ; CEntity::SetMoveSpeedVector
$LN12@UpdateInca:

; 733  : }

	push	edx
	mov	ecx, ebp
	push	eax
	lea	edx, DWORD PTR $LN17@UpdateInca
	call	@_RTC_CheckStackVars@8
	pop	eax
	pop	edx
	pop	edi
	pop	esi
	pop	ebx
	mov	ecx, DWORD PTR __$ArrayPad$[ebp]
	xor	ecx, ebp
	call	@__security_check_cookie@4
	add	esp, 312				; 00000138H
	cmp	ebp, esp
	call	__RTC_CheckEsp
	mov	esp, ebp
	pop	ebp
	ret	0
	npad	1
$LN17@UpdateInca:
	DD	2
	DD	$LN16@UpdateInca
$LN16@UpdateInca:
	DD	-84					; ffffffacH
	DD	64					; 00000040H
	DD	$LN14@UpdateInca
	DD	-104					; ffffff98H
	DD	12					; 0000000cH
	DD	$LN15@UpdateInca
$LN15@UpdateInca:
	DB	118					; 00000076H
	DB	101					; 00000065H
	DB	99					; 00000063H
	DB	0
$LN14@UpdateInca:
	DB	109					; 0000006dH
	DB	97					; 00000061H
	DB	116					; 00000074H
	DB	69					; 00000045H
	DB	110					; 0000006eH
	DB	116					; 00000074H
	DB	0
?UpdateIncarTargetPosition@CRemotePlayer@@QAEXXZ ENDP	; CRemotePlayer::UpdateIncarTargetPosition
_TEXT	ENDS
; Function compile flags: /Odtp /RTCsu /ZI
; File z:\sampsrc\02xu1\saco\net\remoteplayer.h
;	COMDAT ?IsActive@CRemotePlayer@@QAEHXZ
_TEXT	SEGMENT
_this$ = -8						; size = 4
?IsActive@CRemotePlayer@@QAEHXZ PROC			; CRemotePlayer::IsActive, COMDAT
; _this$ = ecx

; 104  : 	BOOL IsActive() {

	push	ebp
	mov	ebp, esp
	sub	esp, 204				; 000000ccH
	push	ebx
	push	esi
	push	edi
	push	ecx
	lea	edi, DWORD PTR [ebp-204]
	mov	ecx, 51					; 00000033H
	mov	eax, -858993460				; ccccccccH
	rep stosd
	pop	ecx
	mov	DWORD PTR _this$[ebp], ecx

; 105  : 		if(m_byteState != PLAYER_STATE_NONE && m_byteState != PLAYER_STATE_SPECTATING) {

	mov	eax, DWORD PTR _this$[ebp]
	movzx	ecx, BYTE PTR [eax+315]
	test	ecx, ecx
	je	SHORT $LN1@IsActive
	mov	eax, DWORD PTR _this$[ebp]
	movzx	ecx, BYTE PTR [eax+315]
	cmp	ecx, 9
	je	SHORT $LN1@IsActive

; 106  : 			return TRUE;

	mov	eax, 1
	jmp	SHORT $LN2@IsActive
$LN1@IsActive:

; 107  : 		}
; 108  : 		return FALSE;

	xor	eax, eax
$LN2@IsActive:

; 109  : 	};

	pop	edi
	pop	esi
	pop	ebx
	mov	esp, ebp
	pop	ebp
	ret	0
?IsActive@CRemotePlayer@@QAEHXZ ENDP			; CRemotePlayer::IsActive
_TEXT	ENDS
; Function compile flags: /Odtp /RTCsu /ZI
; File z:\sampsrc\02xu1\saco\net\remoteplayer.h
;	COMDAT ?GetPlayerPed@CRemotePlayer@@QAEPAVCPlayerPed@@XZ
_TEXT	SEGMENT
_this$ = -8						; size = 4
?GetPlayerPed@CRemotePlayer@@QAEPAVCPlayerPed@@XZ PROC	; CRemotePlayer::GetPlayerPed, COMDAT
; _this$ = ecx

; 102  : 	CPlayerPed * GetPlayerPed() { return m_pPlayerPed; };

	push	ebp
	mov	ebp, esp
	sub	esp, 204				; 000000ccH
	push	ebx
	push	esi
	push	edi
	push	ecx
	lea	edi, DWORD PTR [ebp-204]
	mov	ecx, 51					; 00000033H
	mov	eax, -858993460				; ccccccccH
	rep stosd
	pop	ecx
	mov	DWORD PTR _this$[ebp], ecx
	mov	eax, DWORD PTR _this$[ebp]
	mov	eax, DWORD PTR [eax]
	pop	edi
	pop	esi
	pop	ebx
	mov	esp, ebp
	pop	ebp
	ret	0
?GetPlayerPed@CRemotePlayer@@QAEPAVCPlayerPed@@XZ ENDP	; CRemotePlayer::GetPlayerPed
_TEXT	ENDS
; Function compile flags: /Odtp /RTCsu /ZI
; File z:\sampsrc\02xu1\saco\net\remoteplayer.cpp
;	COMDAT ?TeamPrivmsg@CRemotePlayer@@QAEXPAD@Z
_TEXT	SEGMENT
_szStr$ = -276						; size = 256
_this$ = -12						; size = 4
__$ArrayPad$ = -4					; size = 4
_szText$ = 8						; size = 4
?TeamPrivmsg@CRemotePlayer@@QAEXPAD@Z PROC		; CRemotePlayer::TeamPrivmsg, COMDAT
; _this$ = ecx

; 1010 : {

	push	ebp
	mov	ebp, esp
	sub	esp, 472				; 000001d8H
	push	ebx
	push	esi
	push	edi
	push	ecx
	lea	edi, DWORD PTR [ebp-472]
	mov	ecx, 118				; 00000076H
	mov	eax, -858993460				; ccccccccH
	rep stosd
	pop	ecx
	mov	eax, DWORD PTR ___security_cookie
	xor	eax, ebp
	mov	DWORD PTR __$ArrayPad$[ebp], eax
	mov	DWORD PTR _this$[ebp], ecx

; 1011 : 	CHAR szStr[256];
; 1012 : 	sprintf(szStr, "Team PM from %s(%d): %s", pNetGame->GetPlayerPool()->GetPlayerName(m_bytePlayerID), m_bytePlayerID, szText);

	mov	eax, DWORD PTR _szText$[ebp]
	push	eax
	mov	ecx, DWORD PTR _this$[ebp]
	movzx	edx, BYTE PTR [ecx+4]
	push	edx
	mov	eax, DWORD PTR _this$[ebp]
	movzx	ecx, BYTE PTR [eax+4]
	push	ecx
	mov	ecx, DWORD PTR ?pNetGame@@3PAVCNetGame@@A ; pNetGame
	call	?GetPlayerPool@CNetGame@@QAEPAVCPlayerPool@@XZ ; CNetGame::GetPlayerPool
	mov	ecx, eax
	call	?GetPlayerName@CPlayerPool@@QAEPADE@Z	; CPlayerPool::GetPlayerName
	push	eax
	push	OFFSET ??_C@_0BI@EOHHFAPA@Team?5PM?5from?5?$CFs?$CI?$CFd?$CJ?3?5?$CFs?$AA@
	lea	edx, DWORD PTR _szStr$[ebp]
	push	edx
	call	_sprintf
	add	esp, 20					; 00000014H

; 1013 : 	pChatWindow->AddClientMessage(D3DCOLOR_ARGB(255,220,24,26), szStr);

	lea	eax, DWORD PTR _szStr$[ebp]
	push	eax
	push	-2353126				; ffdc181aH
	mov	ecx, DWORD PTR ?pChatWindow@@3PAVCChatWindow@@A ; pChatWindow
	call	?AddClientMessage@CChatWindow@@QAEXKPAD@Z ; CChatWindow::AddClientMessage

; 1014 : }

	push	edx
	mov	ecx, ebp
	push	eax
	lea	edx, DWORD PTR $LN5@TeamPrivms
	call	@_RTC_CheckStackVars@8
	pop	eax
	pop	edx
	pop	edi
	pop	esi
	pop	ebx
	mov	ecx, DWORD PTR __$ArrayPad$[ebp]
	xor	ecx, ebp
	call	@__security_check_cookie@4
	add	esp, 472				; 000001d8H
	cmp	ebp, esp
	call	__RTC_CheckEsp
	mov	esp, ebp
	pop	ebp
	ret	4
$LN5@TeamPrivms:
	DD	1
	DD	$LN4@TeamPrivms
$LN4@TeamPrivms:
	DD	-276					; fffffeecH
	DD	256					; 00000100H
	DD	$LN3@TeamPrivms
$LN3@TeamPrivms:
	DB	115					; 00000073H
	DB	122					; 0000007aH
	DB	83					; 00000053H
	DB	116					; 00000074H
	DB	114					; 00000072H
	DB	0
?TeamPrivmsg@CRemotePlayer@@QAEXPAD@Z ENDP		; CRemotePlayer::TeamPrivmsg
_TEXT	ENDS
; Function compile flags: /Odtp /RTCsu /ZI
; File z:\sampsrc\02xu1\saco\net\remoteplayer.cpp
;	COMDAT ?Privmsg@CRemotePlayer@@QAEXPAD@Z
_TEXT	SEGMENT
_szStr$ = -276						; size = 256
_this$ = -12						; size = 4
__$ArrayPad$ = -4					; size = 4
_szText$ = 8						; size = 4
?Privmsg@CRemotePlayer@@QAEXPAD@Z PROC			; CRemotePlayer::Privmsg, COMDAT
; _this$ = ecx

; 1000 : {

	push	ebp
	mov	ebp, esp
	sub	esp, 472				; 000001d8H
	push	ebx
	push	esi
	push	edi
	push	ecx
	lea	edi, DWORD PTR [ebp-472]
	mov	ecx, 118				; 00000076H
	mov	eax, -858993460				; ccccccccH
	rep stosd
	pop	ecx
	mov	eax, DWORD PTR ___security_cookie
	xor	eax, ebp
	mov	DWORD PTR __$ArrayPad$[ebp], eax
	mov	DWORD PTR _this$[ebp], ecx

; 1001 : 	CHAR szStr[256];
; 1002 : 	sprintf(szStr, "PM from %s(%d): %s", pNetGame->GetPlayerPool()->GetPlayerName(m_bytePlayerID), m_bytePlayerID, szText);

	mov	eax, DWORD PTR _szText$[ebp]
	push	eax
	mov	ecx, DWORD PTR _this$[ebp]
	movzx	edx, BYTE PTR [ecx+4]
	push	edx
	mov	eax, DWORD PTR _this$[ebp]
	movzx	ecx, BYTE PTR [eax+4]
	push	ecx
	mov	ecx, DWORD PTR ?pNetGame@@3PAVCNetGame@@A ; pNetGame
	call	?GetPlayerPool@CNetGame@@QAEPAVCPlayerPool@@XZ ; CNetGame::GetPlayerPool
	mov	ecx, eax
	call	?GetPlayerName@CPlayerPool@@QAEPADE@Z	; CPlayerPool::GetPlayerName
	push	eax
	push	OFFSET ??_C@_0BD@BPPCHFDC@PM?5from?5?$CFs?$CI?$CFd?$CJ?3?5?$CFs?$AA@
	lea	edx, DWORD PTR _szStr$[ebp]
	push	edx
	call	_sprintf
	add	esp, 20					; 00000014H

; 1003 : 	pChatWindow->AddClientMessage(D3DCOLOR_ARGB(255,220,24,26), szStr);

	lea	eax, DWORD PTR _szStr$[ebp]
	push	eax
	push	-2353126				; ffdc181aH
	mov	ecx, DWORD PTR ?pChatWindow@@3PAVCChatWindow@@A ; pChatWindow
	call	?AddClientMessage@CChatWindow@@QAEXKPAD@Z ; CChatWindow::AddClientMessage

; 1004 : }

	push	edx
	mov	ecx, ebp
	push	eax
	lea	edx, DWORD PTR $LN5@Privmsg
	call	@_RTC_CheckStackVars@8
	pop	eax
	pop	edx
	pop	edi
	pop	esi
	pop	ebx
	mov	ecx, DWORD PTR __$ArrayPad$[ebp]
	xor	ecx, ebp
	call	@__security_check_cookie@4
	add	esp, 472				; 000001d8H
	cmp	ebp, esp
	call	__RTC_CheckEsp
	mov	esp, ebp
	pop	ebp
	ret	4
$LN5@Privmsg:
	DD	1
	DD	$LN4@Privmsg
$LN4@Privmsg:
	DD	-276					; fffffeecH
	DD	256					; 00000100H
	DD	$LN3@Privmsg
$LN3@Privmsg:
	DB	115					; 00000073H
	DB	122					; 0000007aH
	DB	83					; 00000053H
	DB	116					; 00000074H
	DB	114					; 00000072H
	DB	0
?Privmsg@CRemotePlayer@@QAEXPAD@Z ENDP			; CRemotePlayer::Privmsg
_TEXT	ENDS
; Function compile flags: /Odtp /RTCsu /ZI
; File z:\sampsrc\02xu1\saco\net\remoteplayer.cpp
;	COMDAT ?Say@CRemotePlayer@@QAEXPAE@Z
_TEXT	SEGMENT
_szPlayerName$ = -20					; size = 4
_this$ = -8						; size = 4
_szText$ = 8						; size = 4
?Say@CRemotePlayer@@QAEXPAE@Z PROC			; CRemotePlayer::Say, COMDAT
; _this$ = ecx

; 991  : {

	push	ebp
	mov	ebp, esp
	sub	esp, 216				; 000000d8H
	push	ebx
	push	esi
	push	edi
	push	ecx
	lea	edi, DWORD PTR [ebp-216]
	mov	ecx, 54					; 00000036H
	mov	eax, -858993460				; ccccccccH
	rep stosd
	pop	ecx
	mov	DWORD PTR _this$[ebp], ecx

; 992  : 	char * szPlayerName = pNetGame->GetPlayerPool()->GetPlayerName(m_bytePlayerID);

	mov	eax, DWORD PTR _this$[ebp]
	movzx	ecx, BYTE PTR [eax+4]
	push	ecx
	mov	ecx, DWORD PTR ?pNetGame@@3PAVCNetGame@@A ; pNetGame
	call	?GetPlayerPool@CNetGame@@QAEPAVCPlayerPool@@XZ ; CNetGame::GetPlayerPool
	mov	ecx, eax
	call	?GetPlayerName@CPlayerPool@@QAEPADE@Z	; CPlayerPool::GetPlayerName
	mov	DWORD PTR _szPlayerName$[ebp], eax

; 993  : 	pChatWindow->AddChatMessage(szPlayerName,GetPlayerColorAsARGB(),(char*)szText);

	mov	eax, DWORD PTR _szText$[ebp]
	push	eax
	mov	ecx, DWORD PTR _this$[ebp]
	call	?GetPlayerColorAsARGB@CRemotePlayer@@QAEKXZ ; CRemotePlayer::GetPlayerColorAsARGB
	push	eax
	mov	ecx, DWORD PTR _szPlayerName$[ebp]
	push	ecx
	mov	ecx, DWORD PTR ?pChatWindow@@3PAVCChatWindow@@A ; pChatWindow
	call	?AddChatMessage@CChatWindow@@QAEXPADK0@Z ; CChatWindow::AddChatMessage

; 994  : }

	pop	edi
	pop	esi
	pop	ebx
	add	esp, 216				; 000000d8H
	cmp	ebp, esp
	call	__RTC_CheckEsp
	mov	esp, ebp
	pop	ebp
	ret	4
?Say@CRemotePlayer@@QAEXPAE@Z ENDP			; CRemotePlayer::Say
_TEXT	ENDS
; Function compile flags: /Odtp /RTCsu /ZI
; File z:\sampsrc\02xu1\saco\net\remoteplayer.cpp
;	COMDAT ?UpdateSurfing@CRemotePlayer@@QAEXXZ
_TEXT	SEGMENT
_vecTurnSpeed$1 = -220					; size = 12
_vecMoveSpeed$2 = -200					; size = 12
_matVehicle$3 = -180					; size = 64
_matPlayer$4 = -108					; size = 64
_pVehicle$ = -36					; size = 4
_pVehiclePool$ = -24					; size = 4
_this$ = -12						; size = 4
__$ArrayPad$ = -4					; size = 4
?UpdateSurfing@CRemotePlayer@@QAEXXZ PROC		; CRemotePlayer::UpdateSurfing, COMDAT
; _this$ = ecx

; 532  : {

	push	ebp
	mov	ebp, esp
	sub	esp, 416				; 000001a0H
	push	ebx
	push	esi
	push	edi
	push	ecx
	lea	edi, DWORD PTR [ebp-416]
	mov	ecx, 104				; 00000068H
	mov	eax, -858993460				; ccccccccH
	rep stosd
	pop	ecx
	mov	eax, DWORD PTR ___security_cookie
	xor	eax, ebp
	mov	DWORD PTR __$ArrayPad$[ebp], eax
	mov	DWORD PTR _this$[ebp], ecx

; 533  : 	CVehiclePool* pVehiclePool = pNetGame->GetVehiclePool();

	mov	ecx, DWORD PTR ?pNetGame@@3PAVCNetGame@@A ; pNetGame
	call	?GetVehiclePool@CNetGame@@QAEPAVCVehiclePool@@XZ ; CNetGame::GetVehiclePool
	mov	DWORD PTR _pVehiclePool$[ebp], eax

; 534  : 	CVehicle* pVehicle = pVehiclePool->GetAt(m_ofSync.SurfVehicleId);

	mov	eax, DWORD PTR _this$[ebp]
	movzx	ecx, WORD PTR [eax+56]
	push	ecx
	mov	ecx, DWORD PTR _pVehiclePool$[ebp]
	call	?GetAt@CVehiclePool@@QAEPAVCVehicle@@G@Z ; CVehiclePool::GetAt
	mov	DWORD PTR _pVehicle$[ebp], eax

; 535  : 
; 536  : 	if (pVehicle) {

	cmp	DWORD PTR _pVehicle$[ebp], 0
	je	$LN1@UpdateSurf

; 537  : 		MATRIX4X4 matPlayer, matVehicle;
; 538  : 		VECTOR vecMoveSpeed,vecTurnSpeed;
; 539  : 
; 540  : 		pVehicle->GetMatrix(&matVehicle);

	lea	eax, DWORD PTR _matVehicle$3[ebp]
	push	eax
	mov	ecx, DWORD PTR _pVehicle$[ebp]
	call	?GetMatrix@CEntity@@QAEXPAU_MATRIX4X4@@@Z ; CEntity::GetMatrix

; 541  : 		pVehicle->GetMoveSpeedVector(&vecMoveSpeed);

	lea	eax, DWORD PTR _vecMoveSpeed$2[ebp]
	push	eax
	mov	ecx, DWORD PTR _pVehicle$[ebp]
	call	?GetMoveSpeedVector@CEntity@@QAEXPAU_VECTOR@@@Z ; CEntity::GetMoveSpeedVector

; 542  : 		pVehicle->GetTurnSpeedVector(&vecTurnSpeed);

	lea	eax, DWORD PTR _vecTurnSpeed$1[ebp]
	push	eax
	mov	ecx, DWORD PTR _pVehicle$[ebp]
	call	?GetTurnSpeedVector@CEntity@@QAEXPAU_VECTOR@@@Z ; CEntity::GetTurnSpeedVector

; 543  : 		m_pPlayerPed->GetMatrix(&matPlayer);

	lea	eax, DWORD PTR _matPlayer$4[ebp]
	push	eax
	mov	ecx, DWORD PTR _this$[ebp]
	mov	ecx, DWORD PTR [ecx]
	call	?GetMatrix@CEntity@@QAEXPAU_MATRIX4X4@@@Z ; CEntity::GetMatrix

; 544  : 		
; 545  : 		matPlayer.pos.X = matVehicle.pos.X + m_ofSync.vecSurfOffsets.X;

	mov	eax, DWORD PTR _this$[ebp]
	movss	xmm0, DWORD PTR _matVehicle$3[ebp+48]
	addss	xmm0, DWORD PTR [eax+44]
	movss	DWORD PTR _matPlayer$4[ebp+48], xmm0

; 546  : 		matPlayer.pos.Y = matVehicle.pos.Y + m_ofSync.vecSurfOffsets.Y;

	mov	eax, DWORD PTR _this$[ebp]
	movss	xmm0, DWORD PTR _matVehicle$3[ebp+52]
	addss	xmm0, DWORD PTR [eax+48]
	movss	DWORD PTR _matPlayer$4[ebp+52], xmm0

; 547  : 		matPlayer.pos.Z = matVehicle.pos.Z + m_ofSync.vecSurfOffsets.Z;

	mov	eax, DWORD PTR _this$[ebp]
	movss	xmm0, DWORD PTR _matVehicle$3[ebp+56]
	addss	xmm0, DWORD PTR [eax+52]
	movss	DWORD PTR _matPlayer$4[ebp+56], xmm0

; 548  : 
; 549  : 		m_pPlayerPed->SetMatrix(matPlayer);

	sub	esp, 64					; 00000040H
	mov	ecx, 16					; 00000010H
	lea	esi, DWORD PTR _matPlayer$4[ebp]
	mov	edi, esp
	rep movsd
	mov	eax, DWORD PTR _this$[ebp]
	mov	ecx, DWORD PTR [eax]
	call	?SetMatrix@CEntity@@QAEXU_MATRIX4X4@@@Z	; CEntity::SetMatrix

; 550  : 		m_pPlayerPed->SetMoveSpeedVector(vecMoveSpeed);

	sub	esp, 12					; 0000000cH
	mov	eax, esp
	mov	ecx, DWORD PTR _vecMoveSpeed$2[ebp]
	mov	DWORD PTR [eax], ecx
	mov	edx, DWORD PTR _vecMoveSpeed$2[ebp+4]
	mov	DWORD PTR [eax+4], edx
	mov	ecx, DWORD PTR _vecMoveSpeed$2[ebp+8]
	mov	DWORD PTR [eax+8], ecx
	mov	edx, DWORD PTR _this$[ebp]
	mov	ecx, DWORD PTR [edx]
	call	?SetMoveSpeedVector@CEntity@@QAEXU_VECTOR@@@Z ; CEntity::SetMoveSpeedVector
$LN1@UpdateSurf:

; 551  : 		//m_pPlayerPed->SetTurnSpeedVector(vecTurnSpeed);
; 552  : 	}
; 553  : }

	push	edx
	mov	ecx, ebp
	push	eax
	lea	edx, DWORD PTR $LN9@UpdateSurf
	call	@_RTC_CheckStackVars@8
	pop	eax
	pop	edx
	pop	edi
	pop	esi
	pop	ebx
	mov	ecx, DWORD PTR __$ArrayPad$[ebp]
	xor	ecx, ebp
	call	@__security_check_cookie@4
	add	esp, 416				; 000001a0H
	cmp	ebp, esp
	call	__RTC_CheckEsp
	mov	esp, ebp
	pop	ebp
	ret	0
	npad	3
$LN9@UpdateSurf:
	DD	4
	DD	$LN8@UpdateSurf
$LN8@UpdateSurf:
	DD	-108					; ffffff94H
	DD	64					; 00000040H
	DD	$LN4@UpdateSurf
	DD	-180					; ffffff4cH
	DD	64					; 00000040H
	DD	$LN5@UpdateSurf
	DD	-200					; ffffff38H
	DD	12					; 0000000cH
	DD	$LN6@UpdateSurf
	DD	-220					; ffffff24H
	DD	12					; 0000000cH
	DD	$LN7@UpdateSurf
$LN7@UpdateSurf:
	DB	118					; 00000076H
	DB	101					; 00000065H
	DB	99					; 00000063H
	DB	84					; 00000054H
	DB	117					; 00000075H
	DB	114					; 00000072H
	DB	110					; 0000006eH
	DB	83					; 00000053H
	DB	112					; 00000070H
	DB	101					; 00000065H
	DB	101					; 00000065H
	DB	100					; 00000064H
	DB	0
$LN6@UpdateSurf:
	DB	118					; 00000076H
	DB	101					; 00000065H
	DB	99					; 00000063H
	DB	77					; 0000004dH
	DB	111					; 0000006fH
	DB	118					; 00000076H
	DB	101					; 00000065H
	DB	83					; 00000053H
	DB	112					; 00000070H
	DB	101					; 00000065H
	DB	101					; 00000065H
	DB	100					; 00000064H
	DB	0
$LN5@UpdateSurf:
	DB	109					; 0000006dH
	DB	97					; 00000061H
	DB	116					; 00000074H
	DB	86					; 00000056H
	DB	101					; 00000065H
	DB	104					; 00000068H
	DB	105					; 00000069H
	DB	99					; 00000063H
	DB	108					; 0000006cH
	DB	101					; 00000065H
	DB	0
$LN4@UpdateSurf:
	DB	109					; 0000006dH
	DB	97					; 00000061H
	DB	116					; 00000074H
	DB	80					; 00000050H
	DB	108					; 0000006cH
	DB	97					; 00000061H
	DB	121					; 00000079H
	DB	101					; 00000065H
	DB	114					; 00000072H
	DB	0
?UpdateSurfing@CRemotePlayer@@QAEXXZ ENDP		; CRemotePlayer::UpdateSurfing
_TEXT	ENDS
; Function compile flags: /Odtp /RTCsu /ZI
; File z:\sampsrc\02xu1\saco\net\remoteplayer.cpp
;	COMDAT ?IsSurfingOrTurretMode@CRemotePlayer@@QAEHXZ
_TEXT	SEGMENT
_this$ = -8						; size = 4
?IsSurfingOrTurretMode@CRemotePlayer@@QAEHXZ PROC	; CRemotePlayer::IsSurfingOrTurretMode, COMDAT
; _this$ = ecx

; 518  : {

	push	ebp
	mov	ebp, esp
	sub	esp, 204				; 000000ccH
	push	ebx
	push	esi
	push	edi
	push	ecx
	lea	edi, DWORD PTR [ebp-204]
	mov	ecx, 51					; 00000033H
	mov	eax, -858993460				; ccccccccH
	rep stosd
	pop	ecx
	mov	DWORD PTR _this$[ebp], ecx

; 519  : 	if(GetState() == PLAYER_STATE_ONFOOT) {

	mov	ecx, DWORD PTR _this$[ebp]
	call	?GetState@CRemotePlayer@@QAEEXZ		; CRemotePlayer::GetState
	movzx	eax, al
	cmp	eax, 1
	jne	SHORT $LN2@IsSurfingO

; 520  : 		if( m_ofSync.SurfVehicleId != 0 &&
; 521  : 			m_ofSync.SurfVehicleId != INVALID_VEHICLE_ID &&
; 522  : 			m_ofSync.SurfVehicleId < MAX_VEHICLES ) {

	mov	eax, DWORD PTR _this$[ebp]
	movzx	ecx, WORD PTR [eax+56]
	test	ecx, ecx
	je	SHORT $LN2@IsSurfingO
	mov	eax, DWORD PTR _this$[ebp]
	movzx	ecx, WORD PTR [eax+56]
	cmp	ecx, 65535				; 0000ffffH
	je	SHORT $LN2@IsSurfingO
	mov	eax, DWORD PTR _this$[ebp]
	movzx	ecx, WORD PTR [eax+56]
	cmp	ecx, 702				; 000002beH
	jge	SHORT $LN2@IsSurfingO

; 523  : 			return TRUE;

	mov	eax, 1
	jmp	SHORT $LN3@IsSurfingO
$LN2@IsSurfingO:

; 524  : 		}
; 525  : 	}
; 526  : 	return FALSE;

	xor	eax, eax
$LN3@IsSurfingO:

; 527  : }

	pop	edi
	pop	esi
	pop	ebx
	add	esp, 204				; 000000ccH
	cmp	ebp, esp
	call	__RTC_CheckEsp
	mov	esp, ebp
	pop	ebp
	ret	0
?IsSurfingOrTurretMode@CRemotePlayer@@QAEHXZ ENDP	; CRemotePlayer::IsSurfingOrTurretMode
_TEXT	ENDS
; Function compile flags: /Odtp /RTCsu /ZI
; File z:\sampsrc\02xu1\saco\net\remoteplayer.cpp
;	COMDAT ?ForceOutOfCurrentVehicle@CRemotePlayer@@QAEXXZ
_TEXT	SEGMENT
_mat$1 = -84						; size = 64
_this$ = -12						; size = 4
__$ArrayPad$ = -4					; size = 4
?ForceOutOfCurrentVehicle@CRemotePlayer@@QAEXXZ PROC	; CRemotePlayer::ForceOutOfCurrentVehicle, COMDAT
; _this$ = ecx

; 1138 : {    

	push	ebp
	mov	ebp, esp
	sub	esp, 280				; 00000118H
	push	ebx
	push	esi
	push	edi
	push	ecx
	lea	edi, DWORD PTR [ebp-280]
	mov	ecx, 70					; 00000046H
	mov	eax, -858993460				; ccccccccH
	rep stosd
	pop	ecx
	mov	eax, DWORD PTR ___security_cookie
	xor	eax, ebp
	mov	DWORD PTR __$ArrayPad$[ebp], eax
	mov	DWORD PTR _this$[ebp], ecx

; 1139 : 	if(m_pPlayerPed && m_pPlayerPed->IsInVehicle()) {

	mov	eax, DWORD PTR _this$[ebp]
	cmp	DWORD PTR [eax], 0
	je	SHORT $LN1@ForceOutOf
	mov	eax, DWORD PTR _this$[ebp]
	mov	ecx, DWORD PTR [eax]
	call	?IsInVehicle@CPlayerPed@@QAEHXZ		; CPlayerPed::IsInVehicle
	test	eax, eax
	je	SHORT $LN1@ForceOutOf

; 1140 : 		MATRIX4X4 mat;
; 1141 : 		m_pPlayerPed->GetMatrix(&mat);

	lea	eax, DWORD PTR _mat$1[ebp]
	push	eax
	mov	ecx, DWORD PTR _this$[ebp]
	mov	ecx, DWORD PTR [ecx]
	call	?GetMatrix@CEntity@@QAEXPAU_MATRIX4X4@@@Z ; CEntity::GetMatrix

; 1142 : 		m_pPlayerPed->RemoveFromVehicleAndPutAt(mat.pos.X,mat.pos.Y,mat.pos.Z);

	push	ecx
	movss	xmm0, DWORD PTR _mat$1[ebp+56]
	movss	DWORD PTR [esp], xmm0
	push	ecx
	movss	xmm0, DWORD PTR _mat$1[ebp+52]
	movss	DWORD PTR [esp], xmm0
	push	ecx
	movss	xmm0, DWORD PTR _mat$1[ebp+48]
	movss	DWORD PTR [esp], xmm0
	mov	eax, DWORD PTR _this$[ebp]
	mov	ecx, DWORD PTR [eax]
	call	?RemoveFromVehicleAndPutAt@CPlayerPed@@QAEXMMM@Z ; CPlayerPed::RemoveFromVehicleAndPutAt

; 1143 : 		m_pCurrentVehicle = NULL;

	mov	eax, DWORD PTR _this$[ebp]
	mov	DWORD PTR [eax+311], 0
$LN1@ForceOutOf:

; 1144 : 	}
; 1145 : }

	push	edx
	mov	ecx, ebp
	push	eax
	lea	edx, DWORD PTR $LN6@ForceOutOf
	call	@_RTC_CheckStackVars@8
	pop	eax
	pop	edx
	pop	edi
	pop	esi
	pop	ebx
	mov	ecx, DWORD PTR __$ArrayPad$[ebp]
	xor	ecx, ebp
	call	@__security_check_cookie@4
	add	esp, 280				; 00000118H
	cmp	ebp, esp
	call	__RTC_CheckEsp
	mov	esp, ebp
	pop	ebp
	ret	0
$LN6@ForceOutOf:
	DD	1
	DD	$LN5@ForceOutOf
$LN5@ForceOutOf:
	DD	-84					; ffffffacH
	DD	64					; 00000040H
	DD	$LN4@ForceOutOf
$LN4@ForceOutOf:
	DB	109					; 0000006dH
	DB	97					; 00000061H
	DB	116					; 00000074H
	DB	0
?ForceOutOfCurrentVehicle@CRemotePlayer@@QAEXXZ ENDP	; CRemotePlayer::ForceOutOfCurrentVehicle
_TEXT	ENDS
; Function compile flags: /Odtp /RTCsu /ZI
; File z:\sampsrc\02xu1\saco\net\remoteplayer.cpp
;	COMDAT ?HandlePlayerPedStreaming@CRemotePlayer@@QAEXXZ
_TEXT	SEGMENT
tv244 = -220						; size = 4
tv227 = -220						; size = 4
_pVehicle$1 = -20					; size = 4
_this$ = -8						; size = 4
?HandlePlayerPedStreaming@CRemotePlayer@@QAEXXZ PROC	; CRemotePlayer::HandlePlayerPedStreaming, COMDAT
; _this$ = ecx

; 346  : {

	push	ebp
	mov	ebp, esp
	sub	esp, 220				; 000000dcH
	push	ebx
	push	esi
	push	edi
	push	ecx
	lea	edi, DWORD PTR [ebp-220]
	mov	ecx, 55					; 00000037H
	mov	eax, -858993460				; ccccccccH
	rep stosd
	pop	ecx
	mov	DWORD PTR _this$[ebp], ecx

; 347  : 	if(!m_pPlayerPed) return;

	mov	eax, DWORD PTR _this$[ebp]
	cmp	DWORD PTR [eax], 0
	jne	SHORT $LN9@HandlePlay
	jmp	$LN10@HandlePlay
$LN9@HandlePlay:

; 348  : 
; 349  : 	if (GetState() == PLAYER_STATE_SPECTATING) {

	mov	ecx, DWORD PTR _this$[ebp]
	call	?GetState@CRemotePlayer@@QAEEXZ		; CRemotePlayer::GetState
	movzx	eax, al
	cmp	eax, 9
	jne	SHORT $LN8@HandlePlay

; 350  : 		m_pPlayerPed->Remove();

	mov	eax, DWORD PTR _this$[ebp]
	mov	ecx, DWORD PTR [eax]
	mov	edx, DWORD PTR _this$[ebp]
	mov	eax, DWORD PTR [ecx]
	mov	esi, esp
	mov	ecx, DWORD PTR [edx]
	mov	edx, DWORD PTR [eax+8]
	call	edx
	cmp	esi, esp
	call	__RTC_CheckEsp

; 351  : 		m_pPlayerPed->RemoveFromVehicleAndPutAt(0.0f, 0.0f, 0.0f);

	push	ecx
	movss	xmm0, DWORD PTR __real@00000000
	movss	DWORD PTR [esp], xmm0
	push	ecx
	movss	xmm0, DWORD PTR __real@00000000
	movss	DWORD PTR [esp], xmm0
	push	ecx
	movss	xmm0, DWORD PTR __real@00000000
	movss	DWORD PTR [esp], xmm0
	mov	eax, DWORD PTR _this$[ebp]
	mov	ecx, DWORD PTR [eax]
	call	?RemoveFromVehicleAndPutAt@CPlayerPed@@QAEXMMM@Z ; CPlayerPed::RemoveFromVehicleAndPutAt

; 352  : 		return;

	jmp	$LN10@HandlePlay
$LN8@HandlePlay:

; 353  : 	}
; 354  : 
; 355  : 	// Remove or Add peds as they leave/enter a radius around the player
; 356  : 	if(m_pPlayerPed->IsInVehicle()) {

	mov	eax, DWORD PTR _this$[ebp]
	mov	ecx, DWORD PTR [eax]
	call	?IsInVehicle@CPlayerPed@@QAEHXZ		; CPlayerPed::IsInVehicle
	test	eax, eax
	je	$LN7@HandlePlay

; 357  : 
; 358  : 		CVehicle *pVehicle = pNetGame->GetVehiclePool()->GetAt(m_VehicleID);

	mov	eax, DWORD PTR _this$[ebp]
	movzx	ecx, WORD PTR [eax+316]
	push	ecx
	mov	ecx, DWORD PTR ?pNetGame@@3PAVCNetGame@@A ; pNetGame
	call	?GetVehiclePool@CNetGame@@QAEPAVCVehiclePool@@XZ ; CNetGame::GetVehiclePool
	mov	ecx, eax
	call	?GetAt@CVehiclePool@@QAEPAVCVehicle@@G@Z ; CVehiclePool::GetAt
	mov	DWORD PTR _pVehicle$1[ebp], eax

; 359  : 
; 360  : 		if(pVehicle) {

	cmp	DWORD PTR _pVehicle$1[ebp], 0
	je	SHORT $LN4@HandlePlay

; 361  : 			if( m_bVisible && !pVehicle->IsRCVehicle() &&
; 362  : 				pVehicle->GetDistanceFromLocalPlayerPed() < LOCKING_DISTANCE ) {

	mov	eax, DWORD PTR _this$[ebp]
	cmp	DWORD PTR [eax+336], 0
	je	SHORT $LN5@HandlePlay
	mov	ecx, DWORD PTR _pVehicle$1[ebp]
	call	?IsRCVehicle@CVehicle@@QAEHXZ		; CVehicle::IsRCVehicle
	test	eax, eax
	jne	SHORT $LN5@HandlePlay
	mov	ecx, DWORD PTR _pVehicle$1[ebp]
	call	?GetDistanceFromLocalPlayerPed@CEntity@@QAEMXZ ; CEntity::GetDistanceFromLocalPlayerPed
	fstp	DWORD PTR tv227[ebp]
	movss	xmm0, DWORD PTR __real@43480000
	comiss	xmm0, DWORD PTR tv227[ebp]
	jbe	SHORT $LN5@HandlePlay

; 363  : 				m_pPlayerPed->Add();

	mov	eax, DWORD PTR _this$[ebp]
	mov	ecx, DWORD PTR [eax]
	mov	edx, DWORD PTR _this$[ebp]
	mov	eax, DWORD PTR [ecx]
	mov	esi, esp
	mov	ecx, DWORD PTR [edx]
	mov	edx, DWORD PTR [eax+4]
	call	edx
	cmp	esi, esp
	call	__RTC_CheckEsp

; 364  : 			} else {

	jmp	SHORT $LN4@HandlePlay
$LN5@HandlePlay:

; 365  : 				m_pPlayerPed->Remove();

	mov	eax, DWORD PTR _this$[ebp]
	mov	ecx, DWORD PTR [eax]
	mov	edx, DWORD PTR _this$[ebp]
	mov	eax, DWORD PTR [ecx]
	mov	esi, esp
	mov	ecx, DWORD PTR [edx]
	mov	edx, DWORD PTR [eax+8]
	call	edx
	cmp	esi, esp
	call	__RTC_CheckEsp
$LN4@HandlePlay:

; 366  : 			}
; 367  : 		}
; 368  : 
; 369  : 	} else { // !InVehicle

	jmp	SHORT $LN1@HandlePlay
$LN7@HandlePlay:

; 370  : 
; 371  : 		if(m_bVisible && m_pPlayerPed->GetDistanceFromLocalPlayerPed() < LOCKING_DISTANCE) {

	mov	eax, DWORD PTR _this$[ebp]
	cmp	DWORD PTR [eax+336], 0
	je	SHORT $LN2@HandlePlay
	mov	eax, DWORD PTR _this$[ebp]
	mov	ecx, DWORD PTR [eax]
	call	?GetDistanceFromLocalPlayerPed@CEntity@@QAEMXZ ; CEntity::GetDistanceFromLocalPlayerPed
	fstp	DWORD PTR tv244[ebp]
	movss	xmm0, DWORD PTR __real@43480000
	comiss	xmm0, DWORD PTR tv244[ebp]
	jbe	SHORT $LN2@HandlePlay

; 372  : 			m_pPlayerPed->Add();

	mov	eax, DWORD PTR _this$[ebp]
	mov	ecx, DWORD PTR [eax]
	mov	edx, DWORD PTR _this$[ebp]
	mov	eax, DWORD PTR [ecx]
	mov	esi, esp
	mov	ecx, DWORD PTR [edx]
	mov	edx, DWORD PTR [eax+4]
	call	edx
	cmp	esi, esp
	call	__RTC_CheckEsp

; 373  : 			//pChatWindow->AddDebugMessage("Player %u streamed in\n",m_pPlayerPed->m_bytePlayerNumber);
; 374  : 		} else {

	jmp	SHORT $LN1@HandlePlay
$LN2@HandlePlay:

; 375  : 			//pChatWindow->AddDebugMessage("Player %u streamed out\n",m_pPlayerPed->m_bytePlayerNumber);
; 376  : 
; 377  : 			m_pPlayerPed->Remove();

	mov	eax, DWORD PTR _this$[ebp]
	mov	ecx, DWORD PTR [eax]
	mov	edx, DWORD PTR _this$[ebp]
	mov	eax, DWORD PTR [ecx]
	mov	esi, esp
	mov	ecx, DWORD PTR [edx]
	mov	edx, DWORD PTR [eax+8]
	call	edx
	cmp	esi, esp
	call	__RTC_CheckEsp
$LN1@HandlePlay:
$LN10@HandlePlay:

; 378  : 		}
; 379  : 	}
; 380  : }

	pop	edi
	pop	esi
	pop	ebx
	add	esp, 220				; 000000dcH
	cmp	ebp, esp
	call	__RTC_CheckEsp
	mov	esp, ebp
	pop	ebp
	ret	0
?HandlePlayerPedStreaming@CRemotePlayer@@QAEXXZ ENDP	; CRemotePlayer::HandlePlayerPedStreaming
_TEXT	ENDS
; Function compile flags: /Odtp /RTCsu /ZI
; File z:\sampsrc\02xu1\saco\net\remoteplayer.cpp
;	COMDAT ?HandleVehicleEntryExit@CRemotePlayer@@QAEXXZ
_TEXT	SEGMENT
_iCarID$1 = -120					; size = 4
_pVehicle$2 = -108					; size = 4
_mat$ = -96						; size = 64
_pVehiclePool$ = -24					; size = 4
_this$ = -12						; size = 4
__$ArrayPad$ = -4					; size = 4
?HandleVehicleEntryExit@CRemotePlayer@@QAEXXZ PROC	; CRemotePlayer::HandleVehicleEntryExit, COMDAT
; _this$ = ecx

; 385  : {

	push	ebp
	mov	ebp, esp
	sub	esp, 316				; 0000013cH
	push	ebx
	push	esi
	push	edi
	push	ecx
	lea	edi, DWORD PTR [ebp-316]
	mov	ecx, 79					; 0000004fH
	mov	eax, -858993460				; ccccccccH
	rep stosd
	pop	ecx
	mov	eax, DWORD PTR ___security_cookie
	xor	eax, ebp
	mov	DWORD PTR __$ArrayPad$[ebp], eax
	mov	DWORD PTR _this$[ebp], ecx

; 386  : 	CVehiclePool *pVehiclePool = pNetGame->GetVehiclePool();

	mov	ecx, DWORD PTR ?pNetGame@@3PAVCNetGame@@A ; pNetGame
	call	?GetVehiclePool@CNetGame@@QAEPAVCVehiclePool@@XZ ; CNetGame::GetVehiclePool
	mov	DWORD PTR _pVehiclePool$[ebp], eax

; 387  : 	MATRIX4X4 mat;
; 388  : 
; 389  : 	if(!m_pPlayerPed) return;

	mov	eax, DWORD PTR _this$[ebp]
	cmp	DWORD PTR [eax], 0
	jne	SHORT $LN7@HandleVehi
	jmp	$LN8@HandleVehi
$LN7@HandleVehi:

; 390  : 
; 391  : 	if(GetState() == PLAYER_STATE_ONFOOT) {

	mov	ecx, DWORD PTR _this$[ebp]
	call	?GetState@CRemotePlayer@@QAEEXZ		; CRemotePlayer::GetState
	movzx	eax, al
	cmp	eax, 1
	jne	SHORT $LN6@HandleVehi

; 392  : 		if(m_pPlayerPed->IsInVehicle()) {

	mov	eax, DWORD PTR _this$[ebp]
	mov	ecx, DWORD PTR [eax]
	call	?IsInVehicle@CPlayerPed@@QAEHXZ		; CPlayerPed::IsInVehicle
	test	eax, eax
	je	SHORT $LN5@HandleVehi

; 393  : 			m_pPlayerPed->GetMatrix(&mat);

	lea	eax, DWORD PTR _mat$[ebp]
	push	eax
	mov	ecx, DWORD PTR _this$[ebp]
	mov	ecx, DWORD PTR [ecx]
	call	?GetMatrix@CEntity@@QAEXPAU_MATRIX4X4@@@Z ; CEntity::GetMatrix

; 394  : 			m_pPlayerPed->RemoveFromVehicleAndPutAt(mat.pos.X,mat.pos.Y,mat.pos.Z);

	push	ecx
	movss	xmm0, DWORD PTR _mat$[ebp+56]
	movss	DWORD PTR [esp], xmm0
	push	ecx
	movss	xmm0, DWORD PTR _mat$[ebp+52]
	movss	DWORD PTR [esp], xmm0
	push	ecx
	movss	xmm0, DWORD PTR _mat$[ebp+48]
	movss	DWORD PTR [esp], xmm0
	mov	eax, DWORD PTR _this$[ebp]
	mov	ecx, DWORD PTR [eax]
	call	?RemoveFromVehicleAndPutAt@CPlayerPed@@QAEXMMM@Z ; CPlayerPed::RemoveFromVehicleAndPutAt
$LN5@HandleVehi:

; 395  : 		}
; 396  : 		return;

	jmp	SHORT $LN8@HandleVehi
$LN6@HandleVehi:

; 397  : 	}
; 398  : 
; 399  : 	if( GetState() == PLAYER_STATE_DRIVER || GetState() == PLAYER_STATE_PASSENGER )

	mov	ecx, DWORD PTR _this$[ebp]
	call	?GetState@CRemotePlayer@@QAEEXZ		; CRemotePlayer::GetState
	movzx	eax, al
	cmp	eax, 2
	je	SHORT $LN3@HandleVehi
	mov	ecx, DWORD PTR _this$[ebp]
	call	?GetState@CRemotePlayer@@QAEEXZ		; CRemotePlayer::GetState
	movzx	eax, al
	cmp	eax, 3
	jne	SHORT $LN1@HandleVehi
$LN3@HandleVehi:

; 400  : 	{
; 401  : 		if(!m_pPlayerPed->IsInVehicle()) {

	mov	eax, DWORD PTR _this$[ebp]
	mov	ecx, DWORD PTR [eax]
	call	?IsInVehicle@CPlayerPed@@QAEHXZ		; CPlayerPed::IsInVehicle
	test	eax, eax
	jne	SHORT $LN1@HandleVehi

; 402  : 			CVehicle *pVehicle = pVehiclePool->GetAt(m_VehicleID);

	mov	eax, DWORD PTR _this$[ebp]
	movzx	ecx, WORD PTR [eax+316]
	push	ecx
	mov	ecx, DWORD PTR _pVehiclePool$[ebp]
	call	?GetAt@CVehiclePool@@QAEPAVCVehicle@@G@Z ; CVehiclePool::GetAt
	mov	DWORD PTR _pVehicle$2[ebp], eax

; 403  : 			if(pVehicle) {

	cmp	DWORD PTR _pVehicle$2[ebp], 0
	je	SHORT $LN1@HandleVehi

; 404  : 				int iCarID = pVehiclePool->FindGtaIDFromID(m_VehicleID);

	mov	eax, DWORD PTR _this$[ebp]
	movzx	ecx, WORD PTR [eax+316]
	push	ecx
	mov	ecx, DWORD PTR _pVehiclePool$[ebp]
	call	?FindGtaIDFromID@CVehiclePool@@QAEHH@Z	; CVehiclePool::FindGtaIDFromID
	mov	DWORD PTR _iCarID$1[ebp], eax

; 405  : 				m_pPlayerPed->PutDirectlyInVehicle(iCarID,m_byteSeatID);

	mov	eax, DWORD PTR _this$[ebp]
	movzx	ecx, BYTE PTR [eax+318]
	push	ecx
	mov	edx, DWORD PTR _iCarID$1[ebp]
	push	edx
	mov	eax, DWORD PTR _this$[ebp]
	mov	ecx, DWORD PTR [eax]
	call	?PutDirectlyInVehicle@CPlayerPed@@QAEXHH@Z ; CPlayerPed::PutDirectlyInVehicle
$LN1@HandleVehi:
$LN8@HandleVehi:

; 406  : 			}
; 407  : 		}
; 408  : 	}
; 409  : }

	push	edx
	mov	ecx, ebp
	push	eax
	lea	edx, DWORD PTR $LN12@HandleVehi
	call	@_RTC_CheckStackVars@8
	pop	eax
	pop	edx
	pop	edi
	pop	esi
	pop	ebx
	mov	ecx, DWORD PTR __$ArrayPad$[ebp]
	xor	ecx, ebp
	call	@__security_check_cookie@4
	add	esp, 316				; 0000013cH
	cmp	ebp, esp
	call	__RTC_CheckEsp
	mov	esp, ebp
	pop	ebp
	ret	0
	npad	3
$LN12@HandleVehi:
	DD	1
	DD	$LN11@HandleVehi
$LN11@HandleVehi:
	DD	-96					; ffffffa0H
	DD	64					; 00000040H
	DD	$LN10@HandleVehi
$LN10@HandleVehi:
	DB	109					; 0000006dH
	DB	97					; 00000061H
	DB	116					; 00000074H
	DB	0
?HandleVehicleEntryExit@CRemotePlayer@@QAEXXZ ENDP	; CRemotePlayer::HandleVehicleEntryExit
_TEXT	ENDS
; Function compile flags: /Odtp /RTCsu /ZI
; File z:\sampsrc\02xu1\saco\net\remoteplayer.cpp
;	COMDAT ?ProcessSpecialActions@CRemotePlayer@@QAEXE@Z
_TEXT	SEGMENT
_Aim$1 = -44						; size = 4
_LookAt$2 = -32						; size = 12
_this$ = -12						; size = 4
__$ArrayPad$ = -4					; size = 4
_byteSpecialAction$ = 8					; size = 1
?ProcessSpecialActions@CRemotePlayer@@QAEXE@Z PROC	; CRemotePlayer::ProcessSpecialActions, COMDAT
; _this$ = ecx

; 414  : {

	push	ebp
	mov	ebp, esp
	sub	esp, 240				; 000000f0H
	push	ebx
	push	esi
	push	edi
	push	ecx
	lea	edi, DWORD PTR [ebp-240]
	mov	ecx, 60					; 0000003cH
	mov	eax, -858993460				; ccccccccH
	rep stosd
	pop	ecx
	mov	eax, DWORD PTR ___security_cookie
	xor	eax, ebp
	mov	DWORD PTR __$ArrayPad$[ebp], eax
	mov	DWORD PTR _this$[ebp], ecx

; 415  : 	if(!m_pPlayerPed || !m_pPlayerPed->IsAdded()) return;

	mov	eax, DWORD PTR _this$[ebp]
	cmp	DWORD PTR [eax], 0
	je	SHORT $LN20@ProcessSpe
	mov	eax, DWORD PTR _this$[ebp]
	mov	ecx, DWORD PTR [eax]
	call	?IsAdded@CEntity@@QAEHXZ		; CEntity::IsAdded
	test	eax, eax
	jne	SHORT $LN21@ProcessSpe
$LN20@ProcessSpe:
	jmp	$LN22@ProcessSpe
$LN21@ProcessSpe:

; 416  : 
; 417  : 	if(GetState() != PLAYER_STATE_ONFOOT) {

	mov	ecx, DWORD PTR _this$[ebp]
	call	?GetState@CRemotePlayer@@QAEEXZ		; CRemotePlayer::GetState
	movzx	eax, al
	cmp	eax, 1
	je	SHORT $LN19@ProcessSpe

; 418  : 		byteSpecialAction = SPECIAL_ACTION_NONE;

	mov	BYTE PTR _byteSpecialAction$[ebp], 0

; 419  : 		m_ofSync.byteSpecialAction = SPECIAL_ACTION_NONE;

	mov	eax, DWORD PTR _this$[ebp]
	mov	BYTE PTR [eax+31], 0
$LN19@ProcessSpe:

; 420  : 	}
; 421  : 
; 422  : 	// headsync:always
; 423  : 	if(GetState() == PLAYER_STATE_ONFOOT && m_pPlayerPed->IsAdded()) {

	mov	ecx, DWORD PTR _this$[ebp]
	call	?GetState@CRemotePlayer@@QAEEXZ		; CRemotePlayer::GetState
	movzx	eax, al
	cmp	eax, 1
	jne	$LN17@ProcessSpe
	mov	eax, DWORD PTR _this$[ebp]
	mov	ecx, DWORD PTR [eax]
	call	?IsAdded@CEntity@@QAEHXZ		; CEntity::IsAdded
	test	eax, eax
	je	$LN17@ProcessSpe

; 424  : 		if((GetTickCount() - m_dwLastHeadUpdate) > 500) {

	mov	esi, esp
	call	DWORD PTR __imp__GetTickCount@0
	cmp	esi, esp
	call	__RTC_CheckEsp
	mov	ecx, DWORD PTR _this$[ebp]
	sub	eax, DWORD PTR [ecx+324]
	cmp	eax, 500				; 000001f4H
	jbe	$LN17@ProcessSpe

; 425  :             VECTOR LookAt;
; 426  : 			CAMERA_AIM *Aim = GameGetRemotePlayerAim(m_pPlayerPed->m_bytePlayerNumber);

	mov	eax, DWORD PTR _this$[ebp]
	mov	ecx, DWORD PTR [eax]
	movzx	edx, BYTE PTR [ecx+32]
	push	edx
	call	?GameGetRemotePlayerAim@@YGPAU_CAMERA_AIM@@H@Z ; GameGetRemotePlayerAim
	mov	DWORD PTR _Aim$1[ebp], eax

; 427  :             LookAt.X = Aim->pos1x + (Aim->f1x * 20.0f);

	mov	eax, DWORD PTR _Aim$1[ebp]
	movss	xmm0, DWORD PTR [eax]
	mulss	xmm0, DWORD PTR __real@41a00000
	mov	ecx, DWORD PTR _Aim$1[ebp]
	addss	xmm0, DWORD PTR [ecx+12]
	movss	DWORD PTR _LookAt$2[ebp], xmm0

; 428  : 			LookAt.Y = Aim->pos1y + (Aim->f1y * 20.0f);

	mov	eax, DWORD PTR _Aim$1[ebp]
	movss	xmm0, DWORD PTR [eax+4]
	mulss	xmm0, DWORD PTR __real@41a00000
	mov	ecx, DWORD PTR _Aim$1[ebp]
	addss	xmm0, DWORD PTR [ecx+16]
	movss	DWORD PTR _LookAt$2[ebp+4], xmm0

; 429  : 			LookAt.Z = Aim->pos1z + (Aim->f1z * 20.0f);

	mov	eax, DWORD PTR _Aim$1[ebp]
	movss	xmm0, DWORD PTR [eax+8]
	mulss	xmm0, DWORD PTR __real@41a00000
	mov	ecx, DWORD PTR _Aim$1[ebp]
	addss	xmm0, DWORD PTR [ecx+20]
	movss	DWORD PTR _LookAt$2[ebp+8], xmm0

; 430  : 			m_pPlayerPed->ApplyCommandTask("FollowPedSA",0,2000,-1,&LookAt,0,0.1f,500,3,0);

	push	0
	push	3
	push	500					; 000001f4H
	push	ecx
	movss	xmm0, DWORD PTR __real@3dcccccd
	movss	DWORD PTR [esp], xmm0
	push	0
	lea	eax, DWORD PTR _LookAt$2[ebp]
	push	eax
	push	-1
	push	2000					; 000007d0H
	push	0
	push	OFFSET ??_C@_0M@KHFAPNLB@FollowPedSA?$AA@
	mov	ecx, DWORD PTR _this$[ebp]
	mov	ecx, DWORD PTR [ecx]
	call	?ApplyCommandTask@CPlayerPed@@QAEXPADHHHPAU_VECTOR@@HMHHH@Z ; CPlayerPed::ApplyCommandTask

; 431  : 			m_dwLastHeadUpdate = GetTickCount();

	mov	esi, esp
	call	DWORD PTR __imp__GetTickCount@0
	cmp	esi, esp
	call	__RTC_CheckEsp
	mov	ecx, DWORD PTR _this$[ebp]
	mov	DWORD PTR [ecx+324], eax
$LN17@ProcessSpe:

; 432  : 		}
; 433  : 	}
; 434  : 
; 435  : 	// cellphone:start
; 436  : 	if( byteSpecialAction == SPECIAL_ACTION_USECELLPHONE &&
; 437  : 		!m_pPlayerPed->IsCellphoneEnabled() ) {

	movzx	eax, BYTE PTR _byteSpecialAction$[ebp]
	cmp	eax, 11					; 0000000bH
	jne	SHORT $LN16@ProcessSpe
	mov	eax, DWORD PTR _this$[ebp]
	mov	ecx, DWORD PTR [eax]
	call	?IsCellphoneEnabled@CPlayerPed@@QAEHXZ	; CPlayerPed::IsCellphoneEnabled
	test	eax, eax
	jne	SHORT $LN16@ProcessSpe

; 438  : 			//pChatWindow->AddDebugMessage("Player enabled Cell");
; 439  : 			m_pPlayerPed->ToggleCellphone(1);

	push	1
	mov	eax, DWORD PTR _this$[ebp]
	mov	ecx, DWORD PTR [eax]
	call	?ToggleCellphone@CPlayerPed@@QAEXH@Z	; CPlayerPed::ToggleCellphone

; 440  : 			return;

	jmp	$LN22@ProcessSpe
$LN16@ProcessSpe:

; 441  : 	}
; 442  : 
; 443  : 	// cellphone:stop
; 444  : 	if( byteSpecialAction != SPECIAL_ACTION_USECELLPHONE &&
; 445  : 		m_pPlayerPed->IsCellphoneEnabled() ) {

	movzx	eax, BYTE PTR _byteSpecialAction$[ebp]
	cmp	eax, 11					; 0000000bH
	je	SHORT $LN15@ProcessSpe
	mov	eax, DWORD PTR _this$[ebp]
	mov	ecx, DWORD PTR [eax]
	call	?IsCellphoneEnabled@CPlayerPed@@QAEHXZ	; CPlayerPed::IsCellphoneEnabled
	test	eax, eax
	je	SHORT $LN15@ProcessSpe

; 446  : 			m_pPlayerPed->ToggleCellphone(0);

	push	0
	mov	eax, DWORD PTR _this$[ebp]
	mov	ecx, DWORD PTR [eax]
	call	?ToggleCellphone@CPlayerPed@@QAEXH@Z	; CPlayerPed::ToggleCellphone

; 447  : 			return;

	jmp	$LN22@ProcessSpe
$LN15@ProcessSpe:

; 448  : 	}
; 449  : 
; 450  : 	// jetpack:start
; 451  : 	if(byteSpecialAction == SPECIAL_ACTION_USEJETPACK) {

	movzx	eax, BYTE PTR _byteSpecialAction$[ebp]
	cmp	eax, 2
	jne	SHORT $LN13@ProcessSpe

; 452  : 		if(!m_pPlayerPed->IsInJetpackMode()) {

	mov	eax, DWORD PTR _this$[ebp]
	mov	ecx, DWORD PTR [eax]
	call	?IsInJetpackMode@CPlayerPed@@QAEHXZ	; CPlayerPed::IsInJetpackMode
	test	eax, eax
	jne	SHORT $LN13@ProcessSpe

; 453  : 			m_pPlayerPed->StartJetpack();

	mov	eax, DWORD PTR _this$[ebp]
	mov	ecx, DWORD PTR [eax]
	call	?StartJetpack@CPlayerPed@@QAEXXZ	; CPlayerPed::StartJetpack

; 454  : 			return;

	jmp	$LN22@ProcessSpe
$LN13@ProcessSpe:

; 455  : 		}
; 456  : 	}
; 457  : 
; 458  : 	// jetpack:stop
; 459  : 	if(byteSpecialAction != SPECIAL_ACTION_USEJETPACK) {

	movzx	eax, BYTE PTR _byteSpecialAction$[ebp]
	cmp	eax, 2
	je	SHORT $LN11@ProcessSpe

; 460  : 		if(m_pPlayerPed->IsInJetpackMode()) {

	mov	eax, DWORD PTR _this$[ebp]
	mov	ecx, DWORD PTR [eax]
	call	?IsInJetpackMode@CPlayerPed@@QAEHXZ	; CPlayerPed::IsInJetpackMode
	test	eax, eax
	je	SHORT $LN11@ProcessSpe

; 461  : 			m_pPlayerPed->StopJetpack();

	mov	eax, DWORD PTR _this$[ebp]
	mov	ecx, DWORD PTR [eax]
	call	?StopJetpack@CPlayerPed@@QAEXXZ		; CPlayerPed::StopJetpack

; 462  : 			return;

	jmp	$LN22@ProcessSpe
$LN11@ProcessSpe:

; 463  : 		}
; 464  : 	}
; 465  : 
; 466  : 	// handsup:start
; 467  : 	if(byteSpecialAction == SPECIAL_ACTION_HANDSUP && !m_pPlayerPed->HasHandsUp()) {

	movzx	eax, BYTE PTR _byteSpecialAction$[ebp]
	cmp	eax, 10					; 0000000aH
	jne	SHORT $LN10@ProcessSpe
	mov	eax, DWORD PTR _this$[ebp]
	mov	ecx, DWORD PTR [eax]
	call	?HasHandsUp@CPlayerPed@@QAEHXZ		; CPlayerPed::HasHandsUp
	test	eax, eax
	jne	SHORT $LN10@ProcessSpe

; 468  : 		m_pPlayerPed->HandsUp();

	mov	eax, DWORD PTR _this$[ebp]
	mov	ecx, DWORD PTR [eax]
	call	?HandsUp@CPlayerPed@@QAEXXZ		; CPlayerPed::HandsUp
$LN10@ProcessSpe:

; 469  : 	}
; 470  : 
; 471  : 	// handsup:stop
; 472  : 	if(byteSpecialAction != SPECIAL_ACTION_HANDSUP && m_pPlayerPed->HasHandsUp()) {

	movzx	eax, BYTE PTR _byteSpecialAction$[ebp]
	cmp	eax, 10					; 0000000aH
	je	SHORT $LN9@ProcessSpe
	mov	eax, DWORD PTR _this$[ebp]
	mov	ecx, DWORD PTR [eax]
	call	?HasHandsUp@CPlayerPed@@QAEHXZ		; CPlayerPed::HasHandsUp
	test	eax, eax
	je	SHORT $LN9@ProcessSpe

; 473  : 		m_pPlayerPed->StopDancing(); // has the same effect

	mov	eax, DWORD PTR _this$[ebp]
	mov	ecx, DWORD PTR [eax]
	call	?StopDancing@CPlayerPed@@QAEXXZ		; CPlayerPed::StopDancing
$LN9@ProcessSpe:

; 474  : 	}
; 475  : 
; 476  : 	// dancing:start
; 477  : 	if(!m_pPlayerPed->IsDancing() && byteSpecialAction == SPECIAL_ACTION_DANCE1) {

	mov	eax, DWORD PTR _this$[ebp]
	mov	ecx, DWORD PTR [eax]
	call	?IsDancing@CPlayerPed@@QAEHXZ		; CPlayerPed::IsDancing
	test	eax, eax
	jne	SHORT $LN8@ProcessSpe
	movzx	eax, BYTE PTR _byteSpecialAction$[ebp]
	cmp	eax, 5
	jne	SHORT $LN8@ProcessSpe

; 478  : 		m_pPlayerPed->StartDancing(0);

	push	0
	mov	eax, DWORD PTR _this$[ebp]
	mov	ecx, DWORD PTR [eax]
	call	?StartDancing@CPlayerPed@@QAEXH@Z	; CPlayerPed::StartDancing
$LN8@ProcessSpe:

; 479  : 	}
; 480  : 	if(!m_pPlayerPed->IsDancing() && byteSpecialAction == SPECIAL_ACTION_DANCE2) {

	mov	eax, DWORD PTR _this$[ebp]
	mov	ecx, DWORD PTR [eax]
	call	?IsDancing@CPlayerPed@@QAEHXZ		; CPlayerPed::IsDancing
	test	eax, eax
	jne	SHORT $LN7@ProcessSpe
	movzx	eax, BYTE PTR _byteSpecialAction$[ebp]
	cmp	eax, 6
	jne	SHORT $LN7@ProcessSpe

; 481  : 		m_pPlayerPed->StartDancing(1);

	push	1
	mov	eax, DWORD PTR _this$[ebp]
	mov	ecx, DWORD PTR [eax]
	call	?StartDancing@CPlayerPed@@QAEXH@Z	; CPlayerPed::StartDancing
$LN7@ProcessSpe:

; 482  : 	}
; 483  : 	if(!m_pPlayerPed->IsDancing() && byteSpecialAction == SPECIAL_ACTION_DANCE3) {

	mov	eax, DWORD PTR _this$[ebp]
	mov	ecx, DWORD PTR [eax]
	call	?IsDancing@CPlayerPed@@QAEHXZ		; CPlayerPed::IsDancing
	test	eax, eax
	jne	SHORT $LN6@ProcessSpe
	movzx	eax, BYTE PTR _byteSpecialAction$[ebp]
	cmp	eax, 7
	jne	SHORT $LN6@ProcessSpe

; 484  : 		m_pPlayerPed->StartDancing(2);

	push	2
	mov	eax, DWORD PTR _this$[ebp]
	mov	ecx, DWORD PTR [eax]
	call	?StartDancing@CPlayerPed@@QAEXH@Z	; CPlayerPed::StartDancing
$LN6@ProcessSpe:

; 485  : 	}
; 486  : 	if(!m_pPlayerPed->IsDancing() && byteSpecialAction == SPECIAL_ACTION_DANCE4) {

	mov	eax, DWORD PTR _this$[ebp]
	mov	ecx, DWORD PTR [eax]
	call	?IsDancing@CPlayerPed@@QAEHXZ		; CPlayerPed::IsDancing
	test	eax, eax
	jne	SHORT $LN5@ProcessSpe
	movzx	eax, BYTE PTR _byteSpecialAction$[ebp]
	cmp	eax, 8
	jne	SHORT $LN5@ProcessSpe

; 487  : 		m_pPlayerPed->StartDancing(3);

	push	3
	mov	eax, DWORD PTR _this$[ebp]
	mov	ecx, DWORD PTR [eax]
	call	?StartDancing@CPlayerPed@@QAEXH@Z	; CPlayerPed::StartDancing
$LN5@ProcessSpe:

; 488  : 	}
; 489  : 
; 490  : 	// dancing:stop
; 491  : 	if( m_pPlayerPed->IsDancing() && 
; 492  : 		(byteSpecialAction != SPECIAL_ACTION_DANCE1 &&
; 493  : 		byteSpecialAction != SPECIAL_ACTION_DANCE2 && 
; 494  : 		byteSpecialAction != SPECIAL_ACTION_DANCE3 && 
; 495  : 		byteSpecialAction != SPECIAL_ACTION_DANCE4) ) {

	mov	eax, DWORD PTR _this$[ebp]
	mov	ecx, DWORD PTR [eax]
	call	?IsDancing@CPlayerPed@@QAEHXZ		; CPlayerPed::IsDancing
	test	eax, eax
	je	SHORT $LN4@ProcessSpe
	movzx	eax, BYTE PTR _byteSpecialAction$[ebp]
	cmp	eax, 5
	je	SHORT $LN4@ProcessSpe
	movzx	eax, BYTE PTR _byteSpecialAction$[ebp]
	cmp	eax, 6
	je	SHORT $LN4@ProcessSpe
	movzx	eax, BYTE PTR _byteSpecialAction$[ebp]
	cmp	eax, 7
	je	SHORT $LN4@ProcessSpe
	movzx	eax, BYTE PTR _byteSpecialAction$[ebp]
	cmp	eax, 8
	je	SHORT $LN4@ProcessSpe

; 496  : 			m_pPlayerPed->StopDancing();

	mov	eax, DWORD PTR _this$[ebp]
	mov	ecx, DWORD PTR [eax]
	call	?StopDancing@CPlayerPed@@QAEXXZ		; CPlayerPed::StopDancing
$LN4@ProcessSpe:

; 497  : 	}
; 498  : 
; 499  : 	if(m_pPlayerPed->IsDancing()) m_pPlayerPed->ProcessDancing();

	mov	eax, DWORD PTR _this$[ebp]
	mov	ecx, DWORD PTR [eax]
	call	?IsDancing@CPlayerPed@@QAEHXZ		; CPlayerPed::IsDancing
	test	eax, eax
	je	SHORT $LN3@ProcessSpe
	mov	eax, DWORD PTR _this$[ebp]
	mov	ecx, DWORD PTR [eax]
	call	?ProcessDancing@CPlayerPed@@QAEXXZ	; CPlayerPed::ProcessDancing
$LN3@ProcessSpe:

; 500  : 
; 501  : 	// pissing:start
; 502  : 	if(!m_pPlayerPed->IsPissing() && byteSpecialAction == SPECIAL_ACTION_URINATE) {

	mov	eax, DWORD PTR _this$[ebp]
	mov	ecx, DWORD PTR [eax]
	call	?IsPissing@CPlayerPed@@QAEHXZ		; CPlayerPed::IsPissing
	test	eax, eax
	jne	SHORT $LN2@ProcessSpe
	movzx	eax, BYTE PTR _byteSpecialAction$[ebp]
	cmp	eax, 68					; 00000044H
	jne	SHORT $LN2@ProcessSpe

; 503  : 		m_pPlayerPed->StartPissing();

	mov	eax, DWORD PTR _this$[ebp]
	mov	ecx, DWORD PTR [eax]
	call	?StartPissing@CPlayerPed@@QAEXXZ	; CPlayerPed::StartPissing
$LN2@ProcessSpe:

; 504  : 	}
; 505  : 
; 506  : 	// pissing:stop
; 507  : 	if(m_pPlayerPed->IsPissing() && byteSpecialAction != SPECIAL_ACTION_URINATE) {

	mov	eax, DWORD PTR _this$[ebp]
	mov	ecx, DWORD PTR [eax]
	call	?IsPissing@CPlayerPed@@QAEHXZ		; CPlayerPed::IsPissing
	test	eax, eax
	je	SHORT $LN1@ProcessSpe
	movzx	eax, BYTE PTR _byteSpecialAction$[ebp]
	cmp	eax, 68					; 00000044H
	je	SHORT $LN1@ProcessSpe

; 508  : 		m_pPlayerPed->StopPissing();

	mov	eax, DWORD PTR _this$[ebp]
	mov	ecx, DWORD PTR [eax]
	call	?StopPissing@CPlayerPed@@QAEXXZ		; CPlayerPed::StopPissing
$LN1@ProcessSpe:

; 509  : 	}
; 510  : 
; 511  : 	// parachutes:we don't have any network indicators for this yet
; 512  : 	m_pPlayerPed->ProcessParachutes();

	mov	eax, DWORD PTR _this$[ebp]
	mov	ecx, DWORD PTR [eax]
	call	?ProcessParachutes@CPlayerPed@@QAEXXZ	; CPlayerPed::ProcessParachutes
$LN22@ProcessSpe:

; 513  : }

	push	edx
	mov	ecx, ebp
	push	eax
	lea	edx, DWORD PTR $LN26@ProcessSpe
	call	@_RTC_CheckStackVars@8
	pop	eax
	pop	edx
	pop	edi
	pop	esi
	pop	ebx
	mov	ecx, DWORD PTR __$ArrayPad$[ebp]
	xor	ecx, ebp
	call	@__security_check_cookie@4
	add	esp, 240				; 000000f0H
	cmp	ebp, esp
	call	__RTC_CheckEsp
	mov	esp, ebp
	pop	ebp
	ret	4
$LN26@ProcessSpe:
	DD	1
	DD	$LN25@ProcessSpe
$LN25@ProcessSpe:
	DD	-32					; ffffffe0H
	DD	12					; 0000000cH
	DD	$LN24@ProcessSpe
$LN24@ProcessSpe:
	DB	76					; 0000004cH
	DB	111					; 0000006fH
	DB	111					; 0000006fH
	DB	107					; 0000006bH
	DB	65					; 00000041H
	DB	116					; 00000074H
	DB	0
?ProcessSpecialActions@CRemotePlayer@@QAEXE@Z ENDP	; CRemotePlayer::ProcessSpecialActions
_TEXT	ENDS
; Function compile flags: /Odtp /RTCsu /ZI
; File z:\sampsrc\02xu1\saco\net\remoteplayer.cpp
;	COMDAT ?Process@CRemotePlayer@@QAEXE@Z
_TEXT	SEGMENT
tv846 = -408						; size = 4
tv681 = -408						; size = 4
$T1 = -400						; size = 4
$T2 = -388						; size = 4
_vec$3 = -184						; size = 12
_pTrailerVehicle$4 = -164				; size = 4
_pRealTrailer$5 = -152					; size = 4
_vecMoveSpeed$ = -140					; size = 12
_matVehicle$ = -120					; size = 64
_pLocalPlayer$ = -48					; size = 4
_pVehiclePool$ = -36					; size = 4
_pPool$ = -24						; size = 4
_this$ = -12						; size = 4
__$ArrayPad$ = -4					; size = 4
_byteLocalWorld$ = 8					; size = 1
?Process@CRemotePlayer@@QAEXE@Z PROC			; CRemotePlayer::Process, COMDAT
; _this$ = ecx

; 62   : {

	push	ebp
	mov	ebp, esp
	sub	esp, 408				; 00000198H
	push	ebx
	push	esi
	push	edi
	push	ecx
	lea	edi, DWORD PTR [ebp-408]
	mov	ecx, 102				; 00000066H
	mov	eax, -858993460				; ccccccccH
	rep stosd
	pop	ecx
	mov	eax, DWORD PTR ___security_cookie
	xor	eax, ebp
	mov	DWORD PTR __$ArrayPad$[ebp], eax
	mov	DWORD PTR _this$[ebp], ecx

; 63   : 	CPlayerPool *pPool = pNetGame->GetPlayerPool();

	mov	ecx, DWORD PTR ?pNetGame@@3PAVCNetGame@@A ; pNetGame
	call	?GetPlayerPool@CNetGame@@QAEPAVCPlayerPool@@XZ ; CNetGame::GetPlayerPool
	mov	DWORD PTR _pPool$[ebp], eax

; 64   : 	CVehiclePool *pVehiclePool = pNetGame->GetVehiclePool();

	mov	ecx, DWORD PTR ?pNetGame@@3PAVCNetGame@@A ; pNetGame
	call	?GetVehiclePool@CNetGame@@QAEPAVCVehiclePool@@XZ ; CNetGame::GetVehiclePool
	mov	DWORD PTR _pVehiclePool$[ebp], eax

; 65   : 	CLocalPlayer *pLocalPlayer = pPool->GetLocalPlayer();

	mov	ecx, DWORD PTR _pPool$[ebp]
	call	?GetLocalPlayer@CPlayerPool@@QAEPAVCLocalPlayer@@XZ ; CPlayerPool::GetLocalPlayer
	mov	DWORD PTR _pLocalPlayer$[ebp], eax

; 66   : 	MATRIX4X4 matVehicle;
; 67   : 	VECTOR vecMoveSpeed;
; 68   : 
; 69   : 	if(IsActive())

	mov	ecx, DWORD PTR _this$[ebp]
	call	?IsActive@CRemotePlayer@@QAEHXZ		; CRemotePlayer::IsActive
	test	eax, eax
	je	$LN58@Process

; 70   : 	{
; 71   : 		if(m_pPlayerPed)

	mov	eax, DWORD PTR _this$[ebp]
	cmp	DWORD PTR [eax], 0
	je	$LN3@Process

; 72   : 		{
; 73   : 			// Stream player markers based on the server script
; 74   : 			// settings for the chat radius
; 75   : 
; 76   : 			if (m_byteVirtualWorld != byteLocalWorld || m_byteState == PLAYER_STATE_SPECTATING) m_bVisible = FALSE;

	mov	eax, DWORD PTR _this$[ebp]
	movzx	ecx, BYTE PTR [eax+356]
	movzx	edx, BYTE PTR _byteLocalWorld$[ebp]
	cmp	ecx, edx
	jne	SHORT $LN55@Process
	mov	eax, DWORD PTR _this$[ebp]
	movzx	ecx, BYTE PTR [eax+315]
	cmp	ecx, 9
	jne	SHORT $LN56@Process
$LN55@Process:
	mov	eax, DWORD PTR _this$[ebp]
	mov	DWORD PTR [eax+336], 0
	jmp	SHORT $LN54@Process
$LN56@Process:

; 77   : 			else m_bVisible = TRUE;			

	mov	eax, DWORD PTR _this$[ebp]
	mov	DWORD PTR [eax+336], 1
$LN54@Process:

; 78   : 
; 79   : 			m_pPlayerPed->ProcessMarkers(
; 80   : 				pNetGame->m_bLimitGlobalChatRadius,
; 81   : 				pNetGame->m_fGlobalChatRadius,
; 82   : 				m_bVisible);

	mov	eax, DWORD PTR _this$[ebp]
	mov	ecx, DWORD PTR [eax+336]
	push	ecx
	mov	edx, DWORD PTR ?pNetGame@@3PAVCNetGame@@A ; pNetGame
	push	ecx
	movss	xmm0, DWORD PTR [edx+45]
	movss	DWORD PTR [esp], xmm0
	mov	eax, DWORD PTR ?pNetGame@@3PAVCNetGame@@A ; pNetGame
	movzx	ecx, BYTE PTR [eax+43]
	push	ecx
	mov	edx, DWORD PTR _this$[ebp]
	mov	ecx, DWORD PTR [edx]
	call	?ProcessMarkers@CPlayerPed@@QAEXHMH@Z	; CPlayerPed::ProcessMarkers

; 83   : 
; 84   : 			HandlePlayerPedStreaming();

	mov	ecx, DWORD PTR _this$[ebp]
	call	?HandlePlayerPedStreaming@CRemotePlayer@@QAEXXZ ; CRemotePlayer::HandlePlayerPedStreaming

; 85   : 
; 86   : 			if(GetTickCount() > m_dwWaitForEntryExitAnims) {

	mov	esi, esp
	call	DWORD PTR __imp__GetTickCount@0
	cmp	esi, esp
	call	__RTC_CheckEsp
	mov	ecx, DWORD PTR _this$[ebp]
	cmp	eax, DWORD PTR [ecx+348]
	jbe	SHORT $LN53@Process

; 87   : 				HandleVehicleEntryExit();

	mov	ecx, DWORD PTR _this$[ebp]
	call	?HandleVehicleEntryExit@CRemotePlayer@@QAEXXZ ; CRemotePlayer::HandleVehicleEntryExit
$LN53@Process:

; 88   : 			}
; 89   : 
; 90   : 			// ---- ONFOOT NETWORK PROCESSING ----
; 91   : 			if( GetState() == PLAYER_STATE_ONFOOT &&
; 92   : 				m_byteUpdateFromNetwork == UPDATE_TYPE_ONFOOT )

	mov	ecx, DWORD PTR _this$[ebp]
	call	?GetState@CRemotePlayer@@QAEEXZ		; CRemotePlayer::GetState
	movzx	eax, al
	cmp	eax, 1
	jne	$LN52@Process
	mov	eax, DWORD PTR _this$[ebp]
	movzx	ecx, BYTE PTR [eax+5]
	cmp	ecx, 1
	jne	$LN52@Process

; 93   : 			{	
; 94   : 				if ( !IsSurfingOrTurretMode() )

	mov	ecx, DWORD PTR _this$[ebp]
	call	?IsSurfingOrTurretMode@CRemotePlayer@@QAEHXZ ; CRemotePlayer::IsSurfingOrTurretMode
	test	eax, eax
	jne	SHORT $LN51@Process

; 95   : 				{
; 96   : 					// If the user hasn't sent these, they're obviously not on the car, so we just sync
; 97   : 					// their normal movement/speed/etc.
; 98   : 					UpdateOnFootPositionAndSpeed(&m_ofSync.vecPos,&m_ofSync.vecMoveSpeed);

	mov	eax, DWORD PTR _this$[ebp]
	add	eax, 32					; 00000020H
	push	eax
	mov	ecx, DWORD PTR _this$[ebp]
	add	ecx, 12					; 0000000cH
	push	ecx
	mov	ecx, DWORD PTR _this$[ebp]
	call	?UpdateOnFootPositionAndSpeed@CRemotePlayer@@QAEXPAU_VECTOR@@0@Z ; CRemotePlayer::UpdateOnFootPositionAndSpeed

; 99   : 					UpdateOnfootTargetPosition();

	mov	ecx, DWORD PTR _this$[ebp]
	call	?UpdateOnfootTargetPosition@CRemotePlayer@@QAEXXZ ; CRemotePlayer::UpdateOnfootTargetPosition
$LN51@Process:

; 100  : 				}
; 101  : 
; 102  : 				// UPDATE ROTATION
; 103  : 				m_pPlayerPed->SetTargetRotation(m_ofSync.fRotation);

	mov	eax, DWORD PTR _this$[ebp]
	push	ecx
	movss	xmm0, DWORD PTR [eax+24]
	movss	DWORD PTR [esp], xmm0
	mov	ecx, DWORD PTR _this$[ebp]
	mov	ecx, DWORD PTR [ecx]
	call	?SetTargetRotation@CPlayerPed@@QAEXM@Z	; CPlayerPed::SetTargetRotation

; 104  : 		
; 105  : 				// UPDATE CURRENT WEAPON
; 106  : 				if(m_pPlayerPed->IsAdded() && m_pPlayerPed->GetCurrentWeapon() != m_ofSync.byteCurrentWeapon) {

	mov	eax, DWORD PTR _this$[ebp]
	mov	ecx, DWORD PTR [eax]
	call	?IsAdded@CEntity@@QAEHXZ		; CEntity::IsAdded
	test	eax, eax
	je	SHORT $LN49@Process
	mov	eax, DWORD PTR _this$[ebp]
	mov	ecx, DWORD PTR [eax]
	call	?GetCurrentWeapon@CPlayerPed@@QAEEXZ	; CPlayerPed::GetCurrentWeapon
	movzx	ecx, al
	mov	edx, DWORD PTR _this$[ebp]
	movzx	eax, BYTE PTR [edx+30]
	cmp	ecx, eax
	je	SHORT $LN49@Process

; 107  : 					m_pPlayerPed->SetArmedWeapon(m_ofSync.byteCurrentWeapon);

	mov	eax, DWORD PTR _this$[ebp]
	movzx	ecx, BYTE PTR [eax+30]
	push	ecx
	mov	edx, DWORD PTR _this$[ebp]
	mov	ecx, DWORD PTR [edx]
	call	?SetArmedWeapon@CPlayerPed@@QAEXH@Z	; CPlayerPed::SetArmedWeapon

; 108  : 
; 109  : 					// double check
; 110  : 					if(m_pPlayerPed->GetCurrentWeapon() != m_ofSync.byteCurrentWeapon) {

	mov	eax, DWORD PTR _this$[ebp]
	mov	ecx, DWORD PTR [eax]
	call	?GetCurrentWeapon@CPlayerPed@@QAEEXZ	; CPlayerPed::GetCurrentWeapon
	movzx	ecx, al
	mov	edx, DWORD PTR _this$[ebp]
	movzx	eax, BYTE PTR [edx+30]
	cmp	ecx, eax
	je	SHORT $LN49@Process

; 111  : 						m_pPlayerPed->GiveWeapon(m_ofSync.byteCurrentWeapon,9999);

	push	9999					; 0000270fH
	mov	eax, DWORD PTR _this$[ebp]
	movzx	ecx, BYTE PTR [eax+30]
	push	ecx
	mov	edx, DWORD PTR _this$[ebp]
	mov	ecx, DWORD PTR [edx]
	call	?GiveWeapon@CPlayerPed@@QAEXHH@Z	; CPlayerPed::GiveWeapon

; 112  : 						m_pPlayerPed->SetArmedWeapon(m_ofSync.byteCurrentWeapon);

	mov	eax, DWORD PTR _this$[ebp]
	movzx	ecx, BYTE PTR [eax+30]
	push	ecx
	mov	edx, DWORD PTR _this$[ebp]
	mov	ecx, DWORD PTR [edx]
	call	?SetArmedWeapon@CPlayerPed@@QAEXH@Z	; CPlayerPed::SetArmedWeapon
$LN49@Process:

; 113  : 					}
; 114  : 				}
; 115  : 
; 116  : 	//-----------------------------------------------------------------------------
; 117  : /*
; 118  : 				// First person weapon action hack
; 119  : 
; 120  : 				//  SA-MP      ,    Action 
; 121  : 
; 122  : 				if (IS_TARGETING(m_ofSync.wKeys)) 
; 123  : 				{
; 124  : 					if (m_pPlayerPed->GetCurrentWeapon() == 34 ||
; 125  : 						m_pPlayerPed->GetCurrentWeapon() == 35 ||
; 126  : 						m_pPlayerPed->GetCurrentWeapon() == 36)
; 127  : 					{
; 128  : 
; 129  : 						// 34 - sniper // 35 - rpg // 36 - rpg2
; 130  : 
; 131  : 						pChatWindow->AddDebugMessage(" DEBUG: SetAction (12) ");
; 132  : 
; 133  : 						m_pPlayerPed->SetActionTrigger(12); //       
; 134  : 					}
; 135  : 				} 
; 136  : 				else if (m_pPlayerPed->GetActionTrigger() == 12) 
; 137  : 				{
; 138  : 					pChatWindow->AddDebugMessage(" DEBUG: SetAction (1) ");
; 139  : 
; 140  : 					m_pPlayerPed->SetActionTrigger(1);
; 141  : 				}
; 142  : */
; 143  : 	//-----------------------------------------------------------------------------
; 144  : 
; 145  : 				m_pCurrentVehicle = NULL;

	mov	eax, DWORD PTR _this$[ebp]
	mov	DWORD PTR [eax+311], 0

; 146  : 				m_byteUpdateFromNetwork = UPDATE_TYPE_NONE;

	mov	eax, DWORD PTR _this$[ebp]
	mov	BYTE PTR [eax+5], 0

; 147  : 			}
; 148  : 
; 149  : 			// ---- DRIVER NETWORK PROCESSING ----
; 150  : 			else if(GetState() == PLAYER_STATE_DRIVER &&

	jmp	$LN26@Process
$LN52@Process:

; 151  : 				m_byteUpdateFromNetwork == UPDATE_TYPE_INCAR)

	mov	ecx, DWORD PTR _this$[ebp]
	call	?GetState@CRemotePlayer@@QAEEXZ		; CRemotePlayer::GetState
	movzx	eax, al
	cmp	eax, 2
	jne	$LN47@Process
	mov	eax, DWORD PTR _this$[ebp]
	movzx	ecx, BYTE PTR [eax+5]
	cmp	ecx, 2
	jne	$LN47@Process

; 152  : 			{
; 153  : 				if(!m_pCurrentVehicle || !m_pCurrentVehicle->VerifyInstance()) return;

	mov	eax, DWORD PTR _this$[ebp]
	cmp	DWORD PTR [eax+311], 0
	je	SHORT $LN45@Process
	mov	eax, DWORD PTR _this$[ebp]
	mov	ecx, DWORD PTR [eax+311]
	call	?VerifyInstance@CVehicle@@QAEHXZ	; CVehicle::VerifyInstance
	test	eax, eax
	jne	SHORT $LN46@Process
$LN45@Process:
	jmp	$LN59@Process
$LN46@Process:

; 154  : 
; 155  : 				//m_pCurrentVehicle->ProcessEngineAudio(m_pPlayerPed->m_bytePlayerNumber);
; 156  :                 
; 157  : 				// MATRIX
; 158  : 				DecompressNormalVector(&matVehicle.right,&m_icSync.cvecRoll);

	mov	eax, DWORD PTR _this$[ebp]
	add	eax, 66					; 00000042H
	push	eax
	lea	ecx, DWORD PTR _matVehicle$[ebp]
	push	ecx
	call	?DecompressNormalVector@@YAXPAU_VECTOR@@PAU_C_VECTOR1@@@Z ; DecompressNormalVector
	add	esp, 8

; 159  : 				DecompressNormalVector(&matVehicle.up,&m_icSync.cvecDirection);

	mov	eax, DWORD PTR _this$[ebp]
	add	eax, 75					; 0000004bH
	push	eax
	lea	ecx, DWORD PTR _matVehicle$[ebp+16]
	push	ecx
	call	?DecompressNormalVector@@YAXPAU_VECTOR@@PAU_C_VECTOR1@@@Z ; DecompressNormalVector
	add	esp, 8

; 160  : 
; 161  : 				matVehicle.pos.X = m_icSync.vecPos.X;

	mov	eax, DWORD PTR _this$[ebp]
	movss	xmm0, DWORD PTR [eax+84]
	movss	DWORD PTR _matVehicle$[ebp+48], xmm0

; 162  : 				matVehicle.pos.Y = m_icSync.vecPos.Y;

	mov	eax, DWORD PTR _this$[ebp]
	movss	xmm0, DWORD PTR [eax+88]
	movss	DWORD PTR _matVehicle$[ebp+52], xmm0

; 163  : 				matVehicle.pos.Z = m_icSync.vecPos.Z;

	mov	eax, DWORD PTR _this$[ebp]
	movss	xmm0, DWORD PTR [eax+92]
	movss	DWORD PTR _matVehicle$[ebp+56], xmm0

; 164  : 
; 165  : 				// MOVE SPEED
; 166  : 				vecMoveSpeed.X = m_icSync.vecMoveSpeed.X;

	mov	eax, DWORD PTR _this$[ebp]
	movss	xmm0, DWORD PTR [eax+96]
	movss	DWORD PTR _vecMoveSpeed$[ebp], xmm0

; 167  : 				vecMoveSpeed.Y = m_icSync.vecMoveSpeed.Y;

	mov	eax, DWORD PTR _this$[ebp]
	movss	xmm0, DWORD PTR [eax+100]
	movss	DWORD PTR _vecMoveSpeed$[ebp+4], xmm0

; 168  : 				vecMoveSpeed.Z = m_icSync.vecMoveSpeed.Z;

	mov	eax, DWORD PTR _this$[ebp]
	movss	xmm0, DWORD PTR [eax+104]
	movss	DWORD PTR _vecMoveSpeed$[ebp+8], xmm0

; 169  : 
; 170  : 				// Note: Train Speed and Tire Popping values are mutually exclusive, which means
; 171  : 				//       if one is set, the other one will be affected.
; 172  : 				if( m_pCurrentVehicle->GetModelIndex() == TRAIN_PASSENGER_LOCO ||
; 173  : 					m_pCurrentVehicle->GetModelIndex() == TRAIN_FREIGHT_LOCO ||
; 174  : 					m_pCurrentVehicle->GetModelIndex() == TRAIN_TRAM) {

	mov	eax, DWORD PTR _this$[ebp]
	mov	ecx, DWORD PTR [eax+311]
	call	?GetModelIndex@CEntity@@QAEIXZ		; CEntity::GetModelIndex
	cmp	eax, 537				; 00000219H
	je	SHORT $LN43@Process
	mov	eax, DWORD PTR _this$[ebp]
	mov	ecx, DWORD PTR [eax+311]
	call	?GetModelIndex@CEntity@@QAEIXZ		; CEntity::GetModelIndex
	cmp	eax, 538				; 0000021aH
	je	SHORT $LN43@Process
	mov	eax, DWORD PTR _this$[ebp]
	mov	ecx, DWORD PTR [eax+311]
	call	?GetModelIndex@CEntity@@QAEIXZ		; CEntity::GetModelIndex
	cmp	eax, 449				; 000001c1H
	jne	SHORT $LN44@Process
$LN43@Process:

; 175  : 					// TRAIN MATRIX UPDATE
; 176  : 					UpdateTrainDriverMatrixAndSpeed(&matVehicle,&vecMoveSpeed, m_icSync.fTrainSpeed);

	mov	eax, DWORD PTR _this$[ebp]
	push	ecx
	movss	xmm0, DWORD PTR [eax+127]
	movss	DWORD PTR [esp], xmm0
	lea	ecx, DWORD PTR _vecMoveSpeed$[ebp]
	push	ecx
	lea	edx, DWORD PTR _matVehicle$[ebp]
	push	edx
	mov	ecx, DWORD PTR _this$[ebp]
	call	?UpdateTrainDriverMatrixAndSpeed@CRemotePlayer@@QAEXPAU_MATRIX4X4@@PAU_VECTOR@@M@Z ; CRemotePlayer::UpdateTrainDriverMatrixAndSpeed

; 177  : 				} else {

	jmp	$LN38@Process
$LN44@Process:

; 178  : 
; 179  : 					// GENERIC VEHICLE MATRIX UPDATE
; 180  : 					UpdateInCarMatrixAndSpeed(matVehicle,vecMoveSpeed);

	sub	esp, 12					; 0000000cH
	mov	eax, esp
	mov	ecx, DWORD PTR _vecMoveSpeed$[ebp]
	mov	DWORD PTR [eax], ecx
	mov	edx, DWORD PTR _vecMoveSpeed$[ebp+4]
	mov	DWORD PTR [eax+4], edx
	mov	ecx, DWORD PTR _vecMoveSpeed$[ebp+8]
	mov	DWORD PTR [eax+8], ecx
	sub	esp, 64					; 00000040H
	mov	ecx, 16					; 00000010H
	lea	esi, DWORD PTR _matVehicle$[ebp]
	mov	edi, esp
	rep movsd
	mov	ecx, DWORD PTR _this$[ebp]
	call	?UpdateInCarMatrixAndSpeed@CRemotePlayer@@QAEXU_MATRIX4X4@@U_VECTOR@@@Z ; CRemotePlayer::UpdateInCarMatrixAndSpeed

; 181  : 					UpdateIncarTargetPosition();

	mov	ecx, DWORD PTR _this$[ebp]
	call	?UpdateIncarTargetPosition@CRemotePlayer@@QAEXXZ ; CRemotePlayer::UpdateIncarTargetPosition

; 182  : 					
; 183  : 					// FOR TIRE POPPING
; 184  : 					if (pNetGame->m_bTirePopping) {

	mov	eax, DWORD PTR ?pNetGame@@3PAVCNetGame@@A ; pNetGame
	movzx	ecx, BYTE PTR [eax+60]
	test	ecx, ecx
	je	$LN38@Process

; 185  : 						if (m_pCurrentVehicle->GetVehicleSubtype() == VEHICLE_SUBTYPE_BIKE) {

	mov	eax, DWORD PTR _this$[ebp]
	mov	ecx, DWORD PTR [eax+311]
	call	?GetVehicleSubtype@CVehicle@@QAEIXZ	; CVehicle::GetVehicleSubtype
	cmp	eax, 2
	jne	SHORT $LN40@Process

; 186  : 							m_pCurrentVehicle->SetWheelPopped(0, m_icSync.byteTires[0]);

	mov	eax, 1
	imul	ecx, eax, 0
	mov	edx, DWORD PTR _this$[ebp]
	movzx	eax, BYTE PTR [edx+ecx+117]
	push	eax
	push	0
	mov	ecx, DWORD PTR _this$[ebp]
	mov	ecx, DWORD PTR [ecx+311]
	call	?SetWheelPopped@CVehicle@@QAEXKK@Z	; CVehicle::SetWheelPopped

; 187  : 							m_pCurrentVehicle->SetWheelPopped(1, m_icSync.byteTires[1]);

	mov	eax, 1
	shl	eax, 0
	mov	ecx, DWORD PTR _this$[ebp]
	movzx	edx, BYTE PTR [ecx+eax+117]
	push	edx
	push	1
	mov	eax, DWORD PTR _this$[ebp]
	mov	ecx, DWORD PTR [eax+311]
	call	?SetWheelPopped@CVehicle@@QAEXKK@Z	; CVehicle::SetWheelPopped
	jmp	$LN38@Process
$LN40@Process:

; 188  : 						} 
; 189  : 						else if ( m_pCurrentVehicle->GetVehicleSubtype() == VEHICLE_SUBTYPE_CAR ) {

	mov	eax, DWORD PTR _this$[ebp]
	mov	ecx, DWORD PTR [eax+311]
	call	?GetVehicleSubtype@CVehicle@@QAEIXZ	; CVehicle::GetVehicleSubtype
	cmp	eax, 1
	jne	$LN38@Process

; 190  : 							m_pCurrentVehicle->SetWheelPopped(0, m_icSync.byteTires[0]);

	mov	eax, 1
	imul	ecx, eax, 0
	mov	edx, DWORD PTR _this$[ebp]
	movzx	eax, BYTE PTR [edx+ecx+117]
	push	eax
	push	0
	mov	ecx, DWORD PTR _this$[ebp]
	mov	ecx, DWORD PTR [ecx+311]
	call	?SetWheelPopped@CVehicle@@QAEXKK@Z	; CVehicle::SetWheelPopped

; 191  : 							m_pCurrentVehicle->SetWheelPopped(1, m_icSync.byteTires[1]);

	mov	eax, 1
	shl	eax, 0
	mov	ecx, DWORD PTR _this$[ebp]
	movzx	edx, BYTE PTR [ecx+eax+117]
	push	edx
	push	1
	mov	eax, DWORD PTR _this$[ebp]
	mov	ecx, DWORD PTR [eax+311]
	call	?SetWheelPopped@CVehicle@@QAEXKK@Z	; CVehicle::SetWheelPopped

; 192  : 							m_pCurrentVehicle->SetWheelPopped(2, m_icSync.byteTires[2]);

	mov	eax, 1
	shl	eax, 1
	mov	ecx, DWORD PTR _this$[ebp]
	movzx	edx, BYTE PTR [ecx+eax+117]
	push	edx
	push	2
	mov	eax, DWORD PTR _this$[ebp]
	mov	ecx, DWORD PTR [eax+311]
	call	?SetWheelPopped@CVehicle@@QAEXKK@Z	; CVehicle::SetWheelPopped

; 193  : 							m_pCurrentVehicle->SetWheelPopped(3, m_icSync.byteTires[3]);

	mov	eax, 1
	imul	ecx, eax, 3
	mov	edx, DWORD PTR _this$[ebp]
	movzx	eax, BYTE PTR [edx+ecx+117]
	push	eax
	push	3
	mov	ecx, DWORD PTR _this$[ebp]
	mov	ecx, DWORD PTR [ecx+311]
	call	?SetWheelPopped@CVehicle@@QAEXKK@Z	; CVehicle::SetWheelPopped
$LN38@Process:

; 194  : 						}
; 195  : 					}
; 196  : 				}
; 197  : 
; 198  : 				// HYDRA THRUSTERS
; 199  : 				if(m_pCurrentVehicle->GetModelIndex() == HYDRA) {

	mov	eax, DWORD PTR _this$[ebp]
	mov	ecx, DWORD PTR [eax+311]
	call	?GetModelIndex@CEntity@@QAEIXZ		; CEntity::GetModelIndex
	cmp	eax, 520				; 00000208H
	jne	SHORT $LN37@Process

; 200  : 					m_pCurrentVehicle->SetHydraThrusters(m_icSync.dwHydraThrustAngle);

	mov	eax, DWORD PTR _this$[ebp]
	mov	ecx, DWORD PTR [eax+123]
	push	ecx
	mov	edx, DWORD PTR _this$[ebp]
	mov	ecx, DWORD PTR [edx+311]
	call	?SetHydraThrusters@CVehicle@@QAEXK@Z	; CVehicle::SetHydraThrusters
$LN37@Process:

; 201  : 				}
; 202  : 				// Some other SPECIAL sync stuff (these can be optimized for specific vehicles, someday!)
; 203  : 				m_pCurrentVehicle->SetSirenOn(m_icSync.byteSirenOn);

	mov	eax, DWORD PTR _this$[ebp]
	movzx	ecx, BYTE PTR [eax+115]
	push	ecx
	mov	edx, DWORD PTR _this$[ebp]
	mov	ecx, DWORD PTR [edx+311]
	call	?SetSirenOn@CVehicle@@QAEXH@Z		; CVehicle::SetSirenOn

; 204  : 				m_pCurrentVehicle->SetLandingGearState((eLandingGearState)m_icSync.byteLandingGearState);

	mov	eax, DWORD PTR _this$[ebp]
	movzx	ecx, BYTE PTR [eax+116]
	push	ecx
	mov	edx, DWORD PTR _this$[ebp]
	mov	ecx, DWORD PTR [edx+311]
	call	?SetLandingGearState@CVehicle@@QAEXW4eLandingGearState@@@Z ; CVehicle::SetLandingGearState

; 205  : 		
; 206  : 				// VEHICLE HEALTH
; 207  : 				m_pCurrentVehicle->SetHealth(m_icSync.fCarHealth);

	mov	eax, DWORD PTR _this$[ebp]
	push	ecx
	movss	xmm0, DWORD PTR [eax+108]
	movss	DWORD PTR [esp], xmm0
	mov	ecx, DWORD PTR _this$[ebp]
	mov	ecx, DWORD PTR [ecx+311]
	call	?SetHealth@CVehicle@@QAEXM@Z		; CVehicle::SetHealth

; 208  : 
; 209  : 				// TRAILER AUTOMATIC ATTACHMENT AS THEY MOVE INTO IT
; 210  : 				if (m_pCurrentVehicle->GetDistanceFromLocalPlayerPed() < LOCKING_DISTANCE)

	mov	eax, DWORD PTR _this$[ebp]
	mov	ecx, DWORD PTR [eax+311]
	call	?GetDistanceFromLocalPlayerPed@CEntity@@QAEMXZ ; CEntity::GetDistanceFromLocalPlayerPed
	fstp	DWORD PTR tv846[ebp]
	movss	xmm0, DWORD PTR __real@43480000
	comiss	xmm0, DWORD PTR tv846[ebp]
	jbe	$LN36@Process

; 211  : 				{
; 212  : 					if (m_icSync.TrailerID && m_icSync.TrailerID < MAX_VEHICLES)

	mov	eax, DWORD PTR _this$[ebp]
	movzx	ecx, WORD PTR [eax+121]
	test	ecx, ecx
	je	SHORT $LN35@Process
	mov	eax, DWORD PTR _this$[ebp]
	movzx	ecx, WORD PTR [eax+121]
	cmp	ecx, 702				; 000002beH
	jge	SHORT $LN35@Process

; 213  : 					{
; 214  : 						CVehicle* pRealTrailer = m_pCurrentVehicle->GetTrailer();

	mov	eax, DWORD PTR _this$[ebp]
	mov	ecx, DWORD PTR [eax+311]
	call	?GetTrailer@CVehicle@@QAEPAV1@XZ	; CVehicle::GetTrailer
	mov	DWORD PTR _pRealTrailer$5[ebp], eax

; 215  : 						CVehicle *pTrailerVehicle = pVehiclePool->GetAt(m_icSync.TrailerID);

	mov	eax, DWORD PTR _this$[ebp]
	movzx	ecx, WORD PTR [eax+121]
	push	ecx
	mov	ecx, DWORD PTR _pVehiclePool$[ebp]
	call	?GetAt@CVehiclePool@@QAEPAVCVehicle@@G@Z ; CVehiclePool::GetAt
	mov	DWORD PTR _pTrailerVehicle$4[ebp], eax

; 216  : 						if (!pRealTrailer) {

	cmp	DWORD PTR _pRealTrailer$5[ebp], 0
	jne	SHORT $LN33@Process

; 217  : 							if (pTrailerVehicle) {

	cmp	DWORD PTR _pTrailerVehicle$4[ebp], 0
	je	SHORT $LN33@Process

; 218  : 								m_pCurrentVehicle->SetTrailer(pTrailerVehicle);

	mov	eax, DWORD PTR _pTrailerVehicle$4[ebp]
	push	eax
	mov	ecx, DWORD PTR _this$[ebp]
	mov	ecx, DWORD PTR [ecx+311]
	call	?SetTrailer@CVehicle@@QAEXPAV1@@Z	; CVehicle::SetTrailer

; 219  : 								m_pCurrentVehicle->AttachTrailer();

	mov	eax, DWORD PTR _this$[ebp]
	mov	ecx, DWORD PTR [eax+311]
	call	?AttachTrailer@CVehicle@@QAEXXZ		; CVehicle::AttachTrailer
$LN33@Process:

; 220  : 							}
; 221  : 						}
; 222  : 					} 
; 223  : 					else

	jmp	SHORT $LN31@Process
$LN35@Process:

; 224  : 					{
; 225  : 						if (m_pCurrentVehicle->GetTrailer()) {

	mov	eax, DWORD PTR _this$[ebp]
	mov	ecx, DWORD PTR [eax+311]
	call	?GetTrailer@CVehicle@@QAEPAV1@XZ	; CVehicle::GetTrailer
	test	eax, eax
	je	SHORT $LN31@Process

; 226  : 							m_pCurrentVehicle->DetachTrailer();

	mov	eax, DWORD PTR _this$[ebp]
	mov	ecx, DWORD PTR [eax+311]
	call	?DetachTrailer@CVehicle@@QAEXXZ		; CVehicle::DetachTrailer

; 227  : 							m_pCurrentVehicle->SetTrailer(NULL);

	push	0
	mov	eax, DWORD PTR _this$[ebp]
	mov	ecx, DWORD PTR [eax+311]
	call	?SetTrailer@CVehicle@@QAEXPAV1@@Z	; CVehicle::SetTrailer
$LN31@Process:

; 228  : 						}
; 229  : 					}
; 230  : 				}
; 231  : 				else

	jmp	SHORT $LN30@Process
$LN36@Process:

; 232  : 				{
; 233  : 					m_pCurrentVehicle->SetTrailer(NULL);

	push	0
	mov	eax, DWORD PTR _this$[ebp]
	mov	ecx, DWORD PTR [eax+311]
	call	?SetTrailer@CVehicle@@QAEXPAV1@@Z	; CVehicle::SetTrailer
$LN30@Process:

; 234  : 				}
; 235  : 
; 236  : 				// UPDATE CURRENT WEAPON (FOR DRIVER!)
; 237  : 				if( m_pPlayerPed->IsAdded() &&
; 238  : 					m_pPlayerPed->GetCurrentWeapon() != m_icSync.byteCurrentWeapon ) {

	mov	eax, DWORD PTR _this$[ebp]
	mov	ecx, DWORD PTR [eax]
	call	?IsAdded@CEntity@@QAEHXZ		; CEntity::IsAdded
	test	eax, eax
	je	SHORT $LN28@Process
	mov	eax, DWORD PTR _this$[ebp]
	mov	ecx, DWORD PTR [eax]
	call	?GetCurrentWeapon@CPlayerPed@@QAEEXZ	; CPlayerPed::GetCurrentWeapon
	movzx	ecx, al
	mov	edx, DWORD PTR _this$[ebp]
	movzx	eax, BYTE PTR [edx+114]
	cmp	ecx, eax
	je	SHORT $LN28@Process

; 239  : 					m_pPlayerPed->SetArmedWeapon(m_icSync.byteCurrentWeapon);

	mov	eax, DWORD PTR _this$[ebp]
	movzx	ecx, BYTE PTR [eax+114]
	push	ecx
	mov	edx, DWORD PTR _this$[ebp]
	mov	ecx, DWORD PTR [edx]
	call	?SetArmedWeapon@CPlayerPed@@QAEXH@Z	; CPlayerPed::SetArmedWeapon

; 240  : 					if(m_pPlayerPed->GetCurrentWeapon() != m_icSync.byteCurrentWeapon) {

	mov	eax, DWORD PTR _this$[ebp]
	mov	ecx, DWORD PTR [eax]
	call	?GetCurrentWeapon@CPlayerPed@@QAEEXZ	; CPlayerPed::GetCurrentWeapon
	movzx	ecx, al
	mov	edx, DWORD PTR _this$[ebp]
	movzx	eax, BYTE PTR [edx+114]
	cmp	ecx, eax
	je	SHORT $LN28@Process

; 241  : 						m_pPlayerPed->GiveWeapon(m_icSync.byteCurrentWeapon,9999);

	push	9999					; 0000270fH
	mov	eax, DWORD PTR _this$[ebp]
	movzx	ecx, BYTE PTR [eax+114]
	push	ecx
	mov	edx, DWORD PTR _this$[ebp]
	mov	ecx, DWORD PTR [edx]
	call	?GiveWeapon@CPlayerPed@@QAEXHH@Z	; CPlayerPed::GiveWeapon

; 242  : 						m_pPlayerPed->SetArmedWeapon(m_icSync.byteCurrentWeapon);

	mov	eax, DWORD PTR _this$[ebp]
	movzx	ecx, BYTE PTR [eax+114]
	push	ecx
	mov	edx, DWORD PTR _this$[ebp]
	mov	ecx, DWORD PTR [edx]
	call	?SetArmedWeapon@CPlayerPed@@QAEXH@Z	; CPlayerPed::SetArmedWeapon
$LN28@Process:

; 243  : 					}
; 244  : 				}
; 245  : 				m_byteUpdateFromNetwork = UPDATE_TYPE_NONE;

	mov	eax, DWORD PTR _this$[ebp]
	mov	BYTE PTR [eax+5], 0

; 246  : 			}
; 247  : 
; 248  : 			// ---- PASSENGER NETWORK PROCESSING ----
; 249  : 			else if(GetState() == PLAYER_STATE_PASSENGER && 

	jmp	$LN26@Process
$LN47@Process:

; 250  : 				m_byteUpdateFromNetwork == UPDATE_TYPE_PASSENGER)

	mov	ecx, DWORD PTR _this$[ebp]
	call	?GetState@CRemotePlayer@@QAEEXZ		; CRemotePlayer::GetState
	movzx	eax, al
	cmp	eax, 3
	jne	$LN26@Process
	mov	eax, DWORD PTR _this$[ebp]
	movzx	ecx, BYTE PTR [eax+5]
	cmp	ecx, 3
	jne	$LN26@Process

; 251  : 			{
; 252  : 				if(!m_pCurrentVehicle || !m_pCurrentVehicle->VerifyInstance()) return;

	mov	eax, DWORD PTR _this$[ebp]
	cmp	DWORD PTR [eax+311], 0
	je	SHORT $LN24@Process
	mov	eax, DWORD PTR _this$[ebp]
	mov	ecx, DWORD PTR [eax+311]
	call	?VerifyInstance@CVehicle@@QAEHXZ	; CVehicle::VerifyInstance
	test	eax, eax
	jne	SHORT $LN25@Process
$LN24@Process:
	jmp	$LN59@Process
$LN25@Process:

; 253  : 
; 254  : 				// UPDATE CURRENT WEAPON
; 255  : 				if( m_pPlayerPed->IsAdded() &&
; 256  : 					m_pPlayerPed->GetCurrentWeapon() != m_psSync.byteCurrentWeapon ) {

	mov	eax, DWORD PTR _this$[ebp]
	mov	ecx, DWORD PTR [eax]
	call	?IsAdded@CEntity@@QAEHXZ		; CEntity::IsAdded
	test	eax, eax
	je	SHORT $LN22@Process
	mov	eax, DWORD PTR _this$[ebp]
	mov	ecx, DWORD PTR [eax]
	call	?GetCurrentWeapon@CPlayerPed@@QAEEXZ	; CPlayerPed::GetCurrentWeapon
	movzx	ecx, al
	mov	edx, DWORD PTR _this$[ebp]
	movzx	eax, BYTE PTR [edx+134]
	cmp	ecx, eax
	je	SHORT $LN22@Process

; 257  : 					m_pPlayerPed->SetArmedWeapon(m_psSync.byteCurrentWeapon);

	mov	eax, DWORD PTR _this$[ebp]
	movzx	ecx, BYTE PTR [eax+134]
	push	ecx
	mov	edx, DWORD PTR _this$[ebp]
	mov	ecx, DWORD PTR [edx]
	call	?SetArmedWeapon@CPlayerPed@@QAEXH@Z	; CPlayerPed::SetArmedWeapon

; 258  : 					if(m_pPlayerPed->GetCurrentWeapon() != m_psSync.byteCurrentWeapon) {

	mov	eax, DWORD PTR _this$[ebp]
	mov	ecx, DWORD PTR [eax]
	call	?GetCurrentWeapon@CPlayerPed@@QAEEXZ	; CPlayerPed::GetCurrentWeapon
	movzx	ecx, al
	mov	edx, DWORD PTR _this$[ebp]
	movzx	eax, BYTE PTR [edx+134]
	cmp	ecx, eax
	je	SHORT $LN22@Process

; 259  : 						m_pPlayerPed->GiveWeapon(m_psSync.byteCurrentWeapon,9999);

	push	9999					; 0000270fH
	mov	eax, DWORD PTR _this$[ebp]
	movzx	ecx, BYTE PTR [eax+134]
	push	ecx
	mov	edx, DWORD PTR _this$[ebp]
	mov	ecx, DWORD PTR [edx]
	call	?GiveWeapon@CPlayerPed@@QAEXHH@Z	; CPlayerPed::GiveWeapon

; 260  : 						m_pPlayerPed->SetArmedWeapon(m_psSync.byteCurrentWeapon);

	mov	eax, DWORD PTR _this$[ebp]
	movzx	ecx, BYTE PTR [eax+134]
	push	ecx
	mov	edx, DWORD PTR _this$[ebp]
	mov	ecx, DWORD PTR [edx]
	call	?SetArmedWeapon@CPlayerPed@@QAEXH@Z	; CPlayerPed::SetArmedWeapon
$LN22@Process:

; 261  : 					}
; 262  : 				}
; 263  : 				// FOR INITIALISING PASSENGER DRIVEBY
; 264  : 				if(!m_bPassengerDriveByMode && m_pPlayerPed->GetActionTrigger() == ACTION_INCAR) {

	mov	eax, DWORD PTR _this$[ebp]
	cmp	DWORD PTR [eax+320], 0
	jne	SHORT $LN18@Process
	mov	eax, DWORD PTR _this$[ebp]
	mov	ecx, DWORD PTR [eax]
	call	?GetActionTrigger@CPlayerPed@@QAEEXZ	; CPlayerPed::GetActionTrigger
	movzx	ecx, al
	cmp	ecx, 50					; 00000032H
	jne	SHORT $LN18@Process

; 265  : 					if(m_psSync.byteDriveBy) {

	mov	eax, DWORD PTR _this$[ebp]
	mov	cl, BYTE PTR [eax+133]
	shr	cl, 7
	and	cl, 1
	movzx	edx, cl
	test	edx, edx
	je	SHORT $LN18@Process

; 266  : 						if(m_pPlayerPed->IsAdded()) {

	mov	eax, DWORD PTR _this$[ebp]
	mov	ecx, DWORD PTR [eax]
	call	?IsAdded@CEntity@@QAEHXZ		; CEntity::IsAdded
	test	eax, eax
	je	SHORT $LN18@Process

; 267  : 							if(m_pPlayerPed->StartPassengerDriveByMode()) {

	mov	eax, DWORD PTR _this$[ebp]
	mov	ecx, DWORD PTR [eax]
	call	?StartPassengerDriveByMode@CPlayerPed@@QAEHXZ ; CPlayerPed::StartPassengerDriveByMode
	test	eax, eax
	je	SHORT $LN18@Process

; 268  : 								m_bPassengerDriveByMode = TRUE;

	mov	eax, DWORD PTR _this$[ebp]
	mov	DWORD PTR [eax+320], 1
$LN18@Process:

; 269  : 							}
; 270  : 						}
; 271  : 					}
; 272  : 				}
; 273  : 				m_byteUpdateFromNetwork = UPDATE_TYPE_NONE;

	mov	eax, DWORD PTR _this$[ebp]
	mov	BYTE PTR [eax+5], 0
$LN26@Process:

; 274  : 			}
; 275  : 
; 276  : 			// ------ PROCESSED FOR ALL FRAMES ----- 
; 277  : 			if(GetState() == PLAYER_STATE_ONFOOT) {

	mov	ecx, DWORD PTR _this$[ebp]
	call	?GetState@CRemotePlayer@@QAEEXZ		; CRemotePlayer::GetState
	movzx	eax, al
	cmp	eax, 1
	jne	$LN17@Process

; 278  : 				m_bPassengerDriveByMode = FALSE;

	mov	eax, DWORD PTR _this$[ebp]
	mov	DWORD PTR [eax+320], 0

; 279  : 				ProcessSpecialActions(m_ofSync.byteSpecialAction);

	mov	eax, DWORD PTR _this$[ebp]
	movzx	ecx, BYTE PTR [eax+31]
	push	ecx
	mov	ecx, DWORD PTR _this$[ebp]
	call	?ProcessSpecialActions@CRemotePlayer@@QAEXE@Z ; CRemotePlayer::ProcessSpecialActions

; 280  : 				//m_pPlayerPed->SetMoveSpeedVector(m_ofSync.vecMoveSpeed);
; 281  : 				m_pPlayerPed->SetKeys(m_ofSync.wKeys,m_ofSync.lrAnalog,m_ofSync.udAnalog);

	mov	eax, DWORD PTR _this$[ebp]
	movzx	ecx, WORD PTR [eax+8]
	push	ecx
	mov	edx, DWORD PTR _this$[ebp]
	movzx	eax, WORD PTR [edx+6]
	push	eax
	mov	ecx, DWORD PTR _this$[ebp]
	movzx	edx, WORD PTR [ecx+10]
	push	edx
	mov	eax, DWORD PTR _this$[ebp]
	mov	ecx, DWORD PTR [eax]
	call	?SetKeys@CPlayerPed@@QAEXGGG@Z		; CPlayerPed::SetKeys

; 282  : 
; 283  : 				if(m_pPlayerPed->IsInJetpackMode()) {

	mov	eax, DWORD PTR _this$[ebp]
	mov	ecx, DWORD PTR [eax]
	call	?IsInJetpackMode@CPlayerPed@@QAEHXZ	; CPlayerPed::IsInJetpackMode
	test	eax, eax
	je	SHORT $LN16@Process

; 284  : 					m_pPlayerPed->ForceTargetRotation(m_ofSync.fRotation);

	mov	eax, DWORD PTR _this$[ebp]
	push	ecx
	movss	xmm0, DWORD PTR [eax+24]
	movss	DWORD PTR [esp], xmm0
	mov	ecx, DWORD PTR _this$[ebp]
	mov	ecx, DWORD PTR [ecx]
	call	?ForceTargetRotation@CPlayerPed@@QAEXM@Z ; CPlayerPed::ForceTargetRotation

; 285  : 				} else {

	jmp	SHORT $LN15@Process
$LN16@Process:

; 286  : 					m_pPlayerPed->SetTargetRotation(m_ofSync.fRotation);

	mov	eax, DWORD PTR _this$[ebp]
	push	ecx
	movss	xmm0, DWORD PTR [eax+24]
	movss	DWORD PTR [esp], xmm0
	mov	ecx, DWORD PTR _this$[ebp]
	mov	ecx, DWORD PTR [ecx]
	call	?SetTargetRotation@CPlayerPed@@QAEXM@Z	; CPlayerPed::SetTargetRotation
$LN15@Process:

; 287  : 				}
; 288  : 
; 289  : 				if(IsSurfingOrTurretMode()) {

	mov	ecx, DWORD PTR _this$[ebp]
	call	?IsSurfingOrTurretMode@CRemotePlayer@@QAEHXZ ; CRemotePlayer::IsSurfingOrTurretMode
	test	eax, eax
	je	SHORT $LN14@Process

; 290  : 					UpdateSurfing();

	mov	ecx, DWORD PTR _this$[ebp]
	call	?UpdateSurfing@CRemotePlayer@@QAEXXZ	; CRemotePlayer::UpdateSurfing

; 291  : 					m_pPlayerPed->SetGravityProcessing(0);

	push	0
	mov	eax, DWORD PTR _this$[ebp]
	mov	ecx, DWORD PTR [eax]
	call	?SetGravityProcessing@CPlayerPed@@QAEXH@Z ; CPlayerPed::SetGravityProcessing

; 292  : 					m_pPlayerPed->SetCollisionChecking(0);

	push	0
	mov	eax, DWORD PTR _this$[ebp]
	mov	ecx, DWORD PTR [eax]
	call	?SetCollisionChecking@CPlayerPed@@QAEXH@Z ; CPlayerPed::SetCollisionChecking

; 293  : 				} else {

	jmp	SHORT $LN13@Process
$LN14@Process:

; 294  : 					m_pPlayerPed->SetGravityProcessing(1);

	push	1
	mov	eax, DWORD PTR _this$[ebp]
	mov	ecx, DWORD PTR [eax]
	call	?SetGravityProcessing@CPlayerPed@@QAEXH@Z ; CPlayerPed::SetGravityProcessing

; 295  : 					m_pPlayerPed->SetCollisionChecking(1);

	push	1
	mov	eax, DWORD PTR _this$[ebp]
	mov	ecx, DWORD PTR [eax]
	call	?SetCollisionChecking@CPlayerPed@@QAEXH@Z ; CPlayerPed::SetCollisionChecking
$LN13@Process:

; 296  : 				}

	jmp	$LN4@Process
$LN17@Process:

; 297  : 			}
; 298  : 			else if(GetState() == PLAYER_STATE_DRIVER) {

	mov	ecx, DWORD PTR _this$[ebp]
	call	?GetState@CRemotePlayer@@QAEEXZ		; CRemotePlayer::GetState
	movzx	eax, al
	cmp	eax, 2
	jne	$LN11@Process

; 299  : 				m_bPassengerDriveByMode = FALSE;

	mov	eax, DWORD PTR _this$[ebp]
	mov	DWORD PTR [eax+320], 0

; 300  : 				m_pPlayerPed->CheckVehicleParachute();

	mov	eax, DWORD PTR _this$[ebp]
	mov	ecx, DWORD PTR [eax]
	call	?CheckVehicleParachute@CPlayerPed@@QAEXXZ ; CPlayerPed::CheckVehicleParachute

; 301  : 				
; 302  : 				// REMOVE PLAYER MODEL IN RC VEHICLE
; 303  : 				if(m_pCurrentVehicle && m_pCurrentVehicle->IsRCVehicle()) {

	mov	eax, DWORD PTR _this$[ebp]
	cmp	DWORD PTR [eax+311], 0
	je	SHORT $LN10@Process
	mov	eax, DWORD PTR _this$[ebp]
	mov	ecx, DWORD PTR [eax+311]
	call	?IsRCVehicle@CVehicle@@QAEHXZ		; CVehicle::IsRCVehicle
	test	eax, eax
	je	SHORT $LN10@Process

; 304  : 					m_pPlayerPed->Remove();

	mov	eax, DWORD PTR _this$[ebp]
	mov	ecx, DWORD PTR [eax]
	mov	edx, DWORD PTR _this$[ebp]
	mov	eax, DWORD PTR [ecx]
	mov	esi, esp
	mov	ecx, DWORD PTR [edx]
	mov	edx, DWORD PTR [eax+8]
	call	edx
	cmp	esi, esp
	call	__RTC_CheckEsp
$LN10@Process:

; 305  : 				}
; 306  : 
; 307  : 				if(m_iIsInAModShop)	{

	mov	eax, DWORD PTR _this$[ebp]
	cmp	DWORD PTR [eax+352], 0
	je	SHORT $LN9@Process

; 308  : 					VECTOR vec = {0.0f,0.0f,0.0f};

	movss	xmm0, DWORD PTR __real@00000000
	movss	DWORD PTR _vec$3[ebp], xmm0
	movss	xmm0, DWORD PTR __real@00000000
	movss	DWORD PTR _vec$3[ebp+4], xmm0
	movss	xmm0, DWORD PTR __real@00000000
	movss	DWORD PTR _vec$3[ebp+8], xmm0

; 309  : 					m_pPlayerPed->SetKeys(0,0,0);

	push	0
	push	0
	push	0
	mov	eax, DWORD PTR _this$[ebp]
	mov	ecx, DWORD PTR [eax]
	call	?SetKeys@CPlayerPed@@QAEXGGG@Z		; CPlayerPed::SetKeys

; 310  : 					if(m_pCurrentVehicle) m_pCurrentVehicle->SetMoveSpeedVector(vec);

	mov	eax, DWORD PTR _this$[ebp]
	cmp	DWORD PTR [eax+311], 0
	je	SHORT $LN8@Process
	sub	esp, 12					; 0000000cH
	mov	eax, esp
	mov	ecx, DWORD PTR _vec$3[ebp]
	mov	DWORD PTR [eax], ecx
	mov	edx, DWORD PTR _vec$3[ebp+4]
	mov	DWORD PTR [eax+4], edx
	mov	ecx, DWORD PTR _vec$3[ebp+8]
	mov	DWORD PTR [eax+8], ecx
	mov	edx, DWORD PTR _this$[ebp]
	mov	ecx, DWORD PTR [edx+311]
	call	?SetMoveSpeedVector@CEntity@@QAEXU_VECTOR@@@Z ; CEntity::SetMoveSpeedVector
$LN8@Process:

; 311  : 				} else {

	jmp	SHORT $LN7@Process
$LN9@Process:

; 312  : 					m_pPlayerPed->SetKeys(m_icSync.wKeys,m_icSync.lrAnalog,m_icSync.udAnalog);

	mov	eax, DWORD PTR _this$[ebp]
	movzx	ecx, WORD PTR [eax+62]
	push	ecx
	mov	edx, DWORD PTR _this$[ebp]
	movzx	eax, WORD PTR [edx+60]
	push	eax
	mov	ecx, DWORD PTR _this$[ebp]
	movzx	edx, WORD PTR [ecx+64]
	push	edx
	mov	eax, DWORD PTR _this$[ebp]
	mov	ecx, DWORD PTR [eax]
	call	?SetKeys@CPlayerPed@@QAEXGGG@Z		; CPlayerPed::SetKeys

; 313  : 					m_pPlayerPed->ProcessVehicleHorn();

	mov	eax, DWORD PTR _this$[ebp]
	mov	ecx, DWORD PTR [eax]
	call	?ProcessVehicleHorn@CPlayerPed@@QAEXXZ	; CPlayerPed::ProcessVehicleHorn
$LN7@Process:

; 314  : 				}

	jmp	SHORT $LN4@Process
$LN11@Process:

; 315  : 			}
; 316  : 			else if(GetState() == PLAYER_STATE_PASSENGER) {

	mov	ecx, DWORD PTR _this$[ebp]
	call	?GetState@CRemotePlayer@@QAEEXZ		; CRemotePlayer::GetState
	movzx	eax, al
	cmp	eax, 3
	jne	SHORT $LN5@Process

; 317  : 				m_pPlayerPed->CheckVehicleParachute();

	mov	eax, DWORD PTR _this$[ebp]
	mov	ecx, DWORD PTR [eax]
	call	?CheckVehicleParachute@CPlayerPed@@QAEXXZ ; CPlayerPed::CheckVehicleParachute

; 318  : 				m_pPlayerPed->SetKeys(m_psSync.wKeys,0,0);

	push	0
	push	0
	mov	eax, DWORD PTR _this$[ebp]
	movzx	ecx, WORD PTR [eax+141]
	push	ecx
	mov	edx, DWORD PTR _this$[ebp]
	mov	ecx, DWORD PTR [edx]
	call	?SetKeys@CPlayerPed@@QAEXGGG@Z		; CPlayerPed::SetKeys

; 319  : 				
; 320  : 			}
; 321  : 			else {

	jmp	SHORT $LN4@Process
$LN5@Process:

; 322  : 				m_bPassengerDriveByMode = FALSE;

	mov	eax, DWORD PTR _this$[ebp]
	mov	DWORD PTR [eax+320], 0

; 323  : 				m_pPlayerPed->SetKeys(0,0,0);

	push	0
	push	0
	push	0
	mov	eax, DWORD PTR _this$[ebp]
	mov	ecx, DWORD PTR [eax]
	call	?SetKeys@CPlayerPed@@QAEXGGG@Z		; CPlayerPed::SetKeys
$LN4@Process:

; 324  : 			}
; 325  : 
; 326  : 			if(GetState() != PLAYER_STATE_WASTED) {

	mov	ecx, DWORD PTR _this$[ebp]
	call	?GetState@CRemotePlayer@@QAEEXZ		; CRemotePlayer::GetState
	movzx	eax, al
	cmp	eax, 7
	je	SHORT $LN3@Process

; 327  : 				m_pPlayerPed->SetHealth(1000.0f);

	push	ecx
	movss	xmm0, DWORD PTR __real@447a0000
	movss	DWORD PTR [esp], xmm0
	mov	eax, DWORD PTR _this$[ebp]
	mov	ecx, DWORD PTR [eax]
	call	?SetHealth@CPlayerPed@@QAEXM@Z		; CPlayerPed::SetHealth
$LN3@Process:

; 328  : 				//m_pPlayerPed->SetArmour(100.0f);
; 329  : 			}			
; 330  : 		}
; 331  : 	}
; 332  : 	else { 

	jmp	SHORT $LN1@Process
$LN58@Process:

; 333  : 		// NOT ACTIVE
; 334  : 		if(m_pPlayerPed) {

	mov	eax, DWORD PTR _this$[ebp]
	cmp	DWORD PTR [eax], 0
	je	SHORT $LN1@Process

; 335  : 			ResetAllSyncAttributes();

	mov	ecx, DWORD PTR _this$[ebp]
	call	?ResetAllSyncAttributes@CRemotePlayer@@QAEXXZ ; CRemotePlayer::ResetAllSyncAttributes

; 336  : 			m_pPlayerPed->Destroy();

	mov	eax, DWORD PTR _this$[ebp]
	mov	ecx, DWORD PTR [eax]
	call	?Destroy@CPlayerPed@@QAEXXZ		; CPlayerPed::Destroy

; 337  : 			delete m_pPlayerPed;

	mov	eax, DWORD PTR _this$[ebp]
	mov	ecx, DWORD PTR [eax]
	mov	DWORD PTR $T2[ebp], ecx
	mov	edx, DWORD PTR $T2[ebp]
	mov	DWORD PTR $T1[ebp], edx
	cmp	DWORD PTR $T1[ebp], 0
	je	SHORT $LN61@Process
	mov	esi, esp
	push	1
	mov	eax, DWORD PTR $T1[ebp]
	mov	edx, DWORD PTR [eax]
	mov	ecx, DWORD PTR $T1[ebp]
	mov	eax, DWORD PTR [edx]
	call	eax
	cmp	esi, esp
	call	__RTC_CheckEsp
	mov	DWORD PTR tv681[ebp], eax
	jmp	SHORT $LN62@Process
$LN61@Process:
	mov	DWORD PTR tv681[ebp], 0
$LN62@Process:

; 338  : 			m_pPlayerPed = NULL;

	mov	eax, DWORD PTR _this$[ebp]
	mov	DWORD PTR [eax], 0
$LN1@Process:
$LN59@Process:

; 339  : 		}
; 340  : 	}
; 341  : }

	push	edx
	mov	ecx, ebp
	push	eax
	lea	edx, DWORD PTR $LN67@Process
	call	@_RTC_CheckStackVars@8
	pop	eax
	pop	edx
	pop	edi
	pop	esi
	pop	ebx
	mov	ecx, DWORD PTR __$ArrayPad$[ebp]
	xor	ecx, ebp
	call	@__security_check_cookie@4
	add	esp, 408				; 00000198H
	cmp	ebp, esp
	call	__RTC_CheckEsp
	mov	esp, ebp
	pop	ebp
	ret	4
	npad	1
$LN67@Process:
	DD	3
	DD	$LN66@Process
$LN66@Process:
	DD	-120					; ffffff88H
	DD	64					; 00000040H
	DD	$LN63@Process
	DD	-140					; ffffff74H
	DD	12					; 0000000cH
	DD	$LN64@Process
	DD	-184					; ffffff48H
	DD	12					; 0000000cH
	DD	$LN65@Process
$LN65@Process:
	DB	118					; 00000076H
	DB	101					; 00000065H
	DB	99					; 00000063H
	DB	0
$LN64@Process:
	DB	118					; 00000076H
	DB	101					; 00000065H
	DB	99					; 00000063H
	DB	77					; 0000004dH
	DB	111					; 0000006fH
	DB	118					; 00000076H
	DB	101					; 00000065H
	DB	83					; 00000053H
	DB	112					; 00000070H
	DB	101					; 00000065H
	DB	101					; 00000065H
	DB	100					; 00000064H
	DB	0
$LN63@Process:
	DB	109					; 0000006dH
	DB	97					; 00000061H
	DB	116					; 00000074H
	DB	86					; 00000056H
	DB	101					; 00000065H
	DB	104					; 00000068H
	DB	105					; 00000069H
	DB	99					; 00000063H
	DB	108					; 0000006cH
	DB	101					; 00000065H
	DB	0
?Process@CRemotePlayer@@QAEXE@Z ENDP			; CRemotePlayer::Process
_TEXT	ENDS
; Function compile flags: /Odtp /RTCsu /ZI
; File z:\sampsrc\02xu1\saco\net\remoteplayer.h
;	COMDAT ?GetState@CRemotePlayer@@QAEEXZ
_TEXT	SEGMENT
_this$ = -8						; size = 4
?GetState@CRemotePlayer@@QAEEXZ PROC			; CRemotePlayer::GetState, COMDAT
; _this$ = ecx

; 83   : 	BYTE GetState() { return m_byteState; };

	push	ebp
	mov	ebp, esp
	sub	esp, 204				; 000000ccH
	push	ebx
	push	esi
	push	edi
	push	ecx
	lea	edi, DWORD PTR [ebp-204]
	mov	ecx, 51					; 00000033H
	mov	eax, -858993460				; ccccccccH
	rep stosd
	pop	ecx
	mov	DWORD PTR _this$[ebp], ecx
	mov	eax, DWORD PTR _this$[ebp]
	mov	al, BYTE PTR [eax+315]
	pop	edi
	pop	esi
	pop	ebx
	mov	esp, ebp
	pop	ebp
	ret	0
?GetState@CRemotePlayer@@QAEEXZ ENDP			; CRemotePlayer::GetState
_TEXT	ENDS
; Function compile flags: /Odtp /RTCsu /ZI
; File z:\sampsrc\02xu1\saco\net\remoteplayer.cpp
;	COMDAT ??1CRemotePlayer@@QAE@XZ
_TEXT	SEGMENT
tv79 = -232						; size = 4
$T1 = -224						; size = 4
$T2 = -212						; size = 4
_this$ = -8						; size = 4
??1CRemotePlayer@@QAE@XZ PROC				; CRemotePlayer::~CRemotePlayer, COMDAT
; _this$ = ecx

; 51   : {

	push	ebp
	mov	ebp, esp
	sub	esp, 232				; 000000e8H
	push	ebx
	push	esi
	push	edi
	push	ecx
	lea	edi, DWORD PTR [ebp-232]
	mov	ecx, 58					; 0000003aH
	mov	eax, -858993460				; ccccccccH
	rep stosd
	pop	ecx
	mov	DWORD PTR _this$[ebp], ecx

; 52   : 	if(m_pPlayerPed) {

	mov	eax, DWORD PTR _this$[ebp]
	cmp	DWORD PTR [eax], 0
	je	SHORT $LN2@CRemotePla

; 53   : 		m_pPlayerPed->Destroy();

	mov	eax, DWORD PTR _this$[ebp]
	mov	ecx, DWORD PTR [eax]
	call	?Destroy@CPlayerPed@@QAEXXZ		; CPlayerPed::Destroy

; 54   : 		delete m_pPlayerPed;

	mov	eax, DWORD PTR _this$[ebp]
	mov	ecx, DWORD PTR [eax]
	mov	DWORD PTR $T2[ebp], ecx
	mov	edx, DWORD PTR $T2[ebp]
	mov	DWORD PTR $T1[ebp], edx
	cmp	DWORD PTR $T1[ebp], 0
	je	SHORT $LN4@CRemotePla
	mov	esi, esp
	push	1
	mov	eax, DWORD PTR $T1[ebp]
	mov	edx, DWORD PTR [eax]
	mov	ecx, DWORD PTR $T1[ebp]
	mov	eax, DWORD PTR [edx]
	call	eax
	cmp	esi, esp
	call	__RTC_CheckEsp
	mov	DWORD PTR tv79[ebp], eax
	jmp	SHORT $LN5@CRemotePla
$LN4@CRemotePla:
	mov	DWORD PTR tv79[ebp], 0
$LN5@CRemotePla:

; 55   : 		m_pPlayerPed = NULL;

	mov	eax, DWORD PTR _this$[ebp]
	mov	DWORD PTR [eax], 0
$LN2@CRemotePla:

; 56   : 	}
; 57   : }

	pop	edi
	pop	esi
	pop	ebx
	add	esp, 232				; 000000e8H
	cmp	ebp, esp
	call	__RTC_CheckEsp
	mov	esp, ebp
	pop	ebp
	ret	0
??1CRemotePlayer@@QAE@XZ ENDP				; CRemotePlayer::~CRemotePlayer
_TEXT	ENDS
; Function compile flags: /Odtp /RTCsu /ZI
; File z:\sampsrc\02xu1\saco\net\remoteplayer.cpp
;	COMDAT ??0CRemotePlayer@@QAE@XZ
_TEXT	SEGMENT
_this$ = -8						; size = 4
??0CRemotePlayer@@QAE@XZ PROC				; CRemotePlayer::CRemotePlayer, COMDAT
; _this$ = ecx

; 31   : {

	push	ebp
	mov	ebp, esp
	sub	esp, 204				; 000000ccH
	push	ebx
	push	esi
	push	edi
	push	ecx
	lea	edi, DWORD PTR [ebp-204]
	mov	ecx, 51					; 00000033H
	mov	eax, -858993460				; ccccccccH
	rep stosd
	pop	ecx
	mov	DWORD PTR _this$[ebp], ecx

; 32   : 	m_byteUpdateFromNetwork = UPDATE_TYPE_NONE;

	mov	eax, DWORD PTR _this$[ebp]
	mov	BYTE PTR [eax+5], 0

; 33   : 	m_byteState = PLAYER_STATE_NONE;

	mov	eax, DWORD PTR _this$[ebp]
	mov	BYTE PTR [eax+315], 0

; 34   : 	m_bytePlayerID = INVALID_PLAYER_ID;

	mov	eax, DWORD PTR _this$[ebp]
	mov	BYTE PTR [eax+4], 255			; 000000ffH

; 35   : 	m_pPlayerPed = NULL;

	mov	eax, DWORD PTR _this$[ebp]
	mov	DWORD PTR [eax], 0

; 36   : 	m_byteUpdateFromNetwork = UPDATE_TYPE_NONE;

	mov	eax, DWORD PTR _this$[ebp]
	mov	BYTE PTR [eax+5], 0

; 37   : 	m_VehicleID = 0;

	xor	eax, eax
	mov	ecx, DWORD PTR _this$[ebp]
	mov	WORD PTR [ecx+316], ax

; 38   : 	m_dwWaitForEntryExitAnims = GetTickCount();

	mov	esi, esp
	call	DWORD PTR __imp__GetTickCount@0
	cmp	esi, esp
	call	__RTC_CheckEsp
	mov	ecx, DWORD PTR _this$[ebp]
	mov	DWORD PTR [ecx+348], eax

; 39   : 	ResetAllSyncAttributes();

	mov	ecx, DWORD PTR _this$[ebp]
	call	?ResetAllSyncAttributes@CRemotePlayer@@QAEXXZ ; CRemotePlayer::ResetAllSyncAttributes

; 40   : 	m_byteTeam = NO_TEAM;

	mov	eax, DWORD PTR _this$[ebp]
	mov	BYTE PTR [eax+319], 255			; 000000ffH

; 41   : 	m_bVisible = TRUE;

	mov	eax, DWORD PTR _this$[ebp]
	mov	DWORD PTR [eax+336], 1

; 42   : 	m_bShowNameTag = TRUE;

	mov	eax, DWORD PTR _this$[ebp]
	mov	DWORD PTR [eax+332], 1

; 43   : 	m_byteVirtualWorld = 0;

	mov	eax, DWORD PTR _this$[ebp]
	mov	BYTE PTR [eax+356], 0

; 44   : 	m_dwLastHeadUpdate = GetTickCount();

	mov	esi, esp
	call	DWORD PTR __imp__GetTickCount@0
	cmp	esi, esp
	call	__RTC_CheckEsp
	mov	ecx, DWORD PTR _this$[ebp]
	mov	DWORD PTR [ecx+324], eax

; 45   : 	m_dwStreamUpdate = 0;

	mov	eax, DWORD PTR _this$[ebp]
	mov	DWORD PTR [eax+328], 0

; 46   : }

	mov	eax, DWORD PTR _this$[ebp]
	pop	edi
	pop	esi
	pop	ebx
	add	esp, 204				; 000000ccH
	cmp	ebp, esp
	call	__RTC_CheckEsp
	mov	esp, ebp
	pop	ebp
	ret	0
??0CRemotePlayer@@QAE@XZ ENDP				; CRemotePlayer::CRemotePlayer
_TEXT	ENDS
; Function compile flags: /Odtp /RTCsu /ZI
; File z:\sampsrc\02xu1\saco\net\localplayer.h
;	COMDAT ?IsSpectating@CLocalPlayer@@QAEHXZ
_TEXT	SEGMENT
_this$ = -8						; size = 4
?IsSpectating@CLocalPlayer@@QAEHXZ PROC			; CLocalPlayer::IsSpectating, COMDAT
; _this$ = ecx

; 254  : 	BOOL IsSpectating() { return m_bIsSpectating; };

	push	ebp
	mov	ebp, esp
	sub	esp, 204				; 000000ccH
	push	ebx
	push	esi
	push	edi
	push	ecx
	lea	edi, DWORD PTR [ebp-204]
	mov	ecx, 51					; 00000033H
	mov	eax, -858993460				; ccccccccH
	rep stosd
	pop	ecx
	mov	DWORD PTR _this$[ebp], ecx
	mov	eax, DWORD PTR _this$[ebp]
	mov	eax, DWORD PTR [eax+186]
	pop	edi
	pop	esi
	pop	ebx
	mov	esp, ebp
	pop	ebp
	ret	0
?IsSpectating@CLocalPlayer@@QAEHXZ ENDP			; CLocalPlayer::IsSpectating
_TEXT	ENDS
; Function compile flags: /Odtp /RTCsu /ZI
; File z:\sampsrc\02xu1\saco\game\game.h
;	COMDAT ?FindPlayerPed@CGame@@QAEPAVCPlayerPed@@XZ
_TEXT	SEGMENT
tv74 = -244						; size = 4
$T2 = -236						; size = 4
$T3 = -224						; size = 4
_this$ = -20						; size = 4
__$EHRec$ = -12						; size = 12
?FindPlayerPed@CGame@@QAEPAVCPlayerPed@@XZ PROC		; CGame::FindPlayerPed, COMDAT
; _this$ = ecx

; 142  : 	CPlayerPed  *FindPlayerPed() {

	push	ebp
	mov	ebp, esp
	push	-1
	push	__ehhandler$?FindPlayerPed@CGame@@QAEPAVCPlayerPed@@XZ
	mov	eax, DWORD PTR fs:0
	push	eax
	sub	esp, 232				; 000000e8H
	push	ebx
	push	esi
	push	edi
	push	ecx
	lea	edi, DWORD PTR [ebp-244]
	mov	ecx, 58					; 0000003aH
	mov	eax, -858993460				; ccccccccH
	rep stosd
	pop	ecx
	mov	eax, DWORD PTR ___security_cookie
	xor	eax, ebp
	push	eax
	lea	eax, DWORD PTR __$EHRec$[ebp]
	mov	DWORD PTR fs:0, eax
	mov	DWORD PTR _this$[ebp], ecx

; 143  : 		if(m_pGamePlayer==NULL)	m_pGamePlayer = new CPlayerPed();

	mov	eax, DWORD PTR _this$[ebp]
	cmp	DWORD PTR [eax+4], 0
	jne	SHORT $LN1@FindPlayer
	push	70					; 00000046H
	call	??2@YAPAXI@Z				; operator new
	add	esp, 4
	mov	DWORD PTR $T3[ebp], eax
	mov	DWORD PTR __$EHRec$[ebp+8], 0
	cmp	DWORD PTR $T3[ebp], 0
	je	SHORT $LN4@FindPlayer
	mov	ecx, DWORD PTR $T3[ebp]
	call	??0CPlayerPed@@QAE@XZ			; CPlayerPed::CPlayerPed
	mov	DWORD PTR tv74[ebp], eax
	jmp	SHORT $LN5@FindPlayer
$LN4@FindPlayer:
	mov	DWORD PTR tv74[ebp], 0
$LN5@FindPlayer:
	mov	eax, DWORD PTR tv74[ebp]
	mov	DWORD PTR $T2[ebp], eax
	mov	DWORD PTR __$EHRec$[ebp+8], -1
	mov	ecx, DWORD PTR _this$[ebp]
	mov	edx, DWORD PTR $T2[ebp]
	mov	DWORD PTR [ecx+4], edx
$LN1@FindPlayer:

; 144  : 		return m_pGamePlayer;

	mov	eax, DWORD PTR _this$[ebp]
	mov	eax, DWORD PTR [eax+4]

; 145  : 	};

	mov	ecx, DWORD PTR __$EHRec$[ebp]
	mov	DWORD PTR fs:0, ecx
	pop	ecx
	pop	edi
	pop	esi
	pop	ebx
	add	esp, 244				; 000000f4H
	cmp	ebp, esp
	call	__RTC_CheckEsp
	mov	esp, ebp
	pop	ebp
	ret	0
_TEXT	ENDS
;	COMDAT text$x
text$x	SEGMENT
__unwindfunclet$?FindPlayerPed@CGame@@QAEPAVCPlayerPed@@XZ$0:
	mov	eax, DWORD PTR $T3[ebp]
	push	eax
	call	??3@YAXPAX@Z				; operator delete
	pop	ecx
	ret	0
__ehhandler$?FindPlayerPed@CGame@@QAEPAVCPlayerPed@@XZ:
	mov	edx, DWORD PTR [esp+8]
	lea	eax, DWORD PTR [edx+12]
	mov	ecx, DWORD PTR [edx-248]
	xor	ecx, eax
	call	@__security_check_cookie@4
	mov	eax, OFFSET __ehfuncinfo$?FindPlayerPed@CGame@@QAEPAVCPlayerPed@@XZ
	jmp	___CxxFrameHandler3
text$x	ENDS
?FindPlayerPed@CGame@@QAEPAVCPlayerPed@@XZ ENDP		; CGame::FindPlayerPed
; Function compile flags: /Odtp /RTCsu /ZI
; File z:\sampsrc\02xu1\saco\game\playerped.h
;	COMDAT ?SetCameraExtendedZoom@CPlayerPed@@QAEXM@Z
_TEXT	SEGMENT
_this$ = -8						; size = 4
_fZoom$ = 8						; size = 4
?SetCameraExtendedZoom@CPlayerPed@@QAEXM@Z PROC		; CPlayerPed::SetCameraExtendedZoom, COMDAT
; _this$ = ecx

; 50   : 	void SetCameraExtendedZoom(float fZoom) {

	push	ebp
	mov	ebp, esp
	sub	esp, 204				; 000000ccH
	push	ebx
	push	esi
	push	edi
	push	ecx
	lea	edi, DWORD PTR [ebp-204]
	mov	ecx, 51					; 00000033H
	mov	eax, -858993460				; ccccccccH
	rep stosd
	pop	ecx
	mov	DWORD PTR _this$[ebp], ecx

; 51   : 		GameSetPlayerCameraExtZoom(m_bytePlayerNumber,fZoom);

	push	ecx
	movss	xmm0, DWORD PTR _fZoom$[ebp]
	movss	DWORD PTR [esp], xmm0
	mov	eax, DWORD PTR _this$[ebp]
	movzx	ecx, BYTE PTR [eax+32]
	push	ecx
	call	?GameSetPlayerCameraExtZoom@@YGXEM@Z	; GameSetPlayerCameraExtZoom

; 52   : 	};

	pop	edi
	pop	esi
	pop	ebx
	add	esp, 204				; 000000ccH
	cmp	ebp, esp
	call	__RTC_CheckEsp
	mov	esp, ebp
	pop	ebp
	ret	4
?SetCameraExtendedZoom@CPlayerPed@@QAEXM@Z ENDP		; CPlayerPed::SetCameraExtendedZoom
_TEXT	ENDS
; Function compile flags: /Odtp /RTCsu /ZI
; File z:\sampsrc\02xu1\saco\game\playerped.h
;	COMDAT ?SetCameraMode@CPlayerPed@@QAEXE@Z
_TEXT	SEGMENT
_this$ = -8						; size = 4
_byteCamMode$ = 8					; size = 1
?SetCameraMode@CPlayerPed@@QAEXE@Z PROC			; CPlayerPed::SetCameraMode, COMDAT
; _this$ = ecx

; 42   : 	void SetCameraMode(BYTE byteCamMode) {

	push	ebp
	mov	ebp, esp
	sub	esp, 204				; 000000ccH
	push	ebx
	push	esi
	push	edi
	push	ecx
	lea	edi, DWORD PTR [ebp-204]
	mov	ecx, 51					; 00000033H
	mov	eax, -858993460				; ccccccccH
	rep stosd
	pop	ecx
	mov	DWORD PTR _this$[ebp], ecx

; 43   : 		GameSetPlayerCameraMode(byteCamMode,m_bytePlayerNumber);

	mov	eax, DWORD PTR _this$[ebp]
	movzx	ecx, BYTE PTR [eax+32]
	push	ecx
	movzx	edx, BYTE PTR _byteCamMode$[ebp]
	push	edx
	call	?GameSetPlayerCameraMode@@YGXEE@Z	; GameSetPlayerCameraMode

; 44   : 	};

	pop	edi
	pop	esi
	pop	ebx
	add	esp, 204				; 000000ccH
	cmp	ebp, esp
	call	__RTC_CheckEsp
	mov	esp, ebp
	pop	ebp
	ret	4
?SetCameraMode@CPlayerPed@@QAEXE@Z ENDP			; CPlayerPed::SetCameraMode
_TEXT	ENDS
; Function compile flags: /Odtp /RTCsu /ZI
; File z:\program files (x86)\microsoft visual studio 12.0\vc\include\math.h
;	COMDAT ?sqrt@@YAMM@Z
_TEXT	SEGMENT
__X$ = 8						; size = 4
?sqrt@@YAMM@Z PROC					; sqrt, COMDAT

; 1136 :         {return (sqrtf(_X)); }

	push	ebp
	mov	ebp, esp
	sub	esp, 192				; 000000c0H
	push	ebx
	push	esi
	push	edi
	lea	edi, DWORD PTR [ebp-192]
	mov	ecx, 48					; 00000030H
	mov	eax, -858993460				; ccccccccH
	rep stosd
	push	ecx
	movss	xmm0, DWORD PTR __X$[ebp]
	movss	DWORD PTR [esp], xmm0
	call	_sqrtf
	add	esp, 4
	pop	edi
	pop	esi
	pop	ebx
	add	esp, 192				; 000000c0H
	cmp	ebp, esp
	call	__RTC_CheckEsp
	mov	esp, ebp
	pop	ebp
	ret	0
?sqrt@@YAMM@Z ENDP					; sqrt
_TEXT	ENDS
; Function compile flags: /Odtp /RTCsu /ZI
; File z:\program files (x86)\microsoft visual studio 12.0\vc\include\math.h
;	COMDAT _sqrtf
_TEXT	SEGMENT
tv71 = -196						; size = 4
__X$ = 8						; size = 4
_sqrtf	PROC						; COMDAT

; 774  : {

	push	ebp
	mov	ebp, esp
	sub	esp, 196				; 000000c4H
	push	ebx
	push	esi
	push	edi
	lea	edi, DWORD PTR [ebp-196]
	mov	ecx, 49					; 00000031H
	mov	eax, -858993460				; ccccccccH
	rep stosd

; 775  :     return (float)sqrt(_X);

	cvtss2sd xmm0, DWORD PTR __X$[ebp]
	sub	esp, 8
	movsd	QWORD PTR [esp], xmm0
	call	_sqrt
	add	esp, 8
	fstp	DWORD PTR tv71[ebp]
	fld	DWORD PTR tv71[ebp]

; 776  : }

	pop	edi
	pop	esi
	pop	ebx
	add	esp, 196				; 000000c4H
	cmp	ebp, esp
	call	__RTC_CheckEsp
	mov	esp, ebp
	pop	ebp
	ret	0
_sqrtf	ENDP
_TEXT	ENDS
END
