; Listing generated by Microsoft (R) Optimizing Compiler Version 18.00.31101.0 

	TITLE	Z:\sampsrc\02Xu1\raknet\ReplicaManager.cpp
	.686P
	.XMM
	include listing.inc
	.model	flat

INCLUDELIB LIBCMTD
INCLUDELIB OLDNAMES

CONST	SEGMENT
_UNASSIGNED_PLAYER_ID DD 0ffffffffH
	DW	0ffffH
	ORG $+2
_UNASSIGNED_NETWORK_ID DD 0ffffffffH
	DW	0ffffH
	DW	0ffffH
CONST	ENDS
PUBLIC	??4PlayerID@@QAEAAU0@ABU0@@Z			; PlayerID::operator=
PUBLIC	??0PluginInterface@@QAE@XZ			; PluginInterface::PluginInterface
PUBLIC	??0ReplicaManager@@QAE@XZ			; ReplicaManager::ReplicaManager
PUBLIC	??1ReplicaManager@@QAE@XZ			; ReplicaManager::~ReplicaManager
PUBLIC	?SetAutoParticipateNewConnections@ReplicaManager@@QAEX_N@Z ; ReplicaManager::SetAutoParticipateNewConnections
PUBLIC	?AddParticipant@ReplicaManager@@QAEXUPlayerID@@@Z ; ReplicaManager::AddParticipant
PUBLIC	?RemoveParticipant@ReplicaManager@@QAEXUPlayerID@@@Z ; ReplicaManager::RemoveParticipant
PUBLIC	?Construct@ReplicaManager@@QAEXPAVReplica@@_NUPlayerID@@1@Z ; ReplicaManager::Construct
PUBLIC	?Destruct@ReplicaManager@@QAEXPAVReplica@@UPlayerID@@_N@Z ; ReplicaManager::Destruct
PUBLIC	?ReferencePointer@ReplicaManager@@QAEXPAVReplica@@@Z ; ReplicaManager::ReferencePointer
PUBLIC	?DereferencePointer@ReplicaManager@@QAEXPAVReplica@@@Z ; ReplicaManager::DereferencePointer
PUBLIC	?SetScope@ReplicaManager@@QAEXPAVReplica@@_NUPlayerID@@1@Z ; ReplicaManager::SetScope
PUBLIC	?SignalSerializeNeeded@ReplicaManager@@QAEXPAVReplica@@UPlayerID@@_N@Z ; ReplicaManager::SignalSerializeNeeded
PUBLIC	?SetReceiveConstructionCB@ReplicaManager@@QAEXP6A?AW4ReplicaReturnResult@@PAVBitStream@RakNet@@IUNetworkID@@UPlayerID@@PAV1@@Z@Z ; ReplicaManager::SetReceiveConstructionCB
PUBLIC	?SetDownloadCompleteCB@ReplicaManager@@QAEXP6A?AW4ReplicaReturnResult@@PAVBitStream@RakNet@@IUPlayerID@@PAV1@@ZP6A?AW42@012@Z@Z ; ReplicaManager::SetDownloadCompleteCB
PUBLIC	?SetSendChannel@ReplicaManager@@QAEXE@Z		; ReplicaManager::SetSendChannel
PUBLIC	?SetAutoConstructToNewParticipants@ReplicaManager@@QAEX_N@Z ; ReplicaManager::SetAutoConstructToNewParticipants
PUBLIC	?SetDefaultScope@ReplicaManager@@QAEX_N@Z	; ReplicaManager::SetDefaultScope
PUBLIC	?EnableReplicaInterfaces@ReplicaManager@@QAEXPAVReplica@@E@Z ; ReplicaManager::EnableReplicaInterfaces
PUBLIC	?DisableReplicaInterfaces@ReplicaManager@@QAEXPAVReplica@@E@Z ; ReplicaManager::DisableReplicaInterfaces
PUBLIC	?IsConstructed@ReplicaManager@@QAE_NPAVReplica@@UPlayerID@@@Z ; ReplicaManager::IsConstructed
PUBLIC	?IsInScope@ReplicaManager@@QAE_NPAVReplica@@UPlayerID@@@Z ; ReplicaManager::IsInScope
PUBLIC	?GetReplicaCount@ReplicaManager@@QBEIXZ		; ReplicaManager::GetReplicaCount
PUBLIC	?GetReplicaAtIndex@ReplicaManager@@QAEPAVReplica@@I@Z ; ReplicaManager::GetReplicaAtIndex
PUBLIC	?RegisteredReplicaComp@ReplicaManager@@SAHABQAVReplica@@ABURegisteredReplica@1@@Z ; ReplicaManager::RegisteredReplicaComp
PUBLIC	?RemoteObjectComp@ReplicaManager@@SAHABQAVReplica@@ABURemoteObject@1@@Z ; ReplicaManager::RemoteObjectComp
PUBLIC	?CommandStructComp@ReplicaManager@@SAHABQAVReplica@@ABUCommandStruct@1@@Z ; ReplicaManager::CommandStructComp
PUBLIC	??1ParticipantStruct@ReplicaManager@@QAE@XZ	; ReplicaManager::ParticipantStruct::~ParticipantStruct
PUBLIC	??0?$OrderedList@PAVReplica@@UCommandStruct@ReplicaManager@@$1?CommandStructComp@3@SAHABQAV1@ABU23@@Z@DataStructures@@QAE@XZ ; DataStructures::OrderedList<Replica *,ReplicaManager::CommandStruct,&ReplicaManager::CommandStructComp>::OrderedList<Replica *,ReplicaManager::CommandStruct,&ReplicaManager::CommandStructComp>
PUBLIC	??1?$OrderedList@PAVReplica@@UCommandStruct@ReplicaManager@@$1?CommandStructComp@3@SAHABQAV1@ABU23@@Z@DataStructures@@QAE@XZ ; DataStructures::OrderedList<Replica *,ReplicaManager::CommandStruct,&ReplicaManager::CommandStructComp>::~OrderedList<Replica *,ReplicaManager::CommandStruct,&ReplicaManager::CommandStructComp>
PUBLIC	?HasData@?$OrderedList@PAVReplica@@UCommandStruct@ReplicaManager@@$1?CommandStructComp@3@SAHABQAV1@ABU23@@Z@DataStructures@@QBE_NABQAVReplica@@@Z ; DataStructures::OrderedList<Replica *,ReplicaManager::CommandStruct,&ReplicaManager::CommandStructComp>::HasData
PUBLIC	?GetIndexFromKey@?$OrderedList@PAVReplica@@UCommandStruct@ReplicaManager@@$1?CommandStructComp@3@SAHABQAV1@ABU23@@Z@DataStructures@@QBEIABQAVReplica@@PA_N@Z ; DataStructures::OrderedList<Replica *,ReplicaManager::CommandStruct,&ReplicaManager::CommandStructComp>::GetIndexFromKey
PUBLIC	?Insert@?$OrderedList@PAVReplica@@UCommandStruct@ReplicaManager@@$1?CommandStructComp@3@SAHABQAV1@ABU23@@Z@DataStructures@@QAEIABQAVReplica@@ABUCommandStruct@ReplicaManager@@@Z ; DataStructures::OrderedList<Replica *,ReplicaManager::CommandStruct,&ReplicaManager::CommandStructComp>::Insert
PUBLIC	??A?$OrderedList@PAVReplica@@UCommandStruct@ReplicaManager@@$1?CommandStructComp@3@SAHABQAV1@ABU23@@Z@DataStructures@@QBEAAUCommandStruct@ReplicaManager@@I@Z ; DataStructures::OrderedList<Replica *,ReplicaManager::CommandStruct,&ReplicaManager::CommandStructComp>::operator[]
PUBLIC	?RemoveAtIndex@?$OrderedList@PAVReplica@@UCommandStruct@ReplicaManager@@$1?CommandStructComp@3@SAHABQAV1@ABU23@@Z@DataStructures@@QAEXI@Z ; DataStructures::OrderedList<Replica *,ReplicaManager::CommandStruct,&ReplicaManager::CommandStructComp>::RemoveAtIndex
PUBLIC	?Clear@?$OrderedList@PAVReplica@@UCommandStruct@ReplicaManager@@$1?CommandStructComp@3@SAHABQAV1@ABU23@@Z@DataStructures@@QAEXXZ ; DataStructures::OrderedList<Replica *,ReplicaManager::CommandStruct,&ReplicaManager::CommandStructComp>::Clear
PUBLIC	?Size@?$OrderedList@PAVReplica@@UCommandStruct@ReplicaManager@@$1?CommandStructComp@3@SAHABQAV1@ABU23@@Z@DataStructures@@QBEIXZ ; DataStructures::OrderedList<Replica *,ReplicaManager::CommandStruct,&ReplicaManager::CommandStructComp>::Size
PUBLIC	??0?$List@UCommandStruct@ReplicaManager@@@DataStructures@@QAE@XZ ; DataStructures::List<ReplicaManager::CommandStruct>::List<ReplicaManager::CommandStruct>
PUBLIC	??1?$List@UCommandStruct@ReplicaManager@@@DataStructures@@QAE@XZ ; DataStructures::List<ReplicaManager::CommandStruct>::~List<ReplicaManager::CommandStruct>
PUBLIC	??A?$List@UCommandStruct@ReplicaManager@@@DataStructures@@QBEAAUCommandStruct@ReplicaManager@@I@Z ; DataStructures::List<ReplicaManager::CommandStruct>::operator[]
PUBLIC	?Insert@?$List@UCommandStruct@ReplicaManager@@@DataStructures@@QAEXUCommandStruct@ReplicaManager@@I@Z ; DataStructures::List<ReplicaManager::CommandStruct>::Insert
PUBLIC	?Insert@?$List@UCommandStruct@ReplicaManager@@@DataStructures@@QAEXUCommandStruct@ReplicaManager@@@Z ; DataStructures::List<ReplicaManager::CommandStruct>::Insert
PUBLIC	?RemoveAtIndex@?$List@UCommandStruct@ReplicaManager@@@DataStructures@@QAEXI@Z ; DataStructures::List<ReplicaManager::CommandStruct>::RemoveAtIndex
PUBLIC	?Del@?$List@UCommandStruct@ReplicaManager@@@DataStructures@@QAEXI@Z ; DataStructures::List<ReplicaManager::CommandStruct>::Del
PUBLIC	?Size@?$List@UCommandStruct@ReplicaManager@@@DataStructures@@QBEIXZ ; DataStructures::List<ReplicaManager::CommandStruct>::Size
PUBLIC	?Clear@?$List@UCommandStruct@ReplicaManager@@@DataStructures@@QAEX_N@Z ; DataStructures::List<ReplicaManager::CommandStruct>::Clear
PUBLIC	??0?$OrderedList@PAVReplica@@URemoteObject@ReplicaManager@@$1?RemoteObjectComp@3@SAHABQAV1@ABU23@@Z@DataStructures@@QAE@XZ ; DataStructures::OrderedList<Replica *,ReplicaManager::RemoteObject,&ReplicaManager::RemoteObjectComp>::OrderedList<Replica *,ReplicaManager::RemoteObject,&ReplicaManager::RemoteObjectComp>
PUBLIC	??1?$OrderedList@PAVReplica@@URemoteObject@ReplicaManager@@$1?RemoteObjectComp@3@SAHABQAV1@ABU23@@Z@DataStructures@@QAE@XZ ; DataStructures::OrderedList<Replica *,ReplicaManager::RemoteObject,&ReplicaManager::RemoteObjectComp>::~OrderedList<Replica *,ReplicaManager::RemoteObject,&ReplicaManager::RemoteObjectComp>
PUBLIC	?HasData@?$OrderedList@PAVReplica@@URemoteObject@ReplicaManager@@$1?RemoteObjectComp@3@SAHABQAV1@ABU23@@Z@DataStructures@@QBE_NABQAVReplica@@@Z ; DataStructures::OrderedList<Replica *,ReplicaManager::RemoteObject,&ReplicaManager::RemoteObjectComp>::HasData
PUBLIC	?GetIndexFromKey@?$OrderedList@PAVReplica@@URemoteObject@ReplicaManager@@$1?RemoteObjectComp@3@SAHABQAV1@ABU23@@Z@DataStructures@@QBEIABQAVReplica@@PA_N@Z ; DataStructures::OrderedList<Replica *,ReplicaManager::RemoteObject,&ReplicaManager::RemoteObjectComp>::GetIndexFromKey
PUBLIC	?Insert@?$OrderedList@PAVReplica@@URemoteObject@ReplicaManager@@$1?RemoteObjectComp@3@SAHABQAV1@ABU23@@Z@DataStructures@@QAEIABQAVReplica@@ABURemoteObject@ReplicaManager@@@Z ; DataStructures::OrderedList<Replica *,ReplicaManager::RemoteObject,&ReplicaManager::RemoteObjectComp>::Insert
PUBLIC	??A?$OrderedList@PAVReplica@@URemoteObject@ReplicaManager@@$1?RemoteObjectComp@3@SAHABQAV1@ABU23@@Z@DataStructures@@QBEAAURemoteObject@ReplicaManager@@I@Z ; DataStructures::OrderedList<Replica *,ReplicaManager::RemoteObject,&ReplicaManager::RemoteObjectComp>::operator[]
PUBLIC	?RemoveAtIndex@?$OrderedList@PAVReplica@@URemoteObject@ReplicaManager@@$1?RemoteObjectComp@3@SAHABQAV1@ABU23@@Z@DataStructures@@QAEXI@Z ; DataStructures::OrderedList<Replica *,ReplicaManager::RemoteObject,&ReplicaManager::RemoteObjectComp>::RemoveAtIndex
PUBLIC	?Clear@?$OrderedList@PAVReplica@@URemoteObject@ReplicaManager@@$1?RemoteObjectComp@3@SAHABQAV1@ABU23@@Z@DataStructures@@QAEXXZ ; DataStructures::OrderedList<Replica *,ReplicaManager::RemoteObject,&ReplicaManager::RemoteObjectComp>::Clear
PUBLIC	??0?$List@URemoteObject@ReplicaManager@@@DataStructures@@QAE@XZ ; DataStructures::List<ReplicaManager::RemoteObject>::List<ReplicaManager::RemoteObject>
PUBLIC	??1?$List@URemoteObject@ReplicaManager@@@DataStructures@@QAE@XZ ; DataStructures::List<ReplicaManager::RemoteObject>::~List<ReplicaManager::RemoteObject>
PUBLIC	??A?$List@URemoteObject@ReplicaManager@@@DataStructures@@QBEAAURemoteObject@ReplicaManager@@I@Z ; DataStructures::List<ReplicaManager::RemoteObject>::operator[]
PUBLIC	?Insert@?$List@URemoteObject@ReplicaManager@@@DataStructures@@QAEXURemoteObject@ReplicaManager@@I@Z ; DataStructures::List<ReplicaManager::RemoteObject>::Insert
PUBLIC	?Insert@?$List@URemoteObject@ReplicaManager@@@DataStructures@@QAEXURemoteObject@ReplicaManager@@@Z ; DataStructures::List<ReplicaManager::RemoteObject>::Insert
PUBLIC	?RemoveAtIndex@?$List@URemoteObject@ReplicaManager@@@DataStructures@@QAEXI@Z ; DataStructures::List<ReplicaManager::RemoteObject>::RemoveAtIndex
PUBLIC	?Del@?$List@URemoteObject@ReplicaManager@@@DataStructures@@QAEXI@Z ; DataStructures::List<ReplicaManager::RemoteObject>::Del
PUBLIC	?Size@?$List@URemoteObject@ReplicaManager@@@DataStructures@@QBEIXZ ; DataStructures::List<ReplicaManager::RemoteObject>::Size
PUBLIC	?Clear@?$List@URemoteObject@ReplicaManager@@@DataStructures@@QAEX_N@Z ; DataStructures::List<ReplicaManager::RemoteObject>::Clear
PUBLIC	??0?$Queue@PAUReceivedCommand@ReplicaManager@@@DataStructures@@QAE@XZ ; DataStructures::Queue<ReplicaManager::ReceivedCommand *>::Queue<ReplicaManager::ReceivedCommand *>
PUBLIC	??1?$Queue@PAUReceivedCommand@ReplicaManager@@@DataStructures@@QAE@XZ ; DataStructures::Queue<ReplicaManager::ReceivedCommand *>::~Queue<ReplicaManager::ReceivedCommand *>
PUBLIC	?Push@?$Queue@PAUReceivedCommand@ReplicaManager@@@DataStructures@@QAEXABQAUReceivedCommand@ReplicaManager@@@Z ; DataStructures::Queue<ReplicaManager::ReceivedCommand *>::Push
PUBLIC	?PushAtHead@?$Queue@PAUReceivedCommand@ReplicaManager@@@DataStructures@@QAEXABQAUReceivedCommand@ReplicaManager@@I@Z ; DataStructures::Queue<ReplicaManager::ReceivedCommand *>::PushAtHead
PUBLIC	?Pop@?$Queue@PAUReceivedCommand@ReplicaManager@@@DataStructures@@QAEPAUReceivedCommand@ReplicaManager@@XZ ; DataStructures::Queue<ReplicaManager::ReceivedCommand *>::Pop
PUBLIC	?Size@?$Queue@PAUReceivedCommand@ReplicaManager@@@DataStructures@@QBEIXZ ; DataStructures::Queue<ReplicaManager::ReceivedCommand *>::Size
PUBLIC	??0ParticipantStruct@ReplicaManager@@QAE@XZ	; ReplicaManager::ParticipantStruct::ParticipantStruct
PUBLIC	??_GParticipantStruct@ReplicaManager@@QAEPAXI@Z	; ReplicaManager::ParticipantStruct::`scalar deleting destructor'
PUBLIC	?ParticipantStructComp@ReplicaManager@@SAHABUPlayerID@@ABQAUParticipantStruct@1@@Z ; ReplicaManager::ParticipantStructComp
PUBLIC	?Clear@ReplicaManager@@IAEXXZ			; ReplicaManager::Clear
PUBLIC	?ProcessReceivedCommand@ReplicaManager@@IAE?AW4ReplicaReturnResult@@PAUParticipantStruct@1@PAUReceivedCommand@1@@Z ; ReplicaManager::ProcessReceivedCommand
PUBLIC	?Update@ReplicaManager@@MAEXPAVRakPeerInterface@@@Z ; ReplicaManager::Update
PUBLIC	?OnAttach@ReplicaManager@@MAEXPAVRakPeerInterface@@@Z ; ReplicaManager::OnAttach
PUBLIC	?OnReceive@ReplicaManager@@MAE?AW4PluginReceiveResult@@PAVRakPeerInterface@@PAUPacket@@@Z ; ReplicaManager::OnReceive
PUBLIC	?OnCloseConnection@ReplicaManager@@MAEXPAVRakPeerInterface@@UPlayerID@@@Z ; ReplicaManager::OnCloseConnection
PUBLIC	?OnDisconnect@ReplicaManager@@MAEXPAVRakPeerInterface@@@Z ; ReplicaManager::OnDisconnect
PUBLIC	??0?$OrderedList@PAVReplica@@URegisteredReplica@ReplicaManager@@$1?RegisteredReplicaComp@3@SAHABQAV1@ABU23@@Z@DataStructures@@QAE@XZ ; DataStructures::OrderedList<Replica *,ReplicaManager::RegisteredReplica,&ReplicaManager::RegisteredReplicaComp>::OrderedList<Replica *,ReplicaManager::RegisteredReplica,&ReplicaManager::RegisteredReplicaComp>
PUBLIC	??1?$OrderedList@PAVReplica@@URegisteredReplica@ReplicaManager@@$1?RegisteredReplicaComp@3@SAHABQAV1@ABU23@@Z@DataStructures@@QAE@XZ ; DataStructures::OrderedList<Replica *,ReplicaManager::RegisteredReplica,&ReplicaManager::RegisteredReplicaComp>::~OrderedList<Replica *,ReplicaManager::RegisteredReplica,&ReplicaManager::RegisteredReplicaComp>
PUBLIC	?HasData@?$OrderedList@PAVReplica@@URegisteredReplica@ReplicaManager@@$1?RegisteredReplicaComp@3@SAHABQAV1@ABU23@@Z@DataStructures@@QBE_NABQAVReplica@@@Z ; DataStructures::OrderedList<Replica *,ReplicaManager::RegisteredReplica,&ReplicaManager::RegisteredReplicaComp>::HasData
PUBLIC	?GetIndexFromKey@?$OrderedList@PAVReplica@@URegisteredReplica@ReplicaManager@@$1?RegisteredReplicaComp@3@SAHABQAV1@ABU23@@Z@DataStructures@@QBEIABQAVReplica@@PA_N@Z ; DataStructures::OrderedList<Replica *,ReplicaManager::RegisteredReplica,&ReplicaManager::RegisteredReplicaComp>::GetIndexFromKey
PUBLIC	?Insert@?$OrderedList@PAVReplica@@URegisteredReplica@ReplicaManager@@$1?RegisteredReplicaComp@3@SAHABQAV1@ABU23@@Z@DataStructures@@QAEIABQAVReplica@@ABURegisteredReplica@ReplicaManager@@@Z ; DataStructures::OrderedList<Replica *,ReplicaManager::RegisteredReplica,&ReplicaManager::RegisteredReplicaComp>::Insert
PUBLIC	??A?$OrderedList@PAVReplica@@URegisteredReplica@ReplicaManager@@$1?RegisteredReplicaComp@3@SAHABQAV1@ABU23@@Z@DataStructures@@QBEAAURegisteredReplica@ReplicaManager@@I@Z ; DataStructures::OrderedList<Replica *,ReplicaManager::RegisteredReplica,&ReplicaManager::RegisteredReplicaComp>::operator[]
PUBLIC	?RemoveAtIndex@?$OrderedList@PAVReplica@@URegisteredReplica@ReplicaManager@@$1?RegisteredReplicaComp@3@SAHABQAV1@ABU23@@Z@DataStructures@@QAEXI@Z ; DataStructures::OrderedList<Replica *,ReplicaManager::RegisteredReplica,&ReplicaManager::RegisteredReplicaComp>::RemoveAtIndex
PUBLIC	?Clear@?$OrderedList@PAVReplica@@URegisteredReplica@ReplicaManager@@$1?RegisteredReplicaComp@3@SAHABQAV1@ABU23@@Z@DataStructures@@QAEXXZ ; DataStructures::OrderedList<Replica *,ReplicaManager::RegisteredReplica,&ReplicaManager::RegisteredReplicaComp>::Clear
PUBLIC	?Size@?$OrderedList@PAVReplica@@URegisteredReplica@ReplicaManager@@$1?RegisteredReplicaComp@3@SAHABQAV1@ABU23@@Z@DataStructures@@QBEIXZ ; DataStructures::OrderedList<Replica *,ReplicaManager::RegisteredReplica,&ReplicaManager::RegisteredReplicaComp>::Size
PUBLIC	??0?$List@URegisteredReplica@ReplicaManager@@@DataStructures@@QAE@XZ ; DataStructures::List<ReplicaManager::RegisteredReplica>::List<ReplicaManager::RegisteredReplica>
PUBLIC	??1?$List@URegisteredReplica@ReplicaManager@@@DataStructures@@QAE@XZ ; DataStructures::List<ReplicaManager::RegisteredReplica>::~List<ReplicaManager::RegisteredReplica>
PUBLIC	??A?$List@URegisteredReplica@ReplicaManager@@@DataStructures@@QBEAAURegisteredReplica@ReplicaManager@@I@Z ; DataStructures::List<ReplicaManager::RegisteredReplica>::operator[]
PUBLIC	?Insert@?$List@URegisteredReplica@ReplicaManager@@@DataStructures@@QAEXURegisteredReplica@ReplicaManager@@I@Z ; DataStructures::List<ReplicaManager::RegisteredReplica>::Insert
PUBLIC	?Insert@?$List@URegisteredReplica@ReplicaManager@@@DataStructures@@QAEXURegisteredReplica@ReplicaManager@@@Z ; DataStructures::List<ReplicaManager::RegisteredReplica>::Insert
PUBLIC	?RemoveAtIndex@?$List@URegisteredReplica@ReplicaManager@@@DataStructures@@QAEXI@Z ; DataStructures::List<ReplicaManager::RegisteredReplica>::RemoveAtIndex
PUBLIC	?Del@?$List@URegisteredReplica@ReplicaManager@@@DataStructures@@QAEXI@Z ; DataStructures::List<ReplicaManager::RegisteredReplica>::Del
PUBLIC	?Size@?$List@URegisteredReplica@ReplicaManager@@@DataStructures@@QBEIXZ ; DataStructures::List<ReplicaManager::RegisteredReplica>::Size
PUBLIC	?Clear@?$List@URegisteredReplica@ReplicaManager@@@DataStructures@@QAEX_N@Z ; DataStructures::List<ReplicaManager::RegisteredReplica>::Clear
PUBLIC	??0?$OrderedList@UPlayerID@@PAUParticipantStruct@ReplicaManager@@$1?ParticipantStructComp@3@SAHABU1@ABQAU23@@Z@DataStructures@@QAE@XZ ; DataStructures::OrderedList<PlayerID,ReplicaManager::ParticipantStruct *,&ReplicaManager::ParticipantStructComp>::OrderedList<PlayerID,ReplicaManager::ParticipantStruct *,&ReplicaManager::ParticipantStructComp>
PUBLIC	??1?$OrderedList@UPlayerID@@PAUParticipantStruct@ReplicaManager@@$1?ParticipantStructComp@3@SAHABU1@ABQAU23@@Z@DataStructures@@QAE@XZ ; DataStructures::OrderedList<PlayerID,ReplicaManager::ParticipantStruct *,&ReplicaManager::ParticipantStructComp>::~OrderedList<PlayerID,ReplicaManager::ParticipantStruct *,&ReplicaManager::ParticipantStructComp>
PUBLIC	?GetIndexFromKey@?$OrderedList@UPlayerID@@PAUParticipantStruct@ReplicaManager@@$1?ParticipantStructComp@3@SAHABU1@ABQAU23@@Z@DataStructures@@QBEIABUPlayerID@@PA_N@Z ; DataStructures::OrderedList<PlayerID,ReplicaManager::ParticipantStruct *,&ReplicaManager::ParticipantStructComp>::GetIndexFromKey
PUBLIC	?Insert@?$OrderedList@UPlayerID@@PAUParticipantStruct@ReplicaManager@@$1?ParticipantStructComp@3@SAHABU1@ABQAU23@@Z@DataStructures@@QAEIABUPlayerID@@ABQAUParticipantStruct@ReplicaManager@@@Z ; DataStructures::OrderedList<PlayerID,ReplicaManager::ParticipantStruct *,&ReplicaManager::ParticipantStructComp>::Insert
PUBLIC	?Remove@?$OrderedList@UPlayerID@@PAUParticipantStruct@ReplicaManager@@$1?ParticipantStructComp@3@SAHABU1@ABQAU23@@Z@DataStructures@@QAEIABUPlayerID@@@Z ; DataStructures::OrderedList<PlayerID,ReplicaManager::ParticipantStruct *,&ReplicaManager::ParticipantStructComp>::Remove
PUBLIC	??A?$OrderedList@UPlayerID@@PAUParticipantStruct@ReplicaManager@@$1?ParticipantStructComp@3@SAHABU1@ABQAU23@@Z@DataStructures@@QBEAAPAUParticipantStruct@ReplicaManager@@I@Z ; DataStructures::OrderedList<PlayerID,ReplicaManager::ParticipantStruct *,&ReplicaManager::ParticipantStructComp>::operator[]
PUBLIC	?Clear@?$OrderedList@UPlayerID@@PAUParticipantStruct@ReplicaManager@@$1?ParticipantStructComp@3@SAHABU1@ABQAU23@@Z@DataStructures@@QAEXXZ ; DataStructures::OrderedList<PlayerID,ReplicaManager::ParticipantStruct *,&ReplicaManager::ParticipantStructComp>::Clear
PUBLIC	?Size@?$OrderedList@UPlayerID@@PAUParticipantStruct@ReplicaManager@@$1?ParticipantStructComp@3@SAHABU1@ABQAU23@@Z@DataStructures@@QBEIXZ ; DataStructures::OrderedList<PlayerID,ReplicaManager::ParticipantStruct *,&ReplicaManager::ParticipantStructComp>::Size
PUBLIC	??0?$List@PAUParticipantStruct@ReplicaManager@@@DataStructures@@QAE@XZ ; DataStructures::List<ReplicaManager::ParticipantStruct *>::List<ReplicaManager::ParticipantStruct *>
PUBLIC	??1?$List@PAUParticipantStruct@ReplicaManager@@@DataStructures@@QAE@XZ ; DataStructures::List<ReplicaManager::ParticipantStruct *>::~List<ReplicaManager::ParticipantStruct *>
PUBLIC	??A?$List@PAUParticipantStruct@ReplicaManager@@@DataStructures@@QBEAAPAUParticipantStruct@ReplicaManager@@I@Z ; DataStructures::List<ReplicaManager::ParticipantStruct *>::operator[]
PUBLIC	?Insert@?$List@PAUParticipantStruct@ReplicaManager@@@DataStructures@@QAEXQAUParticipantStruct@ReplicaManager@@I@Z ; DataStructures::List<ReplicaManager::ParticipantStruct *>::Insert
PUBLIC	?Insert@?$List@PAUParticipantStruct@ReplicaManager@@@DataStructures@@QAEXQAUParticipantStruct@ReplicaManager@@@Z ; DataStructures::List<ReplicaManager::ParticipantStruct *>::Insert
PUBLIC	?RemoveAtIndex@?$List@PAUParticipantStruct@ReplicaManager@@@DataStructures@@QAEXI@Z ; DataStructures::List<ReplicaManager::ParticipantStruct *>::RemoveAtIndex
PUBLIC	?Del@?$List@PAUParticipantStruct@ReplicaManager@@@DataStructures@@QAEXI@Z ; DataStructures::List<ReplicaManager::ParticipantStruct *>::Del
PUBLIC	?Size@?$List@PAUParticipantStruct@ReplicaManager@@@DataStructures@@QBEIXZ ; DataStructures::List<ReplicaManager::ParticipantStruct *>::Size
PUBLIC	?Clear@?$List@PAUParticipantStruct@ReplicaManager@@@DataStructures@@QAEX_N@Z ; DataStructures::List<ReplicaManager::ParticipantStruct *>::Clear
PUBLIC	?GetParticipantByPlayerID@ReplicaManager@@IBEPAUParticipantStruct@1@UPlayerID@@@Z ; ReplicaManager::GetParticipantByPlayerID
PUBLIC	?GetNumberOfBitsUsed@BitStream@RakNet@@QBEHXZ	; RakNet::BitStream::GetNumberOfBitsUsed
PUBLIC	?GetWriteOffset@BitStream@RakNet@@QBEHXZ	; RakNet::BitStream::GetWriteOffset
PUBLIC	??_GBitStream@RakNet@@QAEPAXI@Z			; RakNet::BitStream::`scalar deleting destructor'
PUBLIC	??$Write@_N@BitStream@RakNet@@QAEX_N@Z		; RakNet::BitStream::Write<bool>
PUBLIC	??$Write@UPlayerID@@@BitStream@RakNet@@QAEXUPlayerID@@@Z ; RakNet::BitStream::Write<PlayerID>
PUBLIC	??$Write@I@BitStream@RakNet@@QAEXI@Z		; RakNet::BitStream::Write<unsigned int>
PUBLIC	??$Write@G@BitStream@RakNet@@QAEXG@Z		; RakNet::BitStream::Write<unsigned short>
PUBLIC	??$Write@UNetworkID@@@BitStream@RakNet@@QAEXUNetworkID@@@Z ; RakNet::BitStream::Write<NetworkID>
PUBLIC	??$Read@_N@BitStream@RakNet@@QAE_NAA_N@Z	; RakNet::BitStream::Read<bool>
PUBLIC	??$Read@UPlayerID@@@BitStream@RakNet@@QAE_NAAUPlayerID@@@Z ; RakNet::BitStream::Read<PlayerID>
PUBLIC	??$Read@I@BitStream@RakNet@@QAE_NAAI@Z		; RakNet::BitStream::Read<unsigned int>
PUBLIC	??$Read@G@BitStream@RakNet@@QAE_NAAG@Z		; RakNet::BitStream::Read<unsigned short>
PUBLIC	??$Read@UNetworkID@@@BitStream@RakNet@@QAE_NAAUNetworkID@@@Z ; RakNet::BitStream::Read<NetworkID>
PUBLIC	??$Write@E@BitStream@RakNet@@QAEXE@Z		; RakNet::BitStream::Write<unsigned char>
PUBLIC	??_7PluginInterface@@6B@			; PluginInterface::`vftable'
PUBLIC	??_7ReplicaManager@@6B@				; ReplicaManager::`vftable'
PUBLIC	?__LINE__Var@?1??AddParticipant@ReplicaManager@@QAEXUPlayerID@@@Z@4JA ; `ReplicaManager::AddParticipant'::`2'::__LINE__Var
PUBLIC	??_C@_1FG@CAHGPPEA@?$AAz?$AA?3?$AA?2?$AAs?$AAa?$AAm?$AAp?$AAs?$AAr?$AAc?$AA?2?$AA0?$AA2?$AAx?$AAu?$AA1?$AA?2?$AAr?$AAa?$AAk?$AAn?$AAe?$AAt?$AA?2?$AAr?$AAe?$AAp?$AAl?$AAi?$AAc?$AAa?$AAm@ ; `string'
PUBLIC	??_C@_1DO@FONFJDEJ@?$AAp?$AAl?$AAa?$AAy?$AAe?$AAr?$AAI?$AAd?$AA?$CB?$AA?$DN?$AAU?$AAN?$AAA?$AAS?$AAS?$AAI?$AAG?$AAN?$AAE?$AAD?$AA_?$AAP?$AAL?$AAA?$AAY?$AAE?$AAR?$AA_?$AAI?$AAD?$AA?$AA@ ; `string'
PUBLIC	?__LINE__Var@?1??RemoveParticipant@ReplicaManager@@QAEXUPlayerID@@@Z@4JA ; `ReplicaManager::RemoveParticipant'::`2'::__LINE__Var
PUBLIC	?__LINE__Var@?1??Construct@ReplicaManager@@QAEXPAVReplica@@_NUPlayerID@@1@Z@4JA ; `ReplicaManager::Construct'::`2'::__LINE__Var
PUBLIC	??_C@_1BA@GODDPAJM@?$AAr?$AAe?$AAp?$AAl?$AAi?$AAc?$AAa?$AA?$AA@ ; `string'
PUBLIC	??_C@_1BM@DOEBGNAM@?$AAi?$AAs?$AAC?$AAo?$AAp?$AAy?$AA?$DN?$AA?$DN?$AAf?$AAa?$AAl?$AAs?$AAe?$AA?$AA@ ; `string'
PUBLIC	?__LINE__Var@?1??Destruct@ReplicaManager@@QAEXPAVReplica@@UPlayerID@@_N@Z@4JA ; `ReplicaManager::Destruct'::`2'::__LINE__Var
PUBLIC	?__LINE__Var@?1??SetScope@ReplicaManager@@QAEXPAVReplica@@_NUPlayerID@@1@Z@4JA ; `ReplicaManager::SetScope'::`2'::__LINE__Var
PUBLIC	?__LINE__Var@?1??SignalSerializeNeeded@ReplicaManager@@QAEXPAVReplica@@UPlayerID@@_N@Z@4JA ; `ReplicaManager::SignalSerializeNeeded'::`2'::__LINE__Var
PUBLIC	?__LINE__Var@?1??Update@ReplicaManager@@MAEXPAVRakPeerInterface@@@Z@4JA ; `ReplicaManager::Update'::`2'::__LINE__Var
PUBLIC	??_C@_1BK@EBNJALNF@?$AAo?$AAb?$AAj?$AAe?$AAc?$AAt?$AAE?$AAx?$AAi?$AAs?$AAt?$AAs?$AA?$AA@ ; `string'
PUBLIC	??_C@_1DI@HDKFLDGG@?$AAr?$AAe?$AAs?$AA?$DN?$AA?$DN?$AAR?$AAE?$AAP?$AAL?$AAI?$AAC?$AAA?$AA_?$AAC?$AAA?$AAN?$AAC?$AAE?$AAL?$AA_?$AAP?$AAR?$AAO?$AAC?$AAE?$AAS?$AAS?$AA?$AA@ ; `string'
PUBLIC	??_C@_1EM@HMDKKPAI@?$AAs?$AAe?$AAn?$AAd?$AAD?$AAL?$AAC?$AAo?$AAm?$AAp?$AAl?$AAe?$AAt?$AAe?$AA?$DN?$AA?$DN?$AAR?$AAE?$AAP?$AAL?$AAI?$AAC?$AAA?$AA_?$AAP?$AAR?$AAO?$AAC?$AAE?$AAS?$AAS?$AA_@ ; `string'
PUBLIC	??_C@_1DG@DECCOGIG@?$AAr?$AAe?$AAs?$AA?$DN?$AA?$DN?$AAR?$AAE?$AAP?$AAL?$AAI?$AAC?$AAA?$AA_?$AAP?$AAR?$AAO?$AAC?$AAE?$AAS?$AAS?$AA_?$AAL?$AAA?$AAT?$AAE?$AAR?$AA?$AA@ ; `string'
PUBLIC	?__LINE__Var@?1??OnReceive@ReplicaManager@@MAE?AW4PluginReceiveResult@@PAVRakPeerInterface@@PAUPacket@@@Z@4JA ; `ReplicaManager::OnReceive'::`2'::__LINE__Var
PUBLIC	??_C@_13COJANIEC@?$AA0?$AA?$AA@			; `string'
PUBLIC	?__LINE__Var@?1??ProcessReceivedCommand@ReplicaManager@@IAE?AW4ReplicaReturnResult@@PAUParticipantStruct@2@PAUReceivedCommand@2@@Z@4JA ; `ReplicaManager::ProcessReceivedCommand'::`2'::__LINE__Var
PUBLIC	??_C@_1CA@HAOFBOHJ@?$AA_?$AAc?$AAo?$AAn?$AAs?$AAt?$AAr?$AAu?$AAc?$AAt?$AAi?$AAo?$AAn?$AAC?$AAB?$AA?$AA@ ; `string'
PUBLIC	??_C@_1EG@DIEEECKO@?$AAz?$AA?3?$AA?2?$AAs?$AAa?$AAm?$AAp?$AAs?$AAr?$AAc?$AA?2?$AA0?$AA2?$AAx?$AAu?$AA1?$AA?2?$AAr?$AAa?$AAk?$AAn?$AAe?$AAt?$AA?2?$AAd?$AAs?$AA_?$AAq?$AAu?$AAe?$AAu?$AAe@ ; `string'
PUBLIC	??_C@_1BE@OMEGJCHO@?$AAn?$AAe?$AAw?$AA_?$AAa?$AAr?$AAr?$AAa?$AAy?$AA?$AA@ ; `string'
PUBLIC	??_C@_1GG@JDEIIJCO@?$AAa?$AAl?$AAl?$AAo?$AAc?$AAa?$AAt?$AAi?$AAo?$AAn?$AA_?$AAs?$AAi?$AAz?$AAe?$AA?5?$AA?$DO?$AA?5?$AA0?$AA?5?$AA?$CG?$AA?$CG?$AA?5?$AAS?$AAi?$AAz?$AAe?$AA?$CI?$AA?$CJ?$AA?5?$AA?$DO?$AA?$DN@ ; `string'
PUBLIC	??_C@_1FC@PKHPOOLI@?$AAz?$AA?3?$AA?2?$AAs?$AAa?$AAm?$AAp?$AAs?$AAr?$AAc?$AA?2?$AA0?$AA2?$AAx?$AAu?$AA1?$AA?2?$AAr?$AAa?$AAk?$AAn?$AAe?$AAt?$AA?2?$AAd?$AAs?$AA_?$AAo?$AAr?$AAd?$AAe?$AAr@ ; `string'
PUBLIC	??_C@_1CG@FNLJFNDG@?$AAo?$AAb?$AAj?$AAe?$AAc?$AAt?$AAE?$AAx?$AAi?$AAs?$AAt?$AAs?$AA?$DN?$AA?$DN?$AAt?$AAr?$AAu?$AAe?$AA?$AA@ ; `string'
PUBLIC	??_C@_1EE@MBOIAKFO@?$AAz?$AA?3?$AA?2?$AAs?$AAa?$AAm?$AAp?$AAs?$AAr?$AAc?$AA?2?$AA0?$AA2?$AAx?$AAu?$AA1?$AA?2?$AAr?$AAa?$AAk?$AAn?$AAe?$AAt?$AA?2?$AAd?$AAs?$AA_?$AAl?$AAi?$AAs?$AAt?$AA?4@ ; `string'
PUBLIC	??_C@_1CK@HINNGFPG@?$AAp?$AAo?$AAs?$AAi?$AAt?$AAi?$AAo?$AAn?$AA?5?$AA?$DM?$AA?5?$AAl?$AAi?$AAs?$AAt?$AA_?$AAs?$AAi?$AAz?$AAe?$AA?$AA@ ; `string'
PUBLIC	??_C@_1CM@FMCFHBCK@?$AAp?$AAo?$AAs?$AAi?$AAt?$AAi?$AAo?$AAn?$AA?5?$AA?$DM?$AA?$DN?$AA?5?$AAl?$AAi?$AAs?$AAt?$AA_?$AAs?$AAi?$AAz?$AAe?$AA?$AA@ ; `string'
PUBLIC	??_C@_1BO@JBFMBKMD@?$AAl?$AAi?$AAs?$AAt?$AA_?$AAs?$AAi?$AAz?$AAe?$AA?$DO?$AA?$DN?$AAn?$AAu?$AAm?$AA?$AA@ ; `string'
PUBLIC	??_R4PluginInterface@@6B@			; PluginInterface::`RTTI Complete Object Locator'
PUBLIC	??_R0?AVPluginInterface@@@8			; PluginInterface `RTTI Type Descriptor'
PUBLIC	??_R3PluginInterface@@8				; PluginInterface::`RTTI Class Hierarchy Descriptor'
PUBLIC	??_R2PluginInterface@@8				; PluginInterface::`RTTI Base Class Array'
PUBLIC	??_R1A@?0A@EA@PluginInterface@@8		; PluginInterface::`RTTI Base Class Descriptor at (0,-1,0,64)'
PUBLIC	??_R4ReplicaManager@@6B@			; ReplicaManager::`RTTI Complete Object Locator'
PUBLIC	??_R0?AVReplicaManager@@@8			; ReplicaManager `RTTI Type Descriptor'
PUBLIC	??_R3ReplicaManager@@8				; ReplicaManager::`RTTI Class Hierarchy Descriptor'
PUBLIC	??_R2ReplicaManager@@8				; ReplicaManager::`RTTI Base Class Array'
PUBLIC	??_R1A@?0A@EA@ReplicaManager@@8			; ReplicaManager::`RTTI Base Class Descriptor at (0,-1,0,64)'
EXTRN	??2@YAPAXI@Z:PROC				; operator new
EXTRN	??3@YAXPAX@Z:PROC				; operator delete
EXTRN	??8PlayerID@@QBE_NABU0@@Z:PROC			; PlayerID::operator==
EXTRN	??9PlayerID@@QBE_NABU0@@Z:PROC			; PlayerID::operator!=
EXTRN	??MPlayerID@@QBE_NABU0@@Z:PROC			; PlayerID::operator<
EXTRN	??4NetworkID@@QAEAAU0@ABU0@@Z:PROC		; NetworkID::operator=
EXTRN	?IsPeerToPeerMode@NetworkID@@SA_NXZ:PROC	; NetworkID::IsPeerToPeerMode
EXTRN	??8NetworkID@@QBE_NABU0@@Z:PROC			; NetworkID::operator==
EXTRN	??9NetworkID@@QBE_NABU0@@Z:PROC			; NetworkID::operator!=
EXTRN	__wassert:PROC
EXTRN	_memcpy:PROC
EXTRN	_memmove:PROC
EXTRN	?OnAttach@PluginInterface@@UAEXPAVRakPeerInterface@@@Z:PROC ; PluginInterface::OnAttach
EXTRN	?OnDetach@PluginInterface@@UAEXPAVRakPeerInterface@@@Z:PROC ; PluginInterface::OnDetach
EXTRN	?OnInitialize@PluginInterface@@UAEXPAVRakPeerInterface@@@Z:PROC ; PluginInterface::OnInitialize
EXTRN	?Update@PluginInterface@@UAEXPAVRakPeerInterface@@@Z:PROC ; PluginInterface::Update
EXTRN	?OnReceive@PluginInterface@@UAE?AW4PluginReceiveResult@@PAVRakPeerInterface@@PAUPacket@@@Z:PROC ; PluginInterface::OnReceive
EXTRN	?OnDisconnect@PluginInterface@@UAEXPAVRakPeerInterface@@@Z:PROC ; PluginInterface::OnDisconnect
EXTRN	?OnCloseConnection@PluginInterface@@UAEXPAVRakPeerInterface@@UPlayerID@@@Z:PROC ; PluginInterface::OnCloseConnection
EXTRN	?OnDirectSocketSend@PluginInterface@@UAEXPBDIUPlayerID@@@Z:PROC ; PluginInterface::OnDirectSocketSend
EXTRN	?OnDirectSocketReceive@PluginInterface@@UAEXPBDIUPlayerID@@@Z:PROC ; PluginInterface::OnDirectSocketReceive
EXTRN	?OnInternalPacket@PluginInterface@@UAEXPAUInternalPacket@@IUPlayerID@@I_N@Z:PROC ; PluginInterface::OnInternalPacket
EXTRN	?GET_BASE_OBJECT_FROM_ID@NetworkIDGenerator@@SAPAXUNetworkID@@@Z:PROC ; NetworkIDGenerator::GET_BASE_OBJECT_FROM_ID
EXTRN	?GetTime@RakNet@@YAIXZ:PROC			; RakNet::GetTime
EXTRN	??0BitStream@RakNet@@QAE@XZ:PROC		; RakNet::BitStream::BitStream
EXTRN	??0BitStream@RakNet@@QAE@PAEI_N@Z:PROC		; RakNet::BitStream::BitStream
EXTRN	??1BitStream@RakNet@@QAE@XZ:PROC		; RakNet::BitStream::~BitStream
EXTRN	?Reset@BitStream@RakNet@@QAEXXZ:PROC		; RakNet::BitStream::Reset
EXTRN	?Write@BitStream@RakNet@@QAEXPAV12@H@Z:PROC	; RakNet::BitStream::Write
EXTRN	?IgnoreBits@BitStream@RakNet@@QAEXH@Z:PROC	; RakNet::BitStream::IgnoreBits
EXTRN	?SetWriteOffset@BitStream@RakNet@@QAEXH@Z:PROC	; RakNet::BitStream::SetWriteOffset
EXTRN	?WriteBits@BitStream@RakNet@@QAEXPBEH_N@Z:PROC	; RakNet::BitStream::WriteBits
EXTRN	?ReadBits@BitStream@RakNet@@QAE_NPAEH_N@Z:PROC	; RakNet::BitStream::ReadBits
EXTRN	?Write0@BitStream@RakNet@@QAEXXZ:PROC		; RakNet::BitStream::Write0
EXTRN	?Write1@BitStream@RakNet@@QAEXXZ:PROC		; RakNet::BitStream::Write1
EXTRN	@_RTC_CheckStackVars@8:PROC
EXTRN	@__security_check_cookie@4:PROC
EXTRN	__RTC_CheckEsp:PROC
EXTRN	__RTC_InitBase:PROC
EXTRN	__RTC_Shutdown:PROC
EXTRN	__RTC_UninitUse:PROC
EXTRN	___CxxFrameHandler3:PROC
EXTRN	??_7type_info@@6B@:QWORD			; type_info::`vftable'
EXTRN	___security_cookie:DWORD
;	COMDAT rtc$TMZ
rtc$TMZ	SEGMENT
__RTC_Shutdown.rtc$TMZ DD FLAT:__RTC_Shutdown
rtc$TMZ	ENDS
;	COMDAT rtc$IMZ
rtc$IMZ	SEGMENT
__RTC_InitBase.rtc$IMZ DD FLAT:__RTC_InitBase
rtc$IMZ	ENDS
;	COMDAT ??_R1A@?0A@EA@ReplicaManager@@8
rdata$r	SEGMENT
??_R1A@?0A@EA@ReplicaManager@@8 DD FLAT:??_R0?AVReplicaManager@@@8 ; ReplicaManager::`RTTI Base Class Descriptor at (0,-1,0,64)'
	DD	01H
	DD	00H
	DD	0ffffffffH
	DD	00H
	DD	040H
	DD	FLAT:??_R3ReplicaManager@@8
rdata$r	ENDS
;	COMDAT ??_R2ReplicaManager@@8
rdata$r	SEGMENT
??_R2ReplicaManager@@8 DD FLAT:??_R1A@?0A@EA@ReplicaManager@@8 ; ReplicaManager::`RTTI Base Class Array'
	DD	FLAT:??_R1A@?0A@EA@PluginInterface@@8
rdata$r	ENDS
;	COMDAT ??_R3ReplicaManager@@8
rdata$r	SEGMENT
??_R3ReplicaManager@@8 DD 00H				; ReplicaManager::`RTTI Class Hierarchy Descriptor'
	DD	00H
	DD	02H
	DD	FLAT:??_R2ReplicaManager@@8
rdata$r	ENDS
;	COMDAT ??_R0?AVReplicaManager@@@8
data$r	SEGMENT
??_R0?AVReplicaManager@@@8 DD FLAT:??_7type_info@@6B@	; ReplicaManager `RTTI Type Descriptor'
	DD	00H
	DB	'.?AVReplicaManager@@', 00H
data$r	ENDS
;	COMDAT ??_R4ReplicaManager@@6B@
rdata$r	SEGMENT
??_R4ReplicaManager@@6B@ DD 00H				; ReplicaManager::`RTTI Complete Object Locator'
	DD	00H
	DD	00H
	DD	FLAT:??_R0?AVReplicaManager@@@8
	DD	FLAT:??_R3ReplicaManager@@8
rdata$r	ENDS
;	COMDAT ??_R1A@?0A@EA@PluginInterface@@8
rdata$r	SEGMENT
??_R1A@?0A@EA@PluginInterface@@8 DD FLAT:??_R0?AVPluginInterface@@@8 ; PluginInterface::`RTTI Base Class Descriptor at (0,-1,0,64)'
	DD	00H
	DD	00H
	DD	0ffffffffH
	DD	00H
	DD	040H
	DD	FLAT:??_R3PluginInterface@@8
rdata$r	ENDS
;	COMDAT ??_R2PluginInterface@@8
rdata$r	SEGMENT
??_R2PluginInterface@@8 DD FLAT:??_R1A@?0A@EA@PluginInterface@@8 ; PluginInterface::`RTTI Base Class Array'
rdata$r	ENDS
;	COMDAT ??_R3PluginInterface@@8
rdata$r	SEGMENT
??_R3PluginInterface@@8 DD 00H				; PluginInterface::`RTTI Class Hierarchy Descriptor'
	DD	00H
	DD	01H
	DD	FLAT:??_R2PluginInterface@@8
rdata$r	ENDS
;	COMDAT ??_R0?AVPluginInterface@@@8
data$r	SEGMENT
??_R0?AVPluginInterface@@@8 DD FLAT:??_7type_info@@6B@	; PluginInterface `RTTI Type Descriptor'
	DD	00H
	DB	'.?AVPluginInterface@@', 00H
data$r	ENDS
;	COMDAT ??_R4PluginInterface@@6B@
rdata$r	SEGMENT
??_R4PluginInterface@@6B@ DD 00H			; PluginInterface::`RTTI Complete Object Locator'
	DD	00H
	DD	00H
	DD	FLAT:??_R0?AVPluginInterface@@@8
	DD	FLAT:??_R3PluginInterface@@8
rdata$r	ENDS
;	COMDAT ??_C@_1BO@JBFMBKMD@?$AAl?$AAi?$AAs?$AAt?$AA_?$AAs?$AAi?$AAz?$AAe?$AA?$DO?$AA?$DN?$AAn?$AAu?$AAm?$AA?$AA@
CONST	SEGMENT
??_C@_1BO@JBFMBKMD@?$AAl?$AAi?$AAs?$AAt?$AA_?$AAs?$AAi?$AAz?$AAe?$AA?$DO?$AA?$DN?$AAn?$AAu?$AAm?$AA?$AA@ DB 'l'
	DB	00H, 'i', 00H, 's', 00H, 't', 00H, '_', 00H, 's', 00H, 'i', 00H
	DB	'z', 00H, 'e', 00H, '>', 00H, '=', 00H, 'n', 00H, 'u', 00H, 'm'
	DB	00H, 00H, 00H				; `string'
CONST	ENDS
;	COMDAT ??_C@_1CM@FMCFHBCK@?$AAp?$AAo?$AAs?$AAi?$AAt?$AAi?$AAo?$AAn?$AA?5?$AA?$DM?$AA?$DN?$AA?5?$AAl?$AAi?$AAs?$AAt?$AA_?$AAs?$AAi?$AAz?$AAe?$AA?$AA@
CONST	SEGMENT
??_C@_1CM@FMCFHBCK@?$AAp?$AAo?$AAs?$AAi?$AAt?$AAi?$AAo?$AAn?$AA?5?$AA?$DM?$AA?$DN?$AA?5?$AAl?$AAi?$AAs?$AAt?$AA_?$AAs?$AAi?$AAz?$AAe?$AA?$AA@ DB 'p'
	DB	00H, 'o', 00H, 's', 00H, 'i', 00H, 't', 00H, 'i', 00H, 'o', 00H
	DB	'n', 00H, ' ', 00H, '<', 00H, '=', 00H, ' ', 00H, 'l', 00H, 'i'
	DB	00H, 's', 00H, 't', 00H, '_', 00H, 's', 00H, 'i', 00H, 'z', 00H
	DB	'e', 00H, 00H, 00H				; `string'
CONST	ENDS
;	COMDAT ??_C@_1CK@HINNGFPG@?$AAp?$AAo?$AAs?$AAi?$AAt?$AAi?$AAo?$AAn?$AA?5?$AA?$DM?$AA?5?$AAl?$AAi?$AAs?$AAt?$AA_?$AAs?$AAi?$AAz?$AAe?$AA?$AA@
CONST	SEGMENT
??_C@_1CK@HINNGFPG@?$AAp?$AAo?$AAs?$AAi?$AAt?$AAi?$AAo?$AAn?$AA?5?$AA?$DM?$AA?5?$AAl?$AAi?$AAs?$AAt?$AA_?$AAs?$AAi?$AAz?$AAe?$AA?$AA@ DB 'p'
	DB	00H, 'o', 00H, 's', 00H, 'i', 00H, 't', 00H, 'i', 00H, 'o', 00H
	DB	'n', 00H, ' ', 00H, '<', 00H, ' ', 00H, 'l', 00H, 'i', 00H, 's'
	DB	00H, 't', 00H, '_', 00H, 's', 00H, 'i', 00H, 'z', 00H, 'e', 00H
	DB	00H, 00H					; `string'
CONST	ENDS
;	COMDAT ??_C@_1EE@MBOIAKFO@?$AAz?$AA?3?$AA?2?$AAs?$AAa?$AAm?$AAp?$AAs?$AAr?$AAc?$AA?2?$AA0?$AA2?$AAx?$AAu?$AA1?$AA?2?$AAr?$AAa?$AAk?$AAn?$AAe?$AAt?$AA?2?$AAd?$AAs?$AA_?$AAl?$AAi?$AAs?$AAt?$AA?4@
CONST	SEGMENT
??_C@_1EE@MBOIAKFO@?$AAz?$AA?3?$AA?2?$AAs?$AAa?$AAm?$AAp?$AAs?$AAr?$AAc?$AA?2?$AA0?$AA2?$AAx?$AAu?$AA1?$AA?2?$AAr?$AAa?$AAk?$AAn?$AAe?$AAt?$AA?2?$AAd?$AAs?$AA_?$AAl?$AAi?$AAs?$AAt?$AA?4@ DB 'z'
	DB	00H, ':', 00H, '\', 00H, 's', 00H, 'a', 00H, 'm', 00H, 'p', 00H
	DB	's', 00H, 'r', 00H, 'c', 00H, '\', 00H, '0', 00H, '2', 00H, 'x'
	DB	00H, 'u', 00H, '1', 00H, '\', 00H, 'r', 00H, 'a', 00H, 'k', 00H
	DB	'n', 00H, 'e', 00H, 't', 00H, '\', 00H, 'd', 00H, 's', 00H, '_'
	DB	00H, 'l', 00H, 'i', 00H, 's', 00H, 't', 00H, '.', 00H, 'h', 00H
	DB	00H, 00H					; `string'
CONST	ENDS
;	COMDAT ??_C@_1CG@FNLJFNDG@?$AAo?$AAb?$AAj?$AAe?$AAc?$AAt?$AAE?$AAx?$AAi?$AAs?$AAt?$AAs?$AA?$DN?$AA?$DN?$AAt?$AAr?$AAu?$AAe?$AA?$AA@
CONST	SEGMENT
??_C@_1CG@FNLJFNDG@?$AAo?$AAb?$AAj?$AAe?$AAc?$AAt?$AAE?$AAx?$AAi?$AAs?$AAt?$AAs?$AA?$DN?$AA?$DN?$AAt?$AAr?$AAu?$AAe?$AA?$AA@ DB 'o'
	DB	00H, 'b', 00H, 'j', 00H, 'e', 00H, 'c', 00H, 't', 00H, 'E', 00H
	DB	'x', 00H, 'i', 00H, 's', 00H, 't', 00H, 's', 00H, '=', 00H, '='
	DB	00H, 't', 00H, 'r', 00H, 'u', 00H, 'e', 00H, 00H, 00H ; `string'
CONST	ENDS
;	COMDAT ??_C@_1FC@PKHPOOLI@?$AAz?$AA?3?$AA?2?$AAs?$AAa?$AAm?$AAp?$AAs?$AAr?$AAc?$AA?2?$AA0?$AA2?$AAx?$AAu?$AA1?$AA?2?$AAr?$AAa?$AAk?$AAn?$AAe?$AAt?$AA?2?$AAd?$AAs?$AA_?$AAo?$AAr?$AAd?$AAe?$AAr@
CONST	SEGMENT
??_C@_1FC@PKHPOOLI@?$AAz?$AA?3?$AA?2?$AAs?$AAa?$AAm?$AAp?$AAs?$AAr?$AAc?$AA?2?$AA0?$AA2?$AAx?$AAu?$AA1?$AA?2?$AAr?$AAa?$AAk?$AAn?$AAe?$AAt?$AA?2?$AAd?$AAs?$AA_?$AAo?$AAr?$AAd?$AAe?$AAr@ DB 'z'
	DB	00H, ':', 00H, '\', 00H, 's', 00H, 'a', 00H, 'm', 00H, 'p', 00H
	DB	's', 00H, 'r', 00H, 'c', 00H, '\', 00H, '0', 00H, '2', 00H, 'x'
	DB	00H, 'u', 00H, '1', 00H, '\', 00H, 'r', 00H, 'a', 00H, 'k', 00H
	DB	'n', 00H, 'e', 00H, 't', 00H, '\', 00H, 'd', 00H, 's', 00H, '_'
	DB	00H, 'o', 00H, 'r', 00H, 'd', 00H, 'e', 00H, 'r', 00H, 'e', 00H
	DB	'd', 00H, 'l', 00H, 'i', 00H, 's', 00H, 't', 00H, '.', 00H, 'h'
	DB	00H, 00H, 00H				; `string'
CONST	ENDS
;	COMDAT ??_C@_1GG@JDEIIJCO@?$AAa?$AAl?$AAl?$AAo?$AAc?$AAa?$AAt?$AAi?$AAo?$AAn?$AA_?$AAs?$AAi?$AAz?$AAe?$AA?5?$AA?$DO?$AA?5?$AA0?$AA?5?$AA?$CG?$AA?$CG?$AA?5?$AAS?$AAi?$AAz?$AAe?$AA?$CI?$AA?$CJ?$AA?5?$AA?$DO?$AA?$DN@
CONST	SEGMENT
??_C@_1GG@JDEIIJCO@?$AAa?$AAl?$AAl?$AAo?$AAc?$AAa?$AAt?$AAi?$AAo?$AAn?$AA_?$AAs?$AAi?$AAz?$AAe?$AA?5?$AA?$DO?$AA?5?$AA0?$AA?5?$AA?$CG?$AA?$CG?$AA?5?$AAS?$AAi?$AAz?$AAe?$AA?$CI?$AA?$CJ?$AA?5?$AA?$DO?$AA?$DN@ DB 'a'
	DB	00H, 'l', 00H, 'l', 00H, 'o', 00H, 'c', 00H, 'a', 00H, 't', 00H
	DB	'i', 00H, 'o', 00H, 'n', 00H, '_', 00H, 's', 00H, 'i', 00H, 'z'
	DB	00H, 'e', 00H, ' ', 00H, '>', 00H, ' ', 00H, '0', 00H, ' ', 00H
	DB	'&', 00H, '&', 00H, ' ', 00H, 'S', 00H, 'i', 00H, 'z', 00H, 'e'
	DB	00H, '(', 00H, ')', 00H, ' ', 00H, '>', 00H, '=', 00H, ' ', 00H
	DB	'0', 00H, ' ', 00H, '&', 00H, '&', 00H, ' ', 00H, 'h', 00H, 'e'
	DB	00H, 'a', 00H, 'd', 00H, ' ', 00H, '!', 00H, '=', 00H, ' ', 00H
	DB	't', 00H, 'a', 00H, 'i', 00H, 'l', 00H, 00H, 00H ; `string'
CONST	ENDS
;	COMDAT ??_C@_1BE@OMEGJCHO@?$AAn?$AAe?$AAw?$AA_?$AAa?$AAr?$AAr?$AAa?$AAy?$AA?$AA@
CONST	SEGMENT
??_C@_1BE@OMEGJCHO@?$AAn?$AAe?$AAw?$AA_?$AAa?$AAr?$AAr?$AAa?$AAy?$AA?$AA@ DB 'n'
	DB	00H, 'e', 00H, 'w', 00H, '_', 00H, 'a', 00H, 'r', 00H, 'r', 00H
	DB	'a', 00H, 'y', 00H, 00H, 00H			; `string'
CONST	ENDS
;	COMDAT ??_C@_1EG@DIEEECKO@?$AAz?$AA?3?$AA?2?$AAs?$AAa?$AAm?$AAp?$AAs?$AAr?$AAc?$AA?2?$AA0?$AA2?$AAx?$AAu?$AA1?$AA?2?$AAr?$AAa?$AAk?$AAn?$AAe?$AAt?$AA?2?$AAd?$AAs?$AA_?$AAq?$AAu?$AAe?$AAu?$AAe@
CONST	SEGMENT
??_C@_1EG@DIEEECKO@?$AAz?$AA?3?$AA?2?$AAs?$AAa?$AAm?$AAp?$AAs?$AAr?$AAc?$AA?2?$AA0?$AA2?$AAx?$AAu?$AA1?$AA?2?$AAr?$AAa?$AAk?$AAn?$AAe?$AAt?$AA?2?$AAd?$AAs?$AA_?$AAq?$AAu?$AAe?$AAu?$AAe@ DB 'z'
	DB	00H, ':', 00H, '\', 00H, 's', 00H, 'a', 00H, 'm', 00H, 'p', 00H
	DB	's', 00H, 'r', 00H, 'c', 00H, '\', 00H, '0', 00H, '2', 00H, 'x'
	DB	00H, 'u', 00H, '1', 00H, '\', 00H, 'r', 00H, 'a', 00H, 'k', 00H
	DB	'n', 00H, 'e', 00H, 't', 00H, '\', 00H, 'd', 00H, 's', 00H, '_'
	DB	00H, 'q', 00H, 'u', 00H, 'e', 00H, 'u', 00H, 'e', 00H, '.', 00H
	DB	'h', 00H, 00H, 00H				; `string'
CONST	ENDS
;	COMDAT ??_C@_1CA@HAOFBOHJ@?$AA_?$AAc?$AAo?$AAn?$AAs?$AAt?$AAr?$AAu?$AAc?$AAt?$AAi?$AAo?$AAn?$AAC?$AAB?$AA?$AA@
CONST	SEGMENT
??_C@_1CA@HAOFBOHJ@?$AA_?$AAc?$AAo?$AAn?$AAs?$AAt?$AAr?$AAu?$AAc?$AAt?$AAi?$AAo?$AAn?$AAC?$AAB?$AA?$AA@ DB '_'
	DB	00H, 'c', 00H, 'o', 00H, 'n', 00H, 's', 00H, 't', 00H, 'r', 00H
	DB	'u', 00H, 'c', 00H, 't', 00H, 'i', 00H, 'o', 00H, 'n', 00H, 'C'
	DB	00H, 'B', 00H, 00H, 00H			; `string'
CONST	ENDS
;	COMDAT ?__LINE__Var@?1??ProcessReceivedCommand@ReplicaManager@@IAE?AW4ReplicaReturnResult@@PAUParticipantStruct@2@PAUReceivedCommand@2@@Z@4JA
_DATA	SEGMENT
?__LINE__Var@?1??ProcessReceivedCommand@ReplicaManager@@IAE?AW4ReplicaReturnResult@@PAUParticipantStruct@2@PAUReceivedCommand@2@@Z@4JA DD 0398H ; `ReplicaManager::ProcessReceivedCommand'::`2'::__LINE__Var
_DATA	ENDS
;	COMDAT ??_C@_13COJANIEC@?$AA0?$AA?$AA@
CONST	SEGMENT
??_C@_13COJANIEC@?$AA0?$AA?$AA@ DB '0', 00H, 00H, 00H	; `string'
CONST	ENDS
;	COMDAT ?__LINE__Var@?1??OnReceive@ReplicaManager@@MAE?AW4PluginReceiveResult@@PAVRakPeerInterface@@PAUPacket@@@Z@4JA
_DATA	SEGMENT
?__LINE__Var@?1??OnReceive@ReplicaManager@@MAE?AW4PluginReceiveResult@@PAVRakPeerInterface@@PAUPacket@@@Z@4JA DD 0325H ; `ReplicaManager::OnReceive'::`2'::__LINE__Var
_DATA	ENDS
;	COMDAT ??_C@_1DG@DECCOGIG@?$AAr?$AAe?$AAs?$AA?$DN?$AA?$DN?$AAR?$AAE?$AAP?$AAL?$AAI?$AAC?$AAA?$AA_?$AAP?$AAR?$AAO?$AAC?$AAE?$AAS?$AAS?$AA_?$AAL?$AAA?$AAT?$AAE?$AAR?$AA?$AA@
CONST	SEGMENT
??_C@_1DG@DECCOGIG@?$AAr?$AAe?$AAs?$AA?$DN?$AA?$DN?$AAR?$AAE?$AAP?$AAL?$AAI?$AAC?$AAA?$AA_?$AAP?$AAR?$AAO?$AAC?$AAE?$AAS?$AAS?$AA_?$AAL?$AAA?$AAT?$AAE?$AAR?$AA?$AA@ DB 'r'
	DB	00H, 'e', 00H, 's', 00H, '=', 00H, '=', 00H, 'R', 00H, 'E', 00H
	DB	'P', 00H, 'L', 00H, 'I', 00H, 'C', 00H, 'A', 00H, '_', 00H, 'P'
	DB	00H, 'R', 00H, 'O', 00H, 'C', 00H, 'E', 00H, 'S', 00H, 'S', 00H
	DB	'_', 00H, 'L', 00H, 'A', 00H, 'T', 00H, 'E', 00H, 'R', 00H, 00H
	DB	00H						; `string'
CONST	ENDS
;	COMDAT ??_C@_1EM@HMDKKPAI@?$AAs?$AAe?$AAn?$AAd?$AAD?$AAL?$AAC?$AAo?$AAm?$AAp?$AAl?$AAe?$AAt?$AAe?$AA?$DN?$AA?$DN?$AAR?$AAE?$AAP?$AAL?$AAI?$AAC?$AAA?$AA_?$AAP?$AAR?$AAO?$AAC?$AAE?$AAS?$AAS?$AA_@
CONST	SEGMENT
??_C@_1EM@HMDKKPAI@?$AAs?$AAe?$AAn?$AAd?$AAD?$AAL?$AAC?$AAo?$AAm?$AAp?$AAl?$AAe?$AAt?$AAe?$AA?$DN?$AA?$DN?$AAR?$AAE?$AAP?$AAL?$AAI?$AAC?$AAA?$AA_?$AAP?$AAR?$AAO?$AAC?$AAE?$AAS?$AAS?$AA_@ DB 's'
	DB	00H, 'e', 00H, 'n', 00H, 'd', 00H, 'D', 00H, 'L', 00H, 'C', 00H
	DB	'o', 00H, 'm', 00H, 'p', 00H, 'l', 00H, 'e', 00H, 't', 00H, 'e'
	DB	00H, '=', 00H, '=', 00H, 'R', 00H, 'E', 00H, 'P', 00H, 'L', 00H
	DB	'I', 00H, 'C', 00H, 'A', 00H, '_', 00H, 'P', 00H, 'R', 00H, 'O'
	DB	00H, 'C', 00H, 'E', 00H, 'S', 00H, 'S', 00H, '_', 00H, 'L', 00H
	DB	'A', 00H, 'T', 00H, 'E', 00H, 'R', 00H, 00H, 00H ; `string'
CONST	ENDS
;	COMDAT ??_C@_1DI@HDKFLDGG@?$AAr?$AAe?$AAs?$AA?$DN?$AA?$DN?$AAR?$AAE?$AAP?$AAL?$AAI?$AAC?$AAA?$AA_?$AAC?$AAA?$AAN?$AAC?$AAE?$AAL?$AA_?$AAP?$AAR?$AAO?$AAC?$AAE?$AAS?$AAS?$AA?$AA@
CONST	SEGMENT
??_C@_1DI@HDKFLDGG@?$AAr?$AAe?$AAs?$AA?$DN?$AA?$DN?$AAR?$AAE?$AAP?$AAL?$AAI?$AAC?$AAA?$AA_?$AAC?$AAA?$AAN?$AAC?$AAE?$AAL?$AA_?$AAP?$AAR?$AAO?$AAC?$AAE?$AAS?$AAS?$AA?$AA@ DB 'r'
	DB	00H, 'e', 00H, 's', 00H, '=', 00H, '=', 00H, 'R', 00H, 'E', 00H
	DB	'P', 00H, 'L', 00H, 'I', 00H, 'C', 00H, 'A', 00H, '_', 00H, 'C'
	DB	00H, 'A', 00H, 'N', 00H, 'C', 00H, 'E', 00H, 'L', 00H, '_', 00H
	DB	'P', 00H, 'R', 00H, 'O', 00H, 'C', 00H, 'E', 00H, 'S', 00H, 'S'
	DB	00H, 00H, 00H				; `string'
CONST	ENDS
;	COMDAT ??_C@_1BK@EBNJALNF@?$AAo?$AAb?$AAj?$AAe?$AAc?$AAt?$AAE?$AAx?$AAi?$AAs?$AAt?$AAs?$AA?$AA@
CONST	SEGMENT
??_C@_1BK@EBNJALNF@?$AAo?$AAb?$AAj?$AAe?$AAc?$AAt?$AAE?$AAx?$AAi?$AAs?$AAt?$AAs?$AA?$AA@ DB 'o'
	DB	00H, 'b', 00H, 'j', 00H, 'e', 00H, 'c', 00H, 't', 00H, 'E', 00H
	DB	'x', 00H, 'i', 00H, 's', 00H, 't', 00H, 's', 00H, 00H, 00H ; `string'
CONST	ENDS
;	COMDAT ?__LINE__Var@?1??Update@ReplicaManager@@MAEXPAVRakPeerInterface@@@Z@4JA
_DATA	SEGMENT
?__LINE__Var@?1??Update@ReplicaManager@@MAEXPAVRakPeerInterface@@@Z@4JA DD 01c1H ; `ReplicaManager::Update'::`2'::__LINE__Var
_DATA	ENDS
;	COMDAT ?__LINE__Var@?1??SignalSerializeNeeded@ReplicaManager@@QAEXPAVReplica@@UPlayerID@@_N@Z@4JA
_DATA	SEGMENT
?__LINE__Var@?1??SignalSerializeNeeded@ReplicaManager@@QAEXPAVReplica@@UPlayerID@@_N@Z@4JA DD 013aH ; `ReplicaManager::SignalSerializeNeeded'::`2'::__LINE__Var
_DATA	ENDS
;	COMDAT ?__LINE__Var@?1??SetScope@ReplicaManager@@QAEXPAVReplica@@_NUPlayerID@@1@Z@4JA
_DATA	SEGMENT
?__LINE__Var@?1??SetScope@ReplicaManager@@QAEXPAVReplica@@_NUPlayerID@@1@Z@4JA DD 0107H ; `ReplicaManager::SetScope'::`2'::__LINE__Var
_DATA	ENDS
;	COMDAT ?__LINE__Var@?1??Destruct@ReplicaManager@@QAEXPAVReplica@@UPlayerID@@_N@Z@4JA
_DATA	SEGMENT
?__LINE__Var@?1??Destruct@ReplicaManager@@QAEXPAVReplica@@UPlayerID@@_N@Z@4JA DD 0a4H ; `ReplicaManager::Destruct'::`2'::__LINE__Var
_DATA	ENDS
;	COMDAT ??_C@_1BM@DOEBGNAM@?$AAi?$AAs?$AAC?$AAo?$AAp?$AAy?$AA?$DN?$AA?$DN?$AAf?$AAa?$AAl?$AAs?$AAe?$AA?$AA@
CONST	SEGMENT
??_C@_1BM@DOEBGNAM@?$AAi?$AAs?$AAC?$AAo?$AAp?$AAy?$AA?$DN?$AA?$DN?$AAf?$AAa?$AAl?$AAs?$AAe?$AA?$AA@ DB 'i'
	DB	00H, 's', 00H, 'C', 00H, 'o', 00H, 'p', 00H, 'y', 00H, '=', 00H
	DB	'=', 00H, 'f', 00H, 'a', 00H, 'l', 00H, 's', 00H, 'e', 00H, 00H
	DB	00H						; `string'
CONST	ENDS
;	COMDAT ??_C@_1BA@GODDPAJM@?$AAr?$AAe?$AAp?$AAl?$AAi?$AAc?$AAa?$AA?$AA@
CONST	SEGMENT
??_C@_1BA@GODDPAJM@?$AAr?$AAe?$AAp?$AAl?$AAi?$AAc?$AAa?$AA?$AA@ DB 'r', 00H
	DB	'e', 00H, 'p', 00H, 'l', 00H, 'i', 00H, 'c', 00H, 'a', 00H, 00H
	DB	00H						; `string'
CONST	ENDS
;	COMDAT ?__LINE__Var@?1??Construct@ReplicaManager@@QAEXPAVReplica@@_NUPlayerID@@1@Z@4JA
_DATA	SEGMENT
?__LINE__Var@?1??Construct@ReplicaManager@@QAEXPAVReplica@@_NUPlayerID@@1@Z@4JA DD 078H ; `ReplicaManager::Construct'::`2'::__LINE__Var
_DATA	ENDS
;	COMDAT ?__LINE__Var@?1??RemoveParticipant@ReplicaManager@@QAEXUPlayerID@@@Z@4JA
_DATA	SEGMENT
?__LINE__Var@?1??RemoveParticipant@ReplicaManager@@QAEXUPlayerID@@@Z@4JA DD 068H ; `ReplicaManager::RemoveParticipant'::`2'::__LINE__Var
_DATA	ENDS
;	COMDAT ??_C@_1DO@FONFJDEJ@?$AAp?$AAl?$AAa?$AAy?$AAe?$AAr?$AAI?$AAd?$AA?$CB?$AA?$DN?$AAU?$AAN?$AAA?$AAS?$AAS?$AAI?$AAG?$AAN?$AAE?$AAD?$AA_?$AAP?$AAL?$AAA?$AAY?$AAE?$AAR?$AA_?$AAI?$AAD?$AA?$AA@
CONST	SEGMENT
??_C@_1DO@FONFJDEJ@?$AAp?$AAl?$AAa?$AAy?$AAe?$AAr?$AAI?$AAd?$AA?$CB?$AA?$DN?$AAU?$AAN?$AAA?$AAS?$AAS?$AAI?$AAG?$AAN?$AAE?$AAD?$AA_?$AAP?$AAL?$AAA?$AAY?$AAE?$AAR?$AA_?$AAI?$AAD?$AA?$AA@ DB 'p'
	DB	00H, 'l', 00H, 'a', 00H, 'y', 00H, 'e', 00H, 'r', 00H, 'I', 00H
	DB	'd', 00H, '!', 00H, '=', 00H, 'U', 00H, 'N', 00H, 'A', 00H, 'S'
	DB	00H, 'S', 00H, 'I', 00H, 'G', 00H, 'N', 00H, 'E', 00H, 'D', 00H
	DB	'_', 00H, 'P', 00H, 'L', 00H, 'A', 00H, 'Y', 00H, 'E', 00H, 'R'
	DB	00H, '_', 00H, 'I', 00H, 'D', 00H, 00H, 00H	; `string'
CONST	ENDS
;	COMDAT ??_C@_1FG@CAHGPPEA@?$AAz?$AA?3?$AA?2?$AAs?$AAa?$AAm?$AAp?$AAs?$AAr?$AAc?$AA?2?$AA0?$AA2?$AAx?$AAu?$AA1?$AA?2?$AAr?$AAa?$AAk?$AAn?$AAe?$AAt?$AA?2?$AAr?$AAe?$AAp?$AAl?$AAi?$AAc?$AAa?$AAm@
CONST	SEGMENT
??_C@_1FG@CAHGPPEA@?$AAz?$AA?3?$AA?2?$AAs?$AAa?$AAm?$AAp?$AAs?$AAr?$AAc?$AA?2?$AA0?$AA2?$AAx?$AAu?$AA1?$AA?2?$AAr?$AAa?$AAk?$AAn?$AAe?$AAt?$AA?2?$AAr?$AAe?$AAp?$AAl?$AAi?$AAc?$AAa?$AAm@ DB 'z'
	DB	00H, ':', 00H, '\', 00H, 's', 00H, 'a', 00H, 'm', 00H, 'p', 00H
	DB	's', 00H, 'r', 00H, 'c', 00H, '\', 00H, '0', 00H, '2', 00H, 'x'
	DB	00H, 'u', 00H, '1', 00H, '\', 00H, 'r', 00H, 'a', 00H, 'k', 00H
	DB	'n', 00H, 'e', 00H, 't', 00H, '\', 00H, 'r', 00H, 'e', 00H, 'p'
	DB	00H, 'l', 00H, 'i', 00H, 'c', 00H, 'a', 00H, 'm', 00H, 'a', 00H
	DB	'n', 00H, 'a', 00H, 'g', 00H, 'e', 00H, 'r', 00H, '.', 00H, 'c'
	DB	00H, 'p', 00H, 'p', 00H, 00H, 00H		; `string'
CONST	ENDS
;	COMDAT ?__LINE__Var@?1??AddParticipant@ReplicaManager@@QAEXUPlayerID@@@Z@4JA
_DATA	SEGMENT
?__LINE__Var@?1??AddParticipant@ReplicaManager@@QAEXUPlayerID@@@Z@4JA DD 047H ; `ReplicaManager::AddParticipant'::`2'::__LINE__Var
_DATA	ENDS
;	COMDAT ??_7ReplicaManager@@6B@
CONST	SEGMENT
??_7ReplicaManager@@6B@ DD FLAT:??_R4ReplicaManager@@6B@ ; ReplicaManager::`vftable'
	DD	FLAT:?OnAttach@ReplicaManager@@MAEXPAVRakPeerInterface@@@Z
	DD	FLAT:?OnDetach@PluginInterface@@UAEXPAVRakPeerInterface@@@Z
	DD	FLAT:?OnInitialize@PluginInterface@@UAEXPAVRakPeerInterface@@@Z
	DD	FLAT:?Update@ReplicaManager@@MAEXPAVRakPeerInterface@@@Z
	DD	FLAT:?OnReceive@ReplicaManager@@MAE?AW4PluginReceiveResult@@PAVRakPeerInterface@@PAUPacket@@@Z
	DD	FLAT:?OnDisconnect@ReplicaManager@@MAEXPAVRakPeerInterface@@@Z
	DD	FLAT:?OnCloseConnection@ReplicaManager@@MAEXPAVRakPeerInterface@@UPlayerID@@@Z
	DD	FLAT:?OnDirectSocketSend@PluginInterface@@UAEXPBDIUPlayerID@@@Z
	DD	FLAT:?OnDirectSocketReceive@PluginInterface@@UAEXPBDIUPlayerID@@@Z
	DD	FLAT:?OnInternalPacket@PluginInterface@@UAEXPAUInternalPacket@@IUPlayerID@@I_N@Z
CONST	ENDS
;	COMDAT ??_7PluginInterface@@6B@
CONST	SEGMENT
??_7PluginInterface@@6B@ DD FLAT:??_R4PluginInterface@@6B@ ; PluginInterface::`vftable'
	DD	FLAT:?OnAttach@PluginInterface@@UAEXPAVRakPeerInterface@@@Z
	DD	FLAT:?OnDetach@PluginInterface@@UAEXPAVRakPeerInterface@@@Z
	DD	FLAT:?OnInitialize@PluginInterface@@UAEXPAVRakPeerInterface@@@Z
	DD	FLAT:?Update@PluginInterface@@UAEXPAVRakPeerInterface@@@Z
	DD	FLAT:?OnReceive@PluginInterface@@UAE?AW4PluginReceiveResult@@PAVRakPeerInterface@@PAUPacket@@@Z
	DD	FLAT:?OnDisconnect@PluginInterface@@UAEXPAVRakPeerInterface@@@Z
	DD	FLAT:?OnCloseConnection@PluginInterface@@UAEXPAVRakPeerInterface@@UPlayerID@@@Z
	DD	FLAT:?OnDirectSocketSend@PluginInterface@@UAEXPBDIUPlayerID@@@Z
	DD	FLAT:?OnDirectSocketReceive@PluginInterface@@UAEXPBDIUPlayerID@@@Z
	DD	FLAT:?OnInternalPacket@PluginInterface@@UAEXPAUInternalPacket@@IUPlayerID@@I_N@Z
CONST	ENDS
;	COMDAT xdata$x
xdata$x	SEGMENT
__unwindtable$??1?$OrderedList@UPlayerID@@PAUParticipantStruct@ReplicaManager@@$1?ParticipantStructComp@3@SAHABU1@ABQAU23@@Z@DataStructures@@QAE@XZ DD 0ffffffffH
	DD	FLAT:__unwindfunclet$??1?$OrderedList@UPlayerID@@PAUParticipantStruct@ReplicaManager@@$1?ParticipantStructComp@3@SAHABU1@ABQAU23@@Z@DataStructures@@QAE@XZ$0
__ehfuncinfo$??1?$OrderedList@UPlayerID@@PAUParticipantStruct@ReplicaManager@@$1?ParticipantStructComp@3@SAHABU1@ABQAU23@@Z@DataStructures@@QAE@XZ DD 019930522H
	DD	01H
	DD	FLAT:__unwindtable$??1?$OrderedList@UPlayerID@@PAUParticipantStruct@ReplicaManager@@$1?ParticipantStructComp@3@SAHABU1@ABQAU23@@Z@DataStructures@@QAE@XZ
	DD	2 DUP(00H)
	DD	2 DUP(00H)
	DD	00H
	DD	01H
xdata$x	ENDS
;	COMDAT xdata$x
xdata$x	SEGMENT
__unwindtable$??1?$OrderedList@PAVReplica@@URegisteredReplica@ReplicaManager@@$1?RegisteredReplicaComp@3@SAHABQAV1@ABU23@@Z@DataStructures@@QAE@XZ DD 0ffffffffH
	DD	FLAT:__unwindfunclet$??1?$OrderedList@PAVReplica@@URegisteredReplica@ReplicaManager@@$1?RegisteredReplicaComp@3@SAHABQAV1@ABU23@@Z@DataStructures@@QAE@XZ$0
__ehfuncinfo$??1?$OrderedList@PAVReplica@@URegisteredReplica@ReplicaManager@@$1?RegisteredReplicaComp@3@SAHABQAV1@ABU23@@Z@DataStructures@@QAE@XZ DD 019930522H
	DD	01H
	DD	FLAT:__unwindtable$??1?$OrderedList@PAVReplica@@URegisteredReplica@ReplicaManager@@$1?RegisteredReplicaComp@3@SAHABQAV1@ABU23@@Z@DataStructures@@QAE@XZ
	DD	2 DUP(00H)
	DD	2 DUP(00H)
	DD	00H
	DD	01H
xdata$x	ENDS
;	COMDAT xdata$x
xdata$x	SEGMENT
__unwindtable$?OnReceive@ReplicaManager@@MAE?AW4PluginReceiveResult@@PAVRakPeerInterface@@PAUPacket@@@Z DD 0ffffffffH
	DD	FLAT:__unwindfunclet$?OnReceive@ReplicaManager@@MAE?AW4PluginReceiveResult@@PAVRakPeerInterface@@PAUPacket@@@Z$0
	DD	00H
	DD	FLAT:__unwindfunclet$?OnReceive@ReplicaManager@@MAE?AW4PluginReceiveResult@@PAVRakPeerInterface@@PAUPacket@@@Z$1
__ehfuncinfo$?OnReceive@ReplicaManager@@MAE?AW4PluginReceiveResult@@PAVRakPeerInterface@@PAUPacket@@@Z DD 019930522H
	DD	02H
	DD	FLAT:__unwindtable$?OnReceive@ReplicaManager@@MAE?AW4PluginReceiveResult@@PAVRakPeerInterface@@PAUPacket@@@Z
	DD	2 DUP(00H)
	DD	2 DUP(00H)
	DD	00H
	DD	01H
xdata$x	ENDS
;	COMDAT xdata$x
xdata$x	SEGMENT
__unwindtable$?Update@ReplicaManager@@MAEXPAVRakPeerInterface@@@Z DD 0ffffffffH
	DD	FLAT:__unwindfunclet$?Update@ReplicaManager@@MAEXPAVRakPeerInterface@@@Z$0
	DD	00H
	DD	FLAT:__unwindfunclet$?Update@ReplicaManager@@MAEXPAVRakPeerInterface@@@Z$1
__ehfuncinfo$?Update@ReplicaManager@@MAEXPAVRakPeerInterface@@@Z DD 019930522H
	DD	02H
	DD	FLAT:__unwindtable$?Update@ReplicaManager@@MAEXPAVRakPeerInterface@@@Z
	DD	2 DUP(00H)
	DD	2 DUP(00H)
	DD	00H
	DD	01H
xdata$x	ENDS
;	COMDAT xdata$x
xdata$x	SEGMENT
__unwindtable$??0ParticipantStruct@ReplicaManager@@QAE@XZ DD 0ffffffffH
	DD	FLAT:__unwindfunclet$??0ParticipantStruct@ReplicaManager@@QAE@XZ$0
	DD	00H
	DD	FLAT:__unwindfunclet$??0ParticipantStruct@ReplicaManager@@QAE@XZ$1
__ehfuncinfo$??0ParticipantStruct@ReplicaManager@@QAE@XZ DD 019930522H
	DD	02H
	DD	FLAT:__unwindtable$??0ParticipantStruct@ReplicaManager@@QAE@XZ
	DD	2 DUP(00H)
	DD	2 DUP(00H)
	DD	00H
	DD	01H
xdata$x	ENDS
;	COMDAT xdata$x
xdata$x	SEGMENT
__unwindtable$??1?$OrderedList@PAVReplica@@URemoteObject@ReplicaManager@@$1?RemoteObjectComp@3@SAHABQAV1@ABU23@@Z@DataStructures@@QAE@XZ DD 0ffffffffH
	DD	FLAT:__unwindfunclet$??1?$OrderedList@PAVReplica@@URemoteObject@ReplicaManager@@$1?RemoteObjectComp@3@SAHABQAV1@ABU23@@Z@DataStructures@@QAE@XZ$0
__ehfuncinfo$??1?$OrderedList@PAVReplica@@URemoteObject@ReplicaManager@@$1?RemoteObjectComp@3@SAHABQAV1@ABU23@@Z@DataStructures@@QAE@XZ DD 019930522H
	DD	01H
	DD	FLAT:__unwindtable$??1?$OrderedList@PAVReplica@@URemoteObject@ReplicaManager@@$1?RemoteObjectComp@3@SAHABQAV1@ABU23@@Z@DataStructures@@QAE@XZ
	DD	2 DUP(00H)
	DD	2 DUP(00H)
	DD	00H
	DD	01H
xdata$x	ENDS
;	COMDAT xdata$x
xdata$x	SEGMENT
__unwindtable$??1?$OrderedList@PAVReplica@@UCommandStruct@ReplicaManager@@$1?CommandStructComp@3@SAHABQAV1@ABU23@@Z@DataStructures@@QAE@XZ DD 0ffffffffH
	DD	FLAT:__unwindfunclet$??1?$OrderedList@PAVReplica@@UCommandStruct@ReplicaManager@@$1?CommandStructComp@3@SAHABQAV1@ABU23@@Z@DataStructures@@QAE@XZ$0
__ehfuncinfo$??1?$OrderedList@PAVReplica@@UCommandStruct@ReplicaManager@@$1?CommandStructComp@3@SAHABQAV1@ABU23@@Z@DataStructures@@QAE@XZ DD 019930522H
	DD	01H
	DD	FLAT:__unwindtable$??1?$OrderedList@PAVReplica@@UCommandStruct@ReplicaManager@@$1?CommandStructComp@3@SAHABQAV1@ABU23@@Z@DataStructures@@QAE@XZ
	DD	2 DUP(00H)
	DD	2 DUP(00H)
	DD	00H
	DD	01H
xdata$x	ENDS
;	COMDAT xdata$x
xdata$x	SEGMENT
__unwindtable$??1ParticipantStruct@ReplicaManager@@QAE@XZ DD 0ffffffffH
	DD	FLAT:__unwindfunclet$??1ParticipantStruct@ReplicaManager@@QAE@XZ$0
	DD	00H
	DD	FLAT:__unwindfunclet$??1ParticipantStruct@ReplicaManager@@QAE@XZ$1
	DD	01H
	DD	FLAT:__unwindfunclet$??1ParticipantStruct@ReplicaManager@@QAE@XZ$2
__ehfuncinfo$??1ParticipantStruct@ReplicaManager@@QAE@XZ DD 019930522H
	DD	03H
	DD	FLAT:__unwindtable$??1ParticipantStruct@ReplicaManager@@QAE@XZ
	DD	2 DUP(00H)
	DD	2 DUP(00H)
	DD	00H
	DD	01H
xdata$x	ENDS
;	COMDAT xdata$x
xdata$x	SEGMENT
__unwindtable$?Destruct@ReplicaManager@@QAEXPAVReplica@@UPlayerID@@_N@Z DD 0ffffffffH
	DD	FLAT:__unwindfunclet$?Destruct@ReplicaManager@@QAEXPAVReplica@@UPlayerID@@_N@Z$0
__ehfuncinfo$?Destruct@ReplicaManager@@QAEXPAVReplica@@UPlayerID@@_N@Z DD 019930522H
	DD	01H
	DD	FLAT:__unwindtable$?Destruct@ReplicaManager@@QAEXPAVReplica@@UPlayerID@@_N@Z
	DD	2 DUP(00H)
	DD	2 DUP(00H)
	DD	00H
	DD	01H
xdata$x	ENDS
;	COMDAT xdata$x
xdata$x	SEGMENT
__unwindtable$?AddParticipant@ReplicaManager@@QAEXUPlayerID@@@Z DD 0ffffffffH
	DD	FLAT:__unwindfunclet$?AddParticipant@ReplicaManager@@QAEXUPlayerID@@@Z$0
__ehfuncinfo$?AddParticipant@ReplicaManager@@QAEXUPlayerID@@@Z DD 019930522H
	DD	01H
	DD	FLAT:__unwindtable$?AddParticipant@ReplicaManager@@QAEXUPlayerID@@@Z
	DD	2 DUP(00H)
	DD	2 DUP(00H)
	DD	00H
	DD	01H
xdata$x	ENDS
;	COMDAT xdata$x
xdata$x	SEGMENT
__unwindtable$??1ReplicaManager@@QAE@XZ DD 0ffffffffH
	DD	FLAT:__unwindfunclet$??1ReplicaManager@@QAE@XZ$0
	DD	00H
	DD	FLAT:__unwindfunclet$??1ReplicaManager@@QAE@XZ$1
__ehfuncinfo$??1ReplicaManager@@QAE@XZ DD 019930522H
	DD	02H
	DD	FLAT:__unwindtable$??1ReplicaManager@@QAE@XZ
	DD	2 DUP(00H)
	DD	2 DUP(00H)
	DD	00H
	DD	01H
xdata$x	ENDS
;	COMDAT xdata$x
xdata$x	SEGMENT
__unwindtable$??0ReplicaManager@@QAE@XZ DD 0ffffffffH
	DD	FLAT:__unwindfunclet$??0ReplicaManager@@QAE@XZ$0
__ehfuncinfo$??0ReplicaManager@@QAE@XZ DD 019930522H
	DD	01H
	DD	FLAT:__unwindtable$??0ReplicaManager@@QAE@XZ
	DD	2 DUP(00H)
	DD	2 DUP(00H)
	DD	00H
	DD	01H
xdata$x	ENDS
; Function compile flags: /Odtp /RTCsu /ZI
; File z:\sampsrc\02xu1\raknet\bitstream.h
;	COMDAT ??$Write@E@BitStream@RakNet@@QAEXE@Z
_TEXT	SEGMENT
_this$ = -8						; size = 4
_var$ = 8						; size = 1
??$Write@E@BitStream@RakNet@@QAEXE@Z PROC		; RakNet::BitStream::Write<unsigned char>, COMDAT
; _this$ = ecx

; 729  : 	{

	push	ebp
	mov	ebp, esp
	sub	esp, 204				; 000000ccH
	push	ebx
	push	esi
	push	edi
	push	ecx
	lea	edi, DWORD PTR [ebp-204]
	mov	ecx, 51					; 00000033H
	mov	eax, -858993460				; ccccccccH
	rep stosd
	pop	ecx
	mov	DWORD PTR _this$[ebp], ecx

; 730  : #ifdef _MSC_VER
; 731  : #pragma warning(disable:4127)   // conditional expression is constant
; 732  : #endif
; 733  : 		if (sizeof(var)==1)

	mov	eax, 1
	test	eax, eax
	je	SHORT $LN2@Write

; 734  : 			WriteBits( ( unsigned char* ) & var, sizeof( templateType ) * 8, true );

	push	1
	push	8
	lea	eax, DWORD PTR _var$[ebp]
	push	eax
	mov	ecx, DWORD PTR _this$[ebp]
	call	?WriteBits@BitStream@RakNet@@QAEXPBEH_N@Z ; RakNet::BitStream::WriteBits

; 735  : 		else

	jmp	SHORT $LN3@Write
$LN2@Write:

; 736  : 		{
; 737  : #ifndef __BITSTREAM_NATIVE_END
; 738  : 			if (DoEndianSwap())
; 739  : 			{
; 740  : 				unsigned char output[sizeof(templateType)];
; 741  : 				ReverseBytes((unsigned char*)&var, output, sizeof(templateType));
; 742  : 				WriteBits( ( unsigned char* ) output, sizeof(templateType) * 8, true );
; 743  : 			}
; 744  : 			else
; 745  : #endif
; 746  : 				WriteBits( ( unsigned char* ) & var, sizeof(templateType) * 8, true );

	push	1
	push	8
	lea	eax, DWORD PTR _var$[ebp]
	push	eax
	mov	ecx, DWORD PTR _this$[ebp]
	call	?WriteBits@BitStream@RakNet@@QAEXPBEH_N@Z ; RakNet::BitStream::WriteBits
$LN3@Write:

; 747  : 		}
; 748  : 	}

	pop	edi
	pop	esi
	pop	ebx
	add	esp, 204				; 000000ccH
	cmp	ebp, esp
	call	__RTC_CheckEsp
	mov	esp, ebp
	pop	ebp
	ret	4
??$Write@E@BitStream@RakNet@@QAEXE@Z ENDP		; RakNet::BitStream::Write<unsigned char>
_TEXT	ENDS
; Function compile flags: /Odtp /RTCsu /ZI
; File z:\sampsrc\02xu1\raknet\bitstream.h
;	COMDAT ??$Read@UNetworkID@@@BitStream@RakNet@@QAE_NAAUNetworkID@@@Z
_TEXT	SEGMENT
_this$ = -8						; size = 4
_var$ = 8						; size = 4
??$Read@UNetworkID@@@BitStream@RakNet@@QAE_NAAUNetworkID@@@Z PROC ; RakNet::BitStream::Read<NetworkID>, COMDAT
; _this$ = ecx

; 1044 : 	{

	push	ebp
	mov	ebp, esp
	sub	esp, 204				; 000000ccH
	push	ebx
	push	esi
	push	edi
	push	ecx
	lea	edi, DWORD PTR [ebp-204]
	mov	ecx, 51					; 00000033H
	mov	eax, -858993460				; ccccccccH
	rep stosd
	pop	ecx
	mov	DWORD PTR _this$[ebp], ecx

; 1045 : 		if (NetworkID::IsPeerToPeerMode()) // Use the function rather than directly access the member or DLL users will get an undefined external error

	call	?IsPeerToPeerMode@NetworkID@@SA_NXZ	; NetworkID::IsPeerToPeerMode
	movzx	eax, al
	test	eax, eax
	je	SHORT $LN1@Read

; 1046 : 			Read(var.playerId);

	mov	eax, DWORD PTR _var$[ebp]
	push	eax
	mov	ecx, DWORD PTR _this$[ebp]
	call	??$Read@UPlayerID@@@BitStream@RakNet@@QAE_NAAUPlayerID@@@Z ; RakNet::BitStream::Read<PlayerID>
$LN1@Read:

; 1047 : 		return Read(var.localSystemId);

	mov	eax, DWORD PTR _var$[ebp]
	add	eax, 6
	push	eax
	mov	ecx, DWORD PTR _this$[ebp]
	call	??$Read@G@BitStream@RakNet@@QAE_NAAG@Z	; RakNet::BitStream::Read<unsigned short>

; 1048 : 	}

	pop	edi
	pop	esi
	pop	ebx
	add	esp, 204				; 000000ccH
	cmp	ebp, esp
	call	__RTC_CheckEsp
	mov	esp, ebp
	pop	ebp
	ret	4
??$Read@UNetworkID@@@BitStream@RakNet@@QAE_NAAUNetworkID@@@Z ENDP ; RakNet::BitStream::Read<NetworkID>
_TEXT	ENDS
; Function compile flags: /Odtp /RTCsu /ZI
; File z:\sampsrc\02xu1\raknet\bitstream.h
;	COMDAT ??$Read@G@BitStream@RakNet@@QAE_NAAG@Z
_TEXT	SEGMENT
_this$ = -8						; size = 4
_var$ = 8						; size = 4
??$Read@G@BitStream@RakNet@@QAE_NAAG@Z PROC		; RakNet::BitStream::Read<unsigned short>, COMDAT
; _this$ = ecx

; 987  : 	{

	push	ebp
	mov	ebp, esp
	sub	esp, 204				; 000000ccH
	push	ebx
	push	esi
	push	edi
	push	ecx
	lea	edi, DWORD PTR [ebp-204]
	mov	ecx, 51					; 00000033H
	mov	eax, -858993460				; ccccccccH
	rep stosd
	pop	ecx
	mov	DWORD PTR _this$[ebp], ecx

; 988  : #ifdef _MSC_VER
; 989  : #pragma warning(disable:4127)   // conditional expression is constant
; 990  : #endif
; 991  : 		if (sizeof(var)==1)

	xor	eax, eax
	je	SHORT $LN2@Read

; 992  : 			return ReadBits( ( unsigned char* ) &var, sizeof(templateType) * 8, true );

	push	1
	push	16					; 00000010H
	mov	eax, DWORD PTR _var$[ebp]
	push	eax
	mov	ecx, DWORD PTR _this$[ebp]
	call	?ReadBits@BitStream@RakNet@@QAE_NPAEH_N@Z ; RakNet::BitStream::ReadBits
	jmp	SHORT $LN3@Read

; 993  : 		else

	jmp	SHORT $LN3@Read
$LN2@Read:

; 994  : 		{
; 995  : #ifndef __BITSTREAM_NATIVE_END
; 996  : #ifdef _MSC_VER
; 997  : #pragma warning(disable:4244)   // '=' : conversion from 'unsigned long' to 'unsigned short', possible loss of data
; 998  : #endif
; 999  : 			if (DoEndianSwap())
; 1000 : 			{
; 1001 : 				unsigned char output[sizeof(templateType)];
; 1002 : 				if (ReadBits( ( unsigned char* ) output, sizeof(templateType) * 8, true ))
; 1003 : 				{
; 1004 : 					ReverseBytes(output, (unsigned char*)&var, sizeof(templateType));
; 1005 : 					return true;
; 1006 : 				}
; 1007 : 				return false;
; 1008 : 			}
; 1009 : 			else
; 1010 : #endif
; 1011 : 				return ReadBits( ( unsigned char* ) & var, sizeof(templateType) * 8, true );

	push	1
	push	16					; 00000010H
	mov	eax, DWORD PTR _var$[ebp]
	push	eax
	mov	ecx, DWORD PTR _this$[ebp]
	call	?ReadBits@BitStream@RakNet@@QAE_NPAEH_N@Z ; RakNet::BitStream::ReadBits
$LN3@Read:

; 1012 : 		}
; 1013 : 	}

	pop	edi
	pop	esi
	pop	ebx
	add	esp, 204				; 000000ccH
	cmp	ebp, esp
	call	__RTC_CheckEsp
	mov	esp, ebp
	pop	ebp
	ret	4
??$Read@G@BitStream@RakNet@@QAE_NAAG@Z ENDP		; RakNet::BitStream::Read<unsigned short>
_TEXT	ENDS
; Function compile flags: /Odtp /RTCsu /ZI
; File z:\sampsrc\02xu1\raknet\bitstream.h
;	COMDAT ??$Read@I@BitStream@RakNet@@QAE_NAAI@Z
_TEXT	SEGMENT
_this$ = -8						; size = 4
_var$ = 8						; size = 4
??$Read@I@BitStream@RakNet@@QAE_NAAI@Z PROC		; RakNet::BitStream::Read<unsigned int>, COMDAT
; _this$ = ecx

; 987  : 	{

	push	ebp
	mov	ebp, esp
	sub	esp, 204				; 000000ccH
	push	ebx
	push	esi
	push	edi
	push	ecx
	lea	edi, DWORD PTR [ebp-204]
	mov	ecx, 51					; 00000033H
	mov	eax, -858993460				; ccccccccH
	rep stosd
	pop	ecx
	mov	DWORD PTR _this$[ebp], ecx

; 988  : #ifdef _MSC_VER
; 989  : #pragma warning(disable:4127)   // conditional expression is constant
; 990  : #endif
; 991  : 		if (sizeof(var)==1)

	xor	eax, eax
	je	SHORT $LN2@Read

; 992  : 			return ReadBits( ( unsigned char* ) &var, sizeof(templateType) * 8, true );

	push	1
	push	32					; 00000020H
	mov	eax, DWORD PTR _var$[ebp]
	push	eax
	mov	ecx, DWORD PTR _this$[ebp]
	call	?ReadBits@BitStream@RakNet@@QAE_NPAEH_N@Z ; RakNet::BitStream::ReadBits
	jmp	SHORT $LN3@Read

; 993  : 		else

	jmp	SHORT $LN3@Read
$LN2@Read:

; 994  : 		{
; 995  : #ifndef __BITSTREAM_NATIVE_END
; 996  : #ifdef _MSC_VER
; 997  : #pragma warning(disable:4244)   // '=' : conversion from 'unsigned long' to 'unsigned short', possible loss of data
; 998  : #endif
; 999  : 			if (DoEndianSwap())
; 1000 : 			{
; 1001 : 				unsigned char output[sizeof(templateType)];
; 1002 : 				if (ReadBits( ( unsigned char* ) output, sizeof(templateType) * 8, true ))
; 1003 : 				{
; 1004 : 					ReverseBytes(output, (unsigned char*)&var, sizeof(templateType));
; 1005 : 					return true;
; 1006 : 				}
; 1007 : 				return false;
; 1008 : 			}
; 1009 : 			else
; 1010 : #endif
; 1011 : 				return ReadBits( ( unsigned char* ) & var, sizeof(templateType) * 8, true );

	push	1
	push	32					; 00000020H
	mov	eax, DWORD PTR _var$[ebp]
	push	eax
	mov	ecx, DWORD PTR _this$[ebp]
	call	?ReadBits@BitStream@RakNet@@QAE_NPAEH_N@Z ; RakNet::BitStream::ReadBits
$LN3@Read:

; 1012 : 		}
; 1013 : 	}

	pop	edi
	pop	esi
	pop	ebx
	add	esp, 204				; 000000ccH
	cmp	ebp, esp
	call	__RTC_CheckEsp
	mov	esp, ebp
	pop	ebp
	ret	4
??$Read@I@BitStream@RakNet@@QAE_NAAI@Z ENDP		; RakNet::BitStream::Read<unsigned int>
_TEXT	ENDS
; Function compile flags: /Odtp /RTCsu /ZI
; File z:\sampsrc\02xu1\raknet\bitstream.h
;	COMDAT ??$Read@UPlayerID@@@BitStream@RakNet@@QAE_NAAUPlayerID@@@Z
_TEXT	SEGMENT
_this$ = -8						; size = 4
_var$ = 8						; size = 4
??$Read@UPlayerID@@@BitStream@RakNet@@QAE_NAAUPlayerID@@@Z PROC ; RakNet::BitStream::Read<PlayerID>, COMDAT
; _this$ = ecx

; 1035 : 	{

	push	ebp
	mov	ebp, esp
	sub	esp, 204				; 000000ccH
	push	ebx
	push	esi
	push	edi
	push	ecx
	lea	edi, DWORD PTR [ebp-204]
	mov	ecx, 51					; 00000033H
	mov	eax, -858993460				; ccccccccH
	rep stosd
	pop	ecx
	mov	DWORD PTR _this$[ebp], ecx

; 1036 : 		Read(var.binaryAddress);

	mov	eax, DWORD PTR _var$[ebp]
	push	eax
	mov	ecx, DWORD PTR _this$[ebp]
	call	??$Read@I@BitStream@RakNet@@QAE_NAAI@Z	; RakNet::BitStream::Read<unsigned int>

; 1037 : 		return Read(var.port);

	mov	eax, DWORD PTR _var$[ebp]
	add	eax, 4
	push	eax
	mov	ecx, DWORD PTR _this$[ebp]
	call	??$Read@G@BitStream@RakNet@@QAE_NAAG@Z	; RakNet::BitStream::Read<unsigned short>

; 1038 : 	}

	pop	edi
	pop	esi
	pop	ebx
	add	esp, 204				; 000000ccH
	cmp	ebp, esp
	call	__RTC_CheckEsp
	mov	esp, ebp
	pop	ebp
	ret	4
??$Read@UPlayerID@@@BitStream@RakNet@@QAE_NAAUPlayerID@@@Z ENDP ; RakNet::BitStream::Read<PlayerID>
_TEXT	ENDS
; Function compile flags: /Odtp /RTCsu /ZI
; File z:\sampsrc\02xu1\raknet\bitstream.h
;	COMDAT ??$Read@_N@BitStream@RakNet@@QAE_NAA_N@Z
_TEXT	SEGMENT
tv82 = -208						; size = 4
_this$ = -8						; size = 4
_var$ = 8						; size = 4
??$Read@_N@BitStream@RakNet@@QAE_NAA_N@Z PROC		; RakNet::BitStream::Read<bool>, COMDAT
; _this$ = ecx

; 1019 : 	{

	push	ebp
	mov	ebp, esp
	sub	esp, 208				; 000000d0H
	push	ebx
	push	esi
	push	edi
	push	ecx
	lea	edi, DWORD PTR [ebp-208]
	mov	ecx, 52					; 00000034H
	mov	eax, -858993460				; ccccccccH
	rep stosd
	pop	ecx
	mov	DWORD PTR _this$[ebp], ecx

; 1020 : 		if ( readOffset + 1 > numberOfBitsUsed )

	mov	eax, DWORD PTR _this$[ebp]
	mov	ecx, DWORD PTR [eax+8]
	add	ecx, 1
	mov	edx, DWORD PTR _this$[ebp]
	cmp	ecx, DWORD PTR [edx]
	jle	SHORT $LN3@Read

; 1021 : 			return false;

	xor	al, al
	jmp	SHORT $LN4@Read
$LN3@Read:

; 1022 : 
; 1023 : 		if ( data[ readOffset >> 3 ] & ( 0x80 >> ( readOffset++ % 8 ) ) )   // Is it faster to just write it out here?

	mov	eax, DWORD PTR _this$[ebp]
	mov	ecx, DWORD PTR [eax+8]
	sar	ecx, 3
	mov	edx, DWORD PTR _this$[ebp]
	mov	eax, DWORD PTR [edx+12]
	movzx	edx, BYTE PTR [eax+ecx]
	mov	eax, DWORD PTR _this$[ebp]
	mov	ecx, DWORD PTR [eax+8]
	and	ecx, -2147483641			; 80000007H
	jns	SHORT $LN6@Read
	dec	ecx
	or	ecx, -8					; fffffff8H
	inc	ecx
$LN6@Read:
	mov	eax, 128				; 00000080H
	sar	eax, cl
	and	edx, eax
	mov	DWORD PTR tv82[ebp], edx
	mov	ecx, DWORD PTR _this$[ebp]
	mov	edx, DWORD PTR [ecx+8]
	add	edx, 1
	mov	eax, DWORD PTR _this$[ebp]
	mov	DWORD PTR [eax+8], edx
	cmp	DWORD PTR tv82[ebp], 0
	je	SHORT $LN2@Read

; 1024 : 			var = true;

	mov	eax, DWORD PTR _var$[ebp]
	mov	BYTE PTR [eax], 1

; 1025 : 		else

	jmp	SHORT $LN1@Read
$LN2@Read:

; 1026 : 			var = false;

	mov	eax, DWORD PTR _var$[ebp]
	mov	BYTE PTR [eax], 0
$LN1@Read:

; 1027 : 
; 1028 : 		return true;

	mov	al, 1
$LN4@Read:

; 1029 : 	}

	pop	edi
	pop	esi
	pop	ebx
	mov	esp, ebp
	pop	ebp
	ret	4
??$Read@_N@BitStream@RakNet@@QAE_NAA_N@Z ENDP		; RakNet::BitStream::Read<bool>
_TEXT	ENDS
; Function compile flags: /Odtp /RTCsu /ZI
; File z:\sampsrc\02xu1\raknet\bitstream.h
;	COMDAT ??$Write@UNetworkID@@@BitStream@RakNet@@QAEXUNetworkID@@@Z
_TEXT	SEGMENT
_this$ = -8						; size = 4
_var$ = 8						; size = 8
??$Write@UNetworkID@@@BitStream@RakNet@@QAEXUNetworkID@@@Z PROC ; RakNet::BitStream::Write<NetworkID>, COMDAT
; _this$ = ecx

; 774  : 	{

	push	ebp
	mov	ebp, esp
	sub	esp, 204				; 000000ccH
	push	ebx
	push	esi
	push	edi
	push	ecx
	lea	edi, DWORD PTR [ebp-204]
	mov	ecx, 51					; 00000033H
	mov	eax, -858993460				; ccccccccH
	rep stosd
	pop	ecx
	mov	DWORD PTR _this$[ebp], ecx

; 775  : 		if (NetworkID::IsPeerToPeerMode()) // Use the function rather than directly access the member or DLL users will get an undefined external error

	call	?IsPeerToPeerMode@NetworkID@@SA_NXZ	; NetworkID::IsPeerToPeerMode
	movzx	eax, al
	test	eax, eax
	je	SHORT $LN1@Write

; 776  : 			Write(var.playerId);

	sub	esp, 8
	mov	eax, esp
	mov	ecx, DWORD PTR _var$[ebp]
	mov	DWORD PTR [eax], ecx
	mov	dx, WORD PTR _var$[ebp+4]
	mov	WORD PTR [eax+4], dx
	mov	ecx, DWORD PTR _this$[ebp]
	call	??$Write@UPlayerID@@@BitStream@RakNet@@QAEXUPlayerID@@@Z ; RakNet::BitStream::Write<PlayerID>
$LN1@Write:

; 777  : 		Write(var.localSystemId);

	movzx	eax, WORD PTR _var$[ebp+6]
	push	eax
	mov	ecx, DWORD PTR _this$[ebp]
	call	??$Write@G@BitStream@RakNet@@QAEXG@Z	; RakNet::BitStream::Write<unsigned short>

; 778  : 	}

	pop	edi
	pop	esi
	pop	ebx
	add	esp, 204				; 000000ccH
	cmp	ebp, esp
	call	__RTC_CheckEsp
	mov	esp, ebp
	pop	ebp
	ret	8
??$Write@UNetworkID@@@BitStream@RakNet@@QAEXUNetworkID@@@Z ENDP ; RakNet::BitStream::Write<NetworkID>
_TEXT	ENDS
; Function compile flags: /Odtp /RTCsu /ZI
; File z:\sampsrc\02xu1\raknet\bitstream.h
;	COMDAT ??$Write@G@BitStream@RakNet@@QAEXG@Z
_TEXT	SEGMENT
_this$ = -8						; size = 4
_var$ = 8						; size = 2
??$Write@G@BitStream@RakNet@@QAEXG@Z PROC		; RakNet::BitStream::Write<unsigned short>, COMDAT
; _this$ = ecx

; 729  : 	{

	push	ebp
	mov	ebp, esp
	sub	esp, 204				; 000000ccH
	push	ebx
	push	esi
	push	edi
	push	ecx
	lea	edi, DWORD PTR [ebp-204]
	mov	ecx, 51					; 00000033H
	mov	eax, -858993460				; ccccccccH
	rep stosd
	pop	ecx
	mov	DWORD PTR _this$[ebp], ecx

; 730  : #ifdef _MSC_VER
; 731  : #pragma warning(disable:4127)   // conditional expression is constant
; 732  : #endif
; 733  : 		if (sizeof(var)==1)

	xor	eax, eax
	je	SHORT $LN2@Write

; 734  : 			WriteBits( ( unsigned char* ) & var, sizeof( templateType ) * 8, true );

	push	1
	push	16					; 00000010H
	lea	eax, DWORD PTR _var$[ebp]
	push	eax
	mov	ecx, DWORD PTR _this$[ebp]
	call	?WriteBits@BitStream@RakNet@@QAEXPBEH_N@Z ; RakNet::BitStream::WriteBits

; 735  : 		else

	jmp	SHORT $LN3@Write
$LN2@Write:

; 736  : 		{
; 737  : #ifndef __BITSTREAM_NATIVE_END
; 738  : 			if (DoEndianSwap())
; 739  : 			{
; 740  : 				unsigned char output[sizeof(templateType)];
; 741  : 				ReverseBytes((unsigned char*)&var, output, sizeof(templateType));
; 742  : 				WriteBits( ( unsigned char* ) output, sizeof(templateType) * 8, true );
; 743  : 			}
; 744  : 			else
; 745  : #endif
; 746  : 				WriteBits( ( unsigned char* ) & var, sizeof(templateType) * 8, true );

	push	1
	push	16					; 00000010H
	lea	eax, DWORD PTR _var$[ebp]
	push	eax
	mov	ecx, DWORD PTR _this$[ebp]
	call	?WriteBits@BitStream@RakNet@@QAEXPBEH_N@Z ; RakNet::BitStream::WriteBits
$LN3@Write:

; 747  : 		}
; 748  : 	}

	pop	edi
	pop	esi
	pop	ebx
	add	esp, 204				; 000000ccH
	cmp	ebp, esp
	call	__RTC_CheckEsp
	mov	esp, ebp
	pop	ebp
	ret	4
??$Write@G@BitStream@RakNet@@QAEXG@Z ENDP		; RakNet::BitStream::Write<unsigned short>
_TEXT	ENDS
; Function compile flags: /Odtp /RTCsu /ZI
; File z:\sampsrc\02xu1\raknet\bitstream.h
;	COMDAT ??$Write@I@BitStream@RakNet@@QAEXI@Z
_TEXT	SEGMENT
_this$ = -8						; size = 4
_var$ = 8						; size = 4
??$Write@I@BitStream@RakNet@@QAEXI@Z PROC		; RakNet::BitStream::Write<unsigned int>, COMDAT
; _this$ = ecx

; 729  : 	{

	push	ebp
	mov	ebp, esp
	sub	esp, 204				; 000000ccH
	push	ebx
	push	esi
	push	edi
	push	ecx
	lea	edi, DWORD PTR [ebp-204]
	mov	ecx, 51					; 00000033H
	mov	eax, -858993460				; ccccccccH
	rep stosd
	pop	ecx
	mov	DWORD PTR _this$[ebp], ecx

; 730  : #ifdef _MSC_VER
; 731  : #pragma warning(disable:4127)   // conditional expression is constant
; 732  : #endif
; 733  : 		if (sizeof(var)==1)

	xor	eax, eax
	je	SHORT $LN2@Write

; 734  : 			WriteBits( ( unsigned char* ) & var, sizeof( templateType ) * 8, true );

	push	1
	push	32					; 00000020H
	lea	eax, DWORD PTR _var$[ebp]
	push	eax
	mov	ecx, DWORD PTR _this$[ebp]
	call	?WriteBits@BitStream@RakNet@@QAEXPBEH_N@Z ; RakNet::BitStream::WriteBits

; 735  : 		else

	jmp	SHORT $LN3@Write
$LN2@Write:

; 736  : 		{
; 737  : #ifndef __BITSTREAM_NATIVE_END
; 738  : 			if (DoEndianSwap())
; 739  : 			{
; 740  : 				unsigned char output[sizeof(templateType)];
; 741  : 				ReverseBytes((unsigned char*)&var, output, sizeof(templateType));
; 742  : 				WriteBits( ( unsigned char* ) output, sizeof(templateType) * 8, true );
; 743  : 			}
; 744  : 			else
; 745  : #endif
; 746  : 				WriteBits( ( unsigned char* ) & var, sizeof(templateType) * 8, true );

	push	1
	push	32					; 00000020H
	lea	eax, DWORD PTR _var$[ebp]
	push	eax
	mov	ecx, DWORD PTR _this$[ebp]
	call	?WriteBits@BitStream@RakNet@@QAEXPBEH_N@Z ; RakNet::BitStream::WriteBits
$LN3@Write:

; 747  : 		}
; 748  : 	}

	pop	edi
	pop	esi
	pop	ebx
	add	esp, 204				; 000000ccH
	cmp	ebp, esp
	call	__RTC_CheckEsp
	mov	esp, ebp
	pop	ebp
	ret	4
??$Write@I@BitStream@RakNet@@QAEXI@Z ENDP		; RakNet::BitStream::Write<unsigned int>
_TEXT	ENDS
; Function compile flags: /Odtp /RTCsu /ZI
; File z:\sampsrc\02xu1\raknet\bitstream.h
;	COMDAT ??$Write@UPlayerID@@@BitStream@RakNet@@QAEXUPlayerID@@@Z
_TEXT	SEGMENT
_this$ = -8						; size = 4
_var$ = 8						; size = 6
??$Write@UPlayerID@@@BitStream@RakNet@@QAEXUPlayerID@@@Z PROC ; RakNet::BitStream::Write<PlayerID>, COMDAT
; _this$ = ecx

; 765  : 	{

	push	ebp
	mov	ebp, esp
	sub	esp, 204				; 000000ccH
	push	ebx
	push	esi
	push	edi
	push	ecx
	lea	edi, DWORD PTR [ebp-204]
	mov	ecx, 51					; 00000033H
	mov	eax, -858993460				; ccccccccH
	rep stosd
	pop	ecx
	mov	DWORD PTR _this$[ebp], ecx

; 766  : 		Write(var.binaryAddress);

	mov	eax, DWORD PTR _var$[ebp]
	push	eax
	mov	ecx, DWORD PTR _this$[ebp]
	call	??$Write@I@BitStream@RakNet@@QAEXI@Z	; RakNet::BitStream::Write<unsigned int>

; 767  : 		Write(var.port);

	movzx	eax, WORD PTR _var$[ebp+4]
	push	eax
	mov	ecx, DWORD PTR _this$[ebp]
	call	??$Write@G@BitStream@RakNet@@QAEXG@Z	; RakNet::BitStream::Write<unsigned short>

; 768  : 	}

	pop	edi
	pop	esi
	pop	ebx
	add	esp, 204				; 000000ccH
	cmp	ebp, esp
	call	__RTC_CheckEsp
	mov	esp, ebp
	pop	ebp
	ret	8
??$Write@UPlayerID@@@BitStream@RakNet@@QAEXUPlayerID@@@Z ENDP ; RakNet::BitStream::Write<PlayerID>
_TEXT	ENDS
; Function compile flags: /Odtp /RTCsu /ZI
; File z:\sampsrc\02xu1\raknet\bitstream.h
;	COMDAT ??$Write@_N@BitStream@RakNet@@QAEX_N@Z
_TEXT	SEGMENT
_this$ = -8						; size = 4
_var$ = 8						; size = 1
??$Write@_N@BitStream@RakNet@@QAEX_N@Z PROC		; RakNet::BitStream::Write<bool>, COMDAT
; _this$ = ecx

; 754  : 	{

	push	ebp
	mov	ebp, esp
	sub	esp, 204				; 000000ccH
	push	ebx
	push	esi
	push	edi
	push	ecx
	lea	edi, DWORD PTR [ebp-204]
	mov	ecx, 51					; 00000033H
	mov	eax, -858993460				; ccccccccH
	rep stosd
	pop	ecx
	mov	DWORD PTR _this$[ebp], ecx

; 755  : 		if ( var )

	movzx	eax, BYTE PTR _var$[ebp]
	test	eax, eax
	je	SHORT $LN2@Write

; 756  : 			Write1();

	mov	ecx, DWORD PTR _this$[ebp]
	call	?Write1@BitStream@RakNet@@QAEXXZ	; RakNet::BitStream::Write1

; 757  : 		else

	jmp	SHORT $LN3@Write
$LN2@Write:

; 758  : 			Write0();

	mov	ecx, DWORD PTR _this$[ebp]
	call	?Write0@BitStream@RakNet@@QAEXXZ	; RakNet::BitStream::Write0
$LN3@Write:

; 759  : 	}

	pop	edi
	pop	esi
	pop	ebx
	add	esp, 204				; 000000ccH
	cmp	ebp, esp
	call	__RTC_CheckEsp
	mov	esp, ebp
	pop	ebp
	ret	4
??$Write@_N@BitStream@RakNet@@QAEX_N@Z ENDP		; RakNet::BitStream::Write<bool>
_TEXT	ENDS
; Function compile flags: /Odtp /RTCsu /ZI
;	COMDAT ??_GBitStream@RakNet@@QAEPAXI@Z
_TEXT	SEGMENT
_this$ = -8						; size = 4
___flags$ = 8						; size = 4
??_GBitStream@RakNet@@QAEPAXI@Z PROC			; RakNet::BitStream::`scalar deleting destructor', COMDAT
; _this$ = ecx
	push	ebp
	mov	ebp, esp
	sub	esp, 204				; 000000ccH
	push	ebx
	push	esi
	push	edi
	push	ecx
	lea	edi, DWORD PTR [ebp-204]
	mov	ecx, 51					; 00000033H
	mov	eax, -858993460				; ccccccccH
	rep stosd
	pop	ecx
	mov	DWORD PTR _this$[ebp], ecx
	mov	ecx, DWORD PTR _this$[ebp]
	call	??1BitStream@RakNet@@QAE@XZ		; RakNet::BitStream::~BitStream
	mov	eax, DWORD PTR ___flags$[ebp]
	and	eax, 1
	je	SHORT $LN1@scalar
	mov	eax, DWORD PTR _this$[ebp]
	push	eax
	call	??3@YAXPAX@Z				; operator delete
	add	esp, 4
$LN1@scalar:
	mov	eax, DWORD PTR _this$[ebp]
	pop	edi
	pop	esi
	pop	ebx
	add	esp, 204				; 000000ccH
	cmp	ebp, esp
	call	__RTC_CheckEsp
	mov	esp, ebp
	pop	ebp
	ret	4
??_GBitStream@RakNet@@QAEPAXI@Z ENDP			; RakNet::BitStream::`scalar deleting destructor'
_TEXT	ENDS
; Function compile flags: /Odtp /RTCsu /ZI
; File z:\sampsrc\02xu1\raknet\bitstream.h
;	COMDAT ?GetWriteOffset@BitStream@RakNet@@QBEHXZ
_TEXT	SEGMENT
_this$ = -8						; size = 4
?GetWriteOffset@BitStream@RakNet@@QBEHXZ PROC		; RakNet::BitStream::GetWriteOffset, COMDAT
; _this$ = ecx

; 370  : 		inline int GetWriteOffset( void ) const {return numberOfBitsUsed;}

	push	ebp
	mov	ebp, esp
	sub	esp, 204				; 000000ccH
	push	ebx
	push	esi
	push	edi
	push	ecx
	lea	edi, DWORD PTR [ebp-204]
	mov	ecx, 51					; 00000033H
	mov	eax, -858993460				; ccccccccH
	rep stosd
	pop	ecx
	mov	DWORD PTR _this$[ebp], ecx
	mov	eax, DWORD PTR _this$[ebp]
	mov	eax, DWORD PTR [eax]
	pop	edi
	pop	esi
	pop	ebx
	mov	esp, ebp
	pop	ebp
	ret	0
?GetWriteOffset@BitStream@RakNet@@QBEHXZ ENDP		; RakNet::BitStream::GetWriteOffset
_TEXT	ENDS
; Function compile flags: /Odtp /RTCsu /ZI
; File z:\sampsrc\02xu1\raknet\bitstream.h
;	COMDAT ?GetNumberOfBitsUsed@BitStream@RakNet@@QBEHXZ
_TEXT	SEGMENT
_this$ = -8						; size = 4
?GetNumberOfBitsUsed@BitStream@RakNet@@QBEHXZ PROC	; RakNet::BitStream::GetNumberOfBitsUsed, COMDAT
; _this$ = ecx

; 369  : 		inline int GetNumberOfBitsUsed( void ) const {return GetWriteOffset();}

	push	ebp
	mov	ebp, esp
	sub	esp, 204				; 000000ccH
	push	ebx
	push	esi
	push	edi
	push	ecx
	lea	edi, DWORD PTR [ebp-204]
	mov	ecx, 51					; 00000033H
	mov	eax, -858993460				; ccccccccH
	rep stosd
	pop	ecx
	mov	DWORD PTR _this$[ebp], ecx
	mov	ecx, DWORD PTR _this$[ebp]
	call	?GetWriteOffset@BitStream@RakNet@@QBEHXZ ; RakNet::BitStream::GetWriteOffset
	pop	edi
	pop	esi
	pop	ebx
	add	esp, 204				; 000000ccH
	cmp	ebp, esp
	call	__RTC_CheckEsp
	mov	esp, ebp
	pop	ebp
	ret	0
?GetNumberOfBitsUsed@BitStream@RakNet@@QBEHXZ ENDP	; RakNet::BitStream::GetNumberOfBitsUsed
_TEXT	ENDS
; Function compile flags: /Odtp /RTCsu /ZI
; File z:\sampsrc\02xu1\raknet\replicamanager.cpp
;	COMDAT ?GetParticipantByPlayerID@ReplicaManager@@IBEPAUParticipantStruct@1@UPlayerID@@@Z
_TEXT	SEGMENT
_index$ = -32						; size = 4
_objectExists$ = -17					; size = 1
_this$ = -8						; size = 4
_playerId$ = 8						; size = 6
?GetParticipantByPlayerID@ReplicaManager@@IBEPAUParticipantStruct@1@UPlayerID@@@Z PROC ; ReplicaManager::GetParticipantByPlayerID, COMDAT
; _this$ = ecx

; 907  : {

	push	ebp
	mov	ebp, esp
	sub	esp, 228				; 000000e4H
	push	ebx
	push	esi
	push	edi
	push	ecx
	lea	edi, DWORD PTR [ebp-228]
	mov	ecx, 57					; 00000039H
	mov	eax, -858993460				; ccccccccH
	rep stosd
	pop	ecx
	mov	DWORD PTR _this$[ebp], ecx

; 908  : 	bool objectExists;
; 909  : 	unsigned index;
; 910  : 	index = participantList.GetIndexFromKey(playerId, &objectExists);

	lea	eax, DWORD PTR _objectExists$[ebp]
	push	eax
	lea	ecx, DWORD PTR _playerId$[ebp]
	push	ecx
	mov	ecx, DWORD PTR _this$[ebp]
	add	ecx, 16					; 00000010H
	call	?GetIndexFromKey@?$OrderedList@UPlayerID@@PAUParticipantStruct@ReplicaManager@@$1?ParticipantStructComp@3@SAHABU1@ABQAU23@@Z@DataStructures@@QBEIABUPlayerID@@PA_N@Z ; DataStructures::OrderedList<PlayerID,ReplicaManager::ParticipantStruct *,&ReplicaManager::ParticipantStructComp>::GetIndexFromKey
	mov	DWORD PTR _index$[ebp], eax

; 911  : 	if (objectExists==false)

	movzx	eax, BYTE PTR _objectExists$[ebp]
	test	eax, eax
	jne	SHORT $LN1@GetPartici

; 912  : 		return 0;

	xor	eax, eax
	jmp	SHORT $LN2@GetPartici
$LN1@GetPartici:

; 913  : 	return participantList[index];

	mov	eax, DWORD PTR _index$[ebp]
	push	eax
	mov	ecx, DWORD PTR _this$[ebp]
	add	ecx, 16					; 00000010H
	call	??A?$OrderedList@UPlayerID@@PAUParticipantStruct@ReplicaManager@@$1?ParticipantStructComp@3@SAHABU1@ABQAU23@@Z@DataStructures@@QBEAAPAUParticipantStruct@ReplicaManager@@I@Z ; DataStructures::OrderedList<PlayerID,ReplicaManager::ParticipantStruct *,&ReplicaManager::ParticipantStructComp>::operator[]
	mov	eax, DWORD PTR [eax]
$LN2@GetPartici:

; 914  : }

	push	edx
	mov	ecx, ebp
	push	eax
	lea	edx, DWORD PTR $LN6@GetPartici
	call	@_RTC_CheckStackVars@8
	pop	eax
	pop	edx
	pop	edi
	pop	esi
	pop	ebx
	add	esp, 228				; 000000e4H
	cmp	ebp, esp
	call	__RTC_CheckEsp
	mov	esp, ebp
	pop	ebp
	ret	8
	npad	3
$LN6@GetPartici:
	DD	1
	DD	$LN5@GetPartici
$LN5@GetPartici:
	DD	-17					; ffffffefH
	DD	1
	DD	$LN4@GetPartici
$LN4@GetPartici:
	DB	111					; 0000006fH
	DB	98					; 00000062H
	DB	106					; 0000006aH
	DB	101					; 00000065H
	DB	99					; 00000063H
	DB	116					; 00000074H
	DB	69					; 00000045H
	DB	120					; 00000078H
	DB	105					; 00000069H
	DB	115					; 00000073H
	DB	116					; 00000074H
	DB	115					; 00000073H
	DB	0
?GetParticipantByPlayerID@ReplicaManager@@IBEPAUParticipantStruct@1@UPlayerID@@@Z ENDP ; ReplicaManager::GetParticipantByPlayerID
_TEXT	ENDS
; Function compile flags: /Odtp /RTCsu /ZI
; File z:\sampsrc\02xu1\raknet\ds_list.h
;	COMDAT ?Clear@?$List@PAUParticipantStruct@ReplicaManager@@@DataStructures@@QAEX_N@Z
_TEXT	SEGMENT
$T1 = -212						; size = 4
_this$ = -8						; size = 4
_doNotDeallocate$ = 8					; size = 1
?Clear@?$List@PAUParticipantStruct@ReplicaManager@@@DataStructures@@QAEX_N@Z PROC ; DataStructures::List<ReplicaManager::ParticipantStruct *>::Clear, COMDAT
; _this$ = ecx

; 379  : 	{

	push	ebp
	mov	ebp, esp
	sub	esp, 216				; 000000d8H
	push	ebx
	push	esi
	push	edi
	push	ecx
	lea	edi, DWORD PTR [ebp-216]
	mov	ecx, 54					; 00000036H
	mov	eax, -858993460				; ccccccccH
	rep stosd
	pop	ecx
	mov	DWORD PTR _this$[ebp], ecx

; 380  : 		if ( allocation_size == 0 )

	mov	eax, DWORD PTR _this$[ebp]
	cmp	DWORD PTR [eax+8], 0
	jne	SHORT $LN2@Clear

; 381  : 			return;

	jmp	SHORT $LN3@Clear
$LN2@Clear:

; 382  : 
; 383  : 		if (allocation_size>512 && doNotDeallocate==false)

	mov	eax, DWORD PTR _this$[ebp]
	cmp	DWORD PTR [eax+8], 512			; 00000200H
	jbe	SHORT $LN1@Clear
	movzx	eax, BYTE PTR _doNotDeallocate$[ebp]
	test	eax, eax
	jne	SHORT $LN1@Clear

; 384  : 		{
; 385  : 			delete [] listArray;

	mov	eax, DWORD PTR _this$[ebp]
	mov	ecx, DWORD PTR [eax]
	mov	DWORD PTR $T1[ebp], ecx
	mov	edx, DWORD PTR $T1[ebp]
	push	edx
	call	??3@YAXPAX@Z				; operator delete
	add	esp, 4

; 386  : 			allocation_size = 0;

	mov	eax, DWORD PTR _this$[ebp]
	mov	DWORD PTR [eax+8], 0

; 387  : 			listArray = 0;

	mov	eax, DWORD PTR _this$[ebp]
	mov	DWORD PTR [eax], 0
$LN1@Clear:

; 388  : 		}
; 389  : 		list_size = 0;

	mov	eax, DWORD PTR _this$[ebp]
	mov	DWORD PTR [eax+4], 0
$LN3@Clear:

; 390  : 	}

	pop	edi
	pop	esi
	pop	ebx
	add	esp, 216				; 000000d8H
	cmp	ebp, esp
	call	__RTC_CheckEsp
	mov	esp, ebp
	pop	ebp
	ret	4
?Clear@?$List@PAUParticipantStruct@ReplicaManager@@@DataStructures@@QAEX_N@Z ENDP ; DataStructures::List<ReplicaManager::ParticipantStruct *>::Clear
_TEXT	ENDS
; Function compile flags: /Odtp /RTCsu /ZI
; File z:\sampsrc\02xu1\raknet\ds_list.h
;	COMDAT ?Size@?$List@PAUParticipantStruct@ReplicaManager@@@DataStructures@@QBEIXZ
_TEXT	SEGMENT
_this$ = -8						; size = 4
?Size@?$List@PAUParticipantStruct@ReplicaManager@@@DataStructures@@QBEIXZ PROC ; DataStructures::List<ReplicaManager::ParticipantStruct *>::Size, COMDAT
; _this$ = ecx

; 373  : 	{

	push	ebp
	mov	ebp, esp
	sub	esp, 204				; 000000ccH
	push	ebx
	push	esi
	push	edi
	push	ecx
	lea	edi, DWORD PTR [ebp-204]
	mov	ecx, 51					; 00000033H
	mov	eax, -858993460				; ccccccccH
	rep stosd
	pop	ecx
	mov	DWORD PTR _this$[ebp], ecx

; 374  : 		return list_size;

	mov	eax, DWORD PTR _this$[ebp]
	mov	eax, DWORD PTR [eax+4]

; 375  : 	}

	pop	edi
	pop	esi
	pop	ebx
	mov	esp, ebp
	pop	ebp
	ret	0
?Size@?$List@PAUParticipantStruct@ReplicaManager@@@DataStructures@@QBEIXZ ENDP ; DataStructures::List<ReplicaManager::ParticipantStruct *>::Size
_TEXT	ENDS
; Function compile flags: /Odtp /RTCsu /ZI
; File z:\sampsrc\02xu1\raknet\ds_list.h
;	COMDAT ?Del@?$List@PAUParticipantStruct@ReplicaManager@@@DataStructures@@QAEXI@Z
_TEXT	SEGMENT
_this$ = -8						; size = 4
_num$ = 8						; size = 4
?Del@?$List@PAUParticipantStruct@ReplicaManager@@@DataStructures@@QAEXI@Z PROC ; DataStructures::List<ReplicaManager::ParticipantStruct *>::Del, COMDAT
; _this$ = ecx

; 353  : 	{

	push	ebp
	mov	ebp, esp
	sub	esp, 204				; 000000ccH
	push	ebx
	push	esi
	push	edi
	push	ecx
	lea	edi, DWORD PTR [ebp-204]
	mov	ecx, 51					; 00000033H
	mov	eax, -858993460				; ccccccccH
	rep stosd
	pop	ecx
	mov	DWORD PTR _this$[ebp], ecx

; 354  : 		// Delete the last elements on the list.  No compression needed
; 355  : #ifdef _DEBUG
; 356  : 		assert(list_size>=num);

	mov	eax, DWORD PTR _this$[ebp]
	mov	ecx, DWORD PTR [eax+4]
	cmp	ecx, DWORD PTR _num$[ebp]
	jae	SHORT $LN3@Del
	push	356					; 00000164H
	push	OFFSET ??_C@_1EE@MBOIAKFO@?$AAz?$AA?3?$AA?2?$AAs?$AAa?$AAm?$AAp?$AAs?$AAr?$AAc?$AA?2?$AA0?$AA2?$AAx?$AAu?$AA1?$AA?2?$AAr?$AAa?$AAk?$AAn?$AAe?$AAt?$AA?2?$AAd?$AAs?$AA_?$AAl?$AAi?$AAs?$AAt?$AA?4@
	push	OFFSET ??_C@_1BO@JBFMBKMD@?$AAl?$AAi?$AAs?$AAt?$AA_?$AAs?$AAi?$AAz?$AAe?$AA?$DO?$AA?$DN?$AAn?$AAu?$AAm?$AA?$AA@
	call	__wassert
	add	esp, 12					; 0000000cH
$LN3@Del:

; 357  : #endif
; 358  : 		list_size-=num;

	mov	eax, DWORD PTR _this$[ebp]
	mov	ecx, DWORD PTR [eax+4]
	sub	ecx, DWORD PTR _num$[ebp]
	mov	edx, DWORD PTR _this$[ebp]
	mov	DWORD PTR [edx+4], ecx

; 359  : 	}

	pop	edi
	pop	esi
	pop	ebx
	add	esp, 204				; 000000ccH
	cmp	ebp, esp
	call	__RTC_CheckEsp
	mov	esp, ebp
	pop	ebp
	ret	4
?Del@?$List@PAUParticipantStruct@ReplicaManager@@@DataStructures@@QAEXI@Z ENDP ; DataStructures::List<ReplicaManager::ParticipantStruct *>::Del
_TEXT	ENDS
; Function compile flags: /Odtp /RTCsu /ZI
; File z:\sampsrc\02xu1\raknet\ds_list.h
;	COMDAT ?RemoveAtIndex@?$List@PAUParticipantStruct@ReplicaManager@@@DataStructures@@QAEXI@Z
_TEXT	SEGMENT
_this$ = -8						; size = 4
_position$ = 8						; size = 4
?RemoveAtIndex@?$List@PAUParticipantStruct@ReplicaManager@@@DataStructures@@QAEXI@Z PROC ; DataStructures::List<ReplicaManager::ParticipantStruct *>::RemoveAtIndex, COMDAT
; _this$ = ecx

; 333  : 	{

	push	ebp
	mov	ebp, esp
	sub	esp, 204				; 000000ccH
	push	ebx
	push	esi
	push	edi
	push	ecx
	lea	edi, DWORD PTR [ebp-204]
	mov	ecx, 51					; 00000033H
	mov	eax, -858993460				; ccccccccH
	rep stosd
	pop	ecx
	mov	DWORD PTR _this$[ebp], ecx

; 334  : #ifdef _DEBUG
; 335  : 		assert( position < list_size );

	mov	eax, DWORD PTR _this$[ebp]
	mov	ecx, DWORD PTR _position$[ebp]
	cmp	ecx, DWORD PTR [eax+4]
	jb	SHORT $LN4@RemoveAtIn
	push	335					; 0000014fH
	push	OFFSET ??_C@_1EE@MBOIAKFO@?$AAz?$AA?3?$AA?2?$AAs?$AAa?$AAm?$AAp?$AAs?$AAr?$AAc?$AA?2?$AA0?$AA2?$AAx?$AAu?$AA1?$AA?2?$AAr?$AAa?$AAk?$AAn?$AAe?$AAt?$AA?2?$AAd?$AAs?$AA_?$AAl?$AAi?$AAs?$AAt?$AA?4@
	push	OFFSET ??_C@_1CK@HINNGFPG@?$AAp?$AAo?$AAs?$AAi?$AAt?$AAi?$AAo?$AAn?$AA?5?$AA?$DM?$AA?5?$AAl?$AAi?$AAs?$AAt?$AA_?$AAs?$AAi?$AAz?$AAe?$AA?$AA@
	call	__wassert
	add	esp, 12					; 0000000cH
$LN4@RemoveAtIn:

; 336  : #endif
; 337  : 
; 338  : 		if ( position < list_size )

	mov	eax, DWORD PTR _this$[ebp]
	mov	ecx, DWORD PTR _position$[ebp]
	cmp	ecx, DWORD PTR [eax+4]
	jae	SHORT $LN2@RemoveAtIn

; 339  : 		{
; 340  : 			// Compress the array
; 341  : 			/*
; 342  : 			for ( unsigned int counter = position; counter < list_size - 1 ; ++counter )
; 343  : 			listArray[ counter ] = listArray[ counter + 1 ];
; 344  : 			*/
; 345  : 			memmove(listArray+position, listArray+position+1, (list_size-1-position) * sizeof(list_type));

	mov	eax, DWORD PTR _this$[ebp]
	mov	ecx, DWORD PTR [eax+4]
	sub	ecx, 1
	sub	ecx, DWORD PTR _position$[ebp]
	shl	ecx, 2
	push	ecx
	mov	edx, DWORD PTR _this$[ebp]
	mov	eax, DWORD PTR [edx]
	mov	ecx, DWORD PTR _position$[ebp]
	lea	edx, DWORD PTR [eax+ecx*4+4]
	push	edx
	mov	eax, DWORD PTR _this$[ebp]
	mov	ecx, DWORD PTR [eax]
	mov	edx, DWORD PTR _position$[ebp]
	lea	eax, DWORD PTR [ecx+edx*4]
	push	eax
	call	_memmove
	add	esp, 12					; 0000000cH

; 346  : 
; 347  : 			Del();

	push	1
	mov	ecx, DWORD PTR _this$[ebp]
	call	?Del@?$List@PAUParticipantStruct@ReplicaManager@@@DataStructures@@QAEXI@Z ; DataStructures::List<ReplicaManager::ParticipantStruct *>::Del
$LN2@RemoveAtIn:

; 348  : 		}
; 349  : 	}

	pop	edi
	pop	esi
	pop	ebx
	add	esp, 204				; 000000ccH
	cmp	ebp, esp
	call	__RTC_CheckEsp
	mov	esp, ebp
	pop	ebp
	ret	4
?RemoveAtIndex@?$List@PAUParticipantStruct@ReplicaManager@@@DataStructures@@QAEXI@Z ENDP ; DataStructures::List<ReplicaManager::ParticipantStruct *>::RemoveAtIndex
_TEXT	ENDS
; Function compile flags: /Odtp /RTCsu /ZI
; File z:\sampsrc\02xu1\raknet\ds_list.h
;	COMDAT ?Insert@?$List@PAUParticipantStruct@ReplicaManager@@@DataStructures@@QAEXQAUParticipantStruct@ReplicaManager@@@Z
_TEXT	SEGMENT
$T1 = -236						; size = 4
$T2 = -224						; size = 4
_new_array$3 = -20					; size = 4
_this$ = -8						; size = 4
_input$ = 8						; size = 4
?Insert@?$List@PAUParticipantStruct@ReplicaManager@@@DataStructures@@QAEXQAUParticipantStruct@ReplicaManager@@@Z PROC ; DataStructures::List<ReplicaManager::ParticipantStruct *>::Insert, COMDAT
; _this$ = ecx

; 242  : 	{

	push	ebp
	mov	ebp, esp
	sub	esp, 240				; 000000f0H
	push	ebx
	push	esi
	push	edi
	push	ecx
	lea	edi, DWORD PTR [ebp-240]
	mov	ecx, 60					; 0000003cH
	mov	eax, -858993460				; ccccccccH
	rep stosd
	pop	ecx
	mov	DWORD PTR _this$[ebp], ecx

; 243  : 		// Reallocate list if necessary
; 244  : 
; 245  : 		if ( list_size == allocation_size )

	mov	eax, DWORD PTR _this$[ebp]
	mov	ecx, DWORD PTR _this$[ebp]
	mov	edx, DWORD PTR [eax+4]
	cmp	edx, DWORD PTR [ecx+8]
	jne	$LN3@Insert

; 246  : 		{
; 247  : 			// allocate twice the currently allocated memory
; 248  : 			list_type * new_array;
; 249  : 
; 250  : 			if ( allocation_size == 0 )

	mov	eax, DWORD PTR _this$[ebp]
	cmp	DWORD PTR [eax+8], 0
	jne	SHORT $LN2@Insert

; 251  : 				allocation_size = 16;

	mov	eax, DWORD PTR _this$[ebp]
	mov	DWORD PTR [eax+8], 16			; 00000010H

; 252  : 			else

	jmp	SHORT $LN1@Insert
$LN2@Insert:

; 253  : 				allocation_size *= 2;

	mov	eax, DWORD PTR _this$[ebp]
	mov	ecx, DWORD PTR [eax+8]
	shl	ecx, 1
	mov	edx, DWORD PTR _this$[ebp]
	mov	DWORD PTR [edx+8], ecx
$LN1@Insert:

; 254  : 
; 255  : 			new_array = new list_type [ allocation_size ];

	xor	ecx, ecx
	mov	edx, DWORD PTR _this$[ebp]
	mov	eax, DWORD PTR [edx+8]
	mov	edx, 4
	mul	edx
	seto	cl
	neg	ecx
	or	ecx, eax
	push	ecx
	call	??2@YAPAXI@Z				; operator new
	add	esp, 4
	mov	DWORD PTR $T1[ebp], eax
	mov	eax, DWORD PTR $T1[ebp]
	mov	DWORD PTR _new_array$3[ebp], eax

; 256  : 
; 257  : 			// copy old array over
; 258  : 			//	for ( unsigned int counter = 0; counter < list_size; ++counter )
; 259  : 			//		new_array[ counter ] = listArray[ counter ];
; 260  : 
; 261  : 			// Don't call constructors, assignment operators, etc.
; 262  : 			memcpy(new_array, listArray, list_size*sizeof(list_type));

	mov	eax, DWORD PTR _this$[ebp]
	mov	ecx, DWORD PTR [eax+4]
	shl	ecx, 2
	push	ecx
	mov	edx, DWORD PTR _this$[ebp]
	mov	eax, DWORD PTR [edx]
	push	eax
	mov	ecx, DWORD PTR _new_array$3[ebp]
	push	ecx
	call	_memcpy
	add	esp, 12					; 0000000cH

; 263  : 
; 264  : 			// set old array to point to the newly allocated and twice as large array
; 265  : 			delete[] listArray;

	mov	eax, DWORD PTR _this$[ebp]
	mov	ecx, DWORD PTR [eax]
	mov	DWORD PTR $T2[ebp], ecx
	mov	edx, DWORD PTR $T2[ebp]
	push	edx
	call	??3@YAXPAX@Z				; operator delete
	add	esp, 4

; 266  : 
; 267  : 			listArray = new_array;

	mov	eax, DWORD PTR _this$[ebp]
	mov	ecx, DWORD PTR _new_array$3[ebp]
	mov	DWORD PTR [eax], ecx
$LN3@Insert:

; 268  : 		}
; 269  : 
; 270  : 		// Insert the new item at the correct spot
; 271  : 		listArray[ list_size ] = input;

	mov	eax, DWORD PTR _this$[ebp]
	mov	ecx, DWORD PTR [eax+4]
	mov	edx, DWORD PTR _this$[ebp]
	mov	eax, DWORD PTR [edx]
	mov	edx, DWORD PTR _input$[ebp]
	mov	DWORD PTR [eax+ecx*4], edx

; 272  : 
; 273  : 		++list_size;

	mov	eax, DWORD PTR _this$[ebp]
	mov	ecx, DWORD PTR [eax+4]
	add	ecx, 1
	mov	edx, DWORD PTR _this$[ebp]
	mov	DWORD PTR [edx+4], ecx

; 274  : 	}

	pop	edi
	pop	esi
	pop	ebx
	add	esp, 240				; 000000f0H
	cmp	ebp, esp
	call	__RTC_CheckEsp
	mov	esp, ebp
	pop	ebp
	ret	4
?Insert@?$List@PAUParticipantStruct@ReplicaManager@@@DataStructures@@QAEXQAUParticipantStruct@ReplicaManager@@@Z ENDP ; DataStructures::List<ReplicaManager::ParticipantStruct *>::Insert
_TEXT	ENDS
; Function compile flags: /Odtp /RTCsu /ZI
; File z:\sampsrc\02xu1\raknet\ds_list.h
;	COMDAT ?Insert@?$List@PAUParticipantStruct@ReplicaManager@@@DataStructures@@QAEXQAUParticipantStruct@ReplicaManager@@I@Z
_TEXT	SEGMENT
$T1 = -236						; size = 4
$T2 = -224						; size = 4
_new_array$3 = -20					; size = 4
_this$ = -8						; size = 4
_input$ = 8						; size = 4
_position$ = 12						; size = 4
?Insert@?$List@PAUParticipantStruct@ReplicaManager@@@DataStructures@@QAEXQAUParticipantStruct@ReplicaManager@@I@Z PROC ; DataStructures::List<ReplicaManager::ParticipantStruct *>::Insert, COMDAT
; _this$ = ecx

; 194  : 	{

	push	ebp
	mov	ebp, esp
	sub	esp, 240				; 000000f0H
	push	ebx
	push	esi
	push	edi
	push	ecx
	lea	edi, DWORD PTR [ebp-240]
	mov	ecx, 60					; 0000003cH
	mov	eax, -858993460				; ccccccccH
	rep stosd
	pop	ecx
	mov	DWORD PTR _this$[ebp], ecx

; 195  : #ifdef _DEBUG
; 196  : 		assert( position <= list_size );

	mov	eax, DWORD PTR _this$[ebp]
	mov	ecx, DWORD PTR _position$[ebp]
	cmp	ecx, DWORD PTR [eax+4]
	jbe	SHORT $LN6@Insert
	push	196					; 000000c4H
	push	OFFSET ??_C@_1EE@MBOIAKFO@?$AAz?$AA?3?$AA?2?$AAs?$AAa?$AAm?$AAp?$AAs?$AAr?$AAc?$AA?2?$AA0?$AA2?$AAx?$AAu?$AA1?$AA?2?$AAr?$AAa?$AAk?$AAn?$AAe?$AAt?$AA?2?$AAd?$AAs?$AA_?$AAl?$AAi?$AAs?$AAt?$AA?4@
	push	OFFSET ??_C@_1CM@FMCFHBCK@?$AAp?$AAo?$AAs?$AAi?$AAt?$AAi?$AAo?$AAn?$AA?5?$AA?$DM?$AA?$DN?$AA?5?$AAl?$AAi?$AAs?$AAt?$AA_?$AAs?$AAi?$AAz?$AAe?$AA?$AA@
	call	__wassert
	add	esp, 12					; 0000000cH
$LN6@Insert:

; 197  : #endif
; 198  : 
; 199  : 		// Reallocate list if necessary
; 200  : 		if ( list_size == allocation_size )

	mov	eax, DWORD PTR _this$[ebp]
	mov	ecx, DWORD PTR _this$[ebp]
	mov	edx, DWORD PTR [eax+4]
	cmp	edx, DWORD PTR [ecx+8]
	jne	$LN3@Insert

; 201  : 		{
; 202  : 			// allocate twice the currently allocated memory
; 203  : 			list_type * new_array;
; 204  : 
; 205  : 			if ( allocation_size == 0 )

	mov	eax, DWORD PTR _this$[ebp]
	cmp	DWORD PTR [eax+8], 0
	jne	SHORT $LN2@Insert

; 206  : 				allocation_size = 16;

	mov	eax, DWORD PTR _this$[ebp]
	mov	DWORD PTR [eax+8], 16			; 00000010H

; 207  : 			else

	jmp	SHORT $LN1@Insert
$LN2@Insert:

; 208  : 				allocation_size *= 2;

	mov	eax, DWORD PTR _this$[ebp]
	mov	ecx, DWORD PTR [eax+8]
	shl	ecx, 1
	mov	edx, DWORD PTR _this$[ebp]
	mov	DWORD PTR [edx+8], ecx
$LN1@Insert:

; 209  : 
; 210  : 			new_array = new list_type [ allocation_size ];

	xor	ecx, ecx
	mov	edx, DWORD PTR _this$[ebp]
	mov	eax, DWORD PTR [edx+8]
	mov	edx, 4
	mul	edx
	seto	cl
	neg	ecx
	or	ecx, eax
	push	ecx
	call	??2@YAPAXI@Z				; operator new
	add	esp, 4
	mov	DWORD PTR $T1[ebp], eax
	mov	eax, DWORD PTR $T1[ebp]
	mov	DWORD PTR _new_array$3[ebp], eax

; 211  : 
; 212  : 			// copy old array over
; 213  : 			//for ( unsigned int counter = 0; counter < list_size; ++counter )
; 214  : 			//	new_array[ counter ] = listArray[ counter ];
; 215  : 
; 216  : 			// Don't call constructors, assignment operators, etc.
; 217  : 			memcpy(new_array, listArray, list_size*sizeof(list_type));

	mov	eax, DWORD PTR _this$[ebp]
	mov	ecx, DWORD PTR [eax+4]
	shl	ecx, 2
	push	ecx
	mov	edx, DWORD PTR _this$[ebp]
	mov	eax, DWORD PTR [edx]
	push	eax
	mov	ecx, DWORD PTR _new_array$3[ebp]
	push	ecx
	call	_memcpy
	add	esp, 12					; 0000000cH

; 218  : 
; 219  : 			// set old array to point to the newly allocated and twice as large array
; 220  : 			delete[] listArray;

	mov	eax, DWORD PTR _this$[ebp]
	mov	ecx, DWORD PTR [eax]
	mov	DWORD PTR $T2[ebp], ecx
	mov	edx, DWORD PTR $T2[ebp]
	push	edx
	call	??3@YAXPAX@Z				; operator delete
	add	esp, 4

; 221  : 
; 222  : 			listArray = new_array;

	mov	eax, DWORD PTR _this$[ebp]
	mov	ecx, DWORD PTR _new_array$3[ebp]
	mov	DWORD PTR [eax], ecx
$LN3@Insert:

; 223  : 		}
; 224  : 
; 225  : 		// Move the elements in the list to make room
; 226  : 		//for ( unsigned int counter = list_size; counter != position; counter-- )
; 227  : 		//	listArray[ counter ] = listArray[ counter - 1 ];
; 228  : 
; 229  : 		// Don't call constructors, assignment operators, etc.
; 230  : 		memmove(listArray+position+1, listArray+position, (list_size-position)*sizeof(list_type));

	mov	eax, DWORD PTR _this$[ebp]
	mov	ecx, DWORD PTR [eax+4]
	sub	ecx, DWORD PTR _position$[ebp]
	shl	ecx, 2
	push	ecx
	mov	edx, DWORD PTR _this$[ebp]
	mov	eax, DWORD PTR [edx]
	mov	ecx, DWORD PTR _position$[ebp]
	lea	edx, DWORD PTR [eax+ecx*4]
	push	edx
	mov	eax, DWORD PTR _this$[ebp]
	mov	ecx, DWORD PTR [eax]
	mov	edx, DWORD PTR _position$[ebp]
	lea	eax, DWORD PTR [ecx+edx*4+4]
	push	eax
	call	_memmove
	add	esp, 12					; 0000000cH

; 231  : 
; 232  : 		// Insert the new item at the correct spot
; 233  : 		listArray[ position ] = input;

	mov	eax, DWORD PTR _this$[ebp]
	mov	ecx, DWORD PTR [eax]
	mov	edx, DWORD PTR _position$[ebp]
	mov	eax, DWORD PTR _input$[ebp]
	mov	DWORD PTR [ecx+edx*4], eax

; 234  : 
; 235  : 		++list_size;

	mov	eax, DWORD PTR _this$[ebp]
	mov	ecx, DWORD PTR [eax+4]
	add	ecx, 1
	mov	edx, DWORD PTR _this$[ebp]
	mov	DWORD PTR [edx+4], ecx

; 236  : 
; 237  : 	}

	pop	edi
	pop	esi
	pop	ebx
	add	esp, 240				; 000000f0H
	cmp	ebp, esp
	call	__RTC_CheckEsp
	mov	esp, ebp
	pop	ebp
	ret	8
?Insert@?$List@PAUParticipantStruct@ReplicaManager@@@DataStructures@@QAEXQAUParticipantStruct@ReplicaManager@@I@Z ENDP ; DataStructures::List<ReplicaManager::ParticipantStruct *>::Insert
_TEXT	ENDS
; Function compile flags: /Odtp /RTCsu /ZI
; File z:\sampsrc\02xu1\raknet\ds_list.h
;	COMDAT ??A?$List@PAUParticipantStruct@ReplicaManager@@@DataStructures@@QBEAAPAUParticipantStruct@ReplicaManager@@I@Z
_TEXT	SEGMENT
_this$ = -8						; size = 4
_position$ = 8						; size = 4
??A?$List@PAUParticipantStruct@ReplicaManager@@@DataStructures@@QBEAAPAUParticipantStruct@ReplicaManager@@I@Z PROC ; DataStructures::List<ReplicaManager::ParticipantStruct *>::operator[], COMDAT
; _this$ = ecx

; 185  : 	{

	push	ebp
	mov	ebp, esp
	sub	esp, 204				; 000000ccH
	push	ebx
	push	esi
	push	edi
	push	ecx
	lea	edi, DWORD PTR [ebp-204]
	mov	ecx, 51					; 00000033H
	mov	eax, -858993460				; ccccccccH
	rep stosd
	pop	ecx
	mov	DWORD PTR _this$[ebp], ecx

; 186  : #ifdef _DEBUG
; 187  : 		assert ( position < list_size );

	mov	eax, DWORD PTR _this$[ebp]
	mov	ecx, DWORD PTR _position$[ebp]
	cmp	ecx, DWORD PTR [eax+4]
	jb	SHORT $LN3@operator
	push	187					; 000000bbH
	push	OFFSET ??_C@_1EE@MBOIAKFO@?$AAz?$AA?3?$AA?2?$AAs?$AAa?$AAm?$AAp?$AAs?$AAr?$AAc?$AA?2?$AA0?$AA2?$AAx?$AAu?$AA1?$AA?2?$AAr?$AAa?$AAk?$AAn?$AAe?$AAt?$AA?2?$AAd?$AAs?$AA_?$AAl?$AAi?$AAs?$AAt?$AA?4@
	push	OFFSET ??_C@_1CK@HINNGFPG@?$AAp?$AAo?$AAs?$AAi?$AAt?$AAi?$AAo?$AAn?$AA?5?$AA?$DM?$AA?5?$AAl?$AAi?$AAs?$AAt?$AA_?$AAs?$AAi?$AAz?$AAe?$AA?$AA@
	call	__wassert
	add	esp, 12					; 0000000cH
$LN3@operator:

; 188  : #endif
; 189  : 		return listArray[ position ];

	mov	eax, DWORD PTR _this$[ebp]
	mov	ecx, DWORD PTR [eax]
	mov	edx, DWORD PTR _position$[ebp]
	lea	eax, DWORD PTR [ecx+edx*4]

; 190  : 	}

	pop	edi
	pop	esi
	pop	ebx
	add	esp, 204				; 000000ccH
	cmp	ebp, esp
	call	__RTC_CheckEsp
	mov	esp, ebp
	pop	ebp
	ret	4
??A?$List@PAUParticipantStruct@ReplicaManager@@@DataStructures@@QBEAAPAUParticipantStruct@ReplicaManager@@I@Z ENDP ; DataStructures::List<ReplicaManager::ParticipantStruct *>::operator[]
_TEXT	ENDS
; Function compile flags: /Odtp /RTCsu /ZI
; File z:\sampsrc\02xu1\raknet\ds_list.h
;	COMDAT ??1?$List@PAUParticipantStruct@ReplicaManager@@@DataStructures@@QAE@XZ
_TEXT	SEGMENT
$T1 = -212						; size = 4
_this$ = -8						; size = 4
??1?$List@PAUParticipantStruct@ReplicaManager@@@DataStructures@@QAE@XZ PROC ; DataStructures::List<ReplicaManager::ParticipantStruct *>::~List<ReplicaManager::ParticipantStruct *>, COMDAT
; _this$ = ecx

; 121  : 	{

	push	ebp
	mov	ebp, esp
	sub	esp, 216				; 000000d8H
	push	ebx
	push	esi
	push	edi
	push	ecx
	lea	edi, DWORD PTR [ebp-216]
	mov	ecx, 54					; 00000036H
	mov	eax, -858993460				; ccccccccH
	rep stosd
	pop	ecx
	mov	DWORD PTR _this$[ebp], ecx

; 122  : 		if (allocation_size>0)

	mov	eax, DWORD PTR _this$[ebp]
	cmp	DWORD PTR [eax+8], 0
	jbe	SHORT $LN2@List

; 123  : 			delete [] listArray;

	mov	eax, DWORD PTR _this$[ebp]
	mov	ecx, DWORD PTR [eax]
	mov	DWORD PTR $T1[ebp], ecx
	mov	edx, DWORD PTR $T1[ebp]
	push	edx
	call	??3@YAXPAX@Z				; operator delete
	add	esp, 4
$LN2@List:

; 124  : 	}

	pop	edi
	pop	esi
	pop	ebx
	add	esp, 216				; 000000d8H
	cmp	ebp, esp
	call	__RTC_CheckEsp
	mov	esp, ebp
	pop	ebp
	ret	0
??1?$List@PAUParticipantStruct@ReplicaManager@@@DataStructures@@QAE@XZ ENDP ; DataStructures::List<ReplicaManager::ParticipantStruct *>::~List<ReplicaManager::ParticipantStruct *>
_TEXT	ENDS
; Function compile flags: /Odtp /RTCsu /ZI
; File z:\sampsrc\02xu1\raknet\ds_list.h
;	COMDAT ??0?$List@PAUParticipantStruct@ReplicaManager@@@DataStructures@@QAE@XZ
_TEXT	SEGMENT
_this$ = -8						; size = 4
??0?$List@PAUParticipantStruct@ReplicaManager@@@DataStructures@@QAE@XZ PROC ; DataStructures::List<ReplicaManager::ParticipantStruct *>::List<ReplicaManager::ParticipantStruct *>, COMDAT
; _this$ = ecx

; 113  : 	{

	push	ebp
	mov	ebp, esp
	sub	esp, 204				; 000000ccH
	push	ebx
	push	esi
	push	edi
	push	ecx
	lea	edi, DWORD PTR [ebp-204]
	mov	ecx, 51					; 00000033H
	mov	eax, -858993460				; ccccccccH
	rep stosd
	pop	ecx
	mov	DWORD PTR _this$[ebp], ecx

; 114  : 		allocation_size = 0;

	mov	eax, DWORD PTR _this$[ebp]
	mov	DWORD PTR [eax+8], 0

; 115  : 		listArray = 0;

	mov	eax, DWORD PTR _this$[ebp]
	mov	DWORD PTR [eax], 0

; 116  : 		list_size = 0;

	mov	eax, DWORD PTR _this$[ebp]
	mov	DWORD PTR [eax+4], 0

; 117  : 	}

	mov	eax, DWORD PTR _this$[ebp]
	pop	edi
	pop	esi
	pop	ebx
	mov	esp, ebp
	pop	ebp
	ret	0
??0?$List@PAUParticipantStruct@ReplicaManager@@@DataStructures@@QAE@XZ ENDP ; DataStructures::List<ReplicaManager::ParticipantStruct *>::List<ReplicaManager::ParticipantStruct *>
_TEXT	ENDS
; Function compile flags: /Odtp /RTCsu /ZI
; File z:\sampsrc\02xu1\raknet\ds_orderedlist.h
;	COMDAT ?Size@?$OrderedList@UPlayerID@@PAUParticipantStruct@ReplicaManager@@$1?ParticipantStructComp@3@SAHABU1@ABQAU23@@Z@DataStructures@@QBEIXZ
_TEXT	SEGMENT
_this$ = -8						; size = 4
?Size@?$OrderedList@UPlayerID@@PAUParticipantStruct@ReplicaManager@@$1?ParticipantStructComp@3@SAHABU1@ABQAU23@@Z@DataStructures@@QBEIXZ PROC ; DataStructures::OrderedList<PlayerID,ReplicaManager::ParticipantStruct *,&ReplicaManager::ParticipantStructComp>::Size, COMDAT
; _this$ = ecx

; 231  : 	{

	push	ebp
	mov	ebp, esp
	sub	esp, 204				; 000000ccH
	push	ebx
	push	esi
	push	edi
	push	ecx
	lea	edi, DWORD PTR [ebp-204]
	mov	ecx, 51					; 00000033H
	mov	eax, -858993460				; ccccccccH
	rep stosd
	pop	ecx
	mov	DWORD PTR _this$[ebp], ecx

; 232  : 		return orderedList.Size();

	mov	ecx, DWORD PTR _this$[ebp]
	call	?Size@?$List@PAUParticipantStruct@ReplicaManager@@@DataStructures@@QBEIXZ ; DataStructures::List<ReplicaManager::ParticipantStruct *>::Size

; 233  : 	}

	pop	edi
	pop	esi
	pop	ebx
	add	esp, 204				; 000000ccH
	cmp	ebp, esp
	call	__RTC_CheckEsp
	mov	esp, ebp
	pop	ebp
	ret	0
?Size@?$OrderedList@UPlayerID@@PAUParticipantStruct@ReplicaManager@@$1?ParticipantStructComp@3@SAHABU1@ABQAU23@@Z@DataStructures@@QBEIXZ ENDP ; DataStructures::OrderedList<PlayerID,ReplicaManager::ParticipantStruct *,&ReplicaManager::ParticipantStructComp>::Size
_TEXT	ENDS
; Function compile flags: /Odtp /RTCsu /ZI
; File z:\sampsrc\02xu1\raknet\ds_orderedlist.h
;	COMDAT ?Clear@?$OrderedList@UPlayerID@@PAUParticipantStruct@ReplicaManager@@$1?ParticipantStructComp@3@SAHABU1@ABQAU23@@Z@DataStructures@@QAEXXZ
_TEXT	SEGMENT
_this$ = -8						; size = 4
?Clear@?$OrderedList@UPlayerID@@PAUParticipantStruct@ReplicaManager@@$1?ParticipantStructComp@3@SAHABU1@ABQAU23@@Z@DataStructures@@QAEXXZ PROC ; DataStructures::OrderedList<PlayerID,ReplicaManager::ParticipantStruct *,&ReplicaManager::ParticipantStructComp>::Clear, COMDAT
; _this$ = ecx

; 219  : 	{

	push	ebp
	mov	ebp, esp
	sub	esp, 204				; 000000ccH
	push	ebx
	push	esi
	push	edi
	push	ecx
	lea	edi, DWORD PTR [ebp-204]
	mov	ecx, 51					; 00000033H
	mov	eax, -858993460				; ccccccccH
	rep stosd
	pop	ecx
	mov	DWORD PTR _this$[ebp], ecx

; 220  : 		orderedList.Clear();

	push	0
	mov	ecx, DWORD PTR _this$[ebp]
	call	?Clear@?$List@PAUParticipantStruct@ReplicaManager@@@DataStructures@@QAEX_N@Z ; DataStructures::List<ReplicaManager::ParticipantStruct *>::Clear

; 221  : 	}

	pop	edi
	pop	esi
	pop	ebx
	add	esp, 204				; 000000ccH
	cmp	ebp, esp
	call	__RTC_CheckEsp
	mov	esp, ebp
	pop	ebp
	ret	0
?Clear@?$OrderedList@UPlayerID@@PAUParticipantStruct@ReplicaManager@@$1?ParticipantStructComp@3@SAHABU1@ABQAU23@@Z@DataStructures@@QAEXXZ ENDP ; DataStructures::OrderedList<PlayerID,ReplicaManager::ParticipantStruct *,&ReplicaManager::ParticipantStructComp>::Clear
_TEXT	ENDS
; Function compile flags: /Odtp /RTCsu /ZI
; File z:\sampsrc\02xu1\raknet\ds_orderedlist.h
;	COMDAT ??A?$OrderedList@UPlayerID@@PAUParticipantStruct@ReplicaManager@@$1?ParticipantStructComp@3@SAHABU1@ABQAU23@@Z@DataStructures@@QBEAAPAUParticipantStruct@ReplicaManager@@I@Z
_TEXT	SEGMENT
_this$ = -8						; size = 4
_position$ = 8						; size = 4
??A?$OrderedList@UPlayerID@@PAUParticipantStruct@ReplicaManager@@$1?ParticipantStructComp@3@SAHABU1@ABQAU23@@Z@DataStructures@@QBEAAPAUParticipantStruct@ReplicaManager@@I@Z PROC ; DataStructures::OrderedList<PlayerID,ReplicaManager::ParticipantStruct *,&ReplicaManager::ParticipantStructComp>::operator[], COMDAT
; _this$ = ecx

; 225  : 	{

	push	ebp
	mov	ebp, esp
	sub	esp, 204				; 000000ccH
	push	ebx
	push	esi
	push	edi
	push	ecx
	lea	edi, DWORD PTR [ebp-204]
	mov	ecx, 51					; 00000033H
	mov	eax, -858993460				; ccccccccH
	rep stosd
	pop	ecx
	mov	DWORD PTR _this$[ebp], ecx

; 226  : 		return orderedList[position];

	mov	eax, DWORD PTR _position$[ebp]
	push	eax
	mov	ecx, DWORD PTR _this$[ebp]
	call	??A?$List@PAUParticipantStruct@ReplicaManager@@@DataStructures@@QBEAAPAUParticipantStruct@ReplicaManager@@I@Z ; DataStructures::List<ReplicaManager::ParticipantStruct *>::operator[]

; 227  : 	}

	pop	edi
	pop	esi
	pop	ebx
	add	esp, 204				; 000000ccH
	cmp	ebp, esp
	call	__RTC_CheckEsp
	mov	esp, ebp
	pop	ebp
	ret	4
??A?$OrderedList@UPlayerID@@PAUParticipantStruct@ReplicaManager@@$1?ParticipantStructComp@3@SAHABU1@ABQAU23@@Z@DataStructures@@QBEAAPAUParticipantStruct@ReplicaManager@@I@Z ENDP ; DataStructures::OrderedList<PlayerID,ReplicaManager::ParticipantStruct *,&ReplicaManager::ParticipantStructComp>::operator[]
_TEXT	ENDS
; Function compile flags: /Odtp /RTCsu /ZI
; File z:\sampsrc\02xu1\raknet\ds_orderedlist.h
;	COMDAT ?Remove@?$OrderedList@UPlayerID@@PAUParticipantStruct@ReplicaManager@@$1?ParticipantStructComp@3@SAHABU1@ABQAU23@@Z@DataStructures@@QAEIABUPlayerID@@@Z
_TEXT	SEGMENT
_index$ = -32						; size = 4
_objectExists$ = -17					; size = 1
_this$ = -8						; size = 4
_key$ = 8						; size = 4
?Remove@?$OrderedList@UPlayerID@@PAUParticipantStruct@ReplicaManager@@$1?ParticipantStructComp@3@SAHABU1@ABQAU23@@Z@DataStructures@@QAEIABUPlayerID@@@Z PROC ; DataStructures::OrderedList<PlayerID,ReplicaManager::ParticipantStruct *,&ReplicaManager::ParticipantStructComp>::Remove, COMDAT
; _this$ = ecx

; 179  : 	{

	push	ebp
	mov	ebp, esp
	sub	esp, 228				; 000000e4H
	push	ebx
	push	esi
	push	edi
	push	ecx
	lea	edi, DWORD PTR [ebp-228]
	mov	ecx, 57					; 00000039H
	mov	eax, -858993460				; ccccccccH
	rep stosd
	pop	ecx
	mov	DWORD PTR _this$[ebp], ecx

; 180  : 		bool objectExists;
; 181  : 		unsigned index;
; 182  : 		index = GetIndexFromKey(key, &objectExists);

	lea	eax, DWORD PTR _objectExists$[ebp]
	push	eax
	mov	ecx, DWORD PTR _key$[ebp]
	push	ecx
	mov	ecx, DWORD PTR _this$[ebp]
	call	?GetIndexFromKey@?$OrderedList@UPlayerID@@PAUParticipantStruct@ReplicaManager@@$1?ParticipantStructComp@3@SAHABU1@ABQAU23@@Z@DataStructures@@QBEIABUPlayerID@@PA_N@Z ; DataStructures::OrderedList<PlayerID,ReplicaManager::ParticipantStruct *,&ReplicaManager::ParticipantStructComp>::GetIndexFromKey
	mov	DWORD PTR _index$[ebp], eax

; 183  : 
; 184  : 		// Can't find the element to remove if this assert hits
; 185  : 		assert(objectExists==true);

	movzx	eax, BYTE PTR _objectExists$[ebp]
	cmp	eax, 1
	je	SHORT $LN4@Remove
	push	185					; 000000b9H
	push	OFFSET ??_C@_1FC@PKHPOOLI@?$AAz?$AA?3?$AA?2?$AAs?$AAa?$AAm?$AAp?$AAs?$AAr?$AAc?$AA?2?$AA0?$AA2?$AAx?$AAu?$AA1?$AA?2?$AAr?$AAa?$AAk?$AAn?$AAe?$AAt?$AA?2?$AAd?$AAs?$AA_?$AAo?$AAr?$AAd?$AAe?$AAr@
	push	OFFSET ??_C@_1CG@FNLJFNDG@?$AAo?$AAb?$AAj?$AAe?$AAc?$AAt?$AAE?$AAx?$AAi?$AAs?$AAt?$AAs?$AA?$DN?$AA?$DN?$AAt?$AAr?$AAu?$AAe?$AA?$AA@
	call	__wassert
	add	esp, 12					; 0000000cH
$LN4@Remove:

; 186  : 		if (objectExists==false)

	movzx	eax, BYTE PTR _objectExists$[ebp]
	test	eax, eax
	jne	SHORT $LN1@Remove

; 187  : 			return 0;

	xor	eax, eax
	jmp	SHORT $LN2@Remove
$LN1@Remove:

; 188  : 
; 189  : 		orderedList.RemoveAtIndex(index);

	mov	eax, DWORD PTR _index$[ebp]
	push	eax
	mov	ecx, DWORD PTR _this$[ebp]
	call	?RemoveAtIndex@?$List@PAUParticipantStruct@ReplicaManager@@@DataStructures@@QAEXI@Z ; DataStructures::List<ReplicaManager::ParticipantStruct *>::RemoveAtIndex

; 190  : 		return index;

	mov	eax, DWORD PTR _index$[ebp]
$LN2@Remove:

; 191  : 	}

	push	edx
	mov	ecx, ebp
	push	eax
	lea	edx, DWORD PTR $LN7@Remove
	call	@_RTC_CheckStackVars@8
	pop	eax
	pop	edx
	pop	edi
	pop	esi
	pop	ebx
	add	esp, 228				; 000000e4H
	cmp	ebp, esp
	call	__RTC_CheckEsp
	mov	esp, ebp
	pop	ebp
	ret	4
$LN7@Remove:
	DD	1
	DD	$LN6@Remove
$LN6@Remove:
	DD	-17					; ffffffefH
	DD	1
	DD	$LN5@Remove
$LN5@Remove:
	DB	111					; 0000006fH
	DB	98					; 00000062H
	DB	106					; 0000006aH
	DB	101					; 00000065H
	DB	99					; 00000063H
	DB	116					; 00000074H
	DB	69					; 00000045H
	DB	120					; 00000078H
	DB	105					; 00000069H
	DB	115					; 00000073H
	DB	116					; 00000074H
	DB	115					; 00000073H
	DB	0
?Remove@?$OrderedList@UPlayerID@@PAUParticipantStruct@ReplicaManager@@$1?ParticipantStructComp@3@SAHABU1@ABQAU23@@Z@DataStructures@@QAEIABUPlayerID@@@Z ENDP ; DataStructures::OrderedList<PlayerID,ReplicaManager::ParticipantStruct *,&ReplicaManager::ParticipantStructComp>::Remove
_TEXT	ENDS
; Function compile flags: /Odtp /RTCsu /ZI
; File z:\sampsrc\02xu1\raknet\ds_orderedlist.h
;	COMDAT ?Insert@?$OrderedList@UPlayerID@@PAUParticipantStruct@ReplicaManager@@$1?ParticipantStructComp@3@SAHABU1@ABQAU23@@Z@DataStructures@@QAEIABUPlayerID@@ABQAUParticipantStruct@ReplicaManager@@@Z
_TEXT	SEGMENT
_index$ = -32						; size = 4
_objectExists$ = -17					; size = 1
_this$ = -8						; size = 4
_key$ = 8						; size = 4
_data$ = 12						; size = 4
?Insert@?$OrderedList@UPlayerID@@PAUParticipantStruct@ReplicaManager@@$1?ParticipantStructComp@3@SAHABU1@ABQAU23@@Z@DataStructures@@QAEIABUPlayerID@@ABQAUParticipantStruct@ReplicaManager@@@Z PROC ; DataStructures::OrderedList<PlayerID,ReplicaManager::ParticipantStruct *,&ReplicaManager::ParticipantStructComp>::Insert, COMDAT
; _this$ = ecx

; 156  : 	{

	push	ebp
	mov	ebp, esp
	sub	esp, 228				; 000000e4H
	push	ebx
	push	esi
	push	edi
	push	ecx
	lea	edi, DWORD PTR [ebp-228]
	mov	ecx, 57					; 00000039H
	mov	eax, -858993460				; ccccccccH
	rep stosd
	pop	ecx
	mov	DWORD PTR _this$[ebp], ecx

; 157  : 		bool objectExists;
; 158  : 		unsigned index;
; 159  : 		index = GetIndexFromKey(key, &objectExists);

	lea	eax, DWORD PTR _objectExists$[ebp]
	push	eax
	mov	ecx, DWORD PTR _key$[ebp]
	push	ecx
	mov	ecx, DWORD PTR _this$[ebp]
	call	?GetIndexFromKey@?$OrderedList@UPlayerID@@PAUParticipantStruct@ReplicaManager@@$1?ParticipantStructComp@3@SAHABU1@ABQAU23@@Z@DataStructures@@QBEIABUPlayerID@@PA_N@Z ; DataStructures::OrderedList<PlayerID,ReplicaManager::ParticipantStruct *,&ReplicaManager::ParticipantStructComp>::GetIndexFromKey
	mov	DWORD PTR _index$[ebp], eax

; 160  : 
; 161  : 		// Don't allow duplicate insertion.
; 162  : 		if (objectExists)

	movzx	eax, BYTE PTR _objectExists$[ebp]
	test	eax, eax
	je	SHORT $LN3@Insert

; 163  : 			return (unsigned)-1;

	or	eax, -1
	jmp	SHORT $LN4@Insert
$LN3@Insert:

; 164  : 
; 165  : 		if (index>=orderedList.Size())

	mov	ecx, DWORD PTR _this$[ebp]
	call	?Size@?$List@PAUParticipantStruct@ReplicaManager@@@DataStructures@@QBEIXZ ; DataStructures::List<ReplicaManager::ParticipantStruct *>::Size
	cmp	DWORD PTR _index$[ebp], eax
	jb	SHORT $LN2@Insert

; 166  : 		{
; 167  : 			orderedList.Insert(data);

	mov	eax, DWORD PTR _data$[ebp]
	mov	ecx, DWORD PTR [eax]
	push	ecx
	mov	ecx, DWORD PTR _this$[ebp]
	call	?Insert@?$List@PAUParticipantStruct@ReplicaManager@@@DataStructures@@QAEXQAUParticipantStruct@ReplicaManager@@@Z ; DataStructures::List<ReplicaManager::ParticipantStruct *>::Insert

; 168  : 			return orderedList.Size()-1;

	mov	ecx, DWORD PTR _this$[ebp]
	call	?Size@?$List@PAUParticipantStruct@ReplicaManager@@@DataStructures@@QBEIXZ ; DataStructures::List<ReplicaManager::ParticipantStruct *>::Size
	sub	eax, 1
	jmp	SHORT $LN4@Insert

; 169  : 		}
; 170  : 		else

	jmp	SHORT $LN4@Insert
$LN2@Insert:

; 171  : 		{
; 172  : 			orderedList.Insert(data,index);

	mov	eax, DWORD PTR _index$[ebp]
	push	eax
	mov	ecx, DWORD PTR _data$[ebp]
	mov	edx, DWORD PTR [ecx]
	push	edx
	mov	ecx, DWORD PTR _this$[ebp]
	call	?Insert@?$List@PAUParticipantStruct@ReplicaManager@@@DataStructures@@QAEXQAUParticipantStruct@ReplicaManager@@I@Z ; DataStructures::List<ReplicaManager::ParticipantStruct *>::Insert

; 173  : 			return index;

	mov	eax, DWORD PTR _index$[ebp]
$LN4@Insert:

; 174  : 		}		
; 175  : 	}

	push	edx
	mov	ecx, ebp
	push	eax
	lea	edx, DWORD PTR $LN8@Insert
	call	@_RTC_CheckStackVars@8
	pop	eax
	pop	edx
	pop	edi
	pop	esi
	pop	ebx
	add	esp, 228				; 000000e4H
	cmp	ebp, esp
	call	__RTC_CheckEsp
	mov	esp, ebp
	pop	ebp
	ret	8
	npad	3
$LN8@Insert:
	DD	1
	DD	$LN7@Insert
$LN7@Insert:
	DD	-17					; ffffffefH
	DD	1
	DD	$LN6@Insert
$LN6@Insert:
	DB	111					; 0000006fH
	DB	98					; 00000062H
	DB	106					; 0000006aH
	DB	101					; 00000065H
	DB	99					; 00000063H
	DB	116					; 00000074H
	DB	69					; 00000045H
	DB	120					; 00000078H
	DB	105					; 00000069H
	DB	115					; 00000073H
	DB	116					; 00000074H
	DB	115					; 00000073H
	DB	0
?Insert@?$OrderedList@UPlayerID@@PAUParticipantStruct@ReplicaManager@@$1?ParticipantStructComp@3@SAHABU1@ABQAU23@@Z@DataStructures@@QAEIABUPlayerID@@ABQAUParticipantStruct@ReplicaManager@@@Z ENDP ; DataStructures::OrderedList<PlayerID,ReplicaManager::ParticipantStruct *,&ReplicaManager::ParticipantStructComp>::Insert
_TEXT	ENDS
; Function compile flags: /Odtp /RTCsu /ZI
; File z:\sampsrc\02xu1\raknet\ds_orderedlist.h
;	COMDAT ?GetIndexFromKey@?$OrderedList@UPlayerID@@PAUParticipantStruct@ReplicaManager@@$1?ParticipantStructComp@3@SAHABU1@ABQAU23@@Z@DataStructures@@QBEIABUPlayerID@@PA_N@Z
_TEXT	SEGMENT
_res$ = -56						; size = 4
_lowerBound$ = -44					; size = 4
_upperBound$ = -32					; size = 4
_index$ = -20						; size = 4
_this$ = -8						; size = 4
_key$ = 8						; size = 4
_objectExists$ = 12					; size = 4
?GetIndexFromKey@?$OrderedList@UPlayerID@@PAUParticipantStruct@ReplicaManager@@$1?ParticipantStructComp@3@SAHABU1@ABQAU23@@Z@DataStructures@@QBEIABUPlayerID@@PA_N@Z PROC ; DataStructures::OrderedList<PlayerID,ReplicaManager::ParticipantStruct *,&ReplicaManager::ParticipantStructComp>::GetIndexFromKey, COMDAT
; _this$ = ecx

; 110  : 	{

	push	ebp
	mov	ebp, esp
	sub	esp, 252				; 000000fcH
	push	ebx
	push	esi
	push	edi
	push	ecx
	lea	edi, DWORD PTR [ebp-252]
	mov	ecx, 63					; 0000003fH
	mov	eax, -858993460				; ccccccccH
	rep stosd
	pop	ecx
	mov	DWORD PTR _this$[ebp], ecx

; 111  : 		int index, upperBound, lowerBound;
; 112  : 		int res;
; 113  : 
; 114  : 		if (orderedList.Size()==0)

	mov	ecx, DWORD PTR _this$[ebp]
	call	?Size@?$List@PAUParticipantStruct@ReplicaManager@@@DataStructures@@QBEIXZ ; DataStructures::List<ReplicaManager::ParticipantStruct *>::Size
	test	eax, eax
	jne	SHORT $LN8@GetIndexFr

; 115  : 		{
; 116  : 			*objectExists=false;

	mov	eax, DWORD PTR _objectExists$[ebp]
	mov	BYTE PTR [eax], 0

; 117  : 			return 0;

	xor	eax, eax
	jmp	$LN9@GetIndexFr
$LN8@GetIndexFr:

; 118  : 		}
; 119  : 
; 120  : 		upperBound=(int)orderedList.Size()-1;

	mov	ecx, DWORD PTR _this$[ebp]
	call	?Size@?$List@PAUParticipantStruct@ReplicaManager@@@DataStructures@@QBEIXZ ; DataStructures::List<ReplicaManager::ParticipantStruct *>::Size
	sub	eax, 1
	mov	DWORD PTR _upperBound$[ebp], eax

; 121  : 		lowerBound=0;

	mov	DWORD PTR _lowerBound$[ebp], 0

; 122  : 		index = (int)orderedList.Size()/2;

	mov	ecx, DWORD PTR _this$[ebp]
	call	?Size@?$List@PAUParticipantStruct@ReplicaManager@@@DataStructures@@QBEIXZ ; DataStructures::List<ReplicaManager::ParticipantStruct *>::Size
	cdq
	sub	eax, edx
	sar	eax, 1
	mov	DWORD PTR _index$[ebp], eax
$LN7@GetIndexFr:

; 123  : 
; 124  : #ifdef _MSC_VER
; 125  : 	#pragma warning( disable : 4127 ) // warning C4127: conditional expression is constant
; 126  : #endif
; 127  : 		while (1)

	mov	eax, 1
	test	eax, eax
	je	SHORT $LN9@GetIndexFr

; 128  : 		{
; 129  : 			res = comparison_function(key,orderedList[index]);

	mov	eax, DWORD PTR _index$[ebp]
	push	eax
	mov	ecx, DWORD PTR _this$[ebp]
	call	??A?$List@PAUParticipantStruct@ReplicaManager@@@DataStructures@@QBEAAPAUParticipantStruct@ReplicaManager@@I@Z ; DataStructures::List<ReplicaManager::ParticipantStruct *>::operator[]
	push	eax
	mov	ecx, DWORD PTR _key$[ebp]
	push	ecx
	call	?ParticipantStructComp@ReplicaManager@@SAHABUPlayerID@@ABQAUParticipantStruct@1@@Z ; ReplicaManager::ParticipantStructComp
	add	esp, 8
	mov	DWORD PTR _res$[ebp], eax

; 130  : 			if (res==0)

	cmp	DWORD PTR _res$[ebp], 0
	jne	SHORT $LN5@GetIndexFr

; 131  : 			{
; 132  : 				*objectExists=true;

	mov	eax, DWORD PTR _objectExists$[ebp]
	mov	BYTE PTR [eax], 1

; 133  : 				return index;

	mov	eax, DWORD PTR _index$[ebp]
	jmp	SHORT $LN9@GetIndexFr
	jmp	SHORT $LN4@GetIndexFr
$LN5@GetIndexFr:

; 134  : 			}
; 135  : 			else if (res<0)

	cmp	DWORD PTR _res$[ebp], 0
	jge	SHORT $LN3@GetIndexFr

; 136  : 			{
; 137  : 				upperBound=index-1;

	mov	eax, DWORD PTR _index$[ebp]
	sub	eax, 1
	mov	DWORD PTR _upperBound$[ebp], eax

; 138  : 			}
; 139  : 			else// if (res>0)

	jmp	SHORT $LN4@GetIndexFr
$LN3@GetIndexFr:

; 140  : 			{
; 141  : 				lowerBound=index+1;

	mov	eax, DWORD PTR _index$[ebp]
	add	eax, 1
	mov	DWORD PTR _lowerBound$[ebp], eax
$LN4@GetIndexFr:

; 142  : 			}
; 143  : 
; 144  : 			index=lowerBound+(upperBound-lowerBound)/2;

	mov	eax, DWORD PTR _upperBound$[ebp]
	sub	eax, DWORD PTR _lowerBound$[ebp]
	cdq
	sub	eax, edx
	sar	eax, 1
	add	eax, DWORD PTR _lowerBound$[ebp]
	mov	DWORD PTR _index$[ebp], eax

; 145  : 
; 146  : 			if (lowerBound>upperBound)

	mov	eax, DWORD PTR _lowerBound$[ebp]
	cmp	eax, DWORD PTR _upperBound$[ebp]
	jle	SHORT $LN1@GetIndexFr

; 147  : 			{
; 148  : 				*objectExists=false;

	mov	eax, DWORD PTR _objectExists$[ebp]
	mov	BYTE PTR [eax], 0

; 149  : 				return lowerBound; // No match

	mov	eax, DWORD PTR _lowerBound$[ebp]
	jmp	SHORT $LN9@GetIndexFr
$LN1@GetIndexFr:

; 150  : 			}
; 151  : 		}

	jmp	SHORT $LN7@GetIndexFr
$LN9@GetIndexFr:

; 152  : 	}

	pop	edi
	pop	esi
	pop	ebx
	add	esp, 252				; 000000fcH
	cmp	ebp, esp
	call	__RTC_CheckEsp
	mov	esp, ebp
	pop	ebp
	ret	8
?GetIndexFromKey@?$OrderedList@UPlayerID@@PAUParticipantStruct@ReplicaManager@@$1?ParticipantStructComp@3@SAHABU1@ABQAU23@@Z@DataStructures@@QBEIABUPlayerID@@PA_N@Z ENDP ; DataStructures::OrderedList<PlayerID,ReplicaManager::ParticipantStruct *,&ReplicaManager::ParticipantStructComp>::GetIndexFromKey
_TEXT	ENDS
; Function compile flags: /Odtp /RTCsu /ZI
; File z:\sampsrc\02xu1\raknet\ds_orderedlist.h
;	COMDAT ??1?$OrderedList@UPlayerID@@PAUParticipantStruct@ReplicaManager@@$1?ParticipantStructComp@3@SAHABU1@ABQAU23@@Z@DataStructures@@QAE@XZ
_TEXT	SEGMENT
_this$ = -20						; size = 4
__$EHRec$ = -12						; size = 12
??1?$OrderedList@UPlayerID@@PAUParticipantStruct@ReplicaManager@@$1?ParticipantStructComp@3@SAHABU1@ABQAU23@@Z@DataStructures@@QAE@XZ PROC ; DataStructures::OrderedList<PlayerID,ReplicaManager::ParticipantStruct *,&ReplicaManager::ParticipantStructComp>::~OrderedList<PlayerID,ReplicaManager::ParticipantStruct *,&ReplicaManager::ParticipantStructComp>, COMDAT
; _this$ = ecx

; 72   : 	{

	push	ebp
	mov	ebp, esp
	push	-1
	push	__ehhandler$??1?$OrderedList@UPlayerID@@PAUParticipantStruct@ReplicaManager@@$1?ParticipantStructComp@3@SAHABU1@ABQAU23@@Z@DataStructures@@QAE@XZ
	mov	eax, DWORD PTR fs:0
	push	eax
	sub	esp, 204				; 000000ccH
	push	ebx
	push	esi
	push	edi
	push	ecx
	lea	edi, DWORD PTR [ebp-216]
	mov	ecx, 51					; 00000033H
	mov	eax, -858993460				; ccccccccH
	rep stosd
	pop	ecx
	mov	eax, DWORD PTR ___security_cookie
	xor	eax, ebp
	push	eax
	lea	eax, DWORD PTR __$EHRec$[ebp]
	mov	DWORD PTR fs:0, eax
	mov	DWORD PTR _this$[ebp], ecx
	mov	DWORD PTR __$EHRec$[ebp+8], 0

; 73   : 		Clear();

	mov	ecx, DWORD PTR _this$[ebp]
	call	?Clear@?$OrderedList@UPlayerID@@PAUParticipantStruct@ReplicaManager@@$1?ParticipantStructComp@3@SAHABU1@ABQAU23@@Z@DataStructures@@QAEXXZ ; DataStructures::OrderedList<PlayerID,ReplicaManager::ParticipantStruct *,&ReplicaManager::ParticipantStructComp>::Clear

; 74   : 	}

	mov	DWORD PTR __$EHRec$[ebp+8], -1
	mov	ecx, DWORD PTR _this$[ebp]
	call	??1?$List@PAUParticipantStruct@ReplicaManager@@@DataStructures@@QAE@XZ ; DataStructures::List<ReplicaManager::ParticipantStruct *>::~List<ReplicaManager::ParticipantStruct *>
	mov	ecx, DWORD PTR __$EHRec$[ebp]
	mov	DWORD PTR fs:0, ecx
	pop	ecx
	pop	edi
	pop	esi
	pop	ebx
	add	esp, 216				; 000000d8H
	cmp	ebp, esp
	call	__RTC_CheckEsp
	mov	esp, ebp
	pop	ebp
	ret	0
_TEXT	ENDS
;	COMDAT text$x
text$x	SEGMENT
__unwindfunclet$??1?$OrderedList@UPlayerID@@PAUParticipantStruct@ReplicaManager@@$1?ParticipantStructComp@3@SAHABU1@ABQAU23@@Z@DataStructures@@QAE@XZ$0:
	mov	ecx, DWORD PTR _this$[ebp]
	jmp	??1?$List@PAUParticipantStruct@ReplicaManager@@@DataStructures@@QAE@XZ ; DataStructures::List<ReplicaManager::ParticipantStruct *>::~List<ReplicaManager::ParticipantStruct *>
__ehhandler$??1?$OrderedList@UPlayerID@@PAUParticipantStruct@ReplicaManager@@$1?ParticipantStructComp@3@SAHABU1@ABQAU23@@Z@DataStructures@@QAE@XZ:
	mov	edx, DWORD PTR [esp+8]
	lea	eax, DWORD PTR [edx+12]
	mov	ecx, DWORD PTR [edx-220]
	xor	ecx, eax
	call	@__security_check_cookie@4
	mov	eax, OFFSET __ehfuncinfo$??1?$OrderedList@UPlayerID@@PAUParticipantStruct@ReplicaManager@@$1?ParticipantStructComp@3@SAHABU1@ABQAU23@@Z@DataStructures@@QAE@XZ
	jmp	___CxxFrameHandler3
text$x	ENDS
??1?$OrderedList@UPlayerID@@PAUParticipantStruct@ReplicaManager@@$1?ParticipantStructComp@3@SAHABU1@ABQAU23@@Z@DataStructures@@QAE@XZ ENDP ; DataStructures::OrderedList<PlayerID,ReplicaManager::ParticipantStruct *,&ReplicaManager::ParticipantStructComp>::~OrderedList<PlayerID,ReplicaManager::ParticipantStruct *,&ReplicaManager::ParticipantStructComp>
; Function compile flags: /Odtp /RTCsu /ZI
; File z:\sampsrc\02xu1\raknet\ds_orderedlist.h
;	COMDAT ??0?$OrderedList@UPlayerID@@PAUParticipantStruct@ReplicaManager@@$1?ParticipantStructComp@3@SAHABU1@ABQAU23@@Z@DataStructures@@QAE@XZ
_TEXT	SEGMENT
_this$ = -8						; size = 4
??0?$OrderedList@UPlayerID@@PAUParticipantStruct@ReplicaManager@@$1?ParticipantStructComp@3@SAHABU1@ABQAU23@@Z@DataStructures@@QAE@XZ PROC ; DataStructures::OrderedList<PlayerID,ReplicaManager::ParticipantStruct *,&ReplicaManager::ParticipantStructComp>::OrderedList<PlayerID,ReplicaManager::ParticipantStruct *,&ReplicaManager::ParticipantStructComp>, COMDAT
; _this$ = ecx

; 67   : 	{

	push	ebp
	mov	ebp, esp
	sub	esp, 204				; 000000ccH
	push	ebx
	push	esi
	push	edi
	push	ecx
	lea	edi, DWORD PTR [ebp-204]
	mov	ecx, 51					; 00000033H
	mov	eax, -858993460				; ccccccccH
	rep stosd
	pop	ecx
	mov	DWORD PTR _this$[ebp], ecx
	mov	ecx, DWORD PTR _this$[ebp]
	call	??0?$List@PAUParticipantStruct@ReplicaManager@@@DataStructures@@QAE@XZ ; DataStructures::List<ReplicaManager::ParticipantStruct *>::List<ReplicaManager::ParticipantStruct *>

; 68   : 	}

	mov	eax, DWORD PTR _this$[ebp]
	pop	edi
	pop	esi
	pop	ebx
	add	esp, 204				; 000000ccH
	cmp	ebp, esp
	call	__RTC_CheckEsp
	mov	esp, ebp
	pop	ebp
	ret	0
??0?$OrderedList@UPlayerID@@PAUParticipantStruct@ReplicaManager@@$1?ParticipantStructComp@3@SAHABU1@ABQAU23@@Z@DataStructures@@QAE@XZ ENDP ; DataStructures::OrderedList<PlayerID,ReplicaManager::ParticipantStruct *,&ReplicaManager::ParticipantStructComp>::OrderedList<PlayerID,ReplicaManager::ParticipantStruct *,&ReplicaManager::ParticipantStructComp>
_TEXT	ENDS
; Function compile flags: /Odtp /RTCsu /ZI
; File z:\sampsrc\02xu1\raknet\ds_list.h
;	COMDAT ?Clear@?$List@URegisteredReplica@ReplicaManager@@@DataStructures@@QAEX_N@Z
_TEXT	SEGMENT
$T1 = -212						; size = 4
_this$ = -8						; size = 4
_doNotDeallocate$ = 8					; size = 1
?Clear@?$List@URegisteredReplica@ReplicaManager@@@DataStructures@@QAEX_N@Z PROC ; DataStructures::List<ReplicaManager::RegisteredReplica>::Clear, COMDAT
; _this$ = ecx

; 379  : 	{

	push	ebp
	mov	ebp, esp
	sub	esp, 216				; 000000d8H
	push	ebx
	push	esi
	push	edi
	push	ecx
	lea	edi, DWORD PTR [ebp-216]
	mov	ecx, 54					; 00000036H
	mov	eax, -858993460				; ccccccccH
	rep stosd
	pop	ecx
	mov	DWORD PTR _this$[ebp], ecx

; 380  : 		if ( allocation_size == 0 )

	mov	eax, DWORD PTR _this$[ebp]
	cmp	DWORD PTR [eax+8], 0
	jne	SHORT $LN2@Clear

; 381  : 			return;

	jmp	SHORT $LN3@Clear
$LN2@Clear:

; 382  : 
; 383  : 		if (allocation_size>512 && doNotDeallocate==false)

	mov	eax, DWORD PTR _this$[ebp]
	cmp	DWORD PTR [eax+8], 512			; 00000200H
	jbe	SHORT $LN1@Clear
	movzx	eax, BYTE PTR _doNotDeallocate$[ebp]
	test	eax, eax
	jne	SHORT $LN1@Clear

; 384  : 		{
; 385  : 			delete [] listArray;

	mov	eax, DWORD PTR _this$[ebp]
	mov	ecx, DWORD PTR [eax]
	mov	DWORD PTR $T1[ebp], ecx
	mov	edx, DWORD PTR $T1[ebp]
	push	edx
	call	??3@YAXPAX@Z				; operator delete
	add	esp, 4

; 386  : 			allocation_size = 0;

	mov	eax, DWORD PTR _this$[ebp]
	mov	DWORD PTR [eax+8], 0

; 387  : 			listArray = 0;

	mov	eax, DWORD PTR _this$[ebp]
	mov	DWORD PTR [eax], 0
$LN1@Clear:

; 388  : 		}
; 389  : 		list_size = 0;

	mov	eax, DWORD PTR _this$[ebp]
	mov	DWORD PTR [eax+4], 0
$LN3@Clear:

; 390  : 	}

	pop	edi
	pop	esi
	pop	ebx
	add	esp, 216				; 000000d8H
	cmp	ebp, esp
	call	__RTC_CheckEsp
	mov	esp, ebp
	pop	ebp
	ret	4
?Clear@?$List@URegisteredReplica@ReplicaManager@@@DataStructures@@QAEX_N@Z ENDP ; DataStructures::List<ReplicaManager::RegisteredReplica>::Clear
_TEXT	ENDS
; Function compile flags: /Odtp /RTCsu /ZI
; File z:\sampsrc\02xu1\raknet\ds_list.h
;	COMDAT ?Size@?$List@URegisteredReplica@ReplicaManager@@@DataStructures@@QBEIXZ
_TEXT	SEGMENT
_this$ = -8						; size = 4
?Size@?$List@URegisteredReplica@ReplicaManager@@@DataStructures@@QBEIXZ PROC ; DataStructures::List<ReplicaManager::RegisteredReplica>::Size, COMDAT
; _this$ = ecx

; 373  : 	{

	push	ebp
	mov	ebp, esp
	sub	esp, 204				; 000000ccH
	push	ebx
	push	esi
	push	edi
	push	ecx
	lea	edi, DWORD PTR [ebp-204]
	mov	ecx, 51					; 00000033H
	mov	eax, -858993460				; ccccccccH
	rep stosd
	pop	ecx
	mov	DWORD PTR _this$[ebp], ecx

; 374  : 		return list_size;

	mov	eax, DWORD PTR _this$[ebp]
	mov	eax, DWORD PTR [eax+4]

; 375  : 	}

	pop	edi
	pop	esi
	pop	ebx
	mov	esp, ebp
	pop	ebp
	ret	0
?Size@?$List@URegisteredReplica@ReplicaManager@@@DataStructures@@QBEIXZ ENDP ; DataStructures::List<ReplicaManager::RegisteredReplica>::Size
_TEXT	ENDS
; Function compile flags: /Odtp /RTCsu /ZI
; File z:\sampsrc\02xu1\raknet\ds_list.h
;	COMDAT ?Del@?$List@URegisteredReplica@ReplicaManager@@@DataStructures@@QAEXI@Z
_TEXT	SEGMENT
_this$ = -8						; size = 4
_num$ = 8						; size = 4
?Del@?$List@URegisteredReplica@ReplicaManager@@@DataStructures@@QAEXI@Z PROC ; DataStructures::List<ReplicaManager::RegisteredReplica>::Del, COMDAT
; _this$ = ecx

; 353  : 	{

	push	ebp
	mov	ebp, esp
	sub	esp, 204				; 000000ccH
	push	ebx
	push	esi
	push	edi
	push	ecx
	lea	edi, DWORD PTR [ebp-204]
	mov	ecx, 51					; 00000033H
	mov	eax, -858993460				; ccccccccH
	rep stosd
	pop	ecx
	mov	DWORD PTR _this$[ebp], ecx

; 354  : 		// Delete the last elements on the list.  No compression needed
; 355  : #ifdef _DEBUG
; 356  : 		assert(list_size>=num);

	mov	eax, DWORD PTR _this$[ebp]
	mov	ecx, DWORD PTR [eax+4]
	cmp	ecx, DWORD PTR _num$[ebp]
	jae	SHORT $LN3@Del
	push	356					; 00000164H
	push	OFFSET ??_C@_1EE@MBOIAKFO@?$AAz?$AA?3?$AA?2?$AAs?$AAa?$AAm?$AAp?$AAs?$AAr?$AAc?$AA?2?$AA0?$AA2?$AAx?$AAu?$AA1?$AA?2?$AAr?$AAa?$AAk?$AAn?$AAe?$AAt?$AA?2?$AAd?$AAs?$AA_?$AAl?$AAi?$AAs?$AAt?$AA?4@
	push	OFFSET ??_C@_1BO@JBFMBKMD@?$AAl?$AAi?$AAs?$AAt?$AA_?$AAs?$AAi?$AAz?$AAe?$AA?$DO?$AA?$DN?$AAn?$AAu?$AAm?$AA?$AA@
	call	__wassert
	add	esp, 12					; 0000000cH
$LN3@Del:

; 357  : #endif
; 358  : 		list_size-=num;

	mov	eax, DWORD PTR _this$[ebp]
	mov	ecx, DWORD PTR [eax+4]
	sub	ecx, DWORD PTR _num$[ebp]
	mov	edx, DWORD PTR _this$[ebp]
	mov	DWORD PTR [edx+4], ecx

; 359  : 	}

	pop	edi
	pop	esi
	pop	ebx
	add	esp, 204				; 000000ccH
	cmp	ebp, esp
	call	__RTC_CheckEsp
	mov	esp, ebp
	pop	ebp
	ret	4
?Del@?$List@URegisteredReplica@ReplicaManager@@@DataStructures@@QAEXI@Z ENDP ; DataStructures::List<ReplicaManager::RegisteredReplica>::Del
_TEXT	ENDS
; Function compile flags: /Odtp /RTCsu /ZI
; File z:\sampsrc\02xu1\raknet\ds_list.h
;	COMDAT ?RemoveAtIndex@?$List@URegisteredReplica@ReplicaManager@@@DataStructures@@QAEXI@Z
_TEXT	SEGMENT
_this$ = -8						; size = 4
_position$ = 8						; size = 4
?RemoveAtIndex@?$List@URegisteredReplica@ReplicaManager@@@DataStructures@@QAEXI@Z PROC ; DataStructures::List<ReplicaManager::RegisteredReplica>::RemoveAtIndex, COMDAT
; _this$ = ecx

; 333  : 	{

	push	ebp
	mov	ebp, esp
	sub	esp, 204				; 000000ccH
	push	ebx
	push	esi
	push	edi
	push	ecx
	lea	edi, DWORD PTR [ebp-204]
	mov	ecx, 51					; 00000033H
	mov	eax, -858993460				; ccccccccH
	rep stosd
	pop	ecx
	mov	DWORD PTR _this$[ebp], ecx

; 334  : #ifdef _DEBUG
; 335  : 		assert( position < list_size );

	mov	eax, DWORD PTR _this$[ebp]
	mov	ecx, DWORD PTR _position$[ebp]
	cmp	ecx, DWORD PTR [eax+4]
	jb	SHORT $LN4@RemoveAtIn
	push	335					; 0000014fH
	push	OFFSET ??_C@_1EE@MBOIAKFO@?$AAz?$AA?3?$AA?2?$AAs?$AAa?$AAm?$AAp?$AAs?$AAr?$AAc?$AA?2?$AA0?$AA2?$AAx?$AAu?$AA1?$AA?2?$AAr?$AAa?$AAk?$AAn?$AAe?$AAt?$AA?2?$AAd?$AAs?$AA_?$AAl?$AAi?$AAs?$AAt?$AA?4@
	push	OFFSET ??_C@_1CK@HINNGFPG@?$AAp?$AAo?$AAs?$AAi?$AAt?$AAi?$AAo?$AAn?$AA?5?$AA?$DM?$AA?5?$AAl?$AAi?$AAs?$AAt?$AA_?$AAs?$AAi?$AAz?$AAe?$AA?$AA@
	call	__wassert
	add	esp, 12					; 0000000cH
$LN4@RemoveAtIn:

; 336  : #endif
; 337  : 
; 338  : 		if ( position < list_size )

	mov	eax, DWORD PTR _this$[ebp]
	mov	ecx, DWORD PTR _position$[ebp]
	cmp	ecx, DWORD PTR [eax+4]
	jae	SHORT $LN2@RemoveAtIn

; 339  : 		{
; 340  : 			// Compress the array
; 341  : 			/*
; 342  : 			for ( unsigned int counter = position; counter < list_size - 1 ; ++counter )
; 343  : 			listArray[ counter ] = listArray[ counter + 1 ];
; 344  : 			*/
; 345  : 			memmove(listArray+position, listArray+position+1, (list_size-1-position) * sizeof(list_type));

	mov	eax, DWORD PTR _this$[ebp]
	mov	ecx, DWORD PTR [eax+4]
	sub	ecx, 1
	sub	ecx, DWORD PTR _position$[ebp]
	imul	edx, ecx, 9
	push	edx
	imul	eax, DWORD PTR _position$[ebp], 9
	mov	ecx, DWORD PTR _this$[ebp]
	mov	edx, DWORD PTR [ecx]
	lea	eax, DWORD PTR [edx+eax+9]
	push	eax
	imul	ecx, DWORD PTR _position$[ebp], 9
	mov	edx, DWORD PTR _this$[ebp]
	add	ecx, DWORD PTR [edx]
	push	ecx
	call	_memmove
	add	esp, 12					; 0000000cH

; 346  : 
; 347  : 			Del();

	push	1
	mov	ecx, DWORD PTR _this$[ebp]
	call	?Del@?$List@URegisteredReplica@ReplicaManager@@@DataStructures@@QAEXI@Z ; DataStructures::List<ReplicaManager::RegisteredReplica>::Del
$LN2@RemoveAtIn:

; 348  : 		}
; 349  : 	}

	pop	edi
	pop	esi
	pop	ebx
	add	esp, 204				; 000000ccH
	cmp	ebp, esp
	call	__RTC_CheckEsp
	mov	esp, ebp
	pop	ebp
	ret	4
?RemoveAtIndex@?$List@URegisteredReplica@ReplicaManager@@@DataStructures@@QAEXI@Z ENDP ; DataStructures::List<ReplicaManager::RegisteredReplica>::RemoveAtIndex
_TEXT	ENDS
; Function compile flags: /Odtp /RTCsu /ZI
; File z:\sampsrc\02xu1\raknet\ds_list.h
;	COMDAT ?Insert@?$List@URegisteredReplica@ReplicaManager@@@DataStructures@@QAEXURegisteredReplica@ReplicaManager@@@Z
_TEXT	SEGMENT
$T1 = -236						; size = 4
$T2 = -224						; size = 4
_new_array$3 = -20					; size = 4
_this$ = -8						; size = 4
_input$ = 8						; size = 9
?Insert@?$List@URegisteredReplica@ReplicaManager@@@DataStructures@@QAEXURegisteredReplica@ReplicaManager@@@Z PROC ; DataStructures::List<ReplicaManager::RegisteredReplica>::Insert, COMDAT
; _this$ = ecx

; 242  : 	{

	push	ebp
	mov	ebp, esp
	sub	esp, 240				; 000000f0H
	push	ebx
	push	esi
	push	edi
	push	ecx
	lea	edi, DWORD PTR [ebp-240]
	mov	ecx, 60					; 0000003cH
	mov	eax, -858993460				; ccccccccH
	rep stosd
	pop	ecx
	mov	DWORD PTR _this$[ebp], ecx

; 243  : 		// Reallocate list if necessary
; 244  : 
; 245  : 		if ( list_size == allocation_size )

	mov	eax, DWORD PTR _this$[ebp]
	mov	ecx, DWORD PTR _this$[ebp]
	mov	edx, DWORD PTR [eax+4]
	cmp	edx, DWORD PTR [ecx+8]
	jne	$LN3@Insert

; 246  : 		{
; 247  : 			// allocate twice the currently allocated memory
; 248  : 			list_type * new_array;
; 249  : 
; 250  : 			if ( allocation_size == 0 )

	mov	eax, DWORD PTR _this$[ebp]
	cmp	DWORD PTR [eax+8], 0
	jne	SHORT $LN2@Insert

; 251  : 				allocation_size = 16;

	mov	eax, DWORD PTR _this$[ebp]
	mov	DWORD PTR [eax+8], 16			; 00000010H

; 252  : 			else

	jmp	SHORT $LN1@Insert
$LN2@Insert:

; 253  : 				allocation_size *= 2;

	mov	eax, DWORD PTR _this$[ebp]
	mov	ecx, DWORD PTR [eax+8]
	shl	ecx, 1
	mov	edx, DWORD PTR _this$[ebp]
	mov	DWORD PTR [edx+8], ecx
$LN1@Insert:

; 254  : 
; 255  : 			new_array = new list_type [ allocation_size ];

	xor	ecx, ecx
	mov	edx, DWORD PTR _this$[ebp]
	mov	eax, DWORD PTR [edx+8]
	mov	edx, 9
	mul	edx
	seto	cl
	neg	ecx
	or	ecx, eax
	push	ecx
	call	??2@YAPAXI@Z				; operator new
	add	esp, 4
	mov	DWORD PTR $T1[ebp], eax
	mov	eax, DWORD PTR $T1[ebp]
	mov	DWORD PTR _new_array$3[ebp], eax

; 256  : 
; 257  : 			// copy old array over
; 258  : 			//	for ( unsigned int counter = 0; counter < list_size; ++counter )
; 259  : 			//		new_array[ counter ] = listArray[ counter ];
; 260  : 
; 261  : 			// Don't call constructors, assignment operators, etc.
; 262  : 			memcpy(new_array, listArray, list_size*sizeof(list_type));

	mov	eax, DWORD PTR _this$[ebp]
	imul	ecx, DWORD PTR [eax+4], 9
	push	ecx
	mov	edx, DWORD PTR _this$[ebp]
	mov	eax, DWORD PTR [edx]
	push	eax
	mov	ecx, DWORD PTR _new_array$3[ebp]
	push	ecx
	call	_memcpy
	add	esp, 12					; 0000000cH

; 263  : 
; 264  : 			// set old array to point to the newly allocated and twice as large array
; 265  : 			delete[] listArray;

	mov	eax, DWORD PTR _this$[ebp]
	mov	ecx, DWORD PTR [eax]
	mov	DWORD PTR $T2[ebp], ecx
	mov	edx, DWORD PTR $T2[ebp]
	push	edx
	call	??3@YAXPAX@Z				; operator delete
	add	esp, 4

; 266  : 
; 267  : 			listArray = new_array;

	mov	eax, DWORD PTR _this$[ebp]
	mov	ecx, DWORD PTR _new_array$3[ebp]
	mov	DWORD PTR [eax], ecx
$LN3@Insert:

; 268  : 		}
; 269  : 
; 270  : 		// Insert the new item at the correct spot
; 271  : 		listArray[ list_size ] = input;

	mov	eax, DWORD PTR _this$[ebp]
	imul	ecx, DWORD PTR [eax+4], 9
	mov	edx, DWORD PTR _this$[ebp]
	mov	eax, DWORD PTR [edx]
	add	eax, ecx
	mov	ecx, DWORD PTR _input$[ebp]
	mov	DWORD PTR [eax], ecx
	mov	edx, DWORD PTR _input$[ebp+4]
	mov	DWORD PTR [eax+4], edx
	mov	cl, BYTE PTR _input$[ebp+8]
	mov	BYTE PTR [eax+8], cl

; 272  : 
; 273  : 		++list_size;

	mov	eax, DWORD PTR _this$[ebp]
	mov	ecx, DWORD PTR [eax+4]
	add	ecx, 1
	mov	edx, DWORD PTR _this$[ebp]
	mov	DWORD PTR [edx+4], ecx

; 274  : 	}

	pop	edi
	pop	esi
	pop	ebx
	add	esp, 240				; 000000f0H
	cmp	ebp, esp
	call	__RTC_CheckEsp
	mov	esp, ebp
	pop	ebp
	ret	12					; 0000000cH
?Insert@?$List@URegisteredReplica@ReplicaManager@@@DataStructures@@QAEXURegisteredReplica@ReplicaManager@@@Z ENDP ; DataStructures::List<ReplicaManager::RegisteredReplica>::Insert
_TEXT	ENDS
; Function compile flags: /Odtp /RTCsu /ZI
; File z:\sampsrc\02xu1\raknet\ds_list.h
;	COMDAT ?Insert@?$List@URegisteredReplica@ReplicaManager@@@DataStructures@@QAEXURegisteredReplica@ReplicaManager@@I@Z
_TEXT	SEGMENT
$T1 = -236						; size = 4
$T2 = -224						; size = 4
_new_array$3 = -20					; size = 4
_this$ = -8						; size = 4
_input$ = 8						; size = 9
_position$ = 20						; size = 4
?Insert@?$List@URegisteredReplica@ReplicaManager@@@DataStructures@@QAEXURegisteredReplica@ReplicaManager@@I@Z PROC ; DataStructures::List<ReplicaManager::RegisteredReplica>::Insert, COMDAT
; _this$ = ecx

; 194  : 	{

	push	ebp
	mov	ebp, esp
	sub	esp, 240				; 000000f0H
	push	ebx
	push	esi
	push	edi
	push	ecx
	lea	edi, DWORD PTR [ebp-240]
	mov	ecx, 60					; 0000003cH
	mov	eax, -858993460				; ccccccccH
	rep stosd
	pop	ecx
	mov	DWORD PTR _this$[ebp], ecx

; 195  : #ifdef _DEBUG
; 196  : 		assert( position <= list_size );

	mov	eax, DWORD PTR _this$[ebp]
	mov	ecx, DWORD PTR _position$[ebp]
	cmp	ecx, DWORD PTR [eax+4]
	jbe	SHORT $LN6@Insert
	push	196					; 000000c4H
	push	OFFSET ??_C@_1EE@MBOIAKFO@?$AAz?$AA?3?$AA?2?$AAs?$AAa?$AAm?$AAp?$AAs?$AAr?$AAc?$AA?2?$AA0?$AA2?$AAx?$AAu?$AA1?$AA?2?$AAr?$AAa?$AAk?$AAn?$AAe?$AAt?$AA?2?$AAd?$AAs?$AA_?$AAl?$AAi?$AAs?$AAt?$AA?4@
	push	OFFSET ??_C@_1CM@FMCFHBCK@?$AAp?$AAo?$AAs?$AAi?$AAt?$AAi?$AAo?$AAn?$AA?5?$AA?$DM?$AA?$DN?$AA?5?$AAl?$AAi?$AAs?$AAt?$AA_?$AAs?$AAi?$AAz?$AAe?$AA?$AA@
	call	__wassert
	add	esp, 12					; 0000000cH
$LN6@Insert:

; 197  : #endif
; 198  : 
; 199  : 		// Reallocate list if necessary
; 200  : 		if ( list_size == allocation_size )

	mov	eax, DWORD PTR _this$[ebp]
	mov	ecx, DWORD PTR _this$[ebp]
	mov	edx, DWORD PTR [eax+4]
	cmp	edx, DWORD PTR [ecx+8]
	jne	$LN3@Insert

; 201  : 		{
; 202  : 			// allocate twice the currently allocated memory
; 203  : 			list_type * new_array;
; 204  : 
; 205  : 			if ( allocation_size == 0 )

	mov	eax, DWORD PTR _this$[ebp]
	cmp	DWORD PTR [eax+8], 0
	jne	SHORT $LN2@Insert

; 206  : 				allocation_size = 16;

	mov	eax, DWORD PTR _this$[ebp]
	mov	DWORD PTR [eax+8], 16			; 00000010H

; 207  : 			else

	jmp	SHORT $LN1@Insert
$LN2@Insert:

; 208  : 				allocation_size *= 2;

	mov	eax, DWORD PTR _this$[ebp]
	mov	ecx, DWORD PTR [eax+8]
	shl	ecx, 1
	mov	edx, DWORD PTR _this$[ebp]
	mov	DWORD PTR [edx+8], ecx
$LN1@Insert:

; 209  : 
; 210  : 			new_array = new list_type [ allocation_size ];

	xor	ecx, ecx
	mov	edx, DWORD PTR _this$[ebp]
	mov	eax, DWORD PTR [edx+8]
	mov	edx, 9
	mul	edx
	seto	cl
	neg	ecx
	or	ecx, eax
	push	ecx
	call	??2@YAPAXI@Z				; operator new
	add	esp, 4
	mov	DWORD PTR $T1[ebp], eax
	mov	eax, DWORD PTR $T1[ebp]
	mov	DWORD PTR _new_array$3[ebp], eax

; 211  : 
; 212  : 			// copy old array over
; 213  : 			//for ( unsigned int counter = 0; counter < list_size; ++counter )
; 214  : 			//	new_array[ counter ] = listArray[ counter ];
; 215  : 
; 216  : 			// Don't call constructors, assignment operators, etc.
; 217  : 			memcpy(new_array, listArray, list_size*sizeof(list_type));

	mov	eax, DWORD PTR _this$[ebp]
	imul	ecx, DWORD PTR [eax+4], 9
	push	ecx
	mov	edx, DWORD PTR _this$[ebp]
	mov	eax, DWORD PTR [edx]
	push	eax
	mov	ecx, DWORD PTR _new_array$3[ebp]
	push	ecx
	call	_memcpy
	add	esp, 12					; 0000000cH

; 218  : 
; 219  : 			// set old array to point to the newly allocated and twice as large array
; 220  : 			delete[] listArray;

	mov	eax, DWORD PTR _this$[ebp]
	mov	ecx, DWORD PTR [eax]
	mov	DWORD PTR $T2[ebp], ecx
	mov	edx, DWORD PTR $T2[ebp]
	push	edx
	call	??3@YAXPAX@Z				; operator delete
	add	esp, 4

; 221  : 
; 222  : 			listArray = new_array;

	mov	eax, DWORD PTR _this$[ebp]
	mov	ecx, DWORD PTR _new_array$3[ebp]
	mov	DWORD PTR [eax], ecx
$LN3@Insert:

; 223  : 		}
; 224  : 
; 225  : 		// Move the elements in the list to make room
; 226  : 		//for ( unsigned int counter = list_size; counter != position; counter-- )
; 227  : 		//	listArray[ counter ] = listArray[ counter - 1 ];
; 228  : 
; 229  : 		// Don't call constructors, assignment operators, etc.
; 230  : 		memmove(listArray+position+1, listArray+position, (list_size-position)*sizeof(list_type));

	mov	eax, DWORD PTR _this$[ebp]
	mov	ecx, DWORD PTR [eax+4]
	sub	ecx, DWORD PTR _position$[ebp]
	imul	edx, ecx, 9
	push	edx
	imul	eax, DWORD PTR _position$[ebp], 9
	mov	ecx, DWORD PTR _this$[ebp]
	add	eax, DWORD PTR [ecx]
	push	eax
	imul	edx, DWORD PTR _position$[ebp], 9
	mov	eax, DWORD PTR _this$[ebp]
	mov	ecx, DWORD PTR [eax]
	lea	edx, DWORD PTR [ecx+edx+9]
	push	edx
	call	_memmove
	add	esp, 12					; 0000000cH

; 231  : 
; 232  : 		// Insert the new item at the correct spot
; 233  : 		listArray[ position ] = input;

	imul	eax, DWORD PTR _position$[ebp], 9
	mov	ecx, DWORD PTR _this$[ebp]
	mov	edx, DWORD PTR [ecx]
	add	edx, eax
	mov	eax, DWORD PTR _input$[ebp]
	mov	DWORD PTR [edx], eax
	mov	ecx, DWORD PTR _input$[ebp+4]
	mov	DWORD PTR [edx+4], ecx
	mov	al, BYTE PTR _input$[ebp+8]
	mov	BYTE PTR [edx+8], al

; 234  : 
; 235  : 		++list_size;

	mov	eax, DWORD PTR _this$[ebp]
	mov	ecx, DWORD PTR [eax+4]
	add	ecx, 1
	mov	edx, DWORD PTR _this$[ebp]
	mov	DWORD PTR [edx+4], ecx

; 236  : 
; 237  : 	}

	pop	edi
	pop	esi
	pop	ebx
	add	esp, 240				; 000000f0H
	cmp	ebp, esp
	call	__RTC_CheckEsp
	mov	esp, ebp
	pop	ebp
	ret	16					; 00000010H
?Insert@?$List@URegisteredReplica@ReplicaManager@@@DataStructures@@QAEXURegisteredReplica@ReplicaManager@@I@Z ENDP ; DataStructures::List<ReplicaManager::RegisteredReplica>::Insert
_TEXT	ENDS
; Function compile flags: /Odtp /RTCsu /ZI
; File z:\sampsrc\02xu1\raknet\ds_list.h
;	COMDAT ??A?$List@URegisteredReplica@ReplicaManager@@@DataStructures@@QBEAAURegisteredReplica@ReplicaManager@@I@Z
_TEXT	SEGMENT
_this$ = -8						; size = 4
_position$ = 8						; size = 4
??A?$List@URegisteredReplica@ReplicaManager@@@DataStructures@@QBEAAURegisteredReplica@ReplicaManager@@I@Z PROC ; DataStructures::List<ReplicaManager::RegisteredReplica>::operator[], COMDAT
; _this$ = ecx

; 185  : 	{

	push	ebp
	mov	ebp, esp
	sub	esp, 204				; 000000ccH
	push	ebx
	push	esi
	push	edi
	push	ecx
	lea	edi, DWORD PTR [ebp-204]
	mov	ecx, 51					; 00000033H
	mov	eax, -858993460				; ccccccccH
	rep stosd
	pop	ecx
	mov	DWORD PTR _this$[ebp], ecx

; 186  : #ifdef _DEBUG
; 187  : 		assert ( position < list_size );

	mov	eax, DWORD PTR _this$[ebp]
	mov	ecx, DWORD PTR _position$[ebp]
	cmp	ecx, DWORD PTR [eax+4]
	jb	SHORT $LN3@operator
	push	187					; 000000bbH
	push	OFFSET ??_C@_1EE@MBOIAKFO@?$AAz?$AA?3?$AA?2?$AAs?$AAa?$AAm?$AAp?$AAs?$AAr?$AAc?$AA?2?$AA0?$AA2?$AAx?$AAu?$AA1?$AA?2?$AAr?$AAa?$AAk?$AAn?$AAe?$AAt?$AA?2?$AAd?$AAs?$AA_?$AAl?$AAi?$AAs?$AAt?$AA?4@
	push	OFFSET ??_C@_1CK@HINNGFPG@?$AAp?$AAo?$AAs?$AAi?$AAt?$AAi?$AAo?$AAn?$AA?5?$AA?$DM?$AA?5?$AAl?$AAi?$AAs?$AAt?$AA_?$AAs?$AAi?$AAz?$AAe?$AA?$AA@
	call	__wassert
	add	esp, 12					; 0000000cH
$LN3@operator:

; 188  : #endif
; 189  : 		return listArray[ position ];

	imul	eax, DWORD PTR _position$[ebp], 9
	mov	ecx, DWORD PTR _this$[ebp]
	add	eax, DWORD PTR [ecx]

; 190  : 	}

	pop	edi
	pop	esi
	pop	ebx
	add	esp, 204				; 000000ccH
	cmp	ebp, esp
	call	__RTC_CheckEsp
	mov	esp, ebp
	pop	ebp
	ret	4
??A?$List@URegisteredReplica@ReplicaManager@@@DataStructures@@QBEAAURegisteredReplica@ReplicaManager@@I@Z ENDP ; DataStructures::List<ReplicaManager::RegisteredReplica>::operator[]
_TEXT	ENDS
; Function compile flags: /Odtp /RTCsu /ZI
; File z:\sampsrc\02xu1\raknet\ds_list.h
;	COMDAT ??1?$List@URegisteredReplica@ReplicaManager@@@DataStructures@@QAE@XZ
_TEXT	SEGMENT
$T1 = -212						; size = 4
_this$ = -8						; size = 4
??1?$List@URegisteredReplica@ReplicaManager@@@DataStructures@@QAE@XZ PROC ; DataStructures::List<ReplicaManager::RegisteredReplica>::~List<ReplicaManager::RegisteredReplica>, COMDAT
; _this$ = ecx

; 121  : 	{

	push	ebp
	mov	ebp, esp
	sub	esp, 216				; 000000d8H
	push	ebx
	push	esi
	push	edi
	push	ecx
	lea	edi, DWORD PTR [ebp-216]
	mov	ecx, 54					; 00000036H
	mov	eax, -858993460				; ccccccccH
	rep stosd
	pop	ecx
	mov	DWORD PTR _this$[ebp], ecx

; 122  : 		if (allocation_size>0)

	mov	eax, DWORD PTR _this$[ebp]
	cmp	DWORD PTR [eax+8], 0
	jbe	SHORT $LN2@List

; 123  : 			delete [] listArray;

	mov	eax, DWORD PTR _this$[ebp]
	mov	ecx, DWORD PTR [eax]
	mov	DWORD PTR $T1[ebp], ecx
	mov	edx, DWORD PTR $T1[ebp]
	push	edx
	call	??3@YAXPAX@Z				; operator delete
	add	esp, 4
$LN2@List:

; 124  : 	}

	pop	edi
	pop	esi
	pop	ebx
	add	esp, 216				; 000000d8H
	cmp	ebp, esp
	call	__RTC_CheckEsp
	mov	esp, ebp
	pop	ebp
	ret	0
??1?$List@URegisteredReplica@ReplicaManager@@@DataStructures@@QAE@XZ ENDP ; DataStructures::List<ReplicaManager::RegisteredReplica>::~List<ReplicaManager::RegisteredReplica>
_TEXT	ENDS
; Function compile flags: /Odtp /RTCsu /ZI
; File z:\sampsrc\02xu1\raknet\ds_list.h
;	COMDAT ??0?$List@URegisteredReplica@ReplicaManager@@@DataStructures@@QAE@XZ
_TEXT	SEGMENT
_this$ = -8						; size = 4
??0?$List@URegisteredReplica@ReplicaManager@@@DataStructures@@QAE@XZ PROC ; DataStructures::List<ReplicaManager::RegisteredReplica>::List<ReplicaManager::RegisteredReplica>, COMDAT
; _this$ = ecx

; 113  : 	{

	push	ebp
	mov	ebp, esp
	sub	esp, 204				; 000000ccH
	push	ebx
	push	esi
	push	edi
	push	ecx
	lea	edi, DWORD PTR [ebp-204]
	mov	ecx, 51					; 00000033H
	mov	eax, -858993460				; ccccccccH
	rep stosd
	pop	ecx
	mov	DWORD PTR _this$[ebp], ecx

; 114  : 		allocation_size = 0;

	mov	eax, DWORD PTR _this$[ebp]
	mov	DWORD PTR [eax+8], 0

; 115  : 		listArray = 0;

	mov	eax, DWORD PTR _this$[ebp]
	mov	DWORD PTR [eax], 0

; 116  : 		list_size = 0;

	mov	eax, DWORD PTR _this$[ebp]
	mov	DWORD PTR [eax+4], 0

; 117  : 	}

	mov	eax, DWORD PTR _this$[ebp]
	pop	edi
	pop	esi
	pop	ebx
	mov	esp, ebp
	pop	ebp
	ret	0
??0?$List@URegisteredReplica@ReplicaManager@@@DataStructures@@QAE@XZ ENDP ; DataStructures::List<ReplicaManager::RegisteredReplica>::List<ReplicaManager::RegisteredReplica>
_TEXT	ENDS
; Function compile flags: /Odtp /RTCsu /ZI
; File z:\sampsrc\02xu1\raknet\ds_orderedlist.h
;	COMDAT ?Size@?$OrderedList@PAVReplica@@URegisteredReplica@ReplicaManager@@$1?RegisteredReplicaComp@3@SAHABQAV1@ABU23@@Z@DataStructures@@QBEIXZ
_TEXT	SEGMENT
_this$ = -8						; size = 4
?Size@?$OrderedList@PAVReplica@@URegisteredReplica@ReplicaManager@@$1?RegisteredReplicaComp@3@SAHABQAV1@ABU23@@Z@DataStructures@@QBEIXZ PROC ; DataStructures::OrderedList<Replica *,ReplicaManager::RegisteredReplica,&ReplicaManager::RegisteredReplicaComp>::Size, COMDAT
; _this$ = ecx

; 231  : 	{

	push	ebp
	mov	ebp, esp
	sub	esp, 204				; 000000ccH
	push	ebx
	push	esi
	push	edi
	push	ecx
	lea	edi, DWORD PTR [ebp-204]
	mov	ecx, 51					; 00000033H
	mov	eax, -858993460				; ccccccccH
	rep stosd
	pop	ecx
	mov	DWORD PTR _this$[ebp], ecx

; 232  : 		return orderedList.Size();

	mov	ecx, DWORD PTR _this$[ebp]
	call	?Size@?$List@URegisteredReplica@ReplicaManager@@@DataStructures@@QBEIXZ ; DataStructures::List<ReplicaManager::RegisteredReplica>::Size

; 233  : 	}

	pop	edi
	pop	esi
	pop	ebx
	add	esp, 204				; 000000ccH
	cmp	ebp, esp
	call	__RTC_CheckEsp
	mov	esp, ebp
	pop	ebp
	ret	0
?Size@?$OrderedList@PAVReplica@@URegisteredReplica@ReplicaManager@@$1?RegisteredReplicaComp@3@SAHABQAV1@ABU23@@Z@DataStructures@@QBEIXZ ENDP ; DataStructures::OrderedList<Replica *,ReplicaManager::RegisteredReplica,&ReplicaManager::RegisteredReplicaComp>::Size
_TEXT	ENDS
; Function compile flags: /Odtp /RTCsu /ZI
; File z:\sampsrc\02xu1\raknet\ds_orderedlist.h
;	COMDAT ?Clear@?$OrderedList@PAVReplica@@URegisteredReplica@ReplicaManager@@$1?RegisteredReplicaComp@3@SAHABQAV1@ABU23@@Z@DataStructures@@QAEXXZ
_TEXT	SEGMENT
_this$ = -8						; size = 4
?Clear@?$OrderedList@PAVReplica@@URegisteredReplica@ReplicaManager@@$1?RegisteredReplicaComp@3@SAHABQAV1@ABU23@@Z@DataStructures@@QAEXXZ PROC ; DataStructures::OrderedList<Replica *,ReplicaManager::RegisteredReplica,&ReplicaManager::RegisteredReplicaComp>::Clear, COMDAT
; _this$ = ecx

; 219  : 	{

	push	ebp
	mov	ebp, esp
	sub	esp, 204				; 000000ccH
	push	ebx
	push	esi
	push	edi
	push	ecx
	lea	edi, DWORD PTR [ebp-204]
	mov	ecx, 51					; 00000033H
	mov	eax, -858993460				; ccccccccH
	rep stosd
	pop	ecx
	mov	DWORD PTR _this$[ebp], ecx

; 220  : 		orderedList.Clear();

	push	0
	mov	ecx, DWORD PTR _this$[ebp]
	call	?Clear@?$List@URegisteredReplica@ReplicaManager@@@DataStructures@@QAEX_N@Z ; DataStructures::List<ReplicaManager::RegisteredReplica>::Clear

; 221  : 	}

	pop	edi
	pop	esi
	pop	ebx
	add	esp, 204				; 000000ccH
	cmp	ebp, esp
	call	__RTC_CheckEsp
	mov	esp, ebp
	pop	ebp
	ret	0
?Clear@?$OrderedList@PAVReplica@@URegisteredReplica@ReplicaManager@@$1?RegisteredReplicaComp@3@SAHABQAV1@ABU23@@Z@DataStructures@@QAEXXZ ENDP ; DataStructures::OrderedList<Replica *,ReplicaManager::RegisteredReplica,&ReplicaManager::RegisteredReplicaComp>::Clear
_TEXT	ENDS
; Function compile flags: /Odtp /RTCsu /ZI
; File z:\sampsrc\02xu1\raknet\ds_orderedlist.h
;	COMDAT ?RemoveAtIndex@?$OrderedList@PAVReplica@@URegisteredReplica@ReplicaManager@@$1?RegisteredReplicaComp@3@SAHABQAV1@ABU23@@Z@DataStructures@@QAEXI@Z
_TEXT	SEGMENT
_this$ = -8						; size = 4
_index$ = 8						; size = 4
?RemoveAtIndex@?$OrderedList@PAVReplica@@URegisteredReplica@ReplicaManager@@$1?RegisteredReplicaComp@3@SAHABQAV1@ABU23@@Z@DataStructures@@QAEXI@Z PROC ; DataStructures::OrderedList<Replica *,ReplicaManager::RegisteredReplica,&ReplicaManager::RegisteredReplicaComp>::RemoveAtIndex, COMDAT
; _this$ = ecx

; 195  : 	{

	push	ebp
	mov	ebp, esp
	sub	esp, 204				; 000000ccH
	push	ebx
	push	esi
	push	edi
	push	ecx
	lea	edi, DWORD PTR [ebp-204]
	mov	ecx, 51					; 00000033H
	mov	eax, -858993460				; ccccccccH
	rep stosd
	pop	ecx
	mov	DWORD PTR _this$[ebp], ecx

; 196  : 		orderedList.RemoveAtIndex(index);

	mov	eax, DWORD PTR _index$[ebp]
	push	eax
	mov	ecx, DWORD PTR _this$[ebp]
	call	?RemoveAtIndex@?$List@URegisteredReplica@ReplicaManager@@@DataStructures@@QAEXI@Z ; DataStructures::List<ReplicaManager::RegisteredReplica>::RemoveAtIndex

; 197  : 	}

	pop	edi
	pop	esi
	pop	ebx
	add	esp, 204				; 000000ccH
	cmp	ebp, esp
	call	__RTC_CheckEsp
	mov	esp, ebp
	pop	ebp
	ret	4
?RemoveAtIndex@?$OrderedList@PAVReplica@@URegisteredReplica@ReplicaManager@@$1?RegisteredReplicaComp@3@SAHABQAV1@ABU23@@Z@DataStructures@@QAEXI@Z ENDP ; DataStructures::OrderedList<Replica *,ReplicaManager::RegisteredReplica,&ReplicaManager::RegisteredReplicaComp>::RemoveAtIndex
_TEXT	ENDS
; Function compile flags: /Odtp /RTCsu /ZI
; File z:\sampsrc\02xu1\raknet\ds_orderedlist.h
;	COMDAT ??A?$OrderedList@PAVReplica@@URegisteredReplica@ReplicaManager@@$1?RegisteredReplicaComp@3@SAHABQAV1@ABU23@@Z@DataStructures@@QBEAAURegisteredReplica@ReplicaManager@@I@Z
_TEXT	SEGMENT
_this$ = -8						; size = 4
_position$ = 8						; size = 4
??A?$OrderedList@PAVReplica@@URegisteredReplica@ReplicaManager@@$1?RegisteredReplicaComp@3@SAHABQAV1@ABU23@@Z@DataStructures@@QBEAAURegisteredReplica@ReplicaManager@@I@Z PROC ; DataStructures::OrderedList<Replica *,ReplicaManager::RegisteredReplica,&ReplicaManager::RegisteredReplicaComp>::operator[], COMDAT
; _this$ = ecx

; 225  : 	{

	push	ebp
	mov	ebp, esp
	sub	esp, 204				; 000000ccH
	push	ebx
	push	esi
	push	edi
	push	ecx
	lea	edi, DWORD PTR [ebp-204]
	mov	ecx, 51					; 00000033H
	mov	eax, -858993460				; ccccccccH
	rep stosd
	pop	ecx
	mov	DWORD PTR _this$[ebp], ecx

; 226  : 		return orderedList[position];

	mov	eax, DWORD PTR _position$[ebp]
	push	eax
	mov	ecx, DWORD PTR _this$[ebp]
	call	??A?$List@URegisteredReplica@ReplicaManager@@@DataStructures@@QBEAAURegisteredReplica@ReplicaManager@@I@Z ; DataStructures::List<ReplicaManager::RegisteredReplica>::operator[]

; 227  : 	}

	pop	edi
	pop	esi
	pop	ebx
	add	esp, 204				; 000000ccH
	cmp	ebp, esp
	call	__RTC_CheckEsp
	mov	esp, ebp
	pop	ebp
	ret	4
??A?$OrderedList@PAVReplica@@URegisteredReplica@ReplicaManager@@$1?RegisteredReplicaComp@3@SAHABQAV1@ABU23@@Z@DataStructures@@QBEAAURegisteredReplica@ReplicaManager@@I@Z ENDP ; DataStructures::OrderedList<Replica *,ReplicaManager::RegisteredReplica,&ReplicaManager::RegisteredReplicaComp>::operator[]
_TEXT	ENDS
; Function compile flags: /Odtp /RTCsu /ZI
; File z:\sampsrc\02xu1\raknet\ds_orderedlist.h
;	COMDAT ?Insert@?$OrderedList@PAVReplica@@URegisteredReplica@ReplicaManager@@$1?RegisteredReplicaComp@3@SAHABQAV1@ABU23@@Z@DataStructures@@QAEIABQAVReplica@@ABURegisteredReplica@ReplicaManager@@@Z
_TEXT	SEGMENT
_index$ = -32						; size = 4
_objectExists$ = -17					; size = 1
_this$ = -8						; size = 4
_key$ = 8						; size = 4
_data$ = 12						; size = 4
?Insert@?$OrderedList@PAVReplica@@URegisteredReplica@ReplicaManager@@$1?RegisteredReplicaComp@3@SAHABQAV1@ABU23@@Z@DataStructures@@QAEIABQAVReplica@@ABURegisteredReplica@ReplicaManager@@@Z PROC ; DataStructures::OrderedList<Replica *,ReplicaManager::RegisteredReplica,&ReplicaManager::RegisteredReplicaComp>::Insert, COMDAT
; _this$ = ecx

; 156  : 	{

	push	ebp
	mov	ebp, esp
	sub	esp, 228				; 000000e4H
	push	ebx
	push	esi
	push	edi
	push	ecx
	lea	edi, DWORD PTR [ebp-228]
	mov	ecx, 57					; 00000039H
	mov	eax, -858993460				; ccccccccH
	rep stosd
	pop	ecx
	mov	DWORD PTR _this$[ebp], ecx

; 157  : 		bool objectExists;
; 158  : 		unsigned index;
; 159  : 		index = GetIndexFromKey(key, &objectExists);

	lea	eax, DWORD PTR _objectExists$[ebp]
	push	eax
	mov	ecx, DWORD PTR _key$[ebp]
	push	ecx
	mov	ecx, DWORD PTR _this$[ebp]
	call	?GetIndexFromKey@?$OrderedList@PAVReplica@@URegisteredReplica@ReplicaManager@@$1?RegisteredReplicaComp@3@SAHABQAV1@ABU23@@Z@DataStructures@@QBEIABQAVReplica@@PA_N@Z ; DataStructures::OrderedList<Replica *,ReplicaManager::RegisteredReplica,&ReplicaManager::RegisteredReplicaComp>::GetIndexFromKey
	mov	DWORD PTR _index$[ebp], eax

; 160  : 
; 161  : 		// Don't allow duplicate insertion.
; 162  : 		if (objectExists)

	movzx	eax, BYTE PTR _objectExists$[ebp]
	test	eax, eax
	je	SHORT $LN3@Insert

; 163  : 			return (unsigned)-1;

	or	eax, -1
	jmp	SHORT $LN4@Insert
$LN3@Insert:

; 164  : 
; 165  : 		if (index>=orderedList.Size())

	mov	ecx, DWORD PTR _this$[ebp]
	call	?Size@?$List@URegisteredReplica@ReplicaManager@@@DataStructures@@QBEIXZ ; DataStructures::List<ReplicaManager::RegisteredReplica>::Size
	cmp	DWORD PTR _index$[ebp], eax
	jb	SHORT $LN2@Insert

; 166  : 		{
; 167  : 			orderedList.Insert(data);

	mov	eax, DWORD PTR _data$[ebp]
	sub	esp, 12					; 0000000cH
	mov	ecx, esp
	mov	edx, DWORD PTR [eax]
	mov	DWORD PTR [ecx], edx
	mov	edx, DWORD PTR [eax+4]
	mov	DWORD PTR [ecx+4], edx
	mov	al, BYTE PTR [eax+8]
	mov	BYTE PTR [ecx+8], al
	mov	ecx, DWORD PTR _this$[ebp]
	call	?Insert@?$List@URegisteredReplica@ReplicaManager@@@DataStructures@@QAEXURegisteredReplica@ReplicaManager@@@Z ; DataStructures::List<ReplicaManager::RegisteredReplica>::Insert

; 168  : 			return orderedList.Size()-1;

	mov	ecx, DWORD PTR _this$[ebp]
	call	?Size@?$List@URegisteredReplica@ReplicaManager@@@DataStructures@@QBEIXZ ; DataStructures::List<ReplicaManager::RegisteredReplica>::Size
	sub	eax, 1
	jmp	SHORT $LN4@Insert

; 169  : 		}
; 170  : 		else

	jmp	SHORT $LN4@Insert
$LN2@Insert:

; 171  : 		{
; 172  : 			orderedList.Insert(data,index);

	mov	eax, DWORD PTR _index$[ebp]
	push	eax
	mov	ecx, DWORD PTR _data$[ebp]
	sub	esp, 12					; 0000000cH
	mov	edx, esp
	mov	eax, DWORD PTR [ecx]
	mov	DWORD PTR [edx], eax
	mov	eax, DWORD PTR [ecx+4]
	mov	DWORD PTR [edx+4], eax
	mov	cl, BYTE PTR [ecx+8]
	mov	BYTE PTR [edx+8], cl
	mov	ecx, DWORD PTR _this$[ebp]
	call	?Insert@?$List@URegisteredReplica@ReplicaManager@@@DataStructures@@QAEXURegisteredReplica@ReplicaManager@@I@Z ; DataStructures::List<ReplicaManager::RegisteredReplica>::Insert

; 173  : 			return index;

	mov	eax, DWORD PTR _index$[ebp]
$LN4@Insert:

; 174  : 		}		
; 175  : 	}

	push	edx
	mov	ecx, ebp
	push	eax
	lea	edx, DWORD PTR $LN8@Insert
	call	@_RTC_CheckStackVars@8
	pop	eax
	pop	edx
	pop	edi
	pop	esi
	pop	ebx
	add	esp, 228				; 000000e4H
	cmp	ebp, esp
	call	__RTC_CheckEsp
	mov	esp, ebp
	pop	ebp
	ret	8
	npad	3
$LN8@Insert:
	DD	1
	DD	$LN7@Insert
$LN7@Insert:
	DD	-17					; ffffffefH
	DD	1
	DD	$LN6@Insert
$LN6@Insert:
	DB	111					; 0000006fH
	DB	98					; 00000062H
	DB	106					; 0000006aH
	DB	101					; 00000065H
	DB	99					; 00000063H
	DB	116					; 00000074H
	DB	69					; 00000045H
	DB	120					; 00000078H
	DB	105					; 00000069H
	DB	115					; 00000073H
	DB	116					; 00000074H
	DB	115					; 00000073H
	DB	0
?Insert@?$OrderedList@PAVReplica@@URegisteredReplica@ReplicaManager@@$1?RegisteredReplicaComp@3@SAHABQAV1@ABU23@@Z@DataStructures@@QAEIABQAVReplica@@ABURegisteredReplica@ReplicaManager@@@Z ENDP ; DataStructures::OrderedList<Replica *,ReplicaManager::RegisteredReplica,&ReplicaManager::RegisteredReplicaComp>::Insert
_TEXT	ENDS
; Function compile flags: /Odtp /RTCsu /ZI
; File z:\sampsrc\02xu1\raknet\ds_orderedlist.h
;	COMDAT ?GetIndexFromKey@?$OrderedList@PAVReplica@@URegisteredReplica@ReplicaManager@@$1?RegisteredReplicaComp@3@SAHABQAV1@ABU23@@Z@DataStructures@@QBEIABQAVReplica@@PA_N@Z
_TEXT	SEGMENT
_res$ = -56						; size = 4
_lowerBound$ = -44					; size = 4
_upperBound$ = -32					; size = 4
_index$ = -20						; size = 4
_this$ = -8						; size = 4
_key$ = 8						; size = 4
_objectExists$ = 12					; size = 4
?GetIndexFromKey@?$OrderedList@PAVReplica@@URegisteredReplica@ReplicaManager@@$1?RegisteredReplicaComp@3@SAHABQAV1@ABU23@@Z@DataStructures@@QBEIABQAVReplica@@PA_N@Z PROC ; DataStructures::OrderedList<Replica *,ReplicaManager::RegisteredReplica,&ReplicaManager::RegisteredReplicaComp>::GetIndexFromKey, COMDAT
; _this$ = ecx

; 110  : 	{

	push	ebp
	mov	ebp, esp
	sub	esp, 252				; 000000fcH
	push	ebx
	push	esi
	push	edi
	push	ecx
	lea	edi, DWORD PTR [ebp-252]
	mov	ecx, 63					; 0000003fH
	mov	eax, -858993460				; ccccccccH
	rep stosd
	pop	ecx
	mov	DWORD PTR _this$[ebp], ecx

; 111  : 		int index, upperBound, lowerBound;
; 112  : 		int res;
; 113  : 
; 114  : 		if (orderedList.Size()==0)

	mov	ecx, DWORD PTR _this$[ebp]
	call	?Size@?$List@URegisteredReplica@ReplicaManager@@@DataStructures@@QBEIXZ ; DataStructures::List<ReplicaManager::RegisteredReplica>::Size
	test	eax, eax
	jne	SHORT $LN8@GetIndexFr

; 115  : 		{
; 116  : 			*objectExists=false;

	mov	eax, DWORD PTR _objectExists$[ebp]
	mov	BYTE PTR [eax], 0

; 117  : 			return 0;

	xor	eax, eax
	jmp	$LN9@GetIndexFr
$LN8@GetIndexFr:

; 118  : 		}
; 119  : 
; 120  : 		upperBound=(int)orderedList.Size()-1;

	mov	ecx, DWORD PTR _this$[ebp]
	call	?Size@?$List@URegisteredReplica@ReplicaManager@@@DataStructures@@QBEIXZ ; DataStructures::List<ReplicaManager::RegisteredReplica>::Size
	sub	eax, 1
	mov	DWORD PTR _upperBound$[ebp], eax

; 121  : 		lowerBound=0;

	mov	DWORD PTR _lowerBound$[ebp], 0

; 122  : 		index = (int)orderedList.Size()/2;

	mov	ecx, DWORD PTR _this$[ebp]
	call	?Size@?$List@URegisteredReplica@ReplicaManager@@@DataStructures@@QBEIXZ ; DataStructures::List<ReplicaManager::RegisteredReplica>::Size
	cdq
	sub	eax, edx
	sar	eax, 1
	mov	DWORD PTR _index$[ebp], eax
$LN7@GetIndexFr:

; 123  : 
; 124  : #ifdef _MSC_VER
; 125  : 	#pragma warning( disable : 4127 ) // warning C4127: conditional expression is constant
; 126  : #endif
; 127  : 		while (1)

	mov	eax, 1
	test	eax, eax
	je	SHORT $LN9@GetIndexFr

; 128  : 		{
; 129  : 			res = comparison_function(key,orderedList[index]);

	mov	eax, DWORD PTR _index$[ebp]
	push	eax
	mov	ecx, DWORD PTR _this$[ebp]
	call	??A?$List@URegisteredReplica@ReplicaManager@@@DataStructures@@QBEAAURegisteredReplica@ReplicaManager@@I@Z ; DataStructures::List<ReplicaManager::RegisteredReplica>::operator[]
	push	eax
	mov	ecx, DWORD PTR _key$[ebp]
	push	ecx
	call	?RegisteredReplicaComp@ReplicaManager@@SAHABQAVReplica@@ABURegisteredReplica@1@@Z ; ReplicaManager::RegisteredReplicaComp
	add	esp, 8
	mov	DWORD PTR _res$[ebp], eax

; 130  : 			if (res==0)

	cmp	DWORD PTR _res$[ebp], 0
	jne	SHORT $LN5@GetIndexFr

; 131  : 			{
; 132  : 				*objectExists=true;

	mov	eax, DWORD PTR _objectExists$[ebp]
	mov	BYTE PTR [eax], 1

; 133  : 				return index;

	mov	eax, DWORD PTR _index$[ebp]
	jmp	SHORT $LN9@GetIndexFr
	jmp	SHORT $LN4@GetIndexFr
$LN5@GetIndexFr:

; 134  : 			}
; 135  : 			else if (res<0)

	cmp	DWORD PTR _res$[ebp], 0
	jge	SHORT $LN3@GetIndexFr

; 136  : 			{
; 137  : 				upperBound=index-1;

	mov	eax, DWORD PTR _index$[ebp]
	sub	eax, 1
	mov	DWORD PTR _upperBound$[ebp], eax

; 138  : 			}
; 139  : 			else// if (res>0)

	jmp	SHORT $LN4@GetIndexFr
$LN3@GetIndexFr:

; 140  : 			{
; 141  : 				lowerBound=index+1;

	mov	eax, DWORD PTR _index$[ebp]
	add	eax, 1
	mov	DWORD PTR _lowerBound$[ebp], eax
$LN4@GetIndexFr:

; 142  : 			}
; 143  : 
; 144  : 			index=lowerBound+(upperBound-lowerBound)/2;

	mov	eax, DWORD PTR _upperBound$[ebp]
	sub	eax, DWORD PTR _lowerBound$[ebp]
	cdq
	sub	eax, edx
	sar	eax, 1
	add	eax, DWORD PTR _lowerBound$[ebp]
	mov	DWORD PTR _index$[ebp], eax

; 145  : 
; 146  : 			if (lowerBound>upperBound)

	mov	eax, DWORD PTR _lowerBound$[ebp]
	cmp	eax, DWORD PTR _upperBound$[ebp]
	jle	SHORT $LN1@GetIndexFr

; 147  : 			{
; 148  : 				*objectExists=false;

	mov	eax, DWORD PTR _objectExists$[ebp]
	mov	BYTE PTR [eax], 0

; 149  : 				return lowerBound; // No match

	mov	eax, DWORD PTR _lowerBound$[ebp]
	jmp	SHORT $LN9@GetIndexFr
$LN1@GetIndexFr:

; 150  : 			}
; 151  : 		}

	jmp	SHORT $LN7@GetIndexFr
$LN9@GetIndexFr:

; 152  : 	}

	pop	edi
	pop	esi
	pop	ebx
	add	esp, 252				; 000000fcH
	cmp	ebp, esp
	call	__RTC_CheckEsp
	mov	esp, ebp
	pop	ebp
	ret	8
?GetIndexFromKey@?$OrderedList@PAVReplica@@URegisteredReplica@ReplicaManager@@$1?RegisteredReplicaComp@3@SAHABQAV1@ABU23@@Z@DataStructures@@QBEIABQAVReplica@@PA_N@Z ENDP ; DataStructures::OrderedList<Replica *,ReplicaManager::RegisteredReplica,&ReplicaManager::RegisteredReplicaComp>::GetIndexFromKey
_TEXT	ENDS
; Function compile flags: /Odtp /RTCsu /ZI
; File z:\sampsrc\02xu1\raknet\ds_orderedlist.h
;	COMDAT ?HasData@?$OrderedList@PAVReplica@@URegisteredReplica@ReplicaManager@@$1?RegisteredReplicaComp@3@SAHABQAV1@ABU23@@Z@DataStructures@@QBE_NABQAVReplica@@@Z
_TEXT	SEGMENT
_index$ = -32						; size = 4
_objectExists$ = -17					; size = 1
_this$ = -8						; size = 4
_key$ = 8						; size = 4
?HasData@?$OrderedList@PAVReplica@@URegisteredReplica@ReplicaManager@@$1?RegisteredReplicaComp@3@SAHABQAV1@ABU23@@Z@DataStructures@@QBE_NABQAVReplica@@@Z PROC ; DataStructures::OrderedList<Replica *,ReplicaManager::RegisteredReplica,&ReplicaManager::RegisteredReplicaComp>::HasData, COMDAT
; _this$ = ecx

; 91   : 	{

	push	ebp
	mov	ebp, esp
	sub	esp, 228				; 000000e4H
	push	ebx
	push	esi
	push	edi
	push	ecx
	lea	edi, DWORD PTR [ebp-228]
	mov	ecx, 57					; 00000039H
	mov	eax, -858993460				; ccccccccH
	rep stosd
	pop	ecx
	mov	DWORD PTR _this$[ebp], ecx

; 92   : 		bool objectExists;
; 93   : 		unsigned index;
; 94   : 		index = GetIndexFromKey(key, &objectExists);

	lea	eax, DWORD PTR _objectExists$[ebp]
	push	eax
	mov	ecx, DWORD PTR _key$[ebp]
	push	ecx
	mov	ecx, DWORD PTR _this$[ebp]
	call	?GetIndexFromKey@?$OrderedList@PAVReplica@@URegisteredReplica@ReplicaManager@@$1?RegisteredReplicaComp@3@SAHABQAV1@ABU23@@Z@DataStructures@@QBEIABQAVReplica@@PA_N@Z ; DataStructures::OrderedList<Replica *,ReplicaManager::RegisteredReplica,&ReplicaManager::RegisteredReplicaComp>::GetIndexFromKey
	mov	DWORD PTR _index$[ebp], eax

; 95   : 		return objectExists;

	mov	al, BYTE PTR _objectExists$[ebp]

; 96   : 	}

	push	edx
	mov	ecx, ebp
	push	eax
	lea	edx, DWORD PTR $LN5@HasData
	call	@_RTC_CheckStackVars@8
	pop	eax
	pop	edx
	pop	edi
	pop	esi
	pop	ebx
	add	esp, 228				; 000000e4H
	cmp	ebp, esp
	call	__RTC_CheckEsp
	mov	esp, ebp
	pop	ebp
	ret	4
$LN5@HasData:
	DD	1
	DD	$LN4@HasData
$LN4@HasData:
	DD	-17					; ffffffefH
	DD	1
	DD	$LN3@HasData
$LN3@HasData:
	DB	111					; 0000006fH
	DB	98					; 00000062H
	DB	106					; 0000006aH
	DB	101					; 00000065H
	DB	99					; 00000063H
	DB	116					; 00000074H
	DB	69					; 00000045H
	DB	120					; 00000078H
	DB	105					; 00000069H
	DB	115					; 00000073H
	DB	116					; 00000074H
	DB	115					; 00000073H
	DB	0
?HasData@?$OrderedList@PAVReplica@@URegisteredReplica@ReplicaManager@@$1?RegisteredReplicaComp@3@SAHABQAV1@ABU23@@Z@DataStructures@@QBE_NABQAVReplica@@@Z ENDP ; DataStructures::OrderedList<Replica *,ReplicaManager::RegisteredReplica,&ReplicaManager::RegisteredReplicaComp>::HasData
_TEXT	ENDS
; Function compile flags: /Odtp /RTCsu /ZI
; File z:\sampsrc\02xu1\raknet\ds_orderedlist.h
;	COMDAT ??1?$OrderedList@PAVReplica@@URegisteredReplica@ReplicaManager@@$1?RegisteredReplicaComp@3@SAHABQAV1@ABU23@@Z@DataStructures@@QAE@XZ
_TEXT	SEGMENT
_this$ = -20						; size = 4
__$EHRec$ = -12						; size = 12
??1?$OrderedList@PAVReplica@@URegisteredReplica@ReplicaManager@@$1?RegisteredReplicaComp@3@SAHABQAV1@ABU23@@Z@DataStructures@@QAE@XZ PROC ; DataStructures::OrderedList<Replica *,ReplicaManager::RegisteredReplica,&ReplicaManager::RegisteredReplicaComp>::~OrderedList<Replica *,ReplicaManager::RegisteredReplica,&ReplicaManager::RegisteredReplicaComp>, COMDAT
; _this$ = ecx

; 72   : 	{

	push	ebp
	mov	ebp, esp
	push	-1
	push	__ehhandler$??1?$OrderedList@PAVReplica@@URegisteredReplica@ReplicaManager@@$1?RegisteredReplicaComp@3@SAHABQAV1@ABU23@@Z@DataStructures@@QAE@XZ
	mov	eax, DWORD PTR fs:0
	push	eax
	sub	esp, 204				; 000000ccH
	push	ebx
	push	esi
	push	edi
	push	ecx
	lea	edi, DWORD PTR [ebp-216]
	mov	ecx, 51					; 00000033H
	mov	eax, -858993460				; ccccccccH
	rep stosd
	pop	ecx
	mov	eax, DWORD PTR ___security_cookie
	xor	eax, ebp
	push	eax
	lea	eax, DWORD PTR __$EHRec$[ebp]
	mov	DWORD PTR fs:0, eax
	mov	DWORD PTR _this$[ebp], ecx
	mov	DWORD PTR __$EHRec$[ebp+8], 0

; 73   : 		Clear();

	mov	ecx, DWORD PTR _this$[ebp]
	call	?Clear@?$OrderedList@PAVReplica@@URegisteredReplica@ReplicaManager@@$1?RegisteredReplicaComp@3@SAHABQAV1@ABU23@@Z@DataStructures@@QAEXXZ ; DataStructures::OrderedList<Replica *,ReplicaManager::RegisteredReplica,&ReplicaManager::RegisteredReplicaComp>::Clear

; 74   : 	}

	mov	DWORD PTR __$EHRec$[ebp+8], -1
	mov	ecx, DWORD PTR _this$[ebp]
	call	??1?$List@URegisteredReplica@ReplicaManager@@@DataStructures@@QAE@XZ ; DataStructures::List<ReplicaManager::RegisteredReplica>::~List<ReplicaManager::RegisteredReplica>
	mov	ecx, DWORD PTR __$EHRec$[ebp]
	mov	DWORD PTR fs:0, ecx
	pop	ecx
	pop	edi
	pop	esi
	pop	ebx
	add	esp, 216				; 000000d8H
	cmp	ebp, esp
	call	__RTC_CheckEsp
	mov	esp, ebp
	pop	ebp
	ret	0
_TEXT	ENDS
;	COMDAT text$x
text$x	SEGMENT
__unwindfunclet$??1?$OrderedList@PAVReplica@@URegisteredReplica@ReplicaManager@@$1?RegisteredReplicaComp@3@SAHABQAV1@ABU23@@Z@DataStructures@@QAE@XZ$0:
	mov	ecx, DWORD PTR _this$[ebp]
	jmp	??1?$List@URegisteredReplica@ReplicaManager@@@DataStructures@@QAE@XZ ; DataStructures::List<ReplicaManager::RegisteredReplica>::~List<ReplicaManager::RegisteredReplica>
__ehhandler$??1?$OrderedList@PAVReplica@@URegisteredReplica@ReplicaManager@@$1?RegisteredReplicaComp@3@SAHABQAV1@ABU23@@Z@DataStructures@@QAE@XZ:
	mov	edx, DWORD PTR [esp+8]
	lea	eax, DWORD PTR [edx+12]
	mov	ecx, DWORD PTR [edx-220]
	xor	ecx, eax
	call	@__security_check_cookie@4
	mov	eax, OFFSET __ehfuncinfo$??1?$OrderedList@PAVReplica@@URegisteredReplica@ReplicaManager@@$1?RegisteredReplicaComp@3@SAHABQAV1@ABU23@@Z@DataStructures@@QAE@XZ
	jmp	___CxxFrameHandler3
text$x	ENDS
??1?$OrderedList@PAVReplica@@URegisteredReplica@ReplicaManager@@$1?RegisteredReplicaComp@3@SAHABQAV1@ABU23@@Z@DataStructures@@QAE@XZ ENDP ; DataStructures::OrderedList<Replica *,ReplicaManager::RegisteredReplica,&ReplicaManager::RegisteredReplicaComp>::~OrderedList<Replica *,ReplicaManager::RegisteredReplica,&ReplicaManager::RegisteredReplicaComp>
; Function compile flags: /Odtp /RTCsu /ZI
; File z:\sampsrc\02xu1\raknet\ds_orderedlist.h
;	COMDAT ??0?$OrderedList@PAVReplica@@URegisteredReplica@ReplicaManager@@$1?RegisteredReplicaComp@3@SAHABQAV1@ABU23@@Z@DataStructures@@QAE@XZ
_TEXT	SEGMENT
_this$ = -8						; size = 4
??0?$OrderedList@PAVReplica@@URegisteredReplica@ReplicaManager@@$1?RegisteredReplicaComp@3@SAHABQAV1@ABU23@@Z@DataStructures@@QAE@XZ PROC ; DataStructures::OrderedList<Replica *,ReplicaManager::RegisteredReplica,&ReplicaManager::RegisteredReplicaComp>::OrderedList<Replica *,ReplicaManager::RegisteredReplica,&ReplicaManager::RegisteredReplicaComp>, COMDAT
; _this$ = ecx

; 67   : 	{

	push	ebp
	mov	ebp, esp
	sub	esp, 204				; 000000ccH
	push	ebx
	push	esi
	push	edi
	push	ecx
	lea	edi, DWORD PTR [ebp-204]
	mov	ecx, 51					; 00000033H
	mov	eax, -858993460				; ccccccccH
	rep stosd
	pop	ecx
	mov	DWORD PTR _this$[ebp], ecx
	mov	ecx, DWORD PTR _this$[ebp]
	call	??0?$List@URegisteredReplica@ReplicaManager@@@DataStructures@@QAE@XZ ; DataStructures::List<ReplicaManager::RegisteredReplica>::List<ReplicaManager::RegisteredReplica>

; 68   : 	}

	mov	eax, DWORD PTR _this$[ebp]
	pop	edi
	pop	esi
	pop	ebx
	add	esp, 204				; 000000ccH
	cmp	ebp, esp
	call	__RTC_CheckEsp
	mov	esp, ebp
	pop	ebp
	ret	0
??0?$OrderedList@PAVReplica@@URegisteredReplica@ReplicaManager@@$1?RegisteredReplicaComp@3@SAHABQAV1@ABU23@@Z@DataStructures@@QAE@XZ ENDP ; DataStructures::OrderedList<Replica *,ReplicaManager::RegisteredReplica,&ReplicaManager::RegisteredReplicaComp>::OrderedList<Replica *,ReplicaManager::RegisteredReplica,&ReplicaManager::RegisteredReplicaComp>
_TEXT	ENDS
; Function compile flags: /Odtp /RTCsu /ZI
; File z:\sampsrc\02xu1\raknet\replicamanager.cpp
;	COMDAT ?OnDisconnect@ReplicaManager@@MAEXPAVRakPeerInterface@@@Z
_TEXT	SEGMENT
_this$ = -8						; size = 4
_peer$ = 8						; size = 4
?OnDisconnect@ReplicaManager@@MAEXPAVRakPeerInterface@@@Z PROC ; ReplicaManager::OnDisconnect, COMDAT
; _this$ = ecx

; 801  : {

	push	ebp
	mov	ebp, esp
	sub	esp, 204				; 000000ccH
	push	ebx
	push	esi
	push	edi
	push	ecx
	lea	edi, DWORD PTR [ebp-204]
	mov	ecx, 51					; 00000033H
	mov	eax, -858993460				; ccccccccH
	rep stosd
	pop	ecx
	mov	DWORD PTR _this$[ebp], ecx

; 802  : 	Clear();

	mov	ecx, DWORD PTR _this$[ebp]
	call	?Clear@ReplicaManager@@IAEXXZ		; ReplicaManager::Clear

; 803  : }

	pop	edi
	pop	esi
	pop	ebx
	add	esp, 204				; 000000ccH
	cmp	ebp, esp
	call	__RTC_CheckEsp
	mov	esp, ebp
	pop	ebp
	ret	4
?OnDisconnect@ReplicaManager@@MAEXPAVRakPeerInterface@@@Z ENDP ; ReplicaManager::OnDisconnect
_TEXT	ENDS
; Function compile flags: /Odtp /RTCsu /ZI
; File z:\sampsrc\02xu1\raknet\replicamanager.cpp
;	COMDAT ?OnCloseConnection@ReplicaManager@@MAEXPAVRakPeerInterface@@UPlayerID@@@Z
_TEXT	SEGMENT
_this$ = -8						; size = 4
_peer$ = 8						; size = 4
_playerId$ = 12						; size = 6
?OnCloseConnection@ReplicaManager@@MAEXPAVRakPeerInterface@@UPlayerID@@@Z PROC ; ReplicaManager::OnCloseConnection, COMDAT
; _this$ = ecx

; 794  : {

	push	ebp
	mov	ebp, esp
	sub	esp, 204				; 000000ccH
	push	ebx
	push	esi
	push	edi
	push	ecx
	lea	edi, DWORD PTR [ebp-204]
	mov	ecx, 51					; 00000033H
	mov	eax, -858993460				; ccccccccH
	rep stosd
	pop	ecx
	mov	DWORD PTR _this$[ebp], ecx

; 795  : 	RemoveParticipant(playerId);

	sub	esp, 8
	mov	eax, esp
	mov	ecx, DWORD PTR _playerId$[ebp]
	mov	DWORD PTR [eax], ecx
	mov	dx, WORD PTR _playerId$[ebp+4]
	mov	WORD PTR [eax+4], dx
	mov	ecx, DWORD PTR _this$[ebp]
	call	?RemoveParticipant@ReplicaManager@@QAEXUPlayerID@@@Z ; ReplicaManager::RemoveParticipant

; 796  : }

	pop	edi
	pop	esi
	pop	ebx
	add	esp, 204				; 000000ccH
	cmp	ebp, esp
	call	__RTC_CheckEsp
	mov	esp, ebp
	pop	ebp
	ret	12					; 0000000cH
?OnCloseConnection@ReplicaManager@@MAEXPAVRakPeerInterface@@UPlayerID@@@Z ENDP ; ReplicaManager::OnCloseConnection
_TEXT	ENDS
; Function compile flags: /Odtp /RTCsu /ZI
; File z:\sampsrc\02xu1\raknet\replicamanager.cpp
;	COMDAT ?OnReceive@ReplicaManager@@MAE?AW4PluginReceiveResult@@PAVRakPeerInterface@@PAUPacket@@@Z
_TEXT	SEGMENT
tv207 = -664						; size = 4
tv78 = -664						; size = 4
$T2 = -656						; size = 4
$T3 = -644						; size = 4
$T4 = -632						; size = 4
$T5 = -620						; size = 4
$T6 = -608						; size = 4
_rc$7 = -404						; size = 4
_inBitstream$8 = -392					; size = 273
_b$9 = -105						; size = 1
_receivedCommand$10 = -96				; size = 26
_hasNetworkId$11 = -57					; size = 1
_participantStruct$12 = -48				; size = 4
_packetIdentifier$ = -33				; size = 1
_this$ = -24						; size = 4
__$ArrayPad$ = -16					; size = 4
__$EHRec$ = -12						; size = 12
_peer$ = 8						; size = 4
_packet$ = 12						; size = 4
?OnReceive@ReplicaManager@@MAE?AW4PluginReceiveResult@@PAVRakPeerInterface@@PAUPacket@@@Z PROC ; ReplicaManager::OnReceive, COMDAT
; _this$ = ecx

; 805  : {

	push	ebp
	mov	ebp, esp
	push	-1
	push	__ehhandler$?OnReceive@ReplicaManager@@MAE?AW4PluginReceiveResult@@PAVRakPeerInterface@@PAUPacket@@@Z
	mov	eax, DWORD PTR fs:0
	push	eax
	sub	esp, 652				; 0000028cH
	push	ebx
	push	esi
	push	edi
	push	ecx
	lea	edi, DWORD PTR [ebp-664]
	mov	ecx, 163				; 000000a3H
	mov	eax, -858993460				; ccccccccH
	rep stosd
	pop	ecx
	mov	eax, DWORD PTR ___security_cookie
	xor	eax, ebp
	mov	DWORD PTR __$ArrayPad$[ebp], eax
	push	eax
	lea	eax, DWORD PTR __$EHRec$[ebp]
	mov	DWORD PTR fs:0, eax
	mov	DWORD PTR _this$[ebp], ecx

; 806  : 	unsigned char packetIdentifier;
; 807  : 	if ( ( unsigned char ) packet->data[ 0 ] == ID_TIMESTAMP )

	mov	eax, 1
	imul	ecx, eax, 0
	mov	edx, DWORD PTR _packet$[ebp]
	mov	eax, DWORD PTR [edx+16]
	movzx	ecx, BYTE PTR [eax+ecx]
	cmp	ecx, 36					; 00000024H
	jne	SHORT $LN22@OnReceive

; 808  : 	{
; 809  : 		if ( packet->length > sizeof( unsigned char ) + sizeof( unsigned int ) )

	mov	eax, DWORD PTR _packet$[ebp]
	cmp	DWORD PTR [eax+8], 5
	jbe	SHORT $LN21@OnReceive

; 810  : 			packetIdentifier = ( unsigned char ) packet->data[ sizeof( unsigned char ) + sizeof( unsigned int ) ];

	mov	eax, 1
	imul	ecx, eax, 5
	mov	edx, DWORD PTR _packet$[ebp]
	mov	eax, DWORD PTR [edx+16]
	mov	cl, BYTE PTR [ecx+eax]
	mov	BYTE PTR _packetIdentifier$[ebp], cl

; 811  : 		else

	jmp	SHORT $LN20@OnReceive
$LN21@OnReceive:

; 812  : 			return RR_STOP_PROCESSING_AND_DEALLOCATE;

	xor	eax, eax
	jmp	$LN23@OnReceive
$LN20@OnReceive:

; 813  : 	}
; 814  : 	else

	jmp	SHORT $LN19@OnReceive
$LN22@OnReceive:

; 815  : 		packetIdentifier = ( unsigned char ) packet->data[ 0 ];

	mov	eax, 1
	imul	ecx, eax, 0
	mov	edx, DWORD PTR _packet$[ebp]
	mov	eax, DWORD PTR [edx+16]
	mov	cl, BYTE PTR [ecx+eax]
	mov	BYTE PTR _packetIdentifier$[ebp], cl
$LN19@OnReceive:

; 816  : 
; 817  : 	switch (packetIdentifier)

	movzx	eax, BYTE PTR _packetIdentifier$[ebp]
	mov	DWORD PTR tv78[ebp], eax
	mov	ecx, DWORD PTR tv78[ebp]
	sub	ecx, 23					; 00000017H
	mov	DWORD PTR tv78[ebp], ecx
	cmp	DWORD PTR tv78[ebp], 37			; 00000025H
	ja	$LN17@OnReceive
	mov	edx, DWORD PTR tv78[ebp]
	movzx	eax, BYTE PTR $LN30@OnReceive[edx]
	jmp	DWORD PTR $LN38@OnReceive[eax*4]
$LN16@OnReceive:

; 818  : 	{
; 819  : 	case ID_NEW_INCOMING_CONNECTION:
; 820  : 	case ID_CONNECTION_REQUEST_ACCEPTED:
; 821  : 		if (autoParticipateNewConnections)

	mov	eax, DWORD PTR _this$[ebp]
	movzx	ecx, BYTE PTR [eax+41]
	test	ecx, ecx
	je	SHORT $LN15@OnReceive

; 822  : 			AddParticipant(packet->playerId);

	mov	eax, DWORD PTR _packet$[ebp]
	add	eax, 2
	sub	esp, 8
	mov	ecx, esp
	mov	edx, DWORD PTR [eax]
	mov	DWORD PTR [ecx], edx
	mov	ax, WORD PTR [eax+4]
	mov	WORD PTR [ecx+4], ax
	mov	ecx, DWORD PTR _this$[ebp]
	call	?AddParticipant@ReplicaManager@@QAEXUPlayerID@@@Z ; ReplicaManager::AddParticipant
$LN15@OnReceive:

; 823  : 		return RR_CONTINUE_PROCESSING;

	mov	eax, 1
	jmp	$LN23@OnReceive
$LN14@OnReceive:

; 824  : 	case ID_DISCONNECTION_NOTIFICATION:
; 825  : 	case ID_CONNECTION_LOST:
; 826  : 		OnCloseConnection(peer, packet->playerId);

	mov	eax, DWORD PTR _packet$[ebp]
	add	eax, 2
	mov	esi, esp
	sub	esp, 8
	mov	ecx, esp
	mov	edx, DWORD PTR [eax]
	mov	DWORD PTR [ecx], edx
	mov	ax, WORD PTR [eax+4]
	mov	WORD PTR [ecx+4], ax
	mov	ecx, DWORD PTR _peer$[ebp]
	push	ecx
	mov	edx, DWORD PTR _this$[ebp]
	mov	eax, DWORD PTR [edx]
	mov	ecx, DWORD PTR _this$[ebp]
	mov	edx, DWORD PTR [eax+24]
	call	edx
	cmp	esi, esp
	call	__RTC_CheckEsp

; 827  : 		return RR_CONTINUE_PROCESSING;

	mov	eax, 1
	jmp	$LN23@OnReceive
$LN13@OnReceive:

; 828  : 	case ID_REPLICA_MANAGER_DOWNLOAD_COMPLETE:
; 829  : 		if (_receiveDownloadCompleteCB==0)

	mov	eax, DWORD PTR _this$[ebp]
	cmp	DWORD PTR [eax+36], 0
	jne	SHORT $LN11@OnReceive

; 830  : 		{
; 831  : 			return RR_STOP_PROCESSING_AND_DEALLOCATE;

	xor	eax, eax
	jmp	$LN23@OnReceive
$LN11@OnReceive:

; 832  : 		}
; 833  : 	case ID_REPLICA_MANAGER_CONSTRUCTION:
; 834  : 	case ID_REPLICA_MANAGER_DESTRUCTION:
; 835  : 	case ID_REPLICA_MANAGER_SCOPE_CHANGE:
; 836  : 	case ID_REPLICA_MANAGER_SERIALIZE:
; 837  : 		{
; 838  : 			ParticipantStruct *participantStruct;
; 839  : 			bool hasNetworkId;
; 840  : 			ReceivedCommand receivedCommand;
; 841  : 			bool b=true;

	mov	BYTE PTR _b$9[ebp], 1

; 842  : 			RakNet::BitStream inBitstream(packet->data, packet->length, false);

	push	0
	mov	eax, DWORD PTR _packet$[ebp]
	mov	ecx, DWORD PTR [eax+8]
	push	ecx
	mov	edx, DWORD PTR _packet$[ebp]
	mov	eax, DWORD PTR [edx+16]
	push	eax
	lea	ecx, DWORD PTR _inBitstream$8[ebp]
	call	??0BitStream@RakNet@@QAE@PAEI_N@Z	; RakNet::BitStream::BitStream
	mov	DWORD PTR __$EHRec$[ebp+8], 0

; 843  : 			// SetWriteOffset is used here to get around a design flaw, where I should have had the bitstream constructor take bits, rather than bytes
; 844  : 			// It sets the actual number of bits in the packet
; 845  : 			inBitstream.SetWriteOffset(packet->bitSize);

	mov	eax, DWORD PTR _packet$[ebp]
	mov	ecx, DWORD PTR [eax+12]
	push	ecx
	lea	ecx, DWORD PTR _inBitstream$8[ebp]
	call	?SetWriteOffset@BitStream@RakNet@@QAEXH@Z ; RakNet::BitStream::SetWriteOffset

; 846  : 			receivedCommand.playerId=packet->playerId;

	mov	eax, DWORD PTR _packet$[ebp]
	add	eax, 2
	push	eax
	lea	ecx, DWORD PTR _receivedCommand$10[ebp]
	call	??4PlayerID@@QAEAAU0@ABU0@@Z		; PlayerID::operator=

; 847  : 			receivedCommand.command=packetIdentifier;

	movzx	eax, BYTE PTR _packetIdentifier$[ebp]
	mov	DWORD PTR _receivedCommand$10[ebp+14], eax

; 848  : 
; 849  : 			if ( ( unsigned char ) packet->data[ 0 ] == ID_TIMESTAMP )

	mov	eax, 1
	imul	ecx, eax, 0
	mov	edx, DWORD PTR _packet$[ebp]
	mov	eax, DWORD PTR [edx+16]
	movzx	ecx, BYTE PTR [eax+ecx]
	cmp	ecx, 36					; 00000024H
	jne	SHORT $LN10@OnReceive

; 850  : 			{
; 851  : 				inBitstream.IgnoreBits(8);

	push	8
	lea	ecx, DWORD PTR _inBitstream$8[ebp]
	call	?IgnoreBits@BitStream@RakNet@@QAEXH@Z	; RakNet::BitStream::IgnoreBits

; 852  : 				b=inBitstream.Read(receivedCommand.u1);

	lea	eax, DWORD PTR _receivedCommand$10[ebp+18]
	push	eax
	lea	ecx, DWORD PTR _inBitstream$8[ebp]
	call	??$Read@I@BitStream@RakNet@@QAE_NAAI@Z	; RakNet::BitStream::Read<unsigned int>
	mov	BYTE PTR _b$9[ebp], al

; 853  : 			}
; 854  : 			else

	jmp	SHORT $LN9@OnReceive
$LN10@OnReceive:

; 855  : 				receivedCommand.u1=0;

	mov	DWORD PTR _receivedCommand$10[ebp+18], 0
$LN9@OnReceive:

; 856  : 			inBitstream.IgnoreBits(8); // Ignore the packet id

	push	8
	lea	ecx, DWORD PTR _inBitstream$8[ebp]
	call	?IgnoreBits@BitStream@RakNet@@QAEXH@Z	; RakNet::BitStream::IgnoreBits

; 857  : 			receivedCommand.networkID=UNASSIGNED_NETWORK_ID;

	push	OFFSET _UNASSIGNED_NETWORK_ID
	lea	ecx, DWORD PTR _receivedCommand$10[ebp+6]
	call	??4NetworkID@@QAEAAU0@ABU0@@Z		; NetworkID::operator=

; 858  : 			if (packetIdentifier==ID_REPLICA_MANAGER_CONSTRUCTION) // ID_REPLICA_MANAGER_CONSTRUCTION has an optional networkID

	movzx	eax, BYTE PTR _packetIdentifier$[ebp]
	cmp	eax, 56					; 00000038H
	jne	SHORT $LN8@OnReceive

; 859  : 			{
; 860  : 				b=inBitstream.Read(hasNetworkId);

	lea	eax, DWORD PTR _hasNetworkId$11[ebp]
	push	eax
	lea	ecx, DWORD PTR _inBitstream$8[ebp]
	call	??$Read@_N@BitStream@RakNet@@QAE_NAA_N@Z ; RakNet::BitStream::Read<bool>
	mov	BYTE PTR _b$9[ebp], al

; 861  : 				if (hasNetworkId)

	movzx	eax, BYTE PTR _hasNetworkId$11[ebp]
	test	eax, eax
	je	SHORT $LN7@OnReceive

; 862  : 					b=inBitstream.Read(receivedCommand.networkID);

	lea	eax, DWORD PTR _receivedCommand$10[ebp+6]
	push	eax
	lea	ecx, DWORD PTR _inBitstream$8[ebp]
	call	??$Read@UNetworkID@@@BitStream@RakNet@@QAE_NAAUNetworkID@@@Z ; RakNet::BitStream::Read<NetworkID>
	mov	BYTE PTR _b$9[ebp], al
$LN7@OnReceive:

; 863  : 			}

	jmp	SHORT $LN6@OnReceive
$LN8@OnReceive:

; 864  : 			else if (packetIdentifier!=ID_REPLICA_MANAGER_DOWNLOAD_COMPLETE)

	movzx	eax, BYTE PTR _packetIdentifier$[ebp]
	cmp	eax, 60					; 0000003cH
	je	SHORT $LN6@OnReceive

; 865  : 			{
; 866  : 				b=inBitstream.Read(receivedCommand.networkID); // Other packets always have an networkID

	lea	eax, DWORD PTR _receivedCommand$10[ebp+6]
	push	eax
	lea	ecx, DWORD PTR _inBitstream$8[ebp]
	call	??$Read@UNetworkID@@@BitStream@RakNet@@QAE_NAAUNetworkID@@@Z ; RakNet::BitStream::Read<NetworkID>
	mov	BYTE PTR _b$9[ebp], al
$LN6@OnReceive:

; 867  : 			}
; 868  : 
; 869  : 			if (b==false)

	movzx	eax, BYTE PTR _b$9[ebp]
	test	eax, eax
	jne	SHORT $LN4@OnReceive

; 870  : 			{
; 871  : 				// Invalid packet
; 872  : #ifdef _DEBUG
; 873  : 				assert(0);

	xor	eax, eax
	jne	SHORT $LN25@OnReceive
	mov	ecx, DWORD PTR ?__LINE__Var@?1??OnReceive@ReplicaManager@@MAE?AW4PluginReceiveResult@@PAVRakPeerInterface@@PAUPacket@@@Z@4JA
	add	ecx, 68					; 00000044H
	push	ecx
	push	OFFSET ??_C@_1FG@CAHGPPEA@?$AAz?$AA?3?$AA?2?$AAs?$AAa?$AAm?$AAp?$AAs?$AAr?$AAc?$AA?2?$AA0?$AA2?$AAx?$AAu?$AA1?$AA?2?$AAr?$AAa?$AAk?$AAn?$AAe?$AAt?$AA?2?$AAr?$AAe?$AAp?$AAl?$AAi?$AAc?$AAa?$AAm@
	push	OFFSET ??_C@_13COJANIEC@?$AA0?$AA?$AA@
	call	__wassert
	add	esp, 12					; 0000000cH
$LN25@OnReceive:

; 874  : #endif
; 875  : 				return RR_STOP_PROCESSING_AND_DEALLOCATE;

	mov	DWORD PTR $T2[ebp], 0
	mov	DWORD PTR __$EHRec$[ebp+8], -1
	lea	ecx, DWORD PTR _inBitstream$8[ebp]
	call	??1BitStream@RakNet@@QAE@XZ		; RakNet::BitStream::~BitStream
	mov	eax, DWORD PTR $T2[ebp]
	jmp	$LN23@OnReceive
$LN4@OnReceive:

; 876  : 			}
; 877  : 			receivedCommand.userData=&inBitstream;

	lea	eax, DWORD PTR _inBitstream$8[ebp]
	mov	DWORD PTR _receivedCommand$10[ebp+22], eax

; 878  : 			participantStruct=GetParticipantByPlayerID(receivedCommand.playerId);

	sub	esp, 8
	mov	eax, esp
	mov	ecx, DWORD PTR _receivedCommand$10[ebp]
	mov	DWORD PTR [eax], ecx
	mov	dx, WORD PTR _receivedCommand$10[ebp+4]
	mov	WORD PTR [eax+4], dx
	mov	ecx, DWORD PTR _this$[ebp]
	call	?GetParticipantByPlayerID@ReplicaManager@@IBEPAUParticipantStruct@1@UPlayerID@@@Z ; ReplicaManager::GetParticipantByPlayerID
	mov	DWORD PTR _participantStruct$12[ebp], eax

; 879  : 			if (participantStruct)

	cmp	DWORD PTR _participantStruct$12[ebp], 0
	je	$LN3@OnReceive

; 880  : 			{
; 881  : 				// .Size()>0 is because commands are always processed in order.  If a command is delayed, no further commands are processed.
; 882  : 				// ProcessReceivedCommand(...)==false means that the use signaled to delay a command
; 883  : 				if (participantStruct->pendingCommands.Size()>0 || ProcessReceivedCommand(participantStruct, &receivedCommand)==REPLICA_PROCESS_LATER)

	mov	ecx, DWORD PTR _participantStruct$12[ebp]
	add	ecx, 31					; 0000001fH
	call	?Size@?$Queue@PAUReceivedCommand@ReplicaManager@@@DataStructures@@QBEIXZ ; DataStructures::Queue<ReplicaManager::ReceivedCommand *>::Size
	test	eax, eax
	ja	SHORT $LN1@OnReceive
	lea	eax, DWORD PTR _receivedCommand$10[ebp]
	push	eax
	mov	ecx, DWORD PTR _participantStruct$12[ebp]
	push	ecx
	mov	ecx, DWORD PTR _this$[ebp]
	call	?ProcessReceivedCommand@ReplicaManager@@IAE?AW4ReplicaReturnResult@@PAUParticipantStruct@1@PAUReceivedCommand@1@@Z ; ReplicaManager::ProcessReceivedCommand
	test	eax, eax
	jne	$LN3@OnReceive
$LN1@OnReceive:

; 884  : 				{
; 885  : 					// Copy the data and add this to a queue that will call ProcessReceivedCommand again in Update.
; 886  : 
; 887  : 					// Allocate and copy structure
; 888  : 					ReceivedCommand *rc = new ReceivedCommand;

	push	26					; 0000001aH
	call	??2@YAPAXI@Z				; operator new
	add	esp, 4
	mov	DWORD PTR $T3[ebp], eax
	mov	eax, DWORD PTR $T3[ebp]
	mov	DWORD PTR _rc$7[ebp], eax

; 889  : 					memcpy(rc, &receivedCommand, sizeof(ReceivedCommand));

	push	26					; 0000001aH
	lea	eax, DWORD PTR _receivedCommand$10[ebp]
	push	eax
	mov	ecx, DWORD PTR _rc$7[ebp]
	push	ecx
	call	_memcpy
	add	esp, 12					; 0000000cH

; 890  : 
; 891  : 					// Allocate and copy inBitstream remaining data
; 892  : 					rc->userData = new RakNet::BitStream;

	push	273					; 00000111H
	call	??2@YAPAXI@Z				; operator new
	add	esp, 4
	mov	DWORD PTR $T5[ebp], eax
	mov	BYTE PTR __$EHRec$[ebp+8], 1
	cmp	DWORD PTR $T5[ebp], 0
	je	SHORT $LN26@OnReceive
	mov	ecx, DWORD PTR $T5[ebp]
	call	??0BitStream@RakNet@@QAE@XZ		; RakNet::BitStream::BitStream
	mov	DWORD PTR tv207[ebp], eax
	jmp	SHORT $LN27@OnReceive
$LN26@OnReceive:
	mov	DWORD PTR tv207[ebp], 0
$LN27@OnReceive:
	mov	eax, DWORD PTR tv207[ebp]
	mov	DWORD PTR $T4[ebp], eax
	mov	BYTE PTR __$EHRec$[ebp+8], 0
	mov	ecx, DWORD PTR _rc$7[ebp]
	mov	edx, DWORD PTR $T4[ebp]
	mov	DWORD PTR [ecx+22], edx

; 893  : 					rc->userData->Write(&inBitstream, inBitstream.GetNumberOfBitsUsed());

	lea	ecx, DWORD PTR _inBitstream$8[ebp]
	call	?GetNumberOfBitsUsed@BitStream@RakNet@@QBEHXZ ; RakNet::BitStream::GetNumberOfBitsUsed
	push	eax
	lea	eax, DWORD PTR _inBitstream$8[ebp]
	push	eax
	mov	ecx, DWORD PTR _rc$7[ebp]
	mov	ecx, DWORD PTR [ecx+22]
	call	?Write@BitStream@RakNet@@QAEXPAV12@H@Z	; RakNet::BitStream::Write

; 894  : 
; 895  : 					participantStruct->pendingCommands.Push(rc);

	lea	eax, DWORD PTR _rc$7[ebp]
	push	eax
	mov	ecx, DWORD PTR _participantStruct$12[ebp]
	add	ecx, 31					; 0000001fH
	call	?Push@?$Queue@PAUReceivedCommand@ReplicaManager@@@DataStructures@@QAEXABQAUReceivedCommand@ReplicaManager@@@Z ; DataStructures::Queue<ReplicaManager::ReceivedCommand *>::Push
$LN3@OnReceive:

; 896  : 				}
; 897  : 			}
; 898  : 
; 899  : 			return RR_STOP_PROCESSING_AND_DEALLOCATE;

	mov	DWORD PTR $T6[ebp], 0
	mov	DWORD PTR __$EHRec$[ebp+8], -1
	lea	ecx, DWORD PTR _inBitstream$8[ebp]
	call	??1BitStream@RakNet@@QAE@XZ		; RakNet::BitStream::~BitStream
	mov	eax, DWORD PTR $T6[ebp]
	jmp	SHORT $LN23@OnReceive
$LN17@OnReceive:

; 900  : 		}
; 901  : 	}
; 902  : 
; 903  : 	return RR_CONTINUE_PROCESSING;

	mov	eax, 1
$LN23@OnReceive:

; 904  : }

	push	edx
	mov	ecx, ebp
	push	eax
	lea	edx, DWORD PTR $LN37@OnReceive
	call	@_RTC_CheckStackVars@8
	pop	eax
	pop	edx
	mov	ecx, DWORD PTR __$EHRec$[ebp]
	mov	DWORD PTR fs:0, ecx
	pop	ecx
	pop	edi
	pop	esi
	pop	ebx
	mov	ecx, DWORD PTR __$ArrayPad$[ebp]
	xor	ecx, ebp
	call	@__security_check_cookie@4
	add	esp, 664				; 00000298H
	cmp	ebp, esp
	call	__RTC_CheckEsp
	mov	esp, ebp
	pop	ebp
	ret	8
	npad	3
$LN37@OnReceive:
	DD	4
	DD	$LN36@OnReceive
$LN36@OnReceive:
	DD	-57					; ffffffc7H
	DD	1
	DD	$LN31@OnReceive
	DD	-96					; ffffffa0H
	DD	26					; 0000001aH
	DD	$LN32@OnReceive
	DD	-392					; fffffe78H
	DD	273					; 00000111H
	DD	$LN33@OnReceive
	DD	-404					; fffffe6cH
	DD	4
	DD	$LN34@OnReceive
$LN34@OnReceive:
	DB	114					; 00000072H
	DB	99					; 00000063H
	DB	0
$LN33@OnReceive:
	DB	105					; 00000069H
	DB	110					; 0000006eH
	DB	66					; 00000042H
	DB	105					; 00000069H
	DB	116					; 00000074H
	DB	115					; 00000073H
	DB	116					; 00000074H
	DB	114					; 00000072H
	DB	101					; 00000065H
	DB	97					; 00000061H
	DB	109					; 0000006dH
	DB	0
$LN32@OnReceive:
	DB	114					; 00000072H
	DB	101					; 00000065H
	DB	99					; 00000063H
	DB	101					; 00000065H
	DB	105					; 00000069H
	DB	118					; 00000076H
	DB	101					; 00000065H
	DB	100					; 00000064H
	DB	67					; 00000043H
	DB	111					; 0000006fH
	DB	109					; 0000006dH
	DB	109					; 0000006dH
	DB	97					; 00000061H
	DB	110					; 0000006eH
	DB	100					; 00000064H
	DB	0
$LN31@OnReceive:
	DB	104					; 00000068H
	DB	97					; 00000061H
	DB	115					; 00000073H
	DB	78					; 0000004eH
	DB	101					; 00000065H
	DB	116					; 00000074H
	DB	119					; 00000077H
	DB	111					; 0000006fH
	DB	114					; 00000072H
	DB	107					; 0000006bH
	DB	73					; 00000049H
	DB	100					; 00000064H
	DB	0
$LN38@OnReceive:
	DD	$LN16@OnReceive
	DD	$LN14@OnReceive
	DD	$LN11@OnReceive
	DD	$LN13@OnReceive
	DD	$LN17@OnReceive
$LN30@OnReceive:
	DB	0
	DB	4
	DB	4
	DB	0
	DB	4
	DB	1
	DB	4
	DB	1
	DB	4
	DB	4
	DB	4
	DB	4
	DB	4
	DB	4
	DB	4
	DB	4
	DB	4
	DB	4
	DB	4
	DB	4
	DB	4
	DB	4
	DB	4
	DB	4
	DB	4
	DB	4
	DB	4
	DB	4
	DB	4
	DB	4
	DB	4
	DB	4
	DB	4
	DB	2
	DB	2
	DB	2
	DB	2
	DB	3
_TEXT	ENDS
;	COMDAT text$x
text$x	SEGMENT
__unwindfunclet$?OnReceive@ReplicaManager@@MAE?AW4PluginReceiveResult@@PAVRakPeerInterface@@PAUPacket@@@Z$0:
	lea	ecx, DWORD PTR _inBitstream$8[ebp]
	jmp	??1BitStream@RakNet@@QAE@XZ		; RakNet::BitStream::~BitStream
__unwindfunclet$?OnReceive@ReplicaManager@@MAE?AW4PluginReceiveResult@@PAVRakPeerInterface@@PAUPacket@@@Z$1:
	mov	eax, DWORD PTR $T5[ebp]
	push	eax
	call	??3@YAXPAX@Z				; operator delete
	pop	ecx
	ret	0
__ehhandler$?OnReceive@ReplicaManager@@MAE?AW4PluginReceiveResult@@PAVRakPeerInterface@@PAUPacket@@@Z:
	mov	edx, DWORD PTR [esp+8]
	lea	eax, DWORD PTR [edx+12]
	mov	ecx, DWORD PTR [edx-668]
	xor	ecx, eax
	call	@__security_check_cookie@4
	mov	ecx, DWORD PTR [edx-4]
	xor	ecx, eax
	call	@__security_check_cookie@4
	mov	eax, OFFSET __ehfuncinfo$?OnReceive@ReplicaManager@@MAE?AW4PluginReceiveResult@@PAVRakPeerInterface@@PAUPacket@@@Z
	jmp	___CxxFrameHandler3
text$x	ENDS
?OnReceive@ReplicaManager@@MAE?AW4PluginReceiveResult@@PAVRakPeerInterface@@PAUPacket@@@Z ENDP ; ReplicaManager::OnReceive
; Function compile flags: /Odtp /RTCsu /ZI
; File z:\sampsrc\02xu1\raknet\replicamanager.cpp
;	COMDAT ?OnAttach@ReplicaManager@@MAEXPAVRakPeerInterface@@@Z
_TEXT	SEGMENT
_this$ = -8						; size = 4
_peer$ = 8						; size = 4
?OnAttach@ReplicaManager@@MAEXPAVRakPeerInterface@@@Z PROC ; ReplicaManager::OnAttach, COMDAT
; _this$ = ecx

; 445  : {

	push	ebp
	mov	ebp, esp
	sub	esp, 204				; 000000ccH
	push	ebx
	push	esi
	push	edi
	push	ecx
	lea	edi, DWORD PTR [ebp-204]
	mov	ecx, 51					; 00000033H
	mov	eax, -858993460				; ccccccccH
	rep stosd
	pop	ecx
	mov	DWORD PTR _this$[ebp], ecx

; 446  : 	rakPeer=peer;

	mov	eax, DWORD PTR _this$[ebp]
	mov	ecx, DWORD PTR _peer$[ebp]
	mov	DWORD PTR [eax+44], ecx

; 447  : }

	pop	edi
	pop	esi
	pop	ebx
	mov	esp, ebp
	pop	ebp
	ret	4
?OnAttach@ReplicaManager@@MAEXPAVRakPeerInterface@@@Z ENDP ; ReplicaManager::OnAttach
_TEXT	ENDS
; Function compile flags: /Odtp /RTCsu /ZI
; File z:\sampsrc\02xu1\raknet\replicamanager.cpp
;	COMDAT ?Update@ReplicaManager@@MAEXPAVRakPeerInterface@@@Z
_TEXT	SEGMENT
tv692 = -1180						; size = 4
tv637 = -1180						; size = 4
tv621 = -1180						; size = 4
tv611 = -1180						; size = 4
tv500 = -1180						; size = 4
tv488 = -1180						; size = 4
tv477 = -1180						; size = 4
tv467 = -1180						; size = 4
tv458 = -1180						; size = 4
tv397 = -1180						; size = 4
tv259 = -1180						; size = 4
tv225 = -1180						; size = 4
$T2 = -1172						; size = 8
$T3 = -1156						; size = 8
$T4 = -1140						; size = 8
$T5 = -1124						; size = 8
$T6 = -1108						; size = 8
$T7 = -1092						; size = 8
$T8 = -1076						; size = 4
$T9 = -1064						; size = 4
$T10 = -1052						; size = 4
_scopeTrue$11 = -845					; size = 1
_sendDLComplete$12 = -836				; size = 4
_j$13 = -824						; size = 4
_anyHasConstruction$14 = -809				; size = 1
_remoteObject$15 = -800					; size = 9
_remoteObject$16 = -780					; size = 9
_command$ = -757					; size = 1
_replica$ = -748					; size = 4
_receivedCommand$ = -736				; size = 4
_reliability$ = -724					; size = 4
_priority$ = -712					; size = 4
_objectExists$ = -697					; size = 1
_currentTime$ = -688					; size = 4
_userDataBitstream$ = -676				; size = 273
_outBitstream$ = -392					; size = 273
_commandListIndex$ = -108				; size = 4
_participantStruct$ = -96				; size = 4
_sendTimestamp$ = -81					; size = 1
_res$ = -72						; size = 4
_replicatedObjectsIndex$ = -60				; size = 4
_remoteObjectListIndex$ = -48				; size = 4
_participantIndex$ = -36				; size = 4
_this$ = -24						; size = 4
__$ArrayPad$ = -16					; size = 4
__$EHRec$ = -12						; size = 12
_peer$ = 8						; size = 4
?Update@ReplicaManager@@MAEXPAVRakPeerInterface@@@Z PROC ; ReplicaManager::Update, COMDAT
; _this$ = ecx

; 449  : {

	push	ebp
	mov	ebp, esp
	push	-1
	push	__ehhandler$?Update@ReplicaManager@@MAEXPAVRakPeerInterface@@@Z
	mov	eax, DWORD PTR fs:0
	push	eax
	sub	esp, 1168				; 00000490H
	push	ebx
	push	esi
	push	edi
	push	ecx
	lea	edi, DWORD PTR [ebp-1180]
	mov	ecx, 292				; 00000124H
	mov	eax, -858993460				; ccccccccH
	rep stosd
	pop	ecx
	mov	eax, DWORD PTR ___security_cookie
	xor	eax, ebp
	mov	DWORD PTR __$ArrayPad$[ebp], eax
	push	eax
	lea	eax, DWORD PTR __$EHRec$[ebp]
	mov	DWORD PTR fs:0, eax
	mov	DWORD PTR _this$[ebp], ecx

; 450  : 	if (participantList.Size()==0)

	mov	ecx, DWORD PTR _this$[ebp]
	add	ecx, 16					; 00000010H
	call	?Size@?$OrderedList@UPlayerID@@PAUParticipantStruct@ReplicaManager@@$1?ParticipantStructComp@3@SAHABU1@ABQAU23@@Z@DataStructures@@QBEIXZ ; DataStructures::OrderedList<PlayerID,ReplicaManager::ParticipantStruct *,&ReplicaManager::ParticipantStructComp>::Size
	test	eax, eax
	jne	SHORT $LN67@Update

; 451  : 		return;

	jmp	$LN68@Update
$LN67@Update:

; 452  : 
; 453  : 	unsigned participantIndex, remoteObjectListIndex, replicatedObjectsIndex;
; 454  : 	ReplicaReturnResult res;
; 455  : 	bool sendTimestamp;
; 456  : 	ParticipantStruct *participantStruct;
; 457  : 	unsigned commandListIndex;
; 458  : 	RakNet::BitStream outBitstream, userDataBitstream;

	lea	ecx, DWORD PTR _outBitstream$[ebp]
	call	??0BitStream@RakNet@@QAE@XZ		; RakNet::BitStream::BitStream
	mov	DWORD PTR __$EHRec$[ebp+8], 0
	lea	ecx, DWORD PTR _userDataBitstream$[ebp]
	call	??0BitStream@RakNet@@QAE@XZ		; RakNet::BitStream::BitStream
	mov	BYTE PTR __$EHRec$[ebp+8], 1

; 459  : 	RakNetTime currentTime;
; 460  : 	bool objectExists;
; 461  : 	PacketPriority priority;
; 462  : 	PacketReliability reliability;
; 463  : 	ReceivedCommand *receivedCommand;
; 464  : 	Replica *replica;
; 465  : 	unsigned char command;
; 466  : 	currentTime=0;

	mov	DWORD PTR _currentTime$[ebp], 0

; 467  : 
; 468  : 	// For each participant
; 469  : 	for (participantIndex=0; participantIndex < participantList.Size(); participantIndex++)

	mov	DWORD PTR _participantIndex$[ebp], 0
	jmp	SHORT $LN66@Update
$LN65@Update:
	mov	eax, DWORD PTR _participantIndex$[ebp]
	add	eax, 1
	mov	DWORD PTR _participantIndex$[ebp], eax
$LN66@Update:
	mov	ecx, DWORD PTR _this$[ebp]
	add	ecx, 16					; 00000010H
	call	?Size@?$OrderedList@UPlayerID@@PAUParticipantStruct@ReplicaManager@@$1?ParticipantStructComp@3@SAHABU1@ABQAU23@@Z@DataStructures@@QBEIXZ ; DataStructures::OrderedList<PlayerID,ReplicaManager::ParticipantStruct *,&ReplicaManager::ParticipantStructComp>::Size
	cmp	DWORD PTR _participantIndex$[ebp], eax
	jae	$LN64@Update

; 470  : 	{
; 471  : 		participantStruct = participantList[participantIndex];

	mov	eax, DWORD PTR _participantIndex$[ebp]
	push	eax
	mov	ecx, DWORD PTR _this$[ebp]
	add	ecx, 16					; 00000010H
	call	??A?$OrderedList@UPlayerID@@PAUParticipantStruct@ReplicaManager@@$1?ParticipantStructComp@3@SAHABU1@ABQAU23@@Z@DataStructures@@QBEAAPAUParticipantStruct@ReplicaManager@@I@Z ; DataStructures::OrderedList<PlayerID,ReplicaManager::ParticipantStruct *,&ReplicaManager::ParticipantStructComp>::operator[]
	mov	ecx, DWORD PTR [eax]
	mov	DWORD PTR _participantStruct$[ebp], ecx

; 472  : 
; 473  : 		// For each CommandStruct to send
; 474  : 		for (commandListIndex=0; commandListIndex < participantStruct->commandList.Size(); commandListIndex++)

	mov	DWORD PTR _commandListIndex$[ebp], 0
	jmp	SHORT $LN63@Update
$LN62@Update:
	mov	eax, DWORD PTR _commandListIndex$[ebp]
	add	eax, 1
	mov	DWORD PTR _commandListIndex$[ebp], eax
$LN63@Update:
	mov	ecx, DWORD PTR _participantStruct$[ebp]
	add	ecx, 7
	call	?Size@?$OrderedList@PAVReplica@@UCommandStruct@ReplicaManager@@$1?CommandStructComp@3@SAHABQAV1@ABU23@@Z@DataStructures@@QBEIXZ ; DataStructures::OrderedList<Replica *,ReplicaManager::CommandStruct,&ReplicaManager::CommandStructComp>::Size
	cmp	DWORD PTR _commandListIndex$[ebp], eax
	jae	$LN61@Update

; 475  : 		{
; 476  : 			// Only call RakNet::GetTime() once because it's slow
; 477  : 			if (currentTime==0)

	cmp	DWORD PTR _currentTime$[ebp], 0
	jne	SHORT $LN60@Update

; 478  : 				currentTime=RakNet::GetTime();

	call	?GetTime@RakNet@@YAIXZ			; RakNet::GetTime
	mov	DWORD PTR _currentTime$[ebp], eax
$LN60@Update:

; 479  : 
; 480  : 			replica=participantStruct->commandList[commandListIndex].replica;

	mov	eax, DWORD PTR _commandListIndex$[ebp]
	push	eax
	mov	ecx, DWORD PTR _participantStruct$[ebp]
	add	ecx, 7
	call	??A?$OrderedList@PAVReplica@@UCommandStruct@ReplicaManager@@$1?CommandStructComp@3@SAHABQAV1@ABU23@@Z@DataStructures@@QBEAAUCommandStruct@ReplicaManager@@I@Z ; DataStructures::OrderedList<Replica *,ReplicaManager::CommandStruct,&ReplicaManager::CommandStructComp>::operator[]
	mov	ecx, DWORD PTR [eax]
	mov	DWORD PTR _replica$[ebp], ecx

; 481  : 			command=participantStruct->commandList[commandListIndex].command;

	mov	eax, DWORD PTR _commandListIndex$[ebp]
	push	eax
	mov	ecx, DWORD PTR _participantStruct$[ebp]
	add	ecx, 7
	call	??A?$OrderedList@PAVReplica@@UCommandStruct@ReplicaManager@@$1?CommandStructComp@3@SAHABQAV1@ABU23@@Z@DataStructures@@QBEAAUCommandStruct@ReplicaManager@@I@Z ; DataStructures::OrderedList<Replica *,ReplicaManager::CommandStruct,&ReplicaManager::CommandStructComp>::operator[]
	mov	cl, BYTE PTR [eax+4]
	mov	BYTE PTR _command$[ebp], cl

; 482  : 			replicatedObjectsIndex=replicatedObjects.GetIndexFromKey(replica, &objectExists);

	lea	eax, DWORD PTR _objectExists$[ebp]
	push	eax
	lea	ecx, DWORD PTR _replica$[ebp]
	push	ecx
	mov	ecx, DWORD PTR _this$[ebp]
	add	ecx, 4
	call	?GetIndexFromKey@?$OrderedList@PAVReplica@@URegisteredReplica@ReplicaManager@@$1?RegisteredReplicaComp@3@SAHABQAV1@ABU23@@Z@DataStructures@@QBEIABQAVReplica@@PA_N@Z ; DataStructures::OrderedList<Replica *,ReplicaManager::RegisteredReplica,&ReplicaManager::RegisteredReplicaComp>::GetIndexFromKey
	mov	DWORD PTR _replicatedObjectsIndex$[ebp], eax

; 483  : #ifdef _DEBUG
; 484  : 			assert(objectExists);

	movzx	eax, BYTE PTR _objectExists$[ebp]
	test	eax, eax
	jne	SHORT $LN70@Update
	mov	ecx, DWORD PTR ?__LINE__Var@?1??Update@ReplicaManager@@MAEXPAVRakPeerInterface@@@Z@4JA
	add	ecx, 35					; 00000023H
	push	ecx
	push	OFFSET ??_C@_1FG@CAHGPPEA@?$AAz?$AA?3?$AA?2?$AAs?$AAa?$AAm?$AAp?$AAs?$AAr?$AAc?$AA?2?$AA0?$AA2?$AAx?$AAu?$AA1?$AA?2?$AAr?$AAa?$AAk?$AAn?$AAe?$AAt?$AA?2?$AAr?$AAe?$AAp?$AAl?$AAi?$AAc?$AAa?$AAm@
	push	OFFSET ??_C@_1BK@EBNJALNF@?$AAo?$AAb?$AAj?$AAe?$AAc?$AAt?$AAE?$AAx?$AAi?$AAs?$AAt?$AAs?$AA?$AA@
	call	__wassert
	add	esp, 12					; 0000000cH
$LN70@Update:

; 485  : #endif
; 486  : 
; 487  : 			// If construction is set, call SendConstruction.  The only precondition is that the object was not already created,
; 488  : 			// which was checked in ReplicaManager::Replicate
; 489  : 			if (command & REPLICA_EXPLICIT_CONSTRUCTION)

	movzx	eax, BYTE PTR _command$[ebp]
	and	eax, 1
	je	$LN59@Update

; 490  : 			{
; 491  : 				if (replicatedObjects[replicatedObjectsIndex].allowedInterfaces & REPLICA_SEND_CONSTRUCTION)

	mov	eax, DWORD PTR _replicatedObjectsIndex$[ebp]
	push	eax
	mov	ecx, DWORD PTR _this$[ebp]
	add	ecx, 4
	call	??A?$OrderedList@PAVReplica@@URegisteredReplica@ReplicaManager@@$1?RegisteredReplicaComp@3@SAHABQAV1@ABU23@@Z@DataStructures@@QBEAAURegisteredReplica@ReplicaManager@@I@Z ; DataStructures::OrderedList<Replica *,ReplicaManager::RegisteredReplica,&ReplicaManager::RegisteredReplicaComp>::operator[]
	movzx	ecx, BYTE PTR [eax+8]
	and	ecx, 8
	je	$LN58@Update

; 492  : 				{
; 493  : 					userDataBitstream.Reset();

	lea	ecx, DWORD PTR _userDataBitstream$[ebp]
	call	?Reset@BitStream@RakNet@@QAEXXZ		; RakNet::BitStream::Reset

; 494  : 					sendTimestamp=false;

	mov	BYTE PTR _sendTimestamp$[ebp], 0

; 495  : 					res=replica->SendConstruction(currentTime, participantStruct->playerId, &userDataBitstream, &sendTimestamp);

	mov	esi, esp
	lea	eax, DWORD PTR _sendTimestamp$[ebp]
	push	eax
	lea	ecx, DWORD PTR _userDataBitstream$[ebp]
	push	ecx
	mov	edx, DWORD PTR _participantStruct$[ebp]
	sub	esp, 8
	mov	eax, esp
	mov	ecx, DWORD PTR [edx]
	mov	DWORD PTR [eax], ecx
	mov	dx, WORD PTR [edx+4]
	mov	WORD PTR [eax+4], dx
	mov	eax, DWORD PTR _currentTime$[ebp]
	push	eax
	mov	ecx, DWORD PTR _replica$[ebp]
	mov	edx, DWORD PTR [ecx]
	mov	ecx, DWORD PTR _replica$[ebp]
	mov	eax, DWORD PTR [edx+28]
	call	eax
	cmp	esi, esp
	call	__RTC_CheckEsp
	mov	DWORD PTR _res$[ebp], eax

; 496  : 
; 497  : 					if (res==REPLICA_PROCESSING_DONE)

	cmp	DWORD PTR _res$[ebp], 1
	jne	$LN57@Update

; 498  : 					{
; 499  : 						outBitstream.Reset();

	lea	ecx, DWORD PTR _outBitstream$[ebp]
	call	?Reset@BitStream@RakNet@@QAEXXZ		; RakNet::BitStream::Reset

; 500  : 						// If SendConstruction returns true and writes to outBitStream, do this send.  Clear the construction command.  Then process the next command for this CommandStruct, if any.
; 501  : 						if (sendTimestamp)

	movzx	eax, BYTE PTR _sendTimestamp$[ebp]
	test	eax, eax
	je	SHORT $LN56@Update

; 502  : 						{
; 503  : 							outBitstream.Write((unsigned char)ID_TIMESTAMP);

	push	36					; 00000024H
	lea	ecx, DWORD PTR _outBitstream$[ebp]
	call	??$Write@E@BitStream@RakNet@@QAEXE@Z	; RakNet::BitStream::Write<unsigned char>

; 504  : 							outBitstream.Write(currentTime);

	mov	eax, DWORD PTR _currentTime$[ebp]
	push	eax
	lea	ecx, DWORD PTR _outBitstream$[ebp]
	call	??$Write@I@BitStream@RakNet@@QAEXI@Z	; RakNet::BitStream::Write<unsigned int>
$LN56@Update:

; 505  : 						}
; 506  : 						outBitstream.Write((unsigned char)ID_REPLICA_MANAGER_CONSTRUCTION);

	push	56					; 00000038H
	lea	ecx, DWORD PTR _outBitstream$[ebp]
	call	??$Write@E@BitStream@RakNet@@QAEXE@Z	; RakNet::BitStream::Write<unsigned char>

; 507  : 						// It's required to send an NetworkID if available.
; 508  : 						// Problem:
; 509  : 						// A->B->C
; 510  : 						//	|  |
; 511  : 						//	D->E
; 512  : 						//
; 513  : 						// A creates.
; 514  : 						// B->C->E->D->B will cycle forever.
; 515  : 						// Fix is to always include an networkID.  Objects are not created if that object id already is present.
; 516  : 						if (replica->GetNetworkID()!=UNASSIGNED_NETWORK_ID)

	push	OFFSET _UNASSIGNED_NETWORK_ID
	mov	esi, esp
	lea	eax, DWORD PTR $T2[ebp]
	push	eax
	mov	ecx, DWORD PTR _replica$[ebp]
	mov	edx, DWORD PTR [ecx]
	mov	ecx, DWORD PTR _replica$[ebp]
	mov	eax, DWORD PTR [edx+4]
	call	eax
	cmp	esi, esp
	call	__RTC_CheckEsp
	mov	ecx, eax
	call	??9NetworkID@@QBE_NABU0@@Z		; NetworkID::operator!=
	movzx	ecx, al
	test	ecx, ecx
	je	SHORT $LN55@Update

; 517  : 						{
; 518  : 							outBitstream.Write(true);

	push	1
	lea	ecx, DWORD PTR _outBitstream$[ebp]
	call	??$Write@_N@BitStream@RakNet@@QAEX_N@Z	; RakNet::BitStream::Write<bool>

; 519  : 							outBitstream.Write(replica->GetNetworkID());

	mov	esi, esp
	lea	eax, DWORD PTR $T3[ebp]
	push	eax
	mov	ecx, DWORD PTR _replica$[ebp]
	mov	edx, DWORD PTR [ecx]
	mov	ecx, DWORD PTR _replica$[ebp]
	mov	eax, DWORD PTR [edx+4]
	call	eax
	cmp	esi, esp
	call	__RTC_CheckEsp
	mov	ecx, DWORD PTR [eax+4]
	push	ecx
	mov	edx, DWORD PTR [eax]
	push	edx
	lea	ecx, DWORD PTR _outBitstream$[ebp]
	call	??$Write@UNetworkID@@@BitStream@RakNet@@QAEXUNetworkID@@@Z ; RakNet::BitStream::Write<NetworkID>

; 520  : 						}
; 521  : 						else

	jmp	SHORT $LN54@Update
$LN55@Update:

; 522  : 							outBitstream.Write(false);

	push	0
	lea	ecx, DWORD PTR _outBitstream$[ebp]
	call	??$Write@_N@BitStream@RakNet@@QAEX_N@Z	; RakNet::BitStream::Write<bool>
$LN54@Update:

; 523  : 
; 524  : 						outBitstream.Write(&userDataBitstream, userDataBitstream.GetNumberOfBitsUsed());

	lea	ecx, DWORD PTR _userDataBitstream$[ebp]
	call	?GetNumberOfBitsUsed@BitStream@RakNet@@QBEHXZ ; RakNet::BitStream::GetNumberOfBitsUsed
	push	eax
	lea	eax, DWORD PTR _userDataBitstream$[ebp]
	push	eax
	lea	ecx, DWORD PTR _outBitstream$[ebp]
	call	?Write@BitStream@RakNet@@QAEXPAV12@H@Z	; RakNet::BitStream::Write

; 525  : 
; 526  : 						peer->Send(&outBitstream, HIGH_PRIORITY, RELIABLE_ORDERED, sendChannel, participantStruct->playerId, false);

	mov	esi, esp
	push	0
	mov	eax, DWORD PTR _participantStruct$[ebp]
	sub	esp, 8
	mov	ecx, esp
	mov	edx, DWORD PTR [eax]
	mov	DWORD PTR [ecx], edx
	mov	ax, WORD PTR [eax+4]
	mov	WORD PTR [ecx+4], ax
	mov	ecx, DWORD PTR _this$[ebp]
	movzx	edx, BYTE PTR [ecx+40]
	push	edx
	push	3
	push	1
	lea	eax, DWORD PTR _outBitstream$[ebp]
	push	eax
	mov	ecx, DWORD PTR _peer$[ebp]
	mov	edx, DWORD PTR [ecx]
	mov	ecx, DWORD PTR _peer$[ebp]
	mov	eax, DWORD PTR [edx+48]
	call	eax
	cmp	esi, esp
	call	__RTC_CheckEsp

; 527  : 
; 528  : 						// Turn off this bit
; 529  : 						participantStruct->commandList[commandListIndex].command &= 0xFF ^ REPLICA_EXPLICIT_CONSTRUCTION;

	mov	eax, DWORD PTR _commandListIndex$[ebp]
	push	eax
	mov	ecx, DWORD PTR _participantStruct$[ebp]
	add	ecx, 7
	call	??A?$OrderedList@PAVReplica@@UCommandStruct@ReplicaManager@@$1?CommandStructComp@3@SAHABQAV1@ABU23@@Z@DataStructures@@QBEAAUCommandStruct@ReplicaManager@@I@Z ; DataStructures::OrderedList<Replica *,ReplicaManager::CommandStruct,&ReplicaManager::CommandStructComp>::operator[]
	add	eax, 4
	mov	DWORD PTR tv225[ebp], eax
	mov	ecx, DWORD PTR tv225[ebp]
	movzx	edx, BYTE PTR [ecx]
	and	edx, 254				; 000000feH
	mov	eax, DWORD PTR tv225[ebp]
	mov	BYTE PTR [eax], dl

; 530  : 
; 531  : 						// Add the object to the participant's object list, indicating this object has been remotely created
; 532  : 						RemoteObject remoteObject;
; 533  : 						remoteObject.replica=replica;

	mov	eax, DWORD PTR _replica$[ebp]
	mov	DWORD PTR _remoteObject$16[ebp], eax

; 534  : 						remoteObject.inScope=defaultScope;

	mov	eax, DWORD PTR _this$[ebp]
	mov	cl, BYTE PTR [eax+42]
	mov	BYTE PTR _remoteObject$16[ebp+4], cl

; 535  : 						remoteObject.lastSendTime=0;

	mov	DWORD PTR _remoteObject$16[ebp+5], 0

; 536  : 						// Create an entry for this object.  We do this now, even if the user might refuse the SendConstruction override,
; 537  : 						// because that call may be delayed and other commands sent while that is pending.  We always do the REPLICA_EXPLICIT_CONSTRUCTION call first.
; 538  : 						participantStruct->remoteObjectList.Insert(remoteObject.replica,remoteObject);

	lea	eax, DWORD PTR _remoteObject$16[ebp]
	push	eax
	lea	ecx, DWORD PTR _remoteObject$16[ebp]
	push	ecx
	mov	ecx, DWORD PTR _participantStruct$[ebp]
	add	ecx, 19					; 00000013H
	call	?Insert@?$OrderedList@PAVReplica@@URemoteObject@ReplicaManager@@$1?RemoteObjectComp@3@SAHABQAV1@ABU23@@Z@DataStructures@@QAEIABQAVReplica@@ABURemoteObject@ReplicaManager@@@Z ; DataStructures::OrderedList<Replica *,ReplicaManager::RemoteObject,&ReplicaManager::RemoteObjectComp>::Insert
	jmp	SHORT $LN53@Update
$LN57@Update:

; 539  : 					}
; 540  : 					else if (res==REPLICA_PROCESS_LATER)

	cmp	DWORD PTR _res$[ebp], 0
	jne	SHORT $LN52@Update

; 541  : 					{
; 542  : 						continue;

	jmp	$LN62@Update

; 543  : 					}
; 544  : 					else // REPLICA_CANCEL_PROCESS

	jmp	SHORT $LN53@Update
$LN52@Update:

; 545  : 					{
; 546  : 						assert(res==REPLICA_CANCEL_PROCESS);

	cmp	DWORD PTR _res$[ebp], 2
	je	SHORT $LN71@Update
	mov	eax, DWORD PTR ?__LINE__Var@?1??Update@ReplicaManager@@MAEXPAVRakPeerInterface@@@Z@4JA
	add	eax, 97					; 00000061H
	push	eax
	push	OFFSET ??_C@_1FG@CAHGPPEA@?$AAz?$AA?3?$AA?2?$AAs?$AAa?$AAm?$AAp?$AAs?$AAr?$AAc?$AA?2?$AA0?$AA2?$AAx?$AAu?$AA1?$AA?2?$AAr?$AAa?$AAk?$AAn?$AAe?$AAt?$AA?2?$AAr?$AAe?$AAp?$AAl?$AAi?$AAc?$AAa?$AAm@
	push	OFFSET ??_C@_1DI@HDKFLDGG@?$AAr?$AAe?$AAs?$AA?$DN?$AA?$DN?$AAR?$AAE?$AAP?$AAL?$AAI?$AAC?$AAA?$AA_?$AAC?$AAA?$AAN?$AAC?$AAE?$AAL?$AA_?$AAP?$AAR?$AAO?$AAC?$AAE?$AAS?$AAS?$AA?$AA@
	call	__wassert
	add	esp, 12					; 0000000cH
$LN71@Update:

; 547  : 						participantStruct->commandList[commandListIndex].command=0;

	mov	eax, DWORD PTR _commandListIndex$[ebp]
	push	eax
	mov	ecx, DWORD PTR _participantStruct$[ebp]
	add	ecx, 7
	call	??A?$OrderedList@PAVReplica@@UCommandStruct@ReplicaManager@@$1?CommandStructComp@3@SAHABQAV1@ABU23@@Z@DataStructures@@QBEAAUCommandStruct@ReplicaManager@@I@Z ; DataStructures::OrderedList<Replica *,ReplicaManager::CommandStruct,&ReplicaManager::CommandStructComp>::operator[]
	mov	BYTE PTR [eax+4], 0
$LN53@Update:

; 548  : 					}
; 549  : 				}
; 550  : 				else

	jmp	SHORT $LN50@Update
$LN58@Update:

; 551  : 				{
; 552  : 					// Don't allow construction, or anything else for this object, as the construction send call is disallowed
; 553  : 					participantStruct->commandList[commandListIndex].command=0;

	mov	eax, DWORD PTR _commandListIndex$[ebp]
	push	eax
	mov	ecx, DWORD PTR _participantStruct$[ebp]
	add	ecx, 7
	call	??A?$OrderedList@PAVReplica@@UCommandStruct@ReplicaManager@@$1?CommandStructComp@3@SAHABQAV1@ABU23@@Z@DataStructures@@QBEAAUCommandStruct@ReplicaManager@@I@Z ; DataStructures::OrderedList<Replica *,ReplicaManager::CommandStruct,&ReplicaManager::CommandStructComp>::operator[]
	mov	BYTE PTR [eax+4], 0
$LN50@Update:

; 554  : 				}

	jmp	SHORT $LN49@Update
$LN59@Update:

; 555  : 			}
; 556  : 			else if (command & REPLICA_IMPLICIT_CONSTRUCTION)

	movzx	eax, BYTE PTR _command$[ebp]
	and	eax, 2
	je	SHORT $LN49@Update

; 557  : 			{
; 558  : 				// Turn off this bit
; 559  : 				participantStruct->commandList[commandListIndex].command &= 0xFF ^ REPLICA_IMPLICIT_CONSTRUCTION;

	mov	eax, DWORD PTR _commandListIndex$[ebp]
	push	eax
	mov	ecx, DWORD PTR _participantStruct$[ebp]
	add	ecx, 7
	call	??A?$OrderedList@PAVReplica@@UCommandStruct@ReplicaManager@@$1?CommandStructComp@3@SAHABQAV1@ABU23@@Z@DataStructures@@QBEAAUCommandStruct@ReplicaManager@@I@Z ; DataStructures::OrderedList<Replica *,ReplicaManager::CommandStruct,&ReplicaManager::CommandStructComp>::operator[]
	add	eax, 4
	mov	DWORD PTR tv259[ebp], eax
	mov	ecx, DWORD PTR tv259[ebp]
	movzx	edx, BYTE PTR [ecx]
	and	edx, 253				; 000000fdH
	mov	eax, DWORD PTR tv259[ebp]
	mov	BYTE PTR [eax], dl

; 560  : 
; 561  : 				// Add the object to the participant's object list, indicating this object is assumed to be remotely created
; 562  : 				RemoteObject remoteObject;
; 563  : 				remoteObject.replica=replica;

	mov	eax, DWORD PTR _replica$[ebp]
	mov	DWORD PTR _remoteObject$15[ebp], eax

; 564  : 				remoteObject.inScope=defaultScope;

	mov	eax, DWORD PTR _this$[ebp]
	mov	cl, BYTE PTR [eax+42]
	mov	BYTE PTR _remoteObject$15[ebp+4], cl

; 565  : 				remoteObject.lastSendTime=0;

	mov	DWORD PTR _remoteObject$15[ebp+5], 0

; 566  : 				// Create an entry for this object.  We do this now, even if the user might refuse the SendConstruction override,
; 567  : 				// because that call may be delayed and other commands sent while that is pending.  We always do the REPLICA_EXPLICIT_CONSTRUCTION call first.
; 568  : 				participantStruct->remoteObjectList.Insert(remoteObject.replica,remoteObject);

	lea	eax, DWORD PTR _remoteObject$15[ebp]
	push	eax
	lea	ecx, DWORD PTR _remoteObject$15[ebp]
	push	ecx
	mov	ecx, DWORD PTR _participantStruct$[ebp]
	add	ecx, 19					; 00000013H
	call	?Insert@?$OrderedList@PAVReplica@@URemoteObject@ReplicaManager@@$1?RemoteObjectComp@3@SAHABQAV1@ABU23@@Z@DataStructures@@QAEIABQAVReplica@@ABURemoteObject@ReplicaManager@@@Z ; DataStructures::OrderedList<Replica *,ReplicaManager::RemoteObject,&ReplicaManager::RemoteObjectComp>::Insert
$LN49@Update:

; 569  : 			}
; 570  : 
; 571  : 			// Sends the download complete packet
; 572  : 			// If callDownloadCompleteCB is true then check all the remaining objects starting at commandListIndex
; 573  : 			// I scan every frame in case the callback returns false to delay, and after that time a new object is Replicated
; 574  : 			if (participantStruct->callDownloadCompleteCB)

	mov	eax, DWORD PTR _participantStruct$[ebp]
	movzx	ecx, BYTE PTR [eax+6]
	test	ecx, ecx
	je	$LN47@Update

; 575  : 			{
; 576  : 				bool anyHasConstruction;
; 577  : 				unsigned j;
; 578  : 				anyHasConstruction=false;

	mov	BYTE PTR _anyHasConstruction$14[ebp], 0

; 579  : 				for (j=0; j < participantStruct->commandList.Size(); j++)

	mov	DWORD PTR _j$13[ebp], 0
	jmp	SHORT $LN46@Update
$LN45@Update:
	mov	eax, DWORD PTR _j$13[ebp]
	add	eax, 1
	mov	DWORD PTR _j$13[ebp], eax
$LN46@Update:
	mov	ecx, DWORD PTR _participantStruct$[ebp]
	add	ecx, 7
	call	?Size@?$OrderedList@PAVReplica@@UCommandStruct@ReplicaManager@@$1?CommandStructComp@3@SAHABQAV1@ABU23@@Z@DataStructures@@QBEIXZ ; DataStructures::OrderedList<Replica *,ReplicaManager::CommandStruct,&ReplicaManager::CommandStructComp>::Size
	cmp	DWORD PTR _j$13[ebp], eax
	jae	SHORT $LN44@Update

; 580  : 				{
; 581  : 					if (participantStruct->commandList[j].command & REPLICA_EXPLICIT_CONSTRUCTION)

	mov	eax, DWORD PTR _j$13[ebp]
	push	eax
	mov	ecx, DWORD PTR _participantStruct$[ebp]
	add	ecx, 7
	call	??A?$OrderedList@PAVReplica@@UCommandStruct@ReplicaManager@@$1?CommandStructComp@3@SAHABQAV1@ABU23@@Z@DataStructures@@QBEAAUCommandStruct@ReplicaManager@@I@Z ; DataStructures::OrderedList<Replica *,ReplicaManager::CommandStruct,&ReplicaManager::CommandStructComp>::operator[]
	movzx	ecx, BYTE PTR [eax+4]
	and	ecx, 1
	je	SHORT $LN43@Update

; 582  : 					{
; 583  : 						anyHasConstruction=true;

	mov	BYTE PTR _anyHasConstruction$14[ebp], 1

; 584  : 						break;

	jmp	SHORT $LN44@Update
$LN43@Update:

; 585  : 					}
; 586  : 				}

	jmp	SHORT $LN45@Update
$LN44@Update:

; 587  : 				// If none have REPLICA_EXPLICIT_CONSTRUCTION, send ID_REPLICA_MANAGER_DOWNLOAD_COMPLETE and set callDownloadCompleteCB false
; 588  : 				if (anyHasConstruction==false)

	movzx	eax, BYTE PTR _anyHasConstruction$14[ebp]
	test	eax, eax
	jne	$LN47@Update

; 589  : 				{
; 590  : 					ReplicaReturnResult sendDLComplete;
; 591  : 					userDataBitstream.Reset();

	lea	ecx, DWORD PTR _userDataBitstream$[ebp]
	call	?Reset@BitStream@RakNet@@QAEXXZ		; RakNet::BitStream::Reset

; 592  : 					if (_sendDownloadCompleteCB)

	mov	eax, DWORD PTR _this$[ebp]
	cmp	DWORD PTR [eax+32], 0
	je	SHORT $LN41@Update

; 593  : 						sendDLComplete=_sendDownloadCompleteCB(&userDataBitstream, currentTime, participantStruct->playerId, this); // If you return false, this will be called again next update

	mov	esi, esp
	mov	eax, DWORD PTR _this$[ebp]
	push	eax
	mov	ecx, DWORD PTR _participantStruct$[ebp]
	sub	esp, 8
	mov	edx, esp
	mov	eax, DWORD PTR [ecx]
	mov	DWORD PTR [edx], eax
	mov	cx, WORD PTR [ecx+4]
	mov	WORD PTR [edx+4], cx
	mov	edx, DWORD PTR _currentTime$[ebp]
	push	edx
	lea	eax, DWORD PTR _userDataBitstream$[ebp]
	push	eax
	mov	ecx, DWORD PTR _this$[ebp]
	mov	edx, DWORD PTR [ecx+32]
	call	edx
	add	esp, 20					; 00000014H
	cmp	esi, esp
	call	__RTC_CheckEsp
	mov	DWORD PTR _sendDLComplete$12[ebp], eax

; 594  : 					else

	jmp	SHORT $LN40@Update
$LN41@Update:

; 595  : 						sendDLComplete=REPLICA_CANCEL_PROCESS;

	mov	DWORD PTR _sendDLComplete$12[ebp], 2
$LN40@Update:

; 596  : 					if (sendDLComplete==REPLICA_PROCESSING_DONE)

	cmp	DWORD PTR _sendDLComplete$12[ebp], 1
	jne	SHORT $LN39@Update

; 597  : 					{
; 598  : 						outBitstream.Reset();

	lea	ecx, DWORD PTR _outBitstream$[ebp]
	call	?Reset@BitStream@RakNet@@QAEXXZ		; RakNet::BitStream::Reset

; 599  : 						outBitstream.Write((unsigned char)ID_REPLICA_MANAGER_DOWNLOAD_COMPLETE);

	push	60					; 0000003cH
	lea	ecx, DWORD PTR _outBitstream$[ebp]
	call	??$Write@E@BitStream@RakNet@@QAEXE@Z	; RakNet::BitStream::Write<unsigned char>

; 600  : 						outBitstream.Write(&userDataBitstream, userDataBitstream.GetNumberOfBitsUsed());

	lea	ecx, DWORD PTR _userDataBitstream$[ebp]
	call	?GetNumberOfBitsUsed@BitStream@RakNet@@QBEHXZ ; RakNet::BitStream::GetNumberOfBitsUsed
	push	eax
	lea	eax, DWORD PTR _userDataBitstream$[ebp]
	push	eax
	lea	ecx, DWORD PTR _outBitstream$[ebp]
	call	?Write@BitStream@RakNet@@QAEXPAV12@H@Z	; RakNet::BitStream::Write

; 601  : 						peer->Send(&outBitstream, HIGH_PRIORITY, RELIABLE_ORDERED, sendChannel, participantStruct->playerId, false);

	mov	esi, esp
	push	0
	mov	eax, DWORD PTR _participantStruct$[ebp]
	sub	esp, 8
	mov	ecx, esp
	mov	edx, DWORD PTR [eax]
	mov	DWORD PTR [ecx], edx
	mov	ax, WORD PTR [eax+4]
	mov	WORD PTR [ecx+4], ax
	mov	ecx, DWORD PTR _this$[ebp]
	movzx	edx, BYTE PTR [ecx+40]
	push	edx
	push	3
	push	1
	lea	eax, DWORD PTR _outBitstream$[ebp]
	push	eax
	mov	ecx, DWORD PTR _peer$[ebp]
	mov	edx, DWORD PTR [ecx]
	mov	ecx, DWORD PTR _peer$[ebp]
	mov	eax, DWORD PTR [edx+48]
	call	eax
	cmp	esi, esp
	call	__RTC_CheckEsp

; 602  : 						participantStruct->callDownloadCompleteCB=false;

	mov	eax, DWORD PTR _participantStruct$[ebp]
	mov	BYTE PTR [eax+6], 0
	jmp	SHORT $LN47@Update
$LN39@Update:

; 603  : 					}
; 604  : 					else if (sendDLComplete==REPLICA_CANCEL_PROCESS)

	cmp	DWORD PTR _sendDLComplete$12[ebp], 2
	jne	SHORT $LN37@Update

; 605  : 					{
; 606  : 						participantStruct->callDownloadCompleteCB=false;

	mov	eax, DWORD PTR _participantStruct$[ebp]
	mov	BYTE PTR [eax+6], 0

; 607  : 					}
; 608  : 					else

	jmp	SHORT $LN47@Update
$LN37@Update:

; 609  : 					{
; 610  : 						assert(sendDLComplete==REPLICA_PROCESS_LATER);

	cmp	DWORD PTR _sendDLComplete$12[ebp], 0
	je	SHORT $LN47@Update
	mov	eax, DWORD PTR ?__LINE__Var@?1??Update@ReplicaManager@@MAEXPAVRakPeerInterface@@@Z@4JA
	add	eax, 161				; 000000a1H
	push	eax
	push	OFFSET ??_C@_1FG@CAHGPPEA@?$AAz?$AA?3?$AA?2?$AAs?$AAa?$AAm?$AAp?$AAs?$AAr?$AAc?$AA?2?$AA0?$AA2?$AAx?$AAu?$AA1?$AA?2?$AAr?$AAa?$AAk?$AAn?$AAe?$AAt?$AA?2?$AAr?$AAe?$AAp?$AAl?$AAi?$AAc?$AAa?$AAm@
	push	OFFSET ??_C@_1EM@HMDKKPAI@?$AAs?$AAe?$AAn?$AAd?$AAD?$AAL?$AAC?$AAo?$AAm?$AAp?$AAl?$AAe?$AAt?$AAe?$AA?$DN?$AA?$DN?$AAR?$AAE?$AAP?$AAL?$AAI?$AAC?$AAA?$AA_?$AAP?$AAR?$AAO?$AAC?$AAE?$AAS?$AAS?$AA_@
	call	__wassert
	add	esp, 12					; 0000000cH
$LN47@Update:

; 611  : 						// else REPLICA_PROCESS_LATER
; 612  : 					}
; 613  : 					
; 614  : 				}
; 615  : 			}
; 616  : 
; 617  : 			// The remaining commands, SendScopeChange and Serialize, require the object the command references exists on the remote system, so check that
; 618  : 			remoteObjectListIndex = participantStruct->remoteObjectList.GetIndexFromKey(replica, &objectExists);

	lea	eax, DWORD PTR _objectExists$[ebp]
	push	eax
	lea	ecx, DWORD PTR _replica$[ebp]
	push	ecx
	mov	ecx, DWORD PTR _participantStruct$[ebp]
	add	ecx, 19					; 00000013H
	call	?GetIndexFromKey@?$OrderedList@PAVReplica@@URemoteObject@ReplicaManager@@$1?RemoteObjectComp@3@SAHABQAV1@ABU23@@Z@DataStructures@@QBEIABQAVReplica@@PA_N@Z ; DataStructures::OrderedList<Replica *,ReplicaManager::RemoteObject,&ReplicaManager::RemoteObjectComp>::GetIndexFromKey
	mov	DWORD PTR _remoteObjectListIndex$[ebp], eax

; 619  : 			if (objectExists)

	movzx	eax, BYTE PTR _objectExists$[ebp]
	test	eax, eax
	je	$LN35@Update

; 620  : 			{
; 621  : 				command = participantStruct->commandList[commandListIndex].command;

	mov	eax, DWORD PTR _commandListIndex$[ebp]
	push	eax
	mov	ecx, DWORD PTR _participantStruct$[ebp]
	add	ecx, 7
	call	??A?$OrderedList@PAVReplica@@UCommandStruct@ReplicaManager@@$1?CommandStructComp@3@SAHABQAV1@ABU23@@Z@DataStructures@@QBEAAUCommandStruct@ReplicaManager@@I@Z ; DataStructures::OrderedList<Replica *,ReplicaManager::CommandStruct,&ReplicaManager::CommandStructComp>::operator[]
	mov	cl, BYTE PTR [eax+4]
	mov	BYTE PTR _command$[ebp], cl

; 622  : 
; 623  : 				// Process SendScopeChange.
; 624  : 				if ((command & (REPLICA_SCOPE_TRUE | REPLICA_SCOPE_FALSE)))

	movzx	eax, BYTE PTR _command$[ebp]
	and	eax, 12					; 0000000cH
	je	$LN34@Update

; 625  : 				{
; 626  : 					if (replica->GetNetworkID()==UNASSIGNED_NETWORK_ID)

	push	OFFSET _UNASSIGNED_NETWORK_ID
	mov	esi, esp
	lea	eax, DWORD PTR $T4[ebp]
	push	eax
	mov	ecx, DWORD PTR _replica$[ebp]
	mov	edx, DWORD PTR [ecx]
	mov	ecx, DWORD PTR _replica$[ebp]
	mov	eax, DWORD PTR [edx+4]
	call	eax
	cmp	esi, esp
	call	__RTC_CheckEsp
	mov	ecx, eax
	call	??8NetworkID@@QBE_NABU0@@Z		; NetworkID::operator==
	movzx	ecx, al
	test	ecx, ecx
	je	SHORT $LN33@Update

; 627  : 						continue; // Not set yet so call this later.

	jmp	$LN62@Update
$LN33@Update:

; 628  : 
; 629  : 					if (replicatedObjects[replicatedObjectsIndex].allowedInterfaces & REPLICA_SEND_SCOPE_CHANGE)

	mov	eax, DWORD PTR _replicatedObjectsIndex$[ebp]
	push	eax
	mov	ecx, DWORD PTR _this$[ebp]
	add	ecx, 4
	call	??A?$OrderedList@PAVReplica@@URegisteredReplica@ReplicaManager@@$1?RegisteredReplicaComp@3@SAHABQAV1@ABU23@@Z@DataStructures@@QBEAAURegisteredReplica@ReplicaManager@@I@Z ; DataStructures::OrderedList<Replica *,ReplicaManager::RegisteredReplica,&ReplicaManager::RegisteredReplicaComp>::operator[]
	movzx	ecx, BYTE PTR [eax+8]
	and	ecx, 32					; 00000020H
	je	$LN32@Update

; 630  : 					{
; 631  : 						bool scopeTrue = (command & REPLICA_SCOPE_TRUE)!=0;

	movzx	eax, BYTE PTR _command$[ebp]
	and	eax, 4
	je	SHORT $LN73@Update
	mov	DWORD PTR tv397[ebp], 1
	jmp	SHORT $LN74@Update
$LN73@Update:
	mov	DWORD PTR tv397[ebp], 0
$LN74@Update:
	mov	cl, BYTE PTR tv397[ebp]
	mov	BYTE PTR _scopeTrue$11[ebp], cl

; 632  : 
; 633  : 						// Only send scope changes if the requested change is different from what they already have
; 634  : 						if (participantStruct->remoteObjectList[remoteObjectListIndex].inScope!=scopeTrue)

	mov	eax, DWORD PTR _remoteObjectListIndex$[ebp]
	push	eax
	mov	ecx, DWORD PTR _participantStruct$[ebp]
	add	ecx, 19					; 00000013H
	call	??A?$OrderedList@PAVReplica@@URemoteObject@ReplicaManager@@$1?RemoteObjectComp@3@SAHABQAV1@ABU23@@Z@DataStructures@@QBEAAURemoteObject@ReplicaManager@@I@Z ; DataStructures::OrderedList<Replica *,ReplicaManager::RemoteObject,&ReplicaManager::RemoteObjectComp>::operator[]
	movzx	ecx, BYTE PTR [eax+4]
	movzx	edx, BYTE PTR _scopeTrue$11[ebp]
	cmp	ecx, edx
	je	$LN31@Update

; 635  : 						{
; 636  : 							userDataBitstream.Reset();

	lea	ecx, DWORD PTR _userDataBitstream$[ebp]
	call	?Reset@BitStream@RakNet@@QAEXXZ		; RakNet::BitStream::Reset

; 637  : 							res=replica->SendScopeChange(scopeTrue, &userDataBitstream, currentTime, participantStruct->playerId);

	mov	eax, DWORD PTR _participantStruct$[ebp]
	mov	esi, esp
	sub	esp, 8
	mov	ecx, esp
	mov	edx, DWORD PTR [eax]
	mov	DWORD PTR [ecx], edx
	mov	ax, WORD PTR [eax+4]
	mov	WORD PTR [ecx+4], ax
	mov	ecx, DWORD PTR _currentTime$[ebp]
	push	ecx
	lea	edx, DWORD PTR _userDataBitstream$[ebp]
	push	edx
	movzx	eax, BYTE PTR _scopeTrue$11[ebp]
	push	eax
	mov	ecx, DWORD PTR _replica$[ebp]
	mov	edx, DWORD PTR [ecx]
	mov	ecx, DWORD PTR _replica$[ebp]
	mov	eax, DWORD PTR [edx+40]
	call	eax
	cmp	esi, esp
	call	__RTC_CheckEsp
	mov	DWORD PTR _res$[ebp], eax

; 638  : 
; 639  : 							if (res==REPLICA_PROCESSING_DONE)

	cmp	DWORD PTR _res$[ebp], 1
	jne	$LN30@Update

; 640  : 							{
; 641  : 								// If the user returns true and does write to outBitstream, do this send.  Clear the scope change command. Then process the next command for this CommandStruct, if any.
; 642  : 								outBitstream.Reset();

	lea	ecx, DWORD PTR _outBitstream$[ebp]
	call	?Reset@BitStream@RakNet@@QAEXXZ		; RakNet::BitStream::Reset

; 643  : 								outBitstream.Write((unsigned char)ID_REPLICA_MANAGER_SCOPE_CHANGE);

	push	58					; 0000003aH
	lea	ecx, DWORD PTR _outBitstream$[ebp]
	call	??$Write@E@BitStream@RakNet@@QAEXE@Z	; RakNet::BitStream::Write<unsigned char>

; 644  : 								outBitstream.Write(replica->GetNetworkID());

	mov	esi, esp
	lea	eax, DWORD PTR $T5[ebp]
	push	eax
	mov	ecx, DWORD PTR _replica$[ebp]
	mov	edx, DWORD PTR [ecx]
	mov	ecx, DWORD PTR _replica$[ebp]
	mov	eax, DWORD PTR [edx+4]
	call	eax
	cmp	esi, esp
	call	__RTC_CheckEsp
	mov	ecx, DWORD PTR [eax+4]
	push	ecx
	mov	edx, DWORD PTR [eax]
	push	edx
	lea	ecx, DWORD PTR _outBitstream$[ebp]
	call	??$Write@UNetworkID@@@BitStream@RakNet@@QAEXUNetworkID@@@Z ; RakNet::BitStream::Write<NetworkID>

; 645  : 								outBitstream.Write(&userDataBitstream, userDataBitstream.GetNumberOfBitsUsed());

	lea	ecx, DWORD PTR _userDataBitstream$[ebp]
	call	?GetNumberOfBitsUsed@BitStream@RakNet@@QBEHXZ ; RakNet::BitStream::GetNumberOfBitsUsed
	push	eax
	lea	eax, DWORD PTR _userDataBitstream$[ebp]
	push	eax
	lea	ecx, DWORD PTR _outBitstream$[ebp]
	call	?Write@BitStream@RakNet@@QAEXPAV12@H@Z	; RakNet::BitStream::Write

; 646  : 								peer->Send(&outBitstream, HIGH_PRIORITY, RELIABLE_ORDERED, sendChannel, participantStruct->playerId, false);

	mov	esi, esp
	push	0
	mov	eax, DWORD PTR _participantStruct$[ebp]
	sub	esp, 8
	mov	ecx, esp
	mov	edx, DWORD PTR [eax]
	mov	DWORD PTR [ecx], edx
	mov	ax, WORD PTR [eax+4]
	mov	WORD PTR [ecx+4], ax
	mov	ecx, DWORD PTR _this$[ebp]
	movzx	edx, BYTE PTR [ecx+40]
	push	edx
	push	3
	push	1
	lea	eax, DWORD PTR _outBitstream$[ebp]
	push	eax
	mov	ecx, DWORD PTR _peer$[ebp]
	mov	edx, DWORD PTR [ecx]
	mov	ecx, DWORD PTR _peer$[ebp]
	mov	eax, DWORD PTR [edx+48]
	call	eax
	cmp	esi, esp
	call	__RTC_CheckEsp

; 647  : 
; 648  : 								// Set the scope for this object and system
; 649  : 								participantStruct->remoteObjectList[remoteObjectListIndex].inScope=scopeTrue;

	mov	eax, DWORD PTR _remoteObjectListIndex$[ebp]
	push	eax
	mov	ecx, DWORD PTR _participantStruct$[ebp]
	add	ecx, 19					; 00000013H
	call	??A?$OrderedList@PAVReplica@@URemoteObject@ReplicaManager@@$1?RemoteObjectComp@3@SAHABQAV1@ABU23@@Z@DataStructures@@QBEAAURemoteObject@ReplicaManager@@I@Z ; DataStructures::OrderedList<Replica *,ReplicaManager::RemoteObject,&ReplicaManager::RemoteObjectComp>::operator[]
	mov	cl, BYTE PTR _scopeTrue$11[ebp]
	mov	BYTE PTR [eax+4], cl

; 650  : 
; 651  : 								// If scope is true, turn on serialize, since you virtually always want to serialize when an object goes in scope
; 652  : 								participantStruct->commandList[commandListIndex].command |= REPLICA_SERIALIZE;

	mov	eax, DWORD PTR _commandListIndex$[ebp]
	push	eax
	mov	ecx, DWORD PTR _participantStruct$[ebp]
	add	ecx, 7
	call	??A?$OrderedList@PAVReplica@@UCommandStruct@ReplicaManager@@$1?CommandStructComp@3@SAHABQAV1@ABU23@@Z@DataStructures@@QBEAAUCommandStruct@ReplicaManager@@I@Z ; DataStructures::OrderedList<Replica *,ReplicaManager::CommandStruct,&ReplicaManager::CommandStructComp>::operator[]
	add	eax, 4
	mov	DWORD PTR tv458[ebp], eax
	mov	ecx, DWORD PTR tv458[ebp]
	movzx	edx, BYTE PTR [ecx]
	or	edx, 16					; 00000010H
	mov	eax, DWORD PTR tv458[ebp]
	mov	BYTE PTR [eax], dl

; 653  : 
; 654  : 								// Turn off these bits - Call is processed
; 655  : 								participantStruct->commandList[commandListIndex].command &= 0xFF ^ (REPLICA_SCOPE_TRUE | REPLICA_SCOPE_FALSE);

	mov	eax, DWORD PTR _commandListIndex$[ebp]
	push	eax
	mov	ecx, DWORD PTR _participantStruct$[ebp]
	add	ecx, 7
	call	??A?$OrderedList@PAVReplica@@UCommandStruct@ReplicaManager@@$1?CommandStructComp@3@SAHABQAV1@ABU23@@Z@DataStructures@@QBEAAUCommandStruct@ReplicaManager@@I@Z ; DataStructures::OrderedList<Replica *,ReplicaManager::CommandStruct,&ReplicaManager::CommandStructComp>::operator[]
	add	eax, 4
	mov	DWORD PTR tv467[ebp], eax
	mov	ecx, DWORD PTR tv467[ebp]
	movzx	edx, BYTE PTR [ecx]
	and	edx, 243				; 000000f3H
	mov	eax, DWORD PTR tv467[ebp]
	mov	BYTE PTR [eax], dl
	jmp	SHORT $LN31@Update
$LN30@Update:

; 656  : 							}
; 657  : 							else if (res==REPLICA_CANCEL_PROCESS)

	cmp	DWORD PTR _res$[ebp], 2
	jne	SHORT $LN28@Update

; 658  : 							{
; 659  : 								// Turn off these bits - Call is canceled
; 660  : 								participantStruct->commandList[commandListIndex].command &= 0xFF ^ (REPLICA_SCOPE_TRUE | REPLICA_SCOPE_FALSE);

	mov	eax, DWORD PTR _commandListIndex$[ebp]
	push	eax
	mov	ecx, DWORD PTR _participantStruct$[ebp]
	add	ecx, 7
	call	??A?$OrderedList@PAVReplica@@UCommandStruct@ReplicaManager@@$1?CommandStructComp@3@SAHABQAV1@ABU23@@Z@DataStructures@@QBEAAUCommandStruct@ReplicaManager@@I@Z ; DataStructures::OrderedList<Replica *,ReplicaManager::CommandStruct,&ReplicaManager::CommandStructComp>::operator[]
	add	eax, 4
	mov	DWORD PTR tv477[ebp], eax
	mov	ecx, DWORD PTR tv477[ebp]
	movzx	edx, BYTE PTR [ecx]
	and	edx, 243				; 000000f3H
	mov	eax, DWORD PTR tv477[ebp]
	mov	BYTE PTR [eax], dl

; 661  : 							}
; 662  : 							else

	jmp	SHORT $LN31@Update
$LN28@Update:

; 663  : 							{
; 664  : 								// If the user returns false and the scope is currently set to false, just continue with another CommandStruct.  Don't process serialization until scoping is resolved first.
; 665  : 								if (scopeTrue==false)

	movzx	eax, BYTE PTR _scopeTrue$11[ebp]
	test	eax, eax
	jne	SHORT $LN31@Update

; 666  : 									continue;

	jmp	$LN62@Update
$LN31@Update:

; 667  : 
; 668  : 								// If the user returns false and the scope is currently set to false, process the next command for this CommandStruct, if any.
; 669  : 							}
; 670  : 						}
; 671  : 					}
; 672  : 					else

	jmp	SHORT $LN34@Update
$LN32@Update:

; 673  : 					{
; 674  : 						// Turn off these bits - Call is disallowed
; 675  : 						participantStruct->commandList[commandListIndex].command &= 0xFF ^ (REPLICA_SCOPE_TRUE | REPLICA_SCOPE_FALSE);

	mov	eax, DWORD PTR _commandListIndex$[ebp]
	push	eax
	mov	ecx, DWORD PTR _participantStruct$[ebp]
	add	ecx, 7
	call	??A?$OrderedList@PAVReplica@@UCommandStruct@ReplicaManager@@$1?CommandStructComp@3@SAHABQAV1@ABU23@@Z@DataStructures@@QBEAAUCommandStruct@ReplicaManager@@I@Z ; DataStructures::OrderedList<Replica *,ReplicaManager::CommandStruct,&ReplicaManager::CommandStructComp>::operator[]
	add	eax, 4
	mov	DWORD PTR tv488[ebp], eax
	mov	ecx, DWORD PTR tv488[ebp]
	movzx	edx, BYTE PTR [ecx]
	and	edx, 243				; 000000f3H
	mov	eax, DWORD PTR tv488[ebp]
	mov	BYTE PTR [eax], dl

; 676  : 
; 677  : 						// Set the scope - even if the actual send is disabled we might still be able to serialize.
; 678  : 						participantStruct->remoteObjectList[remoteObjectListIndex].inScope=(command & REPLICA_SCOPE_TRUE)!=0;

	movzx	eax, BYTE PTR _command$[ebp]
	and	eax, 4
	je	SHORT $LN75@Update
	mov	DWORD PTR tv500[ebp], 1
	jmp	SHORT $LN76@Update
$LN75@Update:
	mov	DWORD PTR tv500[ebp], 0
$LN76@Update:
	mov	ecx, DWORD PTR _remoteObjectListIndex$[ebp]
	push	ecx
	mov	ecx, DWORD PTR _participantStruct$[ebp]
	add	ecx, 19					; 00000013H
	call	??A?$OrderedList@PAVReplica@@URemoteObject@ReplicaManager@@$1?RemoteObjectComp@3@SAHABQAV1@ABU23@@Z@DataStructures@@QBEAAURemoteObject@ReplicaManager@@I@Z ; DataStructures::OrderedList<Replica *,ReplicaManager::RemoteObject,&ReplicaManager::RemoteObjectComp>::operator[]
	mov	dl, BYTE PTR tv500[ebp]
	mov	BYTE PTR [eax+4], dl
$LN34@Update:

; 679  : 					}
; 680  : 				}
; 681  : 
; 682  : 				command = participantStruct->commandList[commandListIndex].command;

	mov	eax, DWORD PTR _commandListIndex$[ebp]
	push	eax
	mov	ecx, DWORD PTR _participantStruct$[ebp]
	add	ecx, 7
	call	??A?$OrderedList@PAVReplica@@UCommandStruct@ReplicaManager@@$1?CommandStructComp@3@SAHABQAV1@ABU23@@Z@DataStructures@@QBEAAUCommandStruct@ReplicaManager@@I@Z ; DataStructures::OrderedList<Replica *,ReplicaManager::CommandStruct,&ReplicaManager::CommandStructComp>::operator[]
	mov	cl, BYTE PTR [eax+4]
	mov	BYTE PTR _command$[ebp], cl

; 683  : 				// Process Serialize
; 684  : 				if ((participantStruct->commandList[commandListIndex].command & REPLICA_SERIALIZE))

	mov	eax, DWORD PTR _commandListIndex$[ebp]
	push	eax
	mov	ecx, DWORD PTR _participantStruct$[ebp]
	add	ecx, 7
	call	??A?$OrderedList@PAVReplica@@UCommandStruct@ReplicaManager@@$1?CommandStructComp@3@SAHABQAV1@ABU23@@Z@DataStructures@@QBEAAUCommandStruct@ReplicaManager@@I@Z ; DataStructures::OrderedList<Replica *,ReplicaManager::CommandStruct,&ReplicaManager::CommandStructComp>::operator[]
	movzx	ecx, BYTE PTR [eax+4]
	and	ecx, 16					; 00000010H
	je	$LN35@Update

; 685  : 				{
; 686  : 					if (replica->GetNetworkID()==UNASSIGNED_NETWORK_ID)

	push	OFFSET _UNASSIGNED_NETWORK_ID
	mov	esi, esp
	lea	eax, DWORD PTR $T6[ebp]
	push	eax
	mov	ecx, DWORD PTR _replica$[ebp]
	mov	edx, DWORD PTR [ecx]
	mov	ecx, DWORD PTR _replica$[ebp]
	mov	eax, DWORD PTR [edx+4]
	call	eax
	cmp	esi, esp
	call	__RTC_CheckEsp
	mov	ecx, eax
	call	??8NetworkID@@QBE_NABU0@@Z		; NetworkID::operator==
	movzx	ecx, al
	test	ecx, ecx
	je	SHORT $LN23@Update

; 687  : 						continue; // Not set yet so call this later.

	jmp	$LN62@Update
$LN23@Update:

; 688  : 
; 689  : 					// If scope is currently false for this object in the RemoteObject list, cancel this serialize as the scope changed before the serialization went out
; 690  : 					if (participantStruct->remoteObjectList[remoteObjectListIndex].inScope && (replicatedObjects[replicatedObjectsIndex].allowedInterfaces & REPLICA_SEND_SERIALIZE))

	mov	eax, DWORD PTR _remoteObjectListIndex$[ebp]
	push	eax
	mov	ecx, DWORD PTR _participantStruct$[ebp]
	add	ecx, 19					; 00000013H
	call	??A?$OrderedList@PAVReplica@@URemoteObject@ReplicaManager@@$1?RemoteObjectComp@3@SAHABQAV1@ABU23@@Z@DataStructures@@QBEAAURemoteObject@ReplicaManager@@I@Z ; DataStructures::OrderedList<Replica *,ReplicaManager::RemoteObject,&ReplicaManager::RemoteObjectComp>::operator[]
	movzx	ecx, BYTE PTR [eax+4]
	test	ecx, ecx
	je	$LN22@Update
	mov	eax, DWORD PTR _replicatedObjectsIndex$[ebp]
	push	eax
	mov	ecx, DWORD PTR _this$[ebp]
	add	ecx, 4
	call	??A?$OrderedList@PAVReplica@@URegisteredReplica@ReplicaManager@@$1?RegisteredReplicaComp@3@SAHABQAV1@ABU23@@Z@DataStructures@@QBEAAURegisteredReplica@ReplicaManager@@I@Z ; DataStructures::OrderedList<Replica *,ReplicaManager::RegisteredReplica,&ReplicaManager::RegisteredReplicaComp>::operator[]
	movzx	ecx, BYTE PTR [eax+8]
	and	ecx, 64					; 00000040H
	je	$LN22@Update
$LN21@Update:

; 691  : 					{
; 692  : 						do 
; 693  : 						{
; 694  : 							userDataBitstream.Reset();

	lea	ecx, DWORD PTR _userDataBitstream$[ebp]
	call	?Reset@BitStream@RakNet@@QAEXXZ		; RakNet::BitStream::Reset

; 695  : 							priority=HIGH_PRIORITY;

	mov	DWORD PTR _priority$[ebp], 1

; 696  : 							reliability=RELIABLE_ORDERED;

	mov	DWORD PTR _reliability$[ebp], 3

; 697  : 							sendTimestamp=false;

	mov	BYTE PTR _sendTimestamp$[ebp], 0

; 698  : 							res=replica->Serialize(&sendTimestamp, &userDataBitstream, participantStruct->remoteObjectList[remoteObjectListIndex].lastSendTime, &priority, &reliability, currentTime, participantStruct->playerId);

	mov	eax, DWORD PTR _participantStruct$[ebp]
	mov	esi, esp
	sub	esp, 8
	mov	ecx, esp
	mov	edx, DWORD PTR [eax]
	mov	DWORD PTR [ecx], edx
	mov	ax, WORD PTR [eax+4]
	mov	WORD PTR [ecx+4], ax
	mov	ecx, DWORD PTR _currentTime$[ebp]
	push	ecx
	lea	edx, DWORD PTR _reliability$[ebp]
	push	edx
	lea	eax, DWORD PTR _priority$[ebp]
	push	eax
	mov	ecx, DWORD PTR _remoteObjectListIndex$[ebp]
	push	ecx
	mov	ecx, DWORD PTR _participantStruct$[ebp]
	add	ecx, 19					; 00000013H
	call	??A?$OrderedList@PAVReplica@@URemoteObject@ReplicaManager@@$1?RemoteObjectComp@3@SAHABQAV1@ABU23@@Z@DataStructures@@QBEAAURemoteObject@ReplicaManager@@I@Z ; DataStructures::OrderedList<Replica *,ReplicaManager::RemoteObject,&ReplicaManager::RemoteObjectComp>::operator[]
	mov	edx, DWORD PTR [eax+5]
	push	edx
	lea	eax, DWORD PTR _userDataBitstream$[ebp]
	push	eax
	lea	ecx, DWORD PTR _sendTimestamp$[ebp]
	push	ecx
	mov	edx, DWORD PTR _replica$[ebp]
	mov	eax, DWORD PTR [edx]
	mov	ecx, DWORD PTR _replica$[ebp]
	mov	edx, DWORD PTR [eax+48]
	call	edx
	cmp	esi, esp
	call	__RTC_CheckEsp
	mov	DWORD PTR _res$[ebp], eax

; 699  : 
; 700  : 							if (res==REPLICA_PROCESSING_DONE || res==REPLICA_PROCESS_AGAIN)

	cmp	DWORD PTR _res$[ebp], 1
	je	SHORT $LN17@Update
	cmp	DWORD PTR _res$[ebp], 3
	jne	$LN18@Update
$LN17@Update:

; 701  : 							{
; 702  : 								participantStruct->remoteObjectList[remoteObjectListIndex].lastSendTime=currentTime;

	mov	eax, DWORD PTR _remoteObjectListIndex$[ebp]
	push	eax
	mov	ecx, DWORD PTR _participantStruct$[ebp]
	add	ecx, 19					; 00000013H
	call	??A?$OrderedList@PAVReplica@@URemoteObject@ReplicaManager@@$1?RemoteObjectComp@3@SAHABQAV1@ABU23@@Z@DataStructures@@QBEAAURemoteObject@ReplicaManager@@I@Z ; DataStructures::OrderedList<Replica *,ReplicaManager::RemoteObject,&ReplicaManager::RemoteObjectComp>::operator[]
	mov	ecx, DWORD PTR _currentTime$[ebp]
	mov	DWORD PTR [eax+5], ecx

; 703  : 
; 704  : 								outBitstream.Reset();

	lea	ecx, DWORD PTR _outBitstream$[ebp]
	call	?Reset@BitStream@RakNet@@QAEXXZ		; RakNet::BitStream::Reset

; 705  : 								if (sendTimestamp)

	movzx	eax, BYTE PTR _sendTimestamp$[ebp]
	test	eax, eax
	je	SHORT $LN16@Update

; 706  : 								{
; 707  : 									outBitstream.Write((unsigned char)ID_TIMESTAMP);

	push	36					; 00000024H
	lea	ecx, DWORD PTR _outBitstream$[ebp]
	call	??$Write@E@BitStream@RakNet@@QAEXE@Z	; RakNet::BitStream::Write<unsigned char>

; 708  : 									outBitstream.Write(currentTime);

	mov	eax, DWORD PTR _currentTime$[ebp]
	push	eax
	lea	ecx, DWORD PTR _outBitstream$[ebp]
	call	??$Write@I@BitStream@RakNet@@QAEXI@Z	; RakNet::BitStream::Write<unsigned int>
$LN16@Update:

; 709  : 								}
; 710  : 								outBitstream.Write((unsigned char)ID_REPLICA_MANAGER_SERIALIZE);

	push	59					; 0000003bH
	lea	ecx, DWORD PTR _outBitstream$[ebp]
	call	??$Write@E@BitStream@RakNet@@QAEXE@Z	; RakNet::BitStream::Write<unsigned char>

; 711  : 								outBitstream.Write(replica->GetNetworkID());

	mov	esi, esp
	lea	eax, DWORD PTR $T7[ebp]
	push	eax
	mov	ecx, DWORD PTR _replica$[ebp]
	mov	edx, DWORD PTR [ecx]
	mov	ecx, DWORD PTR _replica$[ebp]
	mov	eax, DWORD PTR [edx+4]
	call	eax
	cmp	esi, esp
	call	__RTC_CheckEsp
	mov	ecx, DWORD PTR [eax+4]
	push	ecx
	mov	edx, DWORD PTR [eax]
	push	edx
	lea	ecx, DWORD PTR _outBitstream$[ebp]
	call	??$Write@UNetworkID@@@BitStream@RakNet@@QAEXUNetworkID@@@Z ; RakNet::BitStream::Write<NetworkID>

; 712  : 								outBitstream.Write(&userDataBitstream, userDataBitstream.GetNumberOfBitsUsed());

	lea	ecx, DWORD PTR _userDataBitstream$[ebp]
	call	?GetNumberOfBitsUsed@BitStream@RakNet@@QBEHXZ ; RakNet::BitStream::GetNumberOfBitsUsed
	push	eax
	lea	eax, DWORD PTR _userDataBitstream$[ebp]
	push	eax
	lea	ecx, DWORD PTR _outBitstream$[ebp]
	call	?Write@BitStream@RakNet@@QAEXPAV12@H@Z	; RakNet::BitStream::Write

; 713  : 								peer->Send(&outBitstream, priority, reliability, sendChannel, participantStruct->playerId, false);		

	mov	esi, esp
	push	0
	mov	eax, DWORD PTR _participantStruct$[ebp]
	sub	esp, 8
	mov	ecx, esp
	mov	edx, DWORD PTR [eax]
	mov	DWORD PTR [ecx], edx
	mov	ax, WORD PTR [eax+4]
	mov	WORD PTR [ecx+4], ax
	mov	ecx, DWORD PTR _this$[ebp]
	movzx	edx, BYTE PTR [ecx+40]
	push	edx
	mov	eax, DWORD PTR _reliability$[ebp]
	push	eax
	mov	ecx, DWORD PTR _priority$[ebp]
	push	ecx
	lea	edx, DWORD PTR _outBitstream$[ebp]
	push	edx
	mov	eax, DWORD PTR _peer$[ebp]
	mov	edx, DWORD PTR [eax]
	mov	ecx, DWORD PTR _peer$[ebp]
	mov	eax, DWORD PTR [edx+48]
	call	eax
	cmp	esi, esp
	call	__RTC_CheckEsp

; 714  : 
; 715  : 								// Clear the serialize bit when done
; 716  : 								if (res==REPLICA_PROCESSING_DONE)

	cmp	DWORD PTR _res$[ebp], 1
	jne	SHORT $LN15@Update

; 717  : 									participantStruct->commandList[commandListIndex].command &= 0xFF ^ REPLICA_SERIALIZE;

	mov	eax, DWORD PTR _commandListIndex$[ebp]
	push	eax
	mov	ecx, DWORD PTR _participantStruct$[ebp]
	add	ecx, 7
	call	??A?$OrderedList@PAVReplica@@UCommandStruct@ReplicaManager@@$1?CommandStructComp@3@SAHABQAV1@ABU23@@Z@DataStructures@@QBEAAUCommandStruct@ReplicaManager@@I@Z ; DataStructures::OrderedList<Replica *,ReplicaManager::CommandStruct,&ReplicaManager::CommandStructComp>::operator[]
	add	eax, 4
	mov	DWORD PTR tv611[ebp], eax
	mov	ecx, DWORD PTR tv611[ebp]
	movzx	edx, BYTE PTR [ecx]
	and	edx, 239				; 000000efH
	mov	eax, DWORD PTR tv611[ebp]
	mov	BYTE PTR [eax], dl
$LN15@Update:

; 718  : 								// else res==REPLICA_PROCESS_AGAIN so it will repeat the enclosing do {} while(); loop
; 719  : 							}

	jmp	SHORT $LN20@Update
$LN18@Update:

; 720  : 							else if (res==REPLICA_CANCEL_PROCESS)

	cmp	DWORD PTR _res$[ebp], 2
	jne	SHORT $LN13@Update

; 721  : 							{
; 722  : 								// Clear the serialize bit
; 723  : 								participantStruct->commandList[commandListIndex].command &= 0xFF ^ REPLICA_SERIALIZE;

	mov	eax, DWORD PTR _commandListIndex$[ebp]
	push	eax
	mov	ecx, DWORD PTR _participantStruct$[ebp]
	add	ecx, 7
	call	??A?$OrderedList@PAVReplica@@UCommandStruct@ReplicaManager@@$1?CommandStructComp@3@SAHABQAV1@ABU23@@Z@DataStructures@@QBEAAUCommandStruct@ReplicaManager@@I@Z ; DataStructures::OrderedList<Replica *,ReplicaManager::CommandStruct,&ReplicaManager::CommandStructComp>::operator[]
	add	eax, 4
	mov	DWORD PTR tv621[ebp], eax
	mov	ecx, DWORD PTR tv621[ebp]
	movzx	edx, BYTE PTR [ecx]
	and	edx, 239				; 000000efH
	mov	eax, DWORD PTR tv621[ebp]
	mov	BYTE PTR [eax], dl

; 724  : 							}
; 725  : 							else

	jmp	SHORT $LN20@Update
$LN13@Update:

; 726  : 							{
; 727  : 								// if the user returns REPLICA_PROCESS_LATER, just continue with another CommandStruct.
; 728  : 								assert(res==REPLICA_PROCESS_LATER);

	cmp	DWORD PTR _res$[ebp], 0
	je	SHORT $LN20@Update
	mov	eax, DWORD PTR ?__LINE__Var@?1??Update@ReplicaManager@@MAEXPAVRakPeerInterface@@@Z@4JA
	add	eax, 279				; 00000117H
	push	eax
	push	OFFSET ??_C@_1FG@CAHGPPEA@?$AAz?$AA?3?$AA?2?$AAs?$AAa?$AAm?$AAp?$AAs?$AAr?$AAc?$AA?2?$AA0?$AA2?$AAx?$AAu?$AA1?$AA?2?$AAr?$AAa?$AAk?$AAn?$AAe?$AAt?$AA?2?$AAr?$AAe?$AAp?$AAl?$AAi?$AAc?$AAa?$AAm@
	push	OFFSET ??_C@_1DG@DECCOGIG@?$AAr?$AAe?$AAs?$AA?$DN?$AA?$DN?$AAR?$AAE?$AAP?$AAL?$AAI?$AAC?$AAA?$AA_?$AAP?$AAR?$AAO?$AAC?$AAE?$AAS?$AAS?$AA_?$AAL?$AAA?$AAT?$AAE?$AAR?$AA?$AA@
	call	__wassert
	add	esp, 12					; 0000000cH
$LN20@Update:

; 729  : 							}
; 730  : 						} while(res==REPLICA_PROCESS_AGAIN);

	cmp	DWORD PTR _res$[ebp], 3
	je	$LN21@Update

; 731  : 					}
; 732  : 					else

	jmp	SHORT $LN35@Update
$LN22@Update:

; 733  : 					{
; 734  : 						// Cancel this serialize
; 735  : 						participantStruct->commandList[commandListIndex].command &= 0xFF ^ REPLICA_SERIALIZE;

	mov	eax, DWORD PTR _commandListIndex$[ebp]
	push	eax
	mov	ecx, DWORD PTR _participantStruct$[ebp]
	add	ecx, 7
	call	??A?$OrderedList@PAVReplica@@UCommandStruct@ReplicaManager@@$1?CommandStructComp@3@SAHABQAV1@ABU23@@Z@DataStructures@@QBEAAUCommandStruct@ReplicaManager@@I@Z ; DataStructures::OrderedList<Replica *,ReplicaManager::CommandStruct,&ReplicaManager::CommandStructComp>::operator[]
	add	eax, 4
	mov	DWORD PTR tv637[ebp], eax
	mov	ecx, DWORD PTR tv637[ebp]
	movzx	edx, BYTE PTR [ecx]
	and	edx, 239				; 000000efH
	mov	eax, DWORD PTR tv637[ebp]
	mov	BYTE PTR [eax], dl
$LN35@Update:

; 736  : 					}
; 737  : 				}
; 738  : 			}
; 739  : 		}

	jmp	$LN62@Update
$LN61@Update:

; 740  : 
; 741  : 		// Go through the command list and delete all cleared commands, from back to front.  It is more efficient to do this than to delete them as we process
; 742  : 		commandListIndex=participantStruct->commandList.Size();

	mov	ecx, DWORD PTR _participantStruct$[ebp]
	add	ecx, 7
	call	?Size@?$OrderedList@PAVReplica@@UCommandStruct@ReplicaManager@@$1?CommandStructComp@3@SAHABQAV1@ABU23@@Z@DataStructures@@QBEIXZ ; DataStructures::OrderedList<Replica *,ReplicaManager::CommandStruct,&ReplicaManager::CommandStructComp>::Size
	mov	DWORD PTR _commandListIndex$[ebp], eax

; 743  : 		if (commandListIndex>0)

	cmp	DWORD PTR _commandListIndex$[ebp], 0
	jbe	SHORT $LN5@Update
$LN9@Update:

; 744  : 		{
; 745  : #ifdef _MSC_VER
; 746  : #pragma warning( disable : 4127 ) // warning C4127: conditional expression is constant
; 747  : #endif
; 748  : 			while (1)

	mov	eax, 1
	test	eax, eax
	je	SHORT $LN5@Update

; 749  : 			{
; 750  : 				if (participantStruct->commandList[commandListIndex-1].command==0)

	mov	eax, DWORD PTR _commandListIndex$[ebp]
	sub	eax, 1
	push	eax
	mov	ecx, DWORD PTR _participantStruct$[ebp]
	add	ecx, 7
	call	??A?$OrderedList@PAVReplica@@UCommandStruct@ReplicaManager@@$1?CommandStructComp@3@SAHABQAV1@ABU23@@Z@DataStructures@@QBEAAUCommandStruct@ReplicaManager@@I@Z ; DataStructures::OrderedList<Replica *,ReplicaManager::CommandStruct,&ReplicaManager::CommandStructComp>::operator[]
	movzx	ecx, BYTE PTR [eax+4]
	test	ecx, ecx
	jne	SHORT $LN7@Update

; 751  : 				{
; 752  : 					// If this is the last item in the list, and it probably is, then it just changes a number rather than shifts the entire array
; 753  : 					participantStruct->commandList.RemoveAtIndex(commandListIndex-1);

	mov	eax, DWORD PTR _commandListIndex$[ebp]
	sub	eax, 1
	push	eax
	mov	ecx, DWORD PTR _participantStruct$[ebp]
	add	ecx, 7
	call	?RemoveAtIndex@?$OrderedList@PAVReplica@@UCommandStruct@ReplicaManager@@$1?CommandStructComp@3@SAHABQAV1@ABU23@@Z@DataStructures@@QAEXI@Z ; DataStructures::OrderedList<Replica *,ReplicaManager::CommandStruct,&ReplicaManager::CommandStructComp>::RemoveAtIndex
$LN7@Update:

; 754  : 				}
; 755  : 
; 756  : 				if (--commandListIndex==0)

	mov	eax, DWORD PTR _commandListIndex$[ebp]
	sub	eax, 1
	mov	DWORD PTR _commandListIndex$[ebp], eax
	jne	SHORT $LN6@Update

; 757  : 					break;

	jmp	SHORT $LN5@Update
$LN6@Update:

; 758  : 			}

	jmp	SHORT $LN9@Update
$LN5@Update:

; 759  : 		}
; 760  : 		
; 761  : 		// Now process queued receives
; 762  : 		while (participantStruct->pendingCommands.Size())

	mov	ecx, DWORD PTR _participantStruct$[ebp]
	add	ecx, 31					; 0000001fH
	call	?Size@?$Queue@PAUReceivedCommand@ReplicaManager@@@DataStructures@@QBEIXZ ; DataStructures::Queue<ReplicaManager::ReceivedCommand *>::Size
	test	eax, eax
	je	$LN4@Update

; 763  : 		{
; 764  : 			receivedCommand=participantStruct->pendingCommands.Pop();

	mov	ecx, DWORD PTR _participantStruct$[ebp]
	add	ecx, 31					; 0000001fH
	call	?Pop@?$Queue@PAUReceivedCommand@ReplicaManager@@@DataStructures@@QAEPAUReceivedCommand@ReplicaManager@@XZ ; DataStructures::Queue<ReplicaManager::ReceivedCommand *>::Pop
	mov	DWORD PTR _receivedCommand$[ebp], eax

; 765  : 			participantStruct=GetParticipantByPlayerID(receivedCommand->playerId);

	mov	eax, DWORD PTR _receivedCommand$[ebp]
	sub	esp, 8
	mov	ecx, esp
	mov	edx, DWORD PTR [eax]
	mov	DWORD PTR [ecx], edx
	mov	ax, WORD PTR [eax+4]
	mov	WORD PTR [ecx+4], ax
	mov	ecx, DWORD PTR _this$[ebp]
	call	?GetParticipantByPlayerID@ReplicaManager@@IBEPAUParticipantStruct@1@UPlayerID@@@Z ; ReplicaManager::GetParticipantByPlayerID
	mov	DWORD PTR _participantStruct$[ebp], eax

; 766  : 			if (participantStruct)

	cmp	DWORD PTR _participantStruct$[ebp], 0
	je	SHORT $LN3@Update

; 767  : 			{
; 768  : 				res=ProcessReceivedCommand(participantStruct, receivedCommand);

	mov	eax, DWORD PTR _receivedCommand$[ebp]
	push	eax
	mov	ecx, DWORD PTR _participantStruct$[ebp]
	push	ecx
	mov	ecx, DWORD PTR _this$[ebp]
	call	?ProcessReceivedCommand@ReplicaManager@@IAE?AW4ReplicaReturnResult@@PAUParticipantStruct@1@PAUReceivedCommand@1@@Z ; ReplicaManager::ProcessReceivedCommand
	mov	DWORD PTR _res$[ebp], eax

; 769  : 				// Returning false means process this command again later
; 770  : 				if (res==REPLICA_PROCESS_LATER)

	cmp	DWORD PTR _res$[ebp], 0
	jne	SHORT $LN2@Update

; 771  : 				{
; 772  : 					// Push the command back in the queue
; 773  : 					participantStruct->pendingCommands.PushAtHead(receivedCommand);

	push	0
	lea	eax, DWORD PTR _receivedCommand$[ebp]
	push	eax
	mov	ecx, DWORD PTR _participantStruct$[ebp]
	add	ecx, 31					; 0000001fH
	call	?PushAtHead@?$Queue@PAUReceivedCommand@ReplicaManager@@@DataStructures@@QAEXABQAUReceivedCommand@ReplicaManager@@I@Z ; DataStructures::Queue<ReplicaManager::ReceivedCommand *>::PushAtHead

; 774  : 
; 775  : 					// Stop processing, because all processing is in order
; 776  : 					break;

	jmp	$LN4@Update

; 777  : 				}
; 778  : 				else

	jmp	SHORT $LN3@Update
$LN2@Update:

; 779  : 				{
; 780  : 					assert(res==REPLICA_CANCEL_PROCESS);

	cmp	DWORD PTR _res$[ebp], 2
	je	SHORT $LN3@Update
	mov	eax, DWORD PTR ?__LINE__Var@?1??Update@ReplicaManager@@MAEXPAVRakPeerInterface@@@Z@4JA
	add	eax, 331				; 0000014bH
	push	eax
	push	OFFSET ??_C@_1FG@CAHGPPEA@?$AAz?$AA?3?$AA?2?$AAs?$AAa?$AAm?$AAp?$AAs?$AAr?$AAc?$AA?2?$AA0?$AA2?$AAx?$AAu?$AA1?$AA?2?$AAr?$AAa?$AAk?$AAn?$AAe?$AAt?$AA?2?$AAr?$AAe?$AAp?$AAl?$AAi?$AAc?$AAa?$AAm@
	push	OFFSET ??_C@_1DI@HDKFLDGG@?$AAr?$AAe?$AAs?$AA?$DN?$AA?$DN?$AAR?$AAE?$AAP?$AAL?$AAI?$AAC?$AAA?$AA_?$AAC?$AAA?$AAN?$AAC?$AAE?$AAL?$AA_?$AAP?$AAR?$AAO?$AAC?$AAE?$AAS?$AAS?$AA?$AA@
	call	__wassert
	add	esp, 12					; 0000000cH
$LN3@Update:

; 781  : 				}
; 782  : 			}
; 783  : 			
; 784  : 			// Done with this command, so delete it
; 785  : 			delete receivedCommand->userData;

	mov	eax, DWORD PTR _receivedCommand$[ebp]
	mov	ecx, DWORD PTR [eax+22]
	mov	DWORD PTR $T9[ebp], ecx
	mov	edx, DWORD PTR $T9[ebp]
	mov	DWORD PTR $T8[ebp], edx
	cmp	DWORD PTR $T8[ebp], 0
	je	SHORT $LN79@Update
	push	1
	mov	ecx, DWORD PTR $T8[ebp]
	call	??_GBitStream@RakNet@@QAEPAXI@Z
	mov	DWORD PTR tv692[ebp], eax
	jmp	SHORT $LN80@Update
$LN79@Update:
	mov	DWORD PTR tv692[ebp], 0
$LN80@Update:

; 786  : 			delete receivedCommand;

	mov	eax, DWORD PTR _receivedCommand$[ebp]
	mov	DWORD PTR $T10[ebp], eax
	mov	ecx, DWORD PTR $T10[ebp]
	push	ecx
	call	??3@YAXPAX@Z				; operator delete
	add	esp, 4

; 787  : 		}

	jmp	$LN5@Update
$LN4@Update:

; 788  : 	}

	jmp	$LN65@Update
$LN64@Update:

; 789  : }

	mov	BYTE PTR __$EHRec$[ebp+8], 0
	lea	ecx, DWORD PTR _userDataBitstream$[ebp]
	call	??1BitStream@RakNet@@QAE@XZ		; RakNet::BitStream::~BitStream
	mov	DWORD PTR __$EHRec$[ebp+8], -1
	lea	ecx, DWORD PTR _outBitstream$[ebp]
	call	??1BitStream@RakNet@@QAE@XZ		; RakNet::BitStream::~BitStream
$LN68@Update:
	push	edx
	mov	ecx, ebp
	push	eax
	lea	edx, DWORD PTR $LN95@Update
	call	@_RTC_CheckStackVars@8
	pop	eax
	pop	edx
	mov	ecx, DWORD PTR __$EHRec$[ebp]
	mov	DWORD PTR fs:0, ecx
	pop	ecx
	pop	edi
	pop	esi
	pop	ebx
	mov	ecx, DWORD PTR __$ArrayPad$[ebp]
	xor	ecx, ebp
	call	@__security_check_cookie@4
	add	esp, 1180				; 0000049cH
	cmp	ebp, esp
	call	__RTC_CheckEsp
	mov	esp, ebp
	pop	ebp
	ret	4
$LN95@Update:
	DD	10					; 0000000aH
	DD	$LN94@Update
$LN94@Update:
	DD	-81					; ffffffafH
	DD	1
	DD	$LN83@Update
	DD	-392					; fffffe78H
	DD	273					; 00000111H
	DD	$LN84@Update
	DD	-676					; fffffd5cH
	DD	273					; 00000111H
	DD	$LN85@Update
	DD	-697					; fffffd47H
	DD	1
	DD	$LN86@Update
	DD	-712					; fffffd38H
	DD	4
	DD	$LN87@Update
	DD	-724					; fffffd2cH
	DD	4
	DD	$LN88@Update
	DD	-736					; fffffd20H
	DD	4
	DD	$LN89@Update
	DD	-748					; fffffd14H
	DD	4
	DD	$LN90@Update
	DD	-780					; fffffcf4H
	DD	9
	DD	$LN91@Update
	DD	-800					; fffffce0H
	DD	9
	DD	$LN92@Update
$LN92@Update:
	DB	114					; 00000072H
	DB	101					; 00000065H
	DB	109					; 0000006dH
	DB	111					; 0000006fH
	DB	116					; 00000074H
	DB	101					; 00000065H
	DB	79					; 0000004fH
	DB	98					; 00000062H
	DB	106					; 0000006aH
	DB	101					; 00000065H
	DB	99					; 00000063H
	DB	116					; 00000074H
	DB	0
$LN91@Update:
	DB	114					; 00000072H
	DB	101					; 00000065H
	DB	109					; 0000006dH
	DB	111					; 0000006fH
	DB	116					; 00000074H
	DB	101					; 00000065H
	DB	79					; 0000004fH
	DB	98					; 00000062H
	DB	106					; 0000006aH
	DB	101					; 00000065H
	DB	99					; 00000063H
	DB	116					; 00000074H
	DB	0
$LN90@Update:
	DB	114					; 00000072H
	DB	101					; 00000065H
	DB	112					; 00000070H
	DB	108					; 0000006cH
	DB	105					; 00000069H
	DB	99					; 00000063H
	DB	97					; 00000061H
	DB	0
$LN89@Update:
	DB	114					; 00000072H
	DB	101					; 00000065H
	DB	99					; 00000063H
	DB	101					; 00000065H
	DB	105					; 00000069H
	DB	118					; 00000076H
