; Listing generated by Microsoft (R) Optimizing Compiler Version 18.00.31101.0 

	TITLE	Z:\sampsrc\02Xu1\saco\net\scriptrpc.cpp
	.686P
	.XMM
	include listing.inc
	.model	flat

INCLUDELIB LIBCMTD
INCLUDELIB OLDNAMES

CONST	SEGMENT
_set_car_z_angle DW 0175H
	DB	'if', 00H
	ORG $+13
	ORG $+2
_attach_object_to_actor DW 069bH
	DB	'iiffffff', 00H
	ORG $+7
	ORG $+2
_remove_component DW 06e8H
	DB	'ii', 00H
	ORG $+13
	ORG $+2
_create_explosion_with_radius DW 0948H
	DB	'fffii', 00H
	ORG $+10
CONST	ENDS
PUBLIC	?GetCamera@CGame@@QAEPAVCCamera@@XZ		; CGame::GetCamera
PUBLIC	?FindPlayerPed@CGame@@QAEPAVCPlayerPed@@XZ	; CGame::FindPlayerPed
PUBLIC	??$Read@_N@BitStream@RakNet@@QAE_NAA_N@Z	; RakNet::BitStream::Read<bool>
PUBLIC	??$Read@I@BitStream@RakNet@@QAE_NAAI@Z		; RakNet::BitStream::Read<unsigned int>
PUBLIC	??$Read@G@BitStream@RakNet@@QAE_NAAG@Z		; RakNet::BitStream::Read<unsigned short>
PUBLIC	??$Read@K@BitStream@RakNet@@QAE_NAAK@Z		; RakNet::BitStream::Read<unsigned long>
PUBLIC	?GetPlayerPed@CLocalPlayer@@QAEPAVCPlayerPed@@XZ ; CLocalPlayer::GetPlayerPed
PUBLIC	?SetVirtualWorld@CLocalPlayer@@QAEXE@Z		; CLocalPlayer::SetVirtualWorld
PUBLIC	?ReturnToClassSelection@CLocalPlayer@@QAEXXZ	; CLocalPlayer::ReturnToClassSelection
PUBLIC	?SetTeam@CLocalPlayer@@QAEXE@Z			; CLocalPlayer::SetTeam
PUBLIC	?GetPlayerPed@CRemotePlayer@@QAEPAVCPlayerPed@@XZ ; CRemotePlayer::GetPlayerPed
PUBLIC	?SetVirtualWorld@CRemotePlayer@@QAEXE@Z		; CRemotePlayer::SetVirtualWorld
PUBLIC	?SetTeam@CRemotePlayer@@QAEXE@Z			; CRemotePlayer::SetTeam
PUBLIC	?ShowNameTag@CRemotePlayer@@QAEXE@Z		; CRemotePlayer::ShowNameTag
PUBLIC	?SetState@CRemotePlayer@@QAEXE@Z		; CRemotePlayer::SetState
PUBLIC	?SetLocalPlayerName@CPlayerPool@@QAEXPAD@Z	; CPlayerPool::SetLocalPlayerName
PUBLIC	?GetLocalPlayerName@CPlayerPool@@QAEPADXZ	; CPlayerPool::GetLocalPlayerName
PUBLIC	?GetPlayerName@CPlayerPool@@QAEPADE@Z		; CPlayerPool::GetPlayerName
PUBLIC	?SetPlayerName@CPlayerPool@@QAEXEPAD@Z		; CPlayerPool::SetPlayerName
PUBLIC	?GetLocalPlayer@CPlayerPool@@QAEPAVCLocalPlayer@@XZ ; CPlayerPool::GetLocalPlayer
PUBLIC	?GetAt@CPlayerPool@@QAEPAVCRemotePlayer@@E@Z	; CPlayerPool::GetAt
PUBLIC	?GetSlotState@CPlayerPool@@QAEHE@Z		; CPlayerPool::GetSlotState
PUBLIC	?GetLocalPlayerID@CPlayerPool@@QAEEXZ		; CPlayerPool::GetLocalPlayerID
PUBLIC	?GetAt@CVehiclePool@@QAEPAVCVehicle@@G@Z	; CVehiclePool::GetAt
PUBLIC	?GetSlotState@CVehiclePool@@QAEHG@Z		; CVehiclePool::GetSlotState
PUBLIC	?SetVehicleVirtualWorld@CVehiclePool@@QAEXGE@Z	; CVehiclePool::SetVehicleVirtualWorld
PUBLIC	?GetAt@CObjectPool@@QAEPAVCObject@@E@Z		; CObjectPool::GetAt
PUBLIC	?GetSlotState@CMenuPool@@QAEHE@Z		; CMenuPool::GetSlotState
PUBLIC	?GetAt@CTextDrawPool@@QAEPAVCTextDraw@@G@Z	; CTextDrawPool::GetAt
PUBLIC	?GetPlayerPool@CNetGame@@QAEPAVCPlayerPool@@XZ	; CNetGame::GetPlayerPool
PUBLIC	?GetVehiclePool@CNetGame@@QAEPAVCVehiclePool@@XZ ; CNetGame::GetVehiclePool
PUBLIC	?GetObjectPool@CNetGame@@QAEPAVCObjectPool@@XZ	; CNetGame::GetObjectPool
PUBLIC	?GetMenuPool@CNetGame@@QAEPAVCMenuPool@@XZ	; CNetGame::GetMenuPool
PUBLIC	?GetTextDrawPool@CNetGame@@QAEPAVCTextDrawPool@@XZ ; CNetGame::GetTextDrawPool
PUBLIC	?GetGangZonePool@CNetGame@@QAEPAVCGangZonePool@@XZ ; CNetGame::GetGangZonePool
PUBLIC	?RegisterScriptRPCs@@YAXPAVRakClientInterface@@@Z ; RegisterScriptRPCs
PUBLIC	?UnRegisterScriptRPCs@@YAXPAVRakClientInterface@@@Z ; UnRegisterScriptRPCs
PUBLIC	?ScrSetSpawnInfo@@YAXPAURPCParameters@@@Z	; ScrSetSpawnInfo
PUBLIC	?ScrSetPlayerTeam@@YAXPAURPCParameters@@@Z	; ScrSetPlayerTeam
PUBLIC	??$Read@E@BitStream@RakNet@@QAE_NAAE@Z		; RakNet::BitStream::Read<unsigned char>
PUBLIC	?ScrSetPlayerName@@YAXPAURPCParameters@@@Z	; ScrSetPlayerName
PUBLIC	?ScrSetPlayerSkin@@YAXPAURPCParameters@@@Z	; ScrSetPlayerSkin
PUBLIC	??$Read@H@BitStream@RakNet@@QAE_NAAH@Z		; RakNet::BitStream::Read<int>
PUBLIC	?ScrSetPlayerPos@@YAXPAURPCParameters@@@Z	; ScrSetPlayerPos
PUBLIC	??$Read@M@BitStream@RakNet@@QAE_NAAM@Z		; RakNet::BitStream::Read<float>
PUBLIC	?ScrSetPlayerPosFindZ@@YAXPAURPCParameters@@@Z	; ScrSetPlayerPosFindZ
PUBLIC	?ScrSetPlayerHealth@@YAXPAURPCParameters@@@Z	; ScrSetPlayerHealth
PUBLIC	?ScrPutPlayerInVehicle@@YAXPAURPCParameters@@@Z	; ScrPutPlayerInVehicle
PUBLIC	?ScrRemovePlayerFromVehicle@@YAXPAURPCParameters@@@Z ; ScrRemovePlayerFromVehicle
PUBLIC	?ScrSetPlayerColor@@YAXPAURPCParameters@@@Z	; ScrSetPlayerColor
PUBLIC	?ScrDisplayGameText@@YAXPAURPCParameters@@@Z	; ScrDisplayGameText
PUBLIC	?ScrSetInterior@@YAXPAURPCParameters@@@Z	; ScrSetInterior
PUBLIC	?ScrSetCameraPos@@YAXPAURPCParameters@@@Z	; ScrSetCameraPos
PUBLIC	?ScrSetCameraLookAt@@YAXPAURPCParameters@@@Z	; ScrSetCameraLookAt
PUBLIC	?ScrSetVehiclePos@@YAXPAURPCParameters@@@Z	; ScrSetVehiclePos
PUBLIC	?ScrSetVehicleZAngle@@YAXPAURPCParameters@@@Z	; ScrSetVehicleZAngle
PUBLIC	?ScrVehicleParams@@YAXPAURPCParameters@@@Z	; ScrVehicleParams
PUBLIC	?ScrLinkVehicle@@YAXPAURPCParameters@@@Z	; ScrLinkVehicle
PUBLIC	?ScrSetCameraBehindPlayer@@YAXPAURPCParameters@@@Z ; ScrSetCameraBehindPlayer
PUBLIC	?ScrTogglePlayerControllable@@YAXPAURPCParameters@@@Z ; ScrTogglePlayerControllable
PUBLIC	?ScrPlaySound@@YAXPAURPCParameters@@@Z		; ScrPlaySound
PUBLIC	?ScrSetWorldBounds@@YAXPAURPCParameters@@@Z	; ScrSetWorldBounds
PUBLIC	?ScrHaveSomeMoney@@YAXPAURPCParameters@@@Z	; ScrHaveSomeMoney
PUBLIC	?ScrSetPlayerFacingAngle@@YAXPAURPCParameters@@@Z ; ScrSetPlayerFacingAngle
PUBLIC	?ScrResetMoney@@YAXPAURPCParameters@@@Z		; ScrResetMoney
PUBLIC	?ScrResetPlayerWeapons@@YAXPAURPCParameters@@@Z	; ScrResetPlayerWeapons
PUBLIC	?ScrGivePlayerWeapon@@YAXPAURPCParameters@@@Z	; ScrGivePlayerWeapon
PUBLIC	?ScrRespawnVehicle@@YAXPAURPCParameters@@@Z	; ScrRespawnVehicle
PUBLIC	?ScrDeathMessage@@YAXPAURPCParameters@@@Z	; ScrDeathMessage
PUBLIC	?ScrSetMapIcon@@YAXPAURPCParameters@@@Z		; ScrSetMapIcon
PUBLIC	?ScrDisableMapIcon@@YAXPAURPCParameters@@@Z	; ScrDisableMapIcon
PUBLIC	?ScrSetPlayerArmour@@YAXPAURPCParameters@@@Z	; ScrSetPlayerArmour
PUBLIC	?ScrSetWeaponAmmo@@YAXPAURPCParameters@@@Z	; ScrSetWeaponAmmo
PUBLIC	?ScrSetGravity@@YAXPAURPCParameters@@@Z		; ScrSetGravity
PUBLIC	?ScrSetVehicleHealth@@YAXPAURPCParameters@@@Z	; ScrSetVehicleHealth
PUBLIC	?ScrAttachTrailerToVehicle@@YAXPAURPCParameters@@@Z ; ScrAttachTrailerToVehicle
PUBLIC	?ScrDetachTrailerFromVehicle@@YAXPAURPCParameters@@@Z ; ScrDetachTrailerFromVehicle
PUBLIC	?ScrCreateObject@@YAXPAURPCParameters@@@Z	; ScrCreateObject
PUBLIC	?ScrSetObjectPos@@YAXPAURPCParameters@@@Z	; ScrSetObjectPos
PUBLIC	?ScrSetObjectRotation@@YAXPAURPCParameters@@@Z	; ScrSetObjectRotation
PUBLIC	?ScrDestroyObject@@YAXPAURPCParameters@@@Z	; ScrDestroyObject
PUBLIC	?ScrSetPlayerVirtualWorld@@YAXPAURPCParameters@@@Z ; ScrSetPlayerVirtualWorld
PUBLIC	?ScrSetVehicleVirtualWorld@@YAXPAURPCParameters@@@Z ; ScrSetVehicleVirtualWorld
PUBLIC	?ScrCreateExplosion@@YAXPAURPCParameters@@@Z	; ScrCreateExplosion
PUBLIC	?ScrShowNameTag@@YAXPAURPCParameters@@@Z	; ScrShowNameTag
PUBLIC	?ScrMoveObject@@YAXPAURPCParameters@@@Z		; ScrMoveObject
PUBLIC	?ScrStopObject@@YAXPAURPCParameters@@@Z		; ScrStopObject
PUBLIC	?ScrNumberPlate@@YAXPAURPCParameters@@@Z	; ScrNumberPlate
PUBLIC	?ScrTogglePlayerSpectating@@YAXPAURPCParameters@@@Z ; ScrTogglePlayerSpectating
PUBLIC	?ScrSetPlayerSpectating@@YAXPAURPCParameters@@@Z ; ScrSetPlayerSpectating
PUBLIC	?ScrPlayerSpectatePlayer@@YAXPAURPCParameters@@@Z ; ScrPlayerSpectatePlayer
PUBLIC	?ScrPlayerSpectateVehicle@@YAXPAURPCParameters@@@Z ; ScrPlayerSpectateVehicle
PUBLIC	?ScrRemoveComponent@@YAXPAURPCParameters@@@Z	; ScrRemoveComponent
PUBLIC	?ScrForceSpawnSelection@@YAXPAURPCParameters@@@Z ; ScrForceSpawnSelection
PUBLIC	?ScrAttachObjectToPlayer@@YAXPAURPCParameters@@@Z ; ScrAttachObjectToPlayer
PUBLIC	?ScrInitMenu@@YAXPAURPCParameters@@@Z		; ScrInitMenu
PUBLIC	?ScrShowMenu@@YAXPAURPCParameters@@@Z		; ScrShowMenu
PUBLIC	?ScrHideMenu@@YAXPAURPCParameters@@@Z		; ScrHideMenu
PUBLIC	?ScrSetPlayerWantedLevel@@YAXPAURPCParameters@@@Z ; ScrSetPlayerWantedLevel
PUBLIC	?ScrShowTextDraw@@YAXPAURPCParameters@@@Z	; ScrShowTextDraw
PUBLIC	?ScrHideTextDraw@@YAXPAURPCParameters@@@Z	; ScrHideTextDraw
PUBLIC	?ScrEditTextDraw@@YAXPAURPCParameters@@@Z	; ScrEditTextDraw
PUBLIC	?ScrAddGangZone@@YAXPAURPCParameters@@@Z	; ScrAddGangZone
PUBLIC	?ScrRemoveGangZone@@YAXPAURPCParameters@@@Z	; ScrRemoveGangZone
PUBLIC	?ScrFlashGangZone@@YAXPAURPCParameters@@@Z	; ScrFlashGangZone
PUBLIC	?ScrStopFlashGangZone@@YAXPAURPCParameters@@@Z	; ScrStopFlashGangZone
PUBLIC	?ScrApplyAnimation@@YAXPAURPCParameters@@@Z	; ScrApplyAnimation
PUBLIC	?ScrClearAnimations@@YAXPAURPCParameters@@@Z	; ScrClearAnimations
PUBLIC	?ScrSetSpecialAction@@YAXPAURPCParameters@@@Z	; ScrSetSpecialAction
PUBLIC	?ScrEnableStuntBonus@@YAXPAURPCParameters@@@Z	; ScrEnableStuntBonus
PUBLIC	??_C@_02GBFBMEMD@bg?$AA@			; `string'
PUBLIC	??_C@_02OGMJNIAM@bh?$AA@			; `string'
PUBLIC	??_C@_02PPNCOJEN@bi?$AA@			; `string'
PUBLIC	??_C@_02NEPPLKIO@bj?$AA@			; `string'
PUBLIC	??_C@_02MNOEILMP@bk?$AA@			; `string'
PUBLIC	??_C@_02ICKFBNAI@bl?$AA@			; `string'
PUBLIC	??_C@_02JLLOCMEJ@bm?$AA@			; `string'
PUBLIC	??_C@_02LAJDHPIK@bn?$AA@			; `string'
PUBLIC	??_C@_02KJIIEOML@bo?$AA@			; `string'
PUBLIC	??_C@_02GENCEAFF@bp?$AA@			; `string'
PUBLIC	??_C@_02HNMJHBBE@bq?$AA@			; `string'
PUBLIC	??_C@_02FGOECCNH@br?$AA@			; `string'
PUBLIC	??_C@_02EPPPBDJG@bs?$AA@			; `string'
PUBLIC	??_C@_02LOIFFB@bt?$AA@				; `string'
PUBLIC	??_C@_02BJKFLEBA@bu?$AA@			; `string'
PUBLIC	??_C@_02DCIIOHND@bv?$AA@			; `string'
PUBLIC	??_C@_02CLJDNGJC@bw?$AA@			; `string'
PUBLIC	??_C@_02KMALMKFN@bx?$AA@			; `string'
PUBLIC	??_C@_02LFBAPLBM@by?$AA@			; `string'
PUBLIC	??_C@_02JODNKINP@bz?$AA@			; `string'
PUBLIC	??_C@_02DGMJAJHC@ca?$AA@			; `string'
PUBLIC	??_C@_02BNOEFKLB@cb?$AA@			; `string'
PUBLIC	??_C@_02EPPGLPA@cc?$AA@				; `string'
PUBLIC	??_C@_02ELLOPNDH@cd?$AA@			; `string'
PUBLIC	??_C@_02FCKFMMHG@ce?$AA@			; `string'
PUBLIC	??_C@_02HJIIJPLF@cf?$AA@			; `string'
PUBLIC	??_C@_02GAJDKOPE@cg?$AA@			; `string'
PUBLIC	??_C@_02OHALLCDL@ch?$AA@			; `string'
PUBLIC	??_C@_02POBAIDHK@ci?$AA@			; `string'
PUBLIC	??_C@_02NFDNNALJ@cj?$AA@			; `string'
PUBLIC	??_C@_02MMCGOBPI@ck?$AA@			; `string'
PUBLIC	??_C@_02IDGHHHDP@cl?$AA@			; `string'
PUBLIC	??_C@_02JKHMEGHO@cm?$AA@			; `string'
PUBLIC	??_C@_02LBFBBFLN@cn?$AA@			; `string'
PUBLIC	??_C@_02KIEKCEPM@co?$AA@			; `string'
PUBLIC	??_C@_02GFBACKGC@cp?$AA@			; `string'
PUBLIC	??_C@_02HMALBLCD@cq?$AA@			; `string'
PUBLIC	??_C@_02FHCGEIOA@cr?$AA@			; `string'
PUBLIC	??_C@_02EODNHJKB@cs?$AA@			; `string'
PUBLIC	??_C@_02BHMOPGG@ct?$AA@				; `string'
PUBLIC	??_C@_02BIGHNOCH@cu?$AA@			; `string'
PUBLIC	??_C@_02DDEKINOE@cv?$AA@			; `string'
PUBLIC	??_C@_02CKFBLMKF@cw?$AA@			; `string'
PUBLIC	??_C@_02KNMJKAGK@cx?$AA@			; `string'
PUBLIC	??_C@_02LENCJBCL@cy?$AA@			; `string'
PUBLIC	??_C@_02JPPPMCOI@cz?$AA@			; `string'
PUBLIC	??_C@_02DDIGBPPH@da?$AA@			; `string'
PUBLIC	??_C@_02BIKLEMDE@db?$AA@			; `string'
PUBLIC	??_C@_02BLAHNHF@dc?$AA@				; `string'
PUBLIC	??_C@_02EOPBOLLC@dd?$AA@			; `string'
PUBLIC	??_C@_02FHOKNKPD@de?$AA@			; `string'
PUBLIC	??_C@_02HMMHIJDA@df?$AA@			; `string'
PUBLIC	??_C@_02GFNMLIHB@dg?$AA@			; `string'
PUBLIC	??_C@_02OCEEKELO@dh?$AA@			; `string'
PUBLIC	??_C@_02EDDPJOD@dt?$AA@				; `string'
PUBLIC	??_C@_02BNCIMIKC@du?$AA@			; `string'
PUBLIC	??_C@_02DGAFJLGB@dv?$AA@			; `string'
PUBLIC	??_C@_02CPBOKKCA@dw?$AA@			; `string'
PUBLIC	??_C@_02JKLANEGN@dz?$AA@			; `string'
PUBLIC	??_C@_02DCEEHFMA@ea?$AA@			; `string'
PUBLIC	??_C@_02BJGJCGAD@eb?$AA@			; `string'
PUBLIC	??_C@_02FGCILAME@ee?$AA@			; `string'
PUBLIC	??_C@_02HNAFODAH@ef?$AA@			; `string'
PUBLIC	??_C@_02GEBONCEG@eg?$AA@			; `string'
PUBLIC	??_C@_02ODIGMOIJ@eh?$AA@			; `string'
PUBLIC	??_C@_02PKJNPPMI@ei?$AA@			; `string'
PUBLIC	??_C@_02KMMHFIEO@eo?$AA@			; `string'
PUBLIC	??_C@_02HIIGGHJB@eq?$AA@			; `string'
PUBLIC	??_C@_02GBJNFGNA@ep?$AA@			; `string'
PUBLIC	??_C@_02HCBHEC@ec?$AA@				; `string'
PUBLIC	__real@00000000
PUBLIC	__real@3f800000
PUBLIC	__real@3fc00000
EXTRN	??2@YAPAXI@Z:PROC				; operator new
EXTRN	??3@YAXPAX@Z:PROC				; operator delete
EXTRN	___report_rangecheckfailure:PROC
EXTRN	_memset:PROC
EXTRN	_strcpy:PROC
EXTRN	?GetMatrix@CEntity@@QAEXPAU_MATRIX4X4@@@Z:PROC	; CEntity::GetMatrix
EXTRN	?TeleportTo@CEntity@@QAEXMMM@Z:PROC		; CEntity::TeleportTo
EXTRN	?SetHealth@CVehicle@@QAEXM@Z:PROC		; CVehicle::SetHealth
EXTRN	?AttachTrailer@CVehicle@@QAEXXZ:PROC		; CVehicle::AttachTrailer
EXTRN	?DetachTrailer@CVehicle@@QAEXXZ:PROC		; CVehicle::DetachTrailer
EXTRN	?SetTrailer@CVehicle@@QAEXPAV1@@Z:PROC		; CVehicle::SetTrailer
EXTRN	?SetHealth@CPlayerPed@@QAEXM@Z:PROC		; CPlayerPed::SetHealth
EXTRN	?SetArmour@CPlayerPed@@QAEXM@Z:PROC		; CPlayerPed::SetArmour
EXTRN	?SetAmmo@CPlayerPed@@QAEXEG@Z:PROC		; CPlayerPed::SetAmmo
EXTRN	?ForceTargetRotation@CPlayerPed@@QAEXM@Z:PROC	; CPlayerPed::ForceTargetRotation
EXTRN	?GiveWeapon@CPlayerPed@@QAEXHH@Z:PROC		; CPlayerPed::GiveWeapon
EXTRN	?ClearAllWeapons@CPlayerPed@@QAEXXZ:PROC	; CPlayerPed::ClearAllWeapons
EXTRN	?PutDirectlyInVehicle@CPlayerPed@@QAEXHH@Z:PROC	; CPlayerPed::PutDirectlyInVehicle
EXTRN	?ExitCurrentVehicle@CPlayerPed@@QAEXXZ:PROC	; CPlayerPed::ExitCurrentVehicle
EXTRN	?RemoveFromVehicleAndPutAt@CPlayerPed@@QAEXMMM@Z:PROC ; CPlayerPed::RemoveFromVehicleAndPutAt
EXTRN	?TogglePlayerControllable@CPlayerPed@@QAEXH@Z:PROC ; CPlayerPed::TogglePlayerControllable
EXTRN	?SetModelIndex@CPlayerPed@@QAEXI@Z:PROC		; CPlayerPed::SetModelIndex
EXTRN	?ApplyAnimation@CPlayerPed@@QAEXPAD0MHHHHH@Z:PROC ; CPlayerPed::ApplyAnimation
EXTRN	?SetInterior@CPlayerPed@@QAEXE@Z:PROC		; CPlayerPed::SetInterior
EXTRN	??0CPlayerPed@@QAE@XZ:PROC			; CPlayerPed::CPlayerPed
EXTRN	?ScriptCommand@@YAHPBUSCRIPT_COMMAND@@ZZ:PROC	; ScriptCommand
EXTRN	?MoveTo@CObject@@QAEXMMMM@Z:PROC		; CObject::MoveTo
EXTRN	?InstantRotate@CObject@@QAEXMMM@Z:PROC		; CObject::InstantRotate
EXTRN	?SetBehindPlayer@CCamera@@QAEXXZ:PROC		; CCamera::SetBehindPlayer
EXTRN	?SetPosition@CCamera@@QAEXMMMMMM@Z:PROC		; CCamera::SetPosition
EXTRN	?LookAtPoint@CCamera@@QAEXMMMH@Z:PROC		; CCamera::LookAtPoint
EXTRN	?AddMenuItem@CMenu@@QAEXEEPAD@Z:PROC		; CMenu::AddMenuItem
EXTRN	?SetColumnTitle@CMenu@@QAEXEPAD@Z:PROC		; CMenu::SetColumnTitle
EXTRN	?SetText@CTextDraw@@QAEXPAD@Z:PROC		; CTextDraw::SetText
EXTRN	?FindGroundZForCoord@CGame@@QAEMMMM@Z:PROC	; CGame::FindGroundZForCoord
EXTRN	?DisplayGameText@CGame@@QAEXPADHH@Z:PROC	; CGame::DisplayGameText
EXTRN	?PlaySoundA@CGame@@QAEXHMMM@Z:PROC		; CGame::PlaySoundA
EXTRN	?SetGravity@CGame@@QAEXM@Z:PROC			; CGame::SetGravity
EXTRN	?SetWantedLevel@CGame@@QAEXE@Z:PROC		; CGame::SetWantedLevel
EXTRN	?EnableStuntBonus@CGame@@QAEX_N@Z:PROC		; CGame::EnableStuntBonus
EXTRN	?AddToLocalMoney@CGame@@QAEXH@Z:PROC		; CGame::AddToLocalMoney
EXTRN	?ResetLocalMoney@CGame@@QAEXXZ:PROC		; CGame::ResetLocalMoney
EXTRN	??0BitStream@RakNet@@QAE@PADI_N@Z:PROC		; RakNet::BitStream::BitStream
EXTRN	??1BitStream@RakNet@@QAE@XZ:PROC		; RakNet::BitStream::~BitStream
EXTRN	?Read@BitStream@RakNet@@QAE_NPADH@Z:PROC	; RakNet::BitStream::Read
EXTRN	?ReadBits@BitStream@RakNet@@QAE_NPAEH_N@Z:PROC	; RakNet::BitStream::ReadBits
EXTRN	?ApplySpecialAction@CLocalPlayer@@QAEXE@Z:PROC	; CLocalPlayer::ApplySpecialAction
EXTRN	?SetSpawnInfo@CLocalPlayer@@QAEXPAU_PLAYER_SPAWN_INFO@@@Z:PROC ; CLocalPlayer::SetSpawnInfo
EXTRN	?SetPlayerColor@CLocalPlayer@@QAEXK@Z:PROC	; CLocalPlayer::SetPlayerColor
EXTRN	?GetPlayerColorAsARGB@CLocalPlayer@@QAEKXZ:PROC	; CLocalPlayer::GetPlayerColorAsARGB
EXTRN	?ToggleSpectating@CLocalPlayer@@QAEXH@Z:PROC	; CLocalPlayer::ToggleSpectating
EXTRN	?SpectateVehicle@CLocalPlayer@@QAEXG@Z:PROC	; CLocalPlayer::SpectateVehicle
EXTRN	?SpectatePlayer@CLocalPlayer@@QAEXE@Z:PROC	; CLocalPlayer::SpectatePlayer
EXTRN	?SetPlayerColor@CRemotePlayer@@QAEXK@Z:PROC	; CRemotePlayer::SetPlayerColor
EXTRN	?GetPlayerColorAsARGB@CRemotePlayer@@QAEKXZ:PROC ; CRemotePlayer::GetPlayerColorAsARGB
EXTRN	?StateChange@CRemotePlayer@@QAEXEE@Z:PROC	; CRemotePlayer::StateChange
EXTRN	?AssignSpecialParamsToVehicle@CVehiclePool@@QAEXGEE@Z:PROC ; CVehiclePool::AssignSpecialParamsToVehicle
EXTRN	?SetForRespawn@CVehiclePool@@QAEXGH@Z:PROC	; CVehiclePool::SetForRespawn
EXTRN	?LinkToInterior@CVehiclePool@@QAEXGH@Z:PROC	; CVehiclePool::LinkToInterior
EXTRN	?FindGtaIDFromID@CVehiclePool@@QAEHH@Z:PROC	; CVehiclePool::FindGtaIDFromID
EXTRN	?New@CObjectPool@@QAEHEHU_VECTOR@@0@Z:PROC	; CObjectPool::New
EXTRN	?Delete@CObjectPool@@QAEHE@Z:PROC		; CObjectPool::Delete
EXTRN	?New@CGangZonePool@@QAEXGMMMMK@Z:PROC		; CGangZonePool::New
EXTRN	?Flash@CGangZonePool@@QAEXGK@Z:PROC		; CGangZonePool::Flash
EXTRN	?StopFlash@CGangZonePool@@QAEXG@Z:PROC		; CGangZonePool::StopFlash
EXTRN	?Delete@CGangZonePool@@QAEXG@Z:PROC		; CGangZonePool::Delete
EXTRN	?New@CMenuPool@@QAEPAVCMenu@@EPADMMEMMPAUMENU_INT@@@Z:PROC ; CMenuPool::New
EXTRN	?Delete@CMenuPool@@QAEHE@Z:PROC			; CMenuPool::Delete
EXTRN	?ShowMenu@CMenuPool@@QAEXE@Z:PROC		; CMenuPool::ShowMenu
EXTRN	?HideMenu@CMenuPool@@QAEXE@Z:PROC		; CMenuPool::HideMenu
EXTRN	?New@CTextDrawPool@@QAEPAVCTextDraw@@GPAU_TEXT_DRAW_TRANSMIT@@PAD@Z:PROC ; CTextDrawPool::New
EXTRN	?Delete@CTextDrawPool@@QAEXG@Z:PROC		; CTextDrawPool::Delete
EXTRN	?SetMapIcon@CNetGame@@QAEXEMMMEK@Z:PROC		; CNetGame::SetMapIcon
EXTRN	?DisableMapIcon@CNetGame@@QAEXE@Z:PROC		; CNetGame::DisableMapIcon
EXTRN	?AddMessage@CDeathWindow@@QAEXPAD0KKE@Z:PROC	; CDeathWindow::AddMessage
EXTRN	@_RTC_CheckStackVars@8:PROC
EXTRN	@__security_check_cookie@4:PROC
EXTRN	__RTC_CheckEsp:PROC
EXTRN	__RTC_InitBase:PROC
EXTRN	__RTC_Shutdown:PROC
EXTRN	___CxxFrameHandler3:PROC
EXTRN	?pNetGame@@3PAVCNetGame@@A:DWORD		; pNetGame
EXTRN	?pDeathWindow@@3PAVCDeathWindow@@A:DWORD	; pDeathWindow
EXTRN	?pGame@@3PAVCGame@@A:DWORD			; pGame
EXTRN	___security_cookie:DWORD
EXTRN	__fltused:DWORD
;	COMDAT __real@3fc00000
CONST	SEGMENT
__real@3fc00000 DD 03fc00000r			; 1.5
CONST	ENDS
;	COMDAT __real@3f800000
CONST	SEGMENT
__real@3f800000 DD 03f800000r			; 1
CONST	ENDS
;	COMDAT __real@00000000
CONST	SEGMENT
__real@00000000 DD 000000000r			; 0
CONST	ENDS
;	COMDAT rtc$TMZ
rtc$TMZ	SEGMENT
__RTC_Shutdown.rtc$TMZ DD FLAT:__RTC_Shutdown
rtc$TMZ	ENDS
;	COMDAT rtc$IMZ
rtc$IMZ	SEGMENT
__RTC_InitBase.rtc$IMZ DD FLAT:__RTC_InitBase
rtc$IMZ	ENDS
;	COMDAT ??_C@_02HCBHEC@ec?$AA@
CONST	SEGMENT
??_C@_02HCBHEC@ec?$AA@ DB 'ec', 00H			; `string'
CONST	ENDS
;	COMDAT ??_C@_02GBJNFGNA@ep?$AA@
CONST	SEGMENT
??_C@_02GBJNFGNA@ep?$AA@ DB 'ep', 00H			; `string'
CONST	ENDS
;	COMDAT ??_C@_02HIIGGHJB@eq?$AA@
CONST	SEGMENT
??_C@_02HIIGGHJB@eq?$AA@ DB 'eq', 00H			; `string'
CONST	ENDS
;	COMDAT ??_C@_02KMMHFIEO@eo?$AA@
CONST	SEGMENT
??_C@_02KMMHFIEO@eo?$AA@ DB 'eo', 00H			; `string'
CONST	ENDS
;	COMDAT ??_C@_02PKJNPPMI@ei?$AA@
CONST	SEGMENT
??_C@_02PKJNPPMI@ei?$AA@ DB 'ei', 00H			; `string'
CONST	ENDS
;	COMDAT ??_C@_02ODIGMOIJ@eh?$AA@
CONST	SEGMENT
??_C@_02ODIGMOIJ@eh?$AA@ DB 'eh', 00H			; `string'
CONST	ENDS
;	COMDAT ??_C@_02GEBONCEG@eg?$AA@
CONST	SEGMENT
??_C@_02GEBONCEG@eg?$AA@ DB 'eg', 00H			; `string'
CONST	ENDS
;	COMDAT ??_C@_02HNAFODAH@ef?$AA@
CONST	SEGMENT
??_C@_02HNAFODAH@ef?$AA@ DB 'ef', 00H			; `string'
CONST	ENDS
;	COMDAT ??_C@_02FGCILAME@ee?$AA@
CONST	SEGMENT
??_C@_02FGCILAME@ee?$AA@ DB 'ee', 00H			; `string'
CONST	ENDS
;	COMDAT ??_C@_02BJGJCGAD@eb?$AA@
CONST	SEGMENT
??_C@_02BJGJCGAD@eb?$AA@ DB 'eb', 00H			; `string'
CONST	ENDS
;	COMDAT ??_C@_02DCEEHFMA@ea?$AA@
CONST	SEGMENT
??_C@_02DCEEHFMA@ea?$AA@ DB 'ea', 00H			; `string'
CONST	ENDS
;	COMDAT ??_C@_02JKLANEGN@dz?$AA@
CONST	SEGMENT
??_C@_02JKLANEGN@dz?$AA@ DB 'dz', 00H			; `string'
CONST	ENDS
;	COMDAT ??_C@_02CPBOKKCA@dw?$AA@
CONST	SEGMENT
??_C@_02CPBOKKCA@dw?$AA@ DB 'dw', 00H			; `string'
CONST	ENDS
;	COMDAT ??_C@_02DGAFJLGB@dv?$AA@
CONST	SEGMENT
??_C@_02DGAFJLGB@dv?$AA@ DB 'dv', 00H			; `string'
CONST	ENDS
;	COMDAT ??_C@_02BNCIMIKC@du?$AA@
CONST	SEGMENT
??_C@_02BNCIMIKC@du?$AA@ DB 'du', 00H			; `string'
CONST	ENDS
;	COMDAT ??_C@_02EDDPJOD@dt?$AA@
CONST	SEGMENT
??_C@_02EDDPJOD@dt?$AA@ DB 'dt', 00H			; `string'
CONST	ENDS
;	COMDAT ??_C@_02OCEEKELO@dh?$AA@
CONST	SEGMENT
??_C@_02OCEEKELO@dh?$AA@ DB 'dh', 00H			; `string'
CONST	ENDS
;	COMDAT ??_C@_02GFNMLIHB@dg?$AA@
CONST	SEGMENT
??_C@_02GFNMLIHB@dg?$AA@ DB 'dg', 00H			; `string'
CONST	ENDS
;	COMDAT ??_C@_02HMMHIJDA@df?$AA@
CONST	SEGMENT
??_C@_02HMMHIJDA@df?$AA@ DB 'df', 00H			; `string'
CONST	ENDS
;	COMDAT ??_C@_02FHOKNKPD@de?$AA@
CONST	SEGMENT
??_C@_02FHOKNKPD@de?$AA@ DB 'de', 00H			; `string'
CONST	ENDS
;	COMDAT ??_C@_02EOPBOLLC@dd?$AA@
CONST	SEGMENT
??_C@_02EOPBOLLC@dd?$AA@ DB 'dd', 00H			; `string'
CONST	ENDS
;	COMDAT ??_C@_02BLAHNHF@dc?$AA@
CONST	SEGMENT
??_C@_02BLAHNHF@dc?$AA@ DB 'dc', 00H			; `string'
CONST	ENDS
;	COMDAT ??_C@_02BIKLEMDE@db?$AA@
CONST	SEGMENT
??_C@_02BIKLEMDE@db?$AA@ DB 'db', 00H			; `string'
CONST	ENDS
;	COMDAT ??_C@_02DDIGBPPH@da?$AA@
CONST	SEGMENT
??_C@_02DDIGBPPH@da?$AA@ DB 'da', 00H			; `string'
CONST	ENDS
;	COMDAT ??_C@_02JPPPMCOI@cz?$AA@
CONST	SEGMENT
??_C@_02JPPPMCOI@cz?$AA@ DB 'cz', 00H			; `string'
CONST	ENDS
;	COMDAT ??_C@_02LENCJBCL@cy?$AA@
CONST	SEGMENT
??_C@_02LENCJBCL@cy?$AA@ DB 'cy', 00H			; `string'
CONST	ENDS
;	COMDAT ??_C@_02KNMJKAGK@cx?$AA@
CONST	SEGMENT
??_C@_02KNMJKAGK@cx?$AA@ DB 'cx', 00H			; `string'
CONST	ENDS
;	COMDAT ??_C@_02CKFBLMKF@cw?$AA@
CONST	SEGMENT
??_C@_02CKFBLMKF@cw?$AA@ DB 'cw', 00H			; `string'
CONST	ENDS
;	COMDAT ??_C@_02DDEKINOE@cv?$AA@
CONST	SEGMENT
??_C@_02DDEKINOE@cv?$AA@ DB 'cv', 00H			; `string'
CONST	ENDS
;	COMDAT ??_C@_02BIGHNOCH@cu?$AA@
CONST	SEGMENT
??_C@_02BIGHNOCH@cu?$AA@ DB 'cu', 00H			; `string'
CONST	ENDS
;	COMDAT ??_C@_02BHMOPGG@ct?$AA@
CONST	SEGMENT
??_C@_02BHMOPGG@ct?$AA@ DB 'ct', 00H			; `string'
CONST	ENDS
;	COMDAT ??_C@_02EODNHJKB@cs?$AA@
CONST	SEGMENT
??_C@_02EODNHJKB@cs?$AA@ DB 'cs', 00H			; `string'
CONST	ENDS
;	COMDAT ??_C@_02FHCGEIOA@cr?$AA@
CONST	SEGMENT
??_C@_02FHCGEIOA@cr?$AA@ DB 'cr', 00H			; `string'
CONST	ENDS
;	COMDAT ??_C@_02HMALBLCD@cq?$AA@
CONST	SEGMENT
??_C@_02HMALBLCD@cq?$AA@ DB 'cq', 00H			; `string'
CONST	ENDS
;	COMDAT ??_C@_02GFBACKGC@cp?$AA@
CONST	SEGMENT
??_C@_02GFBACKGC@cp?$AA@ DB 'cp', 00H			; `string'
CONST	ENDS
;	COMDAT ??_C@_02KIEKCEPM@co?$AA@
CONST	SEGMENT
??_C@_02KIEKCEPM@co?$AA@ DB 'co', 00H			; `string'
CONST	ENDS
;	COMDAT ??_C@_02LBFBBFLN@cn?$AA@
CONST	SEGMENT
??_C@_02LBFBBFLN@cn?$AA@ DB 'cn', 00H			; `string'
CONST	ENDS
;	COMDAT ??_C@_02JKHMEGHO@cm?$AA@
CONST	SEGMENT
??_C@_02JKHMEGHO@cm?$AA@ DB 'cm', 00H			; `string'
CONST	ENDS
;	COMDAT ??_C@_02IDGHHHDP@cl?$AA@
CONST	SEGMENT
??_C@_02IDGHHHDP@cl?$AA@ DB 'cl', 00H			; `string'
CONST	ENDS
;	COMDAT ??_C@_02MMCGOBPI@ck?$AA@
CONST	SEGMENT
??_C@_02MMCGOBPI@ck?$AA@ DB 'ck', 00H			; `string'
CONST	ENDS
;	COMDAT ??_C@_02NFDNNALJ@cj?$AA@
CONST	SEGMENT
??_C@_02NFDNNALJ@cj?$AA@ DB 'cj', 00H			; `string'
CONST	ENDS
;	COMDAT ??_C@_02POBAIDHK@ci?$AA@
CONST	SEGMENT
??_C@_02POBAIDHK@ci?$AA@ DB 'ci', 00H			; `string'
CONST	ENDS
;	COMDAT ??_C@_02OHALLCDL@ch?$AA@
CONST	SEGMENT
??_C@_02OHALLCDL@ch?$AA@ DB 'ch', 00H			; `string'
CONST	ENDS
;	COMDAT ??_C@_02GAJDKOPE@cg?$AA@
CONST	SEGMENT
??_C@_02GAJDKOPE@cg?$AA@ DB 'cg', 00H			; `string'
CONST	ENDS
;	COMDAT ??_C@_02HJIIJPLF@cf?$AA@
CONST	SEGMENT
??_C@_02HJIIJPLF@cf?$AA@ DB 'cf', 00H			; `string'
CONST	ENDS
;	COMDAT ??_C@_02FCKFMMHG@ce?$AA@
CONST	SEGMENT
??_C@_02FCKFMMHG@ce?$AA@ DB 'ce', 00H			; `string'
CONST	ENDS
;	COMDAT ??_C@_02ELLOPNDH@cd?$AA@
CONST	SEGMENT
??_C@_02ELLOPNDH@cd?$AA@ DB 'cd', 00H			; `string'
CONST	ENDS
;	COMDAT ??_C@_02EPPGLPA@cc?$AA@
CONST	SEGMENT
??_C@_02EPPGLPA@cc?$AA@ DB 'cc', 00H			; `string'
CONST	ENDS
;	COMDAT ??_C@_02BNOEFKLB@cb?$AA@
CONST	SEGMENT
??_C@_02BNOEFKLB@cb?$AA@ DB 'cb', 00H			; `string'
CONST	ENDS
;	COMDAT ??_C@_02DGMJAJHC@ca?$AA@
CONST	SEGMENT
??_C@_02DGMJAJHC@ca?$AA@ DB 'ca', 00H			; `string'
CONST	ENDS
;	COMDAT ??_C@_02JODNKINP@bz?$AA@
CONST	SEGMENT
??_C@_02JODNKINP@bz?$AA@ DB 'bz', 00H			; `string'
CONST	ENDS
;	COMDAT ??_C@_02LFBAPLBM@by?$AA@
CONST	SEGMENT
??_C@_02LFBAPLBM@by?$AA@ DB 'by', 00H			; `string'
CONST	ENDS
;	COMDAT ??_C@_02KMALMKFN@bx?$AA@
CONST	SEGMENT
??_C@_02KMALMKFN@bx?$AA@ DB 'bx', 00H			; `string'
CONST	ENDS
;	COMDAT ??_C@_02CLJDNGJC@bw?$AA@
CONST	SEGMENT
??_C@_02CLJDNGJC@bw?$AA@ DB 'bw', 00H			; `string'
CONST	ENDS
;	COMDAT ??_C@_02DCIIOHND@bv?$AA@
CONST	SEGMENT
??_C@_02DCIIOHND@bv?$AA@ DB 'bv', 00H			; `string'
CONST	ENDS
;	COMDAT ??_C@_02BJKFLEBA@bu?$AA@
CONST	SEGMENT
??_C@_02BJKFLEBA@bu?$AA@ DB 'bu', 00H			; `string'
CONST	ENDS
;	COMDAT ??_C@_02LOIFFB@bt?$AA@
CONST	SEGMENT
??_C@_02LOIFFB@bt?$AA@ DB 'bt', 00H			; `string'
CONST	ENDS
;	COMDAT ??_C@_02EPPPBDJG@bs?$AA@
CONST	SEGMENT
??_C@_02EPPPBDJG@bs?$AA@ DB 'bs', 00H			; `string'
CONST	ENDS
;	COMDAT ??_C@_02FGOECCNH@br?$AA@
CONST	SEGMENT
??_C@_02FGOECCNH@br?$AA@ DB 'br', 00H			; `string'
CONST	ENDS
;	COMDAT ??_C@_02HNMJHBBE@bq?$AA@
CONST	SEGMENT
??_C@_02HNMJHBBE@bq?$AA@ DB 'bq', 00H			; `string'
CONST	ENDS
;	COMDAT ??_C@_02GENCEAFF@bp?$AA@
CONST	SEGMENT
??_C@_02GENCEAFF@bp?$AA@ DB 'bp', 00H			; `string'
CONST	ENDS
;	COMDAT ??_C@_02KJIIEOML@bo?$AA@
CONST	SEGMENT
??_C@_02KJIIEOML@bo?$AA@ DB 'bo', 00H			; `string'
CONST	ENDS
;	COMDAT ??_C@_02LAJDHPIK@bn?$AA@
CONST	SEGMENT
??_C@_02LAJDHPIK@bn?$AA@ DB 'bn', 00H			; `string'
CONST	ENDS
;	COMDAT ??_C@_02JLLOCMEJ@bm?$AA@
CONST	SEGMENT
??_C@_02JLLOCMEJ@bm?$AA@ DB 'bm', 00H			; `string'
CONST	ENDS
;	COMDAT ??_C@_02ICKFBNAI@bl?$AA@
CONST	SEGMENT
??_C@_02ICKFBNAI@bl?$AA@ DB 'bl', 00H			; `string'
CONST	ENDS
;	COMDAT ??_C@_02MNOEILMP@bk?$AA@
CONST	SEGMENT
??_C@_02MNOEILMP@bk?$AA@ DB 'bk', 00H			; `string'
CONST	ENDS
;	COMDAT ??_C@_02NEPPLKIO@bj?$AA@
CONST	SEGMENT
??_C@_02NEPPLKIO@bj?$AA@ DB 'bj', 00H			; `string'
CONST	ENDS
;	COMDAT ??_C@_02PPNCOJEN@bi?$AA@
CONST	SEGMENT
??_C@_02PPNCOJEN@bi?$AA@ DB 'bi', 00H			; `string'
CONST	ENDS
;	COMDAT ??_C@_02OGMJNIAM@bh?$AA@
CONST	SEGMENT
??_C@_02OGMJNIAM@bh?$AA@ DB 'bh', 00H			; `string'
CONST	ENDS
;	COMDAT ??_C@_02GBFBMEMD@bg?$AA@
CONST	SEGMENT
??_C@_02GBFBMEMD@bg?$AA@ DB 'bg', 00H			; `string'
CONST	ENDS
;	COMDAT xdata$x
xdata$x	SEGMENT
__unwindtable$?ScrEnableStuntBonus@@YAXPAURPCParameters@@@Z DD 0ffffffffH
	DD	FLAT:__unwindfunclet$?ScrEnableStuntBonus@@YAXPAURPCParameters@@@Z$0
__ehfuncinfo$?ScrEnableStuntBonus@@YAXPAURPCParameters@@@Z DD 019930522H
	DD	01H
	DD	FLAT:__unwindtable$?ScrEnableStuntBonus@@YAXPAURPCParameters@@@Z
	DD	2 DUP(00H)
	DD	2 DUP(00H)
	DD	00H
	DD	01H
xdata$x	ENDS
;	COMDAT xdata$x
xdata$x	SEGMENT
__unwindtable$?ScrSetSpecialAction@@YAXPAURPCParameters@@@Z DD 0ffffffffH
	DD	FLAT:__unwindfunclet$?ScrSetSpecialAction@@YAXPAURPCParameters@@@Z$0
__ehfuncinfo$?ScrSetSpecialAction@@YAXPAURPCParameters@@@Z DD 019930522H
	DD	01H
	DD	FLAT:__unwindtable$?ScrSetSpecialAction@@YAXPAURPCParameters@@@Z
	DD	2 DUP(00H)
	DD	2 DUP(00H)
	DD	00H
	DD	01H
xdata$x	ENDS
;	COMDAT xdata$x
xdata$x	SEGMENT
__catchsym$?ScrClearAnimations@@YAXPAURPCParameters@@@Z$3 DD 040H
	DD	00H
	DD	00H
	DD	FLAT:__catch$?ScrClearAnimations@@YAXPAURPCParameters@@@Z$0
__tryblocktable$?ScrClearAnimations@@YAXPAURPCParameters@@@Z DD 01H
	DD	01H
	DD	02H
	DD	01H
	DD	FLAT:__catchsym$?ScrClearAnimations@@YAXPAURPCParameters@@@Z$3
__unwindtable$?ScrClearAnimations@@YAXPAURPCParameters@@@Z DD 0ffffffffH
	DD	FLAT:__unwindfunclet$?ScrClearAnimations@@YAXPAURPCParameters@@@Z$2
	DD	00H
	DD	00H
	DD	00H
	DD	00H
__ehfuncinfo$?ScrClearAnimations@@YAXPAURPCParameters@@@Z DD 019930522H
	DD	03H
	DD	FLAT:__unwindtable$?ScrClearAnimations@@YAXPAURPCParameters@@@Z
	DD	01H
	DD	FLAT:__tryblocktable$?ScrClearAnimations@@YAXPAURPCParameters@@@Z
	DD	2 DUP(00H)
	DD	00H
	DD	01H
xdata$x	ENDS
;	COMDAT xdata$x
xdata$x	SEGMENT
__catchsym$?ScrApplyAnimation@@YAXPAURPCParameters@@@Z$3 DD 040H
	DD	00H
	DD	00H
	DD	FLAT:__catch$?ScrApplyAnimation@@YAXPAURPCParameters@@@Z$0
__tryblocktable$?ScrApplyAnimation@@YAXPAURPCParameters@@@Z DD 01H
	DD	01H
	DD	02H
	DD	01H
	DD	FLAT:__catchsym$?ScrApplyAnimation@@YAXPAURPCParameters@@@Z$3
__unwindtable$?ScrApplyAnimation@@YAXPAURPCParameters@@@Z DD 0ffffffffH
	DD	FLAT:__unwindfunclet$?ScrApplyAnimation@@YAXPAURPCParameters@@@Z$2
	DD	00H
	DD	00H
	DD	00H
	DD	00H
__ehfuncinfo$?ScrApplyAnimation@@YAXPAURPCParameters@@@Z DD 019930522H
	DD	03H
	DD	FLAT:__unwindtable$?ScrApplyAnimation@@YAXPAURPCParameters@@@Z
	DD	01H
	DD	FLAT:__tryblocktable$?ScrApplyAnimation@@YAXPAURPCParameters@@@Z
	DD	2 DUP(00H)
	DD	00H
	DD	01H
xdata$x	ENDS
;	COMDAT xdata$x
xdata$x	SEGMENT
__unwindtable$?ScrStopFlashGangZone@@YAXPAURPCParameters@@@Z DD 0ffffffffH
	DD	FLAT:__unwindfunclet$?ScrStopFlashGangZone@@YAXPAURPCParameters@@@Z$0
__ehfuncinfo$?ScrStopFlashGangZone@@YAXPAURPCParameters@@@Z DD 019930522H
	DD	01H
	DD	FLAT:__unwindtable$?ScrStopFlashGangZone@@YAXPAURPCParameters@@@Z
	DD	2 DUP(00H)
	DD	2 DUP(00H)
	DD	00H
	DD	01H
xdata$x	ENDS
;	COMDAT xdata$x
xdata$x	SEGMENT
__unwindtable$?ScrFlashGangZone@@YAXPAURPCParameters@@@Z DD 0ffffffffH
	DD	FLAT:__unwindfunclet$?ScrFlashGangZone@@YAXPAURPCParameters@@@Z$0
__ehfuncinfo$?ScrFlashGangZone@@YAXPAURPCParameters@@@Z DD 019930522H
	DD	01H
	DD	FLAT:__unwindtable$?ScrFlashGangZone@@YAXPAURPCParameters@@@Z
	DD	2 DUP(00H)
	DD	2 DUP(00H)
	DD	00H
	DD	01H
xdata$x	ENDS
;	COMDAT xdata$x
xdata$x	SEGMENT
__unwindtable$?ScrRemoveGangZone@@YAXPAURPCParameters@@@Z DD 0ffffffffH
	DD	FLAT:__unwindfunclet$?ScrRemoveGangZone@@YAXPAURPCParameters@@@Z$0
__ehfuncinfo$?ScrRemoveGangZone@@YAXPAURPCParameters@@@Z DD 019930522H
	DD	01H
	DD	FLAT:__unwindtable$?ScrRemoveGangZone@@YAXPAURPCParameters@@@Z
	DD	2 DUP(00H)
	DD	2 DUP(00H)
	DD	00H
	DD	01H
xdata$x	ENDS
;	COMDAT xdata$x
xdata$x	SEGMENT
__unwindtable$?ScrAddGangZone@@YAXPAURPCParameters@@@Z DD 0ffffffffH
	DD	FLAT:__unwindfunclet$?ScrAddGangZone@@YAXPAURPCParameters@@@Z$0
__ehfuncinfo$?ScrAddGangZone@@YAXPAURPCParameters@@@Z DD 019930522H
	DD	01H
	DD	FLAT:__unwindtable$?ScrAddGangZone@@YAXPAURPCParameters@@@Z
	DD	2 DUP(00H)
	DD	2 DUP(00H)
	DD	00H
	DD	01H
xdata$x	ENDS
;	COMDAT xdata$x
xdata$x	SEGMENT
__unwindtable$?ScrEditTextDraw@@YAXPAURPCParameters@@@Z DD 0ffffffffH
	DD	FLAT:__unwindfunclet$?ScrEditTextDraw@@YAXPAURPCParameters@@@Z$0
__ehfuncinfo$?ScrEditTextDraw@@YAXPAURPCParameters@@@Z DD 019930522H
	DD	01H
	DD	FLAT:__unwindtable$?ScrEditTextDraw@@YAXPAURPCParameters@@@Z
	DD	2 DUP(00H)
	DD	2 DUP(00H)
	DD	00H
	DD	01H
xdata$x	ENDS
;	COMDAT xdata$x
xdata$x	SEGMENT
__unwindtable$?ScrHideTextDraw@@YAXPAURPCParameters@@@Z DD 0ffffffffH
	DD	FLAT:__unwindfunclet$?ScrHideTextDraw@@YAXPAURPCParameters@@@Z$0
__ehfuncinfo$?ScrHideTextDraw@@YAXPAURPCParameters@@@Z DD 019930522H
	DD	01H
	DD	FLAT:__unwindtable$?ScrHideTextDraw@@YAXPAURPCParameters@@@Z
	DD	2 DUP(00H)
	DD	2 DUP(00H)
	DD	00H
	DD	01H
xdata$x	ENDS
;	COMDAT xdata$x
xdata$x	SEGMENT
__unwindtable$?ScrShowTextDraw@@YAXPAURPCParameters@@@Z DD 0ffffffffH
	DD	FLAT:__unwindfunclet$?ScrShowTextDraw@@YAXPAURPCParameters@@@Z$0
__ehfuncinfo$?ScrShowTextDraw@@YAXPAURPCParameters@@@Z DD 019930522H
	DD	01H
	DD	FLAT:__unwindtable$?ScrShowTextDraw@@YAXPAURPCParameters@@@Z
	DD	2 DUP(00H)
	DD	2 DUP(00H)
	DD	00H
	DD	01H
xdata$x	ENDS
;	COMDAT xdata$x
xdata$x	SEGMENT
__unwindtable$?ScrSetPlayerWantedLevel@@YAXPAURPCParameters@@@Z DD 0ffffffffH
	DD	FLAT:__unwindfunclet$?ScrSetPlayerWantedLevel@@YAXPAURPCParameters@@@Z$0
__ehfuncinfo$?ScrSetPlayerWantedLevel@@YAXPAURPCParameters@@@Z DD 019930522H
	DD	01H
	DD	FLAT:__unwindtable$?ScrSetPlayerWantedLevel@@YAXPAURPCParameters@@@Z
	DD	2 DUP(00H)
	DD	2 DUP(00H)
	DD	00H
	DD	01H
xdata$x	ENDS
;	COMDAT xdata$x
xdata$x	SEGMENT
__unwindtable$?ScrHideMenu@@YAXPAURPCParameters@@@Z DD 0ffffffffH
	DD	FLAT:__unwindfunclet$?ScrHideMenu@@YAXPAURPCParameters@@@Z$0
__ehfuncinfo$?ScrHideMenu@@YAXPAURPCParameters@@@Z DD 019930522H
	DD	01H
	DD	FLAT:__unwindtable$?ScrHideMenu@@YAXPAURPCParameters@@@Z
	DD	2 DUP(00H)
	DD	2 DUP(00H)
	DD	00H
	DD	01H
xdata$x	ENDS
;	COMDAT xdata$x
xdata$x	SEGMENT
__unwindtable$?ScrShowMenu@@YAXPAURPCParameters@@@Z DD 0ffffffffH
	DD	FLAT:__unwindfunclet$?ScrShowMenu@@YAXPAURPCParameters@@@Z$0
__ehfuncinfo$?ScrShowMenu@@YAXPAURPCParameters@@@Z DD 019930522H
	DD	01H
	DD	FLAT:__unwindtable$?ScrShowMenu@@YAXPAURPCParameters@@@Z
	DD	2 DUP(00H)
	DD	2 DUP(00H)
	DD	00H
	DD	01H
xdata$x	ENDS
;	COMDAT xdata$x
xdata$x	SEGMENT
__unwindtable$?ScrInitMenu@@YAXPAURPCParameters@@@Z DD 0ffffffffH
	DD	FLAT:__unwindfunclet$?ScrInitMenu@@YAXPAURPCParameters@@@Z$0
__ehfuncinfo$?ScrInitMenu@@YAXPAURPCParameters@@@Z DD 019930522H
	DD	01H
	DD	FLAT:__unwindtable$?ScrInitMenu@@YAXPAURPCParameters@@@Z
	DD	2 DUP(00H)
	DD	2 DUP(00H)
	DD	00H
	DD	01H
xdata$x	ENDS
;	COMDAT xdata$x
xdata$x	SEGMENT
__catchsym$?ScrAttachObjectToPlayer@@YAXPAURPCParameters@@@Z$3 DD 040H
	DD	00H
	DD	00H
	DD	FLAT:__catch$?ScrAttachObjectToPlayer@@YAXPAURPCParameters@@@Z$0
__tryblocktable$?ScrAttachObjectToPlayer@@YAXPAURPCParameters@@@Z DD 01H
	DD	01H
	DD	02H
	DD	01H
	DD	FLAT:__catchsym$?ScrAttachObjectToPlayer@@YAXPAURPCParameters@@@Z$3
__unwindtable$?ScrAttachObjectToPlayer@@YAXPAURPCParameters@@@Z DD 0ffffffffH
	DD	FLAT:__unwindfunclet$?ScrAttachObjectToPlayer@@YAXPAURPCParameters@@@Z$2
	DD	00H
	DD	00H
	DD	00H
	DD	00H
__ehfuncinfo$?ScrAttachObjectToPlayer@@YAXPAURPCParameters@@@Z DD 019930522H
	DD	03H
	DD	FLAT:__unwindtable$?ScrAttachObjectToPlayer@@YAXPAURPCParameters@@@Z
	DD	01H
	DD	FLAT:__tryblocktable$?ScrAttachObjectToPlayer@@YAXPAURPCParameters@@@Z
	DD	2 DUP(00H)
	DD	00H
	DD	01H
xdata$x	ENDS
;	COMDAT xdata$x
xdata$x	SEGMENT
__unwindtable$?ScrRemoveComponent@@YAXPAURPCParameters@@@Z DD 0ffffffffH
	DD	FLAT:__unwindfunclet$?ScrRemoveComponent@@YAXPAURPCParameters@@@Z$0
__ehfuncinfo$?ScrRemoveComponent@@YAXPAURPCParameters@@@Z DD 019930522H
	DD	01H
	DD	FLAT:__unwindtable$?ScrRemoveComponent@@YAXPAURPCParameters@@@Z
	DD	2 DUP(00H)
	DD	2 DUP(00H)
	DD	00H
	DD	01H
xdata$x	ENDS
;	COMDAT xdata$x
xdata$x	SEGMENT
__unwindtable$?ScrPlayerSpectateVehicle@@YAXPAURPCParameters@@@Z DD 0ffffffffH
	DD	FLAT:__unwindfunclet$?ScrPlayerSpectateVehicle@@YAXPAURPCParameters@@@Z$0
__ehfuncinfo$?ScrPlayerSpectateVehicle@@YAXPAURPCParameters@@@Z DD 019930522H
	DD	01H
	DD	FLAT:__unwindtable$?ScrPlayerSpectateVehicle@@YAXPAURPCParameters@@@Z
	DD	2 DUP(00H)
	DD	2 DUP(00H)
	DD	00H
	DD	01H
xdata$x	ENDS
;	COMDAT xdata$x
xdata$x	SEGMENT
__unwindtable$?ScrPlayerSpectatePlayer@@YAXPAURPCParameters@@@Z DD 0ffffffffH
	DD	FLAT:__unwindfunclet$?ScrPlayerSpectatePlayer@@YAXPAURPCParameters@@@Z$0
__ehfuncinfo$?ScrPlayerSpectatePlayer@@YAXPAURPCParameters@@@Z DD 019930522H
	DD	01H
	DD	FLAT:__unwindtable$?ScrPlayerSpectatePlayer@@YAXPAURPCParameters@@@Z
	DD	2 DUP(00H)
	DD	2 DUP(00H)
	DD	00H
	DD	01H
xdata$x	ENDS
;	COMDAT xdata$x
xdata$x	SEGMENT
__unwindtable$?ScrSetPlayerSpectating@@YAXPAURPCParameters@@@Z DD 0ffffffffH
	DD	FLAT:__unwindfunclet$?ScrSetPlayerSpectating@@YAXPAURPCParameters@@@Z$0
__ehfuncinfo$?ScrSetPlayerSpectating@@YAXPAURPCParameters@@@Z DD 019930522H
	DD	01H
	DD	FLAT:__unwindtable$?ScrSetPlayerSpectating@@YAXPAURPCParameters@@@Z
	DD	2 DUP(00H)
	DD	2 DUP(00H)
	DD	00H
	DD	01H
xdata$x	ENDS
;	COMDAT xdata$x
xdata$x	SEGMENT
__unwindtable$?ScrTogglePlayerSpectating@@YAXPAURPCParameters@@@Z DD 0ffffffffH
	DD	FLAT:__unwindfunclet$?ScrTogglePlayerSpectating@@YAXPAURPCParameters@@@Z$0
__ehfuncinfo$?ScrTogglePlayerSpectating@@YAXPAURPCParameters@@@Z DD 019930522H
	DD	01H
	DD	FLAT:__unwindtable$?ScrTogglePlayerSpectating@@YAXPAURPCParameters@@@Z
	DD	2 DUP(00H)
	DD	2 DUP(00H)
	DD	00H
	DD	01H
xdata$x	ENDS
;	COMDAT xdata$x
xdata$x	SEGMENT
__unwindtable$?ScrNumberPlate@@YAXPAURPCParameters@@@Z DD 0ffffffffH
	DD	FLAT:__unwindfunclet$?ScrNumberPlate@@YAXPAURPCParameters@@@Z$0
__ehfuncinfo$?ScrNumberPlate@@YAXPAURPCParameters@@@Z DD 019930522H
	DD	01H
	DD	FLAT:__unwindtable$?ScrNumberPlate@@YAXPAURPCParameters@@@Z
	DD	2 DUP(00H)
	DD	2 DUP(00H)
	DD	00H
	DD	01H
xdata$x	ENDS
;	COMDAT xdata$x
xdata$x	SEGMENT
__unwindtable$?ScrStopObject@@YAXPAURPCParameters@@@Z DD 0ffffffffH
	DD	FLAT:__unwindfunclet$?ScrStopObject@@YAXPAURPCParameters@@@Z$0
__ehfuncinfo$?ScrStopObject@@YAXPAURPCParameters@@@Z DD 019930522H
	DD	01H
	DD	FLAT:__unwindtable$?ScrStopObject@@YAXPAURPCParameters@@@Z
	DD	2 DUP(00H)
	DD	2 DUP(00H)
	DD	00H
	DD	01H
xdata$x	ENDS
;	COMDAT xdata$x
xdata$x	SEGMENT
__unwindtable$?ScrMoveObject@@YAXPAURPCParameters@@@Z DD 0ffffffffH
	DD	FLAT:__unwindfunclet$?ScrMoveObject@@YAXPAURPCParameters@@@Z$0
__ehfuncinfo$?ScrMoveObject@@YAXPAURPCParameters@@@Z DD 019930522H
	DD	01H
	DD	FLAT:__unwindtable$?ScrMoveObject@@YAXPAURPCParameters@@@Z
	DD	2 DUP(00H)
	DD	2 DUP(00H)
	DD	00H
	DD	01H
xdata$x	ENDS
;	COMDAT xdata$x
xdata$x	SEGMENT
__unwindtable$?ScrShowNameTag@@YAXPAURPCParameters@@@Z DD 0ffffffffH
	DD	FLAT:__unwindfunclet$?ScrShowNameTag@@YAXPAURPCParameters@@@Z$0
__ehfuncinfo$?ScrShowNameTag@@YAXPAURPCParameters@@@Z DD 019930522H
	DD	01H
	DD	FLAT:__unwindtable$?ScrShowNameTag@@YAXPAURPCParameters@@@Z
	DD	2 DUP(00H)
	DD	2 DUP(00H)
	DD	00H
	DD	01H
xdata$x	ENDS
;	COMDAT xdata$x
xdata$x	SEGMENT
__unwindtable$?ScrCreateExplosion@@YAXPAURPCParameters@@@Z DD 0ffffffffH
	DD	FLAT:__unwindfunclet$?ScrCreateExplosion@@YAXPAURPCParameters@@@Z$0
__ehfuncinfo$?ScrCreateExplosion@@YAXPAURPCParameters@@@Z DD 019930522H
	DD	01H
	DD	FLAT:__unwindtable$?ScrCreateExplosion@@YAXPAURPCParameters@@@Z
	DD	2 DUP(00H)
	DD	2 DUP(00H)
	DD	00H
	DD	01H
xdata$x	ENDS
;	COMDAT xdata$x
xdata$x	SEGMENT
__unwindtable$?ScrSetVehicleVirtualWorld@@YAXPAURPCParameters@@@Z DD 0ffffffffH
	DD	FLAT:__unwindfunclet$?ScrSetVehicleVirtualWorld@@YAXPAURPCParameters@@@Z$0
__ehfuncinfo$?ScrSetVehicleVirtualWorld@@YAXPAURPCParameters@@@Z DD 019930522H
	DD	01H
	DD	FLAT:__unwindtable$?ScrSetVehicleVirtualWorld@@YAXPAURPCParameters@@@Z
	DD	2 DUP(00H)
	DD	2 DUP(00H)
	DD	00H
	DD	01H
xdata$x	ENDS
;	COMDAT xdata$x
xdata$x	SEGMENT
__unwindtable$?ScrSetPlayerVirtualWorld@@YAXPAURPCParameters@@@Z DD 0ffffffffH
	DD	FLAT:__unwindfunclet$?ScrSetPlayerVirtualWorld@@YAXPAURPCParameters@@@Z$0
__ehfuncinfo$?ScrSetPlayerVirtualWorld@@YAXPAURPCParameters@@@Z DD 019930522H
	DD	01H
	DD	FLAT:__unwindtable$?ScrSetPlayerVirtualWorld@@YAXPAURPCParameters@@@Z
	DD	2 DUP(00H)
	DD	2 DUP(00H)
	DD	00H
	DD	01H
xdata$x	ENDS
;	COMDAT xdata$x
xdata$x	SEGMENT
__unwindtable$?ScrDestroyObject@@YAXPAURPCParameters@@@Z DD 0ffffffffH
	DD	FLAT:__unwindfunclet$?ScrDestroyObject@@YAXPAURPCParameters@@@Z$0
__ehfuncinfo$?ScrDestroyObject@@YAXPAURPCParameters@@@Z DD 019930522H
	DD	01H
	DD	FLAT:__unwindtable$?ScrDestroyObject@@YAXPAURPCParameters@@@Z
	DD	2 DUP(00H)
	DD	2 DUP(00H)
	DD	00H
	DD	01H
xdata$x	ENDS
;	COMDAT xdata$x
xdata$x	SEGMENT
__unwindtable$?ScrSetObjectRotation@@YAXPAURPCParameters@@@Z DD 0ffffffffH
	DD	FLAT:__unwindfunclet$?ScrSetObjectRotation@@YAXPAURPCParameters@@@Z$0
__ehfuncinfo$?ScrSetObjectRotation@@YAXPAURPCParameters@@@Z DD 019930522H
	DD	01H
	DD	FLAT:__unwindtable$?ScrSetObjectRotation@@YAXPAURPCParameters@@@Z
	DD	2 DUP(00H)
	DD	2 DUP(00H)
	DD	00H
	DD	01H
xdata$x	ENDS
;	COMDAT xdata$x
xdata$x	SEGMENT
__unwindtable$?ScrSetObjectPos@@YAXPAURPCParameters@@@Z DD 0ffffffffH
	DD	FLAT:__unwindfunclet$?ScrSetObjectPos@@YAXPAURPCParameters@@@Z$0
__ehfuncinfo$?ScrSetObjectPos@@YAXPAURPCParameters@@@Z DD 019930522H
	DD	01H
	DD	FLAT:__unwindtable$?ScrSetObjectPos@@YAXPAURPCParameters@@@Z
	DD	2 DUP(00H)
	DD	2 DUP(00H)
	DD	00H
	DD	01H
xdata$x	ENDS
;	COMDAT xdata$x
xdata$x	SEGMENT
__unwindtable$?ScrCreateObject@@YAXPAURPCParameters@@@Z DD 0ffffffffH
	DD	FLAT:__unwindfunclet$?ScrCreateObject@@YAXPAURPCParameters@@@Z$0
__ehfuncinfo$?ScrCreateObject@@YAXPAURPCParameters@@@Z DD 019930522H
	DD	01H
	DD	FLAT:__unwindtable$?ScrCreateObject@@YAXPAURPCParameters@@@Z
	DD	2 DUP(00H)
	DD	2 DUP(00H)
	DD	00H
	DD	01H
xdata$x	ENDS
;	COMDAT xdata$x
xdata$x	SEGMENT
__unwindtable$?ScrDetachTrailerFromVehicle@@YAXPAURPCParameters@@@Z DD 0ffffffffH
	DD	FLAT:__unwindfunclet$?ScrDetachTrailerFromVehicle@@YAXPAURPCParameters@@@Z$0
__ehfuncinfo$?ScrDetachTrailerFromVehicle@@YAXPAURPCParameters@@@Z DD 019930522H
	DD	01H
	DD	FLAT:__unwindtable$?ScrDetachTrailerFromVehicle@@YAXPAURPCParameters@@@Z
	DD	2 DUP(00H)
	DD	2 DUP(00H)
	DD	00H
	DD	01H
xdata$x	ENDS
;	COMDAT xdata$x
xdata$x	SEGMENT
__unwindtable$?ScrAttachTrailerToVehicle@@YAXPAURPCParameters@@@Z DD 0ffffffffH
	DD	FLAT:__unwindfunclet$?ScrAttachTrailerToVehicle@@YAXPAURPCParameters@@@Z$0
__ehfuncinfo$?ScrAttachTrailerToVehicle@@YAXPAURPCParameters@@@Z DD 019930522H
	DD	01H
	DD	FLAT:__unwindtable$?ScrAttachTrailerToVehicle@@YAXPAURPCParameters@@@Z
	DD	2 DUP(00H)
	DD	2 DUP(00H)
	DD	00H
	DD	01H
xdata$x	ENDS
;	COMDAT xdata$x
xdata$x	SEGMENT
__unwindtable$?ScrSetVehicleHealth@@YAXPAURPCParameters@@@Z DD 0ffffffffH
	DD	FLAT:__unwindfunclet$?ScrSetVehicleHealth@@YAXPAURPCParameters@@@Z$0
__ehfuncinfo$?ScrSetVehicleHealth@@YAXPAURPCParameters@@@Z DD 019930522H
	DD	01H
	DD	FLAT:__unwindtable$?ScrSetVehicleHealth@@YAXPAURPCParameters@@@Z
	DD	2 DUP(00H)
	DD	2 DUP(00H)
	DD	00H
	DD	01H
xdata$x	ENDS
;	COMDAT xdata$x
xdata$x	SEGMENT
__unwindtable$?ScrSetGravity@@YAXPAURPCParameters@@@Z DD 0ffffffffH
	DD	FLAT:__unwindfunclet$?ScrSetGravity@@YAXPAURPCParameters@@@Z$0
__ehfuncinfo$?ScrSetGravity@@YAXPAURPCParameters@@@Z DD 019930522H
	DD	01H
	DD	FLAT:__unwindtable$?ScrSetGravity@@YAXPAURPCParameters@@@Z
	DD	2 DUP(00H)
	DD	2 DUP(00H)
	DD	00H
	DD	01H
xdata$x	ENDS
;	COMDAT xdata$x
xdata$x	SEGMENT
__unwindtable$?ScrSetWeaponAmmo@@YAXPAURPCParameters@@@Z DD 0ffffffffH
	DD	FLAT:__unwindfunclet$?ScrSetWeaponAmmo@@YAXPAURPCParameters@@@Z$0
__ehfuncinfo$?ScrSetWeaponAmmo@@YAXPAURPCParameters@@@Z DD 019930522H
	DD	01H
	DD	FLAT:__unwindtable$?ScrSetWeaponAmmo@@YAXPAURPCParameters@@@Z
	DD	2 DUP(00H)
	DD	2 DUP(00H)
	DD	00H
	DD	01H
xdata$x	ENDS
;	COMDAT xdata$x
xdata$x	SEGMENT
__unwindtable$?ScrSetPlayerArmour@@YAXPAURPCParameters@@@Z DD 0ffffffffH
	DD	FLAT:__unwindfunclet$?ScrSetPlayerArmour@@YAXPAURPCParameters@@@Z$0
__ehfuncinfo$?ScrSetPlayerArmour@@YAXPAURPCParameters@@@Z DD 019930522H
	DD	01H
	DD	FLAT:__unwindtable$?ScrSetPlayerArmour@@YAXPAURPCParameters@@@Z
	DD	2 DUP(00H)
	DD	2 DUP(00H)
	DD	00H
	DD	01H
xdata$x	ENDS
;	COMDAT xdata$x
xdata$x	SEGMENT
__unwindtable$?ScrDisableMapIcon@@YAXPAURPCParameters@@@Z DD 0ffffffffH
	DD	FLAT:__unwindfunclet$?ScrDisableMapIcon@@YAXPAURPCParameters@@@Z$0
__ehfuncinfo$?ScrDisableMapIcon@@YAXPAURPCParameters@@@Z DD 019930522H
	DD	01H
	DD	FLAT:__unwindtable$?ScrDisableMapIcon@@YAXPAURPCParameters@@@Z
	DD	2 DUP(00H)
	DD	2 DUP(00H)
	DD	00H
	DD	01H
xdata$x	ENDS
;	COMDAT xdata$x
xdata$x	SEGMENT
__unwindtable$?ScrSetMapIcon@@YAXPAURPCParameters@@@Z DD 0ffffffffH
	DD	FLAT:__unwindfunclet$?ScrSetMapIcon@@YAXPAURPCParameters@@@Z$0
__ehfuncinfo$?ScrSetMapIcon@@YAXPAURPCParameters@@@Z DD 019930522H
	DD	01H
	DD	FLAT:__unwindtable$?ScrSetMapIcon@@YAXPAURPCParameters@@@Z
	DD	2 DUP(00H)
	DD	2 DUP(00H)
	DD	00H
	DD	01H
xdata$x	ENDS
;	COMDAT xdata$x
xdata$x	SEGMENT
__unwindtable$?ScrDeathMessage@@YAXPAURPCParameters@@@Z DD 0ffffffffH
	DD	FLAT:__unwindfunclet$?ScrDeathMessage@@YAXPAURPCParameters@@@Z$0
__ehfuncinfo$?ScrDeathMessage@@YAXPAURPCParameters@@@Z DD 019930522H
	DD	01H
	DD	FLAT:__unwindtable$?ScrDeathMessage@@YAXPAURPCParameters@@@Z
	DD	2 DUP(00H)
	DD	2 DUP(00H)
	DD	00H
	DD	01H
xdata$x	ENDS
;	COMDAT xdata$x
xdata$x	SEGMENT
__unwindtable$?ScrRespawnVehicle@@YAXPAURPCParameters@@@Z DD 0ffffffffH
	DD	FLAT:__unwindfunclet$?ScrRespawnVehicle@@YAXPAURPCParameters@@@Z$0
__ehfuncinfo$?ScrRespawnVehicle@@YAXPAURPCParameters@@@Z DD 019930522H
	DD	01H
	DD	FLAT:__unwindtable$?ScrRespawnVehicle@@YAXPAURPCParameters@@@Z
	DD	2 DUP(00H)
	DD	2 DUP(00H)
	DD	00H
	DD	01H
xdata$x	ENDS
;	COMDAT xdata$x
xdata$x	SEGMENT
__unwindtable$?ScrGivePlayerWeapon@@YAXPAURPCParameters@@@Z DD 0ffffffffH
	DD	FLAT:__unwindfunclet$?ScrGivePlayerWeapon@@YAXPAURPCParameters@@@Z$0
__ehfuncinfo$?ScrGivePlayerWeapon@@YAXPAURPCParameters@@@Z DD 019930522H
	DD	01H
	DD	FLAT:__unwindtable$?ScrGivePlayerWeapon@@YAXPAURPCParameters@@@Z
	DD	2 DUP(00H)
	DD	2 DUP(00H)
	DD	00H
	DD	01H
xdata$x	ENDS
;	COMDAT xdata$x
xdata$x	SEGMENT
__unwindtable$?ScrSetPlayerFacingAngle@@YAXPAURPCParameters@@@Z DD 0ffffffffH
	DD	FLAT:__unwindfunclet$?ScrSetPlayerFacingAngle@@YAXPAURPCParameters@@@Z$0
__ehfuncinfo$?ScrSetPlayerFacingAngle@@YAXPAURPCParameters@@@Z DD 019930522H
	DD	01H
	DD	FLAT:__unwindtable$?ScrSetPlayerFacingAngle@@YAXPAURPCParameters@@@Z
	DD	2 DUP(00H)
	DD	2 DUP(00H)
	DD	00H
	DD	01H
xdata$x	ENDS
;	COMDAT xdata$x
xdata$x	SEGMENT
__unwindtable$?ScrHaveSomeMoney@@YAXPAURPCParameters@@@Z DD 0ffffffffH
	DD	FLAT:__unwindfunclet$?ScrHaveSomeMoney@@YAXPAURPCParameters@@@Z$0
__ehfuncinfo$?ScrHaveSomeMoney@@YAXPAURPCParameters@@@Z DD 019930522H
	DD	01H
	DD	FLAT:__unwindtable$?ScrHaveSomeMoney@@YAXPAURPCParameters@@@Z
	DD	2 DUP(00H)
	DD	2 DUP(00H)
	DD	00H
	DD	01H
xdata$x	ENDS
;	COMDAT xdata$x
xdata$x	SEGMENT
__unwindtable$?ScrSetWorldBounds@@YAXPAURPCParameters@@@Z DD 0ffffffffH
	DD	FLAT:__unwindfunclet$?ScrSetWorldBounds@@YAXPAURPCParameters@@@Z$0
__ehfuncinfo$?ScrSetWorldBounds@@YAXPAURPCParameters@@@Z DD 019930522H
	DD	01H
	DD	FLAT:__unwindtable$?ScrSetWorldBounds@@YAXPAURPCParameters@@@Z
	DD	2 DUP(00H)
	DD	2 DUP(00H)
	DD	00H
	DD	01H
xdata$x	ENDS
;	COMDAT xdata$x
xdata$x	SEGMENT
__unwindtable$?ScrPlaySound@@YAXPAURPCParameters@@@Z DD 0ffffffffH
	DD	FLAT:__unwindfunclet$?ScrPlaySound@@YAXPAURPCParameters@@@Z$0
__ehfuncinfo$?ScrPlaySound@@YAXPAURPCParameters@@@Z DD 019930522H
	DD	01H
	DD	FLAT:__unwindtable$?ScrPlaySound@@YAXPAURPCParameters@@@Z
	DD	2 DUP(00H)
	DD	2 DUP(00H)
	DD	00H
	DD	01H
xdata$x	ENDS
;	COMDAT xdata$x
xdata$x	SEGMENT
__unwindtable$?ScrTogglePlayerControllable@@YAXPAURPCParameters@@@Z DD 0ffffffffH
	DD	FLAT:__unwindfunclet$?ScrTogglePlayerControllable@@YAXPAURPCParameters@@@Z$0
__ehfuncinfo$?ScrTogglePlayerControllable@@YAXPAURPCParameters@@@Z DD 019930522H
	DD	01H
	DD	FLAT:__unwindtable$?ScrTogglePlayerControllable@@YAXPAURPCParameters@@@Z
	DD	2 DUP(00H)
	DD	2 DUP(00H)
	DD	00H
	DD	01H
xdata$x	ENDS
;	COMDAT xdata$x
xdata$x	SEGMENT
__unwindtable$?ScrLinkVehicle@@YAXPAURPCParameters@@@Z DD 0ffffffffH
	DD	FLAT:__unwindfunclet$?ScrLinkVehicle@@YAXPAURPCParameters@@@Z$0
__ehfuncinfo$?ScrLinkVehicle@@YAXPAURPCParameters@@@Z DD 019930522H
	DD	01H
	DD	FLAT:__unwindtable$?ScrLinkVehicle@@YAXPAURPCParameters@@@Z
	DD	2 DUP(00H)
	DD	2 DUP(00H)
	DD	00H
	DD	01H
xdata$x	ENDS
;	COMDAT xdata$x
xdata$x	SEGMENT
__unwindtable$?ScrVehicleParams@@YAXPAURPCParameters@@@Z DD 0ffffffffH
	DD	FLAT:__unwindfunclet$?ScrVehicleParams@@YAXPAURPCParameters@@@Z$0
__ehfuncinfo$?ScrVehicleParams@@YAXPAURPCParameters@@@Z DD 019930522H
	DD	01H
	DD	FLAT:__unwindtable$?ScrVehicleParams@@YAXPAURPCParameters@@@Z
	DD	2 DUP(00H)
	DD	2 DUP(00H)
	DD	00H
	DD	01H
xdata$x	ENDS
;	COMDAT xdata$x
xdata$x	SEGMENT
__unwindtable$?ScrSetVehicleZAngle@@YAXPAURPCParameters@@@Z DD 0ffffffffH
	DD	FLAT:__unwindfunclet$?ScrSetVehicleZAngle@@YAXPAURPCParameters@@@Z$0
__ehfuncinfo$?ScrSetVehicleZAngle@@YAXPAURPCParameters@@@Z DD 019930522H
	DD	01H
	DD	FLAT:__unwindtable$?ScrSetVehicleZAngle@@YAXPAURPCParameters@@@Z
	DD	2 DUP(00H)
	DD	2 DUP(00H)
	DD	00H
	DD	01H
xdata$x	ENDS
;	COMDAT xdata$x
xdata$x	SEGMENT
__unwindtable$?ScrSetVehiclePos@@YAXPAURPCParameters@@@Z DD 0ffffffffH
	DD	FLAT:__unwindfunclet$?ScrSetVehiclePos@@YAXPAURPCParameters@@@Z$0
__ehfuncinfo$?ScrSetVehiclePos@@YAXPAURPCParameters@@@Z DD 019930522H
	DD	01H
	DD	FLAT:__unwindtable$?ScrSetVehiclePos@@YAXPAURPCParameters@@@Z
	DD	2 DUP(00H)
	DD	2 DUP(00H)
	DD	00H
	DD	01H
xdata$x	ENDS
;	COMDAT xdata$x
xdata$x	SEGMENT
__unwindtable$?ScrSetCameraLookAt@@YAXPAURPCParameters@@@Z DD 0ffffffffH
	DD	FLAT:__unwindfunclet$?ScrSetCameraLookAt@@YAXPAURPCParameters@@@Z$0
__ehfuncinfo$?ScrSetCameraLookAt@@YAXPAURPCParameters@@@Z DD 019930522H
	DD	01H
	DD	FLAT:__unwindtable$?ScrSetCameraLookAt@@YAXPAURPCParameters@@@Z
	DD	2 DUP(00H)
	DD	2 DUP(00H)
	DD	00H
	DD	01H
xdata$x	ENDS
;	COMDAT xdata$x
xdata$x	SEGMENT
__unwindtable$?ScrSetCameraPos@@YAXPAURPCParameters@@@Z DD 0ffffffffH
	DD	FLAT:__unwindfunclet$?ScrSetCameraPos@@YAXPAURPCParameters@@@Z$0
__ehfuncinfo$?ScrSetCameraPos@@YAXPAURPCParameters@@@Z DD 019930522H
	DD	01H
	DD	FLAT:__unwindtable$?ScrSetCameraPos@@YAXPAURPCParameters@@@Z
	DD	2 DUP(00H)
	DD	2 DUP(00H)
	DD	00H
	DD	01H
xdata$x	ENDS
;	COMDAT xdata$x
xdata$x	SEGMENT
__unwindtable$?ScrSetInterior@@YAXPAURPCParameters@@@Z DD 0ffffffffH
	DD	FLAT:__unwindfunclet$?ScrSetInterior@@YAXPAURPCParameters@@@Z$0
__ehfuncinfo$?ScrSetInterior@@YAXPAURPCParameters@@@Z DD 019930522H
	DD	01H
	DD	FLAT:__unwindtable$?ScrSetInterior@@YAXPAURPCParameters@@@Z
	DD	2 DUP(00H)
	DD	2 DUP(00H)
	DD	00H
	DD	01H
xdata$x	ENDS
;	COMDAT xdata$x
xdata$x	SEGMENT
__unwindtable$?ScrDisplayGameText@@YAXPAURPCParameters@@@Z DD 0ffffffffH
	DD	FLAT:__unwindfunclet$?ScrDisplayGameText@@YAXPAURPCParameters@@@Z$0
__ehfuncinfo$?ScrDisplayGameText@@YAXPAURPCParameters@@@Z DD 019930522H
	DD	01H
	DD	FLAT:__unwindtable$?ScrDisplayGameText@@YAXPAURPCParameters@@@Z
	DD	2 DUP(00H)
	DD	2 DUP(00H)
	DD	00H
	DD	01H
xdata$x	ENDS
;	COMDAT xdata$x
xdata$x	SEGMENT
__unwindtable$?ScrSetPlayerColor@@YAXPAURPCParameters@@@Z DD 0ffffffffH
	DD	FLAT:__unwindfunclet$?ScrSetPlayerColor@@YAXPAURPCParameters@@@Z$0
__ehfuncinfo$?ScrSetPlayerColor@@YAXPAURPCParameters@@@Z DD 019930522H
	DD	01H
	DD	FLAT:__unwindtable$?ScrSetPlayerColor@@YAXPAURPCParameters@@@Z
	DD	2 DUP(00H)
	DD	2 DUP(00H)
	DD	00H
	DD	01H
xdata$x	ENDS
;	COMDAT xdata$x
xdata$x	SEGMENT
__unwindtable$?ScrRemovePlayerFromVehicle@@YAXPAURPCParameters@@@Z DD 0ffffffffH
	DD	FLAT:__unwindfunclet$?ScrRemovePlayerFromVehicle@@YAXPAURPCParameters@@@Z$0
__ehfuncinfo$?ScrRemovePlayerFromVehicle@@YAXPAURPCParameters@@@Z DD 019930522H
	DD	01H
	DD	FLAT:__unwindtable$?ScrRemovePlayerFromVehicle@@YAXPAURPCParameters@@@Z
	DD	2 DUP(00H)
	DD	2 DUP(00H)
	DD	00H
	DD	01H
xdata$x	ENDS
;	COMDAT xdata$x
xdata$x	SEGMENT
__unwindtable$?ScrPutPlayerInVehicle@@YAXPAURPCParameters@@@Z DD 0ffffffffH
	DD	FLAT:__unwindfunclet$?ScrPutPlayerInVehicle@@YAXPAURPCParameters@@@Z$0
__ehfuncinfo$?ScrPutPlayerInVehicle@@YAXPAURPCParameters@@@Z DD 019930522H
	DD	01H
	DD	FLAT:__unwindtable$?ScrPutPlayerInVehicle@@YAXPAURPCParameters@@@Z
	DD	2 DUP(00H)
	DD	2 DUP(00H)
	DD	00H
	DD	01H
xdata$x	ENDS
;	COMDAT xdata$x
xdata$x	SEGMENT
__unwindtable$?ScrSetPlayerHealth@@YAXPAURPCParameters@@@Z DD 0ffffffffH
	DD	FLAT:__unwindfunclet$?ScrSetPlayerHealth@@YAXPAURPCParameters@@@Z$0
__ehfuncinfo$?ScrSetPlayerHealth@@YAXPAURPCParameters@@@Z DD 019930522H
	DD	01H
	DD	FLAT:__unwindtable$?ScrSetPlayerHealth@@YAXPAURPCParameters@@@Z
	DD	2 DUP(00H)
	DD	2 DUP(00H)
	DD	00H
	DD	01H
xdata$x	ENDS
;	COMDAT xdata$x
xdata$x	SEGMENT
__unwindtable$?ScrSetPlayerPosFindZ@@YAXPAURPCParameters@@@Z DD 0ffffffffH
	DD	FLAT:__unwindfunclet$?ScrSetPlayerPosFindZ@@YAXPAURPCParameters@@@Z$0
__ehfuncinfo$?ScrSetPlayerPosFindZ@@YAXPAURPCParameters@@@Z DD 019930522H
	DD	01H
	DD	FLAT:__unwindtable$?ScrSetPlayerPosFindZ@@YAXPAURPCParameters@@@Z
	DD	2 DUP(00H)
	DD	2 DUP(00H)
	DD	00H
	DD	01H
xdata$x	ENDS
;	COMDAT xdata$x
xdata$x	SEGMENT
__unwindtable$?ScrSetPlayerPos@@YAXPAURPCParameters@@@Z DD 0ffffffffH
	DD	FLAT:__unwindfunclet$?ScrSetPlayerPos@@YAXPAURPCParameters@@@Z$0
__ehfuncinfo$?ScrSetPlayerPos@@YAXPAURPCParameters@@@Z DD 019930522H
	DD	01H
	DD	FLAT:__unwindtable$?ScrSetPlayerPos@@YAXPAURPCParameters@@@Z
	DD	2 DUP(00H)
	DD	2 DUP(00H)
	DD	00H
	DD	01H
xdata$x	ENDS
;	COMDAT xdata$x
xdata$x	SEGMENT
__unwindtable$?ScrSetPlayerSkin@@YAXPAURPCParameters@@@Z DD 0ffffffffH
	DD	FLAT:__unwindfunclet$?ScrSetPlayerSkin@@YAXPAURPCParameters@@@Z$0
__ehfuncinfo$?ScrSetPlayerSkin@@YAXPAURPCParameters@@@Z DD 019930522H
	DD	01H
	DD	FLAT:__unwindtable$?ScrSetPlayerSkin@@YAXPAURPCParameters@@@Z
	DD	2 DUP(00H)
	DD	2 DUP(00H)
	DD	00H
	DD	01H
xdata$x	ENDS
;	COMDAT xdata$x
xdata$x	SEGMENT
__unwindtable$?ScrSetPlayerName@@YAXPAURPCParameters@@@Z DD 0ffffffffH
	DD	FLAT:__unwindfunclet$?ScrSetPlayerName@@YAXPAURPCParameters@@@Z$0
__ehfuncinfo$?ScrSetPlayerName@@YAXPAURPCParameters@@@Z DD 019930522H
	DD	01H
	DD	FLAT:__unwindtable$?ScrSetPlayerName@@YAXPAURPCParameters@@@Z
	DD	2 DUP(00H)
	DD	2 DUP(00H)
	DD	00H
	DD	01H
xdata$x	ENDS
;	COMDAT xdata$x
xdata$x	SEGMENT
__unwindtable$?ScrSetPlayerTeam@@YAXPAURPCParameters@@@Z DD 0ffffffffH
	DD	FLAT:__unwindfunclet$?ScrSetPlayerTeam@@YAXPAURPCParameters@@@Z$0
__ehfuncinfo$?ScrSetPlayerTeam@@YAXPAURPCParameters@@@Z DD 019930522H
	DD	01H
	DD	FLAT:__unwindtable$?ScrSetPlayerTeam@@YAXPAURPCParameters@@@Z
	DD	2 DUP(00H)
	DD	2 DUP(00H)
	DD	00H
	DD	01H
xdata$x	ENDS
;	COMDAT xdata$x
xdata$x	SEGMENT
__unwindtable$?ScrSetSpawnInfo@@YAXPAURPCParameters@@@Z DD 0ffffffffH
	DD	FLAT:__unwindfunclet$?ScrSetSpawnInfo@@YAXPAURPCParameters@@@Z$0
__ehfuncinfo$?ScrSetSpawnInfo@@YAXPAURPCParameters@@@Z DD 019930522H
	DD	01H
	DD	FLAT:__unwindtable$?ScrSetSpawnInfo@@YAXPAURPCParameters@@@Z
	DD	2 DUP(00H)
	DD	2 DUP(00H)
	DD	00H
	DD	01H
xdata$x	ENDS
;	COMDAT xdata$x
xdata$x	SEGMENT
__unwindtable$?FindPlayerPed@CGame@@QAEPAVCPlayerPed@@XZ DD 0ffffffffH
	DD	FLAT:__unwindfunclet$?FindPlayerPed@CGame@@QAEPAVCPlayerPed@@XZ$0
__ehfuncinfo$?FindPlayerPed@CGame@@QAEPAVCPlayerPed@@XZ DD 019930522H
	DD	01H
	DD	FLAT:__unwindtable$?FindPlayerPed@CGame@@QAEPAVCPlayerPed@@XZ
	DD	2 DUP(00H)
	DD	2 DUP(00H)
	DD	00H
	DD	01H
xdata$x	ENDS
; Function compile flags: /Odtp /RTCsu /ZI
; File z:\sampsrc\02xu1\saco\net\scriptrpc.cpp
;	COMDAT ?ScrEnableStuntBonus@@YAXPAURPCParameters@@@Z
_TEXT	SEGMENT
_bStuntBonusEnabled$ = -345				; size = 1
_bsData$ = -336						; size = 273
_sender$ = -52						; size = 6
_iBitLength$ = -36					; size = 4
_Data$ = -24						; size = 4
__$ArrayPad$ = -16					; size = 4
__$EHRec$ = -12						; size = 12
_rpcParams$ = 8						; size = 4
?ScrEnableStuntBonus@@YAXPAURPCParameters@@@Z PROC	; ScrEnableStuntBonus, COMDAT

; 1592 : {

	push	ebp
	mov	ebp, esp
	push	-1
	push	__ehhandler$?ScrEnableStuntBonus@@YAXPAURPCParameters@@@Z
	mov	eax, DWORD PTR fs:0
	push	eax
	sub	esp, 532				; 00000214H
	push	ebx
	push	esi
	push	edi
	lea	edi, DWORD PTR [ebp-544]
	mov	ecx, 133				; 00000085H
	mov	eax, -858993460				; ccccccccH
	rep stosd
	mov	eax, DWORD PTR ___security_cookie
	xor	eax, ebp
	mov	DWORD PTR __$ArrayPad$[ebp], eax
	push	eax
	lea	eax, DWORD PTR __$EHRec$[ebp]
	mov	DWORD PTR fs:0, eax

; 1593 : 	PCHAR Data = reinterpret_cast<PCHAR>(rpcParams->input);

	mov	eax, DWORD PTR _rpcParams$[ebp]
	mov	ecx, DWORD PTR [eax]
	mov	DWORD PTR _Data$[ebp], ecx

; 1594 : 	int iBitLength = rpcParams->numberOfBitsOfData;

	mov	eax, DWORD PTR _rpcParams$[ebp]
	mov	ecx, DWORD PTR [eax+4]
	mov	DWORD PTR _iBitLength$[ebp], ecx

; 1595 : 	PlayerID sender = rpcParams->sender;

	mov	eax, DWORD PTR _rpcParams$[ebp]
	add	eax, 8
	mov	ecx, DWORD PTR [eax]
	mov	DWORD PTR _sender$[ebp], ecx
	mov	dx, WORD PTR [eax+4]
	mov	WORD PTR _sender$[ebp+4], dx

; 1596 : 	RakNet::BitStream bsData(Data,(iBitLength/8)+1,false);

	push	0
	mov	eax, DWORD PTR _iBitLength$[ebp]
	cdq
	and	edx, 7
	add	eax, edx
	sar	eax, 3
	add	eax, 1
	push	eax
	mov	eax, DWORD PTR _Data$[ebp]
	push	eax
	lea	ecx, DWORD PTR _bsData$[ebp]
	call	??0BitStream@RakNet@@QAE@PADI_N@Z	; RakNet::BitStream::BitStream
	mov	DWORD PTR __$EHRec$[ebp+8], 0

; 1597 : 
; 1598 : 	bool bStuntBonusEnabled;
; 1599 : 	bsData.Read(bStuntBonusEnabled);

	lea	eax, DWORD PTR _bStuntBonusEnabled$[ebp]
	push	eax
	lea	ecx, DWORD PTR _bsData$[ebp]
	call	??$Read@_N@BitStream@RakNet@@QAE_NAA_N@Z ; RakNet::BitStream::Read<bool>

; 1600 : 	pGame->EnableStuntBonus(bStuntBonusEnabled);

	movzx	eax, BYTE PTR _bStuntBonusEnabled$[ebp]
	push	eax
	mov	ecx, DWORD PTR ?pGame@@3PAVCGame@@A	; pGame
	call	?EnableStuntBonus@CGame@@QAEX_N@Z	; CGame::EnableStuntBonus

; 1601 : }

	mov	DWORD PTR __$EHRec$[ebp+8], -1
	lea	ecx, DWORD PTR _bsData$[ebp]
	call	??1BitStream@RakNet@@QAE@XZ		; RakNet::BitStream::~BitStream
	push	edx
	mov	ecx, ebp
	push	eax
	lea	edx, DWORD PTR $LN9@ScrEnableS
	call	@_RTC_CheckStackVars@8
	pop	eax
	pop	edx
	mov	ecx, DWORD PTR __$EHRec$[ebp]
	mov	DWORD PTR fs:0, ecx
	pop	ecx
	pop	edi
	pop	esi
	pop	ebx
	mov	ecx, DWORD PTR __$ArrayPad$[ebp]
	xor	ecx, ebp
	call	@__security_check_cookie@4
	add	esp, 544				; 00000220H
	cmp	ebp, esp
	call	__RTC_CheckEsp
	mov	esp, ebp
	pop	ebp
	ret	0
	npad	3
$LN9@ScrEnableS:
	DD	3
	DD	$LN8@ScrEnableS
$LN8@ScrEnableS:
	DD	-52					; ffffffccH
	DD	6
	DD	$LN4@ScrEnableS
	DD	-336					; fffffeb0H
	DD	273					; 00000111H
	DD	$LN5@ScrEnableS
	DD	-345					; fffffea7H
	DD	1
	DD	$LN6@ScrEnableS
$LN6@ScrEnableS:
	DB	98					; 00000062H
	DB	83					; 00000053H
	DB	116					; 00000074H
	DB	117					; 00000075H
	DB	110					; 0000006eH
	DB	116					; 00000074H
	DB	66					; 00000042H
	DB	111					; 0000006fH
	DB	110					; 0000006eH
	DB	117					; 00000075H
	DB	115					; 00000073H
	DB	69					; 00000045H
	DB	110					; 0000006eH
	DB	97					; 00000061H
	DB	98					; 00000062H
	DB	108					; 0000006cH
	DB	101					; 00000065H
	DB	100					; 00000064H
	DB	0
$LN5@ScrEnableS:
	DB	98					; 00000062H
	DB	115					; 00000073H
	DB	68					; 00000044H
	DB	97					; 00000061H
	DB	116					; 00000074H
	DB	97					; 00000061H
	DB	0
$LN4@ScrEnableS:
	DB	115					; 00000073H
	DB	101					; 00000065H
	DB	110					; 0000006eH
	DB	100					; 00000064H
	DB	101					; 00000065H
	DB	114					; 00000072H
	DB	0
_TEXT	ENDS
;	COMDAT text$x
text$x	SEGMENT
__unwindfunclet$?ScrEnableStuntBonus@@YAXPAURPCParameters@@@Z$0:
	lea	ecx, DWORD PTR _bsData$[ebp]
	jmp	??1BitStream@RakNet@@QAE@XZ		; RakNet::BitStream::~BitStream
__ehhandler$?ScrEnableStuntBonus@@YAXPAURPCParameters@@@Z:
	mov	edx, DWORD PTR [esp+8]
	lea	eax, DWORD PTR [edx+12]
	mov	ecx, DWORD PTR [edx-548]
	xor	ecx, eax
	call	@__security_check_cookie@4
	mov	ecx, DWORD PTR [edx-4]
	xor	ecx, eax
	call	@__security_check_cookie@4
	mov	eax, OFFSET __ehfuncinfo$?ScrEnableStuntBonus@@YAXPAURPCParameters@@@Z
	jmp	___CxxFrameHandler3
text$x	ENDS
?ScrEnableStuntBonus@@YAXPAURPCParameters@@@Z ENDP	; ScrEnableStuntBonus
; Function compile flags: /Odtp /RTCsu /ZI
; File z:\sampsrc\02xu1\saco\net\scriptrpc.cpp
;	COMDAT ?ScrSetSpecialAction@@YAXPAURPCParameters@@@Z
_TEXT	SEGMENT
_pPool$ = -360						; size = 4
_byteSpecialAction$ = -345				; size = 1
_bsData$ = -336						; size = 273
_sender$ = -52						; size = 6
_iBitLength$ = -36					; size = 4
_Data$ = -24						; size = 4
__$ArrayPad$ = -16					; size = 4
__$EHRec$ = -12						; size = 12
_rpcParams$ = 8						; size = 4
?ScrSetSpecialAction@@YAXPAURPCParameters@@@Z PROC	; ScrSetSpecialAction, COMDAT

; 1576 : {

	push	ebp
	mov	ebp, esp
	push	-1
	push	__ehhandler$?ScrSetSpecialAction@@YAXPAURPCParameters@@@Z
	mov	eax, DWORD PTR fs:0
	push	eax
	sub	esp, 544				; 00000220H
	push	ebx
	push	esi
	push	edi
	lea	edi, DWORD PTR [ebp-556]
	mov	ecx, 136				; 00000088H
	mov	eax, -858993460				; ccccccccH
	rep stosd
	mov	eax, DWORD PTR ___security_cookie
	xor	eax, ebp
	mov	DWORD PTR __$ArrayPad$[ebp], eax
	push	eax
	lea	eax, DWORD PTR __$EHRec$[ebp]
	mov	DWORD PTR fs:0, eax

; 1577 : 	PCHAR Data = reinterpret_cast<PCHAR>(rpcParams->input);

	mov	eax, DWORD PTR _rpcParams$[ebp]
	mov	ecx, DWORD PTR [eax]
	mov	DWORD PTR _Data$[ebp], ecx

; 1578 : 	int iBitLength = rpcParams->numberOfBitsOfData;

	mov	eax, DWORD PTR _rpcParams$[ebp]
	mov	ecx, DWORD PTR [eax+4]
	mov	DWORD PTR _iBitLength$[ebp], ecx

; 1579 : 	PlayerID sender = rpcParams->sender;

	mov	eax, DWORD PTR _rpcParams$[ebp]
	add	eax, 8
	mov	ecx, DWORD PTR [eax]
	mov	DWORD PTR _sender$[ebp], ecx
	mov	dx, WORD PTR [eax+4]
	mov	WORD PTR _sender$[ebp+4], dx

; 1580 : 	RakNet::BitStream bsData(Data,(iBitLength/8)+1,false);

	push	0
	mov	eax, DWORD PTR _iBitLength$[ebp]
	cdq
	and	edx, 7
	add	eax, edx
	sar	eax, 3
	add	eax, 1
	push	eax
	mov	eax, DWORD PTR _Data$[ebp]
	push	eax
	lea	ecx, DWORD PTR _bsData$[ebp]
	call	??0BitStream@RakNet@@QAE@PADI_N@Z	; RakNet::BitStream::BitStream
	mov	DWORD PTR __$EHRec$[ebp+8], 0

; 1581 : 
; 1582 : 	BYTE byteSpecialAction;
; 1583 : 	bsData.Read(byteSpecialAction);

	lea	eax, DWORD PTR _byteSpecialAction$[ebp]
	push	eax
	lea	ecx, DWORD PTR _bsData$[ebp]
	call	??$Read@E@BitStream@RakNet@@QAE_NAAE@Z	; RakNet::BitStream::Read<unsigned char>

; 1584 : 	
; 1585 : 	CPlayerPool *pPool=pNetGame->GetPlayerPool();

	mov	ecx, DWORD PTR ?pNetGame@@3PAVCNetGame@@A ; pNetGame
	call	?GetPlayerPool@CNetGame@@QAEPAVCPlayerPool@@XZ ; CNetGame::GetPlayerPool
	mov	DWORD PTR _pPool$[ebp], eax

; 1586 : 	if(pPool) pPool->GetLocalPlayer()->ApplySpecialAction(byteSpecialAction);

	cmp	DWORD PTR _pPool$[ebp], 0
	je	SHORT $LN1@ScrSetSpec
	movzx	eax, BYTE PTR _byteSpecialAction$[ebp]
	push	eax
	mov	ecx, DWORD PTR _pPool$[ebp]
	call	?GetLocalPlayer@CPlayerPool@@QAEPAVCLocalPlayer@@XZ ; CPlayerPool::GetLocalPlayer
	mov	ecx, eax
	call	?ApplySpecialAction@CLocalPlayer@@QAEXE@Z ; CLocalPlayer::ApplySpecialAction
$LN1@ScrSetSpec:

; 1587 : }

	mov	DWORD PTR __$EHRec$[ebp+8], -1
	lea	ecx, DWORD PTR _bsData$[ebp]
	call	??1BitStream@RakNet@@QAE@XZ		; RakNet::BitStream::~BitStream
	push	edx
	mov	ecx, ebp
	push	eax
	lea	edx, DWORD PTR $LN10@ScrSetSpec
	call	@_RTC_CheckStackVars@8
	pop	eax
	pop	edx
	mov	ecx, DWORD PTR __$EHRec$[ebp]
	mov	DWORD PTR fs:0, ecx
	pop	ecx
	pop	edi
	pop	esi
	pop	ebx
	mov	ecx, DWORD PTR __$ArrayPad$[ebp]
	xor	ecx, ebp
	call	@__security_check_cookie@4
	add	esp, 556				; 0000022cH
	cmp	ebp, esp
	call	__RTC_CheckEsp
	mov	esp, ebp
	pop	ebp
	ret	0
	npad	2
$LN10@ScrSetSpec:
	DD	3
	DD	$LN9@ScrSetSpec
$LN9@ScrSetSpec:
	DD	-52					; ffffffccH
	DD	6
	DD	$LN5@ScrSetSpec
	DD	-336					; fffffeb0H
	DD	273					; 00000111H
	DD	$LN6@ScrSetSpec
	DD	-345					; fffffea7H
	DD	1
	DD	$LN7@ScrSetSpec
$LN7@ScrSetSpec:
	DB	98					; 00000062H
	DB	121					; 00000079H
	DB	116					; 00000074H
	DB	101					; 00000065H
	DB	83					; 00000053H
	DB	112					; 00000070H
	DB	101					; 00000065H
	DB	99					; 00000063H
	DB	105					; 00000069H
	DB	97					; 00000061H
	DB	108					; 0000006cH
	DB	65					; 00000041H
	DB	99					; 00000063H
	DB	116					; 00000074H
	DB	105					; 00000069H
	DB	111					; 0000006fH
	DB	110					; 0000006eH
	DB	0
$LN6@ScrSetSpec:
	DB	98					; 00000062H
	DB	115					; 00000073H
	DB	68					; 00000044H
	DB	97					; 00000061H
	DB	116					; 00000074H
	DB	97					; 00000061H
	DB	0
$LN5@ScrSetSpec:
	DB	115					; 00000073H
	DB	101					; 00000065H
	DB	110					; 0000006eH
	DB	100					; 00000064H
	DB	101					; 00000065H
	DB	114					; 00000072H
	DB	0
_TEXT	ENDS
;	COMDAT text$x
text$x	SEGMENT
__unwindfunclet$?ScrSetSpecialAction@@YAXPAURPCParameters@@@Z$0:
	lea	ecx, DWORD PTR _bsData$[ebp]
	jmp	??1BitStream@RakNet@@QAE@XZ		; RakNet::BitStream::~BitStream
__ehhandler$?ScrSetSpecialAction@@YAXPAURPCParameters@@@Z:
	mov	edx, DWORD PTR [esp+8]
	lea	eax, DWORD PTR [edx+12]
	mov	ecx, DWORD PTR [edx-560]
	xor	ecx, eax
	call	@__security_check_cookie@4
	mov	ecx, DWORD PTR [edx-4]
	xor	ecx, eax
	call	@__security_check_cookie@4
	mov	eax, OFFSET __ehfuncinfo$?ScrSetSpecialAction@@YAXPAURPCParameters@@@Z
	jmp	___CxxFrameHandler3
text$x	ENDS
?ScrSetSpecialAction@@YAXPAURPCParameters@@@Z ENDP	; ScrSetSpecialAction
; Function compile flags: /Odtp /RTCsu /ZI
; File z:\sampsrc\02xu1\saco\net\scriptrpc.cpp
;	COMDAT ?ScrClearAnimations@@YAXPAURPCParameters@@@Z
_TEXT	SEGMENT
_pPlayerPed$ = -448					; size = 4
_pPlayerPool$ = -436					; size = 4
_mat$ = -424						; size = 64
_bytePlayerID$ = -349					; size = 1
_bsData$ = -340						; size = 273
_sender$ = -56						; size = 6
_iBitLength$ = -40					; size = 4
_Data$ = -28						; size = 4
__$ArrayPad$ = -20					; size = 4
__$EHRec$ = -16						; size = 16
_rpcParams$ = 8						; size = 4
?ScrClearAnimations@@YAXPAURPCParameters@@@Z PROC	; ScrClearAnimations, COMDAT

; 1537 : {

	push	ebp
	mov	ebp, esp
	push	-1
	push	__ehhandler$?ScrClearAnimations@@YAXPAURPCParameters@@@Z
	mov	eax, DWORD PTR fs:0
	push	eax
	push	ecx
	sub	esp, 628				; 00000274H
	push	ebx
	push	esi
	push	edi
	lea	edi, DWORD PTR [ebp-644]
	mov	ecx, 157				; 0000009dH
	mov	eax, -858993460				; ccccccccH
	rep stosd
	mov	eax, DWORD PTR ___security_cookie
	xor	eax, ebp
	mov	DWORD PTR __$ArrayPad$[ebp], eax
	push	eax
	lea	eax, DWORD PTR __$EHRec$[ebp+4]
	mov	DWORD PTR fs:0, eax
	mov	DWORD PTR __$EHRec$[ebp], esp

; 1538 : 	PCHAR Data = reinterpret_cast<PCHAR>(rpcParams->input);

	mov	eax, DWORD PTR _rpcParams$[ebp]
	mov	ecx, DWORD PTR [eax]
	mov	DWORD PTR _Data$[ebp], ecx

; 1539 : 	int iBitLength = rpcParams->numberOfBitsOfData;

	mov	eax, DWORD PTR _rpcParams$[ebp]
	mov	ecx, DWORD PTR [eax+4]
	mov	DWORD PTR _iBitLength$[ebp], ecx

; 1540 : 	PlayerID sender = rpcParams->sender;

	mov	eax, DWORD PTR _rpcParams$[ebp]
	add	eax, 8
	mov	ecx, DWORD PTR [eax]
	mov	DWORD PTR _sender$[ebp], ecx
	mov	dx, WORD PTR [eax+4]
	mov	WORD PTR _sender$[ebp+4], dx

; 1541 : 	RakNet::BitStream bsData(Data,(iBitLength/8)+1,false);

	push	0
	mov	eax, DWORD PTR _iBitLength$[ebp]
	cdq
	and	edx, 7
	add	eax, edx
	sar	eax, 3
	add	eax, 1
	push	eax
	mov	eax, DWORD PTR _Data$[ebp]
	push	eax
	lea	ecx, DWORD PTR _bsData$[ebp]
	call	??0BitStream@RakNet@@QAE@PADI_N@Z	; RakNet::BitStream::BitStream
	mov	DWORD PTR __$EHRec$[ebp+12], 0

; 1542 : 
; 1543 : 	BYTE bytePlayerID;
; 1544 : 	bsData.Read(bytePlayerID);

	lea	eax, DWORD PTR _bytePlayerID$[ebp]
	push	eax
	lea	ecx, DWORD PTR _bsData$[ebp]
	call	??$Read@E@BitStream@RakNet@@QAE_NAAE@Z	; RakNet::BitStream::Read<unsigned char>

; 1545 : 	MATRIX4X4 mat;
; 1546 : 
; 1547 : 	CPlayerPool *pPlayerPool=NULL;

	mov	DWORD PTR _pPlayerPool$[ebp], 0

; 1548 : 	CPlayerPed *pPlayerPed=NULL;

	mov	DWORD PTR _pPlayerPed$[ebp], 0

; 1549 : 
; 1550 : 	pPlayerPool = pNetGame->GetPlayerPool();

	mov	ecx, DWORD PTR ?pNetGame@@3PAVCNetGame@@A ; pNetGame
	call	?GetPlayerPool@CNetGame@@QAEPAVCPlayerPool@@XZ ; CNetGame::GetPlayerPool
	mov	DWORD PTR _pPlayerPool$[ebp], eax

; 1551 : 
; 1552 : 	if(pPlayerPool) {

	cmp	DWORD PTR _pPlayerPool$[ebp], 0
	je	$LN12@ScrClearAn

; 1553 : 		// Get the CPlayerPed for this player
; 1554 : 		if(bytePlayerID == pPlayerPool->GetLocalPlayerID()) {

	mov	ecx, DWORD PTR _pPlayerPool$[ebp]
	call	?GetLocalPlayerID@CPlayerPool@@QAEEXZ	; CPlayerPool::GetLocalPlayerID
	movzx	eax, al
	movzx	ecx, BYTE PTR _bytePlayerID$[ebp]
	cmp	ecx, eax
	jne	SHORT $LN5@ScrClearAn

; 1555 : 			pPlayerPed = pPlayerPool->GetLocalPlayer()->GetPlayerPed();

	mov	ecx, DWORD PTR _pPlayerPool$[ebp]
	call	?GetLocalPlayer@CPlayerPool@@QAEPAVCLocalPlayer@@XZ ; CPlayerPool::GetLocalPlayer
	mov	ecx, eax
	call	?GetPlayerPed@CLocalPlayer@@QAEPAVCPlayerPed@@XZ ; CLocalPlayer::GetPlayerPed
	mov	DWORD PTR _pPlayerPed$[ebp], eax

; 1556 : 		}
; 1557 : 		else {

	jmp	SHORT $LN3@ScrClearAn
$LN5@ScrClearAn:

; 1558 : 			if(pPlayerPool->GetSlotState(bytePlayerID)) {

	movzx	eax, BYTE PTR _bytePlayerID$[ebp]
	push	eax
	mov	ecx, DWORD PTR _pPlayerPool$[ebp]
	call	?GetSlotState@CPlayerPool@@QAEHE@Z	; CPlayerPool::GetSlotState
	test	eax, eax
	je	SHORT $LN3@ScrClearAn

; 1559 : 				pPlayerPed = pPlayerPool->GetAt(bytePlayerID)->GetPlayerPed();

	movzx	eax, BYTE PTR _bytePlayerID$[ebp]
	push	eax
	mov	ecx, DWORD PTR _pPlayerPool$[ebp]
	call	?GetAt@CPlayerPool@@QAEPAVCRemotePlayer@@E@Z ; CPlayerPool::GetAt
	mov	ecx, eax
	call	?GetPlayerPed@CRemotePlayer@@QAEPAVCPlayerPed@@XZ ; CRemotePlayer::GetPlayerPed
	mov	DWORD PTR _pPlayerPed$[ebp], eax
$LN3@ScrClearAn:

; 1560 : 			}
; 1561 : 		}
; 1562 : 		if(pPlayerPed) {

	cmp	DWORD PTR _pPlayerPed$[ebp], 0
	je	SHORT $LN12@ScrClearAn

; 1563 : 			try {

	mov	BYTE PTR __$EHRec$[ebp+12], 1

; 1564 : 				
; 1565 : 				pPlayerPed->GetMatrix(&mat);

	lea	eax, DWORD PTR _mat$[ebp]
	push	eax
	mov	ecx, DWORD PTR _pPlayerPed$[ebp]
	call	?GetMatrix@CEntity@@QAEXPAU_MATRIX4X4@@@Z ; CEntity::GetMatrix

; 1566 : 				pPlayerPed->TeleportTo(mat.pos.X,mat.pos.Y,mat.pos.Z);

	push	ecx
	movss	xmm0, DWORD PTR _mat$[ebp+56]
	movss	DWORD PTR [esp], xmm0
	push	ecx
	movss	xmm0, DWORD PTR _mat$[ebp+52]
	movss	DWORD PTR [esp], xmm0
	push	ecx
	movss	xmm0, DWORD PTR _mat$[ebp+48]
	movss	DWORD PTR [esp], xmm0
	mov	ecx, DWORD PTR _pPlayerPed$[ebp]
	call	?TeleportTo@CEntity@@QAEXMMM@Z		; CEntity::TeleportTo
	jmp	SHORT $LN9@ScrClearAn
__catch$?ScrClearAnimations@@YAXPAURPCParameters@@@Z$0:

; 1567 : 
; 1568 : 			} catch(...) {}

	mov	eax, $LN13@ScrClearAn
	ret	0
$LN9@ScrClearAn:
	mov	DWORD PTR __$EHRec$[ebp+12], 0
	jmp	SHORT $LN12@ScrClearAn
$LN13@ScrClearAn:
	mov	DWORD PTR __$EHRec$[ebp+12], 0
$LN12@ScrClearAn:

; 1569 : 		}
; 1570 : 	}
; 1571 : }

	mov	DWORD PTR __$EHRec$[ebp+12], -1
	lea	ecx, DWORD PTR _bsData$[ebp]
	call	??1BitStream@RakNet@@QAE@XZ		; RakNet::BitStream::~BitStream
	push	edx
	mov	ecx, ebp
	push	eax
	lea	edx, DWORD PTR $LN20@ScrClearAn
	call	@_RTC_CheckStackVars@8
	pop	eax
	pop	edx
	mov	ecx, DWORD PTR __$EHRec$[ebp+4]
	mov	DWORD PTR fs:0, ecx
	pop	ecx
	pop	edi
	pop	esi
	pop	ebx
	mov	ecx, DWORD PTR __$ArrayPad$[ebp]
	xor	ecx, ebp
	call	@__security_check_cookie@4
	add	esp, 644				; 00000284H
	cmp	ebp, esp
	call	__RTC_CheckEsp
	mov	esp, ebp
	pop	ebp
	ret	0
	npad	2
$LN20@ScrClearAn:
	DD	4
	DD	$LN19@ScrClearAn
$LN19@ScrClearAn:
	DD	-56					; ffffffc8H
	DD	6
	DD	$LN14@ScrClearAn
	DD	-340					; fffffeacH
	DD	273					; 00000111H
	DD	$LN15@ScrClearAn
	DD	-349					; fffffea3H
	DD	1
	DD	$LN16@ScrClearAn
	DD	-424					; fffffe58H
	DD	64					; 00000040H
	DD	$LN17@ScrClearAn
$LN17@ScrClearAn:
	DB	109					; 0000006dH
	DB	97					; 00000061H
	DB	116					; 00000074H
	DB	0
$LN16@ScrClearAn:
	DB	98					; 00000062H
	DB	121					; 00000079H
	DB	116					; 00000074H
	DB	101					; 00000065H
	DB	80					; 00000050H
	DB	108					; 0000006cH
	DB	97					; 00000061H
	DB	121					; 00000079H
	DB	101					; 00000065H
	DB	114					; 00000072H
	DB	73					; 00000049H
	DB	68					; 00000044H
	DB	0
$LN15@ScrClearAn:
	DB	98					; 00000062H
	DB	115					; 00000073H
	DB	68					; 00000044H
	DB	97					; 00000061H
	DB	116					; 00000074H
	DB	97					; 00000061H
	DB	0
$LN14@ScrClearAn:
	DB	115					; 00000073H
	DB	101					; 00000065H
	DB	110					; 0000006eH
	DB	100					; 00000064H
	DB	101					; 00000065H
	DB	114					; 00000072H
	DB	0
_TEXT	ENDS
;	COMDAT text$x
text$x	SEGMENT
__unwindfunclet$?ScrClearAnimations@@YAXPAURPCParameters@@@Z$2:
	lea	ecx, DWORD PTR _bsData$[ebp]
	jmp	??1BitStream@RakNet@@QAE@XZ		; RakNet::BitStream::~BitStream
__ehhandler$?ScrClearAnimations@@YAXPAURPCParameters@@@Z:
	mov	edx, DWORD PTR [esp+8]
	lea	eax, DWORD PTR [edx+12]
	mov	ecx, DWORD PTR [edx-648]
	xor	ecx, eax
	call	@__security_check_cookie@4
	mov	ecx, DWORD PTR [edx-8]
	xor	ecx, eax
	call	@__security_check_cookie@4
	mov	eax, OFFSET __ehfuncinfo$?ScrClearAnimations@@YAXPAURPCParameters@@@Z
	jmp	___CxxFrameHandler3
text$x	ENDS
?ScrClearAnimations@@YAXPAURPCParameters@@@Z ENDP	; ScrClearAnimations
; Function compile flags: /Odtp /RTCsu /ZI
; File z:\sampsrc\02xu1\saco\net\scriptrpc.cpp
;	COMDAT ?ScrApplyAnimation@@YAXPAURPCParameters@@@Z
_TEXT	SEGMENT
$T2 = -1216						; size = 4
$T3 = -1204						; size = 4
_pPlayerPed$ = -1000					; size = 4
_pPlayerPool$ = -988					; size = 4
_opt5$ = -976						; size = 4
_opt4$ = -961						; size = 1
_opt3$ = -949						; size = 1
_opt2$ = -937						; size = 1
_opt1$ = -925						; size = 1
_fS$ = -916						; size = 4
_szAnimName$ = -904					; size = 256
_szAnimLib$ = -640					; size = 256
_byteAnimNameLen$ = -373				; size = 1
_byteAnimLibLen$ = -361					; size = 1
_bytePlayerID$ = -349					; size = 1
_bsData$ = -340						; size = 273
_sender$ = -56						; size = 6
_iBitLength$ = -40					; size = 4
_Data$ = -28						; size = 4
__$ArrayPad$ = -20					; size = 4
__$EHRec$ = -16						; size = 16
_rpcParams$ = 8						; size = 4
?ScrApplyAnimation@@YAXPAURPCParameters@@@Z PROC	; ScrApplyAnimation, COMDAT

; 1478 : {

	push	ebp
	mov	ebp, esp
	push	-1
	push	__ehhandler$?ScrApplyAnimation@@YAXPAURPCParameters@@@Z
	mov	eax, DWORD PTR fs:0
	push	eax
	push	ecx
	sub	esp, 1204				; 000004b4H
	push	ebx
	push	esi
	push	edi
	lea	edi, DWORD PTR [ebp-1220]
	mov	ecx, 301				; 0000012dH
	mov	eax, -858993460				; ccccccccH
	rep stosd
	mov	eax, DWORD PTR ___security_cookie
	xor	eax, ebp
	mov	DWORD PTR __$ArrayPad$[ebp], eax
	push	eax
	lea	eax, DWORD PTR __$EHRec$[ebp+4]
	mov	DWORD PTR fs:0, eax
	mov	DWORD PTR __$EHRec$[ebp], esp

; 1479 : 	PCHAR Data = reinterpret_cast<PCHAR>(rpcParams->input);

	mov	eax, DWORD PTR _rpcParams$[ebp]
	mov	ecx, DWORD PTR [eax]
	mov	DWORD PTR _Data$[ebp], ecx

; 1480 : 	int iBitLength = rpcParams->numberOfBitsOfData;

	mov	eax, DWORD PTR _rpcParams$[ebp]
	mov	ecx, DWORD PTR [eax+4]
	mov	DWORD PTR _iBitLength$[ebp], ecx

; 1481 : 	PlayerID sender = rpcParams->sender;

	mov	eax, DWORD PTR _rpcParams$[ebp]
	add	eax, 8
	mov	ecx, DWORD PTR [eax]
	mov	DWORD PTR _sender$[ebp], ecx
	mov	dx, WORD PTR [eax+4]
	mov	WORD PTR _sender$[ebp+4], dx

; 1482 : 	RakNet::BitStream bsData(Data,(iBitLength/8)+1,false);

	push	0
	mov	eax, DWORD PTR _iBitLength$[ebp]
	cdq
	and	edx, 7
	add	eax, edx
	sar	eax, 3
	add	eax, 1
	push	eax
	mov	eax, DWORD PTR _Data$[ebp]
	push	eax
	lea	ecx, DWORD PTR _bsData$[ebp]
	call	??0BitStream@RakNet@@QAE@PADI_N@Z	; RakNet::BitStream::BitStream
	mov	DWORD PTR __$EHRec$[ebp+12], 0

; 1483 : 
; 1484 : 	BYTE bytePlayerID;
; 1485 : 	BYTE byteAnimLibLen;
; 1486 : 	BYTE byteAnimNameLen;
; 1487 : 	char szAnimLib[256];
; 1488 : 	char szAnimName[256];
; 1489 : 	float fS;
; 1490 : 	bool opt1,opt2,opt3,opt4;
; 1491 : 	int  opt5;
; 1492 : 	CPlayerPool *pPlayerPool=NULL;

	mov	DWORD PTR _pPlayerPool$[ebp], 0

; 1493 : 	CPlayerPed *pPlayerPed=NULL;

	mov	DWORD PTR _pPlayerPed$[ebp], 0

; 1494 : 
; 1495 : 	memset(szAnimLib,0,256);

	push	256					; 00000100H
	push	0
	lea	eax, DWORD PTR _szAnimLib$[ebp]
	push	eax
	call	_memset
	add	esp, 12					; 0000000cH

; 1496 : 	memset(szAnimName,0,256);

	push	256					; 00000100H
	push	0
	lea	eax, DWORD PTR _szAnimName$[ebp]
	push	eax
	call	_memset
	add	esp, 12					; 0000000cH

; 1497 : 
; 1498 : 	bsData.Read(bytePlayerID);

	lea	eax, DWORD PTR _bytePlayerID$[ebp]
	push	eax
	lea	ecx, DWORD PTR _bsData$[ebp]
	call	??$Read@E@BitStream@RakNet@@QAE_NAAE@Z	; RakNet::BitStream::Read<unsigned char>

; 1499 : 	bsData.Read(byteAnimLibLen);

	lea	eax, DWORD PTR _byteAnimLibLen$[ebp]
	push	eax
	lea	ecx, DWORD PTR _bsData$[ebp]
	call	??$Read@E@BitStream@RakNet@@QAE_NAAE@Z	; RakNet::BitStream::Read<unsigned char>

; 1500 : 	bsData.Read(szAnimLib,byteAnimLibLen);

	movzx	eax, BYTE PTR _byteAnimLibLen$[ebp]
	push	eax
	lea	ecx, DWORD PTR _szAnimLib$[ebp]
	push	ecx
	lea	ecx, DWORD PTR _bsData$[ebp]
	call	?Read@BitStream@RakNet@@QAE_NPADH@Z	; RakNet::BitStream::Read

; 1501 : 	bsData.Read(byteAnimNameLen);

	lea	eax, DWORD PTR _byteAnimNameLen$[ebp]
	push	eax
	lea	ecx, DWORD PTR _bsData$[ebp]
	call	??$Read@E@BitStream@RakNet@@QAE_NAAE@Z	; RakNet::BitStream::Read<unsigned char>

; 1502 : 	bsData.Read(szAnimName,byteAnimNameLen);

	movzx	eax, BYTE PTR _byteAnimNameLen$[ebp]
	push	eax
	lea	ecx, DWORD PTR _szAnimName$[ebp]
	push	ecx
	lea	ecx, DWORD PTR _bsData$[ebp]
	call	?Read@BitStream@RakNet@@QAE_NPADH@Z	; RakNet::BitStream::Read

; 1503 : 	bsData.Read(fS);

	lea	eax, DWORD PTR _fS$[ebp]
	push	eax
	lea	ecx, DWORD PTR _bsData$[ebp]
	call	??$Read@M@BitStream@RakNet@@QAE_NAAM@Z	; RakNet::BitStream::Read<float>

; 1504 : 	bsData.Read(opt1);

	lea	eax, DWORD PTR _opt1$[ebp]
	push	eax
	lea	ecx, DWORD PTR _bsData$[ebp]
	call	??$Read@_N@BitStream@RakNet@@QAE_NAA_N@Z ; RakNet::BitStream::Read<bool>

; 1505 : 	bsData.Read(opt2);

	lea	eax, DWORD PTR _opt2$[ebp]
	push	eax
	lea	ecx, DWORD PTR _bsData$[ebp]
	call	??$Read@_N@BitStream@RakNet@@QAE_NAA_N@Z ; RakNet::BitStream::Read<bool>

; 1506 : 	bsData.Read(opt3);

	lea	eax, DWORD PTR _opt3$[ebp]
	push	eax
	lea	ecx, DWORD PTR _bsData$[ebp]
	call	??$Read@_N@BitStream@RakNet@@QAE_NAA_N@Z ; RakNet::BitStream::Read<bool>

; 1507 : 	bsData.Read(opt4);

	lea	eax, DWORD PTR _opt4$[ebp]
	push	eax
	lea	ecx, DWORD PTR _bsData$[ebp]
	call	??$Read@_N@BitStream@RakNet@@QAE_NAA_N@Z ; RakNet::BitStream::Read<bool>

; 1508 : 	bsData.Read(opt5);

	lea	eax, DWORD PTR _opt5$[ebp]
	push	eax
	lea	ecx, DWORD PTR _bsData$[ebp]
	call	??$Read@H@BitStream@RakNet@@QAE_NAAH@Z	; RakNet::BitStream::Read<int>

; 1509 : 
; 1510 : 	szAnimLib[byteAnimLibLen] = '\0';

	movzx	eax, BYTE PTR _byteAnimLibLen$[ebp]
	mov	DWORD PTR $T2[ebp], eax
	cmp	DWORD PTR $T2[ebp], 256			; 00000100H
	jae	SHORT $LN9@ScrApplyAn
	jmp	SHORT $LN10@ScrApplyAn
$LN9@ScrApplyAn:
	call	___report_rangecheckfailure
$LN10@ScrApplyAn:
	mov	ecx, DWORD PTR $T2[ebp]
	mov	BYTE PTR _szAnimLib$[ebp+ecx], 0

; 1511 : 	szAnimName[byteAnimNameLen] = '\0';

	movzx	eax, BYTE PTR _byteAnimNameLen$[ebp]
	mov	DWORD PTR $T3[ebp], eax
	cmp	DWORD PTR $T3[ebp], 256			; 00000100H
	jae	SHORT $LN11@ScrApplyAn
	jmp	SHORT $LN12@ScrApplyAn
$LN11@ScrApplyAn:
	call	___report_rangecheckfailure
$LN12@ScrApplyAn:
	mov	ecx, DWORD PTR $T3[ebp]
	mov	BYTE PTR _szAnimName$[ebp+ecx], 0

; 1512 : 
; 1513 : 	pPlayerPool = pNetGame->GetPlayerPool();

	mov	ecx, DWORD PTR ?pNetGame@@3PAVCNetGame@@A ; pNetGame
	call	?GetPlayerPool@CNetGame@@QAEPAVCPlayerPool@@XZ ; CNetGame::GetPlayerPool
	mov	DWORD PTR _pPlayerPool$[ebp], eax

; 1514 : 
; 1515 : 	if(pPlayerPool) {

	cmp	DWORD PTR _pPlayerPool$[ebp], 0
	je	$LN16@ScrApplyAn

; 1516 : 		// Get the CPlayerPed for this player
; 1517 : 		if(bytePlayerID == pPlayerPool->GetLocalPlayerID()) {

	mov	ecx, DWORD PTR _pPlayerPool$[ebp]
	call	?GetLocalPlayerID@CPlayerPool@@QAEEXZ	; CPlayerPool::GetLocalPlayerID
	movzx	eax, al
	movzx	ecx, BYTE PTR _bytePlayerID$[ebp]
	cmp	ecx, eax
	jne	SHORT $LN5@ScrApplyAn

; 1518 : 			pPlayerPed = pPlayerPool->GetLocalPlayer()->GetPlayerPed();

	mov	ecx, DWORD PTR _pPlayerPool$[ebp]
	call	?GetLocalPlayer@CPlayerPool@@QAEPAVCLocalPlayer@@XZ ; CPlayerPool::GetLocalPlayer
	mov	ecx, eax
	call	?GetPlayerPed@CLocalPlayer@@QAEPAVCPlayerPed@@XZ ; CLocalPlayer::GetPlayerPed
	mov	DWORD PTR _pPlayerPed$[ebp], eax

; 1519 : 		}
; 1520 : 		else {

	jmp	SHORT $LN3@ScrApplyAn
$LN5@ScrApplyAn:

; 1521 : 			if(pPlayerPool->GetSlotState(bytePlayerID)) {

	movzx	eax, BYTE PTR _bytePlayerID$[ebp]
	push	eax
	mov	ecx, DWORD PTR _pPlayerPool$[ebp]
	call	?GetSlotState@CPlayerPool@@QAEHE@Z	; CPlayerPool::GetSlotState
	test	eax, eax
	je	SHORT $LN3@ScrApplyAn

; 1522 : 				pPlayerPed = pPlayerPool->GetAt(bytePlayerID)->GetPlayerPed();

	movzx	eax, BYTE PTR _bytePlayerID$[ebp]
	push	eax
	mov	ecx, DWORD PTR _pPlayerPool$[ebp]
	call	?GetAt@CPlayerPool@@QAEPAVCRemotePlayer@@E@Z ; CPlayerPool::GetAt
	mov	ecx, eax
	call	?GetPlayerPed@CRemotePlayer@@QAEPAVCPlayerPed@@XZ ; CRemotePlayer::GetPlayerPed
	mov	DWORD PTR _pPlayerPed$[ebp], eax
$LN3@ScrApplyAn:

; 1523 : 			}
; 1524 : 		}
; 1525 : 		if(pPlayerPed) {

	cmp	DWORD PTR _pPlayerPed$[ebp], 0
	je	SHORT $LN16@ScrApplyAn

; 1526 : 			try {

	mov	BYTE PTR __$EHRec$[ebp+12], 1

; 1527 : 				pPlayerPed->ApplyAnimation(szAnimName,szAnimLib,fS,
; 1528 : 					(int)opt1,(int)opt2,(int)opt3,(int)opt4,(int)opt5);

	mov	eax, DWORD PTR _opt5$[ebp]
	push	eax
	movzx	ecx, BYTE PTR _opt4$[ebp]
	push	ecx
	movzx	edx, BYTE PTR _opt3$[ebp]
	push	edx
	movzx	eax, BYTE PTR _opt2$[ebp]
	push	eax
	movzx	ecx, BYTE PTR _opt1$[ebp]
	push	ecx
	push	ecx
	movss	xmm0, DWORD PTR _fS$[ebp]
	movss	DWORD PTR [esp], xmm0
	lea	edx, DWORD PTR _szAnimLib$[ebp]
	push	edx
	lea	eax, DWORD PTR _szAnimName$[ebp]
	push	eax
	mov	ecx, DWORD PTR _pPlayerPed$[ebp]
	call	?ApplyAnimation@CPlayerPed@@QAEXPAD0MHHHHH@Z ; CPlayerPed::ApplyAnimation
	jmp	SHORT $LN13@ScrApplyAn
__catch$?ScrApplyAnimation@@YAXPAURPCParameters@@@Z$0:

; 1529 : 			} catch(...) {}

	mov	eax, $LN17@ScrApplyAn
	ret	0
$LN13@ScrApplyAn:
	mov	DWORD PTR __$EHRec$[ebp+12], 0
	jmp	SHORT $LN16@ScrApplyAn
$LN17@ScrApplyAn:
	mov	DWORD PTR __$EHRec$[ebp+12], 0
$LN16@ScrApplyAn:

; 1530 : 		}
; 1531 : 	}
; 1532 : }

	mov	DWORD PTR __$EHRec$[ebp+12], -1
	lea	ecx, DWORD PTR _bsData$[ebp]
	call	??1BitStream@RakNet@@QAE@XZ		; RakNet::BitStream::~BitStream
$LN7@ScrApplyAn:
	push	edx
	mov	ecx, ebp
	push	eax
	lea	edx, DWORD PTR $LN33@ScrApplyAn
	call	@_RTC_CheckStackVars@8
	pop	eax
	pop	edx
	mov	ecx, DWORD PTR __$EHRec$[ebp+4]
	mov	DWORD PTR fs:0, ecx
	pop	ecx
	pop	edi
	pop	esi
	pop	ebx
	mov	ecx, DWORD PTR __$ArrayPad$[ebp]
	xor	ecx, ebp
	call	@__security_check_cookie@4
	add	esp, 1220				; 000004c4H
	cmp	ebp, esp
	call	__RTC_CheckEsp
	mov	esp, ebp
	pop	ebp
	ret	0
	npad	3
$LN33@ScrApplyAn:
	DD	13					; 0000000dH
	DD	$LN32@ScrApplyAn
$LN32@ScrApplyAn:
	DD	-56					; ffffffc8H
	DD	6
	DD	$LN18@ScrApplyAn
	DD	-340					; fffffeacH
	DD	273					; 00000111H
	DD	$LN19@ScrApplyAn
	DD	-349					; fffffea3H
	DD	1
	DD	$LN20@ScrApplyAn
	DD	-361					; fffffe97H
	DD	1
	DD	$LN21@ScrApplyAn
	DD	-373					; fffffe8bH
	DD	1
	DD	$LN22@ScrApplyAn
	DD	-640					; fffffd80H
	DD	256					; 00000100H
	DD	$LN23@ScrApplyAn
	DD	-904					; fffffc78H
	DD	256					; 00000100H
	DD	$LN24@ScrApplyAn
	DD	-916					; fffffc6cH
	DD	4
	DD	$LN25@ScrApplyAn
	DD	-925					; fffffc63H
	DD	1
	DD	$LN26@ScrApplyAn
	DD	-937					; fffffc57H
	DD	1
	DD	$LN27@ScrApplyAn
	DD	-949					; fffffc4bH
	DD	1
	DD	$LN28@ScrApplyAn
	DD	-961					; fffffc3fH
	DD	1
	DD	$LN29@ScrApplyAn
	DD	-976					; fffffc30H
	DD	4
	DD	$LN30@ScrApplyAn
$LN30@ScrApplyAn:
	DB	111					; 0000006fH
	DB	112					; 00000070H
	DB	116					; 00000074H
	DB	53					; 00000035H
	DB	0
$LN29@ScrApplyAn:
	DB	111					; 0000006fH
	DB	112					; 00000070H
	DB	116					; 00000074H
	DB	52					; 00000034H
	DB	0
$LN28@ScrApplyAn:
	DB	111					; 0000006fH
	DB	112					; 00000070H
	DB	116					; 00000074H
	DB	51					; 00000033H
	DB	0
$LN27@ScrApplyAn:
	DB	111					; 0000006fH
	DB	112					; 00000070H
	DB	116					; 00000074H
	DB	50					; 00000032H
	DB	0
$LN26@ScrApplyAn:
	DB	111					; 0000006fH
	DB	112					; 00000070H
	DB	116					; 00000074H
	DB	49					; 00000031H
	DB	0
$LN25@ScrApplyAn:
	DB	102					; 00000066H
	DB	83					; 00000053H
	DB	0
$LN24@ScrApplyAn:
	DB	115					; 00000073H
	DB	122					; 0000007aH
	DB	65					; 00000041H
	DB	110					; 0000006eH
	DB	105					; 00000069H
	DB	109					; 0000006dH
	DB	78					; 0000004eH
	DB	97					; 00000061H
	DB	109					; 0000006dH
	DB	101					; 00000065H
	DB	0
$LN23@ScrApplyAn:
	DB	115					; 00000073H
	DB	122					; 0000007aH
	DB	65					; 00000041H
	DB	110					; 0000006eH
	DB	105					; 00000069H
	DB	109					; 0000006dH
	DB	76					; 0000004cH
	DB	105					; 00000069H
	DB	98					; 00000062H
	DB	0
$LN22@ScrApplyAn:
	DB	98					; 00000062H
	DB	121					; 00000079H
	DB	116					; 00000074H
	DB	101					; 00000065H
	DB	65					; 00000041H
	DB	110					; 0000006eH
	DB	105					; 00000069H
	DB	109					; 0000006dH
	DB	78					; 0000004eH
	DB	97					; 00000061H
	DB	109					; 0000006dH
	DB	101					; 00000065H
	DB	76					; 0000004cH
	DB	101					; 00000065H
	DB	110					; 0000006eH
	DB	0
$LN21@ScrApplyAn:
	DB	98					; 00000062H
	DB	121					; 00000079H
	DB	116					; 00000074H
	DB	101					; 00000065H
	DB	65					; 00000041H
	DB	110					; 0000006eH
	DB	105					; 00000069H
	DB	109					; 0000006dH
	DB	76					; 0000004cH
	DB	105					; 00000069H
	DB	98					; 00000062H
	DB	76					; 0000004cH
	DB	101					; 00000065H
	DB	110					; 0000006eH
	DB	0
$LN20@ScrApplyAn:
	DB	98					; 00000062H
	DB	121					; 00000079H
	DB	116					; 00000074H
	DB	101					; 00000065H
	DB	80					; 00000050H
	DB	108					; 0000006cH
	DB	97					; 00000061H
	DB	121					; 00000079H
	DB	101					; 00000065H
	DB	114					; 00000072H
	DB	73					; 00000049H
	DB	68					; 00000044H
	DB	0
$LN19@ScrApplyAn:
	DB	98					; 00000062H
	DB	115					; 00000073H
	DB	68					; 00000044H
	DB	97					; 00000061H
	DB	116					; 00000074H
	DB	97					; 00000061H
	DB	0
$LN18@ScrApplyAn:
	DB	115					; 00000073H
	DB	101					; 00000065H
	DB	110					; 0000006eH
	DB	100					; 00000064H
	DB	101					; 00000065H
	DB	114					; 00000072H
	DB	0
_TEXT	ENDS
;	COMDAT text$x
text$x	SEGMENT
__unwindfunclet$?ScrApplyAnimation@@YAXPAURPCParameters@@@Z$2:
	lea	ecx, DWORD PTR _bsData$[ebp]
	jmp	??1BitStream@RakNet@@QAE@XZ		; RakNet::BitStream::~BitStream
__ehhandler$?ScrApplyAnimation@@YAXPAURPCParameters@@@Z:
	mov	edx, DWORD PTR [esp+8]
	lea	eax, DWORD PTR [edx+12]
	mov	ecx, DWORD PTR [edx-1224]
	xor	ecx, eax
	call	@__security_check_cookie@4
	mov	ecx, DWORD PTR [edx-8]
	xor	ecx, eax
	call	@__security_check_cookie@4
	mov	eax, OFFSET __ehfuncinfo$?ScrApplyAnimation@@YAXPAURPCParameters@@@Z
	jmp	___CxxFrameHandler3
text$x	ENDS
?ScrApplyAnimation@@YAXPAURPCParameters@@@Z ENDP	; ScrApplyAnimation
; Function compile flags: /Odtp /RTCsu /ZI
; File z:\sampsrc\02xu1\saco\net\scriptrpc.cpp
;	COMDAT ?ScrStopFlashGangZone@@YAXPAURPCParameters@@@Z
_TEXT	SEGMENT
_wZoneID$2 = -360					; size = 2
_pGangZonePool$ = -348					; size = 4
_bsData$ = -336						; size = 273
_sender$ = -52						; size = 6
_iBitLength$ = -36					; size = 4
_Data$ = -24						; size = 4
__$ArrayPad$ = -16					; size = 4
__$EHRec$ = -12						; size = 12
_rpcParams$ = 8						; size = 4
?ScrStopFlashGangZone@@YAXPAURPCParameters@@@Z PROC	; ScrStopFlashGangZone, COMDAT

; 1460 : {

	push	ebp
	mov	ebp, esp
	push	-1
	push	__ehhandler$?ScrStopFlashGangZone@@YAXPAURPCParameters@@@Z
	mov	eax, DWORD PTR fs:0
	push	eax
	sub	esp, 544				; 00000220H
	push	ebx
	push	esi
	push	edi
	lea	edi, DWORD PTR [ebp-556]
	mov	ecx, 136				; 00000088H
	mov	eax, -858993460				; ccccccccH
	rep stosd
	mov	eax, DWORD PTR ___security_cookie
	xor	eax, ebp
	mov	DWORD PTR __$ArrayPad$[ebp], eax
	push	eax
	lea	eax, DWORD PTR __$EHRec$[ebp]
	mov	DWORD PTR fs:0, eax

; 1461 : 	PCHAR Data = reinterpret_cast<PCHAR>(rpcParams->input);

	mov	eax, DWORD PTR _rpcParams$[ebp]
	mov	ecx, DWORD PTR [eax]
	mov	DWORD PTR _Data$[ebp], ecx

; 1462 : 	int iBitLength = rpcParams->numberOfBitsOfData;

	mov	eax, DWORD PTR _rpcParams$[ebp]
	mov	ecx, DWORD PTR [eax+4]
	mov	DWORD PTR _iBitLength$[ebp], ecx

; 1463 : 	PlayerID sender = rpcParams->sender;

	mov	eax, DWORD PTR _rpcParams$[ebp]
	add	eax, 8
	mov	ecx, DWORD PTR [eax]
	mov	DWORD PTR _sender$[ebp], ecx
	mov	dx, WORD PTR [eax+4]
	mov	WORD PTR _sender$[ebp+4], dx

; 1464 : 
; 1465 : 	RakNet::BitStream bsData(Data,(iBitLength/8)+1,false);

	push	0
	mov	eax, DWORD PTR _iBitLength$[ebp]
	cdq
	and	edx, 7
	add	eax, edx
	sar	eax, 3
	add	eax, 1
	push	eax
	mov	eax, DWORD PTR _Data$[ebp]
	push	eax
	lea	ecx, DWORD PTR _bsData$[ebp]
	call	??0BitStream@RakNet@@QAE@PADI_N@Z	; RakNet::BitStream::BitStream
	mov	DWORD PTR __$EHRec$[ebp+8], 0

; 1466 : 	CGangZonePool* pGangZonePool = pNetGame->GetGangZonePool();

	mov	ecx, DWORD PTR ?pNetGame@@3PAVCNetGame@@A ; pNetGame
	call	?GetGangZonePool@CNetGame@@QAEPAVCGangZonePool@@XZ ; CNetGame::GetGangZonePool
	mov	DWORD PTR _pGangZonePool$[ebp], eax

; 1467 : 	if (pGangZonePool)

	cmp	DWORD PTR _pGangZonePool$[ebp], 0
	je	SHORT $LN1@ScrStopFla

; 1468 : 	{
; 1469 : 		WORD wZoneID;
; 1470 : 		bsData.Read(wZoneID);

	lea	eax, DWORD PTR _wZoneID$2[ebp]
	push	eax
	lea	ecx, DWORD PTR _bsData$[ebp]
	call	??$Read@G@BitStream@RakNet@@QAE_NAAG@Z	; RakNet::BitStream::Read<unsigned short>

; 1471 : 		pGangZonePool->StopFlash(wZoneID);

	movzx	eax, WORD PTR _wZoneID$2[ebp]
	push	eax
	mov	ecx, DWORD PTR _pGangZonePool$[ebp]
	call	?StopFlash@CGangZonePool@@QAEXG@Z	; CGangZonePool::StopFlash
$LN1@ScrStopFla:

; 1472 : 	}
; 1473 : }

	mov	DWORD PTR __$EHRec$[ebp+8], -1
	lea	ecx, DWORD PTR _bsData$[ebp]
	call	??1BitStream@RakNet@@QAE@XZ		; RakNet::BitStream::~BitStream
	push	edx
	mov	ecx, ebp
	push	eax
	lea	edx, DWORD PTR $LN10@ScrStopFla
	call	@_RTC_CheckStackVars@8
	pop	eax
	pop	edx
	mov	ecx, DWORD PTR __$EHRec$[ebp]
	mov	DWORD PTR fs:0, ecx
	pop	ecx
	pop	edi
	pop	esi
	pop	ebx
	mov	ecx, DWORD PTR __$ArrayPad$[ebp]
	xor	ecx, ebp
	call	@__security_check_cookie@4
	add	esp, 556				; 0000022cH
	cmp	ebp, esp
	call	__RTC_CheckEsp
	mov	esp, ebp
	pop	ebp
	ret	0
	npad	1
$LN10@ScrStopFla:
	DD	3
	DD	$LN9@ScrStopFla
$LN9@ScrStopFla:
	DD	-52					; ffffffccH
	DD	6
	DD	$LN5@ScrStopFla
	DD	-336					; fffffeb0H
	DD	273					; 00000111H
	DD	$LN6@ScrStopFla
	DD	-360					; fffffe98H
	DD	2
	DD	$LN7@ScrStopFla
$LN7@ScrStopFla:
	DB	119					; 00000077H
	DB	90					; 0000005aH
	DB	111					; 0000006fH
	DB	110					; 0000006eH
	DB	101					; 00000065H
	DB	73					; 00000049H
	DB	68					; 00000044H
	DB	0
$LN6@ScrStopFla:
	DB	98					; 00000062H
	DB	115					; 00000073H
	DB	68					; 00000044H
	DB	97					; 00000061H
	DB	116					; 00000074H
	DB	97					; 00000061H
	DB	0
$LN5@ScrStopFla:
	DB	115					; 00000073H
	DB	101					; 00000065H
	DB	110					; 0000006eH
	DB	100					; 00000064H
	DB	101					; 00000065H
	DB	114					; 00000072H
	DB	0
_TEXT	ENDS
;	COMDAT text$x
text$x	SEGMENT
__unwindfunclet$?ScrStopFlashGangZone@@YAXPAURPCParameters@@@Z$0:
	lea	ecx, DWORD PTR _bsData$[ebp]
	jmp	??1BitStream@RakNet@@QAE@XZ		; RakNet::BitStream::~BitStream
__ehhandler$?ScrStopFlashGangZone@@YAXPAURPCParameters@@@Z:
	mov	edx, DWORD PTR [esp+8]
	lea	eax, DWORD PTR [edx+12]
	mov	ecx, DWORD PTR [edx-560]
	xor	ecx, eax
	call	@__security_check_cookie@4
	mov	ecx, DWORD PTR [edx-4]
	xor	ecx, eax
	call	@__security_check_cookie@4
	mov	eax, OFFSET __ehfuncinfo$?ScrStopFlashGangZone@@YAXPAURPCParameters@@@Z
	jmp	___CxxFrameHandler3
text$x	ENDS
?ScrStopFlashGangZone@@YAXPAURPCParameters@@@Z ENDP	; ScrStopFlashGangZone
; Function compile flags: /Odtp /RTCsu /ZI
; File z:\sampsrc\02xu1\saco\net\scriptrpc.cpp
;	COMDAT ?ScrFlashGangZone@@YAXPAURPCParameters@@@Z
_TEXT	SEGMENT
_dwColor$2 = -372					; size = 4
_wZoneID$3 = -360					; size = 2
_pGangZonePool$ = -348					; size = 4
_bsData$ = -336						; size = 273
_sender$ = -52						; size = 6
_iBitLength$ = -36					; size = 4
_Data$ = -24						; size = 4
__$ArrayPad$ = -16					; size = 4
__$EHRec$ = -12						; size = 12
_rpcParams$ = 8						; size = 4
?ScrFlashGangZone@@YAXPAURPCParameters@@@Z PROC		; ScrFlashGangZone, COMDAT

; 1442 : {

	push	ebp
	mov	ebp, esp
	push	-1
	push	__ehhandler$?ScrFlashGangZone@@YAXPAURPCParameters@@@Z
	mov	eax, DWORD PTR fs:0
	push	eax
	sub	esp, 556				; 0000022cH
	push	ebx
	push	esi
	push	edi
	lea	edi, DWORD PTR [ebp-568]
	mov	ecx, 139				; 0000008bH
	mov	eax, -858993460				; ccccccccH
	rep stosd
	mov	eax, DWORD PTR ___security_cookie
	xor	eax, ebp
	mov	DWORD PTR __$ArrayPad$[ebp], eax
	push	eax
	lea	eax, DWORD PTR __$EHRec$[ebp]
	mov	DWORD PTR fs:0, eax

; 1443 : 	PCHAR Data = reinterpret_cast<PCHAR>(rpcParams->input);

	mov	eax, DWORD PTR _rpcParams$[ebp]
	mov	ecx, DWORD PTR [eax]
	mov	DWORD PTR _Data$[ebp], ecx

; 1444 : 	int iBitLength = rpcParams->numberOfBitsOfData;

	mov	eax, DWORD PTR _rpcParams$[ebp]
	mov	ecx, DWORD PTR [eax+4]
	mov	DWORD PTR _iBitLength$[ebp], ecx

; 1445 : 	PlayerID sender = rpcParams->sender;

	mov	eax, DWORD PTR _rpcParams$[ebp]
	add	eax, 8
	mov	ecx, DWORD PTR [eax]
	mov	DWORD PTR _sender$[ebp], ecx
	mov	dx, WORD PTR [eax+4]
	mov	WORD PTR _sender$[ebp+4], dx

; 1446 : 
; 1447 : 	RakNet::BitStream bsData(Data,(iBitLength/8)+1,false);

	push	0
	mov	eax, DWORD PTR _iBitLength$[ebp]
	cdq
	and	edx, 7
	add	eax, edx
	sar	eax, 3
	add	eax, 1
	push	eax
	mov	eax, DWORD PTR _Data$[ebp]
	push	eax
	lea	ecx, DWORD PTR _bsData$[ebp]
	call	??0BitStream@RakNet@@QAE@PADI_N@Z	; RakNet::BitStream::BitStream
	mov	DWORD PTR __$EHRec$[ebp+8], 0

; 1448 : 	CGangZonePool* pGangZonePool = pNetGame->GetGangZonePool();

	mov	ecx, DWORD PTR ?pNetGame@@3PAVCNetGame@@A ; pNetGame
	call	?GetGangZonePool@CNetGame@@QAEPAVCGangZonePool@@XZ ; CNetGame::GetGangZonePool
	mov	DWORD PTR _pGangZonePool$[ebp], eax

; 1449 : 	if (pGangZonePool)

	cmp	DWORD PTR _pGangZonePool$[ebp], 0
	je	SHORT $LN1@ScrFlashGa

; 1450 : 	{
; 1451 : 		WORD wZoneID;
; 1452 : 		DWORD dwColor;
; 1453 : 		bsData.Read(wZoneID);

	lea	eax, DWORD PTR _wZoneID$3[ebp]
	push	eax
	lea	ecx, DWORD PTR _bsData$[ebp]
	call	??$Read@G@BitStream@RakNet@@QAE_NAAG@Z	; RakNet::BitStream::Read<unsigned short>

; 1454 : 		bsData.Read(dwColor);

	lea	eax, DWORD PTR _dwColor$2[ebp]
	push	eax
	lea	ecx, DWORD PTR _bsData$[ebp]
	call	??$Read@K@BitStream@RakNet@@QAE_NAAK@Z	; RakNet::BitStream::Read<unsigned long>

; 1455 : 		pGangZonePool->Flash(wZoneID, dwColor);

	mov	eax, DWORD PTR _dwColor$2[ebp]
	push	eax
	movzx	ecx, WORD PTR _wZoneID$3[ebp]
	push	ecx
	mov	ecx, DWORD PTR _pGangZonePool$[ebp]
	call	?Flash@CGangZonePool@@QAEXGK@Z		; CGangZonePool::Flash
$LN1@ScrFlashGa:

; 1456 : 	}
; 1457 : }

	mov	DWORD PTR __$EHRec$[ebp+8], -1
	lea	ecx, DWORD PTR _bsData$[ebp]
	call	??1BitStream@RakNet@@QAE@XZ		; RakNet::BitStream::~BitStream
	push	edx
	mov	ecx, ebp
	push	eax
	lea	edx, DWORD PTR $LN11@ScrFlashGa
	call	@_RTC_CheckStackVars@8
	pop	eax
	pop	edx
	mov	ecx, DWORD PTR __$EHRec$[ebp]
	mov	DWORD PTR fs:0, ecx
	pop	ecx
	pop	edi
	pop	esi
	pop	ebx
	mov	ecx, DWORD PTR __$ArrayPad$[ebp]
	xor	ecx, ebp
	call	@__security_check_cookie@4
	add	esp, 568				; 00000238H
	cmp	ebp, esp
	call	__RTC_CheckEsp
	mov	esp, ebp
	pop	ebp
	ret	0
$LN11@ScrFlashGa:
	DD	4
	DD	$LN10@ScrFlashGa
$LN10@ScrFlashGa:
	DD	-52					; ffffffccH
	DD	6
	DD	$LN5@ScrFlashGa
	DD	-336					; fffffeb0H
	DD	273					; 00000111H
	DD	$LN6@ScrFlashGa
	DD	-360					; fffffe98H
	DD	2
	DD	$LN7@ScrFlashGa
	DD	-372					; fffffe8cH
	DD	4
	DD	$LN8@ScrFlashGa
$LN8@ScrFlashGa:
	DB	100					; 00000064H
	DB	119					; 00000077H
	DB	67					; 00000043H
	DB	111					; 0000006fH
	DB	108					; 0000006cH
	DB	111					; 0000006fH
	DB	114					; 00000072H
	DB	0
$LN7@ScrFlashGa:
	DB	119					; 00000077H
	DB	90					; 0000005aH
	DB	111					; 0000006fH
	DB	110					; 0000006eH
	DB	101					; 00000065H
	DB	73					; 00000049H
	DB	68					; 00000044H
	DB	0
$LN6@ScrFlashGa:
	DB	98					; 00000062H
	DB	115					; 00000073H
	DB	68					; 00000044H
	DB	97					; 00000061H
	DB	116					; 00000074H
	DB	97					; 00000061H
	DB	0
$LN5@ScrFlashGa:
	DB	115					; 00000073H
	DB	101					; 00000065H
	DB	110					; 0000006eH
	DB	100					; 00000064H
	DB	101					; 00000065H
	DB	114					; 00000072H
	DB	0
_TEXT	ENDS
;	COMDAT text$x
text$x	SEGMENT
__unwindfunclet$?ScrFlashGangZone@@YAXPAURPCParameters@@@Z$0:
	lea	ecx, DWORD PTR _bsData$[ebp]
	jmp	??1BitStream@RakNet@@QAE@XZ		; RakNet::BitStream::~BitStream
__ehhandler$?ScrFlashGangZone@@YAXPAURPCParameters@@@Z:
	mov	edx, DWORD PTR [esp+8]
	lea	eax, DWORD PTR [edx+12]
	mov	ecx, DWORD PTR [edx-572]
	xor	ecx, eax
	call	@__security_check_cookie@4
	mov	ecx, DWORD PTR [edx-4]
	xor	ecx, eax
	call	@__security_check_cookie@4
	mov	eax, OFFSET __ehfuncinfo$?ScrFlashGangZone@@YAXPAURPCParameters@@@Z
	jmp	___CxxFrameHandler3
text$x	ENDS
?ScrFlashGangZone@@YAXPAURPCParameters@@@Z ENDP		; ScrFlashGangZone
; Function compile flags: /Odtp /RTCsu /ZI
; File z:\sampsrc\02xu1\saco\net\scriptrpc.cpp
;	COMDAT ?ScrRemoveGangZone@@YAXPAURPCParameters@@@Z
_TEXT	SEGMENT
_wZoneID$2 = -360					; size = 2
_pGangZonePool$ = -348					; size = 4
_bsData$ = -336						; size = 273
_sender$ = -52						; size = 6
_iBitLength$ = -36					; size = 4
_Data$ = -24						; size = 4
__$ArrayPad$ = -16					; size = 4
__$EHRec$ = -12						; size = 12
_rpcParams$ = 8						; size = 4
?ScrRemoveGangZone@@YAXPAURPCParameters@@@Z PROC	; ScrRemoveGangZone, COMDAT

; 1426 : {

	push	ebp
	mov	ebp, esp
	push	-1
	push	__ehhandler$?ScrRemoveGangZone@@YAXPAURPCParameters@@@Z
	mov	eax, DWORD PTR fs:0
	push	eax
	sub	esp, 544				; 00000220H
	push	ebx
	push	esi
	push	edi
	lea	edi, DWORD PTR [ebp-556]
	mov	ecx, 136				; 00000088H
	mov	eax, -858993460				; ccccccccH
	rep stosd
	mov	eax, DWORD PTR ___security_cookie
	xor	eax, ebp
	mov	DWORD PTR __$ArrayPad$[ebp], eax
	push	eax
	lea	eax, DWORD PTR __$EHRec$[ebp]
	mov	DWORD PTR fs:0, eax

; 1427 : 	PCHAR Data = reinterpret_cast<PCHAR>(rpcParams->input);

	mov	eax, DWORD PTR _rpcParams$[ebp]
	mov	ecx, DWORD PTR [eax]
	mov	DWORD PTR _Data$[ebp], ecx

; 1428 : 	int iBitLength = rpcParams->numberOfBitsOfData;

	mov	eax, DWORD PTR _rpcParams$[ebp]
	mov	ecx, DWORD PTR [eax+4]
	mov	DWORD PTR _iBitLength$[ebp], ecx

; 1429 : 	PlayerID sender = rpcParams->sender;

	mov	eax, DWORD PTR _rpcParams$[ebp]
	add	eax, 8
	mov	ecx, DWORD PTR [eax]
	mov	DWORD PTR _sender$[ebp], ecx
	mov	dx, WORD PTR [eax+4]
	mov	WORD PTR _sender$[ebp+4], dx

; 1430 : 
; 1431 : 	RakNet::BitStream bsData(Data,(iBitLength/8)+1,false);

	push	0
	mov	eax, DWORD PTR _iBitLength$[ebp]
	cdq
	and	edx, 7
	add	eax, edx
	sar	eax, 3
	add	eax, 1
	push	eax
	mov	eax, DWORD PTR _Data$[ebp]
	push	eax
	lea	ecx, DWORD PTR _bsData$[ebp]
	call	??0BitStream@RakNet@@QAE@PADI_N@Z	; RakNet::BitStream::BitStream
	mov	DWORD PTR __$EHRec$[ebp+8], 0

; 1432 : 	CGangZonePool* pGangZonePool = pNetGame->GetGangZonePool();

	mov	ecx, DWORD PTR ?pNetGame@@3PAVCNetGame@@A ; pNetGame
	call	?GetGangZonePool@CNetGame@@QAEPAVCGangZonePool@@XZ ; CNetGame::GetGangZonePool
	mov	DWORD PTR _pGangZonePool$[ebp], eax

; 1433 : 	if (pGangZonePool)

	cmp	DWORD PTR _pGangZonePool$[ebp], 0
	je	SHORT $LN1@ScrRemoveG

; 1434 : 	{
; 1435 : 		WORD wZoneID;
; 1436 : 		bsData.Read(wZoneID);

	lea	eax, DWORD PTR _wZoneID$2[ebp]
	push	eax
	lea	ecx, DWORD PTR _bsData$[ebp]
	call	??$Read@G@BitStream@RakNet@@QAE_NAAG@Z	; RakNet::BitStream::Read<unsigned short>

; 1437 : 		pGangZonePool->Delete(wZoneID);

	movzx	eax, WORD PTR _wZoneID$2[ebp]
	push	eax
	mov	ecx, DWORD PTR _pGangZonePool$[ebp]
	call	?Delete@CGangZonePool@@QAEXG@Z		; CGangZonePool::Delete
$LN1@ScrRemoveG:

; 1438 : 	}
; 1439 : }

	mov	DWORD PTR __$EHRec$[ebp+8], -1
	lea	ecx, DWORD PTR _bsData$[ebp]
	call	??1BitStream@RakNet@@QAE@XZ		; RakNet::BitStream::~BitStream
	push	edx
	mov	ecx, ebp
	push	eax
	lea	edx, DWORD PTR $LN10@ScrRemoveG
	call	@_RTC_CheckStackVars@8
	pop	eax
	pop	edx
	mov	ecx, DWORD PTR __$EHRec$[ebp]
	mov	DWORD PTR fs:0, ecx
	pop	ecx
	pop	edi
	pop	esi
	pop	ebx
	mov	ecx, DWORD PTR __$ArrayPad$[ebp]
	xor	ecx, ebp
	call	@__security_check_cookie@4
	add	esp, 556				; 0000022cH
	cmp	ebp, esp
	call	__RTC_CheckEsp
	mov	esp, ebp
	pop	ebp
	ret	0
	npad	1
$LN10@ScrRemoveG:
	DD	3
	DD	$LN9@ScrRemoveG
$LN9@ScrRemoveG:
	DD	-52					; ffffffccH
	DD	6
	DD	$LN5@ScrRemoveG
	DD	-336					; fffffeb0H
	DD	273					; 00000111H
	DD	$LN6@ScrRemoveG
	DD	-360					; fffffe98H
	DD	2
	DD	$LN7@ScrRemoveG
$LN7@ScrRemoveG:
	DB	119					; 00000077H
	DB	90					; 0000005aH
	DB	111					; 0000006fH
	DB	110					; 0000006eH
	DB	101					; 00000065H
	DB	73					; 00000049H
	DB	68					; 00000044H
	DB	0
$LN6@ScrRemoveG:
	DB	98					; 00000062H
	DB	115					; 00000073H
	DB	68					; 00000044H
	DB	97					; 00000061H
	DB	116					; 00000074H
	DB	97					; 00000061H
	DB	0
$LN5@ScrRemoveG:
	DB	115					; 00000073H
	DB	101					; 00000065H
	DB	110					; 0000006eH
	DB	100					; 00000064H
	DB	101					; 00000065H
	DB	114					; 00000072H
	DB	0
_TEXT	ENDS
;	COMDAT text$x
text$x	SEGMENT
__unwindfunclet$?ScrRemoveGangZone@@YAXPAURPCParameters@@@Z$0:
	lea	ecx, DWORD PTR _bsData$[ebp]
	jmp	??1BitStream@RakNet@@QAE@XZ		; RakNet::BitStream::~BitStream
__ehhandler$?ScrRemoveGangZone@@YAXPAURPCParameters@@@Z:
	mov	edx, DWORD PTR [esp+8]
	lea	eax, DWORD PTR [edx+12]
	mov	ecx, DWORD PTR [edx-560]
	xor	ecx, eax
	call	@__security_check_cookie@4
	mov	ecx, DWORD PTR [edx-4]
	xor	ecx, eax
	call	@__security_check_cookie@4
	mov	eax, OFFSET __ehfuncinfo$?ScrRemoveGangZone@@YAXPAURPCParameters@@@Z
	jmp	___CxxFrameHandler3
text$x	ENDS
?ScrRemoveGangZone@@YAXPAURPCParameters@@@Z ENDP	; ScrRemoveGangZone
; Function compile flags: /Odtp /RTCsu /ZI
; File z:\sampsrc\02xu1\saco\net\scriptrpc.cpp
;	COMDAT ?ScrAddGangZone@@YAXPAURPCParameters@@@Z
_TEXT	SEGMENT
_dwColor$2 = -420					; size = 4
_maxy$3 = -408						; size = 4
_maxx$4 = -396						; size = 4
_miny$5 = -384						; size = 4
_minx$6 = -372						; size = 4
_wZoneID$7 = -360					; size = 2
_pGangZonePool$ = -348					; size = 4
_bsData$ = -336						; size = 273
_sender$ = -52						; size = 6
_iBitLength$ = -36					; size = 4
_Data$ = -24						; size = 4
__$ArrayPad$ = -16					; size = 4
__$EHRec$ = -12						; size = 12
_rpcParams$ = 8						; size = 4
?ScrAddGangZone@@YAXPAURPCParameters@@@Z PROC		; ScrAddGangZone, COMDAT

; 1402 : {

	push	ebp
	mov	ebp, esp
	push	-1
	push	__ehhandler$?ScrAddGangZone@@YAXPAURPCParameters@@@Z
	mov	eax, DWORD PTR fs:0
	push	eax
	sub	esp, 604				; 0000025cH
	push	ebx
	push	esi
	push	edi
	lea	edi, DWORD PTR [ebp-616]
	mov	ecx, 151				; 00000097H
	mov	eax, -858993460				; ccccccccH
	rep stosd
	mov	eax, DWORD PTR ___security_cookie
	xor	eax, ebp
	mov	DWORD PTR __$ArrayPad$[ebp], eax
	push	eax
	lea	eax, DWORD PTR __$EHRec$[ebp]
	mov	DWORD PTR fs:0, eax

; 1403 : 	PCHAR Data = reinterpret_cast<PCHAR>(rpcParams->input);

	mov	eax, DWORD PTR _rpcParams$[ebp]
	mov	ecx, DWORD PTR [eax]
	mov	DWORD PTR _Data$[ebp], ecx

; 1404 : 	int iBitLength = rpcParams->numberOfBitsOfData;

	mov	eax, DWORD PTR _rpcParams$[ebp]
	mov	ecx, DWORD PTR [eax+4]
	mov	DWORD PTR _iBitLength$[ebp], ecx

; 1405 : 	PlayerID sender = rpcParams->sender;

	mov	eax, DWORD PTR _rpcParams$[ebp]
	add	eax, 8
	mov	ecx, DWORD PTR [eax]
	mov	DWORD PTR _sender$[ebp], ecx
	mov	dx, WORD PTR [eax+4]
	mov	WORD PTR _sender$[ebp+4], dx

; 1406 : 
; 1407 : 	RakNet::BitStream bsData(Data,(iBitLength/8)+1,false);

	push	0
	mov	eax, DWORD PTR _iBitLength$[ebp]
	cdq
	and	edx, 7
	add	eax, edx
	sar	eax, 3
	add	eax, 1
	push	eax
	mov	eax, DWORD PTR _Data$[ebp]
	push	eax
	lea	ecx, DWORD PTR _bsData$[ebp]
	call	??0BitStream@RakNet@@QAE@PADI_N@Z	; RakNet::BitStream::BitStream
	mov	DWORD PTR __$EHRec$[ebp+8], 0

; 1408 : 	CGangZonePool* pGangZonePool = pNetGame->GetGangZonePool();

	mov	ecx, DWORD PTR ?pNetGame@@3PAVCNetGame@@A ; pNetGame
	call	?GetGangZonePool@CNetGame@@QAEPAVCGangZonePool@@XZ ; CNetGame::GetGangZonePool
	mov	DWORD PTR _pGangZonePool$[ebp], eax

; 1409 : 	if (pGangZonePool)

	cmp	DWORD PTR _pGangZonePool$[ebp], 0
	je	$LN1@ScrAddGang

; 1410 : 	{
; 1411 : 		WORD wZoneID;
; 1412 : 		float minx, miny, maxx, maxy;
; 1413 : 		DWORD dwColor;
; 1414 : 		bsData.Read(wZoneID);

	lea	eax, DWORD PTR _wZoneID$7[ebp]
	push	eax
	lea	ecx, DWORD PTR _bsData$[ebp]
	call	??$Read@G@BitStream@RakNet@@QAE_NAAG@Z	; RakNet::BitStream::Read<unsigned short>

; 1415 : 		bsData.Read(minx);

	lea	eax, DWORD PTR _minx$6[ebp]
	push	eax
	lea	ecx, DWORD PTR _bsData$[ebp]
	call	??$Read@M@BitStream@RakNet@@QAE_NAAM@Z	; RakNet::BitStream::Read<float>

; 1416 : 		bsData.Read(miny);

	lea	eax, DWORD PTR _miny$5[ebp]
	push	eax
	lea	ecx, DWORD PTR _bsData$[ebp]
	call	??$Read@M@BitStream@RakNet@@QAE_NAAM@Z	; RakNet::BitStream::Read<float>

; 1417 : 		bsData.Read(maxx);

	lea	eax, DWORD PTR _maxx$4[ebp]
	push	eax
	lea	ecx, DWORD PTR _bsData$[ebp]
	call	??$Read@M@BitStream@RakNet@@QAE_NAAM@Z	; RakNet::BitStream::Read<float>

; 1418 : 		bsData.Read(maxy);

	lea	eax, DWORD PTR _maxy$3[ebp]
	push	eax
	lea	ecx, DWORD PTR _bsData$[ebp]
	call	??$Read@M@BitStream@RakNet@@QAE_NAAM@Z	; RakNet::BitStream::Read<float>

; 1419 : 		bsData.Read(dwColor);

	lea	eax, DWORD PTR _dwColor$2[ebp]
	push	eax
	lea	ecx, DWORD PTR _bsData$[ebp]
	call	??$Read@K@BitStream@RakNet@@QAE_NAAK@Z	; RakNet::BitStream::Read<unsigned long>

; 1420 : //		pChatWindow->AddDebugMessage("called %d %f %f %f %f %x", wZoneID, minx, miny, maxx, maxy, dwColor);
; 1421 : 		pGangZonePool->New(wZoneID, minx, miny, maxx, maxy, dwColor);

	mov	eax, DWORD PTR _dwColor$2[ebp]
	push	eax
	push	ecx
	movss	xmm0, DWORD PTR _maxy$3[ebp]
	movss	DWORD PTR [esp], xmm0
	push	ecx
	movss	xmm0, DWORD PTR _maxx$4[ebp]
	movss	DWORD PTR [esp], xmm0
	push	ecx
	movss	xmm0, DWORD PTR _miny$5[ebp]
	movss	DWORD PTR [esp], xmm0
	push	ecx
	movss	xmm0, DWORD PTR _minx$6[ebp]
	movss	DWORD PTR [esp], xmm0
	movzx	ecx, WORD PTR _wZoneID$7[ebp]
	push	ecx
	mov	ecx, DWORD PTR _pGangZonePool$[ebp]
	call	?New@CGangZonePool@@QAEXGMMMMK@Z	; CGangZonePool::New
$LN1@ScrAddGang:

; 1422 : 	}
; 1423 : }

	mov	DWORD PTR __$EHRec$[ebp+8], -1
	lea	ecx, DWORD PTR _bsData$[ebp]
	call	??1BitStream@RakNet@@QAE@XZ		; RakNet::BitStream::~BitStream
	push	edx
	mov	ecx, ebp
	push	eax
	lea	edx, DWORD PTR $LN15@ScrAddGang
	call	@_RTC_CheckStackVars@8
	pop	eax
	pop	edx
	mov	ecx, DWORD PTR __$EHRec$[ebp]
	mov	DWORD PTR fs:0, ecx
	pop	ecx
	pop	edi
	pop	esi
	pop	ebx
	mov	ecx, DWORD PTR __$ArrayPad$[ebp]
	xor	ecx, ebp
	call	@__security_check_cookie@4
	add	esp, 616				; 00000268H
	cmp	ebp, esp
	call	__RTC_CheckEsp
	mov	esp, ebp
	pop	ebp
	ret	0
$LN15@ScrAddGang:
	DD	8
	DD	$LN14@ScrAddGang
$LN14@ScrAddGang:
	DD	-52					; ffffffccH
	DD	6
	DD	$LN5@ScrAddGang
	DD	-336					; fffffeb0H
	DD	273					; 00000111H
	DD	$LN6@ScrAddGang
	DD	-360					; fffffe98H
	DD	2
	DD	$LN7@ScrAddGang
	DD	-372					; fffffe8cH
	DD	4
	DD	$LN8@ScrAddGang
	DD	-384					; fffffe80H
	DD	4
	DD	$LN9@ScrAddGang
	DD	-396					; fffffe74H
	DD	4
	DD	$LN10@ScrAddGang
	DD	-408					; fffffe68H
	DD	4
	DD	$LN11@ScrAddGang
	DD	-420					; fffffe5cH
	DD	4
	DD	$LN12@ScrAddGang
$LN12@ScrAddGang:
	DB	100					; 00000064H
	DB	119					; 00000077H
	DB	67					; 00000043H
	DB	111					; 0000006fH
	DB	108					; 0000006cH
	DB	111					; 0000006fH
	DB	114					; 00000072H
	DB	0
$LN11@ScrAddGang:
	DB	109					; 0000006dH
	DB	97					; 00000061H
	DB	120					; 00000078H
	DB	121					; 00000079H
	DB	0
$LN10@ScrAddGang:
	DB	109					; 0000006dH
	DB	97					; 00000061H
	DB	120					; 00000078H
	DB	120					; 00000078H
	DB	0
$LN9@ScrAddGang:
	DB	109					; 0000006dH
	DB	105					; 00000069H
	DB	110					; 0000006eH
	DB	121					; 00000079H
	DB	0
$LN8@ScrAddGang:
	DB	109					; 0000006dH
	DB	105					; 00000069H
	DB	110					; 0000006eH
	DB	120					; 00000078H
	DB	0
$LN7@ScrAddGang:
	DB	119					; 00000077H
	DB	90					; 0000005aH
	DB	111					; 0000006fH
	DB	110					; 0000006eH
	DB	101					; 00000065H
	DB	73					; 00000049H
	DB	68					; 00000044H
	DB	0
$LN6@ScrAddGang:
	DB	98					; 00000062H
	DB	115					; 00000073H
	DB	68					; 00000044H
	DB	97					; 00000061H
	DB	116					; 00000074H
	DB	97					; 00000061H
	DB	0
$LN5@ScrAddGang:
	DB	115					; 00000073H
	DB	101					; 00000065H
	DB	110					; 0000006eH
	DB	100					; 00000064H
	DB	101					; 00000065H
	DB	114					; 00000072H
	DB	0
_TEXT	ENDS
;	COMDAT text$x
text$x	SEGMENT
__unwindfunclet$?ScrAddGangZone@@YAXPAURPCParameters@@@Z$0:
	lea	ecx, DWORD PTR _bsData$[ebp]
	jmp	??1BitStream@RakNet@@QAE@XZ		; RakNet::BitStream::~BitStream
__ehhandler$?ScrAddGangZone@@YAXPAURPCParameters@@@Z:
	mov	edx, DWORD PTR [esp+8]
	lea	eax, DWORD PTR [edx+12]
	mov	ecx, DWORD PTR [edx-620]
	xor	ecx, eax
	call	@__security_check_cookie@4
	mov	ecx, DWORD PTR [edx-4]
	xor	ecx, eax
	call	@__security_check_cookie@4
	mov	eax, OFFSET __ehfuncinfo$?ScrAddGangZone@@YAXPAURPCParameters@@@Z
	jmp	___CxxFrameHandler3
text$x	ENDS
?ScrAddGangZone@@YAXPAURPCParameters@@@Z ENDP		; ScrAddGangZone
; Function compile flags: /Odtp /RTCsu /ZI
; File z:\sampsrc\02xu1\saco\net\scriptrpc.cpp
;	COMDAT ?ScrEditTextDraw@@YAXPAURPCParameters@@@Z
_TEXT	SEGMENT
_pText$2 = -636						; size = 4
_cText$3 = -624						; size = 256
_wTextID$4 = -360					; size = 2
_pTextDrawPool$ = -348					; size = 4
_bsData$ = -336						; size = 273
_sender$ = -52						; size = 6
_iBitLength$ = -36					; size = 4
_Data$ = -24						; size = 4
__$ArrayPad$ = -16					; size = 4
__$EHRec$ = -12						; size = 12
_rpcParams$ = 8						; size = 4
?ScrEditTextDraw@@YAXPAURPCParameters@@@Z PROC		; ScrEditTextDraw, COMDAT

; 1383 : {

	push	ebp
	mov	ebp, esp
	push	-1
	push	__ehhandler$?ScrEditTextDraw@@YAXPAURPCParameters@@@Z
	mov	eax, DWORD PTR fs:0
	push	eax
	sub	esp, 820				; 00000334H
	push	ebx
	push	esi
	push	edi
	lea	edi, DWORD PTR [ebp-832]
	mov	ecx, 205				; 000000cdH
	mov	eax, -858993460				; ccccccccH
	rep stosd
	mov	eax, DWORD PTR ___security_cookie
	xor	eax, ebp
	mov	DWORD PTR __$ArrayPad$[ebp], eax
	push	eax
	lea	eax, DWORD PTR __$EHRec$[ebp]
	mov	DWORD PTR fs:0, eax

; 1384 : 	PCHAR Data = reinterpret_cast<PCHAR>(rpcParams->input);

	mov	eax, DWORD PTR _rpcParams$[ebp]
	mov	ecx, DWORD PTR [eax]
	mov	DWORD PTR _Data$[ebp], ecx

; 1385 : 	int iBitLength = rpcParams->numberOfBitsOfData;

	mov	eax, DWORD PTR _rpcParams$[ebp]
	mov	ecx, DWORD PTR [eax+4]
	mov	DWORD PTR _iBitLength$[ebp], ecx

; 1386 : 	PlayerID sender = rpcParams->sender;

	mov	eax, DWORD PTR _rpcParams$[ebp]
	add	eax, 8
	mov	ecx, DWORD PTR [eax]
	mov	DWORD PTR _sender$[ebp], ecx
	mov	dx, WORD PTR [eax+4]
	mov	WORD PTR _sender$[ebp+4], dx

; 1387 : 
; 1388 : 	RakNet::BitStream bsData(Data,(iBitLength/8)+1,false);

	push	0
	mov	eax, DWORD PTR _iBitLength$[ebp]
	cdq
	and	edx, 7
	add	eax, edx
	sar	eax, 3
	add	eax, 1
	push	eax
	mov	eax, DWORD PTR _Data$[ebp]
	push	eax
	lea	ecx, DWORD PTR _bsData$[ebp]
	call	??0BitStream@RakNet@@QAE@PADI_N@Z	; RakNet::BitStream::BitStream
	mov	DWORD PTR __$EHRec$[ebp+8], 0

; 1389 : 	CTextDrawPool* pTextDrawPool = pNetGame->GetTextDrawPool();

	mov	ecx, DWORD PTR ?pNetGame@@3PAVCNetGame@@A ; pNetGame
	call	?GetTextDrawPool@CNetGame@@QAEPAVCTextDrawPool@@XZ ; CNetGame::GetTextDrawPool
	mov	DWORD PTR _pTextDrawPool$[ebp], eax

; 1390 : 	if (pTextDrawPool)

	cmp	DWORD PTR _pTextDrawPool$[ebp], 0
	je	SHORT $LN2@ScrEditTex

; 1391 : 	{
; 1392 : 		WORD wTextID;
; 1393 : 		CHAR cText[MAX_TEXT_DRAW_LINE];
; 1394 : 		bsData.Read(wTextID);

	lea	eax, DWORD PTR _wTextID$4[ebp]
	push	eax
	lea	ecx, DWORD PTR _bsData$[ebp]
	call	??$Read@G@BitStream@RakNet@@QAE_NAAG@Z	; RakNet::BitStream::Read<unsigned short>

; 1395 : 		bsData.Read(cText, MAX_TEXT_DRAW_LINE);

	push	256					; 00000100H
	lea	eax, DWORD PTR _cText$3[ebp]
	push	eax
	lea	ecx, DWORD PTR _bsData$[ebp]
	call	?Read@BitStream@RakNet@@QAE_NPADH@Z	; RakNet::BitStream::Read

; 1396 : 		CTextDraw* pText = pTextDrawPool->GetAt(wTextID);

	movzx	eax, WORD PTR _wTextID$4[ebp]
	push	eax
	mov	ecx, DWORD PTR _pTextDrawPool$[ebp]
	call	?GetAt@CTextDrawPool@@QAEPAVCTextDraw@@G@Z ; CTextDrawPool::GetAt
	mov	DWORD PTR _pText$2[ebp], eax

; 1397 : 		if (pText) pText->SetText(cText);

	cmp	DWORD PTR _pText$2[ebp], 0
	je	SHORT $LN2@ScrEditTex
	lea	eax, DWORD PTR _cText$3[ebp]
	push	eax
	mov	ecx, DWORD PTR _pText$2[ebp]
	call	?SetText@CTextDraw@@QAEXPAD@Z		; CTextDraw::SetText
$LN2@ScrEditTex:

; 1398 : 	}
; 1399 : }

	mov	DWORD PTR __$EHRec$[ebp+8], -1
	lea	ecx, DWORD PTR _bsData$[ebp]
	call	??1BitStream@RakNet@@QAE@XZ		; RakNet::BitStream::~BitStream
	push	edx
	mov	ecx, ebp
	push	eax
	lea	edx, DWORD PTR $LN12@ScrEditTex
	call	@_RTC_CheckStackVars@8
	pop	eax
	pop	edx
	mov	ecx, DWORD PTR __$EHRec$[ebp]
	mov	DWORD PTR fs:0, ecx
	pop	ecx
	pop	edi
	pop	esi
	pop	ebx
	mov	ecx, DWORD PTR __$ArrayPad$[ebp]
	xor	ecx, ebp
	call	@__security_check_cookie@4
	add	esp, 832				; 00000340H
	cmp	ebp, esp
	call	__RTC_CheckEsp
	mov	esp, ebp
	pop	ebp
	ret	0
	npad	1
$LN12@ScrEditTex:
	DD	4
	DD	$LN11@ScrEditTex
$LN11@ScrEditTex:
	DD	-52					; ffffffccH
	DD	6
	DD	$LN6@ScrEditTex
	DD	-336					; fffffeb0H
	DD	273					; 00000111H
	DD	$LN7@ScrEditTex
	DD	-360					; fffffe98H
	DD	2
	DD	$LN8@ScrEditTex
	DD	-624					; fffffd90H
	DD	256					; 00000100H
	DD	$LN9@ScrEditTex
$LN9@ScrEditTex:
	DB	99					; 00000063H
	DB	84					; 00000054H
	DB	101					; 00000065H
	DB	120					; 00000078H
	DB	116					; 00000074H
	DB	0
$LN8@ScrEditTex:
	DB	119					; 00000077H
	DB	84					; 00000054H
	DB	101					; 00000065H
	DB	120					; 00000078H
	DB	116					; 00000074H
	DB	73					; 00000049H
	DB	68					; 00000044H
	DB	0
$LN7@ScrEditTex:
	DB	98					; 00000062H
	DB	115					; 00000073H
	DB	68					; 00000044H
	DB	97					; 00000061H
	DB	116					; 00000074H
	DB	97					; 00000061H
	DB	0
$LN6@ScrEditTex:
	DB	115					; 00000073H
	DB	101					; 00000065H
	DB	110					; 0000006eH
	DB	100					; 00000064H
	DB	101					; 00000065H
	DB	114					; 00000072H
	DB	0
_TEXT	ENDS
;	COMDAT text$x
text$x	SEGMENT
__unwindfunclet$?ScrEditTextDraw@@YAXPAURPCParameters@@@Z$0:
	lea	ecx, DWORD PTR _bsData$[ebp]
	jmp	??1BitStream@RakNet@@QAE@XZ		; RakNet::BitStream::~BitStream
__ehhandler$?ScrEditTextDraw@@YAXPAURPCParameters@@@Z:
	mov	edx, DWORD PTR [esp+8]
	lea	eax, DWORD PTR [edx+12]
	mov	ecx, DWORD PTR [edx-836]
	xor	ecx, eax
	call	@__security_check_cookie@4
	mov	ecx, DWORD PTR [edx-4]
	xor	ecx, eax
	call	@__security_check_cookie@4
	mov	eax, OFFSET __ehfuncinfo$?ScrEditTextDraw@@YAXPAURPCParameters@@@Z
	jmp	___CxxFrameHandler3
text$x	ENDS
?ScrEditTextDraw@@YAXPAURPCParameters@@@Z ENDP		; ScrEditTextDraw
; Function compile flags: /Odtp /RTCsu /ZI
; File z:\sampsrc\02xu1\saco\net\scriptrpc.cpp
;	COMDAT ?ScrHideTextDraw@@YAXPAURPCParameters@@@Z
_TEXT	SEGMENT
_wTextID$2 = -360					; size = 2
_pTextDrawPool$ = -348					; size = 4
_bsData$ = -336						; size = 273
_sender$ = -52						; size = 6
_iBitLength$ = -36					; size = 4
_Data$ = -24						; size = 4
__$ArrayPad$ = -16					; size = 4
__$EHRec$ = -12						; size = 12
_rpcParams$ = 8						; size = 4
?ScrHideTextDraw@@YAXPAURPCParameters@@@Z PROC		; ScrHideTextDraw, COMDAT

; 1367 : {

	push	ebp
	mov	ebp, esp
	push	-1
	push	__ehhandler$?ScrHideTextDraw@@YAXPAURPCParameters@@@Z
	mov	eax, DWORD PTR fs:0
	push	eax
	sub	esp, 544				; 00000220H
	push	ebx
	push	esi
	push	edi
	lea	edi, DWORD PTR [ebp-556]
	mov	ecx, 136				; 00000088H
	mov	eax, -858993460				; ccccccccH
	rep stosd
	mov	eax, DWORD PTR ___security_cookie
	xor	eax, ebp
	mov	DWORD PTR __$ArrayPad$[ebp], eax
	push	eax
	lea	eax, DWORD PTR __$EHRec$[ebp]
	mov	DWORD PTR fs:0, eax

; 1368 : 	PCHAR Data = reinterpret_cast<PCHAR>(rpcParams->input);

	mov	eax, DWORD PTR _rpcParams$[ebp]
	mov	ecx, DWORD PTR [eax]
	mov	DWORD PTR _Data$[ebp], ecx

; 1369 : 	int iBitLength = rpcParams->numberOfBitsOfData;

	mov	eax, DWORD PTR _rpcParams$[ebp]
	mov	ecx, DWORD PTR [eax+4]
	mov	DWORD PTR _iBitLength$[ebp], ecx

; 1370 : 	PlayerID sender = rpcParams->sender;

	mov	eax, DWORD PTR _rpcParams$[ebp]
	add	eax, 8
	mov	ecx, DWORD PTR [eax]
	mov	DWORD PTR _sender$[ebp], ecx
	mov	dx, WORD PTR [eax+4]
	mov	WORD PTR _sender$[ebp+4], dx

; 1371 : 
; 1372 : 	RakNet::BitStream bsData(Data,(iBitLength/8)+1,false);

	push	0
	mov	eax, DWORD PTR _iBitLength$[ebp]
	cdq
	and	edx, 7
	add	eax, edx
	sar	eax, 3
	add	eax, 1
	push	eax
	mov	eax, DWORD PTR _Data$[ebp]
	push	eax
	lea	ecx, DWORD PTR _bsData$[ebp]
	call	??0BitStream@RakNet@@QAE@PADI_N@Z	; RakNet::BitStream::BitStream
	mov	DWORD PTR __$EHRec$[ebp+8], 0

; 1373 : 	CTextDrawPool* pTextDrawPool = pNetGame->GetTextDrawPool();

	mov	ecx, DWORD PTR ?pNetGame@@3PAVCNetGame@@A ; pNetGame
	call	?GetTextDrawPool@CNetGame@@QAEPAVCTextDrawPool@@XZ ; CNetGame::GetTextDrawPool
	mov	DWORD PTR _pTextDrawPool$[ebp], eax

; 1374 : 	if (pTextDrawPool)

	cmp	DWORD PTR _pTextDrawPool$[ebp], 0
	je	SHORT $LN1@ScrHideTex

; 1375 : 	{
; 1376 : 		WORD wTextID;
; 1377 : 		bsData.Read(wTextID);

	lea	eax, DWORD PTR _wTextID$2[ebp]
	push	eax
	lea	ecx, DWORD PTR _bsData$[ebp]
	call	??$Read@G@BitStream@RakNet@@QAE_NAAG@Z	; RakNet::BitStream::Read<unsigned short>

; 1378 : 		pTextDrawPool->Delete(wTextID);

	movzx	eax, WORD PTR _wTextID$2[ebp]
	push	eax
	mov	ecx, DWORD PTR _pTextDrawPool$[ebp]
	call	?Delete@CTextDrawPool@@QAEXG@Z		; CTextDrawPool::Delete
$LN1@ScrHideTex:

; 1379 : 	}
; 1380 : }

	mov	DWORD PTR __$EHRec$[ebp+8], -1
	lea	ecx, DWORD PTR _bsData$[ebp]
	call	??1BitStream@RakNet@@QAE@XZ		; RakNet::BitStream::~BitStream
	push	edx
	mov	ecx, ebp
	push	eax
	lea	edx, DWORD PTR $LN10@ScrHideTex
	call	@_RTC_CheckStackVars@8
	pop	eax
	pop	edx
	mov	ecx, DWORD PTR __$EHRec$[ebp]
	mov	DWORD PTR fs:0, ecx
	pop	ecx
	pop	edi
	pop	esi
	pop	ebx
	mov	ecx, DWORD PTR __$ArrayPad$[ebp]
	xor	ecx, ebp
	call	@__security_check_cookie@4
	add	esp, 556				; 0000022cH
	cmp	ebp, esp
	call	__RTC_CheckEsp
	mov	esp, ebp
	pop	ebp
	ret	0
	npad	1
$LN10@ScrHideTex:
	DD	3
	DD	$LN9@ScrHideTex
$LN9@ScrHideTex:
	DD	-52					; ffffffccH
	DD	6
	DD	$LN5@ScrHideTex
	DD	-336					; fffffeb0H
	DD	273					; 00000111H
	DD	$LN6@ScrHideTex
	DD	-360					; fffffe98H
	DD	2
	DD	$LN7@ScrHideTex
$LN7@ScrHideTex:
	DB	119					; 00000077H
	DB	84					; 00000054H
	DB	101					; 00000065H
	DB	120					; 00000078H
	DB	116					; 00000074H
	DB	73					; 00000049H
	DB	68					; 00000044H
	DB	0
$LN6@ScrHideTex:
	DB	98					; 00000062H
	DB	115					; 00000073H
	DB	68					; 00000044H
	DB	97					; 00000061H
	DB	116					; 00000074H
	DB	97					; 00000061H
	DB	0
$LN5@ScrHideTex:
	DB	115					; 00000073H
	DB	101					; 00000065H
	DB	110					; 0000006eH
	DB	100					; 00000064H
	DB	101					; 00000065H
	DB	114					; 00000072H
	DB	0
_TEXT	ENDS
;	COMDAT text$x
text$x	SEGMENT
__unwindfunclet$?ScrHideTextDraw@@YAXPAURPCParameters@@@Z$0:
	lea	ecx, DWORD PTR _bsData$[ebp]
	jmp	??1BitStream@RakNet@@QAE@XZ		; RakNet::BitStream::~BitStream
__ehhandler$?ScrHideTextDraw@@YAXPAURPCParameters@@@Z:
	mov	edx, DWORD PTR [esp+8]
	lea	eax, DWORD PTR [edx+12]
	mov	ecx, DWORD PTR [edx-560]
	xor	ecx, eax
	call	@__security_check_cookie@4
	mov	ecx, DWORD PTR [edx-4]
	xor	ecx, eax
	call	@__security_check_cookie@4
	mov	eax, OFFSET __ehfuncinfo$?ScrHideTextDraw@@YAXPAURPCParameters@@@Z
	jmp	___CxxFrameHandler3
text$x	ENDS
?ScrHideTextDraw@@YAXPAURPCParameters@@@Z ENDP		; ScrHideTextDraw
; Function compile flags: /Odtp /RTCsu /ZI
; File z:\sampsrc\02xu1\saco\net\scriptrpc.cpp
;	COMDAT ?ScrShowTextDraw@@YAXPAURPCParameters@@@Z
_TEXT	SEGMENT
_cText$2 = -672						; size = 256
_TextDrawTransmit$3 = -408				; size = 40
_wTextID$4 = -360					; size = 2
_pTextDrawPool$ = -348					; size = 4
_bsData$ = -336						; size = 273
_sender$ = -52						; size = 6
_iBitLength$ = -36					; size = 4
_Data$ = -24						; size = 4
__$ArrayPad$ = -16					; size = 4
__$EHRec$ = -12						; size = 12
_rpcParams$ = 8						; size = 4
?ScrShowTextDraw@@YAXPAURPCParameters@@@Z PROC		; ScrShowTextDraw, COMDAT

; 1345 : {

	push	ebp
	mov	ebp, esp
	push	-1
	push	__ehhandler$?ScrShowTextDraw@@YAXPAURPCParameters@@@Z
	mov	eax, DWORD PTR fs:0
	push	eax
	sub	esp, 856				; 00000358H
	push	ebx
	push	esi
	push	edi
	lea	edi, DWORD PTR [ebp-868]
	mov	ecx, 214				; 000000d6H
	mov	eax, -858993460				; ccccccccH
	rep stosd
	mov	eax, DWORD PTR ___security_cookie
	xor	eax, ebp
	mov	DWORD PTR __$ArrayPad$[ebp], eax
	push	eax
	lea	eax, DWORD PTR __$EHRec$[ebp]
	mov	DWORD PTR fs:0, eax

; 1346 : 	PCHAR Data = reinterpret_cast<PCHAR>(rpcParams->input);

	mov	eax, DWORD PTR _rpcParams$[ebp]
	mov	ecx, DWORD PTR [eax]
	mov	DWORD PTR _Data$[ebp], ecx

; 1347 : 	int iBitLength = rpcParams->numberOfBitsOfData;

	mov	eax, DWORD PTR _rpcParams$[ebp]
	mov	ecx, DWORD PTR [eax+4]
	mov	DWORD PTR _iBitLength$[ebp], ecx

; 1348 : 	PlayerID sender = rpcParams->sender;

	mov	eax, DWORD PTR _rpcParams$[ebp]
	add	eax, 8
	mov	ecx, DWORD PTR [eax]
	mov	DWORD PTR _sender$[ebp], ecx
	mov	dx, WORD PTR [eax+4]
	mov	WORD PTR _sender$[ebp+4], dx

; 1349 : 
; 1350 : 	RakNet::BitStream bsData(Data,(iBitLength/8)+1,false);

	push	0
	mov	eax, DWORD PTR _iBitLength$[ebp]
	cdq
	and	edx, 7
	add	eax, edx
	sar	eax, 3
	add	eax, 1
	push	eax
	mov	eax, DWORD PTR _Data$[ebp]
	push	eax
	lea	ecx, DWORD PTR _bsData$[ebp]
	call	??0BitStream@RakNet@@QAE@PADI_N@Z	; RakNet::BitStream::BitStream
	mov	DWORD PTR __$EHRec$[ebp+8], 0

; 1351 : 	
; 1352 : 	CTextDrawPool* pTextDrawPool = pNetGame->GetTextDrawPool();

	mov	ecx, DWORD PTR ?pNetGame@@3PAVCNetGame@@A ; pNetGame
	call	?GetTextDrawPool@CNetGame@@QAEPAVCTextDrawPool@@XZ ; CNetGame::GetTextDrawPool
	mov	DWORD PTR _pTextDrawPool$[ebp], eax

; 1353 : 	if (pTextDrawPool)

	cmp	DWORD PTR _pTextDrawPool$[ebp], 0
	je	SHORT $LN1@ScrShowTex

; 1354 : 	{
; 1355 : 		WORD wTextID;
; 1356 : 		TEXT_DRAW_TRANSMIT TextDrawTransmit;
; 1357 : 		CHAR cText[MAX_TEXT_DRAW_LINE];
; 1358 : 
; 1359 : 		bsData.Read(wTextID);

	lea	eax, DWORD PTR _wTextID$4[ebp]
	push	eax
	lea	ecx, DWORD PTR _bsData$[ebp]
	call	??$Read@G@BitStream@RakNet@@QAE_NAAG@Z	; RakNet::BitStream::Read<unsigned short>

; 1360 : 		bsData.Read((PCHAR)&TextDrawTransmit, sizeof (TEXT_DRAW_TRANSMIT));

	push	40					; 00000028H
	lea	eax, DWORD PTR _TextDrawTransmit$3[ebp]
	push	eax
	lea	ecx, DWORD PTR _bsData$[ebp]
	call	?Read@BitStream@RakNet@@QAE_NPADH@Z	; RakNet::BitStream::Read

; 1361 : 		bsData.Read(cText, MAX_TEXT_DRAW_LINE);

	push	256					; 00000100H
	lea	eax, DWORD PTR _cText$2[ebp]
	push	eax
	lea	ecx, DWORD PTR _bsData$[ebp]
	call	?Read@BitStream@RakNet@@QAE_NPADH@Z	; RakNet::BitStream::Read

; 1362 : 		pTextDrawPool->New(wTextID, &TextDrawTransmit, cText);

	lea	eax, DWORD PTR _cText$2[ebp]
	push	eax
	lea	ecx, DWORD PTR _TextDrawTransmit$3[ebp]
	push	ecx
	movzx	edx, WORD PTR _wTextID$4[ebp]
	push	edx
	mov	ecx, DWORD PTR _pTextDrawPool$[ebp]
	call	?New@CTextDrawPool@@QAEPAVCTextDraw@@GPAU_TEXT_DRAW_TRANSMIT@@PAD@Z ; CTextDrawPool::New
$LN1@ScrShowTex:

; 1363 : 	}
; 1364 : }

	mov	DWORD PTR __$EHRec$[ebp+8], -1
	lea	ecx, DWORD PTR _bsData$[ebp]
	call	??1BitStream@RakNet@@QAE@XZ		; RakNet::BitStream::~BitStream
	push	edx
	mov	ecx, ebp
	push	eax
	lea	edx, DWORD PTR $LN12@ScrShowTex
	call	@_RTC_CheckStackVars@8
	pop	eax
	pop	edx
	mov	ecx, DWORD PTR __$EHRec$[ebp]
	mov	DWORD PTR fs:0, ecx
	pop	ecx
	pop	edi
	pop	esi
	pop	ebx
	mov	ecx, DWORD PTR __$ArrayPad$[ebp]
	xor	ecx, ebp
	call	@__security_check_cookie@4
	add	esp, 868				; 00000364H
	cmp	ebp, esp
	call	__RTC_CheckEsp
	mov	esp, ebp
	pop	ebp
	ret	0
$LN12@ScrShowTex:
	DD	5
	DD	$LN11@ScrShowTex
$LN11@ScrShowTex:
	DD	-52					; ffffffccH
	DD	6
	DD	$LN5@ScrShowTex
	DD	-336					; fffffeb0H
	DD	273					; 00000111H
	DD	$LN6@ScrShowTex
	DD	-360					; fffffe98H
	DD	2
	DD	$LN7@ScrShowTex
	DD	-408					; fffffe68H
	DD	40					; 00000028H
	DD	$LN8@ScrShowTex
	DD	-672					; fffffd60H
	DD	256					; 00000100H
	DD	$LN9@ScrShowTex
$LN9@ScrShowTex:
	DB	99					; 00000063H
	DB	84					; 00000054H
	DB	101					; 00000065H
	DB	120					; 00000078H
	DB	116					; 00000074H
	DB	0
$LN8@ScrShowTex:
	DB	84					; 00000054H
	DB	101					; 00000065H
	DB	120					; 00000078H
	DB	116					; 00000074H
	DB	68					; 00000044H
	DB	114					; 00000072H
	DB	97					; 00000061H
	DB	119					; 00000077H
	DB	84					; 00000054H
	DB	114					; 00000072H
	DB	97					; 00000061H
	DB	110					; 0000006eH
	DB	115					; 00000073H
	DB	109					; 0000006dH
	DB	105					; 00000069H
	DB	116					; 00000074H
	DB	0
$LN7@ScrShowTex:
	DB	119					; 00000077H
	DB	84					; 00000054H
	DB	101					; 00000065H
	DB	120					; 00000078H
	DB	116					; 00000074H
	DB	73					; 00000049H
	DB	68					; 00000044H
	DB	0
$LN6@ScrShowTex:
	DB	98					; 00000062H
	DB	115					; 00000073H
	DB	68					; 00000044H
	DB	97					; 00000061H
	DB	116					; 00000074H
	DB	97					; 00000061H
	DB	0
$LN5@ScrShowTex:
	DB	115					; 00000073H
	DB	101					; 00000065H
	DB	110					; 0000006eH
	DB	100					; 00000064H
	DB	101					; 00000065H
	DB	114					; 00000072H
	DB	0
_TEXT	ENDS
;	COMDAT text$x
text$x	SEGMENT
__unwindfunclet$?ScrShowTextDraw@@YAXPAURPCParameters@@@Z$0:
	lea	ecx, DWORD PTR _bsData$[ebp]
	jmp	??1BitStream@RakNet@@QAE@XZ		; RakNet::BitStream::~BitStream
__ehhandler$?ScrShowTextDraw@@YAXPAURPCParameters@@@Z:
	mov	edx, DWORD PTR [esp+8]
	lea	eax, DWORD PTR [edx+12]
	mov	ecx, DWORD PTR [edx-872]
	xor	ecx, eax
	call	@__security_check_cookie@4
	mov	ecx, DWORD PTR [edx-4]
	xor	ecx, eax
	call	@__security_check_cookie@4
	mov	eax, OFFSET __ehfuncinfo$?ScrShowTextDraw@@YAXPAURPCParameters@@@Z
	jmp	___CxxFrameHandler3
text$x	ENDS
?ScrShowTextDraw@@YAXPAURPCParameters@@@Z ENDP		; ScrShowTextDraw
; Function compile flags: /Odtp /RTCsu /ZI
; File z:\sampsrc\02xu1\saco\net\scriptrpc.cpp
;	COMDAT ?ScrSetPlayerWantedLevel@@YAXPAURPCParameters@@@Z
_TEXT	SEGMENT
_byteLevel$ = -345					; size = 1
_bsData$ = -336						; size = 273
_sender$ = -52						; size = 6
_iBitLength$ = -36					; size = 4
_Data$ = -24						; size = 4
__$ArrayPad$ = -16					; size = 4
__$EHRec$ = -12						; size = 12
_rpcParams$ = 8						; size = 4
?ScrSetPlayerWantedLevel@@YAXPAURPCParameters@@@Z PROC	; ScrSetPlayerWantedLevel, COMDAT

; 1330 : {

	push	ebp
	mov	ebp, esp
	push	-1
	push	__ehhandler$?ScrSetPlayerWantedLevel@@YAXPAURPCParameters@@@Z
	mov	eax, DWORD PTR fs:0
	push	eax
	sub	esp, 532				; 00000214H
	push	ebx
	push	esi
	push	edi
	lea	edi, DWORD PTR [ebp-544]
	mov	ecx, 133				; 00000085H
	mov	eax, -858993460				; ccccccccH
	rep stosd
	mov	eax, DWORD PTR ___security_cookie
	xor	eax, ebp
	mov	DWORD PTR __$ArrayPad$[ebp], eax
	push	eax
	lea	eax, DWORD PTR __$EHRec$[ebp]
	mov	DWORD PTR fs:0, eax

; 1331 : 	PCHAR Data = reinterpret_cast<PCHAR>(rpcParams->input);

	mov	eax, DWORD PTR _rpcParams$[ebp]
	mov	ecx, DWORD PTR [eax]
	mov	DWORD PTR _Data$[ebp], ecx

; 1332 : 	int iBitLength = rpcParams->numberOfBitsOfData;

	mov	eax, DWORD PTR _rpcParams$[ebp]
	mov	ecx, DWORD PTR [eax+4]
	mov	DWORD PTR _iBitLength$[ebp], ecx

; 1333 : 	PlayerID sender = rpcParams->sender;

	mov	eax, DWORD PTR _rpcParams$[ebp]
	add	eax, 8
	mov	ecx, DWORD PTR [eax]
	mov	DWORD PTR _sender$[ebp], ecx
	mov	dx, WORD PTR [eax+4]
	mov	WORD PTR _sender$[ebp+4], dx

; 1334 : 
; 1335 : 	RakNet::BitStream bsData(Data,(iBitLength/8)+1,false);

	push	0
	mov	eax, DWORD PTR _iBitLength$[ebp]
	cdq
	and	edx, 7
	add	eax, edx
	sar	eax, 3
	add	eax, 1
	push	eax
	mov	eax, DWORD PTR _Data$[ebp]
	push	eax
	lea	ecx, DWORD PTR _bsData$[ebp]
	call	??0BitStream@RakNet@@QAE@PADI_N@Z	; RakNet::BitStream::BitStream
	mov	DWORD PTR __$EHRec$[ebp+8], 0

; 1336 : 	
; 1337 : 	if(!pGame) return;

	cmp	DWORD PTR ?pGame@@3PAVCGame@@A, 0	; pGame
	jne	SHORT $LN1@ScrSetPlay
	mov	DWORD PTR __$EHRec$[ebp+8], -1
	lea	ecx, DWORD PTR _bsData$[ebp]
	call	??1BitStream@RakNet@@QAE@XZ		; RakNet::BitStream::~BitStream
	jmp	SHORT $LN2@ScrSetPlay
$LN1@ScrSetPlay:

; 1338 : 
; 1339 : 	BYTE byteLevel;
; 1340 : 	bsData.Read(byteLevel);

	lea	eax, DWORD PTR _byteLevel$[ebp]
	push	eax
	lea	ecx, DWORD PTR _bsData$[ebp]
	call	??$Read@E@BitStream@RakNet@@QAE_NAAE@Z	; RakNet::BitStream::Read<unsigned char>

; 1341 : 	pGame->SetWantedLevel(byteLevel);

	movzx	eax, BYTE PTR _byteLevel$[ebp]
	push	eax
	mov	ecx, DWORD PTR ?pGame@@3PAVCGame@@A	; pGame
	call	?SetWantedLevel@CGame@@QAEXE@Z		; CGame::SetWantedLevel

; 1342 : }

	mov	DWORD PTR __$EHRec$[ebp+8], -1
	lea	ecx, DWORD PTR _bsData$[ebp]
	call	??1BitStream@RakNet@@QAE@XZ		; RakNet::BitStream::~BitStream
$LN2@ScrSetPlay:
	push	edx
	mov	ecx, ebp
	push	eax
	lea	edx, DWORD PTR $LN10@ScrSetPlay
	call	@_RTC_CheckStackVars@8
	pop	eax
	pop	edx
	mov	ecx, DWORD PTR __$EHRec$[ebp]
	mov	DWORD PTR fs:0, ecx
	pop	ecx
	pop	edi
	pop	esi
	pop	ebx
	mov	ecx, DWORD PTR __$ArrayPad$[ebp]
	xor	ecx, ebp
	call	@__security_check_cookie@4
	add	esp, 544				; 00000220H
	cmp	ebp, esp
	call	__RTC_CheckEsp
	mov	esp, ebp
	pop	ebp
	ret	0
	npad	2
$LN10@ScrSetPlay:
	DD	3
	DD	$LN9@ScrSetPlay
$LN9@ScrSetPlay:
	DD	-52					; ffffffccH
	DD	6
	DD	$LN5@ScrSetPlay
	DD	-336					; fffffeb0H
	DD	273					; 00000111H
	DD	$LN6@ScrSetPlay
	DD	-345					; fffffea7H
	DD	1
	DD	$LN7@ScrSetPlay
$LN7@ScrSetPlay:
	DB	98					; 00000062H
	DB	121					; 00000079H
	DB	116					; 00000074H
	DB	101					; 00000065H
	DB	76					; 0000004cH
	DB	101					; 00000065H
	DB	118					; 00000076H
	DB	101					; 00000065H
	DB	108					; 0000006cH
	DB	0
$LN6@ScrSetPlay:
	DB	98					; 00000062H
	DB	115					; 00000073H
	DB	68					; 00000044H
	DB	97					; 00000061H
	DB	116					; 00000074H
	DB	97					; 00000061H
	DB	0
$LN5@ScrSetPlay:
	DB	115					; 00000073H
	DB	101					; 00000065H
	DB	110					; 0000006eH
	DB	100					; 00000064H
	DB	101					; 00000065H
	DB	114					; 00000072H
	DB	0
_TEXT	ENDS
;	COMDAT text$x
text$x	SEGMENT
__unwindfunclet$?ScrSetPlayerWantedLevel@@YAXPAURPCParameters@@@Z$0:
	lea	ecx, DWORD PTR _bsData$[ebp]
	jmp	??1BitStream@RakNet@@QAE@XZ		; RakNet::BitStream::~BitStream
__ehhandler$?ScrSetPlayerWantedLevel@@YAXPAURPCParameters@@@Z:
	mov	edx, DWORD PTR [esp+8]
	lea	eax, DWORD PTR [edx+12]
	mov	ecx, DWORD PTR [edx-548]
	xor	ecx, eax
	call	@__security_check_cookie@4
	mov	ecx, DWORD PTR [edx-4]
	xor	ecx, eax
	call	@__security_check_cookie@4
	mov	eax, OFFSET __ehfuncinfo$?ScrSetPlayerWantedLevel@@YAXPAURPCParameters@@@Z
	jmp	___CxxFrameHandler3
text$x	ENDS
?ScrSetPlayerWantedLevel@@YAXPAURPCParameters@@@Z ENDP	; ScrSetPlayerWantedLevel
; Function compile flags: /Odtp /RTCsu /ZI
; File z:\sampsrc\02xu1\saco\net\scriptrpc.cpp
;	COMDAT ?ScrHideMenu@@YAXPAURPCParameters@@@Z
_TEXT	SEGMENT
_byteMenuID$ = -357					; size = 1
_pMenuPool$ = -348					; size = 4
_bsData$ = -336						; size = 273
_sender$ = -52						; size = 6
_iBitLength$ = -36					; size = 4
_Data$ = -24						; size = 4
__$ArrayPad$ = -16					; size = 4
__$EHRec$ = -12						; size = 12
_rpcParams$ = 8						; size = 4
?ScrHideMenu@@YAXPAURPCParameters@@@Z PROC		; ScrHideMenu, COMDAT

; 1314 : {

	push	ebp
	mov	ebp, esp
	push	-1
	push	__ehhandler$?ScrHideMenu@@YAXPAURPCParameters@@@Z
	mov	eax, DWORD PTR fs:0
	push	eax
	sub	esp, 544				; 00000220H
	push	ebx
	push	esi
	push	edi
	lea	edi, DWORD PTR [ebp-556]
	mov	ecx, 136				; 00000088H
	mov	eax, -858993460				; ccccccccH
	rep stosd
	mov	eax, DWORD PTR ___security_cookie
	xor	eax, ebp
	mov	DWORD PTR __$ArrayPad$[ebp], eax
	push	eax
	lea	eax, DWORD PTR __$EHRec$[ebp]
	mov	DWORD PTR fs:0, eax

; 1315 : 	PCHAR Data = reinterpret_cast<PCHAR>(rpcParams->input);

	mov	eax, DWORD PTR _rpcParams$[ebp]
	mov	ecx, DWORD PTR [eax]
	mov	DWORD PTR _Data$[ebp], ecx

; 1316 : 	int iBitLength = rpcParams->numberOfBitsOfData;

	mov	eax, DWORD PTR _rpcParams$[ebp]
	mov	ecx, DWORD PTR [eax+4]
	mov	DWORD PTR _iBitLength$[ebp], ecx

; 1317 : 	PlayerID sender = rpcParams->sender;

	mov	eax, DWORD PTR _rpcParams$[ebp]
	add	eax, 8
	mov	ecx, DWORD PTR [eax]
	mov	DWORD PTR _sender$[ebp], ecx
	mov	dx, WORD PTR [eax+4]
	mov	WORD PTR _sender$[ebp+4], dx

; 1318 : 
; 1319 : 	RakNet::BitStream bsData(Data,(iBitLength/8)+1,false);

	push	0
	mov	eax, DWORD PTR _iBitLength$[ebp]
	cdq
	and	edx, 7
	add	eax, edx
	sar	eax, 3
	add	eax, 1
	push	eax
	mov	eax, DWORD PTR _Data$[ebp]
	push	eax
	lea	ecx, DWORD PTR _bsData$[ebp]
	call	??0BitStream@RakNet@@QAE@PADI_N@Z	; RakNet::BitStream::BitStream
	mov	DWORD PTR __$EHRec$[ebp+8], 0

; 1320 : 	
; 1321 : 	if(!pNetGame) return;

	cmp	DWORD PTR ?pNetGame@@3PAVCNetGame@@A, 0	; pNetGame
	jne	SHORT $LN1@ScrHideMen
	mov	DWORD PTR __$EHRec$[ebp+8], -1
	lea	ecx, DWORD PTR _bsData$[ebp]
	call	??1BitStream@RakNet@@QAE@XZ		; RakNet::BitStream::~BitStream
	jmp	SHORT $LN2@ScrHideMen
$LN1@ScrHideMen:

; 1322 : 	CMenuPool* pMenuPool = pNetGame->GetMenuPool();

	mov	ecx, DWORD PTR ?pNetGame@@3PAVCNetGame@@A ; pNetGame
	call	?GetMenuPool@CNetGame@@QAEPAVCMenuPool@@XZ ; CNetGame::GetMenuPool
	mov	DWORD PTR _pMenuPool$[ebp], eax

; 1323 : 
; 1324 : 	BYTE byteMenuID;
; 1325 : 	bsData.Read(byteMenuID);

	lea	eax, DWORD PTR _byteMenuID$[ebp]
	push	eax
	lea	ecx, DWORD PTR _bsData$[ebp]
	call	??$Read@E@BitStream@RakNet@@QAE_NAAE@Z	; RakNet::BitStream::Read<unsigned char>

; 1326 : 	pNetGame->GetMenuPool()->HideMenu(byteMenuID);

	movzx	eax, BYTE PTR _byteMenuID$[ebp]
	push	eax
	mov	ecx, DWORD PTR ?pNetGame@@3PAVCNetGame@@A ; pNetGame
	call	?GetMenuPool@CNetGame@@QAEPAVCMenuPool@@XZ ; CNetGame::GetMenuPool
	mov	ecx, eax
	call	?HideMenu@CMenuPool@@QAEXE@Z		; CMenuPool::HideMenu

; 1327 : }

	mov	DWORD PTR __$EHRec$[ebp+8], -1
	lea	ecx, DWORD PTR _bsData$[ebp]
	call	??1BitStream@RakNet@@QAE@XZ		; RakNet::BitStream::~BitStream
$LN2@ScrHideMen:
	push	edx
	mov	ecx, ebp
	push	eax
	lea	edx, DWORD PTR $LN10@ScrHideMen
	call	@_RTC_CheckStackVars@8
	pop	eax
	pop	edx
	mov	ecx, DWORD PTR __$EHRec$[ebp]
	mov	DWORD PTR fs:0, ecx
	pop	ecx
	pop	edi
	pop	esi
	pop	ebx
	mov	ecx, DWORD PTR __$ArrayPad$[ebp]
	xor	ecx, ebp
	call	@__security_check_cookie@4
	add	esp, 556				; 0000022cH
	cmp	ebp, esp
	call	__RTC_CheckEsp
	mov	esp, ebp
	pop	ebp
	ret	0
	npad	2
$LN10@ScrHideMen:
	DD	3
	DD	$LN9@ScrHideMen
$LN9@ScrHideMen:
	DD	-52					; ffffffccH
	DD	6
	DD	$LN5@ScrHideMen
	DD	-336					; fffffeb0H
	DD	273					; 00000111H
	DD	$LN6@ScrHideMen
	DD	-357					; fffffe9bH
	DD	1
	DD	$LN7@ScrHideMen
$LN7@ScrHideMen:
	DB	98					; 00000062H
	DB	121					; 00000079H
	DB	116					; 00000074H
	DB	101					; 00000065H
	DB	77					; 0000004dH
	DB	101					; 00000065H
	DB	110					; 0000006eH
	DB	117					; 00000075H
	DB	73					; 00000049H
	DB	68					; 00000044H
	DB	0
$LN6@ScrHideMen:
	DB	98					; 00000062H
	DB	115					; 00000073H
	DB	68					; 00000044H
	DB	97					; 00000061H
	DB	116					; 00000074H
	DB	97					; 00000061H
	DB	0
$LN5@ScrHideMen:
	DB	115					; 00000073H
	DB	101					; 00000065H
	DB	110					; 0000006eH
	DB	100					; 00000064H
	DB	101					; 00000065H
	DB	114					; 00000072H
	DB	0
_TEXT	ENDS
;	COMDAT text$x
text$x	SEGMENT
__unwindfunclet$?ScrHideMenu@@YAXPAURPCParameters@@@Z$0:
	lea	ecx, DWORD PTR _bsData$[ebp]
	jmp	??1BitStream@RakNet@@QAE@XZ		; RakNet::BitStream::~BitStream
__ehhandler$?ScrHideMenu@@YAXPAURPCParameters@@@Z:
	mov	edx, DWORD PTR [esp+8]
	lea	eax, DWORD PTR [edx+12]
	mov	ecx, DWORD PTR [edx-560]
	xor	ecx, eax
	call	@__security_check_cookie@4
	mov	ecx, DWORD PTR [edx-4]
	xor	ecx, eax
	call	@__security_check_cookie@4
	mov	eax, OFFSET __ehfuncinfo$?ScrHideMenu@@YAXPAURPCParameters@@@Z
	jmp	___CxxFrameHandler3
text$x	ENDS
?ScrHideMenu@@YAXPAURPCParameters@@@Z ENDP		; ScrHideMenu
; Function compile flags: /Odtp /RTCsu /ZI
; File z:\sampsrc\02xu1\saco\net\scriptrpc.cpp
;	COMDAT ?ScrShowMenu@@YAXPAURPCParameters@@@Z
_TEXT	SEGMENT
_byteMenuID$ = -357					; size = 1
_pMenuPool$ = -348					; size = 4
_bsData$ = -336						; size = 273
_sender$ = -52						; size = 6
_iBitLength$ = -36					; size = 4
_Data$ = -24						; size = 4
__$ArrayPad$ = -16					; size = 4
__$EHRec$ = -12						; size = 12
_rpcParams$ = 8						; size = 4
?ScrShowMenu@@YAXPAURPCParameters@@@Z PROC		; ScrShowMenu, COMDAT

; 1298 : {

	push	ebp
	mov	ebp, esp
	push	-1
	push	__ehhandler$?ScrShowMenu@@YAXPAURPCParameters@@@Z
	mov	eax, DWORD PTR fs:0
	push	eax
	sub	esp, 544				; 00000220H
	push	ebx
	push	esi
	push	edi
	lea	edi, DWORD PTR [ebp-556]
	mov	ecx, 136				; 00000088H
	mov	eax, -858993460				; ccccccccH
	rep stosd
	mov	eax, DWORD PTR ___security_cookie
	xor	eax, ebp
	mov	DWORD PTR __$ArrayPad$[ebp], eax
	push	eax
	lea	eax, DWORD PTR __$EHRec$[ebp]
	mov	DWORD PTR fs:0, eax

; 1299 : 	PCHAR Data = reinterpret_cast<PCHAR>(rpcParams->input);

	mov	eax, DWORD PTR _rpcParams$[ebp]
	mov	ecx, DWORD PTR [eax]
	mov	DWORD PTR _Data$[ebp], ecx

; 1300 : 	int iBitLength = rpcParams->numberOfBitsOfData;

	mov	eax, DWORD PTR _rpcParams$[ebp]
	mov	ecx, DWORD PTR [eax+4]
	mov	DWORD PTR _iBitLength$[ebp], ecx

; 1301 : 	PlayerID sender = rpcParams->sender;

	mov	eax, DWORD PTR _rpcParams$[ebp]
	add	eax, 8
	mov	ecx, DWORD PTR [eax]
	mov	DWORD PTR _sender$[ebp], ecx
	mov	dx, WORD PTR [eax+4]
	mov	WORD PTR _sender$[ebp+4], dx

; 1302 : 
; 1303 : 	RakNet::BitStream bsData(Data,(iBitLength/8)+1,false);

	push	0
	mov	eax, DWORD PTR _iBitLength$[ebp]
	cdq
	and	edx, 7
	add	eax, edx
	sar	eax, 3
	add	eax, 1
	push	eax
	mov	eax, DWORD PTR _Data$[ebp]
	push	eax
	lea	ecx, DWORD PTR _bsData$[ebp]
	call	??0BitStream@RakNet@@QAE@PADI_N@Z	; RakNet::BitStream::BitStream
	mov	DWORD PTR __$EHRec$[ebp+8], 0

; 1304 : 	
; 1305 : 	if(!pNetGame) return;

	cmp	DWORD PTR ?pNetGame@@3PAVCNetGame@@A, 0	; pNetGame
	jne	SHORT $LN1@ScrShowMen
	mov	DWORD PTR __$EHRec$[ebp+8], -1
	lea	ecx, DWORD PTR _bsData$[ebp]
	call	??1BitStream@RakNet@@QAE@XZ		; RakNet::BitStream::~BitStream
	jmp	SHORT $LN2@ScrShowMen
$LN1@ScrShowMen:

; 1306 : 	CMenuPool* pMenuPool = pNetGame->GetMenuPool();

	mov	ecx, DWORD PTR ?pNetGame@@3PAVCNetGame@@A ; pNetGame
	call	?GetMenuPool@CNetGame@@QAEPAVCMenuPool@@XZ ; CNetGame::GetMenuPool
	mov	DWORD PTR _pMenuPool$[ebp], eax

; 1307 : 
; 1308 : 	BYTE byteMenuID;
; 1309 : 	bsData.Read(byteMenuID);

	lea	eax, DWORD PTR _byteMenuID$[ebp]
	push	eax
	lea	ecx, DWORD PTR _bsData$[ebp]
	call	??$Read@E@BitStream@RakNet@@QAE_NAAE@Z	; RakNet::BitStream::Read<unsigned char>

; 1310 : 	pNetGame->GetMenuPool()->ShowMenu(byteMenuID);

	movzx	eax, BYTE PTR _byteMenuID$[ebp]
	push	eax
	mov	ecx, DWORD PTR ?pNetGame@@3PAVCNetGame@@A ; pNetGame
	call	?GetMenuPool@CNetGame@@QAEPAVCMenuPool@@XZ ; CNetGame::GetMenuPool
	mov	ecx, eax
	call	?ShowMenu@CMenuPool@@QAEXE@Z		; CMenuPool::ShowMenu

; 1311 : }

	mov	DWORD PTR __$EHRec$[ebp+8], -1
	lea	ecx, DWORD PTR _bsData$[ebp]
	call	??1BitStream@RakNet@@QAE@XZ		; RakNet::BitStream::~BitStream
$LN2@ScrShowMen:
	push	edx
	mov	ecx, ebp
	push	eax
	lea	edx, DWORD PTR $LN10@ScrShowMen
	call	@_RTC_CheckStackVars@8
	pop	eax
	pop	edx
	mov	ecx, DWORD PTR __$EHRec$[ebp]
	mov	DWORD PTR fs:0, ecx
	pop	ecx
	pop	edi
	pop	esi
	pop	ebx
	mov	ecx, DWORD PTR __$ArrayPad$[ebp]
	xor	ecx, ebp
	call	@__security_check_cookie@4
	add	esp, 556				; 0000022cH
	cmp	ebp, esp
	call	__RTC_CheckEsp
	mov	esp, ebp
	pop	ebp
	ret	0
	npad	2
$LN10@ScrShowMen:
	DD	3
	DD	$LN9@ScrShowMen
$LN9@ScrShowMen:
	DD	-52					; ffffffccH
	DD	6
	DD	$LN5@ScrShowMen
	DD	-336					; fffffeb0H
	DD	273					; 00000111H
	DD	$LN6@ScrShowMen
	DD	-357					; fffffe9bH
	DD	1
	DD	$LN7@ScrShowMen
$LN7@ScrShowMen:
	DB	98					; 00000062H
	DB	121					; 00000079H
	DB	116					; 00000074H
	DB	101					; 00000065H
	DB	77					; 0000004dH
	DB	101					; 00000065H
	DB	110					; 0000006eH
	DB	117					; 00000075H
	DB	73					; 00000049H
	DB	68					; 00000044H
	DB	0
$LN6@ScrShowMen:
	DB	98					; 00000062H
	DB	115					; 00000073H
	DB	68					; 00000044H
	DB	97					; 00000061H
	DB	116					; 00000074H
	DB	97					; 00000061H
	DB	0
$LN5@ScrShowMen:
	DB	115					; 00000073H
	DB	101					; 00000065H
	DB	110					; 0000006eH
	DB	100					; 00000064H
	DB	101					; 00000065H
	DB	114					; 00000072H
	DB	0
_TEXT	ENDS
;	COMDAT text$x
text$x	SEGMENT
__unwindfunclet$?ScrShowMenu@@YAXPAURPCParameters@@@Z$0:
	lea	ecx, DWORD PTR _bsData$[ebp]
	jmp	??1BitStream@RakNet@@QAE@XZ		; RakNet::BitStream::~BitStream
__ehhandler$?ScrShowMenu@@YAXPAURPCParameters@@@Z:
	mov	edx, DWORD PTR [esp+8]
	lea	eax, DWORD PTR [edx+12]
	mov	ecx, DWORD PTR [edx-560]
	xor	ecx, eax
	call	@__security_check_cookie@4
	mov	ecx, DWORD PTR [edx-4]
	xor	ecx, eax
	call	@__security_check_cookie@4
	mov	eax, OFFSET __ehfuncinfo$?ScrShowMenu@@YAXPAURPCParameters@@@Z
	jmp	___CxxFrameHandler3
text$x	ENDS
?ScrShowMenu@@YAXPAURPCParameters@@@Z ENDP		; ScrShowMenu
; Function compile flags: /Odtp /RTCsu /ZI
; File z:\sampsrc\02xu1\saco\net\scriptrpc.cpp
;	COMDAT ?ScrInitMenu@@YAXPAURPCParameters@@@Z
_TEXT	SEGMENT
_i$2 = -589						; size = 1
_i$3 = -577						; size = 1
_byteColCount$ = -565					; size = 1
_pMenu$ = -556						; size = 4
_i$4 = -541						; size = 1
_MenuInteraction$ = -532				; size = 64
_fCol2$ = -460						; size = 4
_fCol1$ = -448						; size = 4
_fY$ = -436						; size = 4
_fX$ = -424						; size = 4
_cText$ = -412						; size = 32
_bColumns$ = -372					; size = 4
_byteMenuID$ = -357					; size = 1
_pMenuPool$ = -348					; size = 4
_bsData$ = -336						; size = 273
_sender$ = -52						; size = 6
_iBitLength$ = -36					; size = 4
_Data$ = -24						; size = 4
__$ArrayPad$ = -16					; size = 4
__$EHRec$ = -12						; size = 12
_rpcParams$ = 8						; size = 4
?ScrInitMenu@@YAXPAURPCParameters@@@Z PROC		; ScrInitMenu, COMDAT

; 1229 : {

	push	ebp
	mov	ebp, esp
	push	-1
	push	__ehhandler$?ScrInitMenu@@YAXPAURPCParameters@@@Z
	mov	eax, DWORD PTR fs:0
	push	eax
	sub	esp, 776				; 00000308H
	push	ebx
	push	esi
	push	edi
	lea	edi, DWORD PTR [ebp-788]
	mov	ecx, 194				; 000000c2H
	mov	eax, -858993460				; ccccccccH
	rep stosd
	mov	eax, DWORD PTR ___security_cookie
	xor	eax, ebp
	mov	DWORD PTR __$ArrayPad$[ebp], eax
	push	eax
	lea	eax, DWORD PTR __$EHRec$[ebp]
	mov	DWORD PTR fs:0, eax

; 1230 : 	PCHAR Data = reinterpret_cast<PCHAR>(rpcParams->input);

	mov	eax, DWORD PTR _rpcParams$[ebp]
	mov	ecx, DWORD PTR [eax]
	mov	DWORD PTR _Data$[ebp], ecx

; 1231 : 	int iBitLength = rpcParams->numberOfBitsOfData;

	mov	eax, DWORD PTR _rpcParams$[ebp]
	mov	ecx, DWORD PTR [eax+4]
	mov	DWORD PTR _iBitLength$[ebp], ecx

; 1232 : 	PlayerID sender = rpcParams->sender;

	mov	eax, DWORD PTR _rpcParams$[ebp]
	add	eax, 8
	mov	ecx, DWORD PTR [eax]
	mov	DWORD PTR _sender$[ebp], ecx
	mov	dx, WORD PTR [eax+4]
	mov	WORD PTR _sender$[ebp+4], dx

; 1233 : 
; 1234 : 	RakNet::BitStream bsData(Data,(iBitLength/8)+1,false);

	push	0
	mov	eax, DWORD PTR _iBitLength$[ebp]
	cdq
	and	edx, 7
	add	eax, edx
	sar	eax, 3
	add	eax, 1
	push	eax
	mov	eax, DWORD PTR _Data$[ebp]
	push	eax
	lea	ecx, DWORD PTR _bsData$[ebp]
	call	??0BitStream@RakNet@@QAE@PADI_N@Z	; RakNet::BitStream::BitStream
	mov	DWORD PTR __$EHRec$[ebp+8], 0

; 1235 : 	
; 1236 : 	if(!pNetGame) return;

	cmp	DWORD PTR ?pNetGame@@3PAVCNetGame@@A, 0	; pNetGame
	jne	SHORT $LN14@ScrInitMen
	mov	DWORD PTR __$EHRec$[ebp+8], -1
	lea	ecx, DWORD PTR _bsData$[ebp]
	call	??1BitStream@RakNet@@QAE@XZ		; RakNet::BitStream::~BitStream
	jmp	$LN15@ScrInitMen
$LN14@ScrInitMen:

; 1237 : 	CMenuPool* pMenuPool = pNetGame->GetMenuPool();

	mov	ecx, DWORD PTR ?pNetGame@@3PAVCNetGame@@A ; pNetGame
	call	?GetMenuPool@CNetGame@@QAEPAVCMenuPool@@XZ ; CNetGame::GetMenuPool
	mov	DWORD PTR _pMenuPool$[ebp], eax

; 1238 : 
; 1239 : 	BYTE byteMenuID;
; 1240 : 	BOOL bColumns; // 0 = 1, 1 = 2
; 1241 : 	CHAR cText[MAX_MENU_LINE];
; 1242 : 	float fX;
; 1243 : 	float fY;
; 1244 : 	float fCol1;
; 1245 : 	float fCol2 = 0.0;

	movss	xmm0, DWORD PTR __real@00000000
	movss	DWORD PTR _fCol2$[ebp], xmm0

; 1246 : 	MENU_INT MenuInteraction;
; 1247 : 	
; 1248 : 	bsData.Read(byteMenuID);

	lea	eax, DWORD PTR _byteMenuID$[ebp]
	push	eax
	lea	ecx, DWORD PTR _bsData$[ebp]
	call	??$Read@E@BitStream@RakNet@@QAE_NAAE@Z	; RakNet::BitStream::Read<unsigned char>

; 1249 : 	bsData.Read(bColumns);

	lea	eax, DWORD PTR _bColumns$[ebp]
	push	eax
	lea	ecx, DWORD PTR _bsData$[ebp]
	call	??$Read@H@BitStream@RakNet@@QAE_NAAH@Z	; RakNet::BitStream::Read<int>

; 1250 : 	bsData.Read(cText, MAX_MENU_LINE);

	push	32					; 00000020H
	lea	eax, DWORD PTR _cText$[ebp]
	push	eax
	lea	ecx, DWORD PTR _bsData$[ebp]
	call	?Read@BitStream@RakNet@@QAE_NPADH@Z	; RakNet::BitStream::Read

; 1251 : 	bsData.Read(fX);

	lea	eax, DWORD PTR _fX$[ebp]
	push	eax
	lea	ecx, DWORD PTR _bsData$[ebp]
	call	??$Read@M@BitStream@RakNet@@QAE_NAAM@Z	; RakNet::BitStream::Read<float>

; 1252 : 	bsData.Read(fY);

	lea	eax, DWORD PTR _fY$[ebp]
	push	eax
	lea	ecx, DWORD PTR _bsData$[ebp]
	call	??$Read@M@BitStream@RakNet@@QAE_NAAM@Z	; RakNet::BitStream::Read<float>

; 1253 : 	bsData.Read(fCol1);

	lea	eax, DWORD PTR _fCol1$[ebp]
	push	eax
	lea	ecx, DWORD PTR _bsData$[ebp]
	call	??$Read@M@BitStream@RakNet@@QAE_NAAM@Z	; RakNet::BitStream::Read<float>

; 1254 : 	if (bColumns) bsData.Read(fCol2);

	cmp	DWORD PTR _bColumns$[ebp], 0
	je	SHORT $LN13@ScrInitMen
	lea	eax, DWORD PTR _fCol2$[ebp]
	push	eax
	lea	ecx, DWORD PTR _bsData$[ebp]
	call	??$Read@M@BitStream@RakNet@@QAE_NAAM@Z	; RakNet::BitStream::Read<float>
$LN13@ScrInitMen:

; 1255 : 	bsData.Read(MenuInteraction.bMenu);

	lea	eax, DWORD PTR _MenuInteraction$[ebp]
	push	eax
	lea	ecx, DWORD PTR _bsData$[ebp]
	call	??$Read@H@BitStream@RakNet@@QAE_NAAH@Z	; RakNet::BitStream::Read<int>

; 1256 : 	for (BYTE i = 0; i < MAX_MENU_ITEMS; i++)

	mov	BYTE PTR _i$4[ebp], 0
	jmp	SHORT $LN12@ScrInitMen
$LN11@ScrInitMen:
	mov	al, BYTE PTR _i$4[ebp]
	add	al, 1
	mov	BYTE PTR _i$4[ebp], al
$LN12@ScrInitMen:
	movzx	eax, BYTE PTR _i$4[ebp]
	cmp	eax, 12					; 0000000cH
	jge	SHORT $LN10@ScrInitMen

; 1257 : 	{
; 1258 : 		bsData.Read(MenuInteraction.bRow[i]);

	movzx	eax, BYTE PTR _i$4[ebp]
	lea	ecx, DWORD PTR _MenuInteraction$[ebp+eax*4+4]
	push	ecx
	lea	ecx, DWORD PTR _bsData$[ebp]
	call	??$Read@H@BitStream@RakNet@@QAE_NAAH@Z	; RakNet::BitStream::Read<int>

; 1259 : 	}

	jmp	SHORT $LN11@ScrInitMen
$LN10@ScrInitMen:

; 1260 : 
; 1261 : 	CMenu* pMenu;
; 1262 : 	
; 1263 : 	if (pMenuPool->GetSlotState(byteMenuID))

	movzx	eax, BYTE PTR _byteMenuID$[ebp]
	push	eax
	mov	ecx, DWORD PTR _pMenuPool$[ebp]
	call	?GetSlotState@CMenuPool@@QAEHE@Z	; CMenuPool::GetSlotState
	test	eax, eax
	je	SHORT $LN9@ScrInitMen

; 1264 : 	{
; 1265 : 		pMenuPool->Delete(byteMenuID);

	movzx	eax, BYTE PTR _byteMenuID$[ebp]
	push	eax
	mov	ecx, DWORD PTR _pMenuPool$[ebp]
	call	?Delete@CMenuPool@@QAEHE@Z		; CMenuPool::Delete
$LN9@ScrInitMen:

; 1266 : 	}
; 1267 : 	
; 1268 : 	pMenu = pMenuPool->New(byteMenuID, cText, fX, fY, ((BYTE)bColumns) + 1, fCol1, fCol2, &MenuInteraction);

	lea	eax, DWORD PTR _MenuInteraction$[ebp]
	push	eax
	push	ecx
	movss	xmm0, DWORD PTR _fCol2$[ebp]
	movss	DWORD PTR [esp], xmm0
	push	ecx
	movss	xmm0, DWORD PTR _fCol1$[ebp]
	movss	DWORD PTR [esp], xmm0
	movzx	ecx, BYTE PTR _bColumns$[ebp]
	add	ecx, 1
	push	ecx
	push	ecx
	movss	xmm0, DWORD PTR _fY$[ebp]
	movss	DWORD PTR [esp], xmm0
	push	ecx
	movss	xmm0, DWORD PTR _fX$[ebp]
	movss	DWORD PTR [esp], xmm0
	lea	edx, DWORD PTR _cText$[ebp]
	push	edx
	movzx	eax, BYTE PTR _byteMenuID$[ebp]
	push	eax
	mov	ecx, DWORD PTR _pMenuPool$[ebp]
	call	?New@CMenuPool@@QAEPAVCMenu@@EPADMMEMMPAUMENU_INT@@@Z ; CMenuPool::New
	mov	DWORD PTR _pMenu$[ebp], eax

; 1269 : 	
; 1270 : 	if (!pMenu) return;

	cmp	DWORD PTR _pMenu$[ebp], 0
	jne	SHORT $LN8@ScrInitMen
	mov	DWORD PTR __$EHRec$[ebp+8], -1
	lea	ecx, DWORD PTR _bsData$[ebp]
	call	??1BitStream@RakNet@@QAE@XZ		; RakNet::BitStream::~BitStream
	jmp	$LN15@ScrInitMen
$LN8@ScrInitMen:

; 1271 : 	
; 1272 : 	BYTE byteColCount;
; 1273 : 	bsData.Read(cText, MAX_MENU_LINE);

	push	32					; 00000020H
	lea	eax, DWORD PTR _cText$[ebp]
	push	eax
	lea	ecx, DWORD PTR _bsData$[ebp]
	call	?Read@BitStream@RakNet@@QAE_NPADH@Z	; RakNet::BitStream::Read

; 1274 : 	pMenu->SetColumnTitle(0, cText);

	lea	eax, DWORD PTR _cText$[ebp]
	push	eax
	push	0
	mov	ecx, DWORD PTR _pMenu$[ebp]
	call	?SetColumnTitle@CMenu@@QAEXEPAD@Z	; CMenu::SetColumnTitle

; 1275 : 	
; 1276 : 	bsData.Read(byteColCount);

	lea	eax, DWORD PTR _byteColCount$[ebp]
	push	eax
	lea	ecx, DWORD PTR _bsData$[ebp]
	call	??$Read@E@BitStream@RakNet@@QAE_NAAE@Z	; RakNet::BitStream::Read<unsigned char>

; 1277 : 	for (BYTE i = 0; i < byteColCount; i++)

	mov	BYTE PTR _i$3[ebp], 0
	jmp	SHORT $LN7@ScrInitMen
$LN6@ScrInitMen:
	mov	al, BYTE PTR _i$3[ebp]
	add	al, 1
	mov	BYTE PTR _i$3[ebp], al
$LN7@ScrInitMen:
	movzx	eax, BYTE PTR _i$3[ebp]
	movzx	ecx, BYTE PTR _byteColCount$[ebp]
	cmp	eax, ecx
	jge	SHORT $LN5@ScrInitMen

; 1278 : 	{
; 1279 : 		bsData.Read(cText, MAX_MENU_LINE);

	push	32					; 00000020H
	lea	eax, DWORD PTR _cText$[ebp]
	push	eax
	lea	ecx, DWORD PTR _bsData$[ebp]
	call	?Read@BitStream@RakNet@@QAE_NPADH@Z	; RakNet::BitStream::Read

; 1280 : 		pMenu->AddMenuItem(0, i, cText);

	lea	eax, DWORD PTR _cText$[ebp]
	push	eax
	movzx	ecx, BYTE PTR _i$3[ebp]
	push	ecx
	push	0
	mov	ecx, DWORD PTR _pMenu$[ebp]
	call	?AddMenuItem@CMenu@@QAEXEEPAD@Z		; CMenu::AddMenuItem

; 1281 : 	}

	jmp	SHORT $LN6@ScrInitMen
$LN5@ScrInitMen:

; 1282 : 	
; 1283 : 	if (bColumns)

	cmp	DWORD PTR _bColumns$[ebp], 0
	je	$LN1@ScrInitMen

; 1284 : 	{
; 1285 : 		bsData.Read(cText, MAX_MENU_LINE);

	push	32					; 00000020H
	lea	eax, DWORD PTR _cText$[ebp]
	push	eax
	lea	ecx, DWORD PTR _bsData$[ebp]
	call	?Read@BitStream@RakNet@@QAE_NPADH@Z	; RakNet::BitStream::Read

; 1286 : 		pMenu->SetColumnTitle(1, cText);

	lea	eax, DWORD PTR _cText$[ebp]
	push	eax
	push	1
	mov	ecx, DWORD PTR _pMenu$[ebp]
	call	?SetColumnTitle@CMenu@@QAEXEPAD@Z	; CMenu::SetColumnTitle

; 1287 : 		
; 1288 : 		bsData.Read(byteColCount);

	lea	eax, DWORD PTR _byteColCount$[ebp]
	push	eax
	lea	ecx, DWORD PTR _bsData$[ebp]
	call	??$Read@E@BitStream@RakNet@@QAE_NAAE@Z	; RakNet::BitStream::Read<unsigned char>

; 1289 : 		for (BYTE i = 0; i < byteColCount; i++)

	mov	BYTE PTR _i$2[ebp], 0
	jmp	SHORT $LN3@ScrInitMen
$LN2@ScrInitMen:
	mov	al, BYTE PTR _i$2[ebp]
	add	al, 1
	mov	BYTE PTR _i$2[ebp], al
$LN3@ScrInitMen:
	movzx	eax, BYTE PTR _i$2[ebp]
	movzx	ecx, BYTE PTR _byteColCount$[ebp]
	cmp	eax, ecx
	jge	SHORT $LN1@ScrInitMen

; 1290 : 		{
; 1291 : 			bsData.Read(cText, MAX_MENU_LINE);

	push	32					; 00000020H
	lea	eax, DWORD PTR _cText$[ebp]
	push	eax
	lea	ecx, DWORD PTR _bsData$[ebp]
	call	?Read@BitStream@RakNet@@QAE_NPADH@Z	; RakNet::BitStream::Read

; 1292 : 			pMenu->AddMenuItem(1, i, cText);

	lea	eax, DWORD PTR _cText$[ebp]
	push	eax
	movzx	ecx, BYTE PTR _i$2[ebp]
	push	ecx
	push	1
	mov	ecx, DWORD PTR _pMenu$[ebp]
	call	?AddMenuItem@CMenu@@QAEXEEPAD@Z		; CMenu::AddMenuItem

; 1293 : 		}

	jmp	SHORT $LN2@ScrInitMen
$LN1@ScrInitMen:

; 1294 : 	}
; 1295 : }

	mov	DWORD PTR __$EHRec$[ebp+8], -1
	lea	ecx, DWORD PTR _bsData$[ebp]
	call	??1BitStream@RakNet@@QAE@XZ		; RakNet::BitStream::~BitStream
$LN15@ScrInitMen:
	push	edx
	mov	ecx, ebp
	push	eax
	lea	edx, DWORD PTR $LN31@ScrInitMen
	call	@_RTC_CheckStackVars@8
	pop	eax
	pop	edx
	mov	ecx, DWORD PTR __$EHRec$[ebp]
	mov	DWORD PTR fs:0, ecx
	pop	ecx
	pop	edi
	pop	esi
	pop	ebx
	mov	ecx, DWORD PTR __$ArrayPad$[ebp]
	xor	ecx, ebp
	call	@__security_check_cookie@4
	add	esp, 788				; 00000314H
	cmp	ebp, esp
	call	__RTC_CheckEsp
	mov	esp, ebp
	pop	ebp
	ret	0
	npad	2
$LN31@ScrInitMen:
	DD	11					; 0000000bH
	DD	$LN30@ScrInitMen
$LN30@ScrInitMen:
	DD	-52					; ffffffccH
	DD	6
	DD	$LN18@ScrInitMen
	DD	-336					; fffffeb0H
	DD	273					; 00000111H
	DD	$LN19@ScrInitMen
	DD	-357					; fffffe9bH
	DD	1
	DD	$LN20@ScrInitMen
	DD	-372					; fffffe8cH
	DD	4
	DD	$LN21@ScrInitMen
	DD	-412					; fffffe64H
	DD	32					; 00000020H
	DD	$LN22@ScrInitMen
	DD	-424					; fffffe58H
	DD	4
	DD	$LN23@ScrInitMen
	DD	-436					; fffffe4cH
	DD	4
	DD	$LN24@ScrInitMen
	DD	-448					; fffffe40H
	DD	4
	DD	$LN25@ScrInitMen
	DD	-460					; fffffe34H
	DD	4
	DD	$LN26@ScrInitMen
	DD	-532					; fffffdecH
	DD	64					; 00000040H
	DD	$LN27@ScrInitMen
	DD	-565					; fffffdcbH
	DD	1
	DD	$LN28@ScrInitMen
$LN28@ScrInitMen:
	DB	98					; 00000062H
	DB	121					; 00000079H
	DB	116					; 00000074H
	DB	101					; 00000065H
	DB	67					; 00000043H
	DB	111					; 0000006fH
	DB	108					; 0000006cH
	DB	67					; 00000043H
	DB	111					; 0000006fH
	DB	117					; 00000075H
	DB	110					; 0000006eH
	DB	116					; 00000074H
	DB	0
$LN27@ScrInitMen:
	DB	77					; 0000004dH
	DB	101					; 00000065H
	DB	110					; 0000006eH
	DB	117					; 00000075H
	DB	73					; 00000049H
	DB	110					; 0000006eH
	DB	116					; 00000074H
	DB	101					; 00000065H
	DB	114					; 00000072H
	DB	97					; 00000061H
	DB	99					; 00000063H
	DB	116					; 00000074H
	DB	105					; 00000069H
	DB	111					; 0000006fH
	DB	110					; 0000006eH
	DB	0
$LN26@ScrInitMen:
	DB	102					; 00000066H
	DB	67					; 00000043H
	DB	111					; 0000006fH
	DB	108					; 0000006cH
	DB	50					; 00000032H
	DB	0
$LN25@ScrInitMen:
	DB	102					; 00000066H
	DB	67					; 00000043H
	DB	111					; 0000006fH
	DB	108					; 0000006cH
	DB	49					; 00000031H
	DB	0
$LN24@ScrInitMen:
	DB	102					; 00000066H
	DB	89					; 00000059H
	DB	0
$LN23@ScrInitMen:
	DB	102					; 00000066H
	DB	88					; 00000058H
	DB	0
$LN22@ScrInitMen:
	DB	99					; 00000063H
	DB	84					; 00000054H
	DB	101					; 00000065H
	DB	120					; 00000078H
	DB	116					; 00000074H
	DB	0
$LN21@ScrInitMen:
	DB	98					; 00000062H
	DB	67					; 00000043H
	DB	111					; 0000006fH
	DB	108					; 0000006cH
	DB	117					; 00000075H
	DB	109					; 0000006dH
	DB	110					; 0000006eH
	DB	115					; 00000073H
	DB	0
$LN20@ScrInitMen:
	DB	98					; 00000062H
	DB	121					; 00000079H
	DB	116					; 00000074H
	DB	101					; 00000065H
	DB	77					; 0000004dH
	DB	101					; 00000065H
	DB	110					; 0000006eH
	DB	117					; 00000075H
	DB	73					; 00000049H
	DB	68					; 00000044H
	DB	0
$LN19@ScrInitMen:
	DB	98					; 00000062H
	DB	115					; 00000073H
	DB	68					; 00000044H
	DB	97					; 00000061H
	DB	116					; 00000074H
	DB	97					; 00000061H
	DB	0
$LN18@ScrInitMen:
	DB	115					; 00000073H
	DB	101					; 00000065H
	DB	110					; 0000006eH
	DB	100					; 00000064H
	DB	101					; 00000065H
	DB	114					; 00000072H
	DB	0
_TEXT	ENDS
;	COMDAT text$x
text$x	SEGMENT
__unwindfunclet$?ScrInitMenu@@YAXPAURPCParameters@@@Z$0:
	lea	ecx, DWORD PTR _bsData$[ebp]
	jmp	??1BitStream@RakNet@@QAE@XZ		; RakNet::BitStream::~BitStream
__ehhandler$?ScrInitMenu@@YAXPAURPCParameters@@@Z:
	mov	edx, DWORD PTR [esp+8]
	lea	eax, DWORD PTR [edx+12]
	mov	ecx, DWORD PTR [edx-792]
	xor	ecx, eax
	call	@__security_check_cookie@4
	mov	ecx, DWORD PTR [edx-4]
	xor	ecx, eax
	call	@__security_check_cookie@4
	mov	eax, OFFSET __ehfuncinfo$?ScrInitMenu@@YAXPAURPCParameters@@@Z
	jmp	___CxxFrameHandler3
text$x	ENDS
?ScrInitMenu@@YAXPAURPCParameters@@@Z ENDP		; ScrInitMenu
; Function compile flags: /Odtp /RTCsu /ZI
; File z:\sampsrc\02xu1\saco\net\scriptrpc.cpp
;	COMDAT ?ScrAttachObjectToPlayer@@YAXPAURPCParameters@@@Z
_TEXT	SEGMENT
tv212 = -676						; size = 4
tv209 = -676						; size = 4
tv205 = -676						; size = 4
tv207 = -673						; size = 1
tv213 = -672						; size = 4
tv211 = -672						; size = 4
tv210 = -672						; size = 4
tv208 = -672						; size = 4
tv206 = -672						; size = 4
tv69 = -672						; size = 4
_pPlayer$2 = -472					; size = 4
_pPlayer$3 = -460					; size = 4
_pObject$4 = -448					; size = 4
_rZ$ = -436						; size = 4
_rY$ = -424						; size = 4
_rX$ = -412						; size = 4
_OffsetZ$ = -400					; size = 4
_OffsetY$ = -388					; size = 4
_OffsetX$ = -376					; size = 4
_bytePlayerID$ = -361					; size = 1
_byteObjectID$ = -349					; size = 1
_bsData$ = -340						; size = 273
_sender$ = -56						; size = 6
_iBitLength$ = -40					; size = 4
_Data$ = -28						; size = 4
__$ArrayPad$ = -20					; size = 4
__$EHRec$ = -16						; size = 16
_rpcParams$ = 8						; size = 4
?ScrAttachObjectToPlayer@@YAXPAURPCParameters@@@Z PROC	; ScrAttachObjectToPlayer, COMDAT

; 1172 : {

	push	ebp
	mov	ebp, esp
	push	-1
	push	__ehhandler$?ScrAttachObjectToPlayer@@YAXPAURPCParameters@@@Z
	mov	eax, DWORD PTR fs:0
	push	eax
	push	ecx
	sub	esp, 660				; 00000294H
	push	ebx
	push	esi
	push	edi
	lea	edi, DWORD PTR [ebp-676]
	mov	ecx, 165				; 000000a5H
	mov	eax, -858993460				; ccccccccH
	rep stosd
	mov	eax, DWORD PTR ___security_cookie
	xor	eax, ebp
	mov	DWORD PTR __$ArrayPad$[ebp], eax
	push	eax
	lea	eax, DWORD PTR __$EHRec$[ebp+4]
	mov	DWORD PTR fs:0, eax
	mov	DWORD PTR __$EHRec$[ebp], esp

; 1173 : 	PCHAR Data		= reinterpret_cast<PCHAR>(rpcParams->input);

	mov	eax, DWORD PTR _rpcParams$[ebp]
	mov	ecx, DWORD PTR [eax]
	mov	DWORD PTR _Data$[ebp], ecx

; 1174 : 	int iBitLength	= rpcParams->numberOfBitsOfData;

	mov	eax, DWORD PTR _rpcParams$[ebp]
	mov	ecx, DWORD PTR [eax+4]
	mov	DWORD PTR _iBitLength$[ebp], ecx

; 1175 : 	PlayerID sender	= rpcParams->sender;

	mov	eax, DWORD PTR _rpcParams$[ebp]
	add	eax, 8
	mov	ecx, DWORD PTR [eax]
	mov	DWORD PTR _sender$[ebp], ecx
	mov	dx, WORD PTR [eax+4]
	mov	WORD PTR _sender$[ebp+4], dx

; 1176 : 
; 1177 : 	RakNet::BitStream bsData(Data, (iBitLength/8)+1, false);

	push	0
	mov	eax, DWORD PTR _iBitLength$[ebp]
	cdq
	and	edx, 7
	add	eax, edx
	sar	eax, 3
	add	eax, 1
	push	eax
	mov	eax, DWORD PTR _Data$[ebp]
	push	eax
	lea	ecx, DWORD PTR _bsData$[ebp]
	call	??0BitStream@RakNet@@QAE@PADI_N@Z	; RakNet::BitStream::BitStream
	mov	DWORD PTR __$EHRec$[ebp+12], 0

; 1178 : 
; 1179 : 	BYTE byteObjectID, bytePlayerID;
; 1180 : 	float OffsetX, OffsetY, OffsetZ, rX, rY, rZ;
; 1181 : 
; 1182 : 	bsData.Read( byteObjectID );

	lea	eax, DWORD PTR _byteObjectID$[ebp]
	push	eax
	lea	ecx, DWORD PTR _bsData$[ebp]
	call	??$Read@E@BitStream@RakNet@@QAE_NAAE@Z	; RakNet::BitStream::Read<unsigned char>

; 1183 : 	bsData.Read( bytePlayerID );

	lea	eax, DWORD PTR _bytePlayerID$[ebp]
	push	eax
	lea	ecx, DWORD PTR _bsData$[ebp]
	call	??$Read@E@BitStream@RakNet@@QAE_NAAE@Z	; RakNet::BitStream::Read<unsigned char>

; 1184 : 
; 1185 : 	bsData.Read( OffsetX );

	lea	eax, DWORD PTR _OffsetX$[ebp]
	push	eax
	lea	ecx, DWORD PTR _bsData$[ebp]
	call	??$Read@M@BitStream@RakNet@@QAE_NAAM@Z	; RakNet::BitStream::Read<float>

; 1186 : 	bsData.Read( OffsetY );

	lea	eax, DWORD PTR _OffsetY$[ebp]
	push	eax
	lea	ecx, DWORD PTR _bsData$[ebp]
	call	??$Read@M@BitStream@RakNet@@QAE_NAAM@Z	; RakNet::BitStream::Read<float>

; 1187 : 	bsData.Read( OffsetZ );

	lea	eax, DWORD PTR _OffsetZ$[ebp]
	push	eax
	lea	ecx, DWORD PTR _bsData$[ebp]
	call	??$Read@M@BitStream@RakNet@@QAE_NAAM@Z	; RakNet::BitStream::Read<float>

; 1188 : 
; 1189 : 	bsData.Read( rX );

	lea	eax, DWORD PTR _rX$[ebp]
	push	eax
	lea	ecx, DWORD PTR _bsData$[ebp]
	call	??$Read@M@BitStream@RakNet@@QAE_NAAM@Z	; RakNet::BitStream::Read<float>

; 1190 : 	bsData.Read( rY );

	lea	eax, DWORD PTR _rY$[ebp]
	push	eax
	lea	ecx, DWORD PTR _bsData$[ebp]
	call	??$Read@M@BitStream@RakNet@@QAE_NAAM@Z	; RakNet::BitStream::Read<float>

; 1191 : 	bsData.Read( rZ );

	lea	eax, DWORD PTR _rZ$[ebp]
	push	eax
	lea	ecx, DWORD PTR _bsData$[ebp]
	call	??$Read@M@BitStream@RakNet@@QAE_NAAM@Z	; RakNet::BitStream::Read<float>

; 1192 : 
; 1193 : 	try {

	mov	BYTE PTR __$EHRec$[ebp+12], 1

; 1194 : 
; 1195 : 	CObject* pObject =	pNetGame->GetObjectPool()->GetAt(	byteObjectID );

	mov	ecx, DWORD PTR ?pNetGame@@3PAVCNetGame@@A ; pNetGame
	call	?GetObjectPool@CNetGame@@QAEPAVCObjectPool@@XZ ; CNetGame::GetObjectPool
	mov	DWORD PTR tv69[ebp], eax
	movzx	eax, BYTE PTR _byteObjectID$[ebp]
	push	eax
	mov	ecx, DWORD PTR tv69[ebp]
	call	?GetAt@CObjectPool@@QAEPAVCObject@@E@Z	; CObjectPool::GetAt
	mov	DWORD PTR tv205[ebp], eax
	mov	ecx, DWORD PTR tv205[ebp]
	mov	DWORD PTR _pObject$4[ebp], ecx

; 1196 : 
; 1197 : 	if ( !pObject )

	cmp	DWORD PTR _pObject$4[ebp], 0
	jne	SHORT $LN4@ScrAttachO

; 1198 : 		return;

	mov	DWORD PTR __$EHRec$[ebp+12], -1
	lea	ecx, DWORD PTR _bsData$[ebp]
	call	??1BitStream@RakNet@@QAE@XZ		; RakNet::BitStream::~BitStream
	jmp	$LN6@ScrAttachO
$LN4@ScrAttachO:

; 1199 : 
; 1200 : 	if ( bytePlayerID == pNetGame->GetPlayerPool()->GetLocalPlayerID() )

	mov	ecx, DWORD PTR ?pNetGame@@3PAVCNetGame@@A ; pNetGame
	call	?GetPlayerPool@CNetGame@@QAEPAVCPlayerPool@@XZ ; CNetGame::GetPlayerPool
	mov	DWORD PTR tv206[ebp], eax
	mov	ecx, DWORD PTR tv206[ebp]
	call	?GetLocalPlayerID@CPlayerPool@@QAEEXZ	; CPlayerPool::GetLocalPlayerID
	mov	BYTE PTR tv207[ebp], al
	movzx	eax, BYTE PTR tv207[ebp]
	movzx	ecx, BYTE PTR _bytePlayerID$[ebp]
	cmp	ecx, eax
	jne	$LN3@ScrAttachO

; 1201 : 	{
; 1202 : 		CLocalPlayer* pPlayer = pNetGame->GetPlayerPool()->GetLocalPlayer();

	mov	ecx, DWORD PTR ?pNetGame@@3PAVCNetGame@@A ; pNetGame
	call	?GetPlayerPool@CNetGame@@QAEPAVCPlayerPool@@XZ ; CNetGame::GetPlayerPool
	mov	DWORD PTR tv208[ebp], eax
	mov	ecx, DWORD PTR tv208[ebp]
	call	?GetLocalPlayer@CPlayerPool@@QAEPAVCLocalPlayer@@XZ ; CPlayerPool::GetLocalPlayer
	mov	DWORD PTR tv209[ebp], eax
	mov	eax, DWORD PTR tv209[ebp]
	mov	DWORD PTR _pPlayer$3[ebp], eax

; 1203 : 		ScriptCommand( &attach_object_to_actor, pObject->m_dwGTAId, pPlayer->GetPlayerPed()->m_dwGTAId,
; 1204 : 			OffsetX,
; 1205 : 			OffsetY,
; 1206 : 			OffsetZ, 
; 1207 : 			rX,
; 1208 : 			rY,
; 1209 : 			rZ);

	mov	ecx, DWORD PTR _pPlayer$3[ebp]
	call	?GetPlayerPed@CLocalPlayer@@QAEPAVCPlayerPed@@XZ ; CLocalPlayer::GetPlayerPed
	mov	DWORD PTR tv210[ebp], eax
	cvtss2sd xmm0, DWORD PTR _rZ$[ebp]
	sub	esp, 8
	movsd	QWORD PTR [esp], xmm0
	cvtss2sd xmm0, DWORD PTR _rY$[ebp]
	sub	esp, 8
	movsd	QWORD PTR [esp], xmm0
	cvtss2sd xmm0, DWORD PTR _rX$[ebp]
	sub	esp, 8
	movsd	QWORD PTR [esp], xmm0
	cvtss2sd xmm0, DWORD PTR _OffsetZ$[ebp]
	sub	esp, 8
	movsd	QWORD PTR [esp], xmm0
	cvtss2sd xmm0, DWORD PTR _OffsetY$[ebp]
	sub	esp, 8
	movsd	QWORD PTR [esp], xmm0
	cvtss2sd xmm0, DWORD PTR _OffsetX$[ebp]
	sub	esp, 8
	movsd	QWORD PTR [esp], xmm0
	mov	eax, DWORD PTR tv210[ebp]
	mov	ecx, DWORD PTR [eax+8]
	push	ecx
	mov	edx, DWORD PTR _pObject$4[ebp]
	mov	eax, DWORD PTR [edx+8]
	push	eax
	push	OFFSET _attach_object_to_actor
	call	?ScriptCommand@@YAHPBUSCRIPT_COMMAND@@ZZ ; ScriptCommand
	add	esp, 60					; 0000003cH

; 1210 : 	} else {

	jmp	$LN2@ScrAttachO
$LN3@ScrAttachO:

; 1211 : 		CRemotePlayer* pPlayer =	pNetGame->GetPlayerPool()->GetAt(	bytePlayerID );

	mov	ecx, DWORD PTR ?pNetGame@@3PAVCNetGame@@A ; pNetGame
	call	?GetPlayerPool@CNetGame@@QAEPAVCPlayerPool@@XZ ; CNetGame::GetPlayerPool
	mov	DWORD PTR tv211[ebp], eax
	movzx	eax, BYTE PTR _bytePlayerID$[ebp]
	push	eax
	mov	ecx, DWORD PTR tv211[ebp]
	call	?GetAt@CPlayerPool@@QAEPAVCRemotePlayer@@E@Z ; CPlayerPool::GetAt
	mov	DWORD PTR tv212[ebp], eax
	mov	ecx, DWORD PTR tv212[ebp]
	mov	DWORD PTR _pPlayer$2[ebp], ecx

; 1212 : 
; 1213 : 		if ( !pPlayer )

	cmp	DWORD PTR _pPlayer$2[ebp], 0
	jne	SHORT $LN1@ScrAttachO

; 1214 : 			return;

	mov	DWORD PTR __$EHRec$[ebp+12], -1
	lea	ecx, DWORD PTR _bsData$[ebp]
	call	??1BitStream@RakNet@@QAE@XZ		; RakNet::BitStream::~BitStream
	jmp	$LN6@ScrAttachO
$LN1@ScrAttachO:

; 1215 : 
; 1216 : 		ScriptCommand( &attach_object_to_actor, pObject->m_dwGTAId, pPlayer->GetPlayerPed()->m_dwGTAId,
; 1217 : 																	OffsetX,
; 1218 : 																	OffsetY,
; 1219 : 																	OffsetZ, 
; 1220 : 																	rX,
; 1221 : 																	rY,
; 1222 : 																	rZ);

	mov	ecx, DWORD PTR _pPlayer$2[ebp]
	call	?GetPlayerPed@CRemotePlayer@@QAEPAVCPlayerPed@@XZ ; CRemotePlayer::GetPlayerPed
	mov	DWORD PTR tv213[ebp], eax
	cvtss2sd xmm0, DWORD PTR _rZ$[ebp]
	sub	esp, 8
	movsd	QWORD PTR [esp], xmm0
	cvtss2sd xmm0, DWORD PTR _rY$[ebp]
	sub	esp, 8
	movsd	QWORD PTR [esp], xmm0
	cvtss2sd xmm0, DWORD PTR _rX$[ebp]
	sub	esp, 8
	movsd	QWORD PTR [esp], xmm0
	cvtss2sd xmm0, DWORD PTR _OffsetZ$[ebp]
	sub	esp, 8
	movsd	QWORD PTR [esp], xmm0
	cvtss2sd xmm0, DWORD PTR _OffsetY$[ebp]
	sub	esp, 8
	movsd	QWORD PTR [esp], xmm0
	cvtss2sd xmm0, DWORD PTR _OffsetX$[ebp]
	sub	esp, 8
	movsd	QWORD PTR [esp], xmm0
	mov	eax, DWORD PTR tv213[ebp]
	mov	ecx, DWORD PTR [eax+8]
	push	ecx
	mov	edx, DWORD PTR _pObject$4[ebp]
	mov	eax, DWORD PTR [edx+8]
	push	eax
	push	OFFSET _attach_object_to_actor
	call	?ScriptCommand@@YAHPBUSCRIPT_COMMAND@@ZZ ; ScriptCommand
	add	esp, 60					; 0000003cH
$LN2@ScrAttachO:
	jmp	SHORT $LN8@ScrAttachO
__catch$?ScrAttachObjectToPlayer@@YAXPAURPCParameters@@@Z$0:

; 1223 : 	}
; 1224 : 
; 1225 : 	} catch(...) {}

	mov	eax, $LN12@ScrAttachO
	ret	0
$LN8@ScrAttachO:
	mov	DWORD PTR __$EHRec$[ebp+12], 0
	jmp	SHORT $LN11@ScrAttachO
$LN12@ScrAttachO:
	mov	DWORD PTR __$EHRec$[ebp+12], 0
$LN11@ScrAttachO:

; 1226 : }

	mov	DWORD PTR __$EHRec$[ebp+12], -1
	lea	ecx, DWORD PTR _bsData$[ebp]
	call	??1BitStream@RakNet@@QAE@XZ		; RakNet::BitStream::~BitStream
$LN6@ScrAttachO:
	push	edx
	mov	ecx, ebp
	push	eax
	lea	edx, DWORD PTR $LN27@ScrAttachO
	call	@_RTC_CheckStackVars@8
	pop	eax
	pop	edx
	mov	ecx, DWORD PTR __$EHRec$[ebp+4]
	mov	DWORD PTR fs:0, ecx
	pop	ecx
	pop	edi
	pop	esi
	pop	ebx
	mov	ecx, DWORD PTR __$ArrayPad$[ebp]
	xor	ecx, ebp
	call	@__security_check_cookie@4
	add	esp, 676				; 000002a4H
	cmp	ebp, esp
	call	__RTC_CheckEsp
	mov	esp, ebp
	pop	ebp
	ret	0
	npad	1
$LN27@ScrAttachO:
	DD	10					; 0000000aH
	DD	$LN26@ScrAttachO
$LN26@ScrAttachO:
	DD	-56					; ffffffc8H
	DD	6
	DD	$LN15@ScrAttachO
	DD	-340					; fffffeacH
	DD	273					; 00000111H
	DD	$LN16@ScrAttachO
	DD	-349					; fffffea3H
	DD	1
	DD	$LN17@ScrAttachO
	DD	-361					; fffffe97H
	DD	1
	DD	$LN18@ScrAttachO
	DD	-376					; fffffe88H
	DD	4
	DD	$LN19@ScrAttachO
	DD	-388					; fffffe7cH
	DD	4
	DD	$LN20@ScrAttachO
	DD	-400					; fffffe70H
	DD	4
	DD	$LN21@ScrAttachO
	DD	-412					; fffffe64H
	DD	4
	DD	$LN22@ScrAttachO
	DD	-424					; fffffe58H
	DD	4
	DD	$LN23@ScrAttachO
	DD	-436					; fffffe4cH
	DD	4
	DD	$LN24@ScrAttachO
$LN24@ScrAttachO:
	DB	114					; 00000072H
	DB	90					; 0000005aH
	DB	0
$LN23@ScrAttachO:
	DB	114					; 00000072H
	DB	89					; 00000059H
	DB	0
$LN22@ScrAttachO:
	DB	114					; 00000072H
	DB	88					; 00000058H
	DB	0
$LN21@ScrAttachO:
	DB	79					; 0000004fH
	DB	102					; 00000066H
	DB	102					; 00000066H
	DB	115					; 00000073H
	DB	101					; 00000065H
	DB	116					; 00000074H
	DB	90					; 0000005aH
	DB	0
$LN20@ScrAttachO:
	DB	79					; 0000004fH
	DB	102					; 00000066H
	DB	102					; 00000066H
	DB	115					; 00000073H
	DB	101					; 00000065H
	DB	116					; 00000074H
	DB	89					; 00000059H
	DB	0
$LN19@ScrAttachO:
	DB	79					; 0000004fH
	DB	102					; 00000066H
	DB	102					; 00000066H
	DB	115					; 00000073H
	DB	101					; 00000065H
	DB	116					; 00000074H
	DB	88					; 00000058H
	DB	0
$LN18@ScrAttachO:
	DB	98					; 00000062H
	DB	121					; 00000079H
	DB	116					; 00000074H
	DB	101					; 00000065H
	DB	80					; 00000050H
	DB	108					; 0000006cH
	DB	97					; 00000061H
	DB	121					; 00000079H
	DB	101					; 00000065H
	DB	114					; 00000072H
	DB	73					; 00000049H
	DB	68					; 00000044H
	DB	0
$LN17@ScrAttachO:
	DB	98					; 00000062H
	DB	121					; 00000079H
	DB	116					; 00000074H
	DB	101					; 00000065H
	DB	79					; 0000004fH
	DB	98					; 00000062H
	DB	106					; 0000006aH
	DB	101					; 00000065H
	DB	99					; 00000063H
	DB	116					; 00000074H
	DB	73					; 00000049H
	DB	68					; 00000044H
	DB	0
$LN16@ScrAttachO:
	DB	98					; 00000062H
	DB	115					; 00000073H
	DB	68					; 00000044H
	DB	97					; 00000061H
	DB	116					; 00000074H
	DB	97					; 00000061H
	DB	0
$LN15@ScrAttachO:
	DB	115					; 00000073H
	DB	101					; 00000065H
	DB	110					; 0000006eH
	DB	100					; 00000064H
	DB	101					; 00000065H
	DB	114					; 00000072H
	DB	0
_TEXT	ENDS
;	COMDAT text$x
text$x	SEGMENT
__unwindfunclet$?ScrAttachObjectToPlayer@@YAXPAURPCParameters@@@Z$2:
	lea	ecx, DWORD PTR _bsData$[ebp]
	jmp	??1BitStream@RakNet@@QAE@XZ		; RakNet::BitStream::~BitStream
__ehhandler$?ScrAttachObjectToPlayer@@YAXPAURPCParameters@@@Z:
	mov	edx, DWORD PTR [esp+8]
	lea	eax, DWORD PTR [edx+12]
	mov	ecx, DWORD PTR [edx-680]
	xor	ecx, eax
	call	@__security_check_cookie@4
	mov	ecx, DWORD PTR [edx-8]
	xor	ecx, eax
	call	@__security_check_cookie@4
	mov	eax, OFFSET __ehfuncinfo$?ScrAttachObjectToPlayer@@YAXPAURPCParameters@@@Z
	jmp	___CxxFrameHandler3
text$x	ENDS
?ScrAttachObjectToPlayer@@YAXPAURPCParameters@@@Z ENDP	; ScrAttachObjectToPlayer
; Function compile flags: /Odtp /RTCsu /ZI
; File z:\sampsrc\02xu1\saco\net\scriptrpc.cpp
;	COMDAT ?ScrForceSpawnSelection@@YAXPAURPCParameters@@@Z
_TEXT	SEGMENT
_rpcParams$ = 8						; size = 4
?ScrForceSpawnSelection@@YAXPAURPCParameters@@@Z PROC	; ScrForceSpawnSelection, COMDAT

; 1167 : {

	push	ebp
	mov	ebp, esp
	sub	esp, 192				; 000000c0H
	push	ebx
	push	esi
	push	edi
	lea	edi, DWORD PTR [ebp-192]
	mov	ecx, 48					; 00000030H
	mov	eax, -858993460				; ccccccccH
	rep stosd

; 1168 : 	pNetGame->GetPlayerPool()->GetLocalPlayer()->ReturnToClassSelection();

	mov	ecx, DWORD PTR ?pNetGame@@3PAVCNetGame@@A ; pNetGame
	call	?GetPlayerPool@CNetGame@@QAEPAVCPlayerPool@@XZ ; CNetGame::GetPlayerPool
	mov	ecx, eax
	call	?GetLocalPlayer@CPlayerPool@@QAEPAVCLocalPlayer@@XZ ; CPlayerPool::GetLocalPlayer
	mov	ecx, eax
	call	?ReturnToClassSelection@CLocalPlayer@@QAEXXZ ; CLocalPlayer::ReturnToClassSelection

; 1169 : }

	pop	edi
	pop	esi
	pop	ebx
	add	esp, 192				; 000000c0H
	cmp	ebp, esp
	call	__RTC_CheckEsp
	mov	esp, ebp
	pop	ebp
	ret	0
?ScrForceSpawnSelection@@YAXPAURPCParameters@@@Z ENDP	; ScrForceSpawnSelection
_TEXT	ENDS
; Function compile flags: /Odtp /RTCsu /ZI
; File z:\sampsrc\02xu1\saco\net\scriptrpc.cpp
;	COMDAT ?ScrRemoveComponent@@YAXPAURPCParameters@@@Z
_TEXT	SEGMENT
_iVehicleID$ = -372					; size = 4
_dwComponent$ = -360					; size = 4
_VehicleID$ = -348					; size = 2
_bsData$ = -336						; size = 273
_sender$ = -52						; size = 6
_iBitLength$ = -36					; size = 4
_Data$ = -24						; size = 4
__$ArrayPad$ = -16					; size = 4
__$EHRec$ = -12						; size = 12
_rpcParams$ = 8						; size = 4
?ScrRemoveComponent@@YAXPAURPCParameters@@@Z PROC	; ScrRemoveComponent, COMDAT

; 1144 : {

	push	ebp
	mov	ebp, esp
	push	-1
	push	__ehhandler$?ScrRemoveComponent@@YAXPAURPCParameters@@@Z
	mov	eax, DWORD PTR fs:0
	push	eax
	sub	esp, 556				; 0000022cH
	push	ebx
	push	esi
	push	edi
	lea	edi, DWORD PTR [ebp-568]
	mov	ecx, 139				; 0000008bH
	mov	eax, -858993460				; ccccccccH
	rep stosd
	mov	eax, DWORD PTR ___security_cookie
	xor	eax, ebp
	mov	DWORD PTR __$ArrayPad$[ebp], eax
	push	eax
	lea	eax, DWORD PTR __$EHRec$[ebp]
	mov	DWORD PTR fs:0, eax

; 1145 : 	PCHAR Data = reinterpret_cast<PCHAR>(rpcParams->input);

	mov	eax, DWORD PTR _rpcParams$[ebp]
	mov	ecx, DWORD PTR [eax]
	mov	DWORD PTR _Data$[ebp], ecx

; 1146 : 	int iBitLength = rpcParams->numberOfBitsOfData;

	mov	eax, DWORD PTR _rpcParams$[ebp]
	mov	ecx, DWORD PTR [eax+4]
	mov	DWORD PTR _iBitLength$[ebp], ecx

; 1147 : 	PlayerID sender = rpcParams->sender;

	mov	eax, DWORD PTR _rpcParams$[ebp]
	add	eax, 8
	mov	ecx, DWORD PTR [eax]
	mov	DWORD PTR _sender$[ebp], ecx
	mov	dx, WORD PTR [eax+4]
	mov	WORD PTR _sender$[ebp+4], dx

; 1148 : 
; 1149 : 	RakNet::BitStream bsData(Data,(iBitLength/8)+1,false);

	push	0
	mov	eax, DWORD PTR _iBitLength$[ebp]
	cdq
	and	edx, 7
	add	eax, edx
	sar	eax, 3
	add	eax, 1
	push	eax
	mov	eax, DWORD PTR _Data$[ebp]
	push	eax
	lea	ecx, DWORD PTR _bsData$[ebp]
	call	??0BitStream@RakNet@@QAE@PADI_N@Z	; RakNet::BitStream::BitStream
	mov	DWORD PTR __$EHRec$[ebp+8], 0

; 1150 : 	
; 1151 : 	VEHICLEID VehicleID;
; 1152 :     DWORD dwComponent;
; 1153 : 	
; 1154 : 	bsData.Read(VehicleID);

	lea	eax, DWORD PTR _VehicleID$[ebp]
	push	eax
	lea	ecx, DWORD PTR _bsData$[ebp]
	call	??$Read@G@BitStream@RakNet@@QAE_NAAG@Z	; RakNet::BitStream::Read<unsigned short>

; 1155 : 	bsData.Read(dwComponent);

	lea	eax, DWORD PTR _dwComponent$[ebp]
	push	eax
	lea	ecx, DWORD PTR _bsData$[ebp]
	call	??$Read@K@BitStream@RakNet@@QAE_NAAK@Z	; RakNet::BitStream::Read<unsigned long>

; 1156 : 
; 1157 : 	int iVehicleID;
; 1158 : 	//int iComponent;
; 1159 : 
; 1160 : 	if(!pNetGame) return;

	cmp	DWORD PTR ?pNetGame@@3PAVCNetGame@@A, 0	; pNetGame
	jne	SHORT $LN2@ScrRemoveC
	mov	DWORD PTR __$EHRec$[ebp+8], -1
	lea	ecx, DWORD PTR _bsData$[ebp]
	call	??1BitStream@RakNet@@QAE@XZ		; RakNet::BitStream::~BitStream
	jmp	SHORT $LN3@ScrRemoveC
$LN2@ScrRemoveC:

; 1161 : 
; 1162 : 	iVehicleID = pNetGame->GetVehiclePool()->FindGtaIDFromID(VehicleID);

	movzx	eax, WORD PTR _VehicleID$[ebp]
	push	eax
	mov	ecx, DWORD PTR ?pNetGame@@3PAVCNetGame@@A ; pNetGame
	call	?GetVehiclePool@CNetGame@@QAEPAVCVehiclePool@@XZ ; CNetGame::GetVehiclePool
	mov	ecx, eax
	call	?FindGtaIDFromID@CVehiclePool@@QAEHH@Z	; CVehiclePool::FindGtaIDFromID
	mov	DWORD PTR _iVehicleID$[ebp], eax

; 1163 : 	if(iVehicleID) ScriptCommand(&remove_component, iVehicleID, (int)dwComponent);

	cmp	DWORD PTR _iVehicleID$[ebp], 0
	je	SHORT $LN1@ScrRemoveC
	mov	eax, DWORD PTR _dwComponent$[ebp]
	push	eax
	mov	ecx, DWORD PTR _iVehicleID$[ebp]
	push	ecx
	push	OFFSET _remove_component
	call	?ScriptCommand@@YAHPBUSCRIPT_COMMAND@@ZZ ; ScriptCommand
	add	esp, 12					; 0000000cH
$LN1@ScrRemoveC:

; 1164 : }

	mov	DWORD PTR __$EHRec$[ebp+8], -1
	lea	ecx, DWORD PTR _bsData$[ebp]
	call	??1BitStream@RakNet@@QAE@XZ		; RakNet::BitStream::~BitStream
$LN3@ScrRemoveC:
	push	edx
	mov	ecx, ebp
	push	eax
	lea	edx, DWORD PTR $LN12@ScrRemoveC
	call	@_RTC_CheckStackVars@8
	pop	eax
	pop	edx
	mov	ecx, DWORD PTR __$EHRec$[ebp]
	mov	DWORD PTR fs:0, ecx
	pop	ecx
	pop	edi
	pop	esi
	pop	ebx
	mov	ecx, DWORD PTR __$ArrayPad$[ebp]
	xor	ecx, ebp
	call	@__security_check_cookie@4
	add	esp, 568				; 00000238H
	cmp	ebp, esp
	call	__RTC_CheckEsp
	mov	esp, ebp
	pop	ebp
	ret	0
	npad	3
$LN12@ScrRemoveC:
	DD	4
	DD	$LN11@ScrRemoveC
$LN11@ScrRemoveC:
	DD	-52					; ffffffccH
	DD	6
	DD	$LN6@ScrRemoveC
	DD	-336					; fffffeb0H
	DD	273					; 00000111H
	DD	$LN7@ScrRemoveC
	DD	-348					; fffffea4H
	DD	2
	DD	$LN8@ScrRemoveC
	DD	-360					; fffffe98H
	DD	4
	DD	$LN9@ScrRemoveC
$LN9@ScrRemoveC:
	DB	100					; 00000064H
	DB	119					; 00000077H
	DB	67					; 00000043H
	DB	111					; 0000006fH
	DB	109					; 0000006dH
	DB	112					; 00000070H
	DB	111					; 0000006fH
	DB	110					; 0000006eH
	DB	101					; 00000065H
	DB	110					; 0000006eH
	DB	116					; 00000074H
	DB	0
$LN8@ScrRemoveC:
	DB	86					; 00000056H
	DB	101					; 00000065H
	DB	104					; 00000068H
	DB	105					; 00000069H
	DB	99					; 00000063H
	DB	108					; 0000006cH
	DB	101					; 00000065H
	DB	73					; 00000049H
	DB	68					; 00000044H
	DB	0
$LN7@ScrRemoveC:
	DB	98					; 00000062H
	DB	115					; 00000073H
	DB	68					; 00000044H
	DB	97					; 00000061H
	DB	116					; 00000074H
	DB	97					; 00000061H
	DB	0
$LN6@ScrRemoveC:
	DB	115					; 00000073H
	DB	101					; 00000065H
	DB	110					; 0000006eH
	DB	100					; 00000064H
	DB	101					; 00000065H
	DB	114					; 00000072H
	DB	0
_TEXT	ENDS
;	COMDAT text$x
text$x	SEGMENT
__unwindfunclet$?ScrRemoveComponent@@YAXPAURPCParameters@@@Z$0:
	lea	ecx, DWORD PTR _bsData$[ebp]
	jmp	??1BitStream@RakNet@@QAE@XZ		; RakNet::BitStream::~BitStream
__ehhandler$?ScrRemoveComponent@@YAXPAURPCParameters@@@Z:
	mov	edx, DWORD PTR [esp+8]
	lea	eax, DWORD PTR [edx+12]
	mov	ecx, DWORD PTR [edx-572]
	xor	ecx, eax
	call	@__security_check_cookie@4
	mov	ecx, DWORD PTR [edx-4]
	xor	ecx, eax
	call	@__security_check_cookie@4
	mov	eax, OFFSET __ehfuncinfo$?ScrRemoveComponent@@YAXPAURPCParameters@@@Z
	jmp	___CxxFrameHandler3
text$x	ENDS
?ScrRemoveComponent@@YAXPAURPCParameters@@@Z ENDP	; ScrRemoveComponent
; Function compile flags: /Odtp /RTCsu /ZI
; File z:\sampsrc\02xu1\saco\net\scriptrpc.cpp
;	COMDAT ?ScrPlayerSpectateVehicle@@YAXPAURPCParameters@@@Z
_TEXT	SEGMENT
tv81 = -572						; size = 4
_pLocalPlayer$ = -372					; size = 4
_byteMode$ = -357					; size = 1
_VehicleID$ = -348					; size = 2
_bsData$ = -336						; size = 273
_sender$ = -52						; size = 6
_iBitLength$ = -36					; size = 4
_Data$ = -24						; size = 4
__$ArrayPad$ = -16					; size = 4
__$EHRec$ = -12						; size = 12
_rpcParams$ = 8						; size = 4
?ScrPlayerSpectateVehicle@@YAXPAURPCParameters@@@Z PROC	; ScrPlayerSpectateVehicle, COMDAT

; 1113 : {

	push	ebp
	mov	ebp, esp
	push	-1
	push	__ehhandler$?ScrPlayerSpectateVehicle@@YAXPAURPCParameters@@@Z
	mov	eax, DWORD PTR fs:0
	push	eax
	sub	esp, 560				; 00000230H
	push	ebx
	push	esi
	push	edi
	lea	edi, DWORD PTR [ebp-572]
	mov	ecx, 140				; 0000008cH
	mov	eax, -858993460				; ccccccccH
	rep stosd
	mov	eax, DWORD PTR ___security_cookie
	xor	eax, ebp
	mov	DWORD PTR __$ArrayPad$[ebp], eax
	push	eax
	lea	eax, DWORD PTR __$EHRec$[ebp]
	mov	DWORD PTR fs:0, eax

; 1114 : 	PCHAR Data = reinterpret_cast<PCHAR>(rpcParams->input);

	mov	eax, DWORD PTR _rpcParams$[ebp]
	mov	ecx, DWORD PTR [eax]
	mov	DWORD PTR _Data$[ebp], ecx

; 1115 : 	int iBitLength = rpcParams->numberOfBitsOfData;

	mov	eax, DWORD PTR _rpcParams$[ebp]
	mov	ecx, DWORD PTR [eax+4]
	mov	DWORD PTR _iBitLength$[ebp], ecx

; 1116 : 	PlayerID sender = rpcParams->sender;

	mov	eax, DWORD PTR _rpcParams$[ebp]
	add	eax, 8
	mov	ecx, DWORD PTR [eax]
	mov	DWORD PTR _sender$[ebp], ecx
	mov	dx, WORD PTR [eax+4]
	mov	WORD PTR _sender$[ebp+4], dx

; 1117 : 
; 1118 : 	RakNet::BitStream bsData(Data,(iBitLength/8)+1,false);

	push	0
	mov	eax, DWORD PTR _iBitLength$[ebp]
	cdq
	and	edx, 7
	add	eax, edx
	sar	eax, 3
	add	eax, 1
	push	eax
	mov	eax, DWORD PTR _Data$[ebp]
	push	eax
	lea	ecx, DWORD PTR _bsData$[ebp]
	call	??0BitStream@RakNet@@QAE@PADI_N@Z	; RakNet::BitStream::BitStream
	mov	DWORD PTR __$EHRec$[ebp+8], 0

; 1119 : 
; 1120 : 	//pChatWindow->AddDebugMessage("ScrPlayerSpectateVehicle");
; 1121 : 	
; 1122 : 	VEHICLEID VehicleID;
; 1123 :     BYTE byteMode;
; 1124 : 	
; 1125 : 	bsData.Read(VehicleID);

	lea	eax, DWORD PTR _VehicleID$[ebp]
	push	eax
	lea	ecx, DWORD PTR _bsData$[ebp]
	call	??$Read@G@BitStream@RakNet@@QAE_NAAG@Z	; RakNet::BitStream::Read<unsigned short>

; 1126 : 	bsData.Read(byteMode);

	lea	eax, DWORD PTR _byteMode$[ebp]
	push	eax
	lea	ecx, DWORD PTR _bsData$[ebp]
	call	??$Read@E@BitStream@RakNet@@QAE_NAAE@Z	; RakNet::BitStream::Read<unsigned char>

; 1127 : 
; 1128 : 	switch (byteMode) {

	mov	al, BYTE PTR _byteMode$[ebp]
	mov	BYTE PTR tv81[ebp], al
	cmp	BYTE PTR tv81[ebp], 2
	je	SHORT $LN3@ScrPlayerS
	cmp	BYTE PTR tv81[ebp], 3
	je	SHORT $LN2@ScrPlayerS
	jmp	SHORT $LN1@ScrPlayerS
$LN3@ScrPlayerS:

; 1129 : 		case SPECTATE_TYPE_FIXED:
; 1130 : 			byteMode = 15;

	mov	BYTE PTR _byteMode$[ebp], 15		; 0000000fH

; 1131 : 			break;

	jmp	SHORT $LN4@ScrPlayerS
$LN2@ScrPlayerS:

; 1132 : 		case SPECTATE_TYPE_SIDE:
; 1133 : 			byteMode = 14;

	mov	BYTE PTR _byteMode$[ebp], 14		; 0000000eH

; 1134 : 			break;

	jmp	SHORT $LN4@ScrPlayerS
$LN1@ScrPlayerS:

; 1135 : 		default:
; 1136 : 			byteMode = 3;

	mov	BYTE PTR _byteMode$[ebp], 3
$LN4@ScrPlayerS:

; 1137 : 	}
; 1138 : 	CLocalPlayer *pLocalPlayer = pNetGame->GetPlayerPool()->GetLocalPlayer();

	mov	ecx, DWORD PTR ?pNetGame@@3PAVCNetGame@@A ; pNetGame
	call	?GetPlayerPool@CNetGame@@QAEPAVCPlayerPool@@XZ ; CNetGame::GetPlayerPool
	mov	ecx, eax
	call	?GetLocalPlayer@CPlayerPool@@QAEPAVCLocalPlayer@@XZ ; CPlayerPool::GetLocalPlayer
	mov	DWORD PTR _pLocalPlayer$[ebp], eax

; 1139 : 	pLocalPlayer->m_byteSpectateMode = byteMode;

	mov	eax, DWORD PTR _pLocalPlayer$[ebp]
	mov	cl, BYTE PTR _byteMode$[ebp]
	mov	BYTE PTR [eax+25], cl

; 1140 : 	pLocalPlayer->SpectateVehicle(VehicleID);

	movzx	eax, WORD PTR _VehicleID$[ebp]
	push	eax
	mov	ecx, DWORD PTR _pLocalPlayer$[ebp]
	call	?SpectateVehicle@CLocalPlayer@@QAEXG@Z	; CLocalPlayer::SpectateVehicle

; 1141 : }

	mov	DWORD PTR __$EHRec$[ebp+8], -1
	lea	ecx, DWORD PTR _bsData$[ebp]
	call	??1BitStream@RakNet@@QAE@XZ		; RakNet::BitStream::~BitStream
	push	edx
	mov	ecx, ebp
	push	eax
	lea	edx, DWORD PTR $LN15@ScrPlayerS
	call	@_RTC_CheckStackVars@8
	pop	eax
	pop	edx
	mov	ecx, DWORD PTR __$EHRec$[ebp]
	mov	DWORD PTR fs:0, ecx
	pop	ecx
	pop	edi
	pop	esi
	pop	ebx
	mov	ecx, DWORD PTR __$ArrayPad$[ebp]
	xor	ecx, ebp
	call	@__security_check_cookie@4
	add	esp, 572				; 0000023cH
	cmp	ebp, esp
	call	__RTC_CheckEsp
	mov	esp, ebp
	pop	ebp
	ret	0
	npad	1
$LN15@ScrPlayerS:
	DD	4
	DD	$LN14@ScrPlayerS
$LN14@ScrPlayerS:
	DD	-52					; ffffffccH
	DD	6
	DD	$LN9@ScrPlayerS
	DD	-336					; fffffeb0H
	DD	273					; 00000111H
	DD	$LN10@ScrPlayerS
	DD	-348					; fffffea4H
	DD	2
	DD	$LN11@ScrPlayerS
	DD	-357					; fffffe9bH
	DD	1
	DD	$LN12@ScrPlayerS
$LN12@ScrPlayerS:
	DB	98					; 00000062H
	DB	121					; 00000079H
	DB	116					; 00000074H
	DB	101					; 00000065H
	DB	77					; 0000004dH
	DB	111					; 0000006fH
	DB	100					; 00000064H
	DB	101					; 00000065H
	DB	0
$LN11@ScrPlayerS:
	DB	86					; 00000056H
	DB	101					; 00000065H
	DB	104					; 00000068H
	DB	105					; 00000069H
	DB	99					; 00000063H
	DB	108					; 0000006cH
	DB	101					; 00000065H
	DB	73					; 00000049H
	DB	68					; 00000044H
	DB	0
$LN10@ScrPlayerS:
	DB	98					; 00000062H
	DB	115					; 00000073H
	DB	68					; 00000044H
	DB	97					; 00000061H
	DB	116					; 00000074H
	DB	97					; 00000061H
	DB	0
$LN9@ScrPlayerS:
	DB	115					; 00000073H
	DB	101					; 00000065H
	DB	110					; 0000006eH
	DB	100					; 00000064H
	DB	101					; 00000065H
	DB	114					; 00000072H
	DB	0
_TEXT	ENDS
;	COMDAT text$x
text$x	SEGMENT
__unwindfunclet$?ScrPlayerSpectateVehicle@@YAXPAURPCParameters@@@Z$0:
	lea	ecx, DWORD PTR _bsData$[ebp]
	jmp	??1BitStream@RakNet@@QAE@XZ		; RakNet::BitStream::~BitStream
__ehhandler$?ScrPlayerSpectateVehicle@@YAXPAURPCParameters@@@Z:
	mov	edx, DWORD PTR [esp+8]
	lea	eax, DWORD PTR [edx+12]
	mov	ecx, DWORD PTR [edx-576]
	xor	ecx, eax
	call	@__security_check_cookie@4
	mov	ecx, DWORD PTR [edx-4]
	xor	ecx, eax
	call	@__security_check_cookie@4
	mov	eax, OFFSET __ehfuncinfo$?ScrPlayerSpectateVehicle@@YAXPAURPCParameters@@@Z
	jmp	___CxxFrameHandler3
text$x	ENDS
?ScrPlayerSpectateVehicle@@YAXPAURPCParameters@@@Z ENDP	; ScrPlayerSpectateVehicle
; Function compile flags: /Odtp /RTCsu /ZI
; File z:\sampsrc\02xu1\saco\net\scriptrpc.cpp
;	COMDAT ?ScrPlayerSpectatePlayer@@YAXPAURPCParameters@@@Z
_TEXT	SEGMENT
tv81 = -572						; size = 4
_pLocalPlayer$ = -372					; size = 4
_byteMode$ = -357					; size = 1
_bytePlayerID$ = -345					; size = 1
_bsData$ = -336						; size = 273
_sender$ = -52						; size = 6
_iBitLength$ = -36					; size = 4
_Data$ = -24						; size = 4
__$ArrayPad$ = -16					; size = 4
__$EHRec$ = -12						; size = 12
_rpcParams$ = 8						; size = 4
?ScrPlayerSpectatePlayer@@YAXPAURPCParameters@@@Z PROC	; ScrPlayerSpectatePlayer, COMDAT

; 1084 : {

	push	ebp
	mov	ebp, esp
	push	-1
	push	__ehhandler$?ScrPlayerSpectatePlayer@@YAXPAURPCParameters@@@Z
	mov	eax, DWORD PTR fs:0
	push	eax
	sub	esp, 560				; 00000230H
	push	ebx
	push	esi
	push	edi
	lea	edi, DWORD PTR [ebp-572]
	mov	ecx, 140				; 0000008cH
	mov	eax, -858993460				; ccccccccH
	rep stosd
	mov	eax, DWORD PTR ___security_cookie
	xor	eax, ebp
	mov	DWORD PTR __$ArrayPad$[ebp], eax
	push	eax
	lea	eax, DWORD PTR __$EHRec$[ebp]
	mov	DWORD PTR fs:0, eax

; 1085 : 	PCHAR Data = reinterpret_cast<PCHAR>(rpcParams->input);

	mov	eax, DWORD PTR _rpcParams$[ebp]
	mov	ecx, DWORD PTR [eax]
	mov	DWORD PTR _Data$[ebp], ecx

; 1086 : 	int iBitLength = rpcParams->numberOfBitsOfData;

	mov	eax, DWORD PTR _rpcParams$[ebp]
	mov	ecx, DWORD PTR [eax+4]
	mov	DWORD PTR _iBitLength$[ebp], ecx

; 1087 : 	PlayerID sender = rpcParams->sender;

	mov	eax, DWORD PTR _rpcParams$[ebp]
	add	eax, 8
	mov	ecx, DWORD PTR [eax]
	mov	DWORD PTR _sender$[ebp], ecx
	mov	dx, WORD PTR [eax+4]
	mov	WORD PTR _sender$[ebp+4], dx

; 1088 : 
; 1089 : 	RakNet::BitStream bsData(Data,(iBitLength/8)+1,false);

	push	0
	mov	eax, DWORD PTR _iBitLength$[ebp]
	cdq
	and	edx, 7
	add	eax, edx
	sar	eax, 3
	add	eax, 1
	push	eax
	mov	eax, DWORD PTR _Data$[ebp]
	push	eax
	lea	ecx, DWORD PTR _bsData$[ebp]
	call	??0BitStream@RakNet@@QAE@PADI_N@Z	; RakNet::BitStream::BitStream
	mov	DWORD PTR __$EHRec$[ebp+8], 0

; 1090 : 	
; 1091 : 	BYTE bytePlayerID;
; 1092 :     BYTE byteMode;
; 1093 : 	
; 1094 : 	bsData.Read(bytePlayerID);

	lea	eax, DWORD PTR _bytePlayerID$[ebp]
	push	eax
	lea	ecx, DWORD PTR _bsData$[ebp]
	call	??$Read@E@BitStream@RakNet@@QAE_NAAE@Z	; RakNet::BitStream::Read<unsigned char>

; 1095 : 	bsData.Read(byteMode);

	lea	eax, DWORD PTR _byteMode$[ebp]
	push	eax
	lea	ecx, DWORD PTR _bsData$[ebp]
	call	??$Read@E@BitStream@RakNet@@QAE_NAAE@Z	; RakNet::BitStream::Read<unsigned char>

; 1096 : 
; 1097 : 	switch (byteMode) {

	mov	al, BYTE PTR _byteMode$[ebp]
	mov	BYTE PTR tv81[ebp], al
	cmp	BYTE PTR tv81[ebp], 2
	je	SHORT $LN3@ScrPlayerS
	cmp	BYTE PTR tv81[ebp], 3
	je	SHORT $LN2@ScrPlayerS
	jmp	SHORT $LN1@ScrPlayerS
$LN3@ScrPlayerS:

; 1098 : 		case SPECTATE_TYPE_FIXED:
; 1099 : 			byteMode = 15;

	mov	BYTE PTR _byteMode$[ebp], 15		; 0000000fH

; 1100 : 			break;

	jmp	SHORT $LN4@ScrPlayerS
$LN2@ScrPlayerS:

; 1101 : 		case SPECTATE_TYPE_SIDE:
; 1102 : 			byteMode = 14;

	mov	BYTE PTR _byteMode$[ebp], 14		; 0000000eH

; 1103 : 			break;

	jmp	SHORT $LN4@ScrPlayerS
$LN1@ScrPlayerS:

; 1104 : 		default:
; 1105 : 			byteMode = 4;

	mov	BYTE PTR _byteMode$[ebp], 4
$LN4@ScrPlayerS:

; 1106 : 	}
; 1107 : 	CLocalPlayer *pLocalPlayer = pNetGame->GetPlayerPool()->GetLocalPlayer();

	mov	ecx, DWORD PTR ?pNetGame@@3PAVCNetGame@@A ; pNetGame
	call	?GetPlayerPool@CNetGame@@QAEPAVCPlayerPool@@XZ ; CNetGame::GetPlayerPool
	mov	ecx, eax
	call	?GetLocalPlayer@CPlayerPool@@QAEPAVCLocalPlayer@@XZ ; CPlayerPool::GetLocalPlayer
	mov	DWORD PTR _pLocalPlayer$[ebp], eax

; 1108 : 	pLocalPlayer->m_byteSpectateMode = byteMode;

	mov	eax, DWORD PTR _pLocalPlayer$[ebp]
	mov	cl, BYTE PTR _byteMode$[ebp]
	mov	BYTE PTR [eax+25], cl

; 1109 : 	pLocalPlayer->SpectatePlayer(bytePlayerID);

	movzx	eax, BYTE PTR _bytePlayerID$[ebp]
	push	eax
	mov	ecx, DWORD PTR _pLocalPlayer$[ebp]
	call	?SpectatePlayer@CLocalPlayer@@QAEXE@Z	; CLocalPlayer::SpectatePlayer

; 1110 : }

	mov	DWORD PTR __$EHRec$[ebp+8], -1
	lea	ecx, DWORD PTR _bsData$[ebp]
	call	??1BitStream@RakNet@@QAE@XZ		; RakNet::BitStream::~BitStream
	push	edx
	mov	ecx, ebp
	push	eax
	lea	edx, DWORD PTR $LN15@ScrPlayerS
	call	@_RTC_CheckStackVars@8
	pop	eax
	pop	edx
	mov	ecx, DWORD PTR __$EHRec$[ebp]
	mov	DWORD PTR fs:0, ecx
	pop	ecx
	pop	edi
	pop	esi
	pop	ebx
	mov	ecx, DWORD PTR __$ArrayPad$[ebp]
	xor	ecx, ebp
	call	@__security_check_cookie@4
	add	esp, 572				; 0000023cH
	cmp	ebp, esp
	call	__RTC_CheckEsp
	mov	esp, ebp
	pop	ebp
	ret	0
	npad	1
$LN15@ScrPlayerS:
	DD	4
	DD	$LN14@ScrPlayerS
$LN14@ScrPlayerS:
	DD	-52					; ffffffccH
	DD	6
	DD	$LN9@ScrPlayerS
	DD	-336					; fffffeb0H
	DD	273					; 00000111H
	DD	$LN10@ScrPlayerS
	DD	-345					; fffffea7H
	DD	1
	DD	$LN11@ScrPlayerS
	DD	-357					; fffffe9bH
	DD	1
	DD	$LN12@ScrPlayerS
$LN12@ScrPlayerS:
	DB	98					; 00000062H
	DB	121					; 00000079H
	DB	116					; 00000074H
	DB	101					; 00000065H
	DB	77					; 0000004dH
	DB	111					; 0000006fH
	DB	100					; 00000064H
	DB	101					; 00000065H
	DB	0
$LN11@ScrPlayerS:
	DB	98					; 00000062H
	DB	121					; 00000079H
	DB	116					; 00000074H
	DB	101					; 00000065H
	DB	80					; 00000050H
	DB	108					; 0000006cH
	DB	97					; 00000061H
	DB	121					; 00000079H
	DB	101					; 00000065H
	DB	114					; 00000072H
	DB	73					; 00000049H
	DB	68					; 00000044H
	DB	0
$LN10@ScrPlayerS:
	DB	98					; 00000062H
	DB	115					; 00000073H
	DB	68					; 00000044H
	DB	97					; 00000061H
	DB	116					; 00000074H
	DB	97					; 00000061H
	DB	0
$LN9@ScrPlayerS:
	DB	115					; 00000073H
	DB	101					; 00000065H
	DB	110					; 0000006eH
	DB	100					; 00000064H
	DB	101					; 00000065H
	DB	114					; 00000072H
	DB	0
_TEXT	ENDS
;	COMDAT text$x
text$x	SEGMENT
__unwindfunclet$?ScrPlayerSpectatePlayer@@YAXPAURPCParameters@@@Z$0:
	lea	ecx, DWORD PTR _bsData$[ebp]
	jmp	??1BitStream@RakNet@@QAE@XZ		; RakNet::BitStream::~BitStream
__ehhandler$?ScrPlayerSpectatePlayer@@YAXPAURPCParameters@@@Z:
	mov	edx, DWORD PTR [esp+8]
	lea	eax, DWORD PTR [edx+12]
	mov	ecx, DWORD PTR [edx-576]
	xor	ecx, eax
	call	@__security_check_cookie@4
	mov	ecx, DWORD PTR [edx-4]
	xor	ecx, eax
	call	@__security_check_cookie@4
	mov	eax, OFFSET __ehfuncinfo$?ScrPlayerSpectatePlayer@@YAXPAURPCParameters@@@Z
	jmp	___CxxFrameHandler3
text$x	ENDS
?ScrPlayerSpectatePlayer@@YAXPAURPCParameters@@@Z ENDP	; ScrPlayerSpectatePlayer
; Function compile flags: /Odtp /RTCsu /ZI
; File z:\sampsrc\02xu1\saco\net\scriptrpc.cpp
;	COMDAT ?ScrSetPlayerSpectating@@YAXPAURPCParameters@@@Z
_TEXT	SEGMENT
_pPlayerPool$ = -360					; size = 4
_bsData$ = -348						; size = 273
_bytePlayerID$ = -61					; size = 1
_sender$ = -52						; size = 6
_iBitLength$ = -36					; size = 4
_Data$ = -24						; size = 4
__$ArrayPad$ = -16					; size = 4
__$EHRec$ = -12						; size = 12
_rpcParams$ = 8						; size = 4
?ScrSetPlayerSpectating@@YAXPAURPCParameters@@@Z PROC	; ScrSetPlayerSpectating, COMDAT

; 1065 : {

	push	ebp
	mov	ebp, esp
	push	-1
	push	__ehhandler$?ScrSetPlayerSpectating@@YAXPAURPCParameters@@@Z
	mov	eax, DWORD PTR fs:0
	push	eax
	sub	esp, 544				; 00000220H
	push	ebx
	push	esi
	push	edi
	lea	edi, DWORD PTR [ebp-556]
	mov	ecx, 136				; 00000088H
	mov	eax, -858993460				; ccccccccH
	rep stosd
	mov	eax, DWORD PTR ___security_cookie
	xor	eax, ebp
	mov	DWORD PTR __$ArrayPad$[ebp], eax
	push	eax
	lea	eax, DWORD PTR __$EHRec$[ebp]
	mov	DWORD PTR fs:0, eax

; 1066 : 	PCHAR Data = reinterpret_cast<PCHAR>(rpcParams->input);

	mov	eax, DWORD PTR _rpcParams$[ebp]
	mov	ecx, DWORD PTR [eax]
	mov	DWORD PTR _Data$[ebp], ecx

; 1067 : 	int iBitLength = rpcParams->numberOfBitsOfData;

	mov	eax, DWORD PTR _rpcParams$[ebp]
	mov	ecx, DWORD PTR [eax+4]
	mov	DWORD PTR _iBitLength$[ebp], ecx

; 1068 : 	PlayerID sender = rpcParams->sender;

	mov	eax, DWORD PTR _rpcParams$[ebp]
	add	eax, 8
	mov	ecx, DWORD PTR [eax]
	mov	DWORD PTR _sender$[ebp], ecx
	mov	dx, WORD PTR [eax+4]
	mov	WORD PTR _sender$[ebp+4], dx

; 1069 : 
; 1070 : 	BYTE bytePlayerID;
; 1071 : 	RakNet::BitStream bsData(Data,(iBitLength/8)+1,false);

	push	0
	mov	eax, DWORD PTR _iBitLength$[ebp]
	cdq
	and	edx, 7
	add	eax, edx
	sar	eax, 3
	add	eax, 1
	push	eax
	mov	eax, DWORD PTR _Data$[ebp]
	push	eax
	lea	ecx, DWORD PTR _bsData$[ebp]
	call	??0BitStream@RakNet@@QAE@PADI_N@Z	; RakNet::BitStream::BitStream
	mov	DWORD PTR __$EHRec$[ebp+8], 0

; 1072 : 	bsData.Read(bytePlayerID);

	lea	eax, DWORD PTR _bytePlayerID$[ebp]
	push	eax
	lea	ecx, DWORD PTR _bsData$[ebp]
	call	??$Read@E@BitStream@RakNet@@QAE_NAAE@Z	; RakNet::BitStream::Read<unsigned char>

; 1073 : 	CPlayerPool *pPlayerPool = pNetGame->GetPlayerPool();

	mov	ecx, DWORD PTR ?pNetGame@@3PAVCNetGame@@A ; pNetGame
	call	?GetPlayerPool@CNetGame@@QAEPAVCPlayerPool@@XZ ; CNetGame::GetPlayerPool
	mov	DWORD PTR _pPlayerPool$[ebp], eax

; 1074 : 	if (pPlayerPool->GetSlotState(bytePlayerID)) {

	movzx	eax, BYTE PTR _bytePlayerID$[ebp]
	push	eax
	mov	ecx, DWORD PTR _pPlayerPool$[ebp]
	call	?GetSlotState@CPlayerPool@@QAEHE@Z	; CPlayerPool::GetSlotState
	test	eax, eax
	je	SHORT $LN1@ScrSetPlay

; 1075 : 		pPlayerPool->GetAt(bytePlayerID)->SetState(PLAYER_STATE_SPECTATING);

	push	9
	movzx	eax, BYTE PTR _bytePlayerID$[ebp]
	push	eax
	mov	ecx, DWORD PTR _pPlayerPool$[ebp]
	call	?GetAt@CPlayerPool@@QAEPAVCRemotePlayer@@E@Z ; CPlayerPool::GetAt
	mov	ecx, eax
	call	?SetState@CRemotePlayer@@QAEXE@Z	; CRemotePlayer::SetState
$LN1@ScrSetPlay:

; 1076 : 	}
; 1077 : }

	mov	DWORD PTR __$EHRec$[ebp+8], -1
	lea	ecx, DWORD PTR _bsData$[ebp]
	call	??1BitStream@RakNet@@QAE@XZ		; RakNet::BitStream::~BitStream
	push	edx
	mov	ecx, ebp
	push	eax
	lea	edx, DWORD PTR $LN10@ScrSetPlay
	call	@_RTC_CheckStackVars@8
	pop	eax
	pop	edx
	mov	ecx, DWORD PTR __$EHRec$[ebp]
	mov	DWORD PTR fs:0, ecx
	pop	ecx
	pop	edi
	pop	esi
	pop	ebx
	mov	ecx, DWORD PTR __$ArrayPad$[ebp]
	xor	ecx, ebp
	call	@__security_check_cookie@4
	add	esp, 556				; 0000022cH
	cmp	ebp, esp
	call	__RTC_CheckEsp
	mov	esp, ebp
	pop	ebp
	ret	0
	npad	3
$LN10@ScrSetPlay:
	DD	3
	DD	$LN9@ScrSetPlay
$LN9@ScrSetPlay:
	DD	-52					; ffffffccH
	DD	6
	DD	$LN5@ScrSetPlay
	DD	-61					; ffffffc3H
	DD	1
	DD	$LN6@ScrSetPlay
	DD	-348					; fffffea4H
	DD	273					; 00000111H
	DD	$LN7@ScrSetPlay
$LN7@ScrSetPlay:
	DB	98					; 00000062H
	DB	115					; 00000073H
	DB	68					; 00000044H
	DB	97					; 00000061H
	DB	116					; 00000074H
	DB	97					; 00000061H
	DB	0
$LN6@ScrSetPlay:
	DB	98					; 00000062H
	DB	121					; 00000079H
	DB	116					; 00000074H
	DB	101					; 00000065H
	DB	80					; 00000050H
	DB	108					; 0000006cH
	DB	97					; 00000061H
	DB	121					; 00000079H
	DB	101					; 00000065H
	DB	114					; 00000072H
	DB	73					; 00000049H
	DB	68					; 00000044H
	DB	0
$LN5@ScrSetPlay:
	DB	115					; 00000073H
	DB	101					; 00000065H
	DB	110					; 0000006eH
	DB	100					; 00000064H
	DB	101					; 00000065H
	DB	114					; 00000072H
	DB	0
_TEXT	ENDS
;	COMDAT text$x
text$x	SEGMENT
__unwindfunclet$?ScrSetPlayerSpectating@@YAXPAURPCParameters@@@Z$0:
	lea	ecx, DWORD PTR _bsData$[ebp]
	jmp	??1BitStream@RakNet@@QAE@XZ		; RakNet::BitStream::~BitStream
__ehhandler$?ScrSetPlayerSpectating@@YAXPAURPCParameters@@@Z:
	mov	edx, DWORD PTR [esp+8]
	lea	eax, DWORD PTR [edx+12]
	mov	ecx, DWORD PTR [edx-560]
	xor	ecx, eax
	call	@__security_check_cookie@4
	mov	ecx, DWORD PTR [edx-4]
	xor	ecx, eax
	call	@__security_check_cookie@4
	mov	eax, OFFSET __ehfuncinfo$?ScrSetPlayerSpectating@@YAXPAURPCParameters@@@Z
	jmp	___CxxFrameHandler3
text$x	ENDS
?ScrSetPlayerSpectating@@YAXPAURPCParameters@@@Z ENDP	; ScrSetPlayerSpectating
; Function compile flags: /Odtp /RTCsu /ZI
; File z:\sampsrc\02xu1\saco\net\scriptrpc.cpp
;	COMDAT ?ScrTogglePlayerSpectating@@YAXPAURPCParameters@@@Z
_TEXT	SEGMENT
_bToggle$ = -360					; size = 4
_bsData$ = -348						; size = 273
_pPlayerPool$ = -64					; size = 4
_sender$ = -52						; size = 6
_iBitLength$ = -36					; size = 4
_Data$ = -24						; size = 4
__$ArrayPad$ = -16					; size = 4
__$EHRec$ = -12						; size = 12
_rpcParams$ = 8						; size = 4
?ScrTogglePlayerSpectating@@YAXPAURPCParameters@@@Z PROC ; ScrTogglePlayerSpectating, COMDAT

; 1052 : {

	push	ebp
	mov	ebp, esp
	push	-1
	push	__ehhandler$?ScrTogglePlayerSpectating@@YAXPAURPCParameters@@@Z
	mov	eax, DWORD PTR fs:0
	push	eax
	sub	esp, 544				; 00000220H
	push	ebx
	push	esi
	push	edi
	lea	edi, DWORD PTR [ebp-556]
	mov	ecx, 136				; 00000088H
	mov	eax, -858993460				; ccccccccH
	rep stosd
	mov	eax, DWORD PTR ___security_cookie
	xor	eax, ebp
	mov	DWORD PTR __$ArrayPad$[ebp], eax
	push	eax
	lea	eax, DWORD PTR __$EHRec$[ebp]
	mov	DWORD PTR fs:0, eax

; 1053 : 	PCHAR Data = reinterpret_cast<PCHAR>(rpcParams->input);

	mov	eax, DWORD PTR _rpcParams$[ebp]
	mov	ecx, DWORD PTR [eax]
	mov	DWORD PTR _Data$[ebp], ecx

; 1054 : 	int iBitLength = rpcParams->numberOfBitsOfData;

	mov	eax, DWORD PTR _rpcParams$[ebp]
	mov	ecx, DWORD PTR [eax+4]
	mov	DWORD PTR _iBitLength$[ebp], ecx

; 1055 : 	PlayerID sender = rpcParams->sender;

	mov	eax, DWORD PTR _rpcParams$[ebp]
	add	eax, 8
	mov	ecx, DWORD PTR [eax]
	mov	DWORD PTR _sender$[ebp], ecx
	mov	dx, WORD PTR [eax+4]
	mov	WORD PTR _sender$[ebp+4], dx

; 1056 : 
; 1057 : 	CPlayerPool *pPlayerPool = pNetGame->GetPlayerPool();

	mov	ecx, DWORD PTR ?pNetGame@@3PAVCNetGame@@A ; pNetGame
	call	?GetPlayerPool@CNetGame@@QAEPAVCPlayerPool@@XZ ; CNetGame::GetPlayerPool
	mov	DWORD PTR _pPlayerPool$[ebp], eax

; 1058 : 	RakNet::BitStream bsData(Data,(iBitLength/8)+1,false);

	push	0
	mov	eax, DWORD PTR _iBitLength$[ebp]
	cdq
	and	edx, 7
	add	eax, edx
	sar	eax, 3
	add	eax, 1
	push	eax
	mov	eax, DWORD PTR _Data$[ebp]
	push	eax
	lea	ecx, DWORD PTR _bsData$[ebp]
	call	??0BitStream@RakNet@@QAE@PADI_N@Z	; RakNet::BitStream::BitStream
	mov	DWORD PTR __$EHRec$[ebp+8], 0

; 1059 : 	BOOL bToggle;
; 1060 : 	bsData.Read(bToggle);

	lea	eax, DWORD PTR _bToggle$[ebp]
	push	eax
	lea	ecx, DWORD PTR _bsData$[ebp]
	call	??$Read@H@BitStream@RakNet@@QAE_NAAH@Z	; RakNet::BitStream::Read<int>

; 1061 : 	pPlayerPool->GetLocalPlayer()->ToggleSpectating(bToggle);

	mov	eax, DWORD PTR _bToggle$[ebp]
	push	eax
	mov	ecx, DWORD PTR _pPlayerPool$[ebp]
	call	?GetLocalPlayer@CPlayerPool@@QAEPAVCLocalPlayer@@XZ ; CPlayerPool::GetLocalPlayer
	mov	ecx, eax
	call	?ToggleSpectating@CLocalPlayer@@QAEXH@Z	; CLocalPlayer::ToggleSpectating

; 1062 : }

	mov	DWORD PTR __$EHRec$[ebp+8], -1
	lea	ecx, DWORD PTR _bsData$[ebp]
	call	??1BitStream@RakNet@@QAE@XZ		; RakNet::BitStream::~BitStream
	push	edx
	mov	ecx, ebp
	push	eax
	lea	edx, DWORD PTR $LN9@ScrToggleP
	call	@_RTC_CheckStackVars@8
	pop	eax
	pop	edx
	mov	ecx, DWORD PTR __$EHRec$[ebp]
	mov	DWORD PTR fs:0, ecx
	pop	ecx
	pop	edi
	pop	esi
	pop	ebx
	mov	ecx, DWORD PTR __$ArrayPad$[ebp]
	xor	ecx, ebp
	call	@__security_check_cookie@4
	add	esp, 556				; 0000022cH
	cmp	ebp, esp
	call	__RTC_CheckEsp
	mov	esp, ebp
	pop	ebp
	ret	0
	npad	2
$LN9@ScrToggleP:
	DD	3
	DD	$LN8@ScrToggleP
$LN8@ScrToggleP:
	DD	-52					; ffffffccH
	DD	6
	DD	$LN4@ScrToggleP
	DD	-348					; fffffea4H
	DD	273					; 00000111H
	DD	$LN5@ScrToggleP
	DD	-360					; fffffe98H
	DD	4
	DD	$LN6@ScrToggleP
$LN6@ScrToggleP:
	DB	98					; 00000062H
	DB	84					; 00000054H
	DB	111					; 0000006fH
	DB	103					; 00000067H
	DB	103					; 00000067H
	DB	108					; 0000006cH
	DB	101					; 00000065H
	DB	0
$LN5@ScrToggleP:
	DB	98					; 00000062H
	DB	115					; 00000073H
	DB	68					; 00000044H
	DB	97					; 00000061H
	DB	116					; 00000074H
	DB	97					; 00000061H
	DB	0
$LN4@ScrToggleP:
	DB	115					; 00000073H
	DB	101					; 00000065H
	DB	110					; 0000006eH
	DB	100					; 00000064H
	DB	101					; 00000065H
	DB	114					; 00000072H
	DB	0
_TEXT	ENDS
;	COMDAT text$x
text$x	SEGMENT
__unwindfunclet$?ScrTogglePlayerSpectating@@YAXPAURPCParameters@@@Z$0:
	lea	ecx, DWORD PTR _bsData$[ebp]
	jmp	??1BitStream@RakNet@@QAE@XZ		; RakNet::BitStream::~BitStream
__ehhandler$?ScrTogglePlayerSpectating@@YAXPAURPCParameters@@@Z:
	mov	edx, DWORD PTR [esp+8]
	lea	eax, DWORD PTR [edx+12]
	mov	ecx, DWORD PTR [edx-560]
	xor	ecx, eax
	call	@__security_check_cookie@4
	mov	ecx, DWORD PTR [edx-4]
	xor	ecx, eax
	call	@__security_check_cookie@4
	mov	eax, OFFSET __ehfuncinfo$?ScrTogglePlayerSpectating@@YAXPAURPCParameters@@@Z
	jmp	___CxxFrameHandler3
text$x	ENDS
?ScrTogglePlayerSpectating@@YAXPAURPCParameters@@@Z ENDP ; ScrTogglePlayerSpectating
; Function compile flags: /Odtp /RTCsu /ZI
; File z:\sampsrc\02xu1\saco\net\scriptrpc.cpp
;	COMDAT ?ScrNumberPlate@@YAXPAURPCParameters@@@Z
_TEXT	SEGMENT
_cNumberPlate$ = -368					; size = 9
_Vehicle$ = -348					; size = 2
_bsData$ = -336						; size = 273
_sender$ = -52						; size = 6
_iBitLength$ = -36					; size = 4
_Data$ = -24						; size = 4
__$ArrayPad$ = -16					; size = 4
__$EHRec$ = -12						; size = 12
_rpcParams$ = 8						; size = 4
?ScrNumberPlate@@YAXPAURPCParameters@@@Z PROC		; ScrNumberPlate, COMDAT

; 1034 : {

	push	ebp
	mov	ebp, esp
	push	-1
	push	__ehhandler$?ScrNumberPlate@@YAXPAURPCParameters@@@Z
	mov	eax, DWORD PTR fs:0
	push	eax
	sub	esp, 552				; 00000228H
	push	ebx
	push	esi
	push	edi
	lea	edi, DWORD PTR [ebp-564]
	mov	ecx, 138				; 0000008aH
	mov	eax, -858993460				; ccccccccH
	rep stosd
	mov	eax, DWORD PTR ___security_cookie
	xor	eax, ebp
	mov	DWORD PTR __$ArrayPad$[ebp], eax
	push	eax
	lea	eax, DWORD PTR __$EHRec$[ebp]
	mov	DWORD PTR fs:0, eax

; 1035 : 	PCHAR Data = reinterpret_cast<PCHAR>(rpcParams->input);

	mov	eax, DWORD PTR _rpcParams$[ebp]
	mov	ecx, DWORD PTR [eax]
	mov	DWORD PTR _Data$[ebp], ecx

; 1036 : 	int iBitLength = rpcParams->numberOfBitsOfData;

	mov	eax, DWORD PTR _rpcParams$[ebp]
	mov	ecx, DWORD PTR [eax+4]
	mov	DWORD PTR _iBitLength$[ebp], ecx

; 1037 : 	PlayerID sender = rpcParams->sender;

	mov	eax, DWORD PTR _rpcParams$[ebp]
	add	eax, 8
	mov	ecx, DWORD PTR [eax]
	mov	DWORD PTR _sender$[ebp], ecx
	mov	dx, WORD PTR [eax+4]
	mov	WORD PTR _sender$[ebp+4], dx

; 1038 : 
; 1039 : 	RakNet::BitStream bsData(Data,(iBitLength/8)+1,false);

	push	0
	mov	eax, DWORD PTR _iBitLength$[ebp]
	cdq
	and	edx, 7
	add	eax, edx
	sar	eax, 3
	add	eax, 1
	push	eax
	mov	eax, DWORD PTR _Data$[ebp]
	push	eax
	lea	ecx, DWORD PTR _bsData$[ebp]
	call	??0BitStream@RakNet@@QAE@PADI_N@Z	; RakNet::BitStream::BitStream
	mov	DWORD PTR __$EHRec$[ebp+8], 0

; 1040 : 	
; 1041 : 	VEHICLEID Vehicle;
; 1042 : 	CHAR cNumberPlate[9];
; 1043 : 	
; 1044 : 	bsData.Read(Vehicle);

	lea	eax, DWORD PTR _Vehicle$[ebp]
	push	eax
	lea	ecx, DWORD PTR _bsData$[ebp]
	call	??$Read@G@BitStream@RakNet@@QAE_NAAG@Z	; RakNet::BitStream::Read<unsigned short>

; 1045 : 	bsData.Read(cNumberPlate, 9);

	push	9
	lea	eax, DWORD PTR _cNumberPlate$[ebp]
	push	eax
	lea	ecx, DWORD PTR _bsData$[ebp]
	call	?Read@BitStream@RakNet@@QAE_NPADH@Z	; RakNet::BitStream::Read

; 1046 : 	strcpy(pNetGame->GetVehiclePool()->m_charNumberPlate[Vehicle], cNumberPlate);

	lea	eax, DWORD PTR _cNumberPlate$[ebp]
	push	eax
	mov	ecx, DWORD PTR ?pNetGame@@3PAVCNetGame@@A ; pNetGame
	call	?GetVehiclePool@CNetGame@@QAEPAVCVehiclePool@@XZ ; CNetGame::GetVehiclePool
	movzx	ecx, WORD PTR _Vehicle$[ebp]
	imul	edx, ecx, 9
	lea	eax, DWORD PTR [eax+edx+45630]
	push	eax
	call	_strcpy
	add	esp, 8

; 1047 : }

	mov	DWORD PTR __$EHRec$[ebp+8], -1
	lea	ecx, DWORD PTR _bsData$[ebp]
	call	??1BitStream@RakNet@@QAE@XZ		; RakNet::BitStream::~BitStream
	push	edx
	mov	ecx, ebp
	push	eax
	lea	edx, DWORD PTR $LN10@ScrNumberP
	call	@_RTC_CheckStackVars@8
	pop	eax
	pop	edx
	mov	ecx, DWORD PTR __$EHRec$[ebp]
	mov	DWORD PTR fs:0, ecx
	pop	ecx
	pop	edi
	pop	esi
	pop	ebx
	mov	ecx, DWORD PTR __$ArrayPad$[ebp]
	xor	ecx, ebp
	call	@__security_check_cookie@4
	add	esp, 564				; 00000234H
	cmp	ebp, esp
	call	__RTC_CheckEsp
	mov	esp, ebp
	pop	ebp
	ret	0
	npad	2
$LN10@ScrNumberP:
	DD	4
	DD	$LN9@ScrNumberP
$LN9@ScrNumberP:
	DD	-52					; ffffffccH
	DD	6
	DD	$LN4@ScrNumberP
	DD	-336					; fffffeb0H
	DD	273					; 00000111H
	DD	$LN5@ScrNumberP
	DD	-348					; fffffea4H
	DD	2
	DD	$LN6@ScrNumberP
	DD	-368					; fffffe90H
	DD	9
	DD	$LN7@ScrNumberP
$LN7@ScrNumberP:
	DB	99					; 00000063H
	DB	78					; 0000004eH
	DB	117					; 00000075H
	DB	109					; 0000006dH
	DB	98					; 00000062H
	DB	101					; 00000065H
	DB	114					; 00000072H
	DB	80					; 00000050H
	DB	108					; 0000006cH
	DB	97					; 00000061H
	DB	116					; 00000074H
	DB	101					; 00000065H
	DB	0
$LN6@ScrNumberP:
	DB	86					; 00000056H
	DB	101					; 00000065H
	DB	104					; 00000068H
	DB	105					; 00000069H
	DB	99					; 00000063H
	DB	108					; 0000006cH
	DB	101					; 00000065H
	DB	0
$LN5@ScrNumberP:
	DB	98					; 00000062H
	DB	115					; 00000073H
	DB	68					; 00000044H
	DB	97					; 00000061H
	DB	116					; 00000074H
	DB	97					; 00000061H
	DB	0
$LN4@ScrNumberP:
	DB	115					; 00000073H
	DB	101					; 00000065H
	DB	110					; 0000006eH
	DB	100					; 00000064H
	DB	101					; 00000065H
	DB	114					; 00000072H
	DB	0
_TEXT	ENDS
;	COMDAT text$x
text$x	SEGMENT
__unwindfunclet$?ScrNumberPlate@@YAXPAURPCParameters@@@Z$0:
	lea	ecx, DWORD PTR _bsData$[ebp]
	jmp	??1BitStream@RakNet@@QAE@XZ		; RakNet::BitStream::~BitStream
__ehhandler$?ScrNumberPlate@@YAXPAURPCParameters@@@Z:
	mov	edx, DWORD PTR [esp+8]
	lea	eax, DWORD PTR [edx+12]
	mov	ecx, DWORD PTR [edx-568]
	xor	ecx, eax
	call	@__security_check_cookie@4
	mov	ecx, DWORD PTR [edx-4]
	xor	ecx, eax
	call	@__security_check_cookie@4
	mov	eax, OFFSET __ehfuncinfo$?ScrNumberPlate@@YAXPAURPCParameters@@@Z
	jmp	___CxxFrameHandler3
text$x	ENDS
?ScrNumberPlate@@YAXPAURPCParameters@@@Z ENDP		; ScrNumberPlate
; Function compile flags: /Odtp /RTCsu /ZI
; File z:\sampsrc\02xu1\saco\net\scriptrpc.cpp
;	COMDAT ?ScrStopObject@@YAXPAURPCParameters@@@Z
_TEXT	SEGMENT
_pObject$ = -396					; size = 4
_newz$ = -384						; size = 4
_newy$ = -372						; size = 4
_newx$ = -360						; size = 4
_byteObjectID$ = -345					; size = 1
_bsData$ = -336						; size = 273
_sender$ = -52						; size = 6
_iBitLength$ = -36					; size = 4
_Data$ = -24						; size = 4
__$ArrayPad$ = -16					; size = 4
__$EHRec$ = -12						; size = 12
_rpcParams$ = 8						; size = 4
?ScrStopObject@@YAXPAURPCParameters@@@Z PROC		; ScrStopObject, COMDAT

; 1012 : {

	push	ebp
	mov	ebp, esp
	push	-1
	push	__ehhandler$?ScrStopObject@@YAXPAURPCParameters@@@Z
	mov	eax, DWORD PTR fs:0
	push	eax
	sub	esp, 580				; 00000244H
	push	ebx
	push	esi
	push	edi
	lea	edi, DWORD PTR [ebp-592]
	mov	ecx, 145				; 00000091H
	mov	eax, -858993460				; ccccccccH
	rep stosd
	mov	eax, DWORD PTR ___security_cookie
	xor	eax, ebp
	mov	DWORD PTR __$ArrayPad$[ebp], eax
	push	eax
	lea	eax, DWORD PTR __$EHRec$[ebp]
	mov	DWORD PTR fs:0, eax

; 1013 : 	PCHAR Data = reinterpret_cast<PCHAR>(rpcParams->input);

	mov	eax, DWORD PTR _rpcParams$[ebp]
	mov	ecx, DWORD PTR [eax]
	mov	DWORD PTR _Data$[ebp], ecx

; 1014 : 	int iBitLength = rpcParams->numberOfBitsOfData;

	mov	eax, DWORD PTR _rpcParams$[ebp]
	mov	ecx, DWORD PTR [eax+4]
	mov	DWORD PTR _iBitLength$[ebp], ecx

; 1015 : 	PlayerID sender = rpcParams->sender;

	mov	eax, DWORD PTR _rpcParams$[ebp]
	add	eax, 8
	mov	ecx, DWORD PTR [eax]
	mov	DWORD PTR _sender$[ebp], ecx
	mov	dx, WORD PTR [eax+4]
	mov	WORD PTR _sender$[ebp+4], dx

; 1016 : 
; 1017 : 	RakNet::BitStream bsData(Data,(iBitLength/8)+1,false);

	push	0
	mov	eax, DWORD PTR _iBitLength$[ebp]
	cdq
	and	edx, 7
	add	eax, edx
	sar	eax, 3
	add	eax, 1
	push	eax
	mov	eax, DWORD PTR _Data$[ebp]
	push	eax
	lea	ecx, DWORD PTR _bsData$[ebp]
	call	??0BitStream@RakNet@@QAE@PADI_N@Z	; RakNet::BitStream::BitStream
	mov	DWORD PTR __$EHRec$[ebp+8], 0

; 1018 : 	BYTE byteObjectID;
; 1019 : 	float newx, newy, newz;
; 1020 : 
; 1021 : 	bsData.Read(byteObjectID);

	lea	eax, DWORD PTR _byteObjectID$[ebp]
	push	eax
	lea	ecx, DWORD PTR _bsData$[ebp]
	call	??$Read@E@BitStream@RakNet@@QAE_NAAE@Z	; RakNet::BitStream::Read<unsigned char>

; 1022 : 	bsData.Read(newx);

	lea	eax, DWORD PTR _newx$[ebp]
	push	eax
	lea	ecx, DWORD PTR _bsData$[ebp]
	call	??$Read@M@BitStream@RakNet@@QAE_NAAM@Z	; RakNet::BitStream::Read<float>

; 1023 : 	bsData.Read(newy);

	lea	eax, DWORD PTR _newy$[ebp]
	push	eax
	lea	ecx, DWORD PTR _bsData$[ebp]
	call	??$Read@M@BitStream@RakNet@@QAE_NAAM@Z	; RakNet::BitStream::Read<float>

; 1024 : 	bsData.Read(newz);

	lea	eax, DWORD PTR _newz$[ebp]
	push	eax
	lea	ecx, DWORD PTR _bsData$[ebp]
	call	??$Read@M@BitStream@RakNet@@QAE_NAAM@Z	; RakNet::BitStream::Read<float>

; 1025 : 
; 1026 : 	CObject* pObject = pNetGame->GetObjectPool()->GetAt(byteObjectID);

	movzx	eax, BYTE PTR _byteObjectID$[ebp]
	push	eax
	mov	ecx, DWORD PTR ?pNetGame@@3PAVCNetGame@@A ; pNetGame
	call	?GetObjectPool@CNetGame@@QAEPAVCObjectPool@@XZ ; CNetGame::GetObjectPool
	mov	ecx, eax
	call	?GetAt@CObjectPool@@QAEPAVCObject@@E@Z	; CObjectPool::GetAt
	mov	DWORD PTR _pObject$[ebp], eax

; 1027 : 	if (pObject)

	cmp	DWORD PTR _pObject$[ebp], 0
	je	SHORT $LN1@ScrStopObj

; 1028 : 	{
; 1029 : 		pObject->MoveTo(newx, newy, newz, pObject->m_fMoveSpeed);

	mov	eax, DWORD PTR _pObject$[ebp]
	push	ecx
	movss	xmm0, DWORD PTR [eax+77]
	movss	DWORD PTR [esp], xmm0
	push	ecx
	movss	xmm0, DWORD PTR _newz$[ebp]
	movss	DWORD PTR [esp], xmm0
	push	ecx
	movss	xmm0, DWORD PTR _newy$[ebp]
	movss	DWORD PTR [esp], xmm0
	push	ecx
	movss	xmm0, DWORD PTR _newx$[ebp]
	movss	DWORD PTR [esp], xmm0
	mov	ecx, DWORD PTR _pObject$[ebp]
	call	?MoveTo@CObject@@QAEXMMMM@Z		; CObject::MoveTo
$LN1@ScrStopObj:

; 1030 : 	}
; 1031 : }

	mov	DWORD PTR __$EHRec$[ebp+8], -1
	lea	ecx, DWORD PTR _bsData$[ebp]
	call	??1BitStream@RakNet@@QAE@XZ		; RakNet::BitStream::~BitStream
	push	edx
	mov	ecx, ebp
	push	eax
	lea	edx, DWORD PTR $LN13@ScrStopObj
	call	@_RTC_CheckStackVars@8
	pop	eax
	pop	edx
	mov	ecx, DWORD PTR __$EHRec$[ebp]
	mov	DWORD PTR fs:0, ecx
	pop	ecx
	pop	edi
	pop	esi
	pop	ebx
	mov	ecx, DWORD PTR __$ArrayPad$[ebp]
	xor	ecx, ebp
	call	@__security_check_cookie@4
	add	esp, 592				; 00000250H
	cmp	ebp, esp
	call	__RTC_CheckEsp
	mov	esp, ebp
	pop	ebp
	ret	0
	npad	1
$LN13@ScrStopObj:
	DD	6
	DD	$LN12@ScrStopObj
$LN12@ScrStopObj:
	DD	-52					; ffffffccH
	DD	6
	DD	$LN5@ScrStopObj
	DD	-336					; fffffeb0H
	DD	273					; 00000111H
	DD	$LN6@ScrStopObj
	DD	-345					; fffffea7H
	DD	1
	DD	$LN7@ScrStopObj
	DD	-360					; fffffe98H
	DD	4
	DD	$LN8@ScrStopObj
	DD	-372					; fffffe8cH
	DD	4
	DD	$LN9@ScrStopObj
	DD	-384					; fffffe80H
	DD	4
	DD	$LN10@ScrStopObj
$LN10@ScrStopObj:
	DB	110					; 0000006eH
	DB	101					; 00000065H
	DB	119					; 00000077H
	DB	122					; 0000007aH
	DB	0
$LN9@ScrStopObj:
	DB	110					; 0000006eH
	DB	101					; 00000065H
	DB	119					; 00000077H
	DB	121					; 00000079H
	DB	0
$LN8@ScrStopObj:
	DB	110					; 0000006eH
	DB	101					; 00000065H
	DB	119					; 00000077H
	DB	120					; 00000078H
	DB	0
$LN7@ScrStopObj:
	DB	98					; 00000062H
	DB	121					; 00000079H
	DB	116					; 00000074H
	DB	101					; 00000065H
	DB	79					; 0000004fH
	DB	98					; 00000062H
	DB	106					; 0000006aH
	DB	101					; 00000065H
	DB	99					; 00000063H
	DB	116					; 00000074H
	DB	73					; 00000049H
	DB	68					; 00000044H
	DB	0
$LN6@ScrStopObj:
	DB	98					; 00000062H
	DB	115					; 00000073H
	DB	68					; 00000044H
	DB	97					; 00000061H
	DB	116					; 00000074H
	DB	97					; 00000061H
	DB	0
$LN5@ScrStopObj:
	DB	115					; 00000073H
	DB	101					; 00000065H
	DB	110					; 0000006eH
	DB	100					; 00000064H
	DB	101					; 00000065H
	DB	114					; 00000072H
	DB	0
_TEXT	ENDS
;	COMDAT text$x
text$x	SEGMENT
__unwindfunclet$?ScrStopObject@@YAXPAURPCParameters@@@Z$0:
	lea	ecx, DWORD PTR _bsData$[ebp]
	jmp	??1BitStream@RakNet@@QAE@XZ		; RakNet::BitStream::~BitStream
__ehhandler$?ScrStopObject@@YAXPAURPCParameters@@@Z:
	mov	edx, DWORD PTR [esp+8]
	lea	eax, DWORD PTR [edx+12]
	mov	ecx, DWORD PTR [edx-596]
	xor	ecx, eax
	call	@__security_check_cookie@4
	mov	ecx, DWORD PTR [edx-4]
	xor	ecx, eax
	call	@__security_check_cookie@4
	mov	eax, OFFSET __ehfuncinfo$?ScrStopObject@@YAXPAURPCParameters@@@Z
	jmp	___CxxFrameHandler3
text$x	ENDS
?ScrStopObject@@YAXPAURPCParameters@@@Z ENDP		; ScrStopObject
; Function compile flags: /Odtp /RTCsu /ZI
; File z:\sampsrc\02xu1\saco\net\scriptrpc.cpp
;	COMDAT ?ScrMoveObject@@YAXPAURPCParameters@@@Z
_TEXT	SEGMENT
_pObject$ = -444					; size = 4
_speed$ = -432						; size = 4
_newz$ = -420						; size = 4
_newy$ = -408						; size = 4
_newx$ = -396						; size = 4
_curz$ = -384						; size = 4
_cury$ = -372						; size = 4
_curx$ = -360						; size = 4
_byteObjectID$ = -345					; size = 1
_bsData$ = -336						; size = 273
_sender$ = -52						; size = 6
_iBitLength$ = -36					; size = 4
_Data$ = -24						; size = 4
__$ArrayPad$ = -16					; size = 4
__$EHRec$ = -12						; size = 12
_rpcParams$ = 8						; size = 4
?ScrMoveObject@@YAXPAURPCParameters@@@Z PROC		; ScrMoveObject, COMDAT

; 985  : {

	push	ebp
	mov	ebp, esp
	push	-1
	push	__ehhandler$?ScrMoveObject@@YAXPAURPCParameters@@@Z
	mov	eax, DWORD PTR fs:0
	push	eax
	sub	esp, 628				; 00000274H
	push	ebx
	push	esi
	push	edi
	lea	edi, DWORD PTR [ebp-640]
	mov	ecx, 157				; 0000009dH
	mov	eax, -858993460				; ccccccccH
	rep stosd
	mov	eax, DWORD PTR ___security_cookie
	xor	eax, ebp
	mov	DWORD PTR __$ArrayPad$[ebp], eax
	push	eax
	lea	eax, DWORD PTR __$EHRec$[ebp]
	mov	DWORD PTR fs:0, eax

; 986  : 	PCHAR Data = reinterpret_cast<PCHAR>(rpcParams->input);

	mov	eax, DWORD PTR _rpcParams$[ebp]
	mov	ecx, DWORD PTR [eax]
	mov	DWORD PTR _Data$[ebp], ecx

; 987  : 	int iBitLength = rpcParams->numberOfBitsOfData;

	mov	eax, DWORD PTR _rpcParams$[ebp]
	mov	ecx, DWORD PTR [eax+4]
	mov	DWORD PTR _iBitLength$[ebp], ecx

; 988  : 	PlayerID sender = rpcParams->sender;

	mov	eax, DWORD PTR _rpcParams$[ebp]
	add	eax, 8
	mov	ecx, DWORD PTR [eax]
	mov	DWORD PTR _sender$[ebp], ecx
	mov	dx, WORD PTR [eax+4]
	mov	WORD PTR _sender$[ebp+4], dx

; 989  : 
; 990  : 	RakNet::BitStream bsData(Data,(iBitLength/8)+1,false);

	push	0
	mov	eax, DWORD PTR _iBitLength$[ebp]
	cdq
	and	edx, 7
	add	eax, edx
	sar	eax, 3
	add	eax, 1
	push	eax
	mov	eax, DWORD PTR _Data$[ebp]
	push	eax
	lea	ecx, DWORD PTR _bsData$[ebp]
	call	??0BitStream@RakNet@@QAE@PADI_N@Z	; RakNet::BitStream::BitStream
	mov	DWORD PTR __$EHRec$[ebp+8], 0

; 991  : 	BYTE byteObjectID;
; 992  : 	float curx, cury, curz, newx, newy, newz, speed;
; 993  : 
; 994  : 	bsData.Read(byteObjectID);

	lea	eax, DWORD PTR _byteObjectID$[ebp]
	push	eax
	lea	ecx, DWORD PTR _bsData$[ebp]
	call	??$Read@E@BitStream@RakNet@@QAE_NAAE@Z	; RakNet::BitStream::Read<unsigned char>

; 995  : 	bsData.Read(curx);

	lea	eax, DWORD PTR _curx$[ebp]
	push	eax
	lea	ecx, DWORD PTR _bsData$[ebp]
	call	??$Read@M@BitStream@RakNet@@QAE_NAAM@Z	; RakNet::BitStream::Read<float>

; 996  : 	bsData.Read(cury);

	lea	eax, DWORD PTR _cury$[ebp]
	push	eax
	lea	ecx, DWORD PTR _bsData$[ebp]
	call	??$Read@M@BitStream@RakNet@@QAE_NAAM@Z	; RakNet::BitStream::Read<float>

; 997  : 	bsData.Read(curz);

	lea	eax, DWORD PTR _curz$[ebp]
	push	eax
	lea	ecx, DWORD PTR _bsData$[ebp]
	call	??$Read@M@BitStream@RakNet@@QAE_NAAM@Z	; RakNet::BitStream::Read<float>

; 998  : 	bsData.Read(newx);

	lea	eax, DWORD PTR _newx$[ebp]
	push	eax
	lea	ecx, DWORD PTR _bsData$[ebp]
	call	??$Read@M@BitStream@RakNet@@QAE_NAAM@Z	; RakNet::BitStream::Read<float>

; 999  : 	bsData.Read(newy);

	lea	eax, DWORD PTR _newy$[ebp]
	push	eax
	lea	ecx, DWORD PTR _bsData$[ebp]
	call	??$Read@M@BitStream@RakNet@@QAE_NAAM@Z	; RakNet::BitStream::Read<float>

; 1000 : 	bsData.Read(newz);

	lea	eax, DWORD PTR _newz$[ebp]
	push	eax
	lea	ecx, DWORD PTR _bsData$[ebp]
	call	??$Read@M@BitStream@RakNet@@QAE_NAAM@Z	; RakNet::BitStream::Read<float>

; 1001 : 	bsData.Read(speed);

	lea	eax, DWORD PTR _speed$[ebp]
	push	eax
	lea	ecx, DWORD PTR _bsData$[ebp]
	call	??$Read@M@BitStream@RakNet@@QAE_NAAM@Z	; RakNet::BitStream::Read<float>

; 1002 : 
; 1003 : 	CObject* pObject = pNetGame->GetObjectPool()->GetAt(byteObjectID);

	movzx	eax, BYTE PTR _byteObjectID$[ebp]
	push	eax
	mov	ecx, DWORD PTR ?pNetGame@@3PAVCNetGame@@A ; pNetGame
	call	?GetObjectPool@CNetGame@@QAEPAVCObjectPool@@XZ ; CNetGame::GetObjectPool
	mov	ecx, eax
	call	?GetAt@CObjectPool@@QAEPAVCObject@@E@Z	; CObjectPool::GetAt
	mov	DWORD PTR _pObject$[ebp], eax

; 1004 : 	if (pObject)

	cmp	DWORD PTR _pObject$[ebp], 0
	je	SHORT $LN1@ScrMoveObj

; 1005 : 	{
; 1006 : 		pObject->TeleportTo(curx, cury, curz);

	push	ecx
	movss	xmm0, DWORD PTR _curz$[ebp]
	movss	DWORD PTR [esp], xmm0
	push	ecx
	movss	xmm0, DWORD PTR _cury$[ebp]
	movss	DWORD PTR [esp], xmm0
	push	ecx
	movss	xmm0, DWORD PTR _curx$[ebp]
	movss	DWORD PTR [esp], xmm0
	mov	ecx, DWORD PTR _pObject$[ebp]
	call	?TeleportTo@CEntity@@QAEXMMM@Z		; CEntity::TeleportTo

; 1007 : 		pObject->MoveTo(newx, newy, newz, speed);

	push	ecx
	movss	xmm0, DWORD PTR _speed$[ebp]
	movss	DWORD PTR [esp], xmm0
	push	ecx
	movss	xmm0, DWORD PTR _newz$[ebp]
	movss	DWORD PTR [esp], xmm0
	push	ecx
	movss	xmm0, DWORD PTR _newy$[ebp]
	movss	DWORD PTR [esp], xmm0
	push	ecx
	movss	xmm0, DWORD PTR _newx$[ebp]
	movss	DWORD PTR [esp], xmm0
	mov	ecx, DWORD PTR _pObject$[ebp]
	call	?MoveTo@CObject@@QAEXMMMM@Z		; CObject::MoveTo
$LN1@ScrMoveObj:

; 1008 : 	}
; 1009 : }

	mov	DWORD PTR __$EHRec$[ebp+8], -1
	lea	ecx, DWORD PTR _bsData$[ebp]
	call	??1BitStream@RakNet@@QAE@XZ		; RakNet::BitStream::~BitStream
	push	edx
	mov	ecx, ebp
	push	eax
	lea	edx, DWORD PTR $LN17@ScrMoveObj
	call	@_RTC_CheckStackVars@8
	pop	eax
	pop	edx
	mov	ecx, DWORD PTR __$EHRec$[ebp]
	mov	DWORD PTR fs:0, ecx
	pop	ecx
	pop	edi
	pop	esi
	pop	ebx
	mov	ecx, DWORD PTR __$ArrayPad$[ebp]
	xor	ecx, ebp
	call	@__security_check_cookie@4
	add	esp, 640				; 00000280H
	cmp	ebp, esp
	call	__RTC_CheckEsp
	mov	esp, ebp
	pop	ebp
	ret	0
	npad	3
$LN17@ScrMoveObj:
	DD	10					; 0000000aH
	DD	$LN16@ScrMoveObj
$LN16@ScrMoveObj:
	DD	-52					; ffffffccH
	DD	6
	DD	$LN5@ScrMoveObj
	DD	-336					; fffffeb0H
	DD	273					; 00000111H
	DD	$LN6@ScrMoveObj
	DD	-345					; fffffea7H
	DD	1
	DD	$LN7@ScrMoveObj
	DD	-360					; fffffe98H
	DD	4
	DD	$LN8@ScrMoveObj
	DD	-372					; fffffe8cH
	DD	4
	DD	$LN9@ScrMoveObj
	DD	-384					; fffffe80H
	DD	4
	DD	$LN10@ScrMoveObj
	DD	-396					; fffffe74H
	DD	4
	DD	$LN11@ScrMoveObj
	DD	-408					; fffffe68H
	DD	4
	DD	$LN12@ScrMoveObj
	DD	-420					; fffffe5cH
	DD	4
	DD	$LN13@ScrMoveObj
	DD	-432					; fffffe50H
	DD	4
	DD	$LN14@ScrMoveObj
$LN14@ScrMoveObj:
	DB	115					; 00000073H
	DB	112					; 00000070H
	DB	101					; 00000065H
	DB	101					; 00000065H
	DB	100					; 00000064H
	DB	0
$LN13@ScrMoveObj:
	DB	110					; 0000006eH
	DB	101					; 00000065H
	DB	119					; 00000077H
	DB	122					; 0000007aH
	DB	0
$LN12@ScrMoveObj:
	DB	110					; 0000006eH
	DB	101					; 00000065H
	DB	119					; 00000077H
	DB	121					; 00000079H
	DB	0
$LN11@ScrMoveObj:
	DB	110					; 0000006eH
	DB	101					; 00000065H
	DB	119					; 00000077H
	DB	120					; 00000078H
	DB	0
$LN10@ScrMoveObj:
	DB	99					; 00000063H
	DB	117					; 00000075H
	DB	114					; 00000072H
	DB	122					; 0000007aH
	DB	0
$LN9@ScrMoveObj:
	DB	99					; 00000063H
	DB	117					; 00000075H
	DB	114					; 00000072H
	DB	121					; 00000079H
	DB	0
$LN8@ScrMoveObj:
	DB	99					; 00000063H
	DB	117					; 00000075H
	DB	114					; 00000072H
	DB	120					; 00000078H
	DB	0
$LN7@ScrMoveObj:
	DB	98					; 00000062H
	DB	121					; 00000079H
	DB	116					; 00000074H
	DB	101					; 00000065H
	DB	79					; 0000004fH
	DB	98					; 00000062H
	DB	106					; 0000006aH
	DB	101					; 00000065H
	DB	99					; 00000063H
	DB	116					; 00000074H
	DB	73					; 00000049H
	DB	68					; 00000044H
	DB	0
$LN6@ScrMoveObj:
	DB	98					; 00000062H
	DB	115					; 00000073H
	DB	68					; 00000044H
	DB	97					; 00000061H
	DB	116					; 00000074H
	DB	97					; 00000061H
	DB	0
$LN5@ScrMoveObj:
	DB	115					; 00000073H
	DB	101					; 00000065H
	DB	110					; 0000006eH
	DB	100					; 00000064H
	DB	101					; 00000065H
	DB	114					; 00000072H
	DB	0
_TEXT	ENDS
;	COMDAT text$x
text$x	SEGMENT
__unwindfunclet$?ScrMoveObject@@YAXPAURPCParameters@@@Z$0:
	lea	ecx, DWORD PTR _bsData$[ebp]
	jmp	??1BitStream@RakNet@@QAE@XZ		; RakNet::BitStream::~BitStream
__ehhandler$?ScrMoveObject@@YAXPAURPCParameters@@@Z:
	mov	edx, DWORD PTR [esp+8]
	lea	eax, DWORD PTR [edx+12]
	mov	ecx, DWORD PTR [edx-644]
	xor	ecx, eax
	call	@__security_check_cookie@4
	mov	ecx, DWORD PTR [edx-4]
	xor	ecx, eax
	call	@__security_check_cookie@4
	mov	eax, OFFSET __ehfuncinfo$?ScrMoveObject@@YAXPAURPCParameters@@@Z
	jmp	___CxxFrameHandler3
text$x	ENDS
?ScrMoveObject@@YAXPAURPCParameters@@@Z ENDP		; ScrMoveObject
; Function compile flags: /Odtp /RTCsu /ZI
; File z:\sampsrc\02xu1\saco\net\scriptrpc.cpp
;	COMDAT ?ScrShowNameTag@@YAXPAURPCParameters@@@Z
_TEXT	SEGMENT
_byteShow$ = -357					; size = 1
_bytePlayerID$ = -345					; size = 1
_bsData$ = -336						; size = 273
_sender$ = -52						; size = 6
_iBitLength$ = -36					; size = 4
_Data$ = -24						; size = 4
__$ArrayPad$ = -16					; size = 4
__$EHRec$ = -12						; size = 12
_rpcParams$ = 8						; size = 4
?ScrShowNameTag@@YAXPAURPCParameters@@@Z PROC		; ScrShowNameTag, COMDAT

; 966  : {

	push	ebp
	mov	ebp, esp
	push	-1
	push	__ehhandler$?ScrShowNameTag@@YAXPAURPCParameters@@@Z
	mov	eax, DWORD PTR fs:0
	push	eax
	sub	esp, 544				; 00000220H
	push	ebx
	push	esi
	push	edi
	lea	edi, DWORD PTR [ebp-556]
	mov	ecx, 136				; 00000088H
	mov	eax, -858993460				; ccccccccH
	rep stosd
	mov	eax, DWORD PTR ___security_cookie
	xor	eax, ebp
	mov	DWORD PTR __$ArrayPad$[ebp], eax
	push	eax
	lea	eax, DWORD PTR __$EHRec$[ebp]
	mov	DWORD PTR fs:0, eax

; 967  : 	PCHAR Data = reinterpret_cast<PCHAR>(rpcParams->input);

	mov	eax, DWORD PTR _rpcParams$[ebp]
	mov	ecx, DWORD PTR [eax]
	mov	DWORD PTR _Data$[ebp], ecx

; 968  : 	int iBitLength = rpcParams->numberOfBitsOfData;

	mov	eax, DWORD PTR _rpcParams$[ebp]
	mov	ecx, DWORD PTR [eax+4]
	mov	DWORD PTR _iBitLength$[ebp], ecx

; 969  : 	PlayerID sender = rpcParams->sender;

	mov	eax, DWORD PTR _rpcParams$[ebp]
	add	eax, 8
	mov	ecx, DWORD PTR [eax]
	mov	DWORD PTR _sender$[ebp], ecx
	mov	dx, WORD PTR [eax+4]
	mov	WORD PTR _sender$[ebp+4], dx

; 970  : 
; 971  : 	RakNet::BitStream bsData(Data,(iBitLength/8)+1,false);

	push	0
	mov	eax, DWORD PTR _iBitLength$[ebp]
	cdq
	and	edx, 7
	add	eax, edx
	sar	eax, 3
	add	eax, 1
	push	eax
	mov	eax, DWORD PTR _Data$[ebp]
	push	eax
	lea	ecx, DWORD PTR _bsData$[ebp]
	call	??0BitStream@RakNet@@QAE@PADI_N@Z	; RakNet::BitStream::BitStream
	mov	DWORD PTR __$EHRec$[ebp+8], 0

; 972  : 	BYTE bytePlayerID;
; 973  : 	BYTE byteShow;
; 974  : 
; 975  : 	bsData.Read(bytePlayerID);

	lea	eax, DWORD PTR _bytePlayerID$[ebp]
	push	eax
	lea	ecx, DWORD PTR _bsData$[ebp]
	call	??$Read@E@BitStream@RakNet@@QAE_NAAE@Z	; RakNet::BitStream::Read<unsigned char>

; 976  : 	bsData.Read(byteShow);

	lea	eax, DWORD PTR _byteShow$[ebp]
	push	eax
	lea	ecx, DWORD PTR _bsData$[ebp]
	call	??$Read@E@BitStream@RakNet@@QAE_NAAE@Z	; RakNet::BitStream::Read<unsigned char>

; 977  : 
; 978  : 	if (pNetGame->GetPlayerPool()->GetSlotState(bytePlayerID))

	movzx	eax, BYTE PTR _bytePlayerID$[ebp]
	push	eax
	mov	ecx, DWORD PTR ?pNetGame@@3PAVCNetGame@@A ; pNetGame
	call	?GetPlayerPool@CNetGame@@QAEPAVCPlayerPool@@XZ ; CNetGame::GetPlayerPool
	mov	ecx, eax
	call	?GetSlotState@CPlayerPool@@QAEHE@Z	; CPlayerPool::GetSlotState
	test	eax, eax
	je	SHORT $LN1@ScrShowNam

; 979  : 	{
; 980  : 		pNetGame->GetPlayerPool()->GetAt(bytePlayerID)->ShowNameTag(byteShow);

	movzx	eax, BYTE PTR _byteShow$[ebp]
	push	eax
	movzx	ecx, BYTE PTR _bytePlayerID$[ebp]
	push	ecx
	mov	ecx, DWORD PTR ?pNetGame@@3PAVCNetGame@@A ; pNetGame
	call	?GetPlayerPool@CNetGame@@QAEPAVCPlayerPool@@XZ ; CNetGame::GetPlayerPool
	mov	ecx, eax
	call	?GetAt@CPlayerPool@@QAEPAVCRemotePlayer@@E@Z ; CPlayerPool::GetAt
	mov	ecx, eax
	call	?ShowNameTag@CRemotePlayer@@QAEXE@Z	; CRemotePlayer::ShowNameTag
$LN1@ScrShowNam:

; 981  : 	}
; 982  : }

	mov	DWORD PTR __$EHRec$[ebp+8], -1
	lea	ecx, DWORD PTR _bsData$[ebp]
	call	??1BitStream@RakNet@@QAE@XZ		; RakNet::BitStream::~BitStream
	push	edx
	mov	ecx, ebp
	push	eax
	lea	edx, DWORD PTR $LN11@ScrShowNam
	call	@_RTC_CheckStackVars@8
	pop	eax
	pop	edx
	mov	ecx, DWORD PTR __$EHRec$[ebp]
	mov	DWORD PTR fs:0, ecx
	pop	ecx
	pop	edi
	pop	esi
	pop	ebx
	mov	ecx, DWORD PTR __$ArrayPad$[ebp]
	xor	ecx, ebp
	call	@__security_check_cookie@4
	add	esp, 556				; 0000022cH
	cmp	ebp, esp
	call	__RTC_CheckEsp
	mov	esp, ebp
	pop	ebp
	ret	0
	npad	1
$LN11@ScrShowNam:
	DD	4
	DD	$LN10@ScrShowNam
$LN10@ScrShowNam:
	DD	-52					; ffffffccH
	DD	6
	DD	$LN5@ScrShowNam
	DD	-336					; fffffeb0H
	DD	273					; 00000111H
	DD	$LN6@ScrShowNam
	DD	-345					; fffffea7H
	DD	1
	DD	$LN7@ScrShowNam
	DD	-357					; fffffe9bH
	DD	1
	DD	$LN8@ScrShowNam
$LN8@ScrShowNam:
	DB	98					; 00000062H
	DB	121					; 00000079H
	DB	116					; 00000074H
	DB	101					; 00000065H
	DB	83					; 00000053H
	DB	104					; 00000068H
	DB	111					; 0000006fH
	DB	119					; 00000077H
	DB	0
$LN7@ScrShowNam:
	DB	98					; 00000062H
	DB	121					; 00000079H
	DB	116					; 00000074H
	DB	101					; 00000065H
	DB	80					; 00000050H
	DB	108					; 0000006cH
	DB	97					; 00000061H
	DB	121					; 00000079H
	DB	101					; 00000065H
	DB	114					; 00000072H
	DB	73					; 00000049H
	DB	68					; 00000044H
	DB	0
$LN6@ScrShowNam:
	DB	98					; 00000062H
	DB	115					; 00000073H
	DB	68					; 00000044H
	DB	97					; 00000061H
	DB	116					; 00000074H
	DB	97					; 00000061H
	DB	0
$LN5@ScrShowNam:
	DB	115					; 00000073H
	DB	101					; 00000065H
	DB	110					; 0000006eH
	DB	100					; 00000064H
	DB	101					; 00000065H
	DB	114					; 00000072H
	DB	0
_TEXT	ENDS
;	COMDAT text$x
text$x	SEGMENT
__unwindfunclet$?ScrShowNameTag@@YAXPAURPCParameters@@@Z$0:
	lea	ecx, DWORD PTR _bsData$[ebp]
	jmp	??1BitStream@RakNet@@QAE@XZ		; RakNet::BitStream::~BitStream
__ehhandler$?ScrShowNameTag@@YAXPAURPCParameters@@@Z:
	mov	edx, DWORD PTR [esp+8]
	lea	eax, DWORD PTR [edx+12]
	mov	ecx, DWORD PTR [edx-560]
	xor	ecx, eax
	call	@__security_check_cookie@4
	mov	ecx, DWORD PTR [edx-4]
	xor	ecx, eax
	call	@__security_check_cookie@4
	mov	eax, OFFSET __ehfuncinfo$?ScrShowNameTag@@YAXPAURPCParameters@@@Z
	jmp	___CxxFrameHandler3
text$x	ENDS
?ScrShowNameTag@@YAXPAURPCParameters@@@Z ENDP		; ScrShowNameTag
; Function compile flags: /Odtp /RTCsu /ZI
; File z:\sampsrc\02xu1\saco\net\scriptrpc.cpp
;	COMDAT ?ScrCreateExplosion@@YAXPAURPCParameters@@@Z
_TEXT	SEGMENT
_iType$ = -396						; size = 4
_Radius$ = -384						; size = 4
_Z$ = -372						; size = 4
_Y$ = -360						; size = 4
_X$ = -348						; size = 4
_bsData$ = -336						; size = 273
_sender$ = -52						; size = 6
_iBitLength$ = -36					; size = 4
_Data$ = -24						; size = 4
__$ArrayPad$ = -16					; size = 4
__$EHRec$ = -12						; size = 12
_rpcParams$ = 8						; size = 4
?ScrCreateExplosion@@YAXPAURPCParameters@@@Z PROC	; ScrCreateExplosion, COMDAT

; 947  : {

	push	ebp
	mov	ebp, esp
	push	-1
	push	__ehhandler$?ScrCreateExplosion@@YAXPAURPCParameters@@@Z
	mov	eax, DWORD PTR fs:0
	push	eax
	sub	esp, 580				; 00000244H
	push	ebx
	push	esi
	push	edi
	lea	edi, DWORD PTR [ebp-592]
	mov	ecx, 145				; 00000091H
	mov	eax, -858993460				; ccccccccH
	rep stosd
	mov	eax, DWORD PTR ___security_cookie
	xor	eax, ebp
	mov	DWORD PTR __$ArrayPad$[ebp], eax
	push	eax
	lea	eax, DWORD PTR __$EHRec$[ebp]
	mov	DWORD PTR fs:0, eax

; 948  : 	PCHAR Data = reinterpret_cast<PCHAR>(rpcParams->input);

	mov	eax, DWORD PTR _rpcParams$[ebp]
	mov	ecx, DWORD PTR [eax]
	mov	DWORD PTR _Data$[ebp], ecx

; 949  : 	int iBitLength = rpcParams->numberOfBitsOfData;

	mov	eax, DWORD PTR _rpcParams$[ebp]
	mov	ecx, DWORD PTR [eax+4]
	mov	DWORD PTR _iBitLength$[ebp], ecx

; 950  : 	PlayerID sender = rpcParams->sender;

	mov	eax, DWORD PTR _rpcParams$[ebp]
	add	eax, 8
	mov	ecx, DWORD PTR [eax]
	mov	DWORD PTR _sender$[ebp], ecx
	mov	dx, WORD PTR [eax+4]
	mov	WORD PTR _sender$[ebp+4], dx

; 951  : 
; 952  : 	RakNet::BitStream bsData(Data,(iBitLength/8)+1,false);

	push	0
	mov	eax, DWORD PTR _iBitLength$[ebp]
	cdq
	and	edx, 7
	add	eax, edx
	sar	eax, 3
	add	eax, 1
	push	eax
	mov	eax, DWORD PTR _Data$[ebp]
	push	eax
	lea	ecx, DWORD PTR _bsData$[ebp]
	call	??0BitStream@RakNet@@QAE@PADI_N@Z	; RakNet::BitStream::BitStream
	mov	DWORD PTR __$EHRec$[ebp+8], 0

; 953  : 	float X, Y, Z, Radius;
; 954  : 	int   iType;
; 955  : 
; 956  : 	bsData.Read(X);

	lea	eax, DWORD PTR _X$[ebp]
	push	eax
	lea	ecx, DWORD PTR _bsData$[ebp]
	call	??$Read@M@BitStream@RakNet@@QAE_NAAM@Z	; RakNet::BitStream::Read<float>

; 957  : 	bsData.Read(Y);

	lea	eax, DWORD PTR _Y$[ebp]
	push	eax
	lea	ecx, DWORD PTR _bsData$[ebp]
	call	??$Read@M@BitStream@RakNet@@QAE_NAAM@Z	; RakNet::BitStream::Read<float>

; 958  : 	bsData.Read(Z);

	lea	eax, DWORD PTR _Z$[ebp]
	push	eax
	lea	ecx, DWORD PTR _bsData$[ebp]
	call	??$Read@M@BitStream@RakNet@@QAE_NAAM@Z	; RakNet::BitStream::Read<float>

; 959  : 	bsData.Read(iType);

	lea	eax, DWORD PTR _iType$[ebp]
	push	eax
	lea	ecx, DWORD PTR _bsData$[ebp]
	call	??$Read@H@BitStream@RakNet@@QAE_NAAH@Z	; RakNet::BitStream::Read<int>

; 960  : 	bsData.Read(Radius);

	lea	eax, DWORD PTR _Radius$[ebp]
	push	eax
	lea	ecx, DWORD PTR _bsData$[ebp]
	call	??$Read@M@BitStream@RakNet@@QAE_NAAM@Z	; RakNet::BitStream::Read<float>

; 961  : 
; 962  : 	ScriptCommand(&create_explosion_with_radius, X, Y, Z, iType, Radius);

	cvtss2sd xmm0, DWORD PTR _Radius$[ebp]
	sub	esp, 8
	movsd	QWORD PTR [esp], xmm0
	mov	eax, DWORD PTR _iType$[ebp]
	push	eax
	cvtss2sd xmm0, DWORD PTR _Z$[ebp]
	sub	esp, 8
	movsd	QWORD PTR [esp], xmm0
	cvtss2sd xmm0, DWORD PTR _Y$[ebp]
	sub	esp, 8
	movsd	QWORD PTR [esp], xmm0
	cvtss2sd xmm0, DWORD PTR _X$[ebp]
	sub	esp, 8
	movsd	QWORD PTR [esp], xmm0
	push	OFFSET _create_explosion_with_radius
	call	?ScriptCommand@@YAHPBUSCRIPT_COMMAND@@ZZ ; ScriptCommand
	add	esp, 40					; 00000028H

; 963  : }

	mov	DWORD PTR __$EHRec$[ebp+8], -1
	lea	ecx, DWORD PTR _bsData$[ebp]
	call	??1BitStream@RakNet@@QAE@XZ		; RakNet::BitStream::~BitStream
	push	edx
	mov	ecx, ebp
	push	eax
	lea	edx, DWORD PTR $LN13@ScrCreateE
	call	@_RTC_CheckStackVars@8
	pop	eax
	pop	edx
	mov	ecx, DWORD PTR __$EHRec$[ebp]
	mov	DWORD PTR fs:0, ecx
	pop	ecx
	pop	edi
	pop	esi
	pop	ebx
	mov	ecx, DWORD PTR __$ArrayPad$[ebp]
	xor	ecx, ebp
	call	@__security_check_cookie@4
	add	esp, 592				; 00000250H
	cmp	ebp, esp
	call	__RTC_CheckEsp
	mov	esp, ebp
	pop	ebp
	ret	0
	npad	2
$LN13@ScrCreateE:
	DD	7
	DD	$LN12@ScrCreateE
$LN12@ScrCreateE:
	DD	-52					; ffffffccH
	DD	6
	DD	$LN4@ScrCreateE
	DD	-336					; fffffeb0H
	DD	273					; 00000111H
	DD	$LN5@ScrCreateE
	DD	-348					; fffffea4H
	DD	4
	DD	$LN6@ScrCreateE
	DD	-360					; fffffe98H
	DD	4
	DD	$LN7@ScrCreateE
	DD	-372					; fffffe8cH
	DD	4
	DD	$LN8@ScrCreateE
	DD	-384					; fffffe80H
	DD	4
	DD	$LN9@ScrCreateE
	DD	-396					; fffffe74H
	DD	4
	DD	$LN10@ScrCreateE
$LN10@ScrCreateE:
	DB	105					; 00000069H
	DB	84					; 00000054H
	DB	121					; 00000079H
	DB	112					; 00000070H
	DB	101					; 00000065H
	DB	0
$LN9@ScrCreateE:
	DB	82					; 00000052H
	DB	97					; 00000061H
	DB	100					; 00000064H
	DB	105					; 00000069H
	DB	117					; 00000075H
	DB	115					; 00000073H
	DB	0
$LN8@ScrCreateE:
	DB	90					; 0000005aH
	DB	0
$LN7@ScrCreateE:
	DB	89					; 00000059H
	DB	0
$LN6@ScrCreateE:
	DB	88					; 00000058H
	DB	0
$LN5@ScrCreateE:
	DB	98					; 00000062H
	DB	115					; 00000073H
	DB	68					; 00000044H
	DB	97					; 00000061H
	DB	116					; 00000074H
	DB	97					; 00000061H
	DB	0
$LN4@ScrCreateE:
	DB	115					; 00000073H
	DB	101					; 00000065H
	DB	110					; 0000006eH
	DB	100					; 00000064H
	DB	101					; 00000065H
	DB	114					; 00000072H
	DB	0
_TEXT	ENDS
;	COMDAT text$x
text$x	SEGMENT
__unwindfunclet$?ScrCreateExplosion@@YAXPAURPCParameters@@@Z$0:
	lea	ecx, DWORD PTR _bsData$[ebp]
	jmp	??1BitStream@RakNet@@QAE@XZ		; RakNet::BitStream::~BitStream
__ehhandler$?ScrCreateExplosion@@YAXPAURPCParameters@@@Z:
	mov	edx, DWORD PTR [esp+8]
	lea	eax, DWORD PTR [edx+12]
	mov	ecx, DWORD PTR [edx-596]
	xor	ecx, eax
	call	@__security_check_cookie@4
	mov	ecx, DWORD PTR [edx-4]
	xor	ecx, eax
	call	@__security_check_cookie@4
	mov	eax, OFFSET __ehfuncinfo$?ScrCreateExplosion@@YAXPAURPCParameters@@@Z
	jmp	___CxxFrameHandler3
text$x	ENDS
?ScrCreateExplosion@@YAXPAURPCParameters@@@Z ENDP	; ScrCreateExplosion
; Function compile flags: /Odtp /RTCsu /ZI
; File z:\sampsrc\02xu1\saco\net\scriptrpc.cpp
;	COMDAT ?ScrSetVehicleVirtualWorld@@YAXPAURPCParameters@@@Z
_TEXT	SEGMENT
_i$2 = -368						; size = 4
_pVehiclePool$ = -356					; size = 4
_byteVW$ = -341						; size = 1
_Vehicle$ = -332					; size = 2
_bsData$ = -320						; size = 273
_iCount$ = -36						; size = 4
_Data$ = -24						; size = 4
__$ArrayPad$ = -16					; size = 4
__$EHRec$ = -12						; size = 12
_rpcParams$ = 8						; size = 4
?ScrSetVehicleVirtualWorld@@YAXPAURPCParameters@@@Z PROC ; ScrSetVehicleVirtualWorld, COMDAT

; 926  : {

	push	ebp
	mov	ebp, esp
	push	-1
	push	__ehhandler$?ScrSetVehicleVirtualWorld@@YAXPAURPCParameters@@@Z
	mov	eax, DWORD PTR fs:0
	push	eax
	sub	esp, 552				; 00000228H
	push	ebx
	push	esi
	push	edi
	lea	edi, DWORD PTR [ebp-564]
	mov	ecx, 138				; 0000008aH
	mov	eax, -858993460				; ccccccccH
	rep stosd
	mov	eax, DWORD PTR ___security_cookie
	xor	eax, ebp
	mov	DWORD PTR __$ArrayPad$[ebp], eax
	push	eax
	lea	eax, DWORD PTR __$EHRec$[ebp]
	mov	DWORD PTR fs:0, eax

; 927  : 	// Sets which players are visible to the local player and which aren't
; 928  : 	PCHAR Data = reinterpret_cast<PCHAR>(rpcParams->input);

	mov	eax, DWORD PTR _rpcParams$[ebp]
	mov	ecx, DWORD PTR [eax]
	mov	DWORD PTR _Data$[ebp], ecx

; 929  : 	int iCount = rpcParams->numberOfBitsOfData / 8;

	mov	eax, DWORD PTR _rpcParams$[ebp]
	mov	ecx, DWORD PTR [eax+4]
	shr	ecx, 3
	mov	DWORD PTR _iCount$[ebp], ecx

; 930  : 	RakNet::BitStream bsData(Data, iCount + 1, false);

	push	0
	mov	eax, DWORD PTR _iCount$[ebp]
	add	eax, 1
	push	eax
	mov	ecx, DWORD PTR _Data$[ebp]
	push	ecx
	lea	ecx, DWORD PTR _bsData$[ebp]
	call	??0BitStream@RakNet@@QAE@PADI_N@Z	; RakNet::BitStream::BitStream
	mov	DWORD PTR __$EHRec$[ebp+8], 0

; 931  : 	iCount /= (sizeof(VEHICLEID) + sizeof(BYTE));

	mov	eax, DWORD PTR _iCount$[ebp]
	xor	edx, edx
	mov	ecx, 3
	div	ecx
	mov	DWORD PTR _iCount$[ebp], eax

; 932  : 
; 933  : 	VEHICLEID Vehicle;
; 934  : 	BYTE byteVW;
; 935  : 	
; 936  : 	CVehiclePool* pVehiclePool = pNetGame->GetVehiclePool();

	mov	ecx, DWORD PTR ?pNetGame@@3PAVCNetGame@@A ; pNetGame
	call	?GetVehiclePool@CNetGame@@QAEPAVCVehiclePool@@XZ ; CNetGame::GetVehiclePool
	mov	DWORD PTR _pVehiclePool$[ebp], eax

; 937  : 	
; 938  : 	for (int i = 0; i < iCount; i++)

	mov	DWORD PTR _i$2[ebp], 0
	jmp	SHORT $LN3@ScrSetVehi
$LN2@ScrSetVehi:
	mov	eax, DWORD PTR _i$2[ebp]
	add	eax, 1
	mov	DWORD PTR _i$2[ebp], eax
$LN3@ScrSetVehi:
	mov	eax, DWORD PTR _i$2[ebp]
	cmp	eax, DWORD PTR _iCount$[ebp]
	jge	SHORT $LN1@ScrSetVehi

; 939  : 	{
; 940  : 		bsData.Read((VEHICLEID)Vehicle);

	lea	eax, DWORD PTR _Vehicle$[ebp]
	push	eax
	lea	ecx, DWORD PTR _bsData$[ebp]
	call	??$Read@G@BitStream@RakNet@@QAE_NAAG@Z	; RakNet::BitStream::Read<unsigned short>

; 941  : 		bsData.Read(byteVW);

	lea	eax, DWORD PTR _byteVW$[ebp]
	push	eax
	lea	ecx, DWORD PTR _bsData$[ebp]
	call	??$Read@E@BitStream@RakNet@@QAE_NAAE@Z	; RakNet::BitStream::Read<unsigned char>

; 942  : 		pVehiclePool->SetVehicleVirtualWorld(Vehicle, byteVW);

	movzx	eax, BYTE PTR _byteVW$[ebp]
	push	eax
	movzx	ecx, WORD PTR _Vehicle$[ebp]
	push	ecx
	mov	ecx, DWORD PTR _pVehiclePool$[ebp]
	call	?SetVehicleVirtualWorld@CVehiclePool@@QAEXGE@Z ; CVehiclePool::SetVehicleVirtualWorld

; 943  : 	}

	jmp	SHORT $LN2@ScrSetVehi
$LN1@ScrSetVehi:

; 944  : }

	mov	DWORD PTR __$EHRec$[ebp+8], -1
	lea	ecx, DWORD PTR _bsData$[ebp]
	call	??1BitStream@RakNet@@QAE@XZ		; RakNet::BitStream::~BitStream
	push	edx
	mov	ecx, ebp
	push	eax
	lea	edx, DWORD PTR $LN12@ScrSetVehi
	call	@_RTC_CheckStackVars@8
	pop	eax
	pop	edx
	mov	ecx, DWORD PTR __$EHRec$[ebp]
	mov	DWORD PTR fs:0, ecx
	pop	ecx
	pop	edi
	pop	esi
	pop	ebx
	mov	ecx, DWORD PTR __$ArrayPad$[ebp]
	xor	ecx, ebp
	call	@__security_check_cookie@4
	add	esp, 564				; 00000234H
	cmp	ebp, esp
	call	__RTC_CheckEsp
	mov	esp, ebp
	pop	ebp
	ret	0
	npad	2
$LN12@ScrSetVehi:
	DD	3
	DD	$LN11@ScrSetVehi
$LN11@ScrSetVehi:
	DD	-320					; fffffec0H
	DD	273					; 00000111H
	DD	$LN7@ScrSetVehi
	DD	-332					; fffffeb4H
	DD	2
	DD	$LN8@ScrSetVehi
	DD	-341					; fffffeabH
	DD	1
	DD	$LN9@ScrSetVehi
$LN9@ScrSetVehi:
	DB	98					; 00000062H
	DB	121					; 00000079H
	DB	116					; 00000074H
	DB	101					; 00000065H
	DB	86					; 00000056H
	DB	87					; 00000057H
	DB	0
$LN8@ScrSetVehi:
	DB	86					; 00000056H
	DB	101					; 00000065H
	DB	104					; 00000068H
	DB	105					; 00000069H
	DB	99					; 00000063H
	DB	108					; 0000006cH
	DB	101					; 00000065H
	DB	0
$LN7@ScrSetVehi:
	DB	98					; 00000062H
	DB	115					; 00000073H
	DB	68					; 00000044H
	DB	97					; 00000061H
	DB	116					; 00000074H
	DB	97					; 00000061H
	DB	0
_TEXT	ENDS
;	COMDAT text$x
text$x	SEGMENT
__unwindfunclet$?ScrSetVehicleVirtualWorld@@YAXPAURPCParameters@@@Z$0:
	lea	ecx, DWORD PTR _bsData$[ebp]
	jmp	??1BitStream@RakNet@@QAE@XZ		; RakNet::BitStream::~BitStream
__ehhandler$?ScrSetVehicleVirtualWorld@@YAXPAURPCParameters@@@Z:
	mov	edx, DWORD PTR [esp+8]
	lea	eax, DWORD PTR [edx+12]
	mov	ecx, DWORD PTR [edx-568]
	xor	ecx, eax
	call	@__security_check_cookie@4
	mov	ecx, DWORD PTR [edx-4]
	xor	ecx, eax
	call	@__security_check_cookie@4
	mov	eax, OFFSET __ehfuncinfo$?ScrSetVehicleVirtualWorld@@YAXPAURPCParameters@@@Z
	jmp	___CxxFrameHandler3
text$x	ENDS
?ScrSetVehicleVirtualWorld@@YAXPAURPCParameters@@@Z ENDP ; ScrSetVehicleVirtualWorld
; Function compile flags: /Odtp /RTCsu /ZI
; File z:\sampsrc\02xu1\saco\net\scriptrpc.cpp
;	COMDAT ?ScrSetPlayerVirtualWorld@@YAXPAURPCParameters@@@Z
_TEXT	SEGMENT
_pPlayer$2 = -404					; size = 4
_pPlayer$3 = -392					; size = 4
_i$4 = -377						; size = 1
_byteLocal$ = -365					; size = 1
_pPlayerPool$ = -356					; size = 4
_byteVW$ = -341						; size = 1
_bytePlayer$ = -329					; size = 1
_bsData$ = -320						; size = 273
_byteCount$ = -33					; size = 1
_Data$ = -24						; size = 4
__$ArrayPad$ = -16					; size = 4
__$EHRec$ = -12						; size = 12
_rpcParams$ = 8						; size = 4
?ScrSetPlayerVirtualWorld@@YAXPAURPCParameters@@@Z PROC	; ScrSetPlayerVirtualWorld, COMDAT

; 892  : {

	push	ebp
	mov	ebp, esp
	push	-1
	push	__ehhandler$?ScrSetPlayerVirtualWorld@@YAXPAURPCParameters@@@Z
	mov	eax, DWORD PTR fs:0
	push	eax
	sub	esp, 588				; 0000024cH
	push	ebx
	push	esi
	push	edi
	lea	edi, DWORD PTR [ebp-600]
	mov	ecx, 147				; 00000093H
	mov	eax, -858993460				; ccccccccH
	rep stosd
	mov	eax, DWORD PTR ___security_cookie
	xor	eax, ebp
	mov	DWORD PTR __$ArrayPad$[ebp], eax
	push	eax
	lea	eax, DWORD PTR __$EHRec$[ebp]
	mov	DWORD PTR fs:0, eax

; 893  : 	// Sets which players are visible to the local player and which aren't
; 894  : 	PCHAR Data = reinterpret_cast<PCHAR>(rpcParams->input);

	mov	eax, DWORD PTR _rpcParams$[ebp]
	mov	ecx, DWORD PTR [eax]
	mov	DWORD PTR _Data$[ebp], ecx

; 895  : 	BYTE byteCount = rpcParams->numberOfBitsOfData / 8;

	mov	eax, DWORD PTR _rpcParams$[ebp]
	mov	ecx, DWORD PTR [eax+4]
	shr	ecx, 3
	mov	BYTE PTR _byteCount$[ebp], cl

; 896  : 	RakNet::BitStream bsData(Data, byteCount + 1, false);

	push	0
	movzx	eax, BYTE PTR _byteCount$[ebp]
	add	eax, 1
	push	eax
	mov	ecx, DWORD PTR _Data$[ebp]
	push	ecx
	lea	ecx, DWORD PTR _bsData$[ebp]
	call	??0BitStream@RakNet@@QAE@PADI_N@Z	; RakNet::BitStream::BitStream
	mov	DWORD PTR __$EHRec$[ebp+8], 0

; 897  : 	byteCount /= 2;

	movzx	eax, BYTE PTR _byteCount$[ebp]
	cdq
	sub	eax, edx
	sar	eax, 1
	mov	BYTE PTR _byteCount$[ebp], al

; 898  : 
; 899  : 	BYTE bytePlayer;
; 900  : 	BYTE byteVW;
; 901  : 	
; 902  : 	CPlayerPool* pPlayerPool = pNetGame->GetPlayerPool();

	mov	ecx, DWORD PTR ?pNetGame@@3PAVCNetGame@@A ; pNetGame
	call	?GetPlayerPool@CNetGame@@QAEPAVCPlayerPool@@XZ ; CNetGame::GetPlayerPool
	mov	DWORD PTR _pPlayerPool$[ebp], eax

; 903  : 
; 904  : 	BYTE byteLocal = pPlayerPool->GetLocalPlayerID();	

	mov	ecx, DWORD PTR _pPlayerPool$[ebp]
	call	?GetLocalPlayerID@CPlayerPool@@QAEEXZ	; CPlayerPool::GetLocalPlayerID
	mov	BYTE PTR _byteLocal$[ebp], al

; 905  : 	
; 906  : 	for (BYTE i = 0; i < byteCount; i++)

	mov	BYTE PTR _i$4[ebp], 0
	jmp	SHORT $LN7@ScrSetPlay
$LN6@ScrSetPlay:
	mov	al, BYTE PTR _i$4[ebp]
	add	al, 1
	mov	BYTE PTR _i$4[ebp], al
$LN7@ScrSetPlay:
	movzx	eax, BYTE PTR _i$4[ebp]
	movzx	ecx, BYTE PTR _byteCount$[ebp]
	cmp	eax, ecx
	jge	$LN5@ScrSetPlay

; 907  : 	{
; 908  : 		bsData.Read(bytePlayer);

	lea	eax, DWORD PTR _bytePlayer$[ebp]
	push	eax
	lea	ecx, DWORD PTR _bsData$[ebp]
	call	??$Read@E@BitStream@RakNet@@QAE_NAAE@Z	; RakNet::BitStream::Read<unsigned char>

; 909  : 		bsData.Read(byteVW);

	lea	eax, DWORD PTR _byteVW$[ebp]
	push	eax
	lea	ecx, DWORD PTR _bsData$[ebp]
	call	??$Read@E@BitStream@RakNet@@QAE_NAAE@Z	; RakNet::BitStream::Read<unsigned char>

; 910  : 		if (bytePlayer == byteLocal)

	movzx	eax, BYTE PTR _bytePlayer$[ebp]
	movzx	ecx, BYTE PTR _byteLocal$[ebp]
	cmp	eax, ecx
	jne	SHORT $LN4@ScrSetPlay

; 911  : 		{
; 912  : 			CLocalPlayer* pPlayer = pPlayerPool->GetLocalPlayer();

	mov	ecx, DWORD PTR _pPlayerPool$[ebp]
	call	?GetLocalPlayer@CPlayerPool@@QAEPAVCLocalPlayer@@XZ ; CPlayerPool::GetLocalPlayer
	mov	DWORD PTR _pPlayer$3[ebp], eax

; 913  : 			if (pPlayer) pPlayer->SetVirtualWorld(byteVW);

	cmp	DWORD PTR _pPlayer$3[ebp], 0
	je	SHORT $LN3@ScrSetPlay
	movzx	eax, BYTE PTR _byteVW$[ebp]
	push	eax
	mov	ecx, DWORD PTR _pPlayer$3[ebp]
	call	?SetVirtualWorld@CLocalPlayer@@QAEXE@Z	; CLocalPlayer::SetVirtualWorld
$LN3@ScrSetPlay:

; 914  : 		}
; 915  : 		else

	jmp	SHORT $LN2@ScrSetPlay
$LN4@ScrSetPlay:

; 916  : 		{
; 917  : 			CRemotePlayer* pPlayer = pPlayerPool->GetAt(bytePlayer);

	movzx	eax, BYTE PTR _bytePlayer$[ebp]
	push	eax
	mov	ecx, DWORD PTR _pPlayerPool$[ebp]
	call	?GetAt@CPlayerPool@@QAEPAVCRemotePlayer@@E@Z ; CPlayerPool::GetAt
	mov	DWORD PTR _pPlayer$2[ebp], eax

; 918  : 			if (pPlayer) pPlayer->SetVirtualWorld(byteVW);

	cmp	DWORD PTR _pPlayer$2[ebp], 0
	je	SHORT $LN2@ScrSetPlay
	movzx	eax, BYTE PTR _byteVW$[ebp]
	push	eax
	mov	ecx, DWORD PTR _pPlayer$2[ebp]
	call	?SetVirtualWorld@CRemotePlayer@@QAEXE@Z	; CRemotePlayer::SetVirtualWorld
$LN2@ScrSetPlay:

; 919  : 		}
; 920  : 	}

	jmp	$LN6@ScrSetPlay
$LN5@ScrSetPlay:

; 921  : }

	mov	DWORD PTR __$EHRec$[ebp+8], -1
	lea	ecx, DWORD PTR _bsData$[ebp]
	call	??1BitStream@RakNet@@QAE@XZ		; RakNet::BitStream::~BitStream
	push	edx
	mov	ecx, ebp
	push	eax
	lea	edx, DWORD PTR $LN16@ScrSetPlay
	call	@_RTC_CheckStackVars@8
	pop	eax
	pop	edx
	mov	ecx, DWORD PTR __$EHRec$[ebp]
	mov	DWORD PTR fs:0, ecx
	pop	ecx
	pop	edi
	pop	esi
	pop	ebx
	mov	ecx, DWORD PTR __$ArrayPad$[ebp]
	xor	ecx, ebp
	call	@__security_check_cookie@4
	add	esp, 600				; 00000258H
	cmp	ebp, esp
	call	__RTC_CheckEsp
	mov	esp, ebp
	pop	ebp
	ret	0
	npad	1
$LN16@ScrSetPlay:
	DD	3
	DD	$LN15@ScrSetPlay
$LN15@ScrSetPlay:
	DD	-320					; fffffec0H
	DD	273					; 00000111H
	DD	$LN11@ScrSetPlay
	DD	-329					; fffffeb7H
	DD	1
	DD	$LN12@ScrSetPlay
	DD	-341					; fffffeabH
	DD	1
	DD	$LN13@ScrSetPlay
$LN13@ScrSetPlay:
	DB	98					; 00000062H
	DB	121					; 00000079H
	DB	116					; 00000074H
	DB	101					; 00000065H
	DB	86					; 00000056H
	DB	87					; 00000057H
	DB	0
$LN12@ScrSetPlay:
	DB	98					; 00000062H
	DB	121					; 00000079H
	DB	116					; 00000074H
	DB	101					; 00000065H
	DB	80					; 00000050H
	DB	108					; 0000006cH
	DB	97					; 00000061H
	DB	121					; 00000079H
	DB	101					; 00000065H
	DB	114					; 00000072H
	DB	0
$LN11@ScrSetPlay:
	DB	98					; 00000062H
	DB	115					; 00000073H
	DB	68					; 00000044H
	DB	97					; 00000061H
	DB	116					; 00000074H
	DB	97					; 00000061H
	DB	0
_TEXT	ENDS
;	COMDAT text$x
text$x	SEGMENT
__unwindfunclet$?ScrSetPlayerVirtualWorld@@YAXPAURPCParameters@@@Z$0:
	lea	ecx, DWORD PTR _bsData$[ebp]
	jmp	??1BitStream@RakNet@@QAE@XZ		; RakNet::BitStream::~BitStream
__ehhandler$?ScrSetPlayerVirtualWorld@@YAXPAURPCParameters@@@Z:
	mov	edx, DWORD PTR [esp+8]
	lea	eax, DWORD PTR [edx+12]
	mov	ecx, DWORD PTR [edx-604]
	xor	ecx, eax
	call	@__security_check_cookie@4
	mov	ecx, DWORD PTR [edx-4]
	xor	ecx, eax
	call	@__security_check_cookie@4
	mov	eax, OFFSET __ehfuncinfo$?ScrSetPlayerVirtualWorld@@YAXPAURPCParameters@@@Z
	jmp	___CxxFrameHandler3
text$x	ENDS
?ScrSetPlayerVirtualWorld@@YAXPAURPCParameters@@@Z ENDP	; ScrSetPlayerVirtualWorld
; Function compile flags: /Odtp /RTCsu /ZI
; File z:\sampsrc\02xu1\saco\net\scriptrpc.cpp
;	COMDAT ?ScrDestroyObject@@YAXPAURPCParameters@@@Z
_TEXT	SEGMENT
_pObjectPool$ = -360					; size = 4
_bsData$ = -348						; size = 273
_byteObjectID$ = -61					; size = 1
_sender$ = -52						; size = 6
_iBitLength$ = -36					; size = 4
_Data$ = -24						; size = 4
__$ArrayPad$ = -16					; size = 4
__$EHRec$ = -12						; size = 12
_rpcParams$ = 8						; size = 4
?ScrDestroyObject@@YAXPAURPCParameters@@@Z PROC		; ScrDestroyObject, COMDAT

; 873  : {

	push	ebp
	mov	ebp, esp
	push	-1
	push	__ehhandler$?ScrDestroyObject@@YAXPAURPCParameters@@@Z
	mov	eax, DWORD PTR fs:0
	push	eax
	sub	esp, 544				; 00000220H
	push	ebx
	push	esi
	push	edi
	lea	edi, DWORD PTR [ebp-556]
	mov	ecx, 136				; 00000088H
	mov	eax, -858993460				; ccccccccH
	rep stosd
	mov	eax, DWORD PTR ___security_cookie
	xor	eax, ebp
	mov	DWORD PTR __$ArrayPad$[ebp], eax
	push	eax
	lea	eax, DWORD PTR __$EHRec$[ebp]
	mov	DWORD PTR fs:0, eax

; 874  : 	PCHAR Data = reinterpret_cast<PCHAR>(rpcParams->input);

	mov	eax, DWORD PTR _rpcParams$[ebp]
	mov	ecx, DWORD PTR [eax]
	mov	DWORD PTR _Data$[ebp], ecx

; 875  : 	int iBitLength = rpcParams->numberOfBitsOfData;

	mov	eax, DWORD PTR _rpcParams$[ebp]
	mov	ecx, DWORD PTR [eax+4]
	mov	DWORD PTR _iBitLength$[ebp], ecx

; 876  : 	PlayerID sender = rpcParams->sender;

	mov	eax, DWORD PTR _rpcParams$[ebp]
	add	eax, 8
	mov	ecx, DWORD PTR [eax]
	mov	DWORD PTR _sender$[ebp], ecx
	mov	dx, WORD PTR [eax+4]
	mov	WORD PTR _sender$[ebp+4], dx

; 877  : 
; 878  : 	byte byteObjectID;
; 879  : 	RakNet::BitStream bsData(Data,(iBitLength/8)+1,false);

	push	0
	mov	eax, DWORD PTR _iBitLength$[ebp]
	cdq
	and	edx, 7
	add	eax, edx
	sar	eax, 3
	add	eax, 1
	push	eax
	mov	eax, DWORD PTR _Data$[ebp]
	push	eax
	lea	ecx, DWORD PTR _bsData$[ebp]
	call	??0BitStream@RakNet@@QAE@PADI_N@Z	; RakNet::BitStream::BitStream
	mov	DWORD PTR __$EHRec$[ebp+8], 0

; 880  : 	bsData.Read(byteObjectID);

	lea	eax, DWORD PTR _byteObjectID$[ebp]
	push	eax
	lea	ecx, DWORD PTR _bsData$[ebp]
	call	??$Read@E@BitStream@RakNet@@QAE_NAAE@Z	; RakNet::BitStream::Read<unsigned char>

; 881  : 
; 882  : 	CObjectPool* pObjectPool =	pNetGame->GetObjectPool();

	mov	ecx, DWORD PTR ?pNetGame@@3PAVCNetGame@@A ; pNetGame
	call	?GetObjectPool@CNetGame@@QAEPAVCObjectPool@@XZ ; CNetGame::GetObjectPool
	mov	DWORD PTR _pObjectPool$[ebp], eax

; 883  : 	if (pObjectPool->GetAt(byteObjectID))

	movzx	eax, BYTE PTR _byteObjectID$[ebp]
	push	eax
	mov	ecx, DWORD PTR _pObjectPool$[ebp]
	call	?GetAt@CObjectPool@@QAEPAVCObject@@E@Z	; CObjectPool::GetAt
	test	eax, eax
	je	SHORT $LN1@ScrDestroy

; 884  : 	{
; 885  : 		pObjectPool->Delete(byteObjectID);

	movzx	eax, BYTE PTR _byteObjectID$[ebp]
	push	eax
	mov	ecx, DWORD PTR _pObjectPool$[ebp]
	call	?Delete@CObjectPool@@QAEHE@Z		; CObjectPool::Delete
$LN1@ScrDestroy:

; 886  : 	}
; 887  : }

	mov	DWORD PTR __$EHRec$[ebp+8], -1
	lea	ecx, DWORD PTR _bsData$[ebp]
	call	??1BitStream@RakNet@@QAE@XZ		; RakNet::BitStream::~BitStream
	push	edx
	mov	ecx, ebp
	push	eax
	lea	edx, DWORD PTR $LN10@ScrDestroy
	call	@_RTC_CheckStackVars@8
	pop	eax
	pop	edx
	mov	ecx, DWORD PTR __$EHRec$[ebp]
	mov	DWORD PTR fs:0, ecx
	pop	ecx
	pop	edi
	pop	esi
	pop	ebx
	mov	ecx, DWORD PTR __$ArrayPad$[ebp]
	xor	ecx, ebp
	call	@__security_check_cookie@4
	add	esp, 556				; 0000022cH
	cmp	ebp, esp
	call	__RTC_CheckEsp
	mov	esp, ebp
	pop	ebp
	ret	0
$LN10@ScrDestroy:
	DD	3
	DD	$LN9@ScrDestroy
$LN9@ScrDestroy:
	DD	-52					; ffffffccH
	DD	6
	DD	$LN5@ScrDestroy
	DD	-61					; ffffffc3H
	DD	1
	DD	$LN6@ScrDestroy
	DD	-348					; fffffea4H
	DD	273					; 00000111H
	DD	$LN7@ScrDestroy
$LN7@ScrDestroy:
	DB	98					; 00000062H
	DB	115					; 00000073H
	DB	68					; 00000044H
	DB	97					; 00000061H
	DB	116					; 00000074H
	DB	97					; 00000061H
	DB	0
$LN6@ScrDestroy:
	DB	98					; 00000062H
	DB	121					; 00000079H
	DB	116					; 00000074H
	DB	101					; 00000065H
	DB	79					; 0000004fH
	DB	98					; 00000062H
	DB	106					; 0000006aH
	DB	101					; 00000065H
	DB	99					; 00000063H
	DB	116					; 00000074H
	DB	73					; 00000049H
	DB	68					; 00000044H
	DB	0
$LN5@ScrDestroy:
	DB	115					; 00000073H
	DB	101					; 00000065H
	DB	110					; 0000006eH
	DB	100					; 00000064H
	DB	101					; 00000065H
	DB	114					; 00000072H
	DB	0
_TEXT	ENDS
;	COMDAT text$x
text$x	SEGMENT
__unwindfunclet$?ScrDestroyObject@@YAXPAURPCParameters@@@Z$0:
	lea	ecx, DWORD PTR _bsData$[ebp]
	jmp	??1BitStream@RakNet@@QAE@XZ		; RakNet::BitStream::~BitStream
__ehhandler$?ScrDestroyObject@@YAXPAURPCParameters@@@Z:
	mov	edx, DWORD PTR [esp+8]
	lea	eax, DWORD PTR [edx+12]
	mov	ecx, DWORD PTR [edx-560]
	xor	ecx, eax
	call	@__security_check_cookie@4
	mov	ecx, DWORD PTR [edx-4]
	xor	ecx, eax
	call	@__security_check_cookie@4
	mov	eax, OFFSET __ehfuncinfo$?ScrDestroyObject@@YAXPAURPCParameters@@@Z
	jmp	___CxxFrameHandler3
text$x	ENDS
?ScrDestroyObject@@YAXPAURPCParameters@@@Z ENDP		; ScrDestroyObject
; Function compile flags: /Odtp /RTCsu /ZI
; File z:\sampsrc\02xu1\saco\net\scriptrpc.cpp
;	COMDAT ?ScrSetObjectRotation@@YAXPAURPCParameters@@@Z
_TEXT	SEGMENT
_pObject$ = -408					; size = 4
_pObjectPool$ = -396					; size = 4
_bsData$ = -384						; size = 273
_fZ$ = -100						; size = 4
_fY$ = -88						; size = 4
_fX$ = -76						; size = 4
_byteObjectID$ = -61					; size = 1
_sender$ = -52						; size = 6
_iBitLength$ = -36					; size = 4
_Data$ = -24						; size = 4
__$ArrayPad$ = -16					; size = 4
__$EHRec$ = -12						; size = 12
_rpcParams$ = 8						; size = 4
?ScrSetObjectRotation@@YAXPAURPCParameters@@@Z PROC	; ScrSetObjectRotation, COMDAT

; 849  : {

	push	ebp
	mov	ebp, esp
	push	-1
	push	__ehhandler$?ScrSetObjectRotation@@YAXPAURPCParameters@@@Z
	mov	eax, DWORD PTR fs:0
	push	eax
	sub	esp, 592				; 00000250H
	push	ebx
	push	esi
	push	edi
	lea	edi, DWORD PTR [ebp-604]
	mov	ecx, 148				; 00000094H
	mov	eax, -858993460				; ccccccccH
	rep stosd
	mov	eax, DWORD PTR ___security_cookie
	xor	eax, ebp
	mov	DWORD PTR __$ArrayPad$[ebp], eax
	push	eax
	lea	eax, DWORD PTR __$EHRec$[ebp]
	mov	DWORD PTR fs:0, eax

; 850  : 	PCHAR Data = reinterpret_cast<PCHAR>(rpcParams->input);

	mov	eax, DWORD PTR _rpcParams$[ebp]
	mov	ecx, DWORD PTR [eax]
	mov	DWORD PTR _Data$[ebp], ecx

; 851  : 	int iBitLength = rpcParams->numberOfBitsOfData;

	mov	eax, DWORD PTR _rpcParams$[ebp]
	mov	ecx, DWORD PTR [eax+4]
	mov	DWORD PTR _iBitLength$[ebp], ecx

; 852  : 	PlayerID sender = rpcParams->sender;

	mov	eax, DWORD PTR _rpcParams$[ebp]
	add	eax, 8
	mov	ecx, DWORD PTR [eax]
	mov	DWORD PTR _sender$[ebp], ecx
	mov	dx, WORD PTR [eax+4]
	mov	WORD PTR _sender$[ebp+4], dx

; 853  : 
; 854  : 	byte byteObjectID;
; 855  : 	float fX, fY, fZ;
; 856  : 	RakNet::BitStream bsData(Data,(iBitLength/8)+1,false);

	push	0
	mov	eax, DWORD PTR _iBitLength$[ebp]
	cdq
	and	edx, 7
	add	eax, edx
	sar	eax, 3
	add	eax, 1
	push	eax
	mov	eax, DWORD PTR _Data$[ebp]
	push	eax
	lea	ecx, DWORD PTR _bsData$[ebp]
	call	??0BitStream@RakNet@@QAE@PADI_N@Z	; RakNet::BitStream::BitStream
	mov	DWORD PTR __$EHRec$[ebp+8], 0

; 857  : 	bsData.Read(byteObjectID);

	lea	eax, DWORD PTR _byteObjectID$[ebp]
	push	eax
	lea	ecx, DWORD PTR _bsData$[ebp]
	call	??$Read@E@BitStream@RakNet@@QAE_NAAE@Z	; RakNet::BitStream::Read<unsigned char>

; 858  : 	bsData.Read(fX);

	lea	eax, DWORD PTR _fX$[ebp]
	push	eax
	lea	ecx, DWORD PTR _bsData$[ebp]
	call	??$Read@M@BitStream@RakNet@@QAE_NAAM@Z	; RakNet::BitStream::Read<float>

; 859  : 	bsData.Read(fY);

	lea	eax, DWORD PTR _fY$[ebp]
	push	eax
	lea	ecx, DWORD PTR _bsData$[ebp]
	call	??$Read@M@BitStream@RakNet@@QAE_NAAM@Z	; RakNet::BitStream::Read<float>

; 860  : 	bsData.Read(fZ);

	lea	eax, DWORD PTR _fZ$[ebp]
	push	eax
	lea	ecx, DWORD PTR _bsData$[ebp]
	call	??$Read@M@BitStream@RakNet@@QAE_NAAM@Z	; RakNet::BitStream::Read<float>

; 861  : 
; 862  : 	CObjectPool*	pObjectPool =	pNetGame->GetObjectPool();

	mov	ecx, DWORD PTR ?pNetGame@@3PAVCNetGame@@A ; pNetGame
	call	?GetObjectPool@CNetGame@@QAEPAVCObjectPool@@XZ ; CNetGame::GetObjectPool
	mov	DWORD PTR _pObjectPool$[ebp], eax

; 863  : 	CObject*		pObject		=	pObjectPool->GetAt(byteObjectID);

	movzx	eax, BYTE PTR _byteObjectID$[ebp]
	push	eax
	mov	ecx, DWORD PTR _pObjectPool$[ebp]
	call	?GetAt@CObjectPool@@QAEPAVCObject@@E@Z	; CObjectPool::GetAt
	mov	DWORD PTR _pObject$[ebp], eax

; 864  : 	if (pObject)

	cmp	DWORD PTR _pObject$[ebp], 0
	je	SHORT $LN1@ScrSetObje

; 865  : 	{
; 866  : 		pObject->InstantRotate(fX, fY, fZ);

	push	ecx
	movss	xmm0, DWORD PTR _fZ$[ebp]
	movss	DWORD PTR [esp], xmm0
	push	ecx
	movss	xmm0, DWORD PTR _fY$[ebp]
	movss	DWORD PTR [esp], xmm0
	push	ecx
	movss	xmm0, DWORD PTR _fX$[ebp]
	movss	DWORD PTR [esp], xmm0
	mov	ecx, DWORD PTR _pObject$[ebp]
	call	?InstantRotate@CObject@@QAEXMMM@Z	; CObject::InstantRotate
$LN1@ScrSetObje:

; 867  : 	}
; 868  : }

	mov	DWORD PTR __$EHRec$[ebp+8], -1
	lea	ecx, DWORD PTR _bsData$[ebp]
	call	??1BitStream@RakNet@@QAE@XZ		; RakNet::BitStream::~BitStream
	push	edx
	mov	ecx, ebp
	push	eax
	lea	edx, DWORD PTR $LN13@ScrSetObje
	call	@_RTC_CheckStackVars@8
	pop	eax
	pop	edx
	mov	ecx, DWORD PTR __$EHRec$[ebp]
	mov	DWORD PTR fs:0, ecx
	pop	ecx
	pop	edi
	pop	esi
	pop	ebx
	mov	ecx, DWORD PTR __$ArrayPad$[ebp]
	xor	ecx, ebp
	call	@__security_check_cookie@4
	add	esp, 604				; 0000025cH
	cmp	ebp, esp
	call	__RTC_CheckEsp
	mov	esp, ebp
	pop	ebp
	ret	0
$LN13@ScrSetObje:
	DD	6
	DD	$LN12@ScrSetObje
$LN12@ScrSetObje:
	DD	-52					; ffffffccH
	DD	6
	DD	$LN5@ScrSetObje
	DD	-61					; ffffffc3H
	DD	1
	DD	$LN6@ScrSetObje
	DD	-76					; ffffffb4H
	DD	4
	DD	$LN7@ScrSetObje
	DD	-88					; ffffffa8H
	DD	4
	DD	$LN8@ScrSetObje
	DD	-100					; ffffff9cH
	DD	4
	DD	$LN9@ScrSetObje
	DD	-384					; fffffe80H
	DD	273					; 00000111H
	DD	$LN10@ScrSetObje
$LN10@ScrSetObje:
	DB	98					; 00000062H
	DB	115					; 00000073H
	DB	68					; 00000044H
	DB	97					; 00000061H
	DB	116					; 00000074H
	DB	97					; 00000061H
	DB	0
$LN9@ScrSetObje:
	DB	102					; 00000066H
	DB	90					; 0000005aH
	DB	0
$LN8@ScrSetObje:
	DB	102					; 00000066H
	DB	89					; 00000059H
	DB	0
$LN7@ScrSetObje:
	DB	102					; 00000066H
	DB	88					; 00000058H
	DB	0
$LN6@ScrSetObje:
	DB	98					; 00000062H
	DB	121					; 00000079H
	DB	116					; 00000074H
	DB	101					; 00000065H
	DB	79					; 0000004fH
	DB	98					; 00000062H
	DB	106					; 0000006aH
	DB	101					; 00000065H
	DB	99					; 00000063H
	DB	116					; 00000074H
	DB	73					; 00000049H
	DB	68					; 00000044H
	DB	0
$LN5@ScrSetObje:
	DB	115					; 00000073H
	DB	101					; 00000065H
	DB	110					; 0000006eH
	DB	100					; 00000064H
	DB	101					; 00000065H
	DB	114					; 00000072H
	DB	0
_TEXT	ENDS
;	COMDAT text$x
text$x	SEGMENT
__unwindfunclet$?ScrSetObjectRotation@@YAXPAURPCParameters@@@Z$0:
	lea	ecx, DWORD PTR _bsData$[ebp]
	jmp	??1BitStream@RakNet@@QAE@XZ		; RakNet::BitStream::~BitStream
__ehhandler$?ScrSetObjectRotation@@YAXPAURPCParameters@@@Z:
	mov	edx, DWORD PTR [esp+8]
	lea	eax, DWORD PTR [edx+12]
	mov	ecx, DWORD PTR [edx-608]
	xor	ecx, eax
	call	@__security_check_cookie@4
	mov	ecx, DWORD PTR [edx-4]
	xor	ecx, eax
	call	@__security_check_cookie@4
	mov	eax, OFFSET __ehfuncinfo$?ScrSetObjectRotation@@YAXPAURPCParameters@@@Z
	jmp	___CxxFrameHandler3
text$x	ENDS
?ScrSetObjectRotation@@YAXPAURPCParameters@@@Z ENDP	; ScrSetObjectRotation
; Function compile flags: /Odtp /RTCsu /ZI
; File z:\sampsrc\02xu1\saco\net\scriptrpc.cpp
;	COMDAT ?ScrSetObjectPos@@YAXPAURPCParameters@@@Z
_TEXT	SEGMENT
_pObject$ = -420					; size = 4
_pObjectPool$ = -408					; size = 4
_bsData$ = -396						; size = 273
_fRotation$ = -112					; size = 4
_fZ$ = -100						; size = 4
_fY$ = -88						; size = 4
_fX$ = -76						; size = 4
_byteObjectID$ = -61					; size = 1
_sender$ = -52						; size = 6
_iBitLength$ = -36					; size = 4
_Data$ = -24						; size = 4
__$ArrayPad$ = -16					; size = 4
__$EHRec$ = -12						; size = 12
_rpcParams$ = 8						; size = 4
?ScrSetObjectPos@@YAXPAURPCParameters@@@Z PROC		; ScrSetObjectPos, COMDAT

; 824  : {

	push	ebp
	mov	ebp, esp
	push	-1
	push	__ehhandler$?ScrSetObjectPos@@YAXPAURPCParameters@@@Z
	mov	eax, DWORD PTR fs:0
	push	eax
	sub	esp, 604				; 0000025cH
	push	ebx
	push	esi
	push	edi
	lea	edi, DWORD PTR [ebp-616]
	mov	ecx, 151				; 00000097H
	mov	eax, -858993460				; ccccccccH
	rep stosd
	mov	eax, DWORD PTR ___security_cookie
	xor	eax, ebp
	mov	DWORD PTR __$ArrayPad$[ebp], eax
	push	eax
	lea	eax, DWORD PTR __$EHRec$[ebp]
	mov	DWORD PTR fs:0, eax

; 825  : 	PCHAR Data = reinterpret_cast<PCHAR>(rpcParams->input);

	mov	eax, DWORD PTR _rpcParams$[ebp]
	mov	ecx, DWORD PTR [eax]
	mov	DWORD PTR _Data$[ebp], ecx

; 826  : 	int iBitLength = rpcParams->numberOfBitsOfData;

	mov	eax, DWORD PTR _rpcParams$[ebp]
	mov	ecx, DWORD PTR [eax+4]
	mov	DWORD PTR _iBitLength$[ebp], ecx

; 827  : 	PlayerID sender = rpcParams->sender;

	mov	eax, DWORD PTR _rpcParams$[ebp]
	add	eax, 8
	mov	ecx, DWORD PTR [eax]
	mov	DWORD PTR _sender$[ebp], ecx
	mov	dx, WORD PTR [eax+4]
	mov	WORD PTR _sender$[ebp+4], dx

; 828  : 
; 829  : 	byte byteObjectID;
; 830  : 	float fX, fY, fZ, fRotation;
; 831  : 	RakNet::BitStream bsData(Data,(iBitLength/8)+1,false);

	push	0
	mov	eax, DWORD PTR _iBitLength$[ebp]
	cdq
	and	edx, 7
	add	eax, edx
	sar	eax, 3
	add	eax, 1
	push	eax
	mov	eax, DWORD PTR _Data$[ebp]
	push	eax
	lea	ecx, DWORD PTR _bsData$[ebp]
	call	??0BitStream@RakNet@@QAE@PADI_N@Z	; RakNet::BitStream::BitStream
	mov	DWORD PTR __$EHRec$[ebp+8], 0

; 832  : 	bsData.Read(byteObjectID);

	lea	eax, DWORD PTR _byteObjectID$[ebp]
	push	eax
	lea	ecx, DWORD PTR _bsData$[ebp]
	call	??$Read@E@BitStream@RakNet@@QAE_NAAE@Z	; RakNet::BitStream::Read<unsigned char>

; 833  : 	bsData.Read(fX);

	lea	eax, DWORD PTR _fX$[ebp]
	push	eax
	lea	ecx, DWORD PTR _bsData$[ebp]
	call	??$Read@M@BitStream@RakNet@@QAE_NAAM@Z	; RakNet::BitStream::Read<float>

; 834  : 	bsData.Read(fY);

	lea	eax, DWORD PTR _fY$[ebp]
	push	eax
	lea	ecx, DWORD PTR _bsData$[ebp]
	call	??$Read@M@BitStream@RakNet@@QAE_NAAM@Z	; RakNet::BitStream::Read<float>

; 835  : 	bsData.Read(fZ);

	lea	eax, DWORD PTR _fZ$[ebp]
	push	eax
	lea	ecx, DWORD PTR _bsData$[ebp]
	call	??$Read@M@BitStream@RakNet@@QAE_NAAM@Z	; RakNet::BitStream::Read<float>

; 836  : 	bsData.Read(fRotation);

	lea	eax, DWORD PTR _fRotation$[ebp]
	push	eax
	lea	ecx, DWORD PTR _bsData$[ebp]
	call	??$Read@M@BitStream@RakNet@@QAE_NAAM@Z	; RakNet::BitStream::Read<float>

; 837  : 
; 838  : 	CObjectPool*	pObjectPool =	pNetGame->GetObjectPool();

	mov	ecx, DWORD PTR ?pNetGame@@3PAVCNetGame@@A ; pNetGame
	call	?GetObjectPool@CNetGame@@QAEPAVCObjectPool@@XZ ; CNetGame::GetObjectPool
	mov	DWORD PTR _pObjectPool$[ebp], eax

; 839  : 	CObject*		pObject		=	pObjectPool->GetAt(byteObjectID);

	movzx	eax, BYTE PTR _byteObjectID$[ebp]
	push	eax
	mov	ecx, DWORD PTR _pObjectPool$[ebp]
	call	?GetAt@CObjectPool@@QAEPAVCObject@@E@Z	; CObjectPool::GetAt
	mov	DWORD PTR _pObject$[ebp], eax

; 840  : 	if (pObject)

	cmp	DWORD PTR _pObject$[ebp], 0
	je	SHORT $LN1@ScrSetObje

; 841  : 	{
; 842  : 		pObject->TeleportTo(fX, fY, fZ);

	push	ecx
	movss	xmm0, DWORD PTR _fZ$[ebp]
	movss	DWORD PTR [esp], xmm0
	push	ecx
	movss	xmm0, DWORD PTR _fY$[ebp]
	movss	DWORD PTR [esp], xmm0
	push	ecx
	movss	xmm0, DWORD PTR _fX$[ebp]
	movss	DWORD PTR [esp], xmm0
	mov	ecx, DWORD PTR _pObject$[ebp]
	call	?TeleportTo@CEntity@@QAEXMMM@Z		; CEntity::TeleportTo
$LN1@ScrSetObje:

; 843  : 	}
; 844  : }

	mov	DWORD PTR __$EHRec$[ebp+8], -1
	lea	ecx, DWORD PTR _bsData$[ebp]
	call	??1BitStream@RakNet@@QAE@XZ		; RakNet::BitStream::~BitStream
	push	edx
	mov	ecx, ebp
	push	eax
	lea	edx, DWORD PTR $LN14@ScrSetObje
	call	@_RTC_CheckStackVars@8
	pop	eax
	pop	edx
	mov	ecx, DWORD PTR __$EHRec$[ebp]
	mov	DWORD PTR fs:0, ecx
	pop	ecx
	pop	edi
	pop	esi
	pop	ebx
	mov	ecx, DWORD PTR __$ArrayPad$[ebp]
	xor	ecx, ebp
	call	@__security_check_cookie@4
	add	esp, 616				; 00000268H
	cmp	ebp, esp
	call	__RTC_CheckEsp
	mov	esp, ebp
	pop	ebp
	ret	0
	npad	1
$LN14@ScrSetObje:
	DD	7
	DD	$LN13@ScrSetObje
$LN13@ScrSetObje:
	DD	-52					; ffffffccH
	DD	6
	DD	$LN5@ScrSetObje
	DD	-61					; ffffffc3H
	DD	1
	DD	$LN6@ScrSetObje
	DD	-76					; ffffffb4H
	DD	4
	DD	$LN7@ScrSetObje
	DD	-88					; ffffffa8H
	DD	4
	DD	$LN8@ScrSetObje
	DD	-100					; ffffff9cH
	DD	4
	DD	$LN9@ScrSetObje
	DD	-112					; ffffff90H
	DD	4
	DD	$LN10@ScrSetObje
	DD	-396					; fffffe74H
	DD	273					; 00000111H
	DD	$LN11@ScrSetObje
$LN11@ScrSetObje:
	DB	98					; 00000062H
	DB	115					; 00000073H
	DB	68					; 00000044H
	DB	97					; 00000061H
	DB	116					; 00000074H
	DB	97					; 00000061H
	DB	0
$LN10@ScrSetObje:
	DB	102					; 00000066H
	DB	82					; 00000052H
	DB	111					; 0000006fH
	DB	116					; 00000074H
	DB	97					; 00000061H
	DB	116					; 00000074H
	DB	105					; 00000069H
	DB	111					; 0000006fH
	DB	110					; 0000006eH
	DB	0
$LN9@ScrSetObje:
	DB	102					; 00000066H
	DB	90					; 0000005aH
	DB	0
$LN8@ScrSetObje:
	DB	102					; 00000066H
	DB	89					; 00000059H
	DB	0
$LN7@ScrSetObje:
	DB	102					; 00000066H
	DB	88					; 00000058H
	DB	0
$LN6@ScrSetObje:
	DB	98					; 00000062H
	DB	121					; 00000079H
	DB	116					; 00000074H
	DB	101					; 00000065H
	DB	79					; 0000004fH
	DB	98					; 00000062H
	DB	106					; 0000006aH
	DB	101					; 00000065H
	DB	99					; 00000063H
	DB	116					; 00000074H
	DB	73					; 00000049H
	DB	68					; 00000044H
	DB	0
$LN5@ScrSetObje:
	DB	115					; 00000073H
	DB	101					; 00000065H
	DB	110					; 0000006eH
	DB	100					; 00000064H
	DB	101					; 00000065H
	DB	114					; 00000072H
	DB	0
_TEXT	ENDS
;	COMDAT text$x
text$x	SEGMENT
__unwindfunclet$?ScrSetObjectPos@@YAXPAURPCParameters@@@Z$0:
	lea	ecx, DWORD PTR _bsData$[ebp]
	jmp	??1BitStream@RakNet@@QAE@XZ		; RakNet::BitStream::~BitStream
__ehhandler$?ScrSetObjectPos@@YAXPAURPCParameters@@@Z:
	mov	edx, DWORD PTR [esp+8]
	lea	eax, DWORD PTR [edx+12]
	mov	ecx, DWORD PTR [edx-620]
	xor	ecx, eax
	call	@__security_check_cookie@4
	mov	ecx, DWORD PTR [edx-4]
	xor	ecx, eax
	call	@__security_check_cookie@4
	mov	eax, OFFSET __ehfuncinfo$?ScrSetObjectPos@@YAXPAURPCParameters@@@Z
	jmp	___CxxFrameHandler3
text$x	ENDS
?ScrSetObjectPos@@YAXPAURPCParameters@@@Z ENDP		; ScrSetObjectPos
; Function compile flags: /Odtp /RTCsu /ZI
; File z:\sampsrc\02xu1\saco\net\scriptrpc.cpp
;	COMDAT ?ScrCreateObject@@YAXPAURPCParameters@@@Z
_TEXT	SEGMENT
_pObjectPool$ = -412					; size = 4
_bsData$ = -400						; size = 273
_vecRot$ = -116						; size = 12
_vecPos$ = -96						; size = 12
_iModel$ = -76						; size = 4
_byteObjectID$ = -61					; size = 1
_sender$ = -52						; size = 6
_iBitLength$ = -36					; size = 4
_Data$ = -24						; size = 4
__$ArrayPad$ = -16					; size = 4
__$EHRec$ = -12						; size = 12
_rpcParams$ = 8						; size = 4
?ScrCreateObject@@YAXPAURPCParameters@@@Z PROC		; ScrCreateObject, COMDAT

; 797  : {

	push	ebp
	mov	ebp, esp
	push	-1
	push	__ehhandler$?ScrCreateObject@@YAXPAURPCParameters@@@Z
	mov	eax, DWORD PTR fs:0
	push	eax
	sub	esp, 596				; 00000254H
	push	ebx
	push	esi
	push	edi
	lea	edi, DWORD PTR [ebp-608]
	mov	ecx, 149				; 00000095H
	mov	eax, -858993460				; ccccccccH
	rep stosd
	mov	eax, DWORD PTR ___security_cookie
	xor	eax, ebp
	mov	DWORD PTR __$ArrayPad$[ebp], eax
	push	eax
	lea	eax, DWORD PTR __$EHRec$[ebp]
	mov	DWORD PTR fs:0, eax

; 798  : 	PCHAR Data = reinterpret_cast<PCHAR>(rpcParams->input);

	mov	eax, DWORD PTR _rpcParams$[ebp]
	mov	ecx, DWORD PTR [eax]
	mov	DWORD PTR _Data$[ebp], ecx

; 799  : 	int iBitLength = rpcParams->numberOfBitsOfData;

	mov	eax, DWORD PTR _rpcParams$[ebp]
	mov	ecx, DWORD PTR [eax+4]
	mov	DWORD PTR _iBitLength$[ebp], ecx

; 800  : 	PlayerID sender = rpcParams->sender;

	mov	eax, DWORD PTR _rpcParams$[ebp]
	add	eax, 8
	mov	ecx, DWORD PTR [eax]
	mov	DWORD PTR _sender$[ebp], ecx
	mov	dx, WORD PTR [eax+4]
	mov	WORD PTR _sender$[ebp+4], dx

; 801  : 
; 802  : 	byte byteObjectID;
; 803  : 	int iModel;
; 804  : 	VECTOR vecPos, vecRot;
; 805  : 	RakNet::BitStream bsData(Data,(iBitLength/8)+1,false);

	push	0
	mov	eax, DWORD PTR _iBitLength$[ebp]
	cdq
	and	edx, 7
	add	eax, edx
	sar	eax, 3
	add	eax, 1
	push	eax
	mov	eax, DWORD PTR _Data$[ebp]
	push	eax
	lea	ecx, DWORD PTR _bsData$[ebp]
	call	??0BitStream@RakNet@@QAE@PADI_N@Z	; RakNet::BitStream::BitStream
	mov	DWORD PTR __$EHRec$[ebp+8], 0

; 806  : 	bsData.Read(byteObjectID);

	lea	eax, DWORD PTR _byteObjectID$[ebp]
	push	eax
	lea	ecx, DWORD PTR _bsData$[ebp]
	call	??$Read@E@BitStream@RakNet@@QAE_NAAE@Z	; RakNet::BitStream::Read<unsigned char>

; 807  : 	bsData.Read(iModel);

	lea	eax, DWORD PTR _iModel$[ebp]
	push	eax
	lea	ecx, DWORD PTR _bsData$[ebp]
	call	??$Read@H@BitStream@RakNet@@QAE_NAAH@Z	; RakNet::BitStream::Read<int>

; 808  : 
; 809  : 	bsData.Read(vecPos.X);

	lea	eax, DWORD PTR _vecPos$[ebp]
	push	eax
	lea	ecx, DWORD PTR _bsData$[ebp]
	call	??$Read@M@BitStream@RakNet@@QAE_NAAM@Z	; RakNet::BitStream::Read<float>

; 810  : 	bsData.Read(vecPos.Y);

	lea	eax, DWORD PTR _vecPos$[ebp+4]
	push	eax
	lea	ecx, DWORD PTR _bsData$[ebp]
	call	??$Read@M@BitStream@RakNet@@QAE_NAAM@Z	; RakNet::BitStream::Read<float>

; 811  : 	bsData.Read(vecPos.Z);

	lea	eax, DWORD PTR _vecPos$[ebp+8]
	push	eax
	lea	ecx, DWORD PTR _bsData$[ebp]
	call	??$Read@M@BitStream@RakNet@@QAE_NAAM@Z	; RakNet::BitStream::Read<float>

; 812  : 
; 813  : 	bsData.Read(vecRot.X);

	lea	eax, DWORD PTR _vecRot$[ebp]
	push	eax
	lea	ecx, DWORD PTR _bsData$[ebp]
	call	??$Read@M@BitStream@RakNet@@QAE_NAAM@Z	; RakNet::BitStream::Read<float>

; 814  : 	bsData.Read(vecRot.Y);

	lea	eax, DWORD PTR _vecRot$[ebp+4]
	push	eax
	lea	ecx, DWORD PTR _bsData$[ebp]
	call	??$Read@M@BitStream@RakNet@@QAE_NAAM@Z	; RakNet::BitStream::Read<float>

; 815  : 	bsData.Read(vecRot.Z);

	lea	eax, DWORD PTR _vecRot$[ebp+8]
	push	eax
	lea	ecx, DWORD PTR _bsData$[ebp]
	call	??$Read@M@BitStream@RakNet@@QAE_NAAM@Z	; RakNet::BitStream::Read<float>

; 816  : 
; 817  : 	CObjectPool* pObjectPool =	pNetGame->GetObjectPool();

	mov	ecx, DWORD PTR ?pNetGame@@3PAVCNetGame@@A ; pNetGame
	call	?GetObjectPool@CNetGame@@QAEPAVCObjectPool@@XZ ; CNetGame::GetObjectPool
	mov	DWORD PTR _pObjectPool$[ebp], eax

; 818  : 	pObjectPool->New(byteObjectID, iModel, vecPos, vecRot);

	sub	esp, 12					; 0000000cH
	mov	eax, esp
	mov	ecx, DWORD PTR _vecRot$[ebp]
	mov	DWORD PTR [eax], ecx
	mov	edx, DWORD PTR _vecRot$[ebp+4]
	mov	DWORD PTR [eax+4], edx
	mov	ecx, DWORD PTR _vecRot$[ebp+8]
	mov	DWORD PTR [eax+8], ecx
	sub	esp, 12					; 0000000cH
	mov	edx, esp
	mov	eax, DWORD PTR _vecPos$[ebp]
	mov	DWORD PTR [edx], eax
	mov	ecx, DWORD PTR _vecPos$[ebp+4]
	mov	DWORD PTR [edx+4], ecx
	mov	eax, DWORD PTR _vecPos$[ebp+8]
	mov	DWORD PTR [edx+8], eax
	mov	ecx, DWORD PTR _iModel$[ebp]
	push	ecx
	movzx	edx, BYTE PTR _byteObjectID$[ebp]
	push	edx
	mov	ecx, DWORD PTR _pObjectPool$[ebp]
	call	?New@CObjectPool@@QAEHEHU_VECTOR@@0@Z	; CObjectPool::New

; 819  : }

	mov	DWORD PTR __$EHRec$[ebp+8], -1
	lea	ecx, DWORD PTR _bsData$[ebp]
	call	??1BitStream@RakNet@@QAE@XZ		; RakNet::BitStream::~BitStream
	push	edx
	mov	ecx, ebp
	push	eax
	lea	edx, DWORD PTR $LN12@ScrCreateO
	call	@_RTC_CheckStackVars@8
	pop	eax
	pop	edx
	mov	ecx, DWORD PTR __$EHRec$[ebp]
	mov	DWORD PTR fs:0, ecx
	pop	ecx
	pop	edi
	pop	esi
	pop	ebx
	mov	ecx, DWORD PTR __$ArrayPad$[ebp]
	xor	ecx, ebp
	call	@__security_check_cookie@4
	add	esp, 608				; 00000260H
	cmp	ebp, esp
	call	__RTC_CheckEsp
	mov	esp, ebp
	pop	ebp
	ret	0
	npad	3
$LN12@ScrCreateO:
	DD	6
	DD	$LN11@ScrCreateO
$LN11@ScrCreateO:
	DD	-52					; ffffffccH
	DD	6
	DD	$LN4@ScrCreateO
	DD	-61					; ffffffc3H
	DD	1
	DD	$LN5@ScrCreateO
	DD	-76					; ffffffb4H
	DD	4
	DD	$LN6@ScrCreateO
	DD	-96					; ffffffa0H
	DD	12					; 0000000cH
	DD	$LN7@ScrCreateO
	DD	-116					; ffffff8cH
	DD	12					; 0000000cH
	DD	$LN8@ScrCreateO
	DD	-400					; fffffe70H
	DD	273					; 00000111H
	DD	$LN9@ScrCreateO
$LN9@ScrCreateO:
	DB	98					; 00000062H
	DB	115					; 00000073H
	DB	68					; 00000044H
	DB	97					; 00000061H
	DB	116					; 00000074H
	DB	97					; 00000061H
	DB	0
$LN8@ScrCreateO:
	DB	118					; 00000076H
	DB	101					; 00000065H
	DB	99					; 00000063H
	DB	82					; 00000052H
	DB	111					; 0000006fH
	DB	116					; 00000074H
	DB	0
$LN7@ScrCreateO:
	DB	118					; 00000076H
	DB	101					; 00000065H
	DB	99					; 00000063H
	DB	80					; 00000050H
	DB	111					; 0000006fH
	DB	115					; 00000073H
	DB	0
$LN6@ScrCreateO:
	DB	105					; 00000069H
	DB	77					; 0000004dH
	DB	111					; 0000006fH
	DB	100					; 00000064H
	DB	101					; 00000065H
	DB	108					; 0000006cH
	DB	0
$LN5@ScrCreateO:
	DB	98					; 00000062H
	DB	121					; 00000079H
	DB	116					; 00000074H
	DB	101					; 00000065H
	DB	79					; 0000004fH
	DB	98					; 00000062H
	DB	106					; 0000006aH
	DB	101					; 00000065H
	DB	99					; 00000063H
	DB	116					; 00000074H
	DB	73					; 00000049H
	DB	68					; 00000044H
	DB	0
$LN4@ScrCreateO:
	DB	115					; 00000073H
	DB	101					; 00000065H
	DB	110					; 0000006eH
	DB	100					; 00000064H
	DB	101					; 00000065H
	DB	114					; 00000072H
	DB	0
_TEXT	ENDS
;	COMDAT text$x
text$x	SEGMENT
__unwindfunclet$?ScrCreateObject@@YAXPAURPCParameters@@@Z$0:
	lea	ecx, DWORD PTR _bsData$[ebp]
	jmp	??1BitStream@RakNet@@QAE@XZ		; RakNet::BitStream::~BitStream
__ehhandler$?ScrCreateObject@@YAXPAURPCParameters@@@Z:
	mov	edx, DWORD PTR [esp+8]
	lea	eax, DWORD PTR [edx+12]
	mov	ecx, DWORD PTR [edx-612]
	xor	ecx, eax
	call	@__security_check_cookie@4
	mov	ecx, DWORD PTR [edx-4]
	xor	ecx, eax
	call	@__security_check_cookie@4
	mov	eax, OFFSET __ehfuncinfo$?ScrCreateObject@@YAXPAURPCParameters@@@Z
	jmp	___CxxFrameHandler3
text$x	ENDS
?ScrCreateObject@@YAXPAURPCParameters@@@Z ENDP		; ScrCreateObject
; Function compile flags: /Odtp /RTCsu /ZI
; File z:\sampsrc\02xu1\saco\net\scriptrpc.cpp
;	COMDAT ?ScrDetachTrailerFromVehicle@@YAXPAURPCParameters@@@Z
_TEXT	SEGMENT
_pVehicle$ = -360					; size = 4
_bsData$ = -348						; size = 273
_VehicleID$ = -64					; size = 2
_sender$ = -52						; size = 6
_iBitLength$ = -36					; size = 4
_Data$ = -24						; size = 4
__$ArrayPad$ = -16					; size = 4
__$EHRec$ = -12						; size = 12
_rpcParams$ = 8						; size = 4
?ScrDetachTrailerFromVehicle@@YAXPAURPCParameters@@@Z PROC ; ScrDetachTrailerFromVehicle, COMDAT

; 780  : {

	push	ebp
	mov	ebp, esp
	push	-1
	push	__ehhandler$?ScrDetachTrailerFromVehicle@@YAXPAURPCParameters@@@Z
	mov	eax, DWORD PTR fs:0
	push	eax
	sub	esp, 544				; 00000220H
	push	ebx
	push	esi
	push	edi
	lea	edi, DWORD PTR [ebp-556]
	mov	ecx, 136				; 00000088H
	mov	eax, -858993460				; ccccccccH
	rep stosd
	mov	eax, DWORD PTR ___security_cookie
	xor	eax, ebp
	mov	DWORD PTR __$ArrayPad$[ebp], eax
	push	eax
	lea	eax, DWORD PTR __$EHRec$[ebp]
	mov	DWORD PTR fs:0, eax

; 781  : 	PCHAR Data = reinterpret_cast<PCHAR>(rpcParams->input);

	mov	eax, DWORD PTR _rpcParams$[ebp]
	mov	ecx, DWORD PTR [eax]
	mov	DWORD PTR _Data$[ebp], ecx

; 782  : 	int iBitLength = rpcParams->numberOfBitsOfData;

	mov	eax, DWORD PTR _rpcParams$[ebp]
	mov	ecx, DWORD PTR [eax+4]
	mov	DWORD PTR _iBitLength$[ebp], ecx

; 783  : 	PlayerID sender = rpcParams->sender;

	mov	eax, DWORD PTR _rpcParams$[ebp]
	add	eax, 8
	mov	ecx, DWORD PTR [eax]
	mov	DWORD PTR _sender$[ebp], ecx
	mov	dx, WORD PTR [eax+4]
	mov	WORD PTR _sender$[ebp+4], dx

; 784  : 
; 785  : 	VEHICLEID VehicleID;
; 786  : 	RakNet::BitStream bsData(Data,(iBitLength/8)+1,false);

	push	0
	mov	eax, DWORD PTR _iBitLength$[ebp]
	cdq
	and	edx, 7
	add	eax, edx
	sar	eax, 3
	add	eax, 1
	push	eax
	mov	eax, DWORD PTR _Data$[ebp]
	push	eax
	lea	ecx, DWORD PTR _bsData$[ebp]
	call	??0BitStream@RakNet@@QAE@PADI_N@Z	; RakNet::BitStream::BitStream
	mov	DWORD PTR __$EHRec$[ebp+8], 0

; 787  : 	bsData.Read(VehicleID);

	lea	eax, DWORD PTR _VehicleID$[ebp]
	push	eax
	lea	ecx, DWORD PTR _bsData$[ebp]
	call	??$Read@G@BitStream@RakNet@@QAE_NAAG@Z	; RakNet::BitStream::Read<unsigned short>

; 788  : 	CVehicle* pVehicle = pNetGame->GetVehiclePool()->GetAt(VehicleID);

	movzx	eax, WORD PTR _VehicleID$[ebp]
	push	eax
	mov	ecx, DWORD PTR ?pNetGame@@3PAVCNetGame@@A ; pNetGame
	call	?GetVehiclePool@CNetGame@@QAEPAVCVehiclePool@@XZ ; CNetGame::GetVehiclePool
	mov	ecx, eax
	call	?GetAt@CVehiclePool@@QAEPAVCVehicle@@G@Z ; CVehiclePool::GetAt
	mov	DWORD PTR _pVehicle$[ebp], eax

; 789  : 
; 790  : 	pVehicle->DetachTrailer();

	mov	ecx, DWORD PTR _pVehicle$[ebp]
	call	?DetachTrailer@CVehicle@@QAEXXZ		; CVehicle::DetachTrailer

; 791  : 	pVehicle->SetTrailer(NULL);

	push	0
	mov	ecx, DWORD PTR _pVehicle$[ebp]
	call	?SetTrailer@CVehicle@@QAEXPAV1@@Z	; CVehicle::SetTrailer

; 792  : }

	mov	DWORD PTR __$EHRec$[ebp+8], -1
	lea	ecx, DWORD PTR _bsData$[ebp]
	call	??1BitStream@RakNet@@QAE@XZ		; RakNet::BitStream::~BitStream
	push	edx
	mov	ecx, ebp
	push	eax
	lea	edx, DWORD PTR $LN9@ScrDetachT
	call	@_RTC_CheckStackVars@8
	pop	eax
	pop	edx
	mov	ecx, DWORD PTR __$EHRec$[ebp]
	mov	DWORD PTR fs:0, ecx
	pop	ecx
	pop	edi
	pop	esi
	pop	ebx
	mov	ecx, DWORD PTR __$ArrayPad$[ebp]
	xor	ecx, ebp
	call	@__security_check_cookie@4
	add	esp, 556				; 0000022cH
	cmp	ebp, esp
	call	__RTC_CheckEsp
	mov	esp, ebp
	pop	ebp
	ret	0
$LN9@ScrDetachT:
	DD	3
	DD	$LN8@ScrDetachT
$LN8@ScrDetachT:
	DD	-52					; ffffffccH
	DD	6
	DD	$LN4@ScrDetachT
	DD	-64					; ffffffc0H
	DD	2
	DD	$LN5@ScrDetachT
	DD	-348					; fffffea4H
	DD	273					; 00000111H
	DD	$LN6@ScrDetachT
$LN6@ScrDetachT:
	DB	98					; 00000062H
	DB	115					; 00000073H
	DB	68					; 00000044H
	DB	97					; 00000061H
	DB	116					; 00000074H
	DB	97					; 00000061H
	DB	0
$LN5@ScrDetachT:
	DB	86					; 00000056H
	DB	101					; 00000065H
	DB	104					; 00000068H
	DB	105					; 00000069H
	DB	99					; 00000063H
	DB	108					; 0000006cH
	DB	101					; 00000065H
	DB	73					; 00000049H
	DB	68					; 00000044H
	DB	0
$LN4@ScrDetachT:
	DB	115					; 00000073H
	DB	101					; 00000065H
	DB	110					; 0000006eH
	DB	100					; 00000064H
	DB	101					; 00000065H
	DB	114					; 00000072H
	DB	0
_TEXT	ENDS
;	COMDAT text$x
text$x	SEGMENT
__unwindfunclet$?ScrDetachTrailerFromVehicle@@YAXPAURPCParameters@@@Z$0:
	lea	ecx, DWORD PTR _bsData$[ebp]
	jmp	??1BitStream@RakNet@@QAE@XZ		; RakNet::BitStream::~BitStream
__ehhandler$?ScrDetachTrailerFromVehicle@@YAXPAURPCParameters@@@Z:
	mov	edx, DWORD PTR [esp+8]
	lea	eax, DWORD PTR [edx+12]
	mov	ecx, DWORD PTR [edx-560]
	xor	ecx, eax
	call	@__security_check_cookie@4
	mov	ecx, DWORD PTR [edx-4]
	xor	ecx, eax
	call	@__security_check_cookie@4
	mov	eax, OFFSET __ehfuncinfo$?ScrDetachTrailerFromVehicle@@YAXPAURPCParameters@@@Z
	jmp	___CxxFrameHandler3
text$x	ENDS
?ScrDetachTrailerFromVehicle@@YAXPAURPCParameters@@@Z ENDP ; ScrDetachTrailerFromVehicle
; Function compile flags: /Odtp /RTCsu /ZI
; File z:\sampsrc\02xu1\saco\net\scriptrpc.cpp
;	COMDAT ?ScrAttachTrailerToVehicle@@YAXPAURPCParameters@@@Z
_TEXT	SEGMENT
_pVehicle$ = -384					; size = 4
_pTrailer$ = -372					; size = 4
_bsData$ = -360						; size = 273
_VehicleID$ = -76					; size = 2
_TrailerID$ = -64					; size = 2
_sender$ = -52						; size = 6
_iBitLength$ = -36					; size = 4
_Data$ = -24						; size = 4
__$ArrayPad$ = -16					; size = 4
__$EHRec$ = -12						; size = 12
_rpcParams$ = 8						; size = 4
?ScrAttachTrailerToVehicle@@YAXPAURPCParameters@@@Z PROC ; ScrAttachTrailerToVehicle, COMDAT

; 761  : {

	push	ebp
	mov	ebp, esp
	push	-1
	push	__ehhandler$?ScrAttachTrailerToVehicle@@YAXPAURPCParameters@@@Z
	mov	eax, DWORD PTR fs:0
	push	eax
	sub	esp, 568				; 00000238H
	push	ebx
	push	esi
	push	edi
	lea	edi, DWORD PTR [ebp-580]
	mov	ecx, 142				; 0000008eH
	mov	eax, -858993460				; ccccccccH
	rep stosd
	mov	eax, DWORD PTR ___security_cookie
	xor	eax, ebp
	mov	DWORD PTR __$ArrayPad$[ebp], eax
	push	eax
	lea	eax, DWORD PTR __$EHRec$[ebp]
	mov	DWORD PTR fs:0, eax

; 762  : 	PCHAR Data = reinterpret_cast<PCHAR>(rpcParams->input);

	mov	eax, DWORD PTR _rpcParams$[ebp]
	mov	ecx, DWORD PTR [eax]
	mov	DWORD PTR _Data$[ebp], ecx

; 763  : 	int iBitLength = rpcParams->numberOfBitsOfData;

	mov	eax, DWORD PTR _rpcParams$[ebp]
	mov	ecx, DWORD PTR [eax+4]
	mov	DWORD PTR _iBitLength$[ebp], ecx

; 764  : 	PlayerID sender = rpcParams->sender;

	mov	eax, DWORD PTR _rpcParams$[ebp]
	add	eax, 8
	mov	ecx, DWORD PTR [eax]
	mov	DWORD PTR _sender$[ebp], ecx
	mov	dx, WORD PTR [eax+4]
	mov	WORD PTR _sender$[ebp+4], dx

; 765  : 
; 766  : 	VEHICLEID TrailerID, VehicleID;
; 767  : 	RakNet::BitStream bsData(Data,(iBitLength/8)+1,false);

	push	0
	mov	eax, DWORD PTR _iBitLength$[ebp]
	cdq
	and	edx, 7
	add	eax, edx
	sar	eax, 3
	add	eax, 1
	push	eax
	mov	eax, DWORD PTR _Data$[ebp]
	push	eax
	lea	ecx, DWORD PTR _bsData$[ebp]
	call	??0BitStream@RakNet@@QAE@PADI_N@Z	; RakNet::BitStream::BitStream
	mov	DWORD PTR __$EHRec$[ebp+8], 0

; 768  : 	bsData.Read(TrailerID);

	lea	eax, DWORD PTR _TrailerID$[ebp]
	push	eax
	lea	ecx, DWORD PTR _bsData$[ebp]
	call	??$Read@G@BitStream@RakNet@@QAE_NAAG@Z	; RakNet::BitStream::Read<unsigned short>

; 769  : 	bsData.Read(VehicleID);

	lea	eax, DWORD PTR _VehicleID$[ebp]
	push	eax
	lea	ecx, DWORD PTR _bsData$[ebp]
	call	??$Read@G@BitStream@RakNet@@QAE_NAAG@Z	; RakNet::BitStream::Read<unsigned short>

; 770  : 	CVehicle* pTrailer = pNetGame->GetVehiclePool()->GetAt(TrailerID);

	movzx	eax, WORD PTR _TrailerID$[ebp]
	push	eax
	mov	ecx, DWORD PTR ?pNetGame@@3PAVCNetGame@@A ; pNetGame
	call	?GetVehiclePool@CNetGame@@QAEPAVCVehiclePool@@XZ ; CNetGame::GetVehiclePool
	mov	ecx, eax
	call	?GetAt@CVehiclePool@@QAEPAVCVehicle@@G@Z ; CVehiclePool::GetAt
	mov	DWORD PTR _pTrailer$[ebp], eax

; 771  : 	CVehicle* pVehicle = pNetGame->GetVehiclePool()->GetAt(VehicleID);

	movzx	eax, WORD PTR _VehicleID$[ebp]
	push	eax
	mov	ecx, DWORD PTR ?pNetGame@@3PAVCNetGame@@A ; pNetGame
	call	?GetVehiclePool@CNetGame@@QAEPAVCVehiclePool@@XZ ; CNetGame::GetVehiclePool
	mov	ecx, eax
	call	?GetAt@CVehiclePool@@QAEPAVCVehicle@@G@Z ; CVehiclePool::GetAt
	mov	DWORD PTR _pVehicle$[ebp], eax

; 772  : 	
; 773  : 	pVehicle->SetTrailer(pTrailer);

	mov	eax, DWORD PTR _pTrailer$[ebp]
	push	eax
	mov	ecx, DWORD PTR _pVehicle$[ebp]
	call	?SetTrailer@CVehicle@@QAEXPAV1@@Z	; CVehicle::SetTrailer

; 774  : 	pVehicle->AttachTrailer();

	mov	ecx, DWORD PTR _pVehicle$[ebp]
	call	?AttachTrailer@CVehicle@@QAEXXZ		; CVehicle::AttachTrailer

; 775  : }

	mov	DWORD PTR __$EHRec$[ebp+8], -1
	lea	ecx, DWORD PTR _bsData$[ebp]
	call	??1BitStream@RakNet@@QAE@XZ		; RakNet::BitStream::~BitStream
	push	edx
	mov	ecx, ebp
	push	eax
	lea	edx, DWORD PTR $LN10@ScrAttachT
	call	@_RTC_CheckStackVars@8
	pop	eax
	pop	edx
	mov	ecx, DWORD PTR __$EHRec$[ebp]
	mov	DWORD PTR fs:0, ecx
	pop	ecx
	pop	edi
	pop	esi
	pop	ebx
	mov	ecx, DWORD PTR __$ArrayPad$[ebp]
	xor	ecx, ebp
	call	@__security_check_cookie@4
	add	esp, 580				; 00000244H
	cmp	ebp, esp
	call	__RTC_CheckEsp
	mov	esp, ebp
	pop	ebp
	ret	0
	npad	3
$LN10@ScrAttachT:
	DD	4
	DD	$LN9@ScrAttachT
$LN9@ScrAttachT:
	DD	-52					; ffffffccH
	DD	6
	DD	$LN4@ScrAttachT
	DD	-64					; ffffffc0H
	DD	2
	DD	$LN5@ScrAttachT
	DD	-76					; ffffffb4H
	DD	2
	DD	$LN6@ScrAttachT
	DD	-360					; fffffe98H
	DD	273					; 00000111H
	DD	$LN7@ScrAttachT
$LN7@ScrAttachT:
	DB	98					; 00000062H
	DB	115					; 00000073H
	DB	68					; 00000044H
	DB	97					; 00000061H
	DB	116					; 00000074H
	DB	97					; 00000061H
	DB	0
$LN6@ScrAttachT:
	DB	86					; 00000056H
	DB	101					; 00000065H
	DB	104					; 00000068H
	DB	105					; 00000069H
	DB	99					; 00000063H
	DB	108					; 0000006cH
	DB	101					; 00000065H
	DB	73					; 00000049H
	DB	68					; 00000044H
	DB	0
$LN5@ScrAttachT:
	DB	84					; 00000054H
	DB	114					; 00000072H
	DB	97					; 00000061H
	DB	105					; 00000069H
	DB	108					; 0000006cH
	DB	101					; 00000065H
	DB	114					; 00000072H
	DB	73					; 00000049H
	DB	68					; 00000044H
	DB	0
$LN4@ScrAttachT:
	DB	115					; 00000073H
	DB	101					; 00000065H
	DB	110					; 0000006eH
	DB	100					; 00000064H
	DB	101					; 00000065H
	DB	114					; 00000072H
	DB	0
_TEXT	ENDS
;	COMDAT text$x
text$x	SEGMENT
__unwindfunclet$?ScrAttachTrailerToVehicle@@YAXPAURPCParameters@@@Z$0:
	lea	ecx, DWORD PTR _bsData$[ebp]
	jmp	??1BitStream@RakNet@@QAE@XZ		; RakNet::BitStream::~BitStream
__ehhandler$?ScrAttachTrailerToVehicle@@YAXPAURPCParameters@@@Z:
	mov	edx, DWORD PTR [esp+8]
	lea	eax, DWORD PTR [edx+12]
	mov	ecx, DWORD PTR [edx-584]
	xor	ecx, eax
	call	@__security_check_cookie@4
	mov	ecx, DWORD PTR [edx-4]
	xor	ecx, eax
	call	@__security_check_cookie@4
	mov	eax, OFFSET __ehfuncinfo$?ScrAttachTrailerToVehicle@@YAXPAURPCParameters@@@Z
	jmp	___CxxFrameHandler3
text$x	ENDS
?ScrAttachTrailerToVehicle@@YAXPAURPCParameters@@@Z ENDP ; ScrAttachTrailerToVehicle
; Function compile flags: /Odtp /RTCsu /ZI
; File z:\sampsrc\02xu1\saco\net\scriptrpc.cpp
;	COMDAT ?ScrSetVehicleHealth@@YAXPAURPCParameters@@@Z
_TEXT	SEGMENT
_bsData$ = -360						; size = 273
_VehicleID$ = -76					; size = 2
_fVehicleHealth$ = -64					; size = 4
_sender$ = -52						; size = 6
_iBitLength$ = -36					; size = 4
_Data$ = -24						; size = 4
__$ArrayPad$ = -16					; size = 4
__$EHRec$ = -12						; size = 12
_rpcParams$ = 8						; size = 4
?ScrSetVehicleHealth@@YAXPAURPCParameters@@@Z PROC	; ScrSetVehicleHealth, COMDAT

; 740  : {

	push	ebp
	mov	ebp, esp
	push	-1
	push	__ehhandler$?ScrSetVehicleHealth@@YAXPAURPCParameters@@@Z
	mov	eax, DWORD PTR fs:0
	push	eax
	sub	esp, 544				; 00000220H
	push	ebx
	push	esi
	push	edi
	lea	edi, DWORD PTR [ebp-556]
	mov	ecx, 136				; 00000088H
	mov	eax, -858993460				; ccccccccH
	rep stosd
	mov	eax, DWORD PTR ___security_cookie
	xor	eax, ebp
	mov	DWORD PTR __$ArrayPad$[ebp], eax
	push	eax
	lea	eax, DWORD PTR __$EHRec$[ebp]
	mov	DWORD PTR fs:0, eax

; 741  : 	PCHAR Data = reinterpret_cast<PCHAR>(rpcParams->input);

	mov	eax, DWORD PTR _rpcParams$[ebp]
	mov	ecx, DWORD PTR [eax]
	mov	DWORD PTR _Data$[ebp], ecx

; 742  : 	int iBitLength = rpcParams->numberOfBitsOfData;

	mov	eax, DWORD PTR _rpcParams$[ebp]
	mov	ecx, DWORD PTR [eax+4]
	mov	DWORD PTR _iBitLength$[ebp], ecx

; 743  : 	PlayerID sender = rpcParams->sender;

	mov	eax, DWORD PTR _rpcParams$[ebp]
	add	eax, 8
	mov	ecx, DWORD PTR [eax]
	mov	DWORD PTR _sender$[ebp], ecx
	mov	dx, WORD PTR [eax+4]
	mov	WORD PTR _sender$[ebp+4], dx

; 744  : 
; 745  : 	float fVehicleHealth;
; 746  : 	VEHICLEID VehicleID;
; 747  : 
; 748  : 	RakNet::BitStream bsData(Data,(iBitLength/8)+1,false);

	push	0
	mov	eax, DWORD PTR _iBitLength$[ebp]
	cdq
	and	edx, 7
	add	eax, edx
	sar	eax, 3
	add	eax, 1
	push	eax
	mov	eax, DWORD PTR _Data$[ebp]
	push	eax
	lea	ecx, DWORD PTR _bsData$[ebp]
	call	??0BitStream@RakNet@@QAE@PADI_N@Z	; RakNet::BitStream::BitStream
	mov	DWORD PTR __$EHRec$[ebp+8], 0

; 749  : 	bsData.Read(VehicleID);

	lea	eax, DWORD PTR _VehicleID$[ebp]
	push	eax
	lea	ecx, DWORD PTR _bsData$[ebp]
	call	??$Read@G@BitStream@RakNet@@QAE_NAAG@Z	; RakNet::BitStream::Read<unsigned short>

; 750  : 	bsData.Read(fVehicleHealth);

	lea	eax, DWORD PTR _fVehicleHealth$[ebp]
	push	eax
	lea	ecx, DWORD PTR _bsData$[ebp]
	call	??$Read@M@BitStream@RakNet@@QAE_NAAM@Z	; RakNet::BitStream::Read<float>

; 751  : 
; 752  : 	if (pNetGame->GetVehiclePool()->GetSlotState(VehicleID))

	movzx	eax, WORD PTR _VehicleID$[ebp]
	push	eax
	mov	ecx, DWORD PTR ?pNetGame@@3PAVCNetGame@@A ; pNetGame
	call	?GetVehiclePool@CNetGame@@QAEPAVCVehiclePool@@XZ ; CNetGame::GetVehiclePool
	mov	ecx, eax
	call	?GetSlotState@CVehiclePool@@QAEHG@Z	; CVehiclePool::GetSlotState
	test	eax, eax
	je	SHORT $LN1@ScrSetVehi

; 753  : 	{
; 754  : 		pNetGame->GetVehiclePool()->GetAt(VehicleID)->SetHealth(fVehicleHealth);

	push	ecx
	movss	xmm0, DWORD PTR _fVehicleHealth$[ebp]
	movss	DWORD PTR [esp], xmm0
	movzx	eax, WORD PTR _VehicleID$[ebp]
	push	eax
	mov	ecx, DWORD PTR ?pNetGame@@3PAVCNetGame@@A ; pNetGame
	call	?GetVehiclePool@CNetGame@@QAEPAVCVehiclePool@@XZ ; CNetGame::GetVehiclePool
	mov	ecx, eax
	call	?GetAt@CVehiclePool@@QAEPAVCVehicle@@G@Z ; CVehiclePool::GetAt
	mov	ecx, eax
	call	?SetHealth@CVehicle@@QAEXM@Z		; CVehicle::SetHealth
$LN1@ScrSetVehi:

; 755  : 	}
; 756  : }

	mov	DWORD PTR __$EHRec$[ebp+8], -1
	lea	ecx, DWORD PTR _bsData$[ebp]
	call	??1BitStream@RakNet@@QAE@XZ		; RakNet::BitStream::~BitStream
	push	edx
	mov	ecx, ebp
	push	eax
	lea	edx, DWORD PTR $LN11@ScrSetVehi
	call	@_RTC_CheckStackVars@8
	pop	eax
	pop	edx
	mov	ecx, DWORD PTR __$EHRec$[ebp]
	mov	DWORD PTR fs:0, ecx
	pop	ecx
	pop	edi
	pop	esi
	pop	ebx
	mov	ecx, DWORD PTR __$ArrayPad$[ebp]
	xor	ecx, ebp
	call	@__security_check_cookie@4
	add	esp, 556				; 0000022cH
	cmp	ebp, esp
	call	__RTC_CheckEsp
	mov	esp, ebp
	pop	ebp
	ret	0
	npad	2
$LN11@ScrSetVehi:
	DD	4
	DD	$LN10@ScrSetVehi
$LN10@ScrSetVehi:
	DD	-52					; ffffffccH
	DD	6
	DD	$LN5@ScrSetVehi
	DD	-64					; ffffffc0H
	DD	4
	DD	$LN6@ScrSetVehi
	DD	-76					; ffffffb4H
	DD	2
	DD	$LN7@ScrSetVehi
	DD	-360					; fffffe98H
	DD	273					; 00000111H
	DD	$LN8@ScrSetVehi
$LN8@ScrSetVehi:
	DB	98					; 00000062H
	DB	115					; 00000073H
	DB	68					; 00000044H
	DB	97					; 00000061H
	DB	116					; 00000074H
	DB	97					; 00000061H
	DB	0
$LN7@ScrSetVehi:
	DB	86					; 00000056H
	DB	101					; 00000065H
	DB	104					; 00000068H
	DB	105					; 00000069H
	DB	99					; 00000063H
	DB	108					; 0000006cH
	DB	101					; 00000065H
	DB	73					; 00000049H
	DB	68					; 00000044H
	DB	0
$LN6@ScrSetVehi:
	DB	102					; 00000066H
	DB	86					; 00000056H
	DB	101					; 00000065H
	DB	104					; 00000068H
	DB	105					; 00000069H
	DB	99					; 00000063H
	DB	108					; 0000006cH
	DB	101					; 00000065H
	DB	72					; 00000048H
	DB	101					; 00000065H
	DB	97					; 00000061H
	DB	108					; 0000006cH
	DB	116					; 00000074H
	DB	104					; 00000068H
	DB	0
$LN5@ScrSetVehi:
	DB	115					; 00000073H
	DB	101					; 00000065H
	DB	110					; 0000006eH
	DB	100					; 00000064H
	DB	101					; 00000065H
	DB	114					; 00000072H
	DB	0
_TEXT	ENDS
;	COMDAT text$x
text$x	SEGMENT
__unwindfunclet$?ScrSetVehicleHealth@@YAXPAURPCParameters@@@Z$0:
	lea	ecx, DWORD PTR _bsData$[ebp]
	jmp	??1BitStream@RakNet@@QAE@XZ		; RakNet::BitStream::~BitStream
__ehhandler$?ScrSetVehicleHealth@@YAXPAURPCParameters@@@Z:
	mov	edx, DWORD PTR [esp+8]
	lea	eax, DWORD PTR [edx+12]
	mov	ecx, DWORD PTR [edx-560]
	xor	ecx, eax
	call	@__security_check_cookie@4
	mov	ecx, DWORD PTR [edx-4]
	xor	ecx, eax
	call	@__security_check_cookie@4
	mov	eax, OFFSET __ehfuncinfo$?ScrSetVehicleHealth@@YAXPAURPCParameters@@@Z
	jmp	___CxxFrameHandler3
text$x	ENDS
?ScrSetVehicleHealth@@YAXPAURPCParameters@@@Z ENDP	; ScrSetVehicleHealth
; Function compile flags: /Odtp /RTCsu /ZI
; File z:\sampsrc\02xu1\saco\net\scriptrpc.cpp
;	COMDAT ?ScrSetGravity@@YAXPAURPCParameters@@@Z
_TEXT	SEGMENT
_bsData$ = -348						; size = 273
_fGravity$ = -64					; size = 4
_sender$ = -52						; size = 6
_iBitLength$ = -36					; size = 4
_Data$ = -24						; size = 4
__$ArrayPad$ = -16					; size = 4
__$EHRec$ = -12						; size = 12
_rpcParams$ = 8						; size = 4
?ScrSetGravity@@YAXPAURPCParameters@@@Z PROC		; ScrSetGravity, COMDAT

; 724  : {

	push	ebp
	mov	ebp, esp
	push	-1
	push	__ehhandler$?ScrSetGravity@@YAXPAURPCParameters@@@Z
	mov	eax, DWORD PTR fs:0
	push	eax
	sub	esp, 532				; 00000214H
	push	ebx
	push	esi
	push	edi
	lea	edi, DWORD PTR [ebp-544]
	mov	ecx, 133				; 00000085H
	mov	eax, -858993460				; ccccccccH
	rep stosd
	mov	eax, DWORD PTR ___security_cookie
	xor	eax, ebp
	mov	DWORD PTR __$ArrayPad$[ebp], eax
	push	eax
	lea	eax, DWORD PTR __$EHRec$[ebp]
	mov	DWORD PTR fs:0, eax

; 725  : 	PCHAR Data = reinterpret_cast<PCHAR>(rpcParams->input);

	mov	eax, DWORD PTR _rpcParams$[ebp]
	mov	ecx, DWORD PTR [eax]
	mov	DWORD PTR _Data$[ebp], ecx

; 726  : 	int iBitLength = rpcParams->numberOfBitsOfData;

	mov	eax, DWORD PTR _rpcParams$[ebp]
	mov	ecx, DWORD PTR [eax+4]
	mov	DWORD PTR _iBitLength$[ebp], ecx

; 727  : 	PlayerID sender = rpcParams->sender;

	mov	eax, DWORD PTR _rpcParams$[ebp]
	add	eax, 8
	mov	ecx, DWORD PTR [eax]
	mov	DWORD PTR _sender$[ebp], ecx
	mov	dx, WORD PTR [eax+4]
	mov	WORD PTR _sender$[ebp+4], dx

; 728  : 
; 729  : 	float fGravity;
; 730  : 
; 731  : 	RakNet::BitStream bsData(Data,(iBitLength/8)+1,false);

	push	0
	mov	eax, DWORD PTR _iBitLength$[ebp]
	cdq
	and	edx, 7
	add	eax, edx
	sar	eax, 3
	add	eax, 1
	push	eax
	mov	eax, DWORD PTR _Data$[ebp]
	push	eax
	lea	ecx, DWORD PTR _bsData$[ebp]
	call	??0BitStream@RakNet@@QAE@PADI_N@Z	; RakNet::BitStream::BitStream
	mov	DWORD PTR __$EHRec$[ebp+8], 0

; 732  : 	bsData.Read(fGravity);

	lea	eax, DWORD PTR _fGravity$[ebp]
	push	eax
	lea	ecx, DWORD PTR _bsData$[ebp]
	call	??$Read@M@BitStream@RakNet@@QAE_NAAM@Z	; RakNet::BitStream::Read<float>

; 733  : 
; 734  : 	pGame->SetGravity(fGravity);

	push	ecx
	movss	xmm0, DWORD PTR _fGravity$[ebp]
	movss	DWORD PTR [esp], xmm0
	mov	ecx, DWORD PTR ?pGame@@3PAVCGame@@A	; pGame
	call	?SetGravity@CGame@@QAEXM@Z		; CGame::SetGravity

; 735  : }

	mov	DWORD PTR __$EHRec$[ebp+8], -1
	lea	ecx, DWORD PTR _bsData$[ebp]
	call	??1BitStream@RakNet@@QAE@XZ		; RakNet::BitStream::~BitStream
	push	edx
	mov	ecx, ebp
	push	eax
	lea	edx, DWORD PTR $LN9@ScrSetGrav
	call	@_RTC_CheckStackVars@8
	pop	eax
	pop	edx
	mov	ecx, DWORD PTR __$EHRec$[ebp]
	mov	DWORD PTR fs:0, ecx
	pop	ecx
	pop	edi
	pop	esi
	pop	ebx
	mov	ecx, DWORD PTR __$ArrayPad$[ebp]
	xor	ecx, ebp
	call	@__security_check_cookie@4
	add	esp, 544				; 00000220H
	cmp	ebp, esp
	call	__RTC_CheckEsp
	mov	esp, ebp
	pop	ebp
	ret	0
	npad	3
$LN9@ScrSetGrav:
	DD	3
	DD	$LN8@ScrSetGrav
$LN8@ScrSetGrav:
	DD	-52					; ffffffccH
	DD	6
	DD	$LN4@ScrSetGrav
	DD	-64					; ffffffc0H
	DD	4
	DD	$LN5@ScrSetGrav
	DD	-348					; fffffea4H
	DD	273					; 00000111H
	DD	$LN6@ScrSetGrav
$LN6@ScrSetGrav:
	DB	98					; 00000062H
	DB	115					; 00000073H
	DB	68					; 00000044H
	DB	97					; 00000061H
	DB	116					; 00000074H
	DB	97					; 00000061H
	DB	0
$LN5@ScrSetGrav:
	DB	102					; 00000066H
	DB	71					; 00000047H
	DB	114					; 00000072H
	DB	97					; 00000061H
	DB	118					; 00000076H
	DB	105					; 00000069H
	DB	116					; 00000074H
	DB	121					; 00000079H
	DB	0
$LN4@ScrSetGrav:
	DB	115					; 00000073H
	DB	101					; 00000065H
	DB	110					; 0000006eH
	DB	100					; 00000064H
	DB	101					; 00000065H
	DB	114					; 00000072H
	DB	0
_TEXT	ENDS
;	COMDAT text$x
text$x	SEGMENT
__unwindfunclet$?ScrSetGravity@@YAXPAURPCParameters@@@Z$0:
	lea	ecx, DWORD PTR _bsData$[ebp]
	jmp	??1BitStream@RakNet@@QAE@XZ		; RakNet::BitStream::~BitStream
__ehhandler$?ScrSetGravity@@YAXPAURPCParameters@@@Z:
	mov	edx, DWORD PTR [esp+8]
	lea	eax, DWORD PTR [edx+12]
	mov	ecx, DWORD PTR [edx-548]
	xor	ecx, eax
	call	@__security_check_cookie@4
	mov	ecx, DWORD PTR [edx-4]
	xor	ecx, eax
	call	@__security_check_cookie@4
	mov	eax, OFFSET __ehfuncinfo$?ScrSetGravity@@YAXPAURPCParameters@@@Z
	jmp	___CxxFrameHandler3
text$x	ENDS
?ScrSetGravity@@YAXPAURPCParameters@@@Z ENDP		; ScrSetGravity
; Function compile flags: /Odtp /RTCsu /ZI
; File z:\sampsrc\02xu1\saco\net\scriptrpc.cpp
;	COMDAT ?ScrSetWeaponAmmo@@YAXPAURPCParameters@@@Z
_TEXT	SEGMENT
_bsData$ = -372						; size = 273
_wordAmmo$ = -88					; size = 2
_byteWeapon$ = -73					; size = 1
_pLocalPlayer$ = -64					; size = 4
_sender$ = -52						; size = 6
_iBitLength$ = -36					; size = 4
_Data$ = -24						; size = 4
__$ArrayPad$ = -16					; size = 4
__$EHRec$ = -12						; size = 12
_rpcParams$ = 8						; size = 4
?ScrSetWeaponAmmo@@YAXPAURPCParameters@@@Z PROC		; ScrSetWeaponAmmo, COMDAT

; 705  : {

	push	ebp
	mov	ebp, esp
	push	-1
	push	__ehhandler$?ScrSetWeaponAmmo@@YAXPAURPCParameters@@@Z
	mov	eax, DWORD PTR fs:0
	push	eax
	sub	esp, 556				; 0000022cH
	push	ebx
	push	esi
	push	edi
	lea	edi, DWORD PTR [ebp-568]
	mov	ecx, 139				; 0000008bH
	mov	eax, -858993460				; ccccccccH
	rep stosd
	mov	eax, DWORD PTR ___security_cookie
	xor	eax, ebp
	mov	DWORD PTR __$ArrayPad$[ebp], eax
	push	eax
	lea	eax, DWORD PTR __$EHRec$[ebp]
	mov	DWORD PTR fs:0, eax

; 706  : 	PCHAR Data = reinterpret_cast<PCHAR>(rpcParams->input);

	mov	eax, DWORD PTR _rpcParams$[ebp]
	mov	ecx, DWORD PTR [eax]
	mov	DWORD PTR _Data$[ebp], ecx

; 707  : 	int iBitLength = rpcParams->numberOfBitsOfData;

	mov	eax, DWORD PTR _rpcParams$[ebp]
	mov	ecx, DWORD PTR [eax+4]
	mov	DWORD PTR _iBitLength$[ebp], ecx

; 708  : 	PlayerID sender = rpcParams->sender;

	mov	eax, DWORD PTR _rpcParams$[ebp]
	add	eax, 8
	mov	ecx, DWORD PTR [eax]
	mov	DWORD PTR _sender$[ebp], ecx
	mov	dx, WORD PTR [eax+4]
	mov	WORD PTR _sender$[ebp+4], dx

; 709  : 
; 710  : 	CLocalPlayer *pLocalPlayer = pNetGame->GetPlayerPool()->GetLocalPlayer();

	mov	ecx, DWORD PTR ?pNetGame@@3PAVCNetGame@@A ; pNetGame
	call	?GetPlayerPool@CNetGame@@QAEPAVCPlayerPool@@XZ ; CNetGame::GetPlayerPool
	mov	ecx, eax
	call	?GetLocalPlayer@CPlayerPool@@QAEPAVCLocalPlayer@@XZ ; CPlayerPool::GetLocalPlayer
	mov	DWORD PTR _pLocalPlayer$[ebp], eax

; 711  : 	BYTE byteWeapon;
; 712  : 	WORD wordAmmo;
; 713  : 
; 714  : 	RakNet::BitStream bsData(Data,(iBitLength/8)+1,false);

	push	0
	mov	eax, DWORD PTR _iBitLength$[ebp]
	cdq
	and	edx, 7
	add	eax, edx
	sar	eax, 3
	add	eax, 1
	push	eax
	mov	eax, DWORD PTR _Data$[ebp]
	push	eax
	lea	ecx, DWORD PTR _bsData$[ebp]
	call	??0BitStream@RakNet@@QAE@PADI_N@Z	; RakNet::BitStream::BitStream
	mov	DWORD PTR __$EHRec$[ebp+8], 0

; 715  : 	bsData.Read(byteWeapon);

	lea	eax, DWORD PTR _byteWeapon$[ebp]
	push	eax
	lea	ecx, DWORD PTR _bsData$[ebp]
	call	??$Read@E@BitStream@RakNet@@QAE_NAAE@Z	; RakNet::BitStream::Read<unsigned char>

; 716  : 	bsData.Read(wordAmmo);

	lea	eax, DWORD PTR _wordAmmo$[ebp]
	push	eax
	lea	ecx, DWORD PTR _bsData$[ebp]
	call	??$Read@G@BitStream@RakNet@@QAE_NAAG@Z	; RakNet::BitStream::Read<unsigned short>

; 717  : 
; 718  : 	pLocalPlayer->GetPlayerPed()->SetAmmo(byteWeapon, wordAmmo);

	movzx	eax, WORD PTR _wordAmmo$[ebp]
	push	eax
	movzx	ecx, BYTE PTR _byteWeapon$[ebp]
	push	ecx
	mov	ecx, DWORD PTR _pLocalPlayer$[ebp]
	call	?GetPlayerPed@CLocalPlayer@@QAEPAVCPlayerPed@@XZ ; CLocalPlayer::GetPlayerPed
	mov	ecx, eax
	call	?SetAmmo@CPlayerPed@@QAEXEG@Z		; CPlayerPed::SetAmmo

; 719  : }

	mov	DWORD PTR __$EHRec$[ebp+8], -1
	lea	ecx, DWORD PTR _bsData$[ebp]
	call	??1BitStream@RakNet@@QAE@XZ		; RakNet::BitStream::~BitStream
	push	edx
	mov	ecx, ebp
	push	eax
	lea	edx, DWORD PTR $LN10@ScrSetWeap
	call	@_RTC_CheckStackVars@8
	pop	eax
	pop	edx
	mov	ecx, DWORD PTR __$EHRec$[ebp]
	mov	DWORD PTR fs:0, ecx
	pop	ecx
	pop	edi
	pop	esi
	pop	ebx
	mov	ecx, DWORD PTR __$ArrayPad$[ebp]
	xor	ecx, ebp
	call	@__security_check_cookie@4
	add	esp, 568				; 00000238H
	cmp	ebp, esp
	call	__RTC_CheckEsp
	mov	esp, ebp
	pop	ebp
	ret	0
$LN10@ScrSetWeap:
	DD	4
	DD	$LN9@ScrSetWeap
$LN9@ScrSetWeap:
	DD	-52					; ffffffccH
	DD	6
	DD	$LN4@ScrSetWeap
	DD	-73					; ffffffb7H
	DD	1
	DD	$LN5@ScrSetWeap
	DD	-88					; ffffffa8H
	DD	2
	DD	$LN6@ScrSetWeap
	DD	-372					; fffffe8cH
	DD	273					; 00000111H
	DD	$LN7@ScrSetWeap
$LN7@ScrSetWeap:
	DB	98					; 00000062H
	DB	115					; 00000073H
	DB	68					; 00000044H
	DB	97					; 00000061H
	DB	116					; 00000074H
	DB	97					; 00000061H
	DB	0
$LN6@ScrSetWeap:
	DB	119					; 00000077H
	DB	111					; 0000006fH
	DB	114					; 00000072H
	DB	100					; 00000064H
	DB	65					; 00000041H
	DB	109					; 0000006dH
	DB	109					; 0000006dH
	DB	111					; 0000006fH
	DB	0
$LN5@ScrSetWeap:
	DB	98					; 00000062H
	DB	121					; 00000079H
	DB	116					; 00000074H
	DB	101					; 00000065H
	DB	87					; 00000057H
	DB	101					; 00000065H
	DB	97					; 00000061H
	DB	112					; 00000070H
	DB	111					; 0000006fH
	DB	110					; 0000006eH
	DB	0
$LN4@ScrSetWeap:
	DB	115					; 00000073H
	DB	101					; 00000065H
	DB	110					; 0000006eH
	DB	100					; 00000064H
	DB	101					; 00000065H
	DB	114					; 00000072H
	DB	0
_TEXT	ENDS
;	COMDAT text$x
text$x	SEGMENT
__unwindfunclet$?ScrSetWeaponAmmo@@YAXPAURPCParameters@@@Z$0:
	lea	ecx, DWORD PTR _bsData$[ebp]
	jmp	??1BitStream@RakNet@@QAE@XZ		; RakNet::BitStream::~BitStream
__ehhandler$?ScrSetWeaponAmmo@@YAXPAURPCParameters@@@Z:
	mov	edx, DWORD PTR [esp+8]
	lea	eax, DWORD PTR [edx+12]
	mov	ecx, DWORD PTR [edx-572]
	xor	ecx, eax
	call	@__security_check_cookie@4
	mov	ecx, DWORD PTR [edx-4]
	xor	ecx, eax
	call	@__security_check_cookie@4
	mov	eax, OFFSET __ehfuncinfo$?ScrSetWeaponAmmo@@YAXPAURPCParameters@@@Z
	jmp	___CxxFrameHandler3
text$x	ENDS
?ScrSetWeaponAmmo@@YAXPAURPCParameters@@@Z ENDP		; ScrSetWeaponAmmo
; Function compile flags: /Odtp /RTCsu /ZI
; File z:\sampsrc\02xu1\saco\net\scriptrpc.cpp
;	COMDAT ?ScrSetPlayerArmour@@YAXPAURPCParameters@@@Z
_TEXT	SEGMENT
_bsData$ = -360						; size = 273
_fArmour$ = -76						; size = 4
_pLocalPlayer$ = -64					; size = 4
_sender$ = -52						; size = 6
_iBitLength$ = -36					; size = 4
_Data$ = -24						; size = 4
__$ArrayPad$ = -16					; size = 4
__$EHRec$ = -12						; size = 12
_rpcParams$ = 8						; size = 4
?ScrSetPlayerArmour@@YAXPAURPCParameters@@@Z PROC	; ScrSetPlayerArmour, COMDAT

; 690  : {

	push	ebp
	mov	ebp, esp
	push	-1
	push	__ehhandler$?ScrSetPlayerArmour@@YAXPAURPCParameters@@@Z
	mov	eax, DWORD PTR fs:0
	push	eax
	sub	esp, 544				; 00000220H
	push	ebx
	push	esi
	push	edi
	lea	edi, DWORD PTR [ebp-556]
	mov	ecx, 136				; 00000088H
	mov	eax, -858993460				; ccccccccH
	rep stosd
	mov	eax, DWORD PTR ___security_cookie
	xor	eax, ebp
	mov	DWORD PTR __$ArrayPad$[ebp], eax
	push	eax
	lea	eax, DWORD PTR __$EHRec$[ebp]
	mov	DWORD PTR fs:0, eax

; 691  : 	PCHAR Data = reinterpret_cast<PCHAR>(rpcParams->input);

	mov	eax, DWORD PTR _rpcParams$[ebp]
	mov	ecx, DWORD PTR [eax]
	mov	DWORD PTR _Data$[ebp], ecx

; 692  : 	int iBitLength = rpcParams->numberOfBitsOfData;

	mov	eax, DWORD PTR _rpcParams$[ebp]
	mov	ecx, DWORD PTR [eax+4]
	mov	DWORD PTR _iBitLength$[ebp], ecx

; 693  : 	PlayerID sender = rpcParams->sender;

	mov	eax, DWORD PTR _rpcParams$[ebp]
	add	eax, 8
	mov	ecx, DWORD PTR [eax]
	mov	DWORD PTR _sender$[ebp], ecx
	mov	dx, WORD PTR [eax+4]
	mov	WORD PTR _sender$[ebp+4], dx

; 694  : 
; 695  : 	CLocalPlayer *pLocalPlayer = pNetGame->GetPlayerPool()->GetLocalPlayer();

	mov	ecx, DWORD PTR ?pNetGame@@3PAVCNetGame@@A ; pNetGame
	call	?GetPlayerPool@CNetGame@@QAEPAVCPlayerPool@@XZ ; CNetGame::GetPlayerPool
	mov	ecx, eax
	call	?GetLocalPlayer@CPlayerPool@@QAEPAVCLocalPlayer@@XZ ; CPlayerPool::GetLocalPlayer
	mov	DWORD PTR _pLocalPlayer$[ebp], eax

; 696  : 	float fArmour;
; 697  : 
; 698  : 	RakNet::BitStream bsData(Data,(iBitLength/8)+1,false);

	push	0
	mov	eax, DWORD PTR _iBitLength$[ebp]
	cdq
	and	edx, 7
	add	eax, edx
	sar	eax, 3
	add	eax, 1
	push	eax
	mov	eax, DWORD PTR _Data$[ebp]
	push	eax
	lea	ecx, DWORD PTR _bsData$[ebp]
	call	??0BitStream@RakNet@@QAE@PADI_N@Z	; RakNet::BitStream::BitStream
	mov	DWORD PTR __$EHRec$[ebp+8], 0

; 699  : 	bsData.Read(fArmour);

	lea	eax, DWORD PTR _fArmour$[ebp]
	push	eax
	lea	ecx, DWORD PTR _bsData$[ebp]
	call	??$Read@M@BitStream@RakNet@@QAE_NAAM@Z	; RakNet::BitStream::Read<float>

; 700  : 
; 701  : 	pLocalPlayer->GetPlayerPed()->SetArmour(fArmour);

	push	ecx
	movss	xmm0, DWORD PTR _fArmour$[ebp]
	movss	DWORD PTR [esp], xmm0
	mov	ecx, DWORD PTR _pLocalPlayer$[ebp]
	call	?GetPlayerPed@CLocalPlayer@@QAEPAVCPlayerPed@@XZ ; CLocalPlayer::GetPlayerPed
	mov	ecx, eax
	call	?SetArmour@CPlayerPed@@QAEXM@Z		; CPlayerPed::SetArmour

; 702  : }

	mov	DWORD PTR __$EHRec$[ebp+8], -1
	lea	ecx, DWORD PTR _bsData$[ebp]
	call	??1BitStream@RakNet@@QAE@XZ		; RakNet::BitStream::~BitStream
	push	edx
	mov	ecx, ebp
	push	eax
	lea	edx, DWORD PTR $LN9@ScrSetPlay
	call	@_RTC_CheckStackVars@8
	pop	eax
	pop	edx
	mov	ecx, DWORD PTR __$EHRec$[ebp]
	mov	DWORD PTR fs:0, ecx
	pop	ecx
	pop	edi
	pop	esi
	pop	ebx
	mov	ecx, DWORD PTR __$ArrayPad$[ebp]
	xor	ecx, ebp
	call	@__security_check_cookie@4
	add	esp, 556				; 0000022cH
	cmp	ebp, esp
	call	__RTC_CheckEsp
	mov	esp, ebp
	pop	ebp
	ret	0
	npad	2
$LN9@ScrSetPlay:
	DD	3
	DD	$LN8@ScrSetPlay
$LN8@ScrSetPlay:
	DD	-52					; ffffffccH
	DD	6
	DD	$LN4@ScrSetPlay
	DD	-76					; ffffffb4H
	DD	4
	DD	$LN5@ScrSetPlay
	DD	-360					; fffffe98H
	DD	273					; 00000111H
	DD	$LN6@ScrSetPlay
$LN6@ScrSetPlay:
	DB	98					; 00000062H
	DB	115					; 00000073H
	DB	68					; 00000044H
	DB	97					; 00000061H
	DB	116					; 00000074H
	DB	97					; 00000061H
	DB	0
$LN5@ScrSetPlay:
	DB	102					; 00000066H
	DB	65					; 00000041H
	DB	114					; 00000072H
	DB	109					; 0000006dH
	DB	111					; 0000006fH
	DB	117					; 00000075H
	DB	114					; 00000072H
	DB	0
$LN4@ScrSetPlay:
	DB	115					; 00000073H
	DB	101					; 00000065H
	DB	110					; 0000006eH
	DB	100					; 00000064H
	DB	101					; 00000065H
	DB	114					; 00000072H
	DB	0
_TEXT	ENDS
;	COMDAT text$x
text$x	SEGMENT
__unwindfunclet$?ScrSetPlayerArmour@@YAXPAURPCParameters@@@Z$0:
	lea	ecx, DWORD PTR _bsData$[ebp]
	jmp	??1BitStream@RakNet@@QAE@XZ		; RakNet::BitStream::~BitStream
__ehhandler$?ScrSetPlayerArmour@@YAXPAURPCParameters@@@Z:
	mov	edx, DWORD PTR [esp+8]
	lea	eax, DWORD PTR [edx+12]
	mov	ecx, DWORD PTR [edx-560]
	xor	ecx, eax
	call	@__security_check_cookie@4
	mov	ecx, DWORD PTR [edx-4]
	xor	ecx, eax
	call	@__security_check_cookie@4
	mov	eax, OFFSET __ehfuncinfo$?ScrSetPlayerArmour@@YAXPAURPCParameters@@@Z
	jmp	___CxxFrameHandler3
text$x	ENDS
?ScrSetPlayerArmour@@YAXPAURPCParameters@@@Z ENDP	; ScrSetPlayerArmour
; Function compile flags: /Odtp /RTCsu /ZI
; File z:\sampsrc\02xu1\saco\net\scriptrpc.cpp
;	COMDAT ?ScrDisableMapIcon@@YAXPAURPCParameters@@@Z
_TEXT	SEGMENT
_byteIndex$ = -345					; size = 1
_bsData$ = -336						; size = 273
_sender$ = -52						; size = 6
_iBitLength$ = -36					; size = 4
_Data$ = -24						; size = 4
__$ArrayPad$ = -16					; size = 4
__$EHRec$ = -12						; size = 12
_rpcParams$ = 8						; size = 4
?ScrDisableMapIcon@@YAXPAURPCParameters@@@Z PROC	; ScrDisableMapIcon, COMDAT

; 675  : {

	push	ebp
	mov	ebp, esp
	push	-1
	push	__ehhandler$?ScrDisableMapIcon@@YAXPAURPCParameters@@@Z
	mov	eax, DWORD PTR fs:0
	push	eax
	sub	esp, 532				; 00000214H
	push	ebx
	push	esi
	push	edi
	lea	edi, DWORD PTR [ebp-544]
	mov	ecx, 133				; 00000085H
	mov	eax, -858993460				; ccccccccH
	rep stosd
	mov	eax, DWORD PTR ___security_cookie
	xor	eax, ebp
	mov	DWORD PTR __$ArrayPad$[ebp], eax
	push	eax
	lea	eax, DWORD PTR __$EHRec$[ebp]
	mov	DWORD PTR fs:0, eax

; 676  : 	PCHAR Data = reinterpret_cast<PCHAR>(rpcParams->input);

	mov	eax, DWORD PTR _rpcParams$[ebp]
	mov	ecx, DWORD PTR [eax]
	mov	DWORD PTR _Data$[ebp], ecx

; 677  : 	int iBitLength = rpcParams->numberOfBitsOfData;

	mov	eax, DWORD PTR _rpcParams$[ebp]
	mov	ecx, DWORD PTR [eax+4]
	mov	DWORD PTR _iBitLength$[ebp], ecx

; 678  : 	PlayerID sender = rpcParams->sender;

	mov	eax, DWORD PTR _rpcParams$[ebp]
	add	eax, 8
	mov	ecx, DWORD PTR [eax]
	mov	DWORD PTR _sender$[ebp], ecx
	mov	dx, WORD PTR [eax+4]
	mov	WORD PTR _sender$[ebp+4], dx

; 679  : 
; 680  : 	RakNet::BitStream bsData(Data,(iBitLength/8)+1,false);

	push	0
	mov	eax, DWORD PTR _iBitLength$[ebp]
	cdq
	and	edx, 7
	add	eax, edx
	sar	eax, 3
	add	eax, 1
	push	eax
	mov	eax, DWORD PTR _Data$[ebp]
	push	eax
	lea	ecx, DWORD PTR _bsData$[ebp]
	call	??0BitStream@RakNet@@QAE@PADI_N@Z	; RakNet::BitStream::BitStream
	mov	DWORD PTR __$EHRec$[ebp+8], 0

; 681  : 
; 682  : 	BYTE byteIndex;
; 683  : 
; 684  : 	bsData.Read(byteIndex);

	lea	eax, DWORD PTR _byteIndex$[ebp]
	push	eax
	lea	ecx, DWORD PTR _bsData$[ebp]
	call	??$Read@E@BitStream@RakNet@@QAE_NAAE@Z	; RakNet::BitStream::Read<unsigned char>

; 685  : 
; 686  : 	pNetGame->DisableMapIcon(byteIndex);

	movzx	eax, BYTE PTR _byteIndex$[ebp]
	push	eax
	mov	ecx, DWORD PTR ?pNetGame@@3PAVCNetGame@@A ; pNetGame
	call	?DisableMapIcon@CNetGame@@QAEXE@Z	; CNetGame::DisableMapIcon

; 687  : }

	mov	DWORD PTR __$EHRec$[ebp+8], -1
	lea	ecx, DWORD PTR _bsData$[ebp]
	call	??1BitStream@RakNet@@QAE@XZ		; RakNet::BitStream::~BitStream
	push	edx
	mov	ecx, ebp
	push	eax
	lea	edx, DWORD PTR $LN9@ScrDisable
	call	@_RTC_CheckStackVars@8
	pop	eax
	pop	edx
	mov	ecx, DWORD PTR __$EHRec$[ebp]
	mov	DWORD PTR fs:0, ecx
	pop	ecx
	pop	edi
	pop	esi
	pop	ebx
	mov	ecx, DWORD PTR __$ArrayPad$[ebp]
	xor	ecx, ebp
	call	@__security_check_cookie@4
	add	esp, 544				; 00000220H
	cmp	ebp, esp
	call	__RTC_CheckEsp
	mov	esp, ebp
	pop	ebp
	ret	0
	npad	3
$LN9@ScrDisable:
	DD	3
	DD	$LN8@ScrDisable
$LN8@ScrDisable:
	DD	-52					; ffffffccH
	DD	6
	DD	$LN4@ScrDisable
	DD	-336					; fffffeb0H
	DD	273					; 00000111H
	DD	$LN5@ScrDisable
	DD	-345					; fffffea7H
	DD	1
	DD	$LN6@ScrDisable
$LN6@ScrDisable:
	DB	98					; 00000062H
	DB	121					; 00000079H
	DB	116					; 00000074H
	DB	101					; 00000065H
	DB	73					; 00000049H
	DB	110					; 0000006eH
	DB	100					; 00000064H
	DB	101					; 00000065H
	DB	120					; 00000078H
	DB	0
$LN5@ScrDisable:
	DB	98					; 00000062H
	DB	115					; 00000073H
	DB	68					; 00000044H
	DB	97					; 00000061H
	DB	116					; 00000074H
	DB	97					; 00000061H
	DB	0
$LN4@ScrDisable:
	DB	115					; 00000073H
	DB	101					; 00000065H
	DB	110					; 0000006eH
	DB	100					; 00000064H
	DB	101					; 00000065H
	DB	114					; 00000072H
	DB	0
_TEXT	ENDS
;	COMDAT text$x
text$x	SEGMENT
__unwindfunclet$?ScrDisableMapIcon@@YAXPAURPCParameters@@@Z$0:
	lea	ecx, DWORD PTR _bsData$[ebp]
	jmp	??1BitStream@RakNet@@QAE@XZ		; RakNet::BitStream::~BitStream
__ehhandler$?ScrDisableMapIcon@@YAXPAURPCParameters@@@Z:
	mov	edx, DWORD PTR [esp+8]
	lea	eax, DWORD PTR [edx+12]
	mov	ecx, DWORD PTR [edx-548]
	xor	ecx, eax
	call	@__security_check_cookie@4
	mov	ecx, DWORD PTR [edx-4]
	xor	ecx, eax
	call	@__security_check_cookie@4
	mov	eax, OFFSET __ehfuncinfo$?ScrDisableMapIcon@@YAXPAURPCParameters@@@Z
	jmp	___CxxFrameHandler3
text$x	ENDS
?ScrDisableMapIcon@@YAXPAURPCParameters@@@Z ENDP	; ScrDisableMapIcon
; Function compile flags: /Odtp /RTCsu /ZI
; File z:\sampsrc\02xu1\saco\net\scriptrpc.cpp
;	COMDAT ?ScrSetMapIcon@@YAXPAURPCParameters@@@Z
_TEXT	SEGMENT
_fPos$ = -392						; size = 12
_byteColor$ = -372					; size = 4
_byteIcon$ = -357					; size = 1
_byteIndex$ = -345					; size = 1
_bsData$ = -336						; size = 273
_sender$ = -52						; size = 6
_iBitLength$ = -36					; size = 4
_Data$ = -24						; size = 4
__$ArrayPad$ = -16					; size = 4
__$EHRec$ = -12						; size = 12
_rpcParams$ = 8						; size = 4
?ScrSetMapIcon@@YAXPAURPCParameters@@@Z PROC		; ScrSetMapIcon, COMDAT

; 652  : {

	push	ebp
	mov	ebp, esp
	push	-1
	push	__ehhandler$?ScrSetMapIcon@@YAXPAURPCParameters@@@Z
	mov	eax, DWORD PTR fs:0
	push	eax
	sub	esp, 576				; 00000240H
	push	ebx
	push	esi
	push	edi
	lea	edi, DWORD PTR [ebp-588]
	mov	ecx, 144				; 00000090H
	mov	eax, -858993460				; ccccccccH
	rep stosd
	mov	eax, DWORD PTR ___security_cookie
	xor	eax, ebp
	mov	DWORD PTR __$ArrayPad$[ebp], eax
	push	eax
	lea	eax, DWORD PTR __$EHRec$[ebp]
	mov	DWORD PTR fs:0, eax

; 653  : 	PCHAR Data = reinterpret_cast<PCHAR>(rpcParams->input);

	mov	eax, DWORD PTR _rpcParams$[ebp]
	mov	ecx, DWORD PTR [eax]
	mov	DWORD PTR _Data$[ebp], ecx

; 654  : 	int iBitLength = rpcParams->numberOfBitsOfData;

	mov	eax, DWORD PTR _rpcParams$[ebp]
	mov	ecx, DWORD PTR [eax+4]
	mov	DWORD PTR _iBitLength$[ebp], ecx

; 655  : 	PlayerID sender = rpcParams->sender;

	mov	eax, DWORD PTR _rpcParams$[ebp]
	add	eax, 8
	mov	ecx, DWORD PTR [eax]
	mov	DWORD PTR _sender$[ebp], ecx
	mov	dx, WORD PTR [eax+4]
	mov	WORD PTR _sender$[ebp+4], dx

; 656  : 
; 657  : 	RakNet::BitStream bsData(Data,(iBitLength/8)+1,false);

	push	0
	mov	eax, DWORD PTR _iBitLength$[ebp]
	cdq
	and	edx, 7
	add	eax, edx
	sar	eax, 3
	add	eax, 1
	push	eax
	mov	eax, DWORD PTR _Data$[ebp]
	push	eax
	lea	ecx, DWORD PTR _bsData$[ebp]
	call	??0BitStream@RakNet@@QAE@PADI_N@Z	; RakNet::BitStream::BitStream
	mov	DWORD PTR __$EHRec$[ebp+8], 0

; 658  : 
; 659  : 	BYTE byteIndex;
; 660  : 	BYTE byteIcon;
; 661  : 	DWORD byteColor;
; 662  : 	float fPos[3];
; 663  : 
; 664  : 	bsData.Read(byteIndex);

	lea	eax, DWORD PTR _byteIndex$[ebp]
	push	eax
	lea	ecx, DWORD PTR _bsData$[ebp]
	call	??$Read@E@BitStream@RakNet@@QAE_NAAE@Z	; RakNet::BitStream::Read<unsigned char>

; 665  : 	bsData.Read(fPos[0]);

	mov	eax, 4
	imul	ecx, eax, 0
	lea	edx, DWORD PTR _fPos$[ebp+ecx]
	push	edx
	lea	ecx, DWORD PTR _bsData$[ebp]
	call	??$Read@M@BitStream@RakNet@@QAE_NAAM@Z	; RakNet::BitStream::Read<float>

; 666  : 	bsData.Read(fPos[1]);

	mov	eax, 4
	shl	eax, 0
	lea	ecx, DWORD PTR _fPos$[ebp+eax]
	push	ecx
	lea	ecx, DWORD PTR _bsData$[ebp]
	call	??$Read@M@BitStream@RakNet@@QAE_NAAM@Z	; RakNet::BitStream::Read<float>

; 667  : 	bsData.Read(fPos[2]);

	mov	eax, 4
	shl	eax, 1
	lea	ecx, DWORD PTR _fPos$[ebp+eax]
	push	ecx
	lea	ecx, DWORD PTR _bsData$[ebp]
	call	??$Read@M@BitStream@RakNet@@QAE_NAAM@Z	; RakNet::BitStream::Read<float>

; 668  : 	bsData.Read(byteIcon);

	lea	eax, DWORD PTR _byteIcon$[ebp]
	push	eax
	lea	ecx, DWORD PTR _bsData$[ebp]
	call	??$Read@E@BitStream@RakNet@@QAE_NAAE@Z	; RakNet::BitStream::Read<unsigned char>

; 669  : 	bsData.Read(byteColor);

	lea	eax, DWORD PTR _byteColor$[ebp]
	push	eax
	lea	ecx, DWORD PTR _bsData$[ebp]
	call	??$Read@K@BitStream@RakNet@@QAE_NAAK@Z	; RakNet::BitStream::Read<unsigned long>

; 670  : 
; 671  : 	pNetGame->SetMapIcon(byteIndex, fPos[0], fPos[1], fPos[2], byteIcon, byteColor);

	mov	eax, DWORD PTR _byteColor$[ebp]
	push	eax
	movzx	ecx, BYTE PTR _byteIcon$[ebp]
	push	ecx
	mov	edx, 4
	shl	edx, 1
	push	ecx
	movss	xmm0, DWORD PTR _fPos$[ebp+edx]
	movss	DWORD PTR [esp], xmm0
	mov	eax, 4
	shl	eax, 0
	push	ecx
	movss	xmm0, DWORD PTR _fPos$[ebp+eax]
	movss	DWORD PTR [esp], xmm0
	mov	ecx, 4
	imul	edx, ecx, 0
	push	ecx
	movss	xmm0, DWORD PTR _fPos$[ebp+edx]
	movss	DWORD PTR [esp], xmm0
	movzx	eax, BYTE PTR _byteIndex$[ebp]
	push	eax
	mov	ecx, DWORD PTR ?pNetGame@@3PAVCNetGame@@A ; pNetGame
	call	?SetMapIcon@CNetGame@@QAEXEMMMEK@Z	; CNetGame::SetMapIcon

; 672  : }

	mov	DWORD PTR __$EHRec$[ebp+8], -1
	lea	ecx, DWORD PTR _bsData$[ebp]
	call	??1BitStream@RakNet@@QAE@XZ		; RakNet::BitStream::~BitStream
	push	edx
	mov	ecx, ebp
	push	eax
	lea	edx, DWORD PTR $LN12@ScrSetMapI
	call	@_RTC_CheckStackVars@8
	pop	eax
	pop	edx
	mov	ecx, DWORD PTR __$EHRec$[ebp]
	mov	DWORD PTR fs:0, ecx
	pop	ecx
	pop	edi
	pop	esi
	pop	ebx
	mov	ecx, DWORD PTR __$ArrayPad$[ebp]
	xor	ecx, ebp
	call	@__security_check_cookie@4
	add	esp, 588				; 0000024cH
	cmp	ebp, esp
	call	__RTC_CheckEsp
	mov	esp, ebp
	pop	ebp
	ret	0
$LN12@ScrSetMapI:
	DD	6
	DD	$LN11@ScrSetMapI
$LN11@ScrSetMapI:
	DD	-52					; ffffffccH
	DD	6
	DD	$LN4@ScrSetMapI
	DD	-336					; fffffeb0H
	DD	273					; 00000111H
	DD	$LN5@ScrSetMapI
	DD	-345					; fffffea7H
	DD	1
	DD	$LN6@ScrSetMapI
	DD	-357					; fffffe9bH
	DD	1
	DD	$LN7@ScrSetMapI
	DD	-372					; fffffe8cH
	DD	4
	DD	$LN8@ScrSetMapI
	DD	-392					; fffffe78H
	DD	12					; 0000000cH
	DD	$LN9@ScrSetMapI
$LN9@ScrSetMapI:
	DB	102					; 00000066H
	DB	80					; 00000050H
	DB	111					; 0000006fH
	DB	115					; 00000073H
	DB	0
$LN8@ScrSetMapI:
	DB	98					; 00000062H
	DB	121					; 00000079H
	DB	116					; 00000074H
	DB	101					; 00000065H
	DB	67					; 00000043H
	DB	111					; 0000006fH
	DB	108					; 0000006cH
	DB	111					; 0000006fH
	DB	114					; 00000072H
	DB	0
$LN7@ScrSetMapI:
	DB	98					; 00000062H
	DB	121					; 00000079H
	DB	116					; 00000074H
	DB	101					; 00000065H
	DB	73					; 00000049H
	DB	99					; 00000063H
	DB	111					; 0000006fH
	DB	110					; 0000006eH
	DB	0
$LN6@ScrSetMapI:
	DB	98					; 00000062H
	DB	121					; 00000079H
	DB	116					; 00000074H
	DB	101					; 00000065H
	DB	73					; 00000049H
	DB	110					; 0000006eH
	DB	100					; 00000064H
	DB	101					; 00000065H
	DB	120					; 00000078H
	DB	0
$LN5@ScrSetMapI:
	DB	98					; 00000062H
	DB	115					; 00000073H
	DB	68					; 00000044H
	DB	97					; 00000061H
	DB	116					; 00000074H
	DB	97					; 00000061H
	DB	0
$LN4@ScrSetMapI:
	DB	115					; 00000073H
	DB	101					; 00000065H
	DB	110					; 0000006eH
	DB	100					; 00000064H
	DB	101					; 00000065H
	DB	114					; 00000072H
	DB	0
_TEXT	ENDS
;	COMDAT text$x
text$x	SEGMENT
__unwindfunclet$?ScrSetMapIcon@@YAXPAURPCParameters@@@Z$0:
	lea	ecx, DWORD PTR _bsData$[ebp]
	jmp	??1BitStream@RakNet@@QAE@XZ		; RakNet::BitStream::~BitStream
__ehhandler$?ScrSetMapIcon@@YAXPAURPCParameters@@@Z:
	mov	edx, DWORD PTR [esp+8]
	lea	eax, DWORD PTR [edx+12]
	mov	ecx, DWORD PTR [edx-592]
	xor	ecx, eax
	call	@__security_check_cookie@4
	mov	ecx, DWORD PTR [edx-4]
	xor	ecx, eax
	call	@__security_check_cookie@4
	mov	eax, OFFSET __ehfuncinfo$?ScrSetMapIcon@@YAXPAURPCParameters@@@Z
	jmp	___CxxFrameHandler3
text$x	ENDS
?ScrSetMapIcon@@YAXPAURPCParameters@@@Z ENDP		; ScrSetMapIcon
; Function compile flags: /Odtp /RTCsu /ZI
; File z:\sampsrc\02xu1\saco\net\scriptrpc.cpp
;	COMDAT ?ScrDeathMessage@@YAXPAURPCParameters@@@Z
_TEXT	SEGMENT
_dwKilleeColor$ = -432					; size = 4
_dwKillerColor$ = -420					; size = 4
_szKilleeName$ = -408					; size = 4
_szKillerName$ = -396					; size = 4
_pPlayerPool$ = -384					; size = 4
_bsData$ = -372						; size = 273
_byteWeapon$ = -85					; size = 1
_byteKillee$ = -73					; size = 1
_byteKiller$ = -61					; size = 1
_sender$ = -52						; size = 6
_iBitLength$ = -36					; size = 4
_Data$ = -24						; size = 4
__$ArrayPad$ = -16					; size = 4
__$EHRec$ = -12						; size = 12
_rpcParams$ = 8						; size = 4
?ScrDeathMessage@@YAXPAURPCParameters@@@Z PROC		; ScrDeathMessage, COMDAT

; 593  : {

	push	ebp
	mov	ebp, esp
	push	-1
	push	__ehhandler$?ScrDeathMessage@@YAXPAURPCParameters@@@Z
	mov	eax, DWORD PTR fs:0
	push	eax
	sub	esp, 616				; 00000268H
	push	ebx
	push	esi
	push	edi
	lea	edi, DWORD PTR [ebp-628]
	mov	ecx, 154				; 0000009aH
	mov	eax, -858993460				; ccccccccH
	rep stosd
	mov	eax, DWORD PTR ___security_cookie
	xor	eax, ebp
	mov	DWORD PTR __$ArrayPad$[ebp], eax
	push	eax
	lea	eax, DWORD PTR __$EHRec$[ebp]
	mov	DWORD PTR fs:0, eax

; 594  : 	PCHAR Data = reinterpret_cast<PCHAR>(rpcParams->input);

	mov	eax, DWORD PTR _rpcParams$[ebp]
	mov	ecx, DWORD PTR [eax]
	mov	DWORD PTR _Data$[ebp], ecx

; 595  : 	int iBitLength = rpcParams->numberOfBitsOfData;

	mov	eax, DWORD PTR _rpcParams$[ebp]
	mov	ecx, DWORD PTR [eax+4]
	mov	DWORD PTR _iBitLength$[ebp], ecx

; 596  : 	PlayerID sender = rpcParams->sender;

	mov	eax, DWORD PTR _rpcParams$[ebp]
	add	eax, 8
	mov	ecx, DWORD PTR [eax]
	mov	DWORD PTR _sender$[ebp], ecx
	mov	dx, WORD PTR [eax+4]
	mov	WORD PTR _sender$[ebp+4], dx

; 597  : 
; 598  : 	BYTE byteKiller, byteKillee, byteWeapon;
; 599  : 	RakNet::BitStream bsData(Data,(iBitLength/8)+1,false);

	push	0
	mov	eax, DWORD PTR _iBitLength$[ebp]
	cdq
	and	edx, 7
	add	eax, edx
	sar	eax, 3
	add	eax, 1
	push	eax
	mov	eax, DWORD PTR _Data$[ebp]
	push	eax
	lea	ecx, DWORD PTR _bsData$[ebp]
	call	??0BitStream@RakNet@@QAE@PADI_N@Z	; RakNet::BitStream::BitStream
	mov	DWORD PTR __$EHRec$[ebp+8], 0

; 600  : 	CPlayerPool *pPlayerPool = pNetGame->GetPlayerPool();

	mov	ecx, DWORD PTR ?pNetGame@@3PAVCNetGame@@A ; pNetGame
	call	?GetPlayerPool@CNetGame@@QAEPAVCPlayerPool@@XZ ; CNetGame::GetPlayerPool
	mov	DWORD PTR _pPlayerPool$[ebp], eax

; 601  : 	PCHAR szKillerName = NULL;

	mov	DWORD PTR _szKillerName$[ebp], 0

; 602  : 	PCHAR szKilleeName = NULL;

	mov	DWORD PTR _szKilleeName$[ebp], 0

; 603  : 	DWORD dwKillerColor = 0;

	mov	DWORD PTR _dwKillerColor$[ebp], 0

; 604  : 	DWORD dwKilleeColor = 0;

	mov	DWORD PTR _dwKilleeColor$[ebp], 0

; 605  : 
; 606  : 	bsData.Read(byteKiller);

	lea	eax, DWORD PTR _byteKiller$[ebp]
	push	eax
	lea	ecx, DWORD PTR _bsData$[ebp]
	call	??$Read@E@BitStream@RakNet@@QAE_NAAE@Z	; RakNet::BitStream::Read<unsigned char>

; 607  : 	bsData.Read(byteKillee);

	lea	eax, DWORD PTR _byteKillee$[ebp]
	push	eax
	lea	ecx, DWORD PTR _bsData$[ebp]
	call	??$Read@E@BitStream@RakNet@@QAE_NAAE@Z	; RakNet::BitStream::Read<unsigned char>

; 608  : 	bsData.Read(byteWeapon);

	lea	eax, DWORD PTR _byteWeapon$[ebp]
	push	eax
	lea	ecx, DWORD PTR _bsData$[ebp]
	call	??$Read@E@BitStream@RakNet@@QAE_NAAE@Z	; RakNet::BitStream::Read<unsigned char>

; 609  : 
; 610  : 	//pChatWindow->AddDebugMessage("RawDeath: %u %u %u",byteKiller,byteKillee,byteWeapon);
; 611  : 
; 612  : 	if(byteKillee == INVALID_PLAYER_ID) return;

	movzx	eax, BYTE PTR _byteKillee$[ebp]
	cmp	eax, 255				; 000000ffH
	jne	SHORT $LN12@ScrDeathMe
	mov	DWORD PTR __$EHRec$[ebp+8], -1
	lea	ecx, DWORD PTR _bsData$[ebp]
	call	??1BitStream@RakNet@@QAE@XZ		; RakNet::BitStream::~BitStream
	jmp	$LN13@ScrDeathMe
$LN12@ScrDeathMe:

; 613  : 
; 614  : 	// Determine the killer's name and color
; 615  : 	if(byteKiller == INVALID_PLAYER_ID) {

	movzx	eax, BYTE PTR _byteKiller$[ebp]
	cmp	eax, 255				; 000000ffH
	jne	SHORT $LN11@ScrDeathMe

; 616  : 		szKillerName = NULL; dwKillerColor = 0;

	mov	DWORD PTR _szKillerName$[ebp], 0
	mov	DWORD PTR _dwKillerColor$[ebp], 0

; 617  : 	} else {

	jmp	$LN10@ScrDeathMe
$LN11@ScrDeathMe:

; 618  : 		if(pPlayerPool->GetLocalPlayerID() == byteKiller) {

	mov	ecx, DWORD PTR _pPlayerPool$[ebp]
	call	?GetLocalPlayerID@CPlayerPool@@QAEEXZ	; CPlayerPool::GetLocalPlayerID
	movzx	eax, al
	movzx	ecx, BYTE PTR _byteKiller$[ebp]
	cmp	eax, ecx
	jne	SHORT $LN9@ScrDeathMe

; 619  : 			szKillerName = pPlayerPool->GetLocalPlayerName();

	mov	ecx, DWORD PTR _pPlayerPool$[ebp]
	call	?GetLocalPlayerName@CPlayerPool@@QAEPADXZ ; CPlayerPool::GetLocalPlayerName
	mov	DWORD PTR _szKillerName$[ebp], eax

; 620  : 			dwKillerColor = pPlayerPool->GetLocalPlayer()->GetPlayerColorAsARGB();

	mov	ecx, DWORD PTR _pPlayerPool$[ebp]
	call	?GetLocalPlayer@CPlayerPool@@QAEPAVCLocalPlayer@@XZ ; CPlayerPool::GetLocalPlayer
	mov	ecx, eax
	call	?GetPlayerColorAsARGB@CLocalPlayer@@QAEKXZ ; CLocalPlayer::GetPlayerColorAsARGB
	mov	DWORD PTR _dwKillerColor$[ebp], eax

; 621  : 		} else {

	jmp	SHORT $LN10@ScrDeathMe
$LN9@ScrDeathMe:

; 622  : 			if(pPlayerPool->GetSlotState(byteKiller)) {

	movzx	eax, BYTE PTR _byteKiller$[ebp]
	push	eax
	mov	ecx, DWORD PTR _pPlayerPool$[ebp]
	call	?GetSlotState@CPlayerPool@@QAEHE@Z	; CPlayerPool::GetSlotState
	test	eax, eax
	je	SHORT $LN7@ScrDeathMe

; 623  : 				szKillerName = pPlayerPool->GetPlayerName(byteKiller);

	movzx	eax, BYTE PTR _byteKiller$[ebp]
	push	eax
	mov	ecx, DWORD PTR _pPlayerPool$[ebp]
	call	?GetPlayerName@CPlayerPool@@QAEPADE@Z	; CPlayerPool::GetPlayerName
	mov	DWORD PTR _szKillerName$[ebp], eax

; 624  : 				dwKillerColor = pPlayerPool->GetAt(byteKiller)->GetPlayerColorAsARGB();

	movzx	eax, BYTE PTR _byteKiller$[ebp]
	push	eax
	mov	ecx, DWORD PTR _pPlayerPool$[ebp]
	call	?GetAt@CPlayerPool@@QAEPAVCRemotePlayer@@E@Z ; CPlayerPool::GetAt
	mov	ecx, eax
	call	?GetPlayerColorAsARGB@CRemotePlayer@@QAEKXZ ; CRemotePlayer::GetPlayerColorAsARGB
	mov	DWORD PTR _dwKillerColor$[ebp], eax

; 625  : 			} else {

	jmp	SHORT $LN10@ScrDeathMe
$LN7@ScrDeathMe:

; 626  : 				//pChatWindow->AddDebugMessage("Slot State Killer FALSE");
; 627  : 				szKillerName = NULL; dwKillerColor = 0;

	mov	DWORD PTR _szKillerName$[ebp], 0
	mov	DWORD PTR _dwKillerColor$[ebp], 0
$LN10@ScrDeathMe:

; 628  : 			}
; 629  : 		}
; 630  : 	}
; 631  : 
; 632  : 	// Determine the killee's name and color
; 633  : 	if(pPlayerPool->GetLocalPlayerID() == byteKillee) {

	mov	ecx, DWORD PTR _pPlayerPool$[ebp]
	call	?GetLocalPlayerID@CPlayerPool@@QAEEXZ	; CPlayerPool::GetLocalPlayerID
	movzx	eax, al
	movzx	ecx, BYTE PTR _byteKillee$[ebp]
	cmp	eax, ecx
	jne	SHORT $LN5@ScrDeathMe

; 634  : 		szKilleeName = pPlayerPool->GetLocalPlayerName();

	mov	ecx, DWORD PTR _pPlayerPool$[ebp]
	call	?GetLocalPlayerName@CPlayerPool@@QAEPADXZ ; CPlayerPool::GetLocalPlayerName
	mov	DWORD PTR _szKilleeName$[ebp], eax

; 635  : 		dwKilleeColor = pPlayerPool->GetLocalPlayer()->GetPlayerColorAsARGB();

	mov	ecx, DWORD PTR _pPlayerPool$[ebp]
	call	?GetLocalPlayer@CPlayerPool@@QAEPAVCLocalPlayer@@XZ ; CPlayerPool::GetLocalPlayer
	mov	ecx, eax
	call	?GetPlayerColorAsARGB@CLocalPlayer@@QAEKXZ ; CLocalPlayer::GetPlayerColorAsARGB
	mov	DWORD PTR _dwKilleeColor$[ebp], eax

; 636  : 	} else {

	jmp	SHORT $LN4@ScrDeathMe
$LN5@ScrDeathMe:

; 637  : 		if(pPlayerPool->GetSlotState(byteKillee)) {

	movzx	eax, BYTE PTR _byteKillee$[ebp]
	push	eax
	mov	ecx, DWORD PTR _pPlayerPool$[ebp]
	call	?GetSlotState@CPlayerPool@@QAEHE@Z	; CPlayerPool::GetSlotState
	test	eax, eax
	je	SHORT $LN3@ScrDeathMe

; 638  : 			szKilleeName = pPlayerPool->GetPlayerName(byteKillee);

	movzx	eax, BYTE PTR _byteKillee$[ebp]
	push	eax
	mov	ecx, DWORD PTR _pPlayerPool$[ebp]
	call	?GetPlayerName@CPlayerPool@@QAEPADE@Z	; CPlayerPool::GetPlayerName
	mov	DWORD PTR _szKilleeName$[ebp], eax

; 639  : 			dwKilleeColor = pPlayerPool->GetAt(byteKillee)->GetPlayerColorAsARGB();

	movzx	eax, BYTE PTR _byteKillee$[ebp]
	push	eax
	mov	ecx, DWORD PTR _pPlayerPool$[ebp]
	call	?GetAt@CPlayerPool@@QAEPAVCRemotePlayer@@E@Z ; CPlayerPool::GetAt
	mov	ecx, eax
	call	?GetPlayerColorAsARGB@CRemotePlayer@@QAEKXZ ; CRemotePlayer::GetPlayerColorAsARGB
	mov	DWORD PTR _dwKilleeColor$[ebp], eax

; 640  : 		} else {

	jmp	SHORT $LN4@ScrDeathMe
$LN3@ScrDeathMe:

; 641  : 			//pChatWindow->AddDebugMessage("Slot State Killee FALSE");
; 642  : 			szKilleeName = NULL; dwKilleeColor = 0;

	mov	DWORD PTR _szKilleeName$[ebp], 0
	mov	DWORD PTR _dwKilleeColor$[ebp], 0
$LN4@ScrDeathMe:

; 643  : 		}
; 644  : 	}
; 645  : 
; 646  : 	if(pDeathWindow) pDeathWindow->AddMessage(szKillerName,szKilleeName,dwKillerColor,dwKilleeColor,byteWeapon);

	cmp	DWORD PTR ?pDeathWindow@@3PAVCDeathWindow@@A, 0 ; pDeathWindow
	je	SHORT $LN1@ScrDeathMe
	movzx	eax, BYTE PTR _byteWeapon$[ebp]
	push	eax
	mov	ecx, DWORD PTR _dwKilleeColor$[ebp]
	push	ecx
	mov	edx, DWORD PTR _dwKillerColor$[ebp]
	push	edx
	mov	eax, DWORD PTR _szKilleeName$[ebp]
	push	eax
	mov	ecx, DWORD PTR _szKillerName$[ebp]
	push	ecx
	mov	ecx, DWORD PTR ?pDeathWindow@@3PAVCDeathWindow@@A ; pDeathWindow
	call	?AddMessage@CDeathWindow@@QAEXPAD0KKE@Z	; CDeathWindow::AddMessage
$LN1@ScrDeathMe:

; 647  : }

	mov	DWORD PTR __$EHRec$[ebp+8], -1
	lea	ecx, DWORD PTR _bsData$[ebp]
	call	??1BitStream@RakNet@@QAE@XZ		; RakNet::BitStream::~BitStream
$LN13@ScrDeathMe:
	push	edx
	mov	ecx, ebp
	push	eax
	lea	edx, DWORD PTR $LN23@ScrDeathMe
	call	@_RTC_CheckStackVars@8
	pop	eax
	pop	edx
	mov	ecx, DWORD PTR __$EHRec$[ebp]
	mov	DWORD PTR fs:0, ecx
	pop	ecx
	pop	edi
	pop	esi
	pop	ebx
	mov	ecx, DWORD PTR __$ArrayPad$[ebp]
	xor	ecx, ebp
	call	@__security_check_cookie@4
	add	esp, 628				; 00000274H
	cmp	ebp, esp
	call	__RTC_CheckEsp
	mov	esp, ebp
	pop	ebp
	ret	0
	npad	3
$LN23@ScrDeathMe:
	DD	5
	DD	$LN22@ScrDeathMe
$LN22@ScrDeathMe:
	DD	-52					; ffffffccH
	DD	6
	DD	$LN16@ScrDeathMe
	DD	-61					; ffffffc3H
	DD	1
	DD	$LN17@ScrDeathMe
	DD	-73					; ffffffb7H
	DD	1
	DD	$LN18@ScrDeathMe
	DD	-85					; ffffffabH
	DD	1
	DD	$LN19@ScrDeathMe
	DD	-372					; fffffe8cH
	DD	273					; 00000111H
	DD	$LN20@ScrDeathMe
$LN20@ScrDeathMe:
	DB	98					; 00000062H
	DB	115					; 00000073H
	DB	68					; 00000044H
	DB	97					; 00000061H
	DB	116					; 00000074H
	DB	97					; 00000061H
	DB	0
$LN19@ScrDeathMe:
	DB	98					; 00000062H
	DB	121					; 00000079H
	DB	116					; 00000074H
	DB	101					; 00000065H
	DB	87					; 00000057H
	DB	101					; 00000065H
	DB	97					; 00000061H
	DB	112					; 00000070H
	DB	111					; 0000006fH
	DB	110					; 0000006eH
	DB	0
$LN18@ScrDeathMe:
	DB	98					; 00000062H
	DB	121					; 00000079H
	DB	116					; 00000074H
	DB	101					; 00000065H
	DB	75					; 0000004bH
	DB	105					; 00000069H
	DB	108					; 0000006cH
	DB	108					; 0000006cH
	DB	101					; 00000065H
	DB	101					; 00000065H
	DB	0
$LN17@ScrDeathMe:
	DB	98					; 00000062H
	DB	121					; 00000079H
	DB	116					; 00000074H
	DB	101					; 00000065H
	DB	75					; 0000004bH
	DB	105					; 00000069H
	DB	108					; 0000006cH
	DB	108					; 0000006cH
	DB	101					; 00000065H
	DB	114					; 00000072H
	DB	0
$LN16@ScrDeathMe:
	DB	115					; 00000073H
	DB	101					; 00000065H
	DB	110					; 0000006eH
	DB	100					; 00000064H
	DB	101					; 00000065H
	DB	114					; 00000072H
	DB	0
_TEXT	ENDS
;	COMDAT text$x
text$x	SEGMENT
__unwindfunclet$?ScrDeathMessage@@YAXPAURPCParameters@@@Z$0:
	lea	ecx, DWORD PTR _bsData$[ebp]
	jmp	??1BitStream@RakNet@@QAE@XZ		; RakNet::BitStream::~BitStream
__ehhandler$?ScrDeathMessage@@YAXPAURPCParameters@@@Z:
	mov	edx, DWORD PTR [esp+8]
	lea	eax, DWORD PTR [edx+12]
	mov	ecx, DWORD PTR [edx-632]
	xor	ecx, eax
	call	@__security_check_cookie@4
	mov	ecx, DWORD PTR [edx-4]
	xor	ecx, eax
	call	@__security_check_cookie@4
	mov	eax, OFFSET __ehfuncinfo$?ScrDeathMessage@@YAXPAURPCParameters@@@Z
	jmp	___CxxFrameHandler3
text$x	ENDS
?ScrDeathMessage@@YAXPAURPCParameters@@@Z ENDP		; ScrDeathMessage
; Function compile flags: /Odtp /RTCsu /ZI
; File z:\sampsrc\02xu1\saco\net\scriptrpc.cpp
;	COMDAT ?ScrRespawnVehicle@@YAXPAURPCParameters@@@Z
_TEXT	SEGMENT
_mat$2 = -456						; size = 64
_pVehicle$ = -384					; size = 4
_pVehiclePool$ = -372					; size = 4
_pPlayerPed$ = -360					; size = 4
_bsData$ = -348						; size = 273
_VehicleID$ = -64					; size = 2
_sender$ = -52						; size = 6
_iBitLength$ = -36					; size = 4
_Data$ = -24						; size = 4
__$ArrayPad$ = -16					; size = 4
__$EHRec$ = -12						; size = 12
_rpcParams$ = 8						; size = 4
?ScrRespawnVehicle@@YAXPAURPCParameters@@@Z PROC	; ScrRespawnVehicle, COMDAT

; 564  : {

	push	ebp
	mov	ebp, esp
	push	-1
	push	__ehhandler$?ScrRespawnVehicle@@YAXPAURPCParameters@@@Z
	mov	eax, DWORD PTR fs:0
	push	eax
	sub	esp, 640				; 00000280H
	push	ebx
	push	esi
	push	edi
	lea	edi, DWORD PTR [ebp-652]
	mov	ecx, 160				; 000000a0H
	mov	eax, -858993460				; ccccccccH
	rep stosd
	mov	eax, DWORD PTR ___security_cookie
	xor	eax, ebp
	mov	DWORD PTR __$ArrayPad$[ebp], eax
	push	eax
	lea	eax, DWORD PTR __$EHRec$[ebp]
	mov	DWORD PTR fs:0, eax

; 565  : 	PCHAR Data = reinterpret_cast<PCHAR>(rpcParams->input);

	mov	eax, DWORD PTR _rpcParams$[ebp]
	mov	ecx, DWORD PTR [eax]
	mov	DWORD PTR _Data$[ebp], ecx

; 566  : 	int iBitLength = rpcParams->numberOfBitsOfData;

	mov	eax, DWORD PTR _rpcParams$[ebp]
	mov	ecx, DWORD PTR [eax+4]
	mov	DWORD PTR _iBitLength$[ebp], ecx

; 567  : 	PlayerID sender = rpcParams->sender;

	mov	eax, DWORD PTR _rpcParams$[ebp]
	add	eax, 8
	mov	ecx, DWORD PTR [eax]
	mov	DWORD PTR _sender$[ebp], ecx
	mov	dx, WORD PTR [eax+4]
	mov	WORD PTR _sender$[ebp+4], dx

; 568  : 
; 569  : 	VEHICLEID VehicleID;
; 570  : 	RakNet::BitStream bsData(Data,(iBitLength/8)+1,false);

	push	0
	mov	eax, DWORD PTR _iBitLength$[ebp]
	cdq
	and	edx, 7
	add	eax, edx
	sar	eax, 3
	add	eax, 1
	push	eax
	mov	eax, DWORD PTR _Data$[ebp]
	push	eax
	lea	ecx, DWORD PTR _bsData$[ebp]
	call	??0BitStream@RakNet@@QAE@PADI_N@Z	; RakNet::BitStream::BitStream
	mov	DWORD PTR __$EHRec$[ebp+8], 0

; 571  : 	bsData.Read(VehicleID);

	lea	eax, DWORD PTR _VehicleID$[ebp]
	push	eax
	lea	ecx, DWORD PTR _bsData$[ebp]
	call	??$Read@G@BitStream@RakNet@@QAE_NAAG@Z	; RakNet::BitStream::Read<unsigned short>

; 572  : 
; 573  : 	CPlayerPed *pPlayerPed = pNetGame->GetPlayerPool()->GetLocalPlayer()->GetPlayerPed();	

	mov	ecx, DWORD PTR ?pNetGame@@3PAVCNetGame@@A ; pNetGame
	call	?GetPlayerPool@CNetGame@@QAEPAVCPlayerPool@@XZ ; CNetGame::GetPlayerPool
	mov	ecx, eax
	call	?GetLocalPlayer@CPlayerPool@@QAEPAVCLocalPlayer@@XZ ; CPlayerPool::GetLocalPlayer
	mov	ecx, eax
	call	?GetPlayerPed@CLocalPlayer@@QAEPAVCPlayerPed@@XZ ; CLocalPlayer::GetPlayerPed
	mov	DWORD PTR _pPlayerPed$[ebp], eax

; 574  : 	CVehiclePool *pVehiclePool = pNetGame->GetVehiclePool();

	mov	ecx, DWORD PTR ?pNetGame@@3PAVCNetGame@@A ; pNetGame
	call	?GetVehiclePool@CNetGame@@QAEPAVCVehiclePool@@XZ ; CNetGame::GetVehiclePool
	mov	DWORD PTR _pVehiclePool$[ebp], eax

; 575  : 	CVehicle *pVehicle = pVehiclePool->GetAt(VehicleID);

	movzx	eax, WORD PTR _VehicleID$[ebp]
	push	eax
	mov	ecx, DWORD PTR _pVehiclePool$[ebp]
	call	?GetAt@CVehiclePool@@QAEPAVCVehicle@@G@Z ; CVehiclePool::GetAt
	mov	DWORD PTR _pVehicle$[ebp], eax

; 576  : 
; 577  : 	if(pVehicle) {

	cmp	DWORD PTR _pVehicle$[ebp], 0
	je	$LN2@ScrRespawn

; 578  : 		if( (pPlayerPed->m_pPed) &&
; 579  : 			(pPlayerPed->m_pPed->pVehicle == (DWORD)pVehicle->m_pVehicle) ) {

	mov	eax, DWORD PTR _pPlayerPed$[ebp]
	cmp	DWORD PTR [eax+28], 0
	je	SHORT $LN1@ScrRespawn
	mov	eax, DWORD PTR _pPlayerPed$[ebp]
	mov	ecx, DWORD PTR [eax+28]
	mov	edx, DWORD PTR _pVehicle$[ebp]
	mov	eax, DWORD PTR [ecx+1420]
	cmp	eax, DWORD PTR [edx+16]
	jne	SHORT $LN1@ScrRespawn

; 580  : 			MATRIX4X4 mat;
; 581  : 			pPlayerPed->GetMatrix(&mat);

	lea	eax, DWORD PTR _mat$2[ebp]
	push	eax
	mov	ecx, DWORD PTR _pPlayerPed$[ebp]
	call	?GetMatrix@CEntity@@QAEXPAU_MATRIX4X4@@@Z ; CEntity::GetMatrix

; 582  : 			pPlayerPed->RemoveFromVehicleAndPutAt(mat.pos.X,mat.pos.Y,mat.pos.Z + 1.0f);	

	movss	xmm0, DWORD PTR _mat$2[ebp+56]
	addss	xmm0, DWORD PTR __real@3f800000
	push	ecx
	movss	DWORD PTR [esp], xmm0
	push	ecx
	movss	xmm0, DWORD PTR _mat$2[ebp+52]
	movss	DWORD PTR [esp], xmm0
	push	ecx
	movss	xmm0, DWORD PTR _mat$2[ebp+48]
	movss	DWORD PTR [esp], xmm0
	mov	ecx, DWORD PTR _pPlayerPed$[ebp]
	call	?RemoveFromVehicleAndPutAt@CPlayerPed@@QAEXMMM@Z ; CPlayerPed::RemoveFromVehicleAndPutAt
$LN1@ScrRespawn:

; 583  : 		}
; 584  : 
; 585  : 		pVehiclePool->SetForRespawn(VehicleID);

	push	1
	movzx	eax, WORD PTR _VehicleID$[ebp]
	push	eax
	mov	ecx, DWORD PTR _pVehiclePool$[ebp]
	call	?SetForRespawn@CVehiclePool@@QAEXGH@Z	; CVehiclePool::SetForRespawn
$LN2@ScrRespawn:

; 586  : 	}
; 587  : 		
; 588  : }

	mov	DWORD PTR __$EHRec$[ebp+8], -1
	lea	ecx, DWORD PTR _bsData$[ebp]
	call	??1BitStream@RakNet@@QAE@XZ		; RakNet::BitStream::~BitStream
	push	edx
	mov	ecx, ebp
	push	eax
	lea	edx, DWORD PTR $LN12@ScrRespawn
	call	@_RTC_CheckStackVars@8
	pop	eax
	pop	edx
	mov	ecx, DWORD PTR __$EHRec$[ebp]
	mov	DWORD PTR fs:0, ecx
	pop	ecx
	pop	edi
	pop	esi
	pop	ebx
	mov	ecx, DWORD PTR __$ArrayPad$[ebp]
	xor	ecx, ebp
	call	@__security_check_cookie@4
	add	esp, 652				; 0000028cH
	cmp	ebp, esp
	call	__RTC_CheckEsp
	mov	esp, ebp
	pop	ebp
	ret	0
	npad	3
$LN12@ScrRespawn:
	DD	4
	DD	$LN11@ScrRespawn
$LN11@ScrRespawn:
	DD	-52					; ffffffccH
	DD	6
	DD	$LN6@ScrRespawn
	DD	-64					; ffffffc0H
	DD	2
	DD	$LN7@ScrRespawn
	DD	-348					; fffffea4H
	DD	273					; 00000111H
	DD	$LN8@ScrRespawn
	DD	-456					; fffffe38H
	DD	64					; 00000040H
	DD	$LN9@ScrRespawn
$LN9@ScrRespawn:
	DB	109					; 0000006dH
	DB	97					; 00000061H
	DB	116					; 00000074H
	DB	0
$LN8@ScrRespawn:
	DB	98					; 00000062H
	DB	115					; 00000073H
	DB	68					; 00000044H
	DB	97					; 00000061H
	DB	116					; 00000074H
	DB	97					; 00000061H
	DB	0
$LN7@ScrRespawn:
	DB	86					; 00000056H
	DB	101					; 00000065H
	DB	104					; 00000068H
	DB	105					; 00000069H
	DB	99					; 00000063H
	DB	108					; 0000006cH
	DB	101					; 00000065H
	DB	73					; 00000049H
	DB	68					; 00000044H
	DB	0
$LN6@ScrRespawn:
	DB	115					; 00000073H
	DB	101					; 00000065H
	DB	110					; 0000006eH
	DB	100					; 00000064H
	DB	101					; 00000065H
	DB	114					; 00000072H
	DB	0
_TEXT	ENDS
;	COMDAT text$x
text$x	SEGMENT
__unwindfunclet$?ScrRespawnVehicle@@YAXPAURPCParameters@@@Z$0:
	lea	ecx, DWORD PTR _bsData$[ebp]
	jmp	??1BitStream@RakNet@@QAE@XZ		; RakNet::BitStream::~BitStream
__ehhandler$?ScrRespawnVehicle@@YAXPAURPCParameters@@@Z:
	mov	edx, DWORD PTR [esp+8]
	lea	eax, DWORD PTR [edx+12]
	mov	ecx, DWORD PTR [edx-656]
	xor	ecx, eax
	call	@__security_check_cookie@4
	mov	ecx, DWORD PTR [edx-4]
	xor	ecx, eax
	call	@__security_check_cookie@4
	mov	eax, OFFSET __ehfuncinfo$?ScrRespawnVehicle@@YAXPAURPCParameters@@@Z
	jmp	___CxxFrameHandler3
text$x	ENDS
?ScrRespawnVehicle@@YAXPAURPCParameters@@@Z ENDP	; ScrRespawnVehicle
; Function compile flags: /Odtp /RTCsu /ZI
; File z:\sampsrc\02xu1\saco\net\scriptrpc.cpp
;	COMDAT ?ScrGivePlayerWeapon@@YAXPAURPCParameters@@@Z
_TEXT	SEGMENT
_pPlayerPed$ = -372					; size = 4
_bsData$ = -360						; size = 273
_iAmmo$ = -76						; size = 4
_iWeaponID$ = -64					; size = 4
_sender$ = -52						; size = 6
_iBitLength$ = -36					; size = 4
_Data$ = -24						; size = 4
__$ArrayPad$ = -16					; size = 4
__$EHRec$ = -12						; size = 12
_rpcParams$ = 8						; size = 4
?ScrGivePlayerWeapon@@YAXPAURPCParameters@@@Z PROC	; ScrGivePlayerWeapon, COMDAT

; 545  : {

	push	ebp
	mov	ebp, esp
	push	-1
	push	__ehhandler$?ScrGivePlayerWeapon@@YAXPAURPCParameters@@@Z
	mov	eax, DWORD PTR fs:0
	push	eax
	sub	esp, 556				; 0000022cH
	push	ebx
	push	esi
	push	edi
	lea	edi, DWORD PTR [ebp-568]
	mov	ecx, 139				; 0000008bH
	mov	eax, -858993460				; ccccccccH
	rep stosd
	mov	eax, DWORD PTR ___security_cookie
	xor	eax, ebp
	mov	DWORD PTR __$ArrayPad$[ebp], eax
	push	eax
	lea	eax, DWORD PTR __$EHRec$[ebp]
	mov	DWORD PTR fs:0, eax

; 546  : 	PCHAR Data = reinterpret_cast<PCHAR>(rpcParams->input);

	mov	eax, DWORD PTR _rpcParams$[ebp]
	mov	ecx, DWORD PTR [eax]
	mov	DWORD PTR _Data$[ebp], ecx

; 547  : 	int iBitLength = rpcParams->numberOfBitsOfData;

	mov	eax, DWORD PTR _rpcParams$[ebp]
	mov	ecx, DWORD PTR [eax+4]
	mov	DWORD PTR _iBitLength$[ebp], ecx

; 548  : 	PlayerID sender = rpcParams->sender;

	mov	eax, DWORD PTR _rpcParams$[ebp]
	add	eax, 8
	mov	ecx, DWORD PTR [eax]
	mov	DWORD PTR _sender$[ebp], ecx
	mov	dx, WORD PTR [eax+4]
	mov	WORD PTR _sender$[ebp+4], dx

; 549  : 
; 550  : 	int iWeaponID;
; 551  : 	int iAmmo;
; 552  : 	RakNet::BitStream bsData(Data,(iBitLength/8)+1,false);

	push	0
	mov	eax, DWORD PTR _iBitLength$[ebp]
	cdq
	and	edx, 7
	add	eax, edx
	sar	eax, 3
	add	eax, 1
	push	eax
	mov	eax, DWORD PTR _Data$[ebp]
	push	eax
	lea	ecx, DWORD PTR _bsData$[ebp]
	call	??0BitStream@RakNet@@QAE@PADI_N@Z	; RakNet::BitStream::BitStream
	mov	DWORD PTR __$EHRec$[ebp+8], 0

; 553  : 	bsData.Read(iWeaponID);

	lea	eax, DWORD PTR _iWeaponID$[ebp]
	push	eax
	lea	ecx, DWORD PTR _bsData$[ebp]
	call	??$Read@H@BitStream@RakNet@@QAE_NAAH@Z	; RakNet::BitStream::Read<int>

; 554  : 	bsData.Read(iAmmo);

	lea	eax, DWORD PTR _iAmmo$[ebp]
	push	eax
	lea	ecx, DWORD PTR _bsData$[ebp]
	call	??$Read@H@BitStream@RakNet@@QAE_NAAH@Z	; RakNet::BitStream::Read<int>

; 555  : 
; 556  : 	CPlayerPed *pPlayerPed = pNetGame->GetPlayerPool()->GetLocalPlayer()->GetPlayerPed();

	mov	ecx, DWORD PTR ?pNetGame@@3PAVCNetGame@@A ; pNetGame
	call	?GetPlayerPool@CNetGame@@QAEPAVCPlayerPool@@XZ ; CNetGame::GetPlayerPool
	mov	ecx, eax
	call	?GetLocalPlayer@CPlayerPool@@QAEPAVCLocalPlayer@@XZ ; CPlayerPool::GetLocalPlayer
	mov	ecx, eax
	call	?GetPlayerPed@CLocalPlayer@@QAEPAVCPlayerPed@@XZ ; CLocalPlayer::GetPlayerPed
	mov	DWORD PTR _pPlayerPed$[ebp], eax

; 557  : 	pPlayerPed->GiveWeapon(iWeaponID, iAmmo);

	mov	eax, DWORD PTR _iAmmo$[ebp]
	push	eax
	mov	ecx, DWORD PTR _iWeaponID$[ebp]
	push	ecx
	mov	ecx, DWORD PTR _pPlayerPed$[ebp]
	call	?GiveWeapon@CPlayerPed@@QAEXHH@Z	; CPlayerPed::GiveWeapon

; 558  : 	//pChatWindow->AddDebugMessage("Gave weapon: %d with ammo %d", iWeaponID, iAmmo);
; 559  : }

	mov	DWORD PTR __$EHRec$[ebp+8], -1
	lea	ecx, DWORD PTR _bsData$[ebp]
	call	??1BitStream@RakNet@@QAE@XZ		; RakNet::BitStream::~BitStream
	push	edx
	mov	ecx, ebp
	push	eax
	lea	edx, DWORD PTR $LN10@ScrGivePla
	call	@_RTC_CheckStackVars@8
	pop	eax
	pop	edx
	mov	ecx, DWORD PTR __$EHRec$[ebp]
	mov	DWORD PTR fs:0, ecx
	pop	ecx
	pop	edi
	pop	esi
	pop	ebx
	mov	ecx, DWORD PTR __$ArrayPad$[ebp]
	xor	ecx, ebp
	call	@__security_check_cookie@4
	add	esp, 568				; 00000238H
	cmp	ebp, esp
	call	__RTC_CheckEsp
	mov	esp, ebp
	pop	ebp
	ret	0
$LN10@ScrGivePla:
	DD	4
	DD	$LN9@ScrGivePla
$LN9@ScrGivePla:
	DD	-52					; ffffffccH
	DD	6
	DD	$LN4@ScrGivePla
	DD	-64					; ffffffc0H
	DD	4
	DD	$LN5@ScrGivePla
	DD	-76					; ffffffb4H
	DD	4
	DD	$LN6@ScrGivePla
	DD	-360					; fffffe98H
	DD	273					; 00000111H
	DD	$LN7@ScrGivePla
$LN7@ScrGivePla:
	DB	98					; 00000062H
	DB	115					; 00000073H
	DB	68					; 00000044H
	DB	97					; 00000061H
	DB	116					; 00000074H
	DB	97					; 00000061H
	DB	0
$LN6@ScrGivePla:
	DB	105					; 00000069H
	DB	65					; 00000041H
	DB	109					; 0000006dH
	DB	109					; 0000006dH
	DB	111					; 0000006fH
	DB	0
$LN5@ScrGivePla:
	DB	105					; 00000069H
	DB	87					; 00000057H
	DB	101					; 00000065H
	DB	97					; 00000061H
	DB	112					; 00000070H
	DB	111					; 0000006fH
	DB	110					; 0000006eH
	DB	73					; 00000049H
	DB	68					; 00000044H
	DB	0
$LN4@ScrGivePla:
	DB	115					; 00000073H
	DB	101					; 00000065H
	DB	110					; 0000006eH
	DB	100					; 00000064H
	DB	101					; 00000065H
	DB	114					; 00000072H
	DB	0
_TEXT	ENDS
;	COMDAT text$x
text$x	SEGMENT
__unwindfunclet$?ScrGivePlayerWeapon@@YAXPAURPCParameters@@@Z$0:
	lea	ecx, DWORD PTR _bsData$[ebp]
	jmp	??1BitStream@RakNet@@QAE@XZ		; RakNet::BitStream::~BitStream
__ehhandler$?ScrGivePlayerWeapon@@YAXPAURPCParameters@@@Z:
	mov	edx, DWORD PTR [esp+8]
	lea	eax, DWORD PTR [edx+12]
	mov	ecx, DWORD PTR [edx-572]
	xor	ecx, eax
	call	@__security_check_cookie@4
	mov	ecx, DWORD PTR [edx-4]
	xor	ecx, eax
	call	@__security_check_cookie@4
	mov	eax, OFFSET __ehfuncinfo$?ScrGivePlayerWeapon@@YAXPAURPCParameters@@@Z
	jmp	___CxxFrameHandler3
text$x	ENDS
?ScrGivePlayerWeapon@@YAXPAURPCParameters@@@Z ENDP	; ScrGivePlayerWeapon
; Function compile flags: /Odtp /RTCsu /ZI
; File z:\sampsrc\02xu1\saco\net\scriptrpc.cpp
;	COMDAT ?ScrResetPlayerWeapons@@YAXPAURPCParameters@@@Z
_TEXT	SEGMENT
_pPlayerPed$ = -48					; size = 4
_sender$ = -36						; size = 6
_iBitLength$ = -20					; size = 4
_Data$ = -8						; size = 4
_rpcParams$ = 8						; size = 4
?ScrResetPlayerWeapons@@YAXPAURPCParameters@@@Z PROC	; ScrResetPlayerWeapons, COMDAT

; 532  : {

	push	ebp
	mov	ebp, esp
	sub	esp, 244				; 000000f4H
	push	ebx
	push	esi
	push	edi
	lea	edi, DWORD PTR [ebp-244]
	mov	ecx, 61					; 0000003dH
	mov	eax, -858993460				; ccccccccH
	rep stosd

; 533  : 	PCHAR Data = reinterpret_cast<PCHAR>(rpcParams->input);

	mov	eax, DWORD PTR _rpcParams$[ebp]
	mov	ecx, DWORD PTR [eax]
	mov	DWORD PTR _Data$[ebp], ecx

; 534  : 	int iBitLength = rpcParams->numberOfBitsOfData;

	mov	eax, DWORD PTR _rpcParams$[ebp]
	mov	ecx, DWORD PTR [eax+4]
	mov	DWORD PTR _iBitLength$[ebp], ecx

; 535  : 	PlayerID sender = rpcParams->sender;

	mov	eax, DWORD PTR _rpcParams$[ebp]
	add	eax, 8
	mov	ecx, DWORD PTR [eax]
	mov	DWORD PTR _sender$[ebp], ecx
	mov	dx, WORD PTR [eax+4]
	mov	WORD PTR _sender$[ebp+4], dx

; 536  : 
; 537  : 	CPlayerPed *pPlayerPed = pNetGame->GetPlayerPool()->GetLocalPlayer()->GetPlayerPed();

	mov	ecx, DWORD PTR ?pNetGame@@3PAVCNetGame@@A ; pNetGame
	call	?GetPlayerPool@CNetGame@@QAEPAVCPlayerPool@@XZ ; CNetGame::GetPlayerPool
	mov	ecx, eax
	call	?GetLocalPlayer@CPlayerPool@@QAEPAVCLocalPlayer@@XZ ; CPlayerPool::GetLocalPlayer
	mov	ecx, eax
	call	?GetPlayerPed@CLocalPlayer@@QAEPAVCPlayerPed@@XZ ; CLocalPlayer::GetPlayerPed
	mov	DWORD PTR _pPlayerPed$[ebp], eax

; 538  : 	pPlayerPed->ClearAllWeapons();

	mov	ecx, DWORD PTR _pPlayerPed$[ebp]
	call	?ClearAllWeapons@CPlayerPed@@QAEXXZ	; CPlayerPed::ClearAllWeapons

; 539  : 	//pChatWindow->AddDebugMessage("Cleared weapons");
; 540  : }

	push	edx
	mov	ecx, ebp
	push	eax
	lea	edx, DWORD PTR $LN5@ScrResetPl
	call	@_RTC_CheckStackVars@8
	pop	eax
	pop	edx
	pop	edi
	pop	esi
	pop	ebx
	add	esp, 244				; 000000f4H
	cmp	ebp, esp
	call	__RTC_CheckEsp
	mov	esp, ebp
	pop	ebp
	ret	0
	npad	1
$LN5@ScrResetPl:
	DD	1
	DD	$LN4@ScrResetPl
$LN4@ScrResetPl:
	DD	-36					; ffffffdcH
	DD	6
	DD	$LN3@ScrResetPl
$LN3@ScrResetPl:
	DB	115					; 00000073H
	DB	101					; 00000065H
	DB	110					; 0000006eH
	DB	100					; 00000064H
	DB	101					; 00000065H
	DB	114					; 00000072H
	DB	0
?ScrResetPlayerWeapons@@YAXPAURPCParameters@@@Z ENDP	; ScrResetPlayerWeapons
_TEXT	ENDS
; Function compile flags: /Odtp /RTCsu /ZI
; File z:\sampsrc\02xu1\saco\net\scriptrpc.cpp
;	COMDAT ?ScrResetMoney@@YAXPAURPCParameters@@@Z
_TEXT	SEGMENT
_sender$ = -36						; size = 6
_iBitLength$ = -20					; size = 4
_Data$ = -8						; size = 4
_rpcParams$ = 8						; size = 4
?ScrResetMoney@@YAXPAURPCParameters@@@Z PROC		; ScrResetMoney, COMDAT

; 521  : {

	push	ebp
	mov	ebp, esp
	sub	esp, 232				; 000000e8H
	push	ebx
	push	esi
	push	edi
	lea	edi, DWORD PTR [ebp-232]
	mov	ecx, 58					; 0000003aH
	mov	eax, -858993460				; ccccccccH
	rep stosd

; 522  : 	PCHAR Data = reinterpret_cast<PCHAR>(rpcParams->input);

	mov	eax, DWORD PTR _rpcParams$[ebp]
	mov	ecx, DWORD PTR [eax]
	mov	DWORD PTR _Data$[ebp], ecx

; 523  : 	int iBitLength = rpcParams->numberOfBitsOfData;

	mov	eax, DWORD PTR _rpcParams$[ebp]
	mov	ecx, DWORD PTR [eax+4]
	mov	DWORD PTR _iBitLength$[ebp], ecx

; 524  : 	PlayerID sender = rpcParams->sender;

	mov	eax, DWORD PTR _rpcParams$[ebp]
	add	eax, 8
	mov	ecx, DWORD PTR [eax]
	mov	DWORD PTR _sender$[ebp], ecx
	mov	dx, WORD PTR [eax+4]
	mov	WORD PTR _sender$[ebp+4], dx

; 525  : 
; 526  : 	pGame->ResetLocalMoney();

	mov	ecx, DWORD PTR ?pGame@@3PAVCGame@@A	; pGame
	call	?ResetLocalMoney@CGame@@QAEXXZ		; CGame::ResetLocalMoney

; 527  : }

	push	edx
	mov	ecx, ebp
	push	eax
	lea	edx, DWORD PTR $LN5@ScrResetMo
	call	@_RTC_CheckStackVars@8
	pop	eax
	pop	edx
	pop	edi
	pop	esi
	pop	ebx
	add	esp, 232				; 000000e8H
	cmp	ebp, esp
	call	__RTC_CheckEsp
	mov	esp, ebp
	pop	ebp
	ret	0
	npad	2
$LN5@ScrResetMo:
	DD	1
	DD	$LN4@ScrResetMo
$LN4@ScrResetMo:
	DD	-36					; ffffffdcH
	DD	6
	DD	$LN3@ScrResetMo
$LN3@ScrResetMo:
	DB	115					; 00000073H
	DB	101					; 00000065H
	DB	110					; 0000006eH
	DB	100					; 00000064H
	DB	101					; 00000065H
	DB	114					; 00000072H
	DB	0
?ScrResetMoney@@YAXPAURPCParameters@@@Z ENDP		; ScrResetMoney
_TEXT	ENDS
; Function compile flags: /Odtp /RTCsu /ZI
; File z:\sampsrc\02xu1\saco\net\scriptrpc.cpp
;	COMDAT ?ScrSetPlayerFacingAngle@@YAXPAURPCParameters@@@Z
_TEXT	SEGMENT
_bsData$ = -348						; size = 273
_fAngle$ = -64						; size = 4
_sender$ = -52						; size = 6
_iBitLength$ = -36					; size = 4
_Data$ = -24						; size = 4
__$ArrayPad$ = -16					; size = 4
__$EHRec$ = -12						; size = 12
_rpcParams$ = 8						; size = 4
?ScrSetPlayerFacingAngle@@YAXPAURPCParameters@@@Z PROC	; ScrSetPlayerFacingAngle, COMDAT

; 507  : {

	push	ebp
	mov	ebp, esp
	push	-1
	push	__ehhandler$?ScrSetPlayerFacingAngle@@YAXPAURPCParameters@@@Z
	mov	eax, DWORD PTR fs:0
	push	eax
	sub	esp, 532				; 00000214H
	push	ebx
	push	esi
	push	edi
	lea	edi, DWORD PTR [ebp-544]
	mov	ecx, 133				; 00000085H
	mov	eax, -858993460				; ccccccccH
	rep stosd
	mov	eax, DWORD PTR ___security_cookie
	xor	eax, ebp
	mov	DWORD PTR __$ArrayPad$[ebp], eax
	push	eax
	lea	eax, DWORD PTR __$EHRec$[ebp]
	mov	DWORD PTR fs:0, eax

; 508  : 	PCHAR Data = reinterpret_cast<PCHAR>(rpcParams->input);

	mov	eax, DWORD PTR _rpcParams$[ebp]
	mov	ecx, DWORD PTR [eax]
	mov	DWORD PTR _Data$[ebp], ecx

; 509  : 	int iBitLength = rpcParams->numberOfBitsOfData;

	mov	eax, DWORD PTR _rpcParams$[ebp]
	mov	ecx, DWORD PTR [eax+4]
	mov	DWORD PTR _iBitLength$[ebp], ecx

; 510  : 	PlayerID sender = rpcParams->sender;

	mov	eax, DWORD PTR _rpcParams$[ebp]
	add	eax, 8
	mov	ecx, DWORD PTR [eax]
	mov	DWORD PTR _sender$[ebp], ecx
	mov	dx, WORD PTR [eax+4]
	mov	WORD PTR _sender$[ebp+4], dx

; 511  : 
; 512  : 	float fAngle;
; 513  : 	RakNet::BitStream bsData(Data,(iBitLength/8)+1,false);

	push	0
	mov	eax, DWORD PTR _iBitLength$[ebp]
	cdq
	and	edx, 7
	add	eax, edx
	sar	eax, 3
	add	eax, 1
	push	eax
	mov	eax, DWORD PTR _Data$[ebp]
	push	eax
	lea	ecx, DWORD PTR _bsData$[ebp]
	call	??0BitStream@RakNet@@QAE@PADI_N@Z	; RakNet::BitStream::BitStream
	mov	DWORD PTR __$EHRec$[ebp+8], 0

; 514  : 	bsData.Read(fAngle);

	lea	eax, DWORD PTR _fAngle$[ebp]
	push	eax
	lea	ecx, DWORD PTR _bsData$[ebp]
	call	??$Read@M@BitStream@RakNet@@QAE_NAAM@Z	; RakNet::BitStream::Read<float>

; 515  : 	pGame->FindPlayerPed()->ForceTargetRotation(fAngle);

	push	ecx
	movss	xmm0, DWORD PTR _fAngle$[ebp]
	movss	DWORD PTR [esp], xmm0
	mov	ecx, DWORD PTR ?pGame@@3PAVCGame@@A	; pGame
	call	?FindPlayerPed@CGame@@QAEPAVCPlayerPed@@XZ ; CGame::FindPlayerPed
	mov	ecx, eax
	call	?ForceTargetRotation@CPlayerPed@@QAEXM@Z ; CPlayerPed::ForceTargetRotation

; 516  : }

	mov	DWORD PTR __$EHRec$[ebp+8], -1
	lea	ecx, DWORD PTR _bsData$[ebp]
	call	??1BitStream@RakNet@@QAE@XZ		; RakNet::BitStream::~BitStream
	push	edx
	mov	ecx, ebp
	push	eax
	lea	edx, DWORD PTR $LN9@ScrSetPlay
	call	@_RTC_CheckStackVars@8
	pop	eax
	pop	edx
	mov	ecx, DWORD PTR __$EHRec$[ebp]
	mov	DWORD PTR fs:0, ecx
	pop	ecx
	pop	edi
	pop	esi
	pop	ebx
	mov	ecx, DWORD PTR __$ArrayPad$[ebp]
	xor	ecx, ebp
	call	@__security_check_cookie@4
	add	esp, 544				; 00000220H
	cmp	ebp, esp
	call	__RTC_CheckEsp
	mov	esp, ebp
	pop	ebp
	ret	0
$LN9@ScrSetPlay:
	DD	3
	DD	$LN8@ScrSetPlay
$LN8@ScrSetPlay:
	DD	-52					; ffffffccH
	DD	6
	DD	$LN4@ScrSetPlay
	DD	-64					; ffffffc0H
	DD	4
	DD	$LN5@ScrSetPlay
	DD	-348					; fffffea4H
	DD	273					; 00000111H
	DD	$LN6@ScrSetPlay
$LN6@ScrSetPlay:
	DB	98					; 00000062H
	DB	115					; 00000073H
	DB	68					; 00000044H
	DB	97					; 00000061H
	DB	116					; 00000074H
	DB	97					; 00000061H
	DB	0
$LN5@ScrSetPlay:
	DB	102					; 00000066H
	DB	65					; 00000041H
	DB	110					; 0000006eH
	DB	103					; 00000067H
	DB	108					; 0000006cH
	DB	101					; 00000065H
	DB	0
$LN4@ScrSetPlay:
	DB	115					; 00000073H
	DB	101					; 00000065H
	DB	110					; 0000006eH
	DB	100					; 00000064H
	DB	101					; 00000065H
	DB	114					; 00000072H
	DB	0
_TEXT	ENDS
;	COMDAT text$x
text$x	SEGMENT
__unwindfunclet$?ScrSetPlayerFacingAngle@@YAXPAURPCParameters@@@Z$0:
	lea	ecx, DWORD PTR _bsData$[ebp]
	jmp	??1BitStream@RakNet@@QAE@XZ		; RakNet::BitStream::~BitStream
__ehhandler$?ScrSetPlayerFacingAngle@@YAXPAURPCParameters@@@Z:
	mov	edx, DWORD PTR [esp+8]
	lea	eax, DWORD PTR [edx+12]
	mov	ecx, DWORD PTR [edx-548]
	xor	ecx, eax
	call	@__security_check_cookie@4
	mov	ecx, DWORD PTR [edx-4]
	xor	ecx, eax
	call	@__security_check_cookie@4
	mov	eax, OFFSET __ehfuncinfo$?ScrSetPlayerFacingAngle@@YAXPAURPCParameters@@@Z
	jmp	___CxxFrameHandler3
text$x	ENDS
?ScrSetPlayerFacingAngle@@YAXPAURPCParameters@@@Z ENDP	; ScrSetPlayerFacingAngle
; Function compile flags: /Odtp /RTCsu /ZI
; File z:\sampsrc\02xu1\saco\net\scriptrpc.cpp
;	COMDAT ?ScrHaveSomeMoney@@YAXPAURPCParameters@@@Z
_TEXT	SEGMENT
_bsData$ = -348						; size = 273
_iAmount$ = -64						; size = 4
_sender$ = -52						; size = 6
_iBitLength$ = -36					; size = 4
_Data$ = -24						; size = 4
__$ArrayPad$ = -16					; size = 4
__$EHRec$ = -12						; size = 12
_rpcParams$ = 8						; size = 4
?ScrHaveSomeMoney@@YAXPAURPCParameters@@@Z PROC		; ScrHaveSomeMoney, COMDAT

; 493  : {

	push	ebp
	mov	ebp, esp
	push	-1
	push	__ehhandler$?ScrHaveSomeMoney@@YAXPAURPCParameters@@@Z
	mov	eax, DWORD PTR fs:0
	push	eax
	sub	esp, 532				; 00000214H
	push	ebx
	push	esi
	push	edi
	lea	edi, DWORD PTR [ebp-544]
	mov	ecx, 133				; 00000085H
	mov	eax, -858993460				; ccccccccH
	rep stosd
	mov	eax, DWORD PTR ___security_cookie
	xor	eax, ebp
	mov	DWORD PTR __$ArrayPad$[ebp], eax
	push	eax
	lea	eax, DWORD PTR __$EHRec$[ebp]
	mov	DWORD PTR fs:0, eax

; 494  : 	PCHAR Data = reinterpret_cast<PCHAR>(rpcParams->input);

	mov	eax, DWORD PTR _rpcParams$[ebp]
	mov	ecx, DWORD PTR [eax]
	mov	DWORD PTR _Data$[ebp], ecx

; 495  : 	int iBitLength = rpcParams->numberOfBitsOfData;

	mov	eax, DWORD PTR _rpcParams$[ebp]
	mov	ecx, DWORD PTR [eax+4]
	mov	DWORD PTR _iBitLength$[ebp], ecx

; 496  : 	PlayerID sender = rpcParams->sender;

	mov	eax, DWORD PTR _rpcParams$[ebp]
	add	eax, 8
	mov	ecx, DWORD PTR [eax]
	mov	DWORD PTR _sender$[ebp], ecx
	mov	dx, WORD PTR [eax+4]
	mov	WORD PTR _sender$[ebp+4], dx

; 497  : 
; 498  : 	int iAmount;
; 499  : 	RakNet::BitStream bsData(Data,(iBitLength/8)+1,false);

	push	0
	mov	eax, DWORD PTR _iBitLength$[ebp]
	cdq
	and	edx, 7
	add	eax, edx
	sar	eax, 3
	add	eax, 1
	push	eax
	mov	eax, DWORD PTR _Data$[ebp]
	push	eax
	lea	ecx, DWORD PTR _bsData$[ebp]
	call	??0BitStream@RakNet@@QAE@PADI_N@Z	; RakNet::BitStream::BitStream
	mov	DWORD PTR __$EHRec$[ebp+8], 0

; 500  : 	bsData.Read(iAmount);

	lea	eax, DWORD PTR _iAmount$[ebp]
	push	eax
	lea	ecx, DWORD PTR _bsData$[ebp]
	call	??$Read@H@BitStream@RakNet@@QAE_NAAH@Z	; RakNet::BitStream::Read<int>

; 501  : 	pGame->AddToLocalMoney(iAmount);

	mov	eax, DWORD PTR _iAmount$[ebp]
	push	eax
	mov	ecx, DWORD PTR ?pGame@@3PAVCGame@@A	; pGame
	call	?AddToLocalMoney@CGame@@QAEXH@Z		; CGame::AddToLocalMoney

; 502  : }

	mov	DWORD PTR __$EHRec$[ebp+8], -1
	lea	ecx, DWORD PTR _bsData$[ebp]
	call	??1BitStream@RakNet@@QAE@XZ		; RakNet::BitStream::~BitStream
	push	edx
	mov	ecx, ebp
	push	eax
	lea	edx, DWORD PTR $LN9@ScrHaveSom
	call	@_RTC_CheckStackVars@8
	pop	eax
	pop	edx
	mov	ecx, DWORD PTR __$EHRec$[ebp]
	mov	DWORD PTR fs:0, ecx
	pop	ecx
	pop	edi
	pop	esi
	pop	ebx
	mov	ecx, DWORD PTR __$ArrayPad$[ebp]
	xor	ecx, ebp
	call	@__security_check_cookie@4
	add	esp, 544				; 00000220H
	cmp	ebp, esp
	call	__RTC_CheckEsp
	mov	esp, ebp
	pop	ebp
	ret	0
	npad	2
$LN9@ScrHaveSom:
	DD	3
	DD	$LN8@ScrHaveSom
$LN8@ScrHaveSom:
	DD	-52					; ffffffccH
	DD	6
	DD	$LN4@ScrHaveSom
	DD	-64					; ffffffc0H
	DD	4
	DD	$LN5@ScrHaveSom
	DD	-348					; fffffea4H
	DD	273					; 00000111H
	DD	$LN6@ScrHaveSom
$LN6@ScrHaveSom:
	DB	98					; 00000062H
	DB	115					; 00000073H
	DB	68					; 00000044H
	DB	97					; 00000061H
	DB	116					; 00000074H
	DB	97					; 00000061H
	DB	0
$LN5@ScrHaveSom:
	DB	105					; 00000069H
	DB	65					; 00000041H
	DB	109					; 0000006dH
	DB	111					; 0000006fH
	DB	117					; 00000075H
	DB	110					; 0000006eH
	DB	116					; 00000074H
	DB	0
$LN4@ScrHaveSom:
	DB	115					; 00000073H
	DB	101					; 00000065H
	DB	110					; 0000006eH
	DB	100					; 00000064H
	DB	101					; 00000065H
	DB	114					; 00000072H
	DB	0
_TEXT	ENDS
;	COMDAT text$x
text$x	SEGMENT
__unwindfunclet$?ScrHaveSomeMoney@@YAXPAURPCParameters@@@Z$0:
	lea	ecx, DWORD PTR _bsData$[ebp]
	jmp	??1BitStream@RakNet@@QAE@XZ		; RakNet::BitStream::~BitStream
__ehhandler$?ScrHaveSomeMoney@@YAXPAURPCParameters@@@Z:
	mov	edx, DWORD PTR [esp+8]
	lea	eax, DWORD PTR [edx+12]
	mov	ecx, DWORD PTR [edx-548]
	xor	ecx, eax
	call	@__security_check_cookie@4
	mov	ecx, DWORD PTR [edx-4]
	xor	ecx, eax
	call	@__security_check_cookie@4
	mov	eax, OFFSET __ehfuncinfo$?ScrHaveSomeMoney@@YAXPAURPCParameters@@@Z
	jmp	___CxxFrameHandler3
text$x	ENDS
?ScrHaveSomeMoney@@YAXPAURPCParameters@@@Z ENDP		; ScrHaveSomeMoney
; Function compile flags: /Odtp /RTCsu /ZI
; File z:\sampsrc\02xu1\saco\net\scriptrpc.cpp
;	COMDAT ?ScrSetWorldBounds@@YAXPAURPCParameters@@@Z
_TEXT	SEGMENT
_bsData$ = -336						; size = 273
_sender$ = -52						; size = 6
_iBitLength$ = -36					; size = 4
_Data$ = -24						; size = 4
__$ArrayPad$ = -16					; size = 4
__$EHRec$ = -12						; size = 12
_rpcParams$ = 8						; size = 4
?ScrSetWorldBounds@@YAXPAURPCParameters@@@Z PROC	; ScrSetWorldBounds, COMDAT

; 478  : {

	push	ebp
	mov	ebp, esp
	push	-1
	push	__ehhandler$?ScrSetWorldBounds@@YAXPAURPCParameters@@@Z
	mov	eax, DWORD PTR fs:0
	push	eax
	sub	esp, 520				; 00000208H
	push	ebx
	push	esi
	push	edi
	lea	edi, DWORD PTR [ebp-532]
	mov	ecx, 130				; 00000082H
	mov	eax, -858993460				; ccccccccH
	rep stosd
	mov	eax, DWORD PTR ___security_cookie
	xor	eax, ebp
	mov	DWORD PTR __$ArrayPad$[ebp], eax
	push	eax
	lea	eax, DWORD PTR __$EHRec$[ebp]
	mov	DWORD PTR fs:0, eax

; 479  : 	PCHAR Data = reinterpret_cast<PCHAR>(rpcParams->input);

	mov	eax, DWORD PTR _rpcParams$[ebp]
	mov	ecx, DWORD PTR [eax]
	mov	DWORD PTR _Data$[ebp], ecx

; 480  : 	int iBitLength = rpcParams->numberOfBitsOfData;

	mov	eax, DWORD PTR _rpcParams$[ebp]
	mov	ecx, DWORD PTR [eax+4]
	mov	DWORD PTR _iBitLength$[ebp], ecx

; 481  : 	PlayerID sender = rpcParams->sender;

	mov	eax, DWORD PTR _rpcParams$[ebp]
	add	eax, 8
	mov	ecx, DWORD PTR [eax]
	mov	DWORD PTR _sender$[ebp], ecx
	mov	dx, WORD PTR [eax+4]
	mov	WORD PTR _sender$[ebp+4], dx

; 482  : 
; 483  : 	RakNet::BitStream bsData(Data,(iBitLength/8)+1,false);

	push	0
	mov	eax, DWORD PTR _iBitLength$[ebp]
	cdq
	and	edx, 7
	add	eax, edx
	sar	eax, 3
	add	eax, 1
	push	eax
	mov	eax, DWORD PTR _Data$[ebp]
	push	eax
	lea	ecx, DWORD PTR _bsData$[ebp]
	call	??0BitStream@RakNet@@QAE@PADI_N@Z	; RakNet::BitStream::BitStream
	mov	DWORD PTR __$EHRec$[ebp+8], 0

; 484  : 	bsData.Read(pNetGame->m_WorldBounds[0]);

	mov	eax, 4
	imul	ecx, eax, 0
	mov	edx, DWORD PTR ?pNetGame@@3PAVCNetGame@@A ; pNetGame
	lea	eax, DWORD PTR [edx+ecx+64]
	push	eax
	lea	ecx, DWORD PTR _bsData$[ebp]
	call	??$Read@M@BitStream@RakNet@@QAE_NAAM@Z	; RakNet::BitStream::Read<float>

; 485  : 	bsData.Read(pNetGame->m_WorldBounds[1]);

	mov	eax, 4
	shl	eax, 0
	mov	ecx, DWORD PTR ?pNetGame@@3PAVCNetGame@@A ; pNetGame
	lea	edx, DWORD PTR [ecx+eax+64]
	push	edx
	lea	ecx, DWORD PTR _bsData$[ebp]
	call	??$Read@M@BitStream@RakNet@@QAE_NAAM@Z	; RakNet::BitStream::Read<float>

; 486  : 	bsData.Read(pNetGame->m_WorldBounds[2]);

	mov	eax, 4
	shl	eax, 1
	mov	ecx, DWORD PTR ?pNetGame@@3PAVCNetGame@@A ; pNetGame
	lea	edx, DWORD PTR [ecx+eax+64]
	push	edx
	lea	ecx, DWORD PTR _bsData$[ebp]
	call	??$Read@M@BitStream@RakNet@@QAE_NAAM@Z	; RakNet::BitStream::Read<float>

; 487  : 	bsData.Read(pNetGame->m_WorldBounds[3]);

	mov	eax, 4
	imul	ecx, eax, 3
	mov	edx, DWORD PTR ?pNetGame@@3PAVCNetGame@@A ; pNetGame
	lea	eax, DWORD PTR [edx+ecx+64]
	push	eax
	lea	ecx, DWORD PTR _bsData$[ebp]
	call	??$Read@M@BitStream@RakNet@@QAE_NAAM@Z	; RakNet::BitStream::Read<float>

; 488  : }

	mov	DWORD PTR __$EHRec$[ebp+8], -1
	lea	ecx, DWORD PTR _bsData$[ebp]
	call	??1BitStream@RakNet@@QAE@XZ		; RakNet::BitStream::~BitStream
	push	edx
	mov	ecx, ebp
	push	eax
	lea	edx, DWORD PTR $LN8@ScrSetWorl
	call	@_RTC_CheckStackVars@8
	pop	eax
	pop	edx
	mov	ecx, DWORD PTR __$EHRec$[ebp]
	mov	DWORD PTR fs:0, ecx
	pop	ecx
	pop	edi
	pop	esi
	pop	ebx
	mov	ecx, DWORD PTR __$ArrayPad$[ebp]
	xor	ecx, ebp
	call	@__security_check_cookie@4
	add	esp, 532				; 00000214H
	cmp	ebp, esp
	call	__RTC_CheckEsp
	mov	esp, ebp
	pop	ebp
	ret	0
	npad	1
$LN8@ScrSetWorl:
	DD	2
	DD	$LN7@ScrSetWorl
$LN7@ScrSetWorl:
	DD	-52					; ffffffccH
	DD	6
	DD	$LN4@ScrSetWorl
	DD	-336					; fffffeb0H
	DD	273					; 00000111H
	DD	$LN5@ScrSetWorl
$LN5@ScrSetWorl:
	DB	98					; 00000062H
	DB	115					; 00000073H
	DB	68					; 00000044H
	DB	97					; 00000061H
	DB	116					; 00000074H
	DB	97					; 00000061H
	DB	0
$LN4@ScrSetWorl:
	DB	115					; 00000073H
	DB	101					; 00000065H
	DB	110					; 0000006eH
	DB	100					; 00000064H
	DB	101					; 00000065H
	DB	114					; 00000072H
	DB	0
_TEXT	ENDS
;	COMDAT text$x
text$x	SEGMENT
__unwindfunclet$?ScrSetWorldBounds@@YAXPAURPCParameters@@@Z$0:
	lea	ecx, DWORD PTR _bsData$[ebp]
	jmp	??1BitStream@RakNet@@QAE@XZ		; RakNet::BitStream::~BitStream
__ehhandler$?ScrSetWorldBounds@@YAXPAURPCParameters@@@Z:
	mov	edx, DWORD PTR [esp+8]
	lea	eax, DWORD PTR [edx+12]
	mov	ecx, DWORD PTR [edx-536]
	xor	ecx, eax
	call	@__security_check_cookie@4
	mov	ecx, DWORD PTR [edx-4]
	xor	ecx, eax
	call	@__security_check_cookie@4
	mov	eax, OFFSET __ehfuncinfo$?ScrSetWorldBounds@@YAXPAURPCParameters@@@Z
	jmp	___CxxFrameHandler3
text$x	ENDS
?ScrSetWorldBounds@@YAXPAURPCParameters@@@Z ENDP	; ScrSetWorldBounds
; Function compile flags: /Odtp /RTCsu /ZI
; File z:\sampsrc\02xu1\saco\net\scriptrpc.cpp
;	COMDAT ?ScrPlaySound@@YAXPAURPCParameters@@@Z
_TEXT	SEGMENT
_fZ$ = -384						; size = 4
_fY$ = -372						; size = 4
_fX$ = -360						; size = 4
_iSound$ = -348						; size = 4
_bsData$ = -336						; size = 273
_sender$ = -52						; size = 6
_iBitLength$ = -36					; size = 4
_Data$ = -24						; size = 4
__$ArrayPad$ = -16					; size = 4
__$EHRec$ = -12						; size = 12
_rpcParams$ = 8						; size = 4
?ScrPlaySound@@YAXPAURPCParameters@@@Z PROC		; ScrPlaySound, COMDAT

; 458  : {

	push	ebp
	mov	ebp, esp
	push	-1
	push	__ehhandler$?ScrPlaySound@@YAXPAURPCParameters@@@Z
	mov	eax, DWORD PTR fs:0
	push	eax
	sub	esp, 568				; 00000238H
	push	ebx
	push	esi
	push	edi
	lea	edi, DWORD PTR [ebp-580]
	mov	ecx, 142				; 0000008eH
	mov	eax, -858993460				; ccccccccH
	rep stosd
	mov	eax, DWORD PTR ___security_cookie
	xor	eax, ebp
	mov	DWORD PTR __$ArrayPad$[ebp], eax
	push	eax
	lea	eax, DWORD PTR __$EHRec$[ebp]
	mov	DWORD PTR fs:0, eax

; 459  : 	PCHAR Data = reinterpret_cast<PCHAR>(rpcParams->input);

	mov	eax, DWORD PTR _rpcParams$[ebp]
	mov	ecx, DWORD PTR [eax]
	mov	DWORD PTR _Data$[ebp], ecx

; 460  : 	int iBitLength = rpcParams->numberOfBitsOfData;

	mov	eax, DWORD PTR _rpcParams$[ebp]
	mov	ecx, DWORD PTR [eax+4]
	mov	DWORD PTR _iBitLength$[ebp], ecx

; 461  : 	PlayerID sender = rpcParams->sender;

	mov	eax, DWORD PTR _rpcParams$[ebp]
	add	eax, 8
	mov	ecx, DWORD PTR [eax]
	mov	DWORD PTR _sender$[ebp], ecx
	mov	dx, WORD PTR [eax+4]
	mov	WORD PTR _sender$[ebp+4], dx

; 462  : 
; 463  : 	RakNet::BitStream bsData(Data,(iBitLength/8)+1,false);

	push	0
	mov	eax, DWORD PTR _iBitLength$[ebp]
	cdq
	and	edx, 7
	add	eax, edx
	sar	eax, 3
	add	eax, 1
	push	eax
	mov	eax, DWORD PTR _Data$[ebp]
	push	eax
	lea	ecx, DWORD PTR _bsData$[ebp]
	call	??0BitStream@RakNet@@QAE@PADI_N@Z	; RakNet::BitStream::BitStream
	mov	DWORD PTR __$EHRec$[ebp+8], 0

; 464  : 
; 465  : 	int iSound;
; 466  : 	float fX, fY, fZ;
; 467  : 	bsData.Read(iSound);

	lea	eax, DWORD PTR _iSound$[ebp]
	push	eax
	lea	ecx, DWORD PTR _bsData$[ebp]
	call	??$Read@H@BitStream@RakNet@@QAE_NAAH@Z	; RakNet::BitStream::Read<int>

; 468  : 	bsData.Read(fX);

	lea	eax, DWORD PTR _fX$[ebp]
	push	eax
	lea	ecx, DWORD PTR _bsData$[ebp]
	call	??$Read@M@BitStream@RakNet@@QAE_NAAM@Z	; RakNet::BitStream::Read<float>

; 469  : 	bsData.Read(fY);

	lea	eax, DWORD PTR _fY$[ebp]
	push	eax
	lea	ecx, DWORD PTR _bsData$[ebp]
	call	??$Read@M@BitStream@RakNet@@QAE_NAAM@Z	; RakNet::BitStream::Read<float>

; 470  : 	bsData.Read(fZ);

	lea	eax, DWORD PTR _fZ$[ebp]
	push	eax
	lea	ecx, DWORD PTR _bsData$[ebp]
	call	??$Read@M@BitStream@RakNet@@QAE_NAAM@Z	; RakNet::BitStream::Read<float>

; 471  : 
; 472  : 	pGame->PlaySound(iSound, fX, fY, fZ);

	push	ecx
	movss	xmm0, DWORD PTR _fZ$[ebp]
	movss	DWORD PTR [esp], xmm0
	push	ecx
	movss	xmm0, DWORD PTR _fY$[ebp]
	movss	DWORD PTR [esp], xmm0
	push	ecx
	movss	xmm0, DWORD PTR _fX$[ebp]
	movss	DWORD PTR [esp], xmm0
	mov	eax, DWORD PTR _iSound$[ebp]
	push	eax
	mov	ecx, DWORD PTR ?pGame@@3PAVCGame@@A	; pGame
	call	?PlaySoundA@CGame@@QAEXHMMM@Z		; CGame::PlaySoundA

; 473  : }

	mov	DWORD PTR __$EHRec$[ebp+8], -1
	lea	ecx, DWORD PTR _bsData$[ebp]
	call	??1BitStream@RakNet@@QAE@XZ		; RakNet::BitStream::~BitStream
	push	edx
	mov	ecx, ebp
	push	eax
	lea	edx, DWORD PTR $LN12@ScrPlaySou
	call	@_RTC_CheckStackVars@8
	pop	eax
	pop	edx
	mov	ecx, DWORD PTR __$EHRec$[ebp]
	mov	DWORD PTR fs:0, ecx
	pop	ecx
	pop	edi
	pop	esi
	pop	ebx
	mov	ecx, DWORD PTR __$ArrayPad$[ebp]
	xor	ecx, ebp
	call	@__security_check_cookie@4
	add	esp, 580				; 00000244H
	cmp	ebp, esp
	call	__RTC_CheckEsp
	mov	esp, ebp
	pop	ebp
	ret	0
$LN12@ScrPlaySou:
	DD	6
	DD	$LN11@ScrPlaySou
$LN11@ScrPlaySou:
	DD	-52					; ffffffccH
	DD	6
	DD	$LN4@ScrPlaySou
	DD	-336					; fffffeb0H
	DD	273					; 00000111H
	DD	$LN5@ScrPlaySou
	DD	-348					; fffffea4H
	DD	4
	DD	$LN6@ScrPlaySou
	DD	-360					; fffffe98H
	DD	4
	DD	$LN7@ScrPlaySou
	DD	-372					; fffffe8cH
	DD	4
	DD	$LN8@ScrPlaySou
	DD	-384					; fffffe80H
	DD	4
	DD	$LN9@ScrPlaySou
$LN9@ScrPlaySou:
	DB	102					; 00000066H
	DB	90					; 0000005aH
	DB	0
$LN8@ScrPlaySou:
	DB	102					; 00000066H
	DB	89					; 00000059H
	DB	0
$LN7@ScrPlaySou:
	DB	102					; 00000066H
	DB	88					; 00000058H
	DB	0
$LN6@ScrPlaySou:
	DB	105					; 00000069H
	DB	83					; 00000053H
	DB	111					; 0000006fH
	DB	117					; 00000075H
	DB	110					; 0000006eH
	DB	100					; 00000064H
	DB	0
$LN5@ScrPlaySou:
	DB	98					; 00000062H
	DB	115					; 00000073H
	DB	68					; 00000044H
	DB	97					; 00000061H
	DB	116					; 00000074H
	DB	97					; 00000061H
	DB	0
$LN4@ScrPlaySou:
	DB	115					; 00000073H
	DB	101					; 00000065H
	DB	110					; 0000006eH
	DB	100					; 00000064H
	DB	101					; 00000065H
	DB	114					; 00000072H
	DB	0
_TEXT	ENDS
;	COMDAT text$x
text$x	SEGMENT
__unwindfunclet$?ScrPlaySound@@YAXPAURPCParameters@@@Z$0:
	lea	ecx, DWORD PTR _bsData$[ebp]
	jmp	??1BitStream@RakNet@@QAE@XZ		; RakNet::BitStream::~BitStream
__ehhandler$?ScrPlaySound@@YAXPAURPCParameters@@@Z:
	mov	edx, DWORD PTR [esp+8]
	lea	eax, DWORD PTR [edx+12]
	mov	ecx, DWORD PTR [edx-584]
	xor	ecx, eax
	call	@__security_check_cookie@4
	mov	ecx, DWORD PTR [edx-4]
	xor	ecx, eax
	call	@__security_check_cookie@4
	mov	eax, OFFSET __ehfuncinfo$?ScrPlaySound@@YAXPAURPCParameters@@@Z
	jmp	___CxxFrameHandler3
text$x	ENDS
?ScrPlaySound@@YAXPAURPCParameters@@@Z ENDP		; ScrPlaySound
; Function compile flags: /Odtp /RTCsu /ZI
; File z:\sampsrc\02xu1\saco\net\scriptrpc.cpp
;	COMDAT ?ScrTogglePlayerControllable@@YAXPAURPCParameters@@@Z
_TEXT	SEGMENT
_byteControllable$ = -345				; size = 1
_bsData$ = -336						; size = 273
_sender$ = -52						; size = 6
_iBitLength$ = -36					; size = 4
_Data$ = -24						; size = 4
__$ArrayPad$ = -16					; size = 4
__$EHRec$ = -12						; size = 12
_rpcParams$ = 8						; size = 4
?ScrTogglePlayerControllable@@YAXPAURPCParameters@@@Z PROC ; ScrTogglePlayerControllable, COMDAT

; 444  : {

	push	ebp
	mov	ebp, esp
	push	-1
	push	__ehhandler$?ScrTogglePlayerControllable@@YAXPAURPCParameters@@@Z
	mov	eax, DWORD PTR fs:0
	push	eax
	sub	esp, 532				; 00000214H
	push	ebx
	push	esi
	push	edi
	lea	edi, DWORD PTR [ebp-544]
	mov	ecx, 133				; 00000085H
	mov	eax, -858993460				; ccccccccH
	rep stosd
	mov	eax, DWORD PTR ___security_cookie
	xor	eax, ebp
	mov	DWORD PTR __$ArrayPad$[ebp], eax
	push	eax
	lea	eax, DWORD PTR __$EHRec$[ebp]
	mov	DWORD PTR fs:0, eax

; 445  : 	PCHAR Data = reinterpret_cast<PCHAR>(rpcParams->input);

	mov	eax, DWORD PTR _rpcParams$[ebp]
	mov	ecx, DWORD PTR [eax]
	mov	DWORD PTR _Data$[ebp], ecx

; 446  : 	int iBitLength = rpcParams->numberOfBitsOfData;

	mov	eax, DWORD PTR _rpcParams$[ebp]
	mov	ecx, DWORD PTR [eax+4]
	mov	DWORD PTR _iBitLength$[ebp], ecx

; 447  : 	PlayerID sender = rpcParams->sender;

	mov	eax, DWORD PTR _rpcParams$[ebp]
	add	eax, 8
	mov	ecx, DWORD PTR [eax]
	mov	DWORD PTR _sender$[ebp], ecx
	mov	dx, WORD PTR [eax+4]
	mov	WORD PTR _sender$[ebp+4], dx

; 448  : 
; 449  : 	RakNet::BitStream bsData(Data,(iBitLength/8)+1,false);

	push	0
	mov	eax, DWORD PTR _iBitLength$[ebp]
	cdq
	and	edx, 7
	add	eax, edx
	sar	eax, 3
	add	eax, 1
	push	eax
	mov	eax, DWORD PTR _Data$[ebp]
	push	eax
	lea	ecx, DWORD PTR _bsData$[ebp]
	call	??0BitStream@RakNet@@QAE@PADI_N@Z	; RakNet::BitStream::BitStream
	mov	DWORD PTR __$EHRec$[ebp+8], 0

; 450  : 	BYTE byteControllable;
; 451  : 	bsData.Read(byteControllable);

	lea	eax, DWORD PTR _byteControllable$[ebp]
	push	eax
	lea	ecx, DWORD PTR _bsData$[ebp]
	call	??$Read@E@BitStream@RakNet@@QAE_NAAE@Z	; RakNet::BitStream::Read<unsigned char>

; 452  : 	pNetGame->GetPlayerPool()->GetLocalPlayer()->GetPlayerPed()->TogglePlayerControllable((int)byteControllable);

	movzx	eax, BYTE PTR _byteControllable$[ebp]
	push	eax
	mov	ecx, DWORD PTR ?pNetGame@@3PAVCNetGame@@A ; pNetGame
	call	?GetPlayerPool@CNetGame@@QAEPAVCPlayerPool@@XZ ; CNetGame::GetPlayerPool
	mov	ecx, eax
	call	?GetLocalPlayer@CPlayerPool@@QAEPAVCLocalPlayer@@XZ ; CPlayerPool::GetLocalPlayer
	mov	ecx, eax
	call	?GetPlayerPed@CLocalPlayer@@QAEPAVCPlayerPed@@XZ ; CLocalPlayer::GetPlayerPed
	mov	ecx, eax
	call	?TogglePlayerControllable@CPlayerPed@@QAEXH@Z ; CPlayerPed::TogglePlayerControllable

; 453  : }

	mov	DWORD PTR __$EHRec$[ebp+8], -1
	lea	ecx, DWORD PTR _bsData$[ebp]
	call	??1BitStream@RakNet@@QAE@XZ		; RakNet::BitStream::~BitStream
	push	edx
	mov	ecx, ebp
	push	eax
	lea	edx, DWORD PTR $LN9@ScrToggleP
	call	@_RTC_CheckStackVars@8
	pop	eax
	pop	edx
	mov	ecx, DWORD PTR __$EHRec$[ebp]
	mov	DWORD PTR fs:0, ecx
	pop	ecx
	pop	edi
	pop	esi
	pop	ebx
	mov	ecx, DWORD PTR __$ArrayPad$[ebp]
	xor	ecx, ebp
	call	@__security_check_cookie@4
	add	esp, 544				; 00000220H
	cmp	ebp, esp
	call	__RTC_CheckEsp
	mov	esp, ebp
	pop	ebp
	ret	0
	npad	2
$LN9@ScrToggleP:
	DD	3
	DD	$LN8@ScrToggleP
$LN8@ScrToggleP:
	DD	-52					; ffffffccH
	DD	6
	DD	$LN4@ScrToggleP
	DD	-336					; fffffeb0H
	DD	273					; 00000111H
	DD	$LN5@ScrToggleP
	DD	-345					; fffffea7H
	DD	1
	DD	$LN6@ScrToggleP
$LN6@ScrToggleP:
	DB	98					; 00000062H
	DB	121					; 00000079H
	DB	116					; 00000074H
	DB	101					; 00000065H
	DB	67					; 00000043H
	DB	111					; 0000006fH
	DB	110					; 0000006eH
	DB	116					; 00000074H
	DB	114					; 00000072H
	DB	111					; 0000006fH
	DB	108					; 0000006cH
	DB	108					; 0000006cH
	DB	97					; 00000061H
	DB	98					; 00000062H
	DB	108					; 0000006cH
	DB	101					; 00000065H
	DB	0
$LN5@ScrToggleP:
	DB	98					; 00000062H
	DB	115					; 00000073H
	DB	68					; 00000044H
	DB	97					; 00000061H
	DB	116					; 00000074H
	DB	97					; 00000061H
	DB	0
$LN4@ScrToggleP:
	DB	115					; 00000073H
	DB	101					; 00000065H
	DB	110					; 0000006eH
	DB	100					; 00000064H
	DB	101					; 00000065H
	DB	114					; 00000072H
	DB	0
_TEXT	ENDS
;	COMDAT text$x
text$x	SEGMENT
__unwindfunclet$?ScrTogglePlayerControllable@@YAXPAURPCParameters@@@Z$0:
	lea	ecx, DWORD PTR _bsData$[ebp]
	jmp	??1BitStream@RakNet@@QAE@XZ		; RakNet::BitStream::~BitStream
__ehhandler$?ScrTogglePlayerControllable@@YAXPAURPCParameters@@@Z:
	mov	edx, DWORD PTR [esp+8]
	lea	eax, DWORD PTR [edx+12]
	mov	ecx, DWORD PTR [edx-548]
	xor	ecx, eax
	call	@__security_check_cookie@4
	mov	ecx, DWORD PTR [edx-4]
	xor	ecx, eax
	call	@__security_check_cookie@4
	mov	eax, OFFSET __ehfuncinfo$?ScrTogglePlayerControllable@@YAXPAURPCParameters@@@Z
	jmp	___CxxFrameHandler3
text$x	ENDS
?ScrTogglePlayerControllable@@YAXPAURPCParameters@@@Z ENDP ; ScrTogglePlayerControllable
; Function compile flags: /Odtp /RTCsu /ZI
; File z:\sampsrc\02xu1\saco\net\scriptrpc.cpp
;	COMDAT ?ScrSetCameraBehindPlayer@@YAXPAURPCParameters@@@Z
_TEXT	SEGMENT
_sender$ = -36						; size = 6
_iBitLength$ = -20					; size = 4
_Data$ = -8						; size = 4
_rpcParams$ = 8						; size = 4
?ScrSetCameraBehindPlayer@@YAXPAURPCParameters@@@Z PROC	; ScrSetCameraBehindPlayer, COMDAT

; 433  : {

	push	ebp
	mov	ebp, esp
	sub	esp, 232				; 000000e8H
	push	ebx
	push	esi
	push	edi
	lea	edi, DWORD PTR [ebp-232]
	mov	ecx, 58					; 0000003aH
	mov	eax, -858993460				; ccccccccH
	rep stosd

; 434  : 	PCHAR Data = reinterpret_cast<PCHAR>(rpcParams->input);

	mov	eax, DWORD PTR _rpcParams$[ebp]
	mov	ecx, DWORD PTR [eax]
	mov	DWORD PTR _Data$[ebp], ecx

; 435  : 	int iBitLength = rpcParams->numberOfBitsOfData;

	mov	eax, DWORD PTR _rpcParams$[ebp]
	mov	ecx, DWORD PTR [eax+4]
	mov	DWORD PTR _iBitLength$[ebp], ecx

; 436  : 	PlayerID sender = rpcParams->sender;

	mov	eax, DWORD PTR _rpcParams$[ebp]
	add	eax, 8
	mov	ecx, DWORD PTR [eax]
	mov	DWORD PTR _sender$[ebp], ecx
	mov	dx, WORD PTR [eax+4]
	mov	WORD PTR _sender$[ebp+4], dx

; 437  : 
; 438  : 	pGame->GetCamera()->SetBehindPlayer();	

	mov	ecx, DWORD PTR ?pGame@@3PAVCGame@@A	; pGame
	call	?GetCamera@CGame@@QAEPAVCCamera@@XZ	; CGame::GetCamera
	mov	ecx, eax
	call	?SetBehindPlayer@CCamera@@QAEXXZ	; CCamera::SetBehindPlayer

; 439  : }

	push	edx
	mov	ecx, ebp
	push	eax
	lea	edx, DWORD PTR $LN5@ScrSetCame
	call	@_RTC_CheckStackVars@8
	pop	eax
	pop	edx
	pop	edi
	pop	esi
	pop	ebx
	add	esp, 232				; 000000e8H
	cmp	ebp, esp
	call	__RTC_CheckEsp
	mov	esp, ebp
	pop	ebp
	ret	0
	npad	3
$LN5@ScrSetCame:
	DD	1
	DD	$LN4@ScrSetCame
$LN4@ScrSetCame:
	DD	-36					; ffffffdcH
	DD	6
	DD	$LN3@ScrSetCame
$LN3@ScrSetCame:
	DB	115					; 00000073H
	DB	101					; 00000065H
	DB	110					; 0000006eH
	DB	100					; 00000064H
	DB	101					; 00000065H
	DB	114					; 00000072H
	DB	0
?ScrSetCameraBehindPlayer@@YAXPAURPCParameters@@@Z ENDP	; ScrSetCameraBehindPlayer
_TEXT	ENDS
; Function compile flags: /Odtp /RTCsu /ZI
; File z:\sampsrc\02xu1\saco\net\scriptrpc.cpp
;	COMDAT ?ScrLinkVehicle@@YAXPAURPCParameters@@@Z
_TEXT	SEGMENT
_pVehiclePool$ = -372					; size = 4
_byteInterior$ = -357					; size = 1
_VehicleID$ = -348					; size = 2
_bsData$ = -336						; size = 273
_sender$ = -52						; size = 6
_iBitLength$ = -36					; size = 4
_Data$ = -24						; size = 4
__$ArrayPad$ = -16					; size = 4
__$EHRec$ = -12						; size = 12
_rpcParams$ = 8						; size = 4
?ScrLinkVehicle@@YAXPAURPCParameters@@@Z PROC		; ScrLinkVehicle, COMDAT

; 413  : {

	push	ebp
	mov	ebp, esp
	push	-1
	push	__ehhandler$?ScrLinkVehicle@@YAXPAURPCParameters@@@Z
	mov	eax, DWORD PTR fs:0
	push	eax
	sub	esp, 556				; 0000022cH
	push	ebx
	push	esi
	push	edi
	lea	edi, DWORD PTR [ebp-568]
	mov	ecx, 139				; 0000008bH
	mov	eax, -858993460				; ccccccccH
	rep stosd
	mov	eax, DWORD PTR ___security_cookie
	xor	eax, ebp
	mov	DWORD PTR __$ArrayPad$[ebp], eax
	push	eax
	lea	eax, DWORD PTR __$EHRec$[ebp]
	mov	DWORD PTR fs:0, eax

; 414  : 	PCHAR Data = reinterpret_cast<PCHAR>(rpcParams->input);

	mov	eax, DWORD PTR _rpcParams$[ebp]
	mov	ecx, DWORD PTR [eax]
	mov	DWORD PTR _Data$[ebp], ecx

; 415  : 	int iBitLength = rpcParams->numberOfBitsOfData;

	mov	eax, DWORD PTR _rpcParams$[ebp]
	mov	ecx, DWORD PTR [eax+4]
	mov	DWORD PTR _iBitLength$[ebp], ecx

; 416  : 	PlayerID sender = rpcParams->sender;

	mov	eax, DWORD PTR _rpcParams$[ebp]
	add	eax, 8
	mov	ecx, DWORD PTR [eax]
	mov	DWORD PTR _sender$[ebp], ecx
	mov	dx, WORD PTR [eax+4]
	mov	WORD PTR _sender$[ebp+4], dx

; 417  : 
; 418  : 	RakNet::BitStream bsData(Data,(iBitLength/8)+1,false);

	push	0
	mov	eax, DWORD PTR _iBitLength$[ebp]
	cdq
	and	edx, 7
	add	eax, edx
	sar	eax, 3
	add	eax, 1
	push	eax
	mov	eax, DWORD PTR _Data$[ebp]
	push	eax
	lea	ecx, DWORD PTR _bsData$[ebp]
	call	??0BitStream@RakNet@@QAE@PADI_N@Z	; RakNet::BitStream::BitStream
	mov	DWORD PTR __$EHRec$[ebp+8], 0

; 419  : 
; 420  : 	VEHICLEID VehicleID;
; 421  : 	BYTE byteInterior;
; 422  : 
; 423  : 	bsData.Read(VehicleID);

	lea	eax, DWORD PTR _VehicleID$[ebp]
	push	eax
	lea	ecx, DWORD PTR _bsData$[ebp]
	call	??$Read@G@BitStream@RakNet@@QAE_NAAG@Z	; RakNet::BitStream::Read<unsigned short>

; 424  : 	bsData.Read(byteInterior);

	lea	eax, DWORD PTR _byteInterior$[ebp]
	push	eax
	lea	ecx, DWORD PTR _bsData$[ebp]
	call	??$Read@E@BitStream@RakNet@@QAE_NAAE@Z	; RakNet::BitStream::Read<unsigned char>

; 425  : 
; 426  : 	CVehiclePool *pVehiclePool = pNetGame->GetVehiclePool();

	mov	ecx, DWORD PTR ?pNetGame@@3PAVCNetGame@@A ; pNetGame
	call	?GetVehiclePool@CNetGame@@QAEPAVCVehiclePool@@XZ ; CNetGame::GetVehiclePool
	mov	DWORD PTR _pVehiclePool$[ebp], eax

; 427  : 	pVehiclePool->LinkToInterior(VehicleID, (int)byteInterior);

	movzx	eax, BYTE PTR _byteInterior$[ebp]
	push	eax
	movzx	ecx, WORD PTR _VehicleID$[ebp]
	push	ecx
	mov	ecx, DWORD PTR _pVehiclePool$[ebp]
	call	?LinkToInterior@CVehiclePool@@QAEXGH@Z	; CVehiclePool::LinkToInterior

; 428  : }

	mov	DWORD PTR __$EHRec$[ebp+8], -1
	lea	ecx, DWORD PTR _bsData$[ebp]
	call	??1BitStream@RakNet@@QAE@XZ		; RakNet::BitStream::~BitStream
	push	edx
	mov	ecx, ebp
	push	eax
	lea	edx, DWORD PTR $LN10@ScrLinkVeh
	call	@_RTC_CheckStackVars@8
	pop	eax
	pop	edx
	mov	ecx, DWORD PTR __$EHRec$[ebp]
	mov	DWORD PTR fs:0, ecx
	pop	ecx
	pop	edi
	pop	esi
	pop	ebx
	mov	ecx, DWORD PTR __$ArrayPad$[ebp]
	xor	ecx, ebp
	call	@__security_check_cookie@4
	add	esp, 568				; 00000238H
	cmp	ebp, esp
	call	__RTC_CheckEsp
	mov	esp, ebp
	pop	ebp
	ret	0
$LN10@ScrLinkVeh:
	DD	4
	DD	$LN9@ScrLinkVeh
$LN9@ScrLinkVeh:
	DD	-52					; ffffffccH
	DD	6
	DD	$LN4@ScrLinkVeh
	DD	-336					; fffffeb0H
	DD	273					; 00000111H
	DD	$LN5@ScrLinkVeh
	DD	-348					; fffffea4H
	DD	2
	DD	$LN6@ScrLinkVeh
	DD	-357					; fffffe9bH
	DD	1
	DD	$LN7@ScrLinkVeh
$LN7@ScrLinkVeh:
	DB	98					; 00000062H
	DB	121					; 00000079H
	DB	116					; 00000074H
	DB	101					; 00000065H
	DB	73					; 00000049H
	DB	110					; 0000006eH
	DB	116					; 00000074H
	DB	101					; 00000065H
	DB	114					; 00000072H
	DB	105					; 00000069H
	DB	111					; 0000006fH
	DB	114					; 00000072H
	DB	0
$LN6@ScrLinkVeh:
	DB	86					; 00000056H
	DB	101					; 00000065H
	DB	104					; 00000068H
	DB	105					; 00000069H
	DB	99					; 00000063H
	DB	108					; 0000006cH
	DB	101					; 00000065H
	DB	73					; 00000049H
	DB	68					; 00000044H
	DB	0
$LN5@ScrLinkVeh:
	DB	98					; 00000062H
	DB	115					; 00000073H
	DB	68					; 00000044H
	DB	97					; 00000061H
	DB	116					; 00000074H
	DB	97					; 00000061H
	DB	0
$LN4@ScrLinkVeh:
	DB	115					; 00000073H
	DB	101					; 00000065H
	DB	110					; 0000006eH
	DB	100					; 00000064H
	DB	101					; 00000065H
	DB	114					; 00000072H
	DB	0
_TEXT	ENDS
;	COMDAT text$x
text$x	SEGMENT
__unwindfunclet$?ScrLinkVehicle@@YAXPAURPCParameters@@@Z$0:
	lea	ecx, DWORD PTR _bsData$[ebp]
	jmp	??1BitStream@RakNet@@QAE@XZ		; RakNet::BitStream::~BitStream
__ehhandler$?ScrLinkVehicle@@YAXPAURPCParameters@@@Z:
	mov	edx, DWORD PTR [esp+8]
	lea	eax, DWORD PTR [edx+12]
	mov	ecx, DWORD PTR [edx-572]
	xor	ecx, eax
	call	@__security_check_cookie@4
	mov	ecx, DWORD PTR [edx-4]
	xor	ecx, eax
	call	@__security_check_cookie@4
	mov	eax, OFFSET __ehfuncinfo$?ScrLinkVehicle@@YAXPAURPCParameters@@@Z
	jmp	___CxxFrameHandler3
text$x	ENDS
?ScrLinkVehicle@@YAXPAURPCParameters@@@Z ENDP		; ScrLinkVehicle
; Function compile flags: /Odtp /RTCsu /ZI
; File z:\sampsrc\02xu1\saco\net\scriptrpc.cpp
;	COMDAT ?ScrVehicleParams@@YAXPAURPCParameters@@@Z
_TEXT	SEGMENT
_pVehiclePool$ = -384					; size = 4
_byteDoorsLocked$ = -369				; size = 1
_byteObjectiveVehicle$ = -357				; size = 1
_VehicleID$ = -348					; size = 2
_bsData$ = -336						; size = 273
_sender$ = -52						; size = 6
_iBitLength$ = -36					; size = 4
_Data$ = -24						; size = 4
__$ArrayPad$ = -16					; size = 4
__$EHRec$ = -12						; size = 12
_rpcParams$ = 8						; size = 4
?ScrVehicleParams@@YAXPAURPCParameters@@@Z PROC		; ScrVehicleParams, COMDAT

; 390  : {

	push	ebp
	mov	ebp, esp
	push	-1
	push	__ehhandler$?ScrVehicleParams@@YAXPAURPCParameters@@@Z
	mov	eax, DWORD PTR fs:0
	push	eax
	sub	esp, 568				; 00000238H
	push	ebx
	push	esi
	push	edi
	lea	edi, DWORD PTR [ebp-580]
	mov	ecx, 142				; 0000008eH
	mov	eax, -858993460				; ccccccccH
	rep stosd
	mov	eax, DWORD PTR ___security_cookie
	xor	eax, ebp
	mov	DWORD PTR __$ArrayPad$[ebp], eax
	push	eax
	lea	eax, DWORD PTR __$EHRec$[ebp]
	mov	DWORD PTR fs:0, eax

; 391  : 	PCHAR Data = reinterpret_cast<PCHAR>(rpcParams->input);

	mov	eax, DWORD PTR _rpcParams$[ebp]
	mov	ecx, DWORD PTR [eax]
	mov	DWORD PTR _Data$[ebp], ecx

; 392  : 	int iBitLength = rpcParams->numberOfBitsOfData;

	mov	eax, DWORD PTR _rpcParams$[ebp]
	mov	ecx, DWORD PTR [eax+4]
	mov	DWORD PTR _iBitLength$[ebp], ecx

; 393  : 	PlayerID sender = rpcParams->sender;

	mov	eax, DWORD PTR _rpcParams$[ebp]
	add	eax, 8
	mov	ecx, DWORD PTR [eax]
	mov	DWORD PTR _sender$[ebp], ecx
	mov	dx, WORD PTR [eax+4]
	mov	WORD PTR _sender$[ebp+4], dx

; 394  : 
; 395  : 	RakNet::BitStream bsData(Data,(iBitLength/8)+1,false);

	push	0
	mov	eax, DWORD PTR _iBitLength$[ebp]
	cdq
	and	edx, 7
	add	eax, edx
	sar	eax, 3
	add	eax, 1
	push	eax
	mov	eax, DWORD PTR _Data$[ebp]
	push	eax
	lea	ecx, DWORD PTR _bsData$[ebp]
	call	??0BitStream@RakNet@@QAE@PADI_N@Z	; RakNet::BitStream::BitStream
	mov	DWORD PTR __$EHRec$[ebp+8], 0

; 396  : 
; 397  : 	VEHICLEID VehicleID;
; 398  : 	BYTE byteObjectiveVehicle;
; 399  : 	BYTE byteDoorsLocked;
; 400  : 
; 401  : 	bsData.Read(VehicleID);

	lea	eax, DWORD PTR _VehicleID$[ebp]
	push	eax
	lea	ecx, DWORD PTR _bsData$[ebp]
	call	??$Read@G@BitStream@RakNet@@QAE_NAAG@Z	; RakNet::BitStream::Read<unsigned short>

; 402  : 	bsData.Read(byteObjectiveVehicle);

	lea	eax, DWORD PTR _byteObjectiveVehicle$[ebp]
	push	eax
	lea	ecx, DWORD PTR _bsData$[ebp]
	call	??$Read@E@BitStream@RakNet@@QAE_NAAE@Z	; RakNet::BitStream::Read<unsigned char>

; 403  : 	bsData.Read(byteDoorsLocked);

	lea	eax, DWORD PTR _byteDoorsLocked$[ebp]
	push	eax
	lea	ecx, DWORD PTR _bsData$[ebp]
	call	??$Read@E@BitStream@RakNet@@QAE_NAAE@Z	; RakNet::BitStream::Read<unsigned char>

; 404  : 
; 405  : 	CVehiclePool *pVehiclePool = pNetGame->GetVehiclePool();

	mov	ecx, DWORD PTR ?pNetGame@@3PAVCNetGame@@A ; pNetGame
	call	?GetVehiclePool@CNetGame@@QAEPAVCVehiclePool@@XZ ; CNetGame::GetVehiclePool
	mov	DWORD PTR _pVehiclePool$[ebp], eax

; 406  : 	pVehiclePool->AssignSpecialParamsToVehicle(VehicleID,byteObjectiveVehicle,byteDoorsLocked);

	movzx	eax, BYTE PTR _byteDoorsLocked$[ebp]
	push	eax
	movzx	ecx, BYTE PTR _byteObjectiveVehicle$[ebp]
	push	ecx
	movzx	edx, WORD PTR _VehicleID$[ebp]
	push	edx
	mov	ecx, DWORD PTR _pVehiclePool$[ebp]
	call	?AssignSpecialParamsToVehicle@CVehiclePool@@QAEXGEE@Z ; CVehiclePool::AssignSpecialParamsToVehicle

; 407  : 
; 408  : }

	mov	DWORD PTR __$EHRec$[ebp+8], -1
	lea	ecx, DWORD PTR _bsData$[ebp]
	call	??1BitStream@RakNet@@QAE@XZ		; RakNet::BitStream::~BitStream
	push	edx
	mov	ecx, ebp
	push	eax
	lea	edx, DWORD PTR $LN11@ScrVehicle
	call	@_RTC_CheckStackVars@8
	pop	eax
	pop	edx
	mov	ecx, DWORD PTR __$EHRec$[ebp]
	mov	DWORD PTR fs:0, ecx
	pop	ecx
	pop	edi
	pop	esi
	pop	ebx
	mov	ecx, DWORD PTR __$ArrayPad$[ebp]
	xor	ecx, ebp
	call	@__security_check_cookie@4
	add	esp, 580				; 00000244H
	cmp	ebp, esp
	call	__RTC_CheckEsp
	mov	esp, ebp
	pop	ebp
	ret	0
	npad	2
$LN11@ScrVehicle:
	DD	5
	DD	$LN10@ScrVehicle
$LN10@ScrVehicle:
	DD	-52					; ffffffccH
	DD	6
	DD	$LN4@ScrVehicle
	DD	-336					; fffffeb0H
	DD	273					; 00000111H
	DD	$LN5@ScrVehicle
	DD	-348					; fffffea4H
	DD	2
	DD	$LN6@ScrVehicle
	DD	-357					; fffffe9bH
	DD	1
	DD	$LN7@ScrVehicle
	DD	-369					; fffffe8fH
	DD	1
	DD	$LN8@ScrVehicle
$LN8@ScrVehicle:
	DB	98					; 00000062H
	DB	121					; 00000079H
	DB	116					; 00000074H
	DB	101					; 00000065H
	DB	68					; 00000044H
	DB	111					; 0000006fH
	DB	111					; 0000006fH
	DB	114					; 00000072H
	DB	115					; 00000073H
	DB	76					; 0000004cH
	DB	111					; 0000006fH
	DB	99					; 00000063H
	DB	107					; 0000006bH
	DB	101					; 00000065H
	DB	100					; 00000064H
	DB	0
$LN7@ScrVehicle:
	DB	98					; 00000062H
	DB	121					; 00000079H
	DB	116					; 00000074H
	DB	101					; 00000065H
	DB	79					; 0000004fH
	DB	98					; 00000062H
	DB	106					; 0000006aH
	DB	101					; 00000065H
	DB	99					; 00000063H
	DB	116					; 00000074H
	DB	105					; 00000069H
	DB	118					; 00000076H
	DB	101					; 00000065H
	DB	86					; 00000056H
	DB	101					; 00000065H
	DB	104					; 00000068H
	DB	105					; 00000069H
	DB	99					; 00000063H
	DB	108					; 0000006cH
	DB	101					; 00000065H
	DB	0
$LN6@ScrVehicle:
	DB	86					; 00000056H
	DB	101					; 00000065H
	DB	104					; 00000068H
	DB	105					; 00000069H
	DB	99					; 00000063H
	DB	108					; 0000006cH
	DB	101					; 00000065H
	DB	73					; 00000049H
	DB	68					; 00000044H
	DB	0
$LN5@ScrVehicle:
	DB	98					; 00000062H
	DB	115					; 00000073H
	DB	68					; 00000044H
	DB	97					; 00000061H
	DB	116					; 00000074H
	DB	97					; 00000061H
	DB	0
$LN4@ScrVehicle:
	DB	115					; 00000073H
	DB	101					; 00000065H
	DB	110					; 0000006eH
	DB	100					; 00000064H
	DB	101					; 00000065H
	DB	114					; 00000072H
	DB	0
_TEXT	ENDS
;	COMDAT text$x
text$x	SEGMENT
__unwindfunclet$?ScrVehicleParams@@YAXPAURPCParameters@@@Z$0:
	lea	ecx, DWORD PTR _bsData$[ebp]
	jmp	??1BitStream@RakNet@@QAE@XZ		; RakNet::BitStream::~BitStream
__ehhandler$?ScrVehicleParams@@YAXPAURPCParameters@@@Z:
	mov	edx, DWORD PTR [esp+8]
	lea	eax, DWORD PTR [edx+12]
	mov	ecx, DWORD PTR [edx-584]
	xor	ecx, eax
	call	@__security_check_cookie@4
	mov	ecx, DWORD PTR [edx-4]
	xor	ecx, eax
	call	@__security_check_cookie@4
	mov	eax, OFFSET __ehfuncinfo$?ScrVehicleParams@@YAXPAURPCParameters@@@Z
	jmp	___CxxFrameHandler3
text$x	ENDS
?ScrVehicleParams@@YAXPAURPCParameters@@@Z ENDP		; ScrVehicleParams
; Function compile flags: /Odtp /RTCsu /ZI
; File z:\sampsrc\02xu1\saco\net\scriptrpc.cpp
;	COMDAT ?ScrSetVehicleZAngle@@YAXPAURPCParameters@@@Z
_TEXT	SEGMENT
_fZAngle$ = -360					; size = 4
_VehicleId$ = -348					; size = 2
_bsData$ = -336						; size = 273
_sender$ = -52						; size = 6
_iBitLength$ = -36					; size = 4
_Data$ = -24						; size = 4
__$ArrayPad$ = -16					; size = 4
__$EHRec$ = -12						; size = 12
_rpcParams$ = 8						; size = 4
?ScrSetVehicleZAngle@@YAXPAURPCParameters@@@Z PROC	; ScrSetVehicleZAngle, COMDAT

; 373  : {

	push	ebp
	mov	ebp, esp
	push	-1
	push	__ehhandler$?ScrSetVehicleZAngle@@YAXPAURPCParameters@@@Z
	mov	eax, DWORD PTR fs:0
	push	eax
	sub	esp, 544				; 00000220H
	push	ebx
	push	esi
	push	edi
	lea	edi, DWORD PTR [ebp-556]
	mov	ecx, 136				; 00000088H
	mov	eax, -858993460				; ccccccccH
	rep stosd
	mov	eax, DWORD PTR ___security_cookie
	xor	eax, ebp
	mov	DWORD PTR __$ArrayPad$[ebp], eax
	push	eax
	lea	eax, DWORD PTR __$EHRec$[ebp]
	mov	DWORD PTR fs:0, eax

; 374  : 	PCHAR Data = reinterpret_cast<PCHAR>(rpcParams->input);

	mov	eax, DWORD PTR _rpcParams$[ebp]
	mov	ecx, DWORD PTR [eax]
	mov	DWORD PTR _Data$[ebp], ecx

; 375  : 	int iBitLength = rpcParams->numberOfBitsOfData;

	mov	eax, DWORD PTR _rpcParams$[ebp]
	mov	ecx, DWORD PTR [eax+4]
	mov	DWORD PTR _iBitLength$[ebp], ecx

; 376  : 	PlayerID sender = rpcParams->sender;

	mov	eax, DWORD PTR _rpcParams$[ebp]
	add	eax, 8
	mov	ecx, DWORD PTR [eax]
	mov	DWORD PTR _sender$[ebp], ecx
	mov	dx, WORD PTR [eax+4]
	mov	WORD PTR _sender$[ebp+4], dx

; 377  : 
; 378  : 	RakNet::BitStream bsData(Data,(iBitLength/8)+1,false);

	push	0
	mov	eax, DWORD PTR _iBitLength$[ebp]
	cdq
	and	edx, 7
	add	eax, edx
	sar	eax, 3
	add	eax, 1
	push	eax
	mov	eax, DWORD PTR _Data$[ebp]
	push	eax
	lea	ecx, DWORD PTR _bsData$[ebp]
	call	??0BitStream@RakNet@@QAE@PADI_N@Z	; RakNet::BitStream::BitStream
	mov	DWORD PTR __$EHRec$[ebp+8], 0

; 379  : 	VEHICLEID VehicleId;
; 380  : 	float fZAngle;
; 381  : 	bsData.Read(VehicleId);

	lea	eax, DWORD PTR _VehicleId$[ebp]
	push	eax
	lea	ecx, DWORD PTR _bsData$[ebp]
	call	??$Read@G@BitStream@RakNet@@QAE_NAAG@Z	; RakNet::BitStream::Read<unsigned short>

; 382  : 	bsData.Read(fZAngle);

	lea	eax, DWORD PTR _fZAngle$[ebp]
	push	eax
	lea	ecx, DWORD PTR _bsData$[ebp]
	call	??$Read@M@BitStream@RakNet@@QAE_NAAM@Z	; RakNet::BitStream::Read<float>

; 383  : 
; 384  : 	ScriptCommand(&set_car_z_angle, pNetGame->GetVehiclePool()->GetAt(VehicleId)->m_dwGTAId, fZAngle);

	cvtss2sd xmm0, DWORD PTR _fZAngle$[ebp]
	sub	esp, 8
	movsd	QWORD PTR [esp], xmm0
	movzx	eax, WORD PTR _VehicleId$[ebp]
	push	eax
	mov	ecx, DWORD PTR ?pNetGame@@3PAVCNetGame@@A ; pNetGame
	call	?GetVehiclePool@CNetGame@@QAEPAVCVehiclePool@@XZ ; CNetGame::GetVehiclePool
	mov	ecx, eax
	call	?GetAt@CVehiclePool@@QAEPAVCVehicle@@G@Z ; CVehiclePool::GetAt
	mov	ecx, DWORD PTR [eax+8]
	push	ecx
	push	OFFSET _set_car_z_angle
	call	?ScriptCommand@@YAHPBUSCRIPT_COMMAND@@ZZ ; ScriptCommand
	add	esp, 16					; 00000010H

; 385  : }

	mov	DWORD PTR __$EHRec$[ebp+8], -1
	lea	ecx, DWORD PTR _bsData$[ebp]
	call	??1BitStream@RakNet@@QAE@XZ		; RakNet::BitStream::~BitStream
	push	edx
	mov	ecx, ebp
	push	eax
	lea	edx, DWORD PTR $LN10@ScrSetVehi
	call	@_RTC_CheckStackVars@8
	pop	eax
	pop	edx
	mov	ecx, DWORD PTR __$EHRec$[ebp]
	mov	DWORD PTR fs:0, ecx
	pop	ecx
	pop	edi
	pop	esi
	pop	ebx
	mov	ecx, DWORD PTR __$ArrayPad$[ebp]
	xor	ecx, ebp
	call	@__security_check_cookie@4
	add	esp, 556				; 0000022cH
	cmp	ebp, esp
	call	__RTC_CheckEsp
	mov	esp, ebp
	pop	ebp
	ret	0
	npad	1
$LN10@ScrSetVehi:
	DD	4
	DD	$LN9@ScrSetVehi
$LN9@ScrSetVehi:
	DD	-52					; ffffffccH
	DD	6
	DD	$LN4@ScrSetVehi
	DD	-336					; fffffeb0H
	DD	273					; 00000111H
	DD	$LN5@ScrSetVehi
	DD	-348					; fffffea4H
	DD	2
	DD	$LN6@ScrSetVehi
	DD	-360					; fffffe98H
	DD	4
	DD	$LN7@ScrSetVehi
$LN7@ScrSetVehi:
	DB	102					; 00000066H
	DB	90					; 0000005aH
	DB	65					; 00000041H
	DB	110					; 0000006eH
	DB	103					; 00000067H
	DB	108					; 0000006cH
	DB	101					; 00000065H
	DB	0
$LN6@ScrSetVehi:
	DB	86					; 00000056H
	DB	101					; 00000065H
	DB	104					; 00000068H
	DB	105					; 00000069H
	DB	99					; 00000063H
	DB	108					; 0000006cH
	DB	101					; 00000065H
	DB	73					; 00000049H
	DB	100					; 00000064H
	DB	0
$LN5@ScrSetVehi:
	DB	98					; 00000062H
	DB	115					; 00000073H
	DB	68					; 00000044H
	DB	97					; 00000061H
	DB	116					; 00000074H
	DB	97					; 00000061H
	DB	0
$LN4@ScrSetVehi:
	DB	115					; 00000073H
	DB	101					; 00000065H
	DB	110					; 0000006eH
	DB	100					; 00000064H
	DB	101					; 00000065H
	DB	114					; 00000072H
	DB	0
_TEXT	ENDS
;	COMDAT text$x
text$x	SEGMENT
__unwindfunclet$?ScrSetVehicleZAngle@@YAXPAURPCParameters@@@Z$0:
	lea	ecx, DWORD PTR _bsData$[ebp]
	jmp	??1BitStream@RakNet@@QAE@XZ		; RakNet::BitStream::~BitStream
__ehhandler$?ScrSetVehicleZAngle@@YAXPAURPCParameters@@@Z:
	mov	edx, DWORD PTR [esp+8]
	lea	eax, DWORD PTR [edx+12]
	mov	ecx, DWORD PTR [edx-560]
	xor	ecx, eax
	call	@__security_check_cookie@4
	mov	ecx, DWORD PTR [edx-4]
	xor	ecx, eax
	call	@__security_check_cookie@4
	mov	eax, OFFSET __ehfuncinfo$?ScrSetVehicleZAngle@@YAXPAURPCParameters@@@Z
	jmp	___CxxFrameHandler3
text$x	ENDS
?ScrSetVehicleZAngle@@YAXPAURPCParameters@@@Z ENDP	; ScrSetVehicleZAngle
; Function compile flags: /Odtp /RTCsu /ZI
; File z:\sampsrc\02xu1\saco\net\scriptrpc.cpp
;	COMDAT ?ScrSetVehiclePos@@YAXPAURPCParameters@@@Z
_TEXT	SEGMENT
_fZ$ = -384						; size = 4
_fY$ = -372						; size = 4
_fX$ = -360						; size = 4
_VehicleId$ = -348					; size = 2
_bsData$ = -336						; size = 273
_sender$ = -52						; size = 6
_iBitLength$ = -36					; size = 4
_Data$ = -24						; size = 4
__$ArrayPad$ = -16					; size = 4
__$EHRec$ = -12						; size = 12
_rpcParams$ = 8						; size = 4
?ScrSetVehiclePos@@YAXPAURPCParameters@@@Z PROC		; ScrSetVehiclePos, COMDAT

; 352  : {

	push	ebp
	mov	ebp, esp
	push	-1
	push	__ehhandler$?ScrSetVehiclePos@@YAXPAURPCParameters@@@Z
	mov	eax, DWORD PTR fs:0
	push	eax
	sub	esp, 568				; 00000238H
	push	ebx
	push	esi
	push	edi
	lea	edi, DWORD PTR [ebp-580]
	mov	ecx, 142				; 0000008eH
	mov	eax, -858993460				; ccccccccH
	rep stosd
	mov	eax, DWORD PTR ___security_cookie
	xor	eax, ebp
	mov	DWORD PTR __$ArrayPad$[ebp], eax
	push	eax
	lea	eax, DWORD PTR __$EHRec$[ebp]
	mov	DWORD PTR fs:0, eax

; 353  : 	PCHAR Data = reinterpret_cast<PCHAR>(rpcParams->input);

	mov	eax, DWORD PTR _rpcParams$[ebp]
	mov	ecx, DWORD PTR [eax]
	mov	DWORD PTR _Data$[ebp], ecx

; 354  : 	int iBitLength = rpcParams->numberOfBitsOfData;

	mov	eax, DWORD PTR _rpcParams$[ebp]
	mov	ecx, DWORD PTR [eax+4]
	mov	DWORD PTR _iBitLength$[ebp], ecx

; 355  : 	PlayerID sender = rpcParams->sender;

	mov	eax, DWORD PTR _rpcParams$[ebp]
	add	eax, 8
	mov	ecx, DWORD PTR [eax]
	mov	DWORD PTR _sender$[ebp], ecx
	mov	dx, WORD PTR [eax+4]
	mov	WORD PTR _sender$[ebp+4], dx

; 356  : 
; 357  : 	RakNet::BitStream bsData(Data,(iBitLength/8)+1,false);

	push	0
	mov	eax, DWORD PTR _iBitLength$[ebp]
	cdq
	and	edx, 7
	add	eax, edx
	sar	eax, 3
	add	eax, 1
	push	eax
	mov	eax, DWORD PTR _Data$[ebp]
	push	eax
	lea	ecx, DWORD PTR _bsData$[ebp]
	call	??0BitStream@RakNet@@QAE@PADI_N@Z	; RakNet::BitStream::BitStream
	mov	DWORD PTR __$EHRec$[ebp+8], 0

; 358  : 	VEHICLEID VehicleId;
; 359  : 	float fX, fY, fZ;
; 360  : 	bsData.Read(VehicleId);

	lea	eax, DWORD PTR _VehicleId$[ebp]
	push	eax
	lea	ecx, DWORD PTR _bsData$[ebp]
	call	??$Read@G@BitStream@RakNet@@QAE_NAAG@Z	; RakNet::BitStream::Read<unsigned short>

; 361  : 	bsData.Read(fX);

	lea	eax, DWORD PTR _fX$[ebp]
	push	eax
	lea	ecx, DWORD PTR _bsData$[ebp]
	call	??$Read@M@BitStream@RakNet@@QAE_NAAM@Z	; RakNet::BitStream::Read<float>

; 362  : 	bsData.Read(fY);

	lea	eax, DWORD PTR _fY$[ebp]
	push	eax
	lea	ecx, DWORD PTR _bsData$[ebp]
	call	??$Read@M@BitStream@RakNet@@QAE_NAAM@Z	; RakNet::BitStream::Read<float>

; 363  : 	bsData.Read(fZ);

	lea	eax, DWORD PTR _fZ$[ebp]
	push	eax
	lea	ecx, DWORD PTR _bsData$[ebp]
	call	??$Read@M@BitStream@RakNet@@QAE_NAAM@Z	; RakNet::BitStream::Read<float>

; 364  : 
; 365  : 	if(pNetGame && pNetGame->GetVehiclePool()->GetSlotState(VehicleId)) {

	cmp	DWORD PTR ?pNetGame@@3PAVCNetGame@@A, 0	; pNetGame
	je	SHORT $LN1@ScrSetVehi
	movzx	eax, WORD PTR _VehicleId$[ebp]
	push	eax
	mov	ecx, DWORD PTR ?pNetGame@@3PAVCNetGame@@A ; pNetGame
	call	?GetVehiclePool@CNetGame@@QAEPAVCVehiclePool@@XZ ; CNetGame::GetVehiclePool
	mov	ecx, eax
	call	?GetSlotState@CVehiclePool@@QAEHG@Z	; CVehiclePool::GetSlotState
	test	eax, eax
	je	SHORT $LN1@ScrSetVehi

; 366  : 		pNetGame->GetVehiclePool()->GetAt(VehicleId)->TeleportTo(fX, fY, fZ);

	push	ecx
	movss	xmm0, DWORD PTR _fZ$[ebp]
	movss	DWORD PTR [esp], xmm0
	push	ecx
	movss	xmm0, DWORD PTR _fY$[ebp]
	movss	DWORD PTR [esp], xmm0
	push	ecx
	movss	xmm0, DWORD PTR _fX$[ebp]
	movss	DWORD PTR [esp], xmm0
	movzx	eax, WORD PTR _VehicleId$[ebp]
	push	eax
	mov	ecx, DWORD PTR ?pNetGame@@3PAVCNetGame@@A ; pNetGame
	call	?GetVehiclePool@CNetGame@@QAEPAVCVehiclePool@@XZ ; CNetGame::GetVehiclePool
	mov	ecx, eax
	call	?GetAt@CVehiclePool@@QAEPAVCVehicle@@G@Z ; CVehiclePool::GetAt
	mov	ecx, eax
	call	?TeleportTo@CEntity@@QAEXMMM@Z		; CEntity::TeleportTo
$LN1@ScrSetVehi:

; 367  : 	}
; 368  : }

	mov	DWORD PTR __$EHRec$[ebp+8], -1
	lea	ecx, DWORD PTR _bsData$[ebp]
	call	??1BitStream@RakNet@@QAE@XZ		; RakNet::BitStream::~BitStream
	push	edx
	mov	ecx, ebp
	push	eax
	lea	edx, DWORD PTR $LN13@ScrSetVehi
	call	@_RTC_CheckStackVars@8
	pop	eax
	pop	edx
	mov	ecx, DWORD PTR __$EHRec$[ebp]
	mov	DWORD PTR fs:0, ecx
	pop	ecx
	pop	edi
	pop	esi
	pop	ebx
	mov	ecx, DWORD PTR __$ArrayPad$[ebp]
	xor	ecx, ebp
	call	@__security_check_cookie@4
	add	esp, 580				; 00000244H
	cmp	ebp, esp
	call	__RTC_CheckEsp
	mov	esp, ebp
	pop	ebp
	ret	0
	npad	2
$LN13@ScrSetVehi:
	DD	6
	DD	$LN12@ScrSetVehi
$LN12@ScrSetVehi:
	DD	-52					; ffffffccH
	DD	6
	DD	$LN5@ScrSetVehi
	DD	-336					; fffffeb0H
	DD	273					; 00000111H
	DD	$LN6@ScrSetVehi
	DD	-348					; fffffea4H
	DD	2
	DD	$LN7@ScrSetVehi
	DD	-360					; fffffe98H
	DD	4
	DD	$LN8@ScrSetVehi
	DD	-372					; fffffe8cH
	DD	4
	DD	$LN9@ScrSetVehi
	DD	-384					; fffffe80H
	DD	4
	DD	$LN10@ScrSetVehi
$LN10@ScrSetVehi:
	DB	102					; 00000066H
	DB	90					; 0000005aH
	DB	0
$LN9@ScrSetVehi:
	DB	102					; 00000066H
	DB	89					; 00000059H
	DB	0
$LN8@ScrSetVehi:
	DB	102					; 00000066H
	DB	88					; 00000058H
	DB	0
$LN7@ScrSetVehi:
	DB	86					; 00000056H
	DB	101					; 00000065H
	DB	104					; 00000068H
	DB	105					; 00000069H
	DB	99					; 00000063H
	DB	108					; 0000006cH
	DB	101					; 00000065H
	DB	73					; 00000049H
	DB	100					; 00000064H
	DB	0
$LN6@ScrSetVehi:
	DB	98					; 00000062H
	DB	115					; 00000073H
	DB	68					; 00000044H
	DB	97					; 00000061H
	DB	116					; 00000074H
	DB	97					; 00000061H
	DB	0
$LN5@ScrSetVehi:
	DB	115					; 00000073H
	DB	101					; 00000065H
	DB	110					; 0000006eH
	DB	100					; 00000064H
	DB	101					; 00000065H
	DB	114					; 00000072H
	DB	0
_TEXT	ENDS
;	COMDAT text$x
text$x	SEGMENT
__unwindfunclet$?ScrSetVehiclePos@@YAXPAURPCParameters@@@Z$0:
	lea	ecx, DWORD PTR _bsData$[ebp]
	jmp	??1BitStream@RakNet@@QAE@XZ		; RakNet::BitStream::~BitStream
__ehhandler$?ScrSetVehiclePos@@YAXPAURPCParameters@@@Z:
	mov	edx, DWORD PTR [esp+8]
	lea	eax, DWORD PTR [edx+12]
	mov	ecx, DWORD PTR [edx-584]
	xor	ecx, eax
	call	@__security_check_cookie@4
	mov	ecx, DWORD PTR [edx-4]
	xor	ecx, eax
	call	@__security_check_cookie@4
	mov	eax, OFFSET __ehfuncinfo$?ScrSetVehiclePos@@YAXPAURPCParameters@@@Z
	jmp	___CxxFrameHandler3
text$x	ENDS
?ScrSetVehiclePos@@YAXPAURPCParameters@@@Z ENDP		; ScrSetVehiclePos
; Function compile flags: /Odtp /RTCsu /ZI
; File z:\sampsrc\02xu1\saco\net\scriptrpc.cpp
;	COMDAT ?ScrSetCameraLookAt@@YAXPAURPCParameters@@@Z
_TEXT	SEGMENT
_vecPos$ = -356						; size = 12
_bsData$ = -336						; size = 273
_sender$ = -52						; size = 6
_iBitLength$ = -36					; size = 4
_Data$ = -24						; size = 4
__$ArrayPad$ = -16					; size = 4
__$EHRec$ = -12						; size = 12
_rpcParams$ = 8						; size = 4
?ScrSetCameraLookAt@@YAXPAURPCParameters@@@Z PROC	; ScrSetCameraLookAt, COMDAT

; 336  : {

	push	ebp
	mov	ebp, esp
	push	-1
	push	__ehhandler$?ScrSetCameraLookAt@@YAXPAURPCParameters@@@Z
	mov	eax, DWORD PTR fs:0
	push	eax
	sub	esp, 540				; 0000021cH
	push	ebx
	push	esi
	push	edi
	lea	edi, DWORD PTR [ebp-552]
	mov	ecx, 135				; 00000087H
	mov	eax, -858993460				; ccccccccH
	rep stosd
	mov	eax, DWORD PTR ___security_cookie
	xor	eax, ebp
	mov	DWORD PTR __$ArrayPad$[ebp], eax
	push	eax
	lea	eax, DWORD PTR __$EHRec$[ebp]
	mov	DWORD PTR fs:0, eax

; 337  : 	PCHAR Data = reinterpret_cast<PCHAR>(rpcParams->input);

	mov	eax, DWORD PTR _rpcParams$[ebp]
	mov	ecx, DWORD PTR [eax]
	mov	DWORD PTR _Data$[ebp], ecx

; 338  : 	int iBitLength = rpcParams->numberOfBitsOfData;

	mov	eax, DWORD PTR _rpcParams$[ebp]
	mov	ecx, DWORD PTR [eax+4]
	mov	DWORD PTR _iBitLength$[ebp], ecx

; 339  : 	PlayerID sender = rpcParams->sender;

	mov	eax, DWORD PTR _rpcParams$[ebp]
	add	eax, 8
	mov	ecx, DWORD PTR [eax]
	mov	DWORD PTR _sender$[ebp], ecx
	mov	dx, WORD PTR [eax+4]
	mov	WORD PTR _sender$[ebp+4], dx

; 340  : 
; 341  : 	RakNet::BitStream bsData(Data,(iBitLength/8)+1,false);

	push	0
	mov	eax, DWORD PTR _iBitLength$[ebp]
	cdq
	and	edx, 7
	add	eax, edx
	sar	eax, 3
	add	eax, 1
	push	eax
	mov	eax, DWORD PTR _Data$[ebp]
	push	eax
	lea	ecx, DWORD PTR _bsData$[ebp]
	call	??0BitStream@RakNet@@QAE@PADI_N@Z	; RakNet::BitStream::BitStream
	mov	DWORD PTR __$EHRec$[ebp+8], 0

; 342  : 	VECTOR vecPos;
; 343  : 	bsData.Read(vecPos.X);

	lea	eax, DWORD PTR _vecPos$[ebp]
	push	eax
	lea	ecx, DWORD PTR _bsData$[ebp]
	call	??$Read@M@BitStream@RakNet@@QAE_NAAM@Z	; RakNet::BitStream::Read<float>

; 344  : 	bsData.Read(vecPos.Y);

	lea	eax, DWORD PTR _vecPos$[ebp+4]
	push	eax
	lea	ecx, DWORD PTR _bsData$[ebp]
	call	??$Read@M@BitStream@RakNet@@QAE_NAAM@Z	; RakNet::BitStream::Read<float>

; 345  : 	bsData.Read(vecPos.Z);

	lea	eax, DWORD PTR _vecPos$[ebp+8]
	push	eax
	lea	ecx, DWORD PTR _bsData$[ebp]
	call	??$Read@M@BitStream@RakNet@@QAE_NAAM@Z	; RakNet::BitStream::Read<float>

; 346  : 	pGame->GetCamera()->LookAtPoint(vecPos.X,vecPos.Y,vecPos.Z,2);	

	push	2
	push	ecx
	movss	xmm0, DWORD PTR _vecPos$[ebp+8]
	movss	DWORD PTR [esp], xmm0
	push	ecx
	movss	xmm0, DWORD PTR _vecPos$[ebp+4]
	movss	DWORD PTR [esp], xmm0
	push	ecx
	movss	xmm0, DWORD PTR _vecPos$[ebp]
	movss	DWORD PTR [esp], xmm0
	mov	ecx, DWORD PTR ?pGame@@3PAVCGame@@A	; pGame
	call	?GetCamera@CGame@@QAEPAVCCamera@@XZ	; CGame::GetCamera
	mov	ecx, eax
	call	?LookAtPoint@CCamera@@QAEXMMMH@Z	; CCamera::LookAtPoint

; 347  : }

	mov	DWORD PTR __$EHRec$[ebp+8], -1
	lea	ecx, DWORD PTR _bsData$[ebp]
	call	??1BitStream@RakNet@@QAE@XZ		; RakNet::BitStream::~BitStream
	push	edx
	mov	ecx, ebp
	push	eax
	lea	edx, DWORD PTR $LN9@ScrSetCame
	call	@_RTC_CheckStackVars@8
	pop	eax
	pop	edx
	mov	ecx, DWORD PTR __$EHRec$[ebp]
	mov	DWORD PTR fs:0, ecx
	pop	ecx
	pop	edi
	pop	esi
	pop	ebx
	mov	ecx, DWORD PTR __$ArrayPad$[ebp]
	xor	ecx, ebp
	call	@__security_check_cookie@4
	add	esp, 552				; 00000228H
	cmp	ebp, esp
	call	__RTC_CheckEsp
	mov	esp, ebp
	pop	ebp
	ret	0
$LN9@ScrSetCame:
	DD	3
	DD	$LN8@ScrSetCame
$LN8@ScrSetCame:
	DD	-52					; ffffffccH
	DD	6
	DD	$LN4@ScrSetCame
	DD	-336					; fffffeb0H
	DD	273					; 00000111H
	DD	$LN5@ScrSetCame
	DD	-356					; fffffe9cH
	DD	12					; 0000000cH
	DD	$LN6@ScrSetCame
$LN6@ScrSetCame:
	DB	118					; 00000076H
	DB	101					; 00000065H
	DB	99					; 00000063H
	DB	80					; 00000050H
	DB	111					; 0000006fH
	DB	115					; 00000073H
	DB	0
$LN5@ScrSetCame:
	DB	98					; 00000062H
	DB	115					; 00000073H
	DB	68					; 00000044H
	DB	97					; 00000061H
	DB	116					; 00000074H
	DB	97					; 00000061H
	DB	0
$LN4@ScrSetCame:
	DB	115					; 00000073H
	DB	101					; 00000065H
	DB	110					; 0000006eH
	DB	100					; 00000064H
	DB	101					; 00000065H
	DB	114					; 00000072H
	DB	0
_TEXT	ENDS
;	COMDAT text$x
text$x	SEGMENT
__unwindfunclet$?ScrSetCameraLookAt@@YAXPAURPCParameters@@@Z$0:
	lea	ecx, DWORD PTR _bsData$[ebp]
	jmp	??1BitStream@RakNet@@QAE@XZ		; RakNet::BitStream::~BitStream
__ehhandler$?ScrSetCameraLookAt@@YAXPAURPCParameters@@@Z:
	mov	edx, DWORD PTR [esp+8]
	lea	eax, DWORD PTR [edx+12]
	mov	ecx, DWORD PTR [edx-556]
	xor	ecx, eax
	call	@__security_check_cookie@4
	mov	ecx, DWORD PTR [edx-4]
	xor	ecx, eax
	call	@__security_check_cookie@4
	mov	eax, OFFSET __ehfuncinfo$?ScrSetCameraLookAt@@YAXPAURPCParameters@@@Z
	jmp	___CxxFrameHandler3
text$x	ENDS
?ScrSetCameraLookAt@@YAXPAURPCParameters@@@Z ENDP	; ScrSetCameraLookAt
; Function compile flags: /Odtp /RTCsu /ZI
; File z:\sampsrc\02xu1\saco\net\scriptrpc.cpp
;	COMDAT ?ScrSetCameraPos@@YAXPAURPCParameters@@@Z
_TEXT	SEGMENT
_vecPos$ = -356						; size = 12
_bsData$ = -336						; size = 273
_sender$ = -52						; size = 6
_iBitLength$ = -36					; size = 4
_Data$ = -24						; size = 4
__$ArrayPad$ = -16					; size = 4
__$EHRec$ = -12						; size = 12
_rpcParams$ = 8						; size = 4
?ScrSetCameraPos@@YAXPAURPCParameters@@@Z PROC		; ScrSetCameraPos, COMDAT

; 320  : {

	push	ebp
	mov	ebp, esp
	push	-1
	push	__ehhandler$?ScrSetCameraPos@@YAXPAURPCParameters@@@Z
	mov	eax, DWORD PTR fs:0
	push	eax
	sub	esp, 540				; 0000021cH
	push	ebx
	push	esi
	push	edi
	lea	edi, DWORD PTR [ebp-552]
	mov	ecx, 135				; 00000087H
	mov	eax, -858993460				; ccccccccH
	rep stosd
	mov	eax, DWORD PTR ___security_cookie
	xor	eax, ebp
	mov	DWORD PTR __$ArrayPad$[ebp], eax
	push	eax
	lea	eax, DWORD PTR __$EHRec$[ebp]
	mov	DWORD PTR fs:0, eax

; 321  : 	PCHAR Data = reinterpret_cast<PCHAR>(rpcParams->input);

	mov	eax, DWORD PTR _rpcParams$[ebp]
	mov	ecx, DWORD PTR [eax]
	mov	DWORD PTR _Data$[ebp], ecx

; 322  : 	int iBitLength = rpcParams->numberOfBitsOfData;

	mov	eax, DWORD PTR _rpcParams$[ebp]
	mov	ecx, DWORD PTR [eax+4]
	mov	DWORD PTR _iBitLength$[ebp], ecx

; 323  : 	PlayerID sender = rpcParams->sender;

	mov	eax, DWORD PTR _rpcParams$[ebp]
	add	eax, 8
	mov	ecx, DWORD PTR [eax]
	mov	DWORD PTR _sender$[ebp], ecx
	mov	dx, WORD PTR [eax+4]
	mov	WORD PTR _sender$[ebp+4], dx

; 324  : 
; 325  : 	RakNet::BitStream bsData(Data,(iBitLength/8)+1,false);

	push	0
	mov	eax, DWORD PTR _iBitLength$[ebp]
	cdq
	and	edx, 7
	add	eax, edx
	sar	eax, 3
	add	eax, 1
	push	eax
	mov	eax, DWORD PTR _Data$[ebp]
	push	eax
	lea	ecx, DWORD PTR _bsData$[ebp]
	call	??0BitStream@RakNet@@QAE@PADI_N@Z	; RakNet::BitStream::BitStream
	mov	DWORD PTR __$EHRec$[ebp+8], 0

; 326  : 	VECTOR vecPos;
; 327  : 	bsData.Read(vecPos.X);

	lea	eax, DWORD PTR _vecPos$[ebp]
	push	eax
	lea	ecx, DWORD PTR _bsData$[ebp]
	call	??$Read@M@BitStream@RakNet@@QAE_NAAM@Z	; RakNet::BitStream::Read<float>

; 328  : 	bsData.Read(vecPos.Y);

	lea	eax, DWORD PTR _vecPos$[ebp+4]
	push	eax
	lea	ecx, DWORD PTR _bsData$[ebp]
	call	??$Read@M@BitStream@RakNet@@QAE_NAAM@Z	; RakNet::BitStream::Read<float>

; 329  : 	bsData.Read(vecPos.Z);

	lea	eax, DWORD PTR _vecPos$[ebp+8]
	push	eax
	lea	ecx, DWORD PTR _bsData$[ebp]
	call	??$Read@M@BitStream@RakNet@@QAE_NAAM@Z	; RakNet::BitStream::Read<float>

; 330  : 	pGame->GetCamera()->SetPosition(vecPos.X,vecPos.Y,vecPos.Z,0.0f,0.0f,0.0f);

	push	ecx
	movss	xmm0, DWORD PTR __real@00000000
	movss	DWORD PTR [esp], xmm0
	push	ecx
	movss	xmm0, DWORD PTR __real@00000000
	movss	DWORD PTR [esp], xmm0
	push	ecx
	movss	xmm0, DWORD PTR __real@00000000
	movss	DWORD PTR [esp], xmm0
	push	ecx
	movss	xmm0, DWORD PTR _vecPos$[ebp+8]
	movss	DWORD PTR [esp], xmm0
	push	ecx
	movss	xmm0, DWORD PTR _vecPos$[ebp+4]
	movss	DWORD PTR [esp], xmm0
	push	ecx
	movss	xmm0, DWORD PTR _vecPos$[ebp]
	movss	DWORD PTR [esp], xmm0
	mov	ecx, DWORD PTR ?pGame@@3PAVCGame@@A	; pGame
	call	?GetCamera@CGame@@QAEPAVCCamera@@XZ	; CGame::GetCamera
	mov	ecx, eax
	call	?SetPosition@CCamera@@QAEXMMMMMM@Z	; CCamera::SetPosition

; 331  : }

	mov	DWORD PTR __$EHRec$[ebp+8], -1
	lea	ecx, DWORD PTR _bsData$[ebp]
	call	??1BitStream@RakNet@@QAE@XZ		; RakNet::BitStream::~BitStream
	push	edx
	mov	ecx, ebp
	push	eax
	lea	edx, DWORD PTR $LN9@ScrSetCame
	call	@_RTC_CheckStackVars@8
	pop	eax
	pop	edx
	mov	ecx, DWORD PTR __$EHRec$[ebp]
	mov	DWORD PTR fs:0, ecx
	pop	ecx
	pop	edi
	pop	esi
	pop	ebx
	mov	ecx, DWORD PTR __$ArrayPad$[ebp]
	xor	ecx, ebp
	call	@__security_check_cookie@4
	add	esp, 552				; 00000228H
	cmp	ebp, esp
	call	__RTC_CheckEsp
	mov	esp, ebp
	pop	ebp
	ret	0
$LN9@ScrSetCame:
	DD	3
	DD	$LN8@ScrSetCame
$LN8@ScrSetCame:
	DD	-52					; ffffffccH
	DD	6
	DD	$LN4@ScrSetCame
	DD	-336					; fffffeb0H
	DD	273					; 00000111H
	DD	$LN5@ScrSetCame
	DD	-356					; fffffe9cH
	DD	12					; 0000000cH
	DD	$LN6@ScrSetCame
$LN6@ScrSetCame:
	DB	118					; 00000076H
	DB	101					; 00000065H
	DB	99					; 00000063H
	DB	80					; 00000050H
	DB	111					; 0000006fH
	DB	115					; 00000073H
	DB	0
$LN5@ScrSetCame:
	DB	98					; 00000062H
	DB	115					; 00000073H
	DB	68					; 00000044H
	DB	97					; 00000061H
	DB	116					; 00000074H
	DB	97					; 00000061H
	DB	0
$LN4@ScrSetCame:
	DB	115					; 00000073H
	DB	101					; 00000065H
	DB	110					; 0000006eH
	DB	100					; 00000064H
	DB	101					; 00000065H
	DB	114					; 00000072H
	DB	0
_TEXT	ENDS
;	COMDAT text$x
text$x	SEGMENT
__unwindfunclet$?ScrSetCameraPos@@YAXPAURPCParameters@@@Z$0:
	lea	ecx, DWORD PTR _bsData$[ebp]
	jmp	??1BitStream@RakNet@@QAE@XZ		; RakNet::BitStream::~BitStream
__ehhandler$?ScrSetCameraPos@@YAXPAURPCParameters@@@Z:
	mov	edx, DWORD PTR [esp+8]
	lea	eax, DWORD PTR [edx+12]
	mov	ecx, DWORD PTR [edx-556]
	xor	ecx, eax
	call	@__security_check_cookie@4
	mov	ecx, DWORD PTR [edx-4]
	xor	ecx, eax
	call	@__security_check_cookie@4
	mov	eax, OFFSET __ehfuncinfo$?ScrSetCameraPos@@YAXPAURPCParameters@@@Z
	jmp	___CxxFrameHandler3
text$x	ENDS
?ScrSetCameraPos@@YAXPAURPCParameters@@@Z ENDP		; ScrSetCameraPos
; Function compile flags: /Odtp /RTCsu /ZI
; File z:\sampsrc\02xu1\saco\net\scriptrpc.cpp
;	COMDAT ?ScrSetInterior@@YAXPAURPCParameters@@@Z
_TEXT	SEGMENT
_byteInterior$ = -345					; size = 1
_bsData$ = -336						; size = 273
_sender$ = -52						; size = 6
_iBitLength$ = -36					; size = 4
_Data$ = -24						; size = 4
__$ArrayPad$ = -16					; size = 4
__$EHRec$ = -12						; size = 12
_rpcParams$ = 8						; size = 4
?ScrSetInterior@@YAXPAURPCParameters@@@Z PROC		; ScrSetInterior, COMDAT

; 303  : {

	push	ebp
	mov	ebp, esp
	push	-1
	push	__ehhandler$?ScrSetInterior@@YAXPAURPCParameters@@@Z
	mov	eax, DWORD PTR fs:0
	push	eax
	sub	esp, 532				; 00000214H
	push	ebx
	push	esi
	push	edi
	lea	edi, DWORD PTR [ebp-544]
	mov	ecx, 133				; 00000085H
	mov	eax, -858993460				; ccccccccH
	rep stosd
	mov	eax, DWORD PTR ___security_cookie
	xor	eax, ebp
	mov	DWORD PTR __$ArrayPad$[ebp], eax
	push	eax
	lea	eax, DWORD PTR __$EHRec$[ebp]
	mov	DWORD PTR fs:0, eax

; 304  : 	PCHAR Data = reinterpret_cast<PCHAR>(rpcParams->input);

	mov	eax, DWORD PTR _rpcParams$[ebp]
	mov	ecx, DWORD PTR [eax]
	mov	DWORD PTR _Data$[ebp], ecx

; 305  : 	int iBitLength = rpcParams->numberOfBitsOfData;

	mov	eax, DWORD PTR _rpcParams$[ebp]
	mov	ecx, DWORD PTR [eax+4]
	mov	DWORD PTR _iBitLength$[ebp], ecx

; 306  : 	PlayerID sender = rpcParams->sender;

	mov	eax, DWORD PTR _rpcParams$[ebp]
	add	eax, 8
	mov	ecx, DWORD PTR [eax]
	mov	DWORD PTR _sender$[ebp], ecx
	mov	dx, WORD PTR [eax+4]
	mov	WORD PTR _sender$[ebp+4], dx

; 307  : 
; 308  : 	RakNet::BitStream bsData(Data,(iBitLength/8)+1,false);

	push	0
	mov	eax, DWORD PTR _iBitLength$[ebp]
	cdq
	and	edx, 7
	add	eax, edx
	sar	eax, 3
	add	eax, 1
	push	eax
	mov	eax, DWORD PTR _Data$[ebp]
	push	eax
	lea	ecx, DWORD PTR _bsData$[ebp]
	call	??0BitStream@RakNet@@QAE@PADI_N@Z	; RakNet::BitStream::BitStream
	mov	DWORD PTR __$EHRec$[ebp+8], 0

; 309  : 	BYTE byteInterior;
; 310  : 	bsData.Read(byteInterior);

	lea	eax, DWORD PTR _byteInterior$[ebp]
	push	eax
	lea	ecx, DWORD PTR _bsData$[ebp]
	call	??$Read@E@BitStream@RakNet@@QAE_NAAE@Z	; RakNet::BitStream::Read<unsigned char>

; 311  : 	
; 312  : 	//pChatWindow->AddDebugMessage("ScrSetInterior(%u)",byteInterior);
; 313  : 
; 314  : 	pGame->FindPlayerPed()->SetInterior(byteInterior);	

	movzx	eax, BYTE PTR _byteInterior$[ebp]
	push	eax
	mov	ecx, DWORD PTR ?pGame@@3PAVCGame@@A	; pGame
	call	?FindPlayerPed@CGame@@QAEPAVCPlayerPed@@XZ ; CGame::FindPlayerPed
	mov	ecx, eax
	call	?SetInterior@CPlayerPed@@QAEXE@Z	; CPlayerPed::SetInterior

; 315  : }

	mov	DWORD PTR __$EHRec$[ebp+8], -1
	lea	ecx, DWORD PTR _bsData$[ebp]
	call	??1BitStream@RakNet@@QAE@XZ		; RakNet::BitStream::~BitStream
	push	edx
	mov	ecx, ebp
	push	eax
	lea	edx, DWORD PTR $LN9@ScrSetInte
	call	@_RTC_CheckStackVars@8
	pop	eax
	pop	edx
	mov	ecx, DWORD PTR __$EHRec$[ebp]
	mov	DWORD PTR fs:0, ecx
	pop	ecx
	pop	edi
	pop	esi
	pop	ebx
	mov	ecx, DWORD PTR __$ArrayPad$[ebp]
	xor	ecx, ebp
	call	@__security_check_cookie@4
	add	esp, 544				; 00000220H
	cmp	ebp, esp
	call	__RTC_CheckEsp
	mov	esp, ebp
	pop	ebp
	ret	0
$LN9@ScrSetInte:
	DD	3
	DD	$LN8@ScrSetInte
$LN8@ScrSetInte:
	DD	-52					; ffffffccH
	DD	6
	DD	$LN4@ScrSetInte
	DD	-336					; fffffeb0H
	DD	273					; 00000111H
	DD	$LN5@ScrSetInte
	DD	-345					; fffffea7H
	DD	1
	DD	$LN6@ScrSetInte
$LN6@ScrSetInte:
	DB	98					; 00000062H
	DB	121					; 00000079H
	DB	116					; 00000074H
	DB	101					; 00000065H
	DB	73					; 00000049H
	DB	110					; 0000006eH
	DB	116					; 00000074H
	DB	101					; 00000065H
	DB	114					; 00000072H
	DB	105					; 00000069H
	DB	111					; 0000006fH
	DB	114					; 00000072H
	DB	0
$LN5@ScrSetInte:
	DB	98					; 00000062H
	DB	115					; 00000073H
	DB	68					; 00000044H
	DB	97					; 00000061H
	DB	116					; 00000074H
	DB	97					; 00000061H
	DB	0
$LN4@ScrSetInte:
	DB	115					; 00000073H
	DB	101					; 00000065H
	DB	110					; 0000006eH
	DB	100					; 00000064H
	DB	101					; 00000065H
	DB	114					; 00000072H
	DB	0
_TEXT	ENDS
;	COMDAT text$x
text$x	SEGMENT
__unwindfunclet$?ScrSetInterior@@YAXPAURPCParameters@@@Z$0:
	lea	ecx, DWORD PTR _bsData$[ebp]
	jmp	??1BitStream@RakNet@@QAE@XZ		; RakNet::BitStream::~BitStream
__ehhandler$?ScrSetInterior@@YAXPAURPCParameters@@@Z:
	mov	edx, DWORD PTR [esp+8]
	lea	eax, DWORD PTR [edx+12]
	mov	ecx, DWORD PTR [edx-548]
	xor	ecx, eax
	call	@__security_check_cookie@4
	mov	ecx, DWORD PTR [edx-4]
	xor	ecx, eax
	call	@__security_check_cookie@4
	mov	eax, OFFSET __ehfuncinfo$?ScrSetInterior@@YAXPAURPCParameters@@@Z
	jmp	___CxxFrameHandler3
text$x	ENDS
?ScrSetInterior@@YAXPAURPCParameters@@@Z ENDP		; ScrSetInterior
; Function compile flags: /Odtp /RTCsu /ZI
; File z:\sampsrc\02xu1\saco\net\scriptrpc.cpp
;	COMDAT ?ScrDisplayGameText@@YAXPAURPCParameters@@@Z
_TEXT	SEGMENT
$T2 = -1096						; size = 4
_iLength$ = -892					; size = 4
_iTime$ = -880						; size = 4
_iType$ = -868						; size = 4
_szMessage$ = -856					; size = 512
_bsData$ = -336						; size = 273
_sender$ = -52						; size = 6
_iBitLength$ = -36					; size = 4
_Data$ = -24						; size = 4
__$ArrayPad$ = -16					; size = 4
__$EHRec$ = -12						; size = 12
_rpcParams$ = 8						; size = 4
?ScrDisplayGameText@@YAXPAURPCParameters@@@Z PROC	; ScrDisplayGameText, COMDAT

; 277  : {

	push	ebp
	mov	ebp, esp
	push	-1
	push	__ehhandler$?ScrDisplayGameText@@YAXPAURPCParameters@@@Z
	mov	eax, DWORD PTR fs:0
	push	eax
	sub	esp, 1088				; 00000440H
	push	ebx
	push	esi
	push	edi
	lea	edi, DWORD PTR [ebp-1100]
	mov	ecx, 272				; 00000110H
	mov	eax, -858993460				; ccccccccH
	rep stosd
	mov	eax, DWORD PTR ___security_cookie
	xor	eax, ebp
	mov	DWORD PTR __$ArrayPad$[ebp], eax
	push	eax
	lea	eax, DWORD PTR __$EHRec$[ebp]
	mov	DWORD PTR fs:0, eax

; 278  : 	PCHAR Data = reinterpret_cast<PCHAR>(rpcParams->input);

	mov	eax, DWORD PTR _rpcParams$[ebp]
	mov	ecx, DWORD PTR [eax]
	mov	DWORD PTR _Data$[ebp], ecx

; 279  : 	int iBitLength = rpcParams->numberOfBitsOfData;

	mov	eax, DWORD PTR _rpcParams$[ebp]
	mov	ecx, DWORD PTR [eax+4]
	mov	DWORD PTR _iBitLength$[ebp], ecx

; 280  : 	PlayerID sender = rpcParams->sender;

	mov	eax, DWORD PTR _rpcParams$[ebp]
	add	eax, 8
	mov	ecx, DWORD PTR [eax]
	mov	DWORD PTR _sender$[ebp], ecx
	mov	dx, WORD PTR [eax+4]
	mov	WORD PTR _sender$[ebp+4], dx

; 281  : 
; 282  : 	RakNet::BitStream bsData(Data,(iBitLength/8)+1,false);

	push	0
	mov	eax, DWORD PTR _iBitLength$[ebp]
	cdq
	and	edx, 7
	add	eax, edx
	sar	eax, 3
	add	eax, 1
	push	eax
	mov	eax, DWORD PTR _Data$[ebp]
	push	eax
	lea	ecx, DWORD PTR _bsData$[ebp]
	call	??0BitStream@RakNet@@QAE@PADI_N@Z	; RakNet::BitStream::BitStream
	mov	DWORD PTR __$EHRec$[ebp+8], 0

; 283  : 	char szMessage[512];
; 284  : 	int iType;
; 285  : 	int iTime;
; 286  : 	int iLength;
; 287  : 
; 288  : 	bsData.Read(iType);

	lea	eax, DWORD PTR _iType$[ebp]
	push	eax
	lea	ecx, DWORD PTR _bsData$[ebp]
	call	??$Read@H@BitStream@RakNet@@QAE_NAAH@Z	; RakNet::BitStream::Read<int>

; 289  : 	bsData.Read(iTime);

	lea	eax, DWORD PTR _iTime$[ebp]
	push	eax
	lea	ecx, DWORD PTR _bsData$[ebp]
	call	??$Read@H@BitStream@RakNet@@QAE_NAAH@Z	; RakNet::BitStream::Read<int>

; 290  : 	bsData.Read(iLength);

	lea	eax, DWORD PTR _iLength$[ebp]
	push	eax
	lea	ecx, DWORD PTR _bsData$[ebp]
	call	??$Read@H@BitStream@RakNet@@QAE_NAAH@Z	; RakNet::BitStream::Read<int>

; 291  : 
; 292  : 	if(iLength > 512) return;

	cmp	DWORD PTR _iLength$[ebp], 512		; 00000200H
	jle	SHORT $LN1@ScrDisplay
	mov	DWORD PTR __$EHRec$[ebp+8], -1
	lea	ecx, DWORD PTR _bsData$[ebp]
	call	??1BitStream@RakNet@@QAE@XZ		; RakNet::BitStream::~BitStream
	jmp	SHORT $LN3@ScrDisplay
$LN1@ScrDisplay:

; 293  : 
; 294  : 	bsData.Read(szMessage,iLength);

	mov	eax, DWORD PTR _iLength$[ebp]
	push	eax
	lea	ecx, DWORD PTR _szMessage$[ebp]
	push	ecx
	lea	ecx, DWORD PTR _bsData$[ebp]
	call	?Read@BitStream@RakNet@@QAE_NPADH@Z	; RakNet::BitStream::Read

; 295  : 	szMessage[iLength] = '\0';

	mov	eax, DWORD PTR _iLength$[ebp]
	mov	DWORD PTR $T2[ebp], eax
	cmp	DWORD PTR $T2[ebp], 512			; 00000200H
	jae	SHORT $LN4@ScrDisplay
	jmp	SHORT $LN5@ScrDisplay
$LN4@ScrDisplay:
	call	___report_rangecheckfailure
$LN5@ScrDisplay:
	mov	ecx, DWORD PTR $T2[ebp]
	mov	BYTE PTR _szMessage$[ebp+ecx], 0

; 296  : 
; 297  : 	pGame->DisplayGameText(szMessage,iTime,iType);

	mov	eax, DWORD PTR _iType$[ebp]
	push	eax
	mov	ecx, DWORD PTR _iTime$[ebp]
	push	ecx
	lea	edx, DWORD PTR _szMessage$[ebp]
	push	edx
	mov	ecx, DWORD PTR ?pGame@@3PAVCGame@@A	; pGame
	call	?DisplayGameText@CGame@@QAEXPADHH@Z	; CGame::DisplayGameText

; 298  : }

	mov	DWORD PTR __$EHRec$[ebp+8], -1
	lea	ecx, DWORD PTR _bsData$[ebp]
	call	??1BitStream@RakNet@@QAE@XZ		; RakNet::BitStream::~BitStream
$LN3@ScrDisplay:
	push	edx
	mov	ecx, ebp
	push	eax
	lea	edx, DWORD PTR $LN15@ScrDisplay
	call	@_RTC_CheckStackVars@8
	pop	eax
	pop	edx
	mov	ecx, DWORD PTR __$EHRec$[ebp]
	mov	DWORD PTR fs:0, ecx
	pop	ecx
	pop	edi
	pop	esi
	pop	ebx
	mov	ecx, DWORD PTR __$ArrayPad$[ebp]
	xor	ecx, ebp
	call	@__security_check_cookie@4
	add	esp, 1100				; 0000044cH
	cmp	ebp, esp
	call	__RTC_CheckEsp
	mov	esp, ebp
	pop	ebp
	ret	0
$LN15@ScrDisplay:
	DD	6
	DD	$LN14@ScrDisplay
$LN14@ScrDisplay:
	DD	-52					; ffffffccH
	DD	6
	DD	$LN7@ScrDisplay
	DD	-336					; fffffeb0H
	DD	273					; 00000111H
	DD	$LN8@ScrDisplay
	DD	-856					; fffffca8H
	DD	512					; 00000200H
	DD	$LN9@ScrDisplay
	DD	-868					; fffffc9cH
	DD	4
	DD	$LN10@ScrDisplay
	DD	-880					; fffffc90H
	DD	4
	DD	$LN11@ScrDisplay
	DD	-892					; fffffc84H
	DD	4
	DD	$LN12@ScrDisplay
$LN12@ScrDisplay:
	DB	105					; 00000069H
	DB	76					; 0000004cH
	DB	101					; 00000065H
	DB	110					; 0000006eH
	DB	103					; 00000067H
	DB	116					; 00000074H
	DB	104					; 00000068H
	DB	0
$LN11@ScrDisplay:
	DB	105					; 00000069H
	DB	84					; 00000054H
	DB	105					; 00000069H
	DB	109					; 0000006dH
	DB	101					; 00000065H
	DB	0
$LN10@ScrDisplay:
	DB	105					; 00000069H
	DB	84					; 00000054H
	DB	121					; 00000079H
	DB	112					; 00000070H
	DB	101					; 00000065H
	DB	0
$LN9@ScrDisplay:
	DB	115					; 00000073H
	DB	122					; 0000007aH
	DB	77					; 0000004dH
	DB	101					; 00000065H
	DB	115					; 00000073H
	DB	115					; 00000073H
	DB	97					; 00000061H
	DB	103					; 00000067H
	DB	101					; 00000065H
	DB	0
$LN8@ScrDisplay:
	DB	98					; 00000062H
	DB	115					; 00000073H
	DB	68					; 00000044H
	DB	97					; 00000061H
	DB	116					; 00000074H
	DB	97					; 00000061H
	DB	0
$LN7@ScrDisplay:
	DB	115					; 00000073H
	DB	101					; 00000065H
	DB	110					; 0000006eH
	DB	100					; 00000064H
	DB	101					; 00000065H
	DB	114					; 00000072H
	DB	0
_TEXT	ENDS
;	COMDAT text$x
text$x	SEGMENT
__unwindfunclet$?ScrDisplayGameText@@YAXPAURPCParameters@@@Z$0:
	lea	ecx, DWORD PTR _bsData$[ebp]
	jmp	??1BitStream@RakNet@@QAE@XZ		; RakNet::BitStream::~BitStream
__ehhandler$?ScrDisplayGameText@@YAXPAURPCParameters@@@Z:
	mov	edx, DWORD PTR [esp+8]
	lea	eax, DWORD PTR [edx+12]
	mov	ecx, DWORD PTR [edx-1104]
	xor	ecx, eax
	call	@__security_check_cookie@4
	mov	ecx, DWORD PTR [edx-4]
	xor	ecx, eax
	call	@__security_check_cookie@4
	mov	eax, OFFSET __ehfuncinfo$?ScrDisplayGameText@@YAXPAURPCParameters@@@Z
	jmp	___CxxFrameHandler3
text$x	ENDS
?ScrDisplayGameText@@YAXPAURPCParameters@@@Z ENDP	; ScrDisplayGameText
; Function compile flags: /Odtp /RTCsu /ZI
; File z:\sampsrc\02xu1\saco\net\scriptrpc.cpp
;	COMDAT ?ScrSetPlayerColor@@YAXPAURPCParameters@@@Z
_TEXT	SEGMENT
_pPlayer$2 = -384					; size = 4
_dwColor$ = -372					; size = 4
_bytePlayerID$ = -357					; size = 1
_pPlayerPool$ = -348					; size = 4
_bsData$ = -336						; size = 273
_sender$ = -52						; size = 6
_iBitLength$ = -36					; size = 4
_Data$ = -24						; size = 4
__$ArrayPad$ = -16					; size = 4
__$EHRec$ = -12						; size = 12
_rpcParams$ = 8						; size = 4
?ScrSetPlayerColor@@YAXPAURPCParameters@@@Z PROC	; ScrSetPlayerColor, COMDAT

; 253  : {

	push	ebp
	mov	ebp, esp
	push	-1
	push	__ehhandler$?ScrSetPlayerColor@@YAXPAURPCParameters@@@Z
	mov	eax, DWORD PTR fs:0
	push	eax
	sub	esp, 568				; 00000238H
	push	ebx
	push	esi
	push	edi
	lea	edi, DWORD PTR [ebp-580]
	mov	ecx, 142				; 0000008eH
	mov	eax, -858993460				; ccccccccH
	rep stosd
	mov	eax, DWORD PTR ___security_cookie
	xor	eax, ebp
	mov	DWORD PTR __$ArrayPad$[ebp], eax
	push	eax
	lea	eax, DWORD PTR __$EHRec$[ebp]
	mov	DWORD PTR fs:0, eax

; 254  : 	PCHAR Data = reinterpret_cast<PCHAR>(rpcParams->input);

	mov	eax, DWORD PTR _rpcParams$[ebp]
	mov	ecx, DWORD PTR [eax]
	mov	DWORD PTR _Data$[ebp], ecx

; 255  : 	int iBitLength = rpcParams->numberOfBitsOfData;

	mov	eax, DWORD PTR _rpcParams$[ebp]
	mov	ecx, DWORD PTR [eax+4]
	mov	DWORD PTR _iBitLength$[ebp], ecx

; 256  : 	PlayerID sender = rpcParams->sender;

	mov	eax, DWORD PTR _rpcParams$[ebp]
	add	eax, 8
	mov	ecx, DWORD PTR [eax]
	mov	DWORD PTR _sender$[ebp], ecx
	mov	dx, WORD PTR [eax+4]
	mov	WORD PTR _sender$[ebp+4], dx

; 257  : 
; 258  : 	RakNet::BitStream bsData(Data,(iBitLength/8)+1,false);

	push	0
	mov	eax, DWORD PTR _iBitLength$[ebp]
	cdq
	and	edx, 7
	add	eax, edx
	sar	eax, 3
	add	eax, 1
	push	eax
	mov	eax, DWORD PTR _Data$[ebp]
	push	eax
	lea	ecx, DWORD PTR _bsData$[ebp]
	call	??0BitStream@RakNet@@QAE@PADI_N@Z	; RakNet::BitStream::BitStream
	mov	DWORD PTR __$EHRec$[ebp+8], 0

; 259  : 	CPlayerPool *pPlayerPool = pNetGame->GetPlayerPool();

	mov	ecx, DWORD PTR ?pNetGame@@3PAVCNetGame@@A ; pNetGame
	call	?GetPlayerPool@CNetGame@@QAEPAVCPlayerPool@@XZ ; CNetGame::GetPlayerPool
	mov	DWORD PTR _pPlayerPool$[ebp], eax

; 260  : 	BYTE bytePlayerID;
; 261  : 	DWORD dwColor;
; 262  : 
; 263  : 	bsData.Read(bytePlayerID);

	lea	eax, DWORD PTR _bytePlayerID$[ebp]
	push	eax
	lea	ecx, DWORD PTR _bsData$[ebp]
	call	??$Read@E@BitStream@RakNet@@QAE_NAAE@Z	; RakNet::BitStream::Read<unsigned char>

; 264  : 	bsData.Read(dwColor);

	lea	eax, DWORD PTR _dwColor$[ebp]
	push	eax
	lea	ecx, DWORD PTR _bsData$[ebp]
	call	??$Read@K@BitStream@RakNet@@QAE_NAAK@Z	; RakNet::BitStream::Read<unsigned long>

; 265  : 
; 266  : 	if(bytePlayerID == pPlayerPool->GetLocalPlayerID()) {

	movzx	esi, BYTE PTR _bytePlayerID$[ebp]
	mov	ecx, DWORD PTR _pPlayerPool$[ebp]
	call	?GetLocalPlayerID@CPlayerPool@@QAEEXZ	; CPlayerPool::GetLocalPlayerID
	movzx	eax, al
	cmp	esi, eax
	jne	SHORT $LN3@ScrSetPlay

; 267  : 		pPlayerPool->GetLocalPlayer()->SetPlayerColor(dwColor);

	mov	eax, DWORD PTR _dwColor$[ebp]
	push	eax
	mov	ecx, DWORD PTR _pPlayerPool$[ebp]
	call	?GetLocalPlayer@CPlayerPool@@QAEPAVCLocalPlayer@@XZ ; CPlayerPool::GetLocalPlayer
	mov	ecx, eax
	call	?SetPlayerColor@CLocalPlayer@@QAEXK@Z	; CLocalPlayer::SetPlayerColor

; 268  : 	} else {

	jmp	SHORT $LN2@ScrSetPlay
$LN3@ScrSetPlay:

; 269  : 		CRemotePlayer *pPlayer = pPlayerPool->GetAt(bytePlayerID);

	movzx	eax, BYTE PTR _bytePlayerID$[ebp]
	push	eax
	mov	ecx, DWORD PTR _pPlayerPool$[ebp]
	call	?GetAt@CPlayerPool@@QAEPAVCRemotePlayer@@E@Z ; CPlayerPool::GetAt
	mov	DWORD PTR _pPlayer$2[ebp], eax

; 270  : 		if(pPlayer)	pPlayer->SetPlayerColor(dwColor);

	cmp	DWORD PTR _pPlayer$2[ebp], 0
	je	SHORT $LN2@ScrSetPlay
	mov	eax, DWORD PTR _dwColor$[ebp]
	push	eax
	mov	ecx, DWORD PTR _pPlayer$2[ebp]
	call	?SetPlayerColor@CRemotePlayer@@QAEXK@Z	; CRemotePlayer::SetPlayerColor
$LN2@ScrSetPlay:

; 271  : 	}
; 272  : }

	mov	DWORD PTR __$EHRec$[ebp+8], -1
	lea	ecx, DWORD PTR _bsData$[ebp]
	call	??1BitStream@RakNet@@QAE@XZ		; RakNet::BitStream::~BitStream
	push	edx
	mov	ecx, ebp
	push	eax
	lea	edx, DWORD PTR $LN13@ScrSetPlay
	call	@_RTC_CheckStackVars@8
	pop	eax
	pop	edx
	mov	ecx, DWORD PTR __$EHRec$[ebp]
	mov	DWORD PTR fs:0, ecx
	pop	ecx
	pop	edi
	pop	esi
	pop	ebx
	mov	ecx, DWORD PTR __$ArrayPad$[ebp]
	xor	ecx, ebp
	call	@__security_check_cookie@4
	add	esp, 580				; 00000244H
	cmp	ebp, esp
	call	__RTC_CheckEsp
	mov	esp, ebp
	pop	ebp
	ret	0
	npad	3
$LN13@ScrSetPlay:
	DD	4
	DD	$LN12@ScrSetPlay
$LN12@ScrSetPlay:
	DD	-52					; ffffffccH
	DD	6
	DD	$LN7@ScrSetPlay
	DD	-336					; fffffeb0H
	DD	273					; 00000111H
	DD	$LN8@ScrSetPlay
	DD	-357					; fffffe9bH
	DD	1
	DD	$LN9@ScrSetPlay
	DD	-372					; fffffe8cH
	DD	4
	DD	$LN10@ScrSetPlay
$LN10@ScrSetPlay:
	DB	100					; 00000064H
	DB	119					; 00000077H
	DB	67					; 00000043H
	DB	111					; 0000006fH
	DB	108					; 0000006cH
	DB	111					; 0000006fH
	DB	114					; 00000072H
	DB	0
$LN9@ScrSetPlay:
	DB	98					; 00000062H
	DB	121					; 00000079H
	DB	116					; 00000074H
	DB	101					; 00000065H
	DB	80					; 00000050H
	DB	108					; 0000006cH
	DB	97					; 00000061H
	DB	121					; 00000079H
	DB	101					; 00000065H
	DB	114					; 00000072H
	DB	73					; 00000049H
	DB	68					; 00000044H
	DB	0
$LN8@ScrSetPlay:
	DB	98					; 00000062H
	DB	115					; 00000073H
	DB	68					; 00000044H
	DB	97					; 00000061H
	DB	116					; 00000074H
	DB	97					; 00000061H
	DB	0
$LN7@ScrSetPlay:
	DB	115					; 00000073H
	DB	101					; 00000065H
	DB	110					; 0000006eH
	DB	100					; 00000064H
	DB	101					; 00000065H
	DB	114					; 00000072H
	DB	0
_TEXT	ENDS
;	COMDAT text$x
text$x	SEGMENT
__unwindfunclet$?ScrSetPlayerColor@@YAXPAURPCParameters@@@Z$0:
	lea	ecx, DWORD PTR _bsData$[ebp]
	jmp	??1BitStream@RakNet@@QAE@XZ		; RakNet::BitStream::~BitStream
__ehhandler$?ScrSetPlayerColor@@YAXPAURPCParameters@@@Z:
	mov	edx, DWORD PTR [esp+8]
	lea	eax, DWORD PTR [edx+12]
	mov	ecx, DWORD PTR [edx-584]
	xor	ecx, eax
	call	@__security_check_cookie@4
	mov	ecx, DWORD PTR [edx-4]
	xor	ecx, eax
	call	@__security_check_cookie@4
	mov	eax, OFFSET __ehfuncinfo$?ScrSetPlayerColor@@YAXPAURPCParameters@@@Z
	jmp	___CxxFrameHandler3
text$x	ENDS
?ScrSetPlayerColor@@YAXPAURPCParameters@@@Z ENDP	; ScrSetPlayerColor
; Function compile flags: /Odtp /RTCsu /ZI
; File z:\sampsrc\02xu1\saco\net\scriptrpc.cpp
;	COMDAT ?ScrRemovePlayerFromVehicle@@YAXPAURPCParameters@@@Z
_TEXT	SEGMENT
_pPlayerPool$ = -348					; size = 4
_bsData$ = -336						; size = 273
_sender$ = -52						; size = 6
_iBitLength$ = -36					; size = 4
_Data$ = -24						; size = 4
__$ArrayPad$ = -16					; size = 4
__$EHRec$ = -12						; size = 12
_rpcParams$ = 8						; size = 4
?ScrRemovePlayerFromVehicle@@YAXPAURPCParameters@@@Z PROC ; ScrRemovePlayerFromVehicle, COMDAT

; 239  : {

	push	ebp
	mov	ebp, esp
	push	-1
	push	__ehhandler$?ScrRemovePlayerFromVehicle@@YAXPAURPCParameters@@@Z
	mov	eax, DWORD PTR fs:0
	push	eax
	sub	esp, 532				; 00000214H
	push	ebx
	push	esi
	push	edi
	lea	edi, DWORD PTR [ebp-544]
	mov	ecx, 133				; 00000085H
	mov	eax, -858993460				; ccccccccH
	rep stosd
	mov	eax, DWORD PTR ___security_cookie
	xor	eax, ebp
	mov	DWORD PTR __$ArrayPad$[ebp], eax
	push	eax
	lea	eax, DWORD PTR __$EHRec$[ebp]
	mov	DWORD PTR fs:0, eax

; 240  : 	PCHAR Data = reinterpret_cast<PCHAR>(rpcParams->input);

	mov	eax, DWORD PTR _rpcParams$[ebp]
	mov	ecx, DWORD PTR [eax]
	mov	DWORD PTR _Data$[ebp], ecx

; 241  : 	int iBitLength = rpcParams->numberOfBitsOfData;

	mov	eax, DWORD PTR _rpcParams$[ebp]
	mov	ecx, DWORD PTR [eax+4]
	mov	DWORD PTR _iBitLength$[ebp], ecx

; 242  : 	PlayerID sender = rpcParams->sender;

	mov	eax, DWORD PTR _rpcParams$[ebp]
	add	eax, 8
	mov	ecx, DWORD PTR [eax]
	mov	DWORD PTR _sender$[ebp], ecx
	mov	dx, WORD PTR [eax+4]
	mov	WORD PTR _sender$[ebp+4], dx

; 243  : 
; 244  : 	RakNet::BitStream bsData(Data,(iBitLength/8)+1,false);

	push	0
	mov	eax, DWORD PTR _iBitLength$[ebp]
	cdq
	and	edx, 7
	add	eax, edx
	sar	eax, 3
	add	eax, 1
	push	eax
	mov	eax, DWORD PTR _Data$[ebp]
	push	eax
	lea	ecx, DWORD PTR _bsData$[ebp]
	call	??0BitStream@RakNet@@QAE@PADI_N@Z	; RakNet::BitStream::BitStream
	mov	DWORD PTR __$EHRec$[ebp+8], 0

; 245  : 
; 246  : 	CPlayerPool *pPlayerPool = pNetGame->GetPlayerPool();

	mov	ecx, DWORD PTR ?pNetGame@@3PAVCNetGame@@A ; pNetGame
	call	?GetPlayerPool@CNetGame@@QAEPAVCPlayerPool@@XZ ; CNetGame::GetPlayerPool
	mov	DWORD PTR _pPlayerPool$[ebp], eax

; 247  : 	pPlayerPool->GetLocalPlayer()->GetPlayerPed()->ExitCurrentVehicle();

	mov	ecx, DWORD PTR _pPlayerPool$[ebp]
	call	?GetLocalPlayer@CPlayerPool@@QAEPAVCLocalPlayer@@XZ ; CPlayerPool::GetLocalPlayer
	mov	ecx, eax
	call	?GetPlayerPed@CLocalPlayer@@QAEPAVCPlayerPed@@XZ ; CLocalPlayer::GetPlayerPed
	mov	ecx, eax
	call	?ExitCurrentVehicle@CPlayerPed@@QAEXXZ	; CPlayerPed::ExitCurrentVehicle

; 248  : }

	mov	DWORD PTR __$EHRec$[ebp+8], -1
	lea	ecx, DWORD PTR _bsData$[ebp]
	call	??1BitStream@RakNet@@QAE@XZ		; RakNet::BitStream::~BitStream
	push	edx
	mov	ecx, ebp
	push	eax
	lea	edx, DWORD PTR $LN8@ScrRemoveP
	call	@_RTC_CheckStackVars@8
	pop	eax
	pop	edx
	mov	ecx, DWORD PTR __$EHRec$[ebp]
	mov	DWORD PTR fs:0, ecx
	pop	ecx
	pop	edi
	pop	esi
	pop	ebx
	mov	ecx, DWORD PTR __$ArrayPad$[ebp]
	xor	ecx, ebp
	call	@__security_check_cookie@4
	add	esp, 544				; 00000220H
	cmp	ebp, esp
	call	__RTC_CheckEsp
	mov	esp, ebp
	pop	ebp
	ret	0
	npad	2
$LN8@ScrRemoveP:
	DD	2
	DD	$LN7@ScrRemoveP
$LN7@ScrRemoveP:
	DD	-52					; ffffffccH
	DD	6
	DD	$LN4@ScrRemoveP
	DD	-336					; fffffeb0H
	DD	273					; 00000111H
	DD	$LN5@ScrRemoveP
$LN5@ScrRemoveP:
	DB	98					; 00000062H
	DB	115					; 00000073H
	DB	68					; 00000044H
	DB	97					; 00000061H
	DB	116					; 00000074H
	DB	97					; 00000061H
	DB	0
$LN4@ScrRemoveP:
	DB	115					; 00000073H
	DB	101					; 00000065H
	DB	110					; 0000006eH
	DB	100					; 00000064H
	DB	101					; 00000065H
	DB	114					; 00000072H
	DB	0
_TEXT	ENDS
;	COMDAT text$x
text$x	SEGMENT
__unwindfunclet$?ScrRemovePlayerFromVehicle@@YAXPAURPCParameters@@@Z$0:
	lea	ecx, DWORD PTR _bsData$[ebp]
	jmp	??1BitStream@RakNet@@QAE@XZ		; RakNet::BitStream::~BitStream
__ehhandler$?ScrRemovePlayerFromVehicle@@YAXPAURPCParameters@@@Z:
	mov	edx, DWORD PTR [esp+8]
	lea	eax, DWORD PTR [edx+12]
	mov	ecx, DWORD PTR [edx-548]
	xor	ecx, eax
	call	@__security_check_cookie@4
	mov	ecx, DWORD PTR [edx-4]
	xor	ecx, eax
	call	@__security_check_cookie@4
	mov	eax, OFFSET __ehfuncinfo$?ScrRemovePlayerFromVehicle@@YAXPAURPCParameters@@@Z
	jmp	___CxxFrameHandler3
text$x	ENDS
?ScrRemovePlayerFromVehicle@@YAXPAURPCParameters@@@Z ENDP ; ScrRemovePlayerFromVehicle
; Function compile flags: /Odtp /RTCsu /ZI
; File z:\sampsrc\02xu1\saco\net\scriptrpc.cpp
;	COMDAT ?ScrPutPlayerInVehicle@@YAXPAURPCParameters@@@Z
_TEXT	SEGMENT
_pPed$2 = -408						; size = 4
_pVehicle$ = -396					; size = 4
_iVehicleIndex$ = -384					; size = 4
_pPlayerPool$ = -372					; size = 4
_seatid$ = -357						; size = 1
_vehicleid$ = -348					; size = 2
_bsData$ = -336						; size = 273
_sender$ = -52						; size = 6
_iBitLength$ = -36					; size = 4
_Data$ = -24						; size = 4
__$ArrayPad$ = -16					; size = 4
__$EHRec$ = -12						; size = 12
_rpcParams$ = 8						; size = 4
?ScrPutPlayerInVehicle@@YAXPAURPCParameters@@@Z PROC	; ScrPutPlayerInVehicle, COMDAT

; 210  : {

	push	ebp
	mov	ebp, esp
	push	-1
	push	__ehhandler$?ScrPutPlayerInVehicle@@YAXPAURPCParameters@@@Z
	mov	eax, DWORD PTR fs:0
	push	eax
	sub	esp, 592				; 00000250H
	push	ebx
	push	esi
	push	edi
	lea	edi, DWORD PTR [ebp-604]
	mov	ecx, 148				; 00000094H
	mov	eax, -858993460				; ccccccccH
	rep stosd
	mov	eax, DWORD PTR ___security_cookie
	xor	eax, ebp
	mov	DWORD PTR __$ArrayPad$[ebp], eax
	push	eax
	lea	eax, DWORD PTR __$EHRec$[ebp]
	mov	DWORD PTR fs:0, eax

; 211  : 	PCHAR Data = reinterpret_cast<PCHAR>(rpcParams->input);

	mov	eax, DWORD PTR _rpcParams$[ebp]
	mov	ecx, DWORD PTR [eax]
	mov	DWORD PTR _Data$[ebp], ecx

; 212  : 	int iBitLength = rpcParams->numberOfBitsOfData;

	mov	eax, DWORD PTR _rpcParams$[ebp]
	mov	ecx, DWORD PTR [eax+4]
	mov	DWORD PTR _iBitLength$[ebp], ecx

; 213  : 	PlayerID sender = rpcParams->sender;

	mov	eax, DWORD PTR _rpcParams$[ebp]
	add	eax, 8
	mov	ecx, DWORD PTR [eax]
	mov	DWORD PTR _sender$[ebp], ecx
	mov	dx, WORD PTR [eax+4]
	mov	WORD PTR _sender$[ebp+4], dx

; 214  : 
; 215  : 	RakNet::BitStream bsData(Data,(iBitLength/8)+1,false);

	push	0
	mov	eax, DWORD PTR _iBitLength$[ebp]
	cdq
	and	edx, 7
	add	eax, edx
	sar	eax, 3
	add	eax, 1
	push	eax
	mov	eax, DWORD PTR _Data$[ebp]
	push	eax
	lea	ecx, DWORD PTR _bsData$[ebp]
	call	??0BitStream@RakNet@@QAE@PADI_N@Z	; RakNet::BitStream::BitStream
	mov	DWORD PTR __$EHRec$[ebp+8], 0

; 216  : 	VEHICLEID vehicleid;
; 217  : 	BYTE seatid;
; 218  : 	bsData.Read(vehicleid);

	lea	eax, DWORD PTR _vehicleid$[ebp]
	push	eax
	lea	ecx, DWORD PTR _bsData$[ebp]
	call	??$Read@G@BitStream@RakNet@@QAE_NAAG@Z	; RakNet::BitStream::Read<unsigned short>

; 219  : 	bsData.Read(seatid);

	lea	eax, DWORD PTR _seatid$[ebp]
	push	eax
	lea	ecx, DWORD PTR _bsData$[ebp]
	call	??$Read@E@BitStream@RakNet@@QAE_NAAE@Z	; RakNet::BitStream::Read<unsigned char>

; 220  : 
; 221  : 	CPlayerPool *pPlayerPool = pNetGame->GetPlayerPool();

	mov	ecx, DWORD PTR ?pNetGame@@3PAVCNetGame@@A ; pNetGame
	call	?GetPlayerPool@CNetGame@@QAEPAVCPlayerPool@@XZ ; CNetGame::GetPlayerPool
	mov	DWORD PTR _pPlayerPool$[ebp], eax

; 222  : 	int iVehicleIndex = pNetGame->GetVehiclePool()->FindGtaIDFromID(vehicleid);

	movzx	eax, WORD PTR _vehicleid$[ebp]
	push	eax
	mov	ecx, DWORD PTR ?pNetGame@@3PAVCNetGame@@A ; pNetGame
	call	?GetVehiclePool@CNetGame@@QAEPAVCVehiclePool@@XZ ; CNetGame::GetVehiclePool
	mov	ecx, eax
	call	?FindGtaIDFromID@CVehiclePool@@QAEHH@Z	; CVehiclePool::FindGtaIDFromID
	mov	DWORD PTR _iVehicleIndex$[ebp], eax

; 223  : 	CVehicle *pVehicle = pNetGame->GetVehiclePool()->GetAt(vehicleid);

	movzx	eax, WORD PTR _vehicleid$[ebp]
	push	eax
	mov	ecx, DWORD PTR ?pNetGame@@3PAVCNetGame@@A ; pNetGame
	call	?GetVehiclePool@CNetGame@@QAEPAVCVehiclePool@@XZ ; CNetGame::GetVehiclePool
	mov	ecx, eax
	call	?GetAt@CVehiclePool@@QAEPAVCVehicle@@G@Z ; CVehiclePool::GetAt
	mov	DWORD PTR _pVehicle$[ebp], eax

; 224  : 
; 225  : 	if(iVehicleIndex && pVehicle) 

	cmp	DWORD PTR _iVehicleIndex$[ebp], 0
	je	SHORT $LN2@ScrPutPlay
	cmp	DWORD PTR _pVehicle$[ebp], 0
	je	SHORT $LN2@ScrPutPlay

; 226  : 	{
; 227  : 		CPlayerPed *pPed = pPlayerPool->GetLocalPlayer()->GetPlayerPed();

	mov	ecx, DWORD PTR _pPlayerPool$[ebp]
	call	?GetLocalPlayer@CPlayerPool@@QAEPAVCLocalPlayer@@XZ ; CPlayerPool::GetLocalPlayer
	mov	ecx, eax
	call	?GetPlayerPed@CLocalPlayer@@QAEPAVCPlayerPed@@XZ ; CLocalPlayer::GetPlayerPed
	mov	DWORD PTR _pPed$2[ebp], eax

; 228  : 		if(pPed) 

	cmp	DWORD PTR _pPed$2[ebp], 0
	je	SHORT $LN2@ScrPutPlay

; 229  : 		{
; 230  : //			pPed->Add(); pVehicle->Add(); // disable for test //        2 
; 231  : 			pPed->PutDirectlyInVehicle(iVehicleIndex, seatid);

	movzx	eax, BYTE PTR _seatid$[ebp]
	push	eax
	mov	ecx, DWORD PTR _iVehicleIndex$[ebp]
	push	ecx
	mov	ecx, DWORD PTR _pPed$2[ebp]
	call	?PutDirectlyInVehicle@CPlayerPed@@QAEXHH@Z ; CPlayerPed::PutDirectlyInVehicle
$LN2@ScrPutPlay:

; 232  : 		}
; 233  : 	}
; 234  : }

	mov	DWORD PTR __$EHRec$[ebp+8], -1
	lea	ecx, DWORD PTR _bsData$[ebp]
	call	??1BitStream@RakNet@@QAE@XZ		; RakNet::BitStream::~BitStream
	push	edx
	mov	ecx, ebp
	push	eax
	lea	edx, DWORD PTR $LN12@ScrPutPlay
	call	@_RTC_CheckStackVars@8
	pop	eax
	pop	edx
	mov	ecx, DWORD PTR __$EHRec$[ebp]
	mov	DWORD PTR fs:0, ecx
	pop	ecx
	pop	edi
	pop	esi
	pop	ebx
	mov	ecx, DWORD PTR __$ArrayPad$[ebp]
	xor	ecx, ebp
	call	@__security_check_cookie@4
	add	esp, 604				; 0000025cH
	cmp	ebp, esp
	call	__RTC_CheckEsp
	mov	esp, ebp
	pop	ebp
	ret	0
	npad	2
$LN12@ScrPutPlay:
	DD	4
	DD	$LN11@ScrPutPlay
$LN11@ScrPutPlay:
	DD	-52					; ffffffccH
	DD	6
	DD	$LN6@ScrPutPlay
	DD	-336					; fffffeb0H
	DD	273					; 00000111H
	DD	$LN7@ScrPutPlay
	DD	-348					; fffffea4H
	DD	2
	DD	$LN8@ScrPutPlay
	DD	-357					; fffffe9bH
	DD	1
	DD	$LN9@ScrPutPlay
$LN9@ScrPutPlay:
	DB	115					; 00000073H
	DB	101					; 00000065H
	DB	97					; 00000061H
	DB	116					; 00000074H
	DB	105					; 00000069H
	DB	100					; 00000064H
	DB	0
$LN8@ScrPutPlay:
	DB	118					; 00000076H
	DB	101					; 00000065H
	DB	104					; 00000068H
	DB	105					; 00000069H
	DB	99					; 00000063H
	DB	108					; 0000006cH
	DB	101					; 00000065H
	DB	105					; 00000069H
	DB	100					; 00000064H
	DB	0
$LN7@ScrPutPlay:
	DB	98					; 00000062H
	DB	115					; 00000073H
	DB	68					; 00000044H
	DB	97					; 00000061H
	DB	116					; 00000074H
	DB	97					; 00000061H
	DB	0
$LN6@ScrPutPlay:
	DB	115					; 00000073H
	DB	101					; 00000065H
	DB	110					; 0000006eH
	DB	100					; 00000064H
	DB	101					; 00000065H
	DB	114					; 00000072H
	DB	0
_TEXT	ENDS
;	COMDAT text$x
text$x	SEGMENT
__unwindfunclet$?ScrPutPlayerInVehicle@@YAXPAURPCParameters@@@Z$0:
	lea	ecx, DWORD PTR _bsData$[ebp]
	jmp	??1BitStream@RakNet@@QAE@XZ		; RakNet::BitStream::~BitStream
__ehhandler$?ScrPutPlayerInVehicle@@YAXPAURPCParameters@@@Z:
	mov	edx, DWORD PTR [esp+8]
	lea	eax, DWORD PTR [edx+12]
	mov	ecx, DWORD PTR [edx-608]
	xor	ecx, eax
	call	@__security_check_cookie@4
	mov	ecx, DWORD PTR [edx-4]
	xor	ecx, eax
	call	@__security_check_cookie@4
	mov	eax, OFFSET __ehfuncinfo$?ScrPutPlayerInVehicle@@YAXPAURPCParameters@@@Z
	jmp	___CxxFrameHandler3
text$x	ENDS
?ScrPutPlayerInVehicle@@YAXPAURPCParameters@@@Z ENDP	; ScrPutPlayerInVehicle
; Function compile flags: /Odtp /RTCsu /ZI
; File z:\sampsrc\02xu1\saco\net\scriptrpc.cpp
;	COMDAT ?ScrSetPlayerHealth@@YAXPAURPCParameters@@@Z
_TEXT	SEGMENT
_bsData$ = -360						; size = 273
_fHealth$ = -76						; size = 4
_pLocalPlayer$ = -64					; size = 4
_sender$ = -52						; size = 6
_iBitLength$ = -36					; size = 4
_Data$ = -24						; size = 4
__$ArrayPad$ = -16					; size = 4
__$EHRec$ = -12						; size = 12
_rpcParams$ = 8						; size = 4
?ScrSetPlayerHealth@@YAXPAURPCParameters@@@Z PROC	; ScrSetPlayerHealth, COMDAT

; 192  : {

	push	ebp
	mov	ebp, esp
	push	-1
	push	__ehhandler$?ScrSetPlayerHealth@@YAXPAURPCParameters@@@Z
	mov	eax, DWORD PTR fs:0
	push	eax
	sub	esp, 544				; 00000220H
	push	ebx
	push	esi
	push	edi
	lea	edi, DWORD PTR [ebp-556]
	mov	ecx, 136				; 00000088H
	mov	eax, -858993460				; ccccccccH
	rep stosd
	mov	eax, DWORD PTR ___security_cookie
	xor	eax, ebp
	mov	DWORD PTR __$ArrayPad$[ebp], eax
	push	eax
	lea	eax, DWORD PTR __$EHRec$[ebp]
	mov	DWORD PTR fs:0, eax

; 193  : 	PCHAR Data = reinterpret_cast<PCHAR>(rpcParams->input);

	mov	eax, DWORD PTR _rpcParams$[ebp]
	mov	ecx, DWORD PTR [eax]
	mov	DWORD PTR _Data$[ebp], ecx

; 194  : 	int iBitLength = rpcParams->numberOfBitsOfData;

	mov	eax, DWORD PTR _rpcParams$[ebp]
	mov	ecx, DWORD PTR [eax+4]
	mov	DWORD PTR _iBitLength$[ebp], ecx

; 195  : 	PlayerID sender = rpcParams->sender;

	mov	eax, DWORD PTR _rpcParams$[ebp]
	add	eax, 8
	mov	ecx, DWORD PTR [eax]
	mov	DWORD PTR _sender$[ebp], ecx
	mov	dx, WORD PTR [eax+4]
	mov	WORD PTR _sender$[ebp+4], dx

; 196  : 
; 197  : 	CLocalPlayer *pLocalPlayer = pNetGame->GetPlayerPool()->GetLocalPlayer();

	mov	ecx, DWORD PTR ?pNetGame@@3PAVCNetGame@@A ; pNetGame
	call	?GetPlayerPool@CNetGame@@QAEPAVCPlayerPool@@XZ ; CNetGame::GetPlayerPool
	mov	ecx, eax
	call	?GetLocalPlayer@CPlayerPool@@QAEPAVCLocalPlayer@@XZ ; CPlayerPool::GetLocalPlayer
	mov	DWORD PTR _pLocalPlayer$[ebp], eax

; 198  : 	float fHealth;
; 199  : 
; 200  : 	RakNet::BitStream bsData(Data,(iBitLength/8)+1,false);

	push	0
	mov	eax, DWORD PTR _iBitLength$[ebp]
	cdq
	and	edx, 7
	add	eax, edx
	sar	eax, 3
	add	eax, 1
	push	eax
	mov	eax, DWORD PTR _Data$[ebp]
	push	eax
	lea	ecx, DWORD PTR _bsData$[ebp]
	call	??0BitStream@RakNet@@QAE@PADI_N@Z	; RakNet::BitStream::BitStream
	mov	DWORD PTR __$EHRec$[ebp+8], 0

; 201  : 	bsData.Read(fHealth);

	lea	eax, DWORD PTR _fHealth$[ebp]
	push	eax
	lea	ecx, DWORD PTR _bsData$[ebp]
	call	??$Read@M@BitStream@RakNet@@QAE_NAAM@Z	; RakNet::BitStream::Read<float>

; 202  : 
; 203  : 	//pChatWindow->AddDebugMessage("Setting your health to: %f", fHealth);
; 204  : 	pLocalPlayer->GetPlayerPed()->SetHealth(fHealth);

	push	ecx
	movss	xmm0, DWORD PTR _fHealth$[ebp]
	movss	DWORD PTR [esp], xmm0
	mov	ecx, DWORD PTR _pLocalPlayer$[ebp]
	call	?GetPlayerPed@CLocalPlayer@@QAEPAVCPlayerPed@@XZ ; CLocalPlayer::GetPlayerPed
	mov	ecx, eax
	call	?SetHealth@CPlayerPed@@QAEXM@Z		; CPlayerPed::SetHealth

; 205  : }

	mov	DWORD PTR __$EHRec$[ebp+8], -1
	lea	ecx, DWORD PTR _bsData$[ebp]
	call	??1BitStream@RakNet@@QAE@XZ		; RakNet::BitStream::~BitStream
	push	edx
	mov	ecx, ebp
	push	eax
	lea	edx, DWORD PTR $LN9@ScrSetPlay
	call	@_RTC_CheckStackVars@8
	pop	eax
	pop	edx
	mov	ecx, DWORD PTR __$EHRec$[ebp]
	mov	DWORD PTR fs:0, ecx
	pop	ecx
	pop	edi
	pop	esi
	pop	ebx
	mov	ecx, DWORD PTR __$ArrayPad$[ebp]
	xor	ecx, ebp
	call	@__security_check_cookie@4
	add	esp, 556				; 0000022cH
	cmp	ebp, esp
	call	__RTC_CheckEsp
	mov	esp, ebp
	pop	ebp
	ret	0
	npad	2
$LN9@ScrSetPlay:
	DD	3
	DD	$LN8@ScrSetPlay
$LN8@ScrSetPlay:
	DD	-52					; ffffffccH
	DD	6
	DD	$LN4@ScrSetPlay
	DD	-76					; ffffffb4H
	DD	4
	DD	$LN5@ScrSetPlay
	DD	-360					; fffffe98H
	DD	273					; 00000111H
	DD	$LN6@ScrSetPlay
$LN6@ScrSetPlay:
	DB	98					; 00000062H
	DB	115					; 00000073H
	DB	68					; 00000044H
	DB	97					; 00000061H
	DB	116					; 00000074H
	DB	97					; 00000061H
	DB	0
$LN5@ScrSetPlay:
	DB	102					; 00000066H
	DB	72					; 00000048H
	DB	101					; 00000065H
	DB	97					; 00000061H
	DB	108					; 0000006cH
	DB	116					; 00000074H
	DB	104					; 00000068H
	DB	0
$LN4@ScrSetPlay:
	DB	115					; 00000073H
	DB	101					; 00000065H
	DB	110					; 0000006eH
	DB	100					; 00000064H
	DB	101					; 00000065H
	DB	114					; 00000072H
	DB	0
_TEXT	ENDS
;	COMDAT text$x
text$x	SEGMENT
__unwindfunclet$?ScrSetPlayerHealth@@YAXPAURPCParameters@@@Z$0:
	lea	ecx, DWORD PTR _bsData$[ebp]
	jmp	??1BitStream@RakNet@@QAE@XZ		; RakNet::BitStream::~BitStream
__ehhandler$?ScrSetPlayerHealth@@YAXPAURPCParameters@@@Z:
	mov	edx, DWORD PTR [esp+8]
	lea	eax, DWORD PTR [edx+12]
	mov	ecx, DWORD PTR [edx-560]
	xor	ecx, eax
	call	@__security_check_cookie@4
	mov	ecx, DWORD PTR [edx-4]
	xor	ecx, eax
	call	@__security_check_cookie@4
	mov	eax, OFFSET __ehfuncinfo$?ScrSetPlayerHealth@@YAXPAURPCParameters@@@Z
	jmp	___CxxFrameHandler3
text$x	ENDS
?ScrSetPlayerHealth@@YAXPAURPCParameters@@@Z ENDP	; ScrSetPlayerHealth
; Function compile flags: /Odtp /RTCsu /ZI
; File z:\sampsrc\02xu1\saco\net\scriptrpc.cpp
;	COMDAT ?ScrSetPlayerPosFindZ@@YAXPAURPCParameters@@@Z
_TEXT	SEGMENT
_vecPos$ = -368						; size = 12
_pLocalPlayer$ = -348					; size = 4
_bsData$ = -336						; size = 273
_sender$ = -52						; size = 6
_iBitLength$ = -36					; size = 4
_Data$ = -24						; size = 4
__$ArrayPad$ = -16					; size = 4
__$EHRec$ = -12						; size = 12
_rpcParams$ = 8						; size = 4
?ScrSetPlayerPosFindZ@@YAXPAURPCParameters@@@Z PROC	; ScrSetPlayerPosFindZ, COMDAT

; 168  : {

	push	ebp
	mov	ebp, esp
	push	-1
	push	__ehhandler$?ScrSetPlayerPosFindZ@@YAXPAURPCParameters@@@Z
	mov	eax, DWORD PTR fs:0
	push	eax
	sub	esp, 552				; 00000228H
	push	ebx
	push	esi
	push	edi
	lea	edi, DWORD PTR [ebp-564]
	mov	ecx, 138				; 0000008aH
	mov	eax, -858993460				; ccccccccH
	rep stosd
	mov	eax, DWORD PTR ___security_cookie
	xor	eax, ebp
	mov	DWORD PTR __$ArrayPad$[ebp], eax
	push	eax
	lea	eax, DWORD PTR __$EHRec$[ebp]
	mov	DWORD PTR fs:0, eax

; 169  : 	PCHAR Data = reinterpret_cast<PCHAR>(rpcParams->input);

	mov	eax, DWORD PTR _rpcParams$[ebp]
	mov	ecx, DWORD PTR [eax]
	mov	DWORD PTR _Data$[ebp], ecx

; 170  : 	int iBitLength = rpcParams->numberOfBitsOfData;

	mov	eax, DWORD PTR _rpcParams$[ebp]
	mov	ecx, DWORD PTR [eax+4]
	mov	DWORD PTR _iBitLength$[ebp], ecx

; 171  : 	PlayerID sender = rpcParams->sender;

	mov	eax, DWORD PTR _rpcParams$[ebp]
	add	eax, 8
	mov	ecx, DWORD PTR [eax]
	mov	DWORD PTR _sender$[ebp], ecx
	mov	dx, WORD PTR [eax+4]
	mov	WORD PTR _sender$[ebp+4], dx

; 172  : 
; 173  : 	RakNet::BitStream bsData(Data,(iBitLength/8)+1,false);

	push	0
	mov	eax, DWORD PTR _iBitLength$[ebp]
	cdq
	and	edx, 7
	add	eax, edx
	sar	eax, 3
	add	eax, 1
	push	eax
	mov	eax, DWORD PTR _Data$[ebp]
	push	eax
	lea	ecx, DWORD PTR _bsData$[ebp]
	call	??0BitStream@RakNet@@QAE@PADI_N@Z	; RakNet::BitStream::BitStream
	mov	DWORD PTR __$EHRec$[ebp+8], 0

; 174  : 
; 175  : 	CLocalPlayer *pLocalPlayer = pNetGame->GetPlayerPool()->GetLocalPlayer();

	mov	ecx, DWORD PTR ?pNetGame@@3PAVCNetGame@@A ; pNetGame
	call	?GetPlayerPool@CNetGame@@QAEPAVCPlayerPool@@XZ ; CNetGame::GetPlayerPool
	mov	ecx, eax
	call	?GetLocalPlayer@CPlayerPool@@QAEPAVCLocalPlayer@@XZ ; CPlayerPool::GetLocalPlayer
	mov	DWORD PTR _pLocalPlayer$[ebp], eax

; 176  : 
; 177  : 	VECTOR vecPos;
; 178  : 
; 179  : 	bsData.Read(vecPos.X);

	lea	eax, DWORD PTR _vecPos$[ebp]
	push	eax
	lea	ecx, DWORD PTR _bsData$[ebp]
	call	??$Read@M@BitStream@RakNet@@QAE_NAAM@Z	; RakNet::BitStream::Read<float>

; 180  : 	bsData.Read(vecPos.Y);

	lea	eax, DWORD PTR _vecPos$[ebp+4]
	push	eax
	lea	ecx, DWORD PTR _bsData$[ebp]
	call	??$Read@M@BitStream@RakNet@@QAE_NAAM@Z	; RakNet::BitStream::Read<float>

; 181  : 	bsData.Read(vecPos.Z);

	lea	eax, DWORD PTR _vecPos$[ebp+8]
	push	eax
	lea	ecx, DWORD PTR _bsData$[ebp]
	call	??$Read@M@BitStream@RakNet@@QAE_NAAM@Z	; RakNet::BitStream::Read<float>

; 182  : 
; 183  : 	vecPos.Z = pGame->FindGroundZForCoord(vecPos.X, vecPos.Y, vecPos.Z);

	push	ecx
	movss	xmm0, DWORD PTR _vecPos$[ebp+8]
	movss	DWORD PTR [esp], xmm0
	push	ecx
	movss	xmm0, DWORD PTR _vecPos$[ebp+4]
	movss	DWORD PTR [esp], xmm0
	push	ecx
	movss	xmm0, DWORD PTR _vecPos$[ebp]
	movss	DWORD PTR [esp], xmm0
	mov	ecx, DWORD PTR ?pGame@@3PAVCGame@@A	; pGame
	call	?FindGroundZForCoord@CGame@@QAEMMMM@Z	; CGame::FindGroundZForCoord
	fstp	DWORD PTR _vecPos$[ebp+8]

; 184  : 	vecPos.Z += 1.5f;

	movss	xmm0, DWORD PTR _vecPos$[ebp+8]
	addss	xmm0, DWORD PTR __real@3fc00000
	movss	DWORD PTR _vecPos$[ebp+8], xmm0

; 185  : 
; 186  : 	pLocalPlayer->GetPlayerPed()->TeleportTo(vecPos.X, vecPos.Y, vecPos.Z);

	push	ecx
	movss	xmm0, DWORD PTR _vecPos$[ebp+8]
	movss	DWORD PTR [esp], xmm0
	push	ecx
	movss	xmm0, DWORD PTR _vecPos$[ebp+4]
	movss	DWORD PTR [esp], xmm0
	push	ecx
	movss	xmm0, DWORD PTR _vecPos$[ebp]
	movss	DWORD PTR [esp], xmm0
	mov	ecx, DWORD PTR _pLocalPlayer$[ebp]
	call	?GetPlayerPed@CLocalPlayer@@QAEPAVCPlayerPed@@XZ ; CLocalPlayer::GetPlayerPed
	mov	ecx, eax
	call	?TeleportTo@CEntity@@QAEXMMM@Z		; CEntity::TeleportTo

; 187  : }

	mov	DWORD PTR __$EHRec$[ebp+8], -1
	lea	ecx, DWORD PTR _bsData$[ebp]
	call	??1BitStream@RakNet@@QAE@XZ		; RakNet::BitStream::~BitStream
	push	edx
	mov	ecx, ebp
	push	eax
	lea	edx, DWORD PTR $LN9@ScrSetPlay
	call	@_RTC_CheckStackVars@8
	pop	eax
	pop	edx
	mov	ecx, DWORD PTR __$EHRec$[ebp]
	mov	DWORD PTR fs:0, ecx
	pop	ecx
	pop	edi
	pop	esi
	pop	ebx
	mov	ecx, DWORD PTR __$ArrayPad$[ebp]
	xor	ecx, ebp
	call	@__security_check_cookie@4
	add	esp, 564				; 00000234H
	cmp	ebp, esp
	call	__RTC_CheckEsp
	mov	esp, ebp
	pop	ebp
	ret	0
	npad	3
$LN9@ScrSetPlay:
	DD	3
	DD	$LN8@ScrSetPlay
$LN8@ScrSetPlay:
	DD	-52					; ffffffccH
	DD	6
	DD	$LN4@ScrSetPlay
	DD	-336					; fffffeb0H
	DD	273					; 00000111H
	DD	$LN5@ScrSetPlay
	DD	-368					; fffffe90H
	DD	12					; 0000000cH
	DD	$LN6@ScrSetPlay
$LN6@ScrSetPlay:
	DB	118					; 00000076H
	DB	101					; 00000065H
	DB	99					; 00000063H
	DB	80					; 00000050H
	DB	111					; 0000006fH
	DB	115					; 00000073H
	DB	0
$LN5@ScrSetPlay:
	DB	98					; 00000062H
	DB	115					; 00000073H
	DB	68					; 00000044H
	DB	97					; 00000061H
	DB	116					; 00000074H
	DB	97					; 00000061H
	DB	0
$LN4@ScrSetPlay:
	DB	115					; 00000073H
	DB	101					; 00000065H
	DB	110					; 0000006eH
	DB	100					; 00000064H
	DB	101					; 00000065H
	DB	114					; 00000072H
	DB	0
_TEXT	ENDS
;	COMDAT text$x
text$x	SEGMENT
__unwindfunclet$?ScrSetPlayerPosFindZ@@YAXPAURPCParameters@@@Z$0:
	lea	ecx, DWORD PTR _bsData$[ebp]
	jmp	??1BitStream@RakNet@@QAE@XZ		; RakNet::BitStream::~BitStream
__ehhandler$?ScrSetPlayerPosFindZ@@YAXPAURPCParameters@@@Z:
	mov	edx, DWORD PTR [esp+8]
	lea	eax, DWORD PTR [edx+12]
	mov	ecx, DWORD PTR [edx-568]
	xor	ecx, eax
	call	@__security_check_cookie@4
	mov	ecx, DWORD PTR [edx-4]
	xor	ecx, eax
	call	@__security_check_cookie@4
	mov	eax, OFFSET __ehfuncinfo$?ScrSetPlayerPosFindZ@@YAXPAURPCParameters@@@Z
	jmp	___CxxFrameHandler3
text$x	ENDS
?ScrSetPlayerPosFindZ@@YAXPAURPCParameters@@@Z ENDP	; ScrSetPlayerPosFindZ
; Function compile flags: /Odtp /RTCsu /ZI
; File z:\sampsrc\02xu1\raknet\bitstream.h
;	COMDAT ??$Read@M@BitStream@RakNet@@QAE_NAAM@Z
_TEXT	SEGMENT
_this$ = -8						; size = 4
_var$ = 8						; size = 4
??$Read@M@BitStream@RakNet@@QAE_NAAM@Z PROC		; RakNet::BitStream::Read<float>, COMDAT
; _this$ = ecx

; 987  : 	{

	push	ebp
	mov	ebp, esp
	sub	esp, 204				; 000000ccH
	push	ebx
	push	esi
	push	edi
	push	ecx
	lea	edi, DWORD PTR [ebp-204]
	mov	ecx, 51					; 00000033H
	mov	eax, -858993460				; ccccccccH
	rep stosd
	pop	ecx
	mov	DWORD PTR _this$[ebp], ecx

; 988  : #ifdef _MSC_VER
; 989  : #pragma warning(disable:4127)   // conditional expression is constant
; 990  : #endif
; 991  : 		if (sizeof(var)==1)

	xor	eax, eax
	je	SHORT $LN2@Read

; 992  : 			return ReadBits( ( unsigned char* ) &var, sizeof(templateType) * 8, true );

	push	1
	push	32					; 00000020H
	mov	eax, DWORD PTR _var$[ebp]
	push	eax
	mov	ecx, DWORD PTR _this$[ebp]
	call	?ReadBits@BitStream@RakNet@@QAE_NPAEH_N@Z ; RakNet::BitStream::ReadBits
	jmp	SHORT $LN3@Read

; 993  : 		else

	jmp	SHORT $LN3@Read
$LN2@Read:

; 994  : 		{
; 995  : #ifndef __BITSTREAM_NATIVE_END
; 996  : #ifdef _MSC_VER
; 997  : #pragma warning(disable:4244)   // '=' : conversion from 'unsigned long' to 'unsigned short', possible loss of data
; 998  : #endif
; 999  : 			if (DoEndianSwap())
; 1000 : 			{
; 1001 : 				unsigned char output[sizeof(templateType)];
; 1002 : 				if (ReadBits( ( unsigned char* ) output, sizeof(templateType) * 8, true ))
; 1003 : 				{
; 1004 : 					ReverseBytes(output, (unsigned char*)&var, sizeof(templateType));
; 1005 : 					return true;
; 1006 : 				}
; 1007 : 				return false;
; 1008 : 			}
; 1009 : 			else
; 1010 : #endif
; 1011 : 				return ReadBits( ( unsigned char* ) & var, sizeof(templateType) * 8, true );

	push	1
	push	32					; 00000020H
	mov	eax, DWORD PTR _var$[ebp]
	push	eax
	mov	ecx, DWORD PTR _this$[ebp]
	call	?ReadBits@BitStream@RakNet@@QAE_NPAEH_N@Z ; RakNet::BitStream::ReadBits
$LN3@Read:

; 1012 : 		}
; 1013 : 	}

	pop	edi
	pop	esi
	pop	ebx
	add	esp, 204				; 000000ccH
	cmp	ebp, esp
	call	__RTC_CheckEsp
	mov	esp, ebp
	pop	ebp
	ret	4
??$Read@M@BitStream@RakNet@@QAE_NAAM@Z ENDP		; RakNet::BitStream::Read<float>
_TEXT	ENDS
; Function compile flags: /Odtp /RTCsu /ZI
; File z:\sampsrc\02xu1\saco\net\scriptrpc.cpp
;	COMDAT ?ScrSetPlayerPos@@YAXPAURPCParameters@@@Z
_TEXT	SEGMENT
_vecPos$ = -368						; size = 12
_pLocalPlayer$ = -348					; size = 4
_bsData$ = -336						; size = 273
_sender$ = -52						; size = 6
_iBitLength$ = -36					; size = 4
_Data$ = -24						; size = 4
__$ArrayPad$ = -16					; size = 4
__$EHRec$ = -12						; size = 12
_rpcParams$ = 8						; size = 4
?ScrSetPlayerPos@@YAXPAURPCParameters@@@Z PROC		; ScrSetPlayerPos, COMDAT

; 147  : {

	push	ebp
	mov	ebp, esp
	push	-1
	push	__ehhandler$?ScrSetPlayerPos@@YAXPAURPCParameters@@@Z
	mov	eax, DWORD PTR fs:0
	push	eax
	sub	esp, 552				; 00000228H
	push	ebx
	push	esi
	push	edi
	lea	edi, DWORD PTR [ebp-564]
	mov	ecx, 138				; 0000008aH
	mov	eax, -858993460				; ccccccccH
	rep stosd
	mov	eax, DWORD PTR ___security_cookie
	xor	eax, ebp
	mov	DWORD PTR __$ArrayPad$[ebp], eax
	push	eax
	lea	eax, DWORD PTR __$EHRec$[ebp]
	mov	DWORD PTR fs:0, eax

; 148  : 	PCHAR Data = reinterpret_cast<PCHAR>(rpcParams->input);

	mov	eax, DWORD PTR _rpcParams$[ebp]
	mov	ecx, DWORD PTR [eax]
	mov	DWORD PTR _Data$[ebp], ecx

; 149  : 	int iBitLength = rpcParams->numberOfBitsOfData;

	mov	eax, DWORD PTR _rpcParams$[ebp]
	mov	ecx, DWORD PTR [eax+4]
	mov	DWORD PTR _iBitLength$[ebp], ecx

; 150  : 	PlayerID sender = rpcParams->sender;

	mov	eax, DWORD PTR _rpcParams$[ebp]
	add	eax, 8
	mov	ecx, DWORD PTR [eax]
	mov	DWORD PTR _sender$[ebp], ecx
	mov	dx, WORD PTR [eax+4]
	mov	WORD PTR _sender$[ebp+4], dx

; 151  : 
; 152  : 	RakNet::BitStream bsData(Data,(iBitLength/8)+1,false);

	push	0
	mov	eax, DWORD PTR _iBitLength$[ebp]
	cdq
	and	edx, 7
	add	eax, edx
	sar	eax, 3
	add	eax, 1
	push	eax
	mov	eax, DWORD PTR _Data$[ebp]
	push	eax
	lea	ecx, DWORD PTR _bsData$[ebp]
	call	??0BitStream@RakNet@@QAE@PADI_N@Z	; RakNet::BitStream::BitStream
	mov	DWORD PTR __$EHRec$[ebp+8], 0

; 153  : 
; 154  : 	CLocalPlayer *pLocalPlayer = pNetGame->GetPlayerPool()->GetLocalPlayer();

	mov	ecx, DWORD PTR ?pNetGame@@3PAVCNetGame@@A ; pNetGame
	call	?GetPlayerPool@CNetGame@@QAEPAVCPlayerPool@@XZ ; CNetGame::GetPlayerPool
	mov	ecx, eax
	call	?GetLocalPlayer@CPlayerPool@@QAEPAVCLocalPlayer@@XZ ; CPlayerPool::GetLocalPlayer
	mov	DWORD PTR _pLocalPlayer$[ebp], eax

; 155  : 
; 156  : 	VECTOR vecPos;
; 157  : 
; 158  : 	bsData.Read(vecPos.X);

	lea	eax, DWORD PTR _vecPos$[ebp]
	push	eax
	lea	ecx, DWORD PTR _bsData$[ebp]
	call	??$Read@M@BitStream@RakNet@@QAE_NAAM@Z	; RakNet::BitStream::Read<float>

; 159  : 	bsData.Read(vecPos.Y);

	lea	eax, DWORD PTR _vecPos$[ebp+4]
	push	eax
	lea	ecx, DWORD PTR _bsData$[ebp]
	call	??$Read@M@BitStream@RakNet@@QAE_NAAM@Z	; RakNet::BitStream::Read<float>

; 160  : 	bsData.Read(vecPos.Z);

	lea	eax, DWORD PTR _vecPos$[ebp+8]
	push	eax
	lea	ecx, DWORD PTR _bsData$[ebp]
	call	??$Read@M@BitStream@RakNet@@QAE_NAAM@Z	; RakNet::BitStream::Read<float>

; 161  : 
; 162  : 	pLocalPlayer->GetPlayerPed()->TeleportTo(vecPos.X,vecPos.Y,vecPos.Z);

	push	ecx
	movss	xmm0, DWORD PTR _vecPos$[ebp+8]
	movss	DWORD PTR [esp], xmm0
	push	ecx
	movss	xmm0, DWORD PTR _vecPos$[ebp+4]
	movss	DWORD PTR [esp], xmm0
	push	ecx
	movss	xmm0, DWORD PTR _vecPos$[ebp]
	movss	DWORD PTR [esp], xmm0
	mov	ecx, DWORD PTR _pLocalPlayer$[ebp]
	call	?GetPlayerPed@CLocalPlayer@@QAEPAVCPlayerPed@@XZ ; CLocalPlayer::GetPlayerPed
	mov	ecx, eax
	call	?TeleportTo@CEntity@@QAEXMMM@Z		; CEntity::TeleportTo

; 163  : }

	mov	DWORD PTR __$EHRec$[ebp+8], -1
	lea	ecx, DWORD PTR _bsData$[ebp]
	call	??1BitStream@RakNet@@QAE@XZ		; RakNet::BitStream::~BitStream
	push	edx
	mov	ecx, ebp
	push	eax
	lea	edx, DWORD PTR $LN9@ScrSetPlay
	call	@_RTC_CheckStackVars@8
	pop	eax
	pop	edx
	mov	ecx, DWORD PTR __$EHRec$[ebp]
	mov	DWORD PTR fs:0, ecx
	pop	ecx
	pop	edi
	pop	esi
	pop	ebx
	mov	ecx, DWORD PTR __$ArrayPad$[ebp]
	xor	ecx, ebp
	call	@__security_check_cookie@4
	add	esp, 564				; 00000234H
	cmp	ebp, esp
	call	__RTC_CheckEsp
	mov	esp, ebp
	pop	ebp
	ret	0
	npad	2
$LN9@ScrSetPlay:
	DD	3
	DD	$LN8@ScrSetPlay
$LN8@ScrSetPlay:
	DD	-52					; ffffffccH
	DD	6
	DD	$LN4@ScrSetPlay
	DD	-336					; fffffeb0H
	DD	273					; 00000111H
	DD	$LN5@ScrSetPlay
	DD	-368					; fffffe90H
	DD	12					; 0000000cH
	DD	$LN6@ScrSetPlay
$LN6@ScrSetPlay:
	DB	118					; 00000076H
	DB	101					; 00000065H
	DB	99					; 00000063H
	DB	80					; 00000050H
	DB	111					; 0000006fH
	DB	115					; 00000073H
	DB	0
$LN5@ScrSetPlay:
	DB	98					; 00000062H
	DB	115					; 00000073H
	DB	68					; 00000044H
	DB	97					; 00000061H
	DB	116					; 00000074H
	DB	97					; 00000061H
	DB	0
$LN4@ScrSetPlay:
	DB	115					; 00000073H
	DB	101					; 00000065H
	DB	110					; 0000006eH
	DB	100					; 00000064H
	DB	101					; 00000065H
	DB	114					; 00000072H
	DB	0
_TEXT	ENDS
;	COMDAT text$x
text$x	SEGMENT
__unwindfunclet$?ScrSetPlayerPos@@YAXPAURPCParameters@@@Z$0:
	lea	ecx, DWORD PTR _bsData$[ebp]
	jmp	??1BitStream@RakNet@@QAE@XZ		; RakNet::BitStream::~BitStream
__ehhandler$?ScrSetPlayerPos@@YAXPAURPCParameters@@@Z:
	mov	edx, DWORD PTR [esp+8]
	lea	eax, DWORD PTR [edx+12]
	mov	ecx, DWORD PTR [edx-568]
	xor	ecx, eax
	call	@__security_check_cookie@4
	mov	ecx, DWORD PTR [edx-4]
	xor	ecx, eax
	call	@__security_check_cookie@4
	mov	eax, OFFSET __ehfuncinfo$?ScrSetPlayerPos@@YAXPAURPCParameters@@@Z
	jmp	___CxxFrameHandler3
text$x	ENDS
?ScrSetPlayerPos@@YAXPAURPCParameters@@@Z ENDP		; ScrSetPlayerPos
; Function compile flags: /Odtp /RTCsu /ZI
; File z:\sampsrc\02xu1\raknet\bitstream.h
;	COMDAT ??$Read@H@BitStream@RakNet@@QAE_NAAH@Z
_TEXT	SEGMENT
_this$ = -8						; size = 4
_var$ = 8						; size = 4
??$Read@H@BitStream@RakNet@@QAE_NAAH@Z PROC		; RakNet::BitStream::Read<int>, COMDAT
; _this$ = ecx

; 987  : 	{

	push	ebp
	mov	ebp, esp
	sub	esp, 204				; 000000ccH
	push	ebx
	push	esi
	push	edi
	push	ecx
	lea	edi, DWORD PTR [ebp-204]
	mov	ecx, 51					; 00000033H
	mov	eax, -858993460				; ccccccccH
	rep stosd
	pop	ecx
	mov	DWORD PTR _this$[ebp], ecx

; 988  : #ifdef _MSC_VER
; 989  : #pragma warning(disable:4127)   // conditional expression is constant
; 990  : #endif
; 991  : 		if (sizeof(var)==1)

	xor	eax, eax
	je	SHORT $LN2@Read

; 992  : 			return ReadBits( ( unsigned char* ) &var, sizeof(templateType) * 8, true );

	push	1
	push	32					; 00000020H
	mov	eax, DWORD PTR _var$[ebp]
	push	eax
	mov	ecx, DWORD PTR _this$[ebp]
	call	?ReadBits@BitStream@RakNet@@QAE_NPAEH_N@Z ; RakNet::BitStream::ReadBits
	jmp	SHORT $LN3@Read

; 993  : 		else

	jmp	SHORT $LN3@Read
$LN2@Read:

; 994  : 		{
; 995  : #ifndef __BITSTREAM_NATIVE_END
; 996  : #ifdef _MSC_VER
; 997  : #pragma warning(disable:4244)   // '=' : conversion from 'unsigned long' to 'unsigned short', possible loss of data
; 998  : #endif
; 999  : 			if (DoEndianSwap())
; 1000 : 			{
; 1001 : 				unsigned char output[sizeof(templateType)];
; 1002 : 				if (ReadBits( ( unsigned char* ) output, sizeof(templateType) * 8, true ))
; 1003 : 				{
; 1004 : 					ReverseBytes(output, (unsigned char*)&var, sizeof(templateType));
; 1005 : 					return true;
; 1006 : 				}
; 1007 : 				return false;
; 1008 : 			}
; 1009 : 			else
; 1010 : #endif
; 1011 : 				return ReadBits( ( unsigned char* ) & var, sizeof(templateType) * 8, true );

	push	1
	push	32					; 00000020H
	mov	eax, DWORD PTR _var$[ebp]
	push	eax
	mov	ecx, DWORD PTR _this$[ebp]
	call	?ReadBits@BitStream@RakNet@@QAE_NPAEH_N@Z ; RakNet::BitStream::ReadBits
$LN3@Read:

; 1012 : 		}
; 1013 : 	}

	pop	edi
	pop	esi
	pop	ebx
	add	esp, 204				; 000000ccH
	cmp	ebp, esp
	call	__RTC_CheckEsp
	mov	esp, ebp
	pop	ebp
	ret	4
??$Read@H@BitStream@RakNet@@QAE_NAAH@Z ENDP		; RakNet::BitStream::Read<int>
_TEXT	ENDS
; Function compile flags: /Odtp /RTCsu /ZI
; File z:\sampsrc\02xu1\saco\net\scriptrpc.cpp
;	COMDAT ?ScrSetPlayerSkin@@YAXPAURPCParameters@@@Z
_TEXT	SEGMENT
_pPlayerPool$ = -372					; size = 4
_bsData$ = -360						; size = 273
_uiSkin$ = -76						; size = 4
_iPlayerID$ = -64					; size = 4
_sender$ = -52						; size = 6
_iBitLength$ = -36					; size = 4
_Data$ = -24						; size = 4
__$ArrayPad$ = -16					; size = 4
__$EHRec$ = -12						; size = 12
_rpcParams$ = 8						; size = 4
?ScrSetPlayerSkin@@YAXPAURPCParameters@@@Z PROC		; ScrSetPlayerSkin, COMDAT

; 119  : {

	push	ebp
	mov	ebp, esp
	push	-1
	push	__ehhandler$?ScrSetPlayerSkin@@YAXPAURPCParameters@@@Z
	mov	eax, DWORD PTR fs:0
	push	eax
	sub	esp, 556				; 0000022cH
	push	ebx
	push	esi
	push	edi
	lea	edi, DWORD PTR [ebp-568]
	mov	ecx, 139				; 0000008bH
	mov	eax, -858993460				; ccccccccH
	rep stosd
	mov	eax, DWORD PTR ___security_cookie
	xor	eax, ebp
	mov	DWORD PTR __$ArrayPad$[ebp], eax
	push	eax
	lea	eax, DWORD PTR __$EHRec$[ebp]
	mov	DWORD PTR fs:0, eax

; 120  : 	PCHAR Data = reinterpret_cast<PCHAR>(rpcParams->input);

	mov	eax, DWORD PTR _rpcParams$[ebp]
	mov	ecx, DWORD PTR [eax]
	mov	DWORD PTR _Data$[ebp], ecx

; 121  : 	int iBitLength = rpcParams->numberOfBitsOfData;

	mov	eax, DWORD PTR _rpcParams$[ebp]
	mov	ecx, DWORD PTR [eax+4]
	mov	DWORD PTR _iBitLength$[ebp], ecx

; 122  : 	PlayerID sender = rpcParams->sender;

	mov	eax, DWORD PTR _rpcParams$[ebp]
	add	eax, 8
	mov	ecx, DWORD PTR [eax]
	mov	DWORD PTR _sender$[ebp], ecx
	mov	dx, WORD PTR [eax+4]
	mov	WORD PTR _sender$[ebp+4], dx

; 123  : 
; 124  : 	int iPlayerID;
; 125  : 	unsigned int uiSkin;
; 126  : 
; 127  : 	RakNet::BitStream bsData(Data,(iBitLength/8)+1,false);

	push	0
	mov	eax, DWORD PTR _iBitLength$[ebp]
	cdq
	and	edx, 7
	add	eax, edx
	sar	eax, 3
	add	eax, 1
	push	eax
	mov	eax, DWORD PTR _Data$[ebp]
	push	eax
	lea	ecx, DWORD PTR _bsData$[ebp]
	call	??0BitStream@RakNet@@QAE@PADI_N@Z	; RakNet::BitStream::BitStream
	mov	DWORD PTR __$EHRec$[ebp+8], 0

; 128  : 
; 129  : 	CPlayerPool *pPlayerPool = pNetGame->GetPlayerPool();

	mov	ecx, DWORD PTR ?pNetGame@@3PAVCNetGame@@A ; pNetGame
	call	?GetPlayerPool@CNetGame@@QAEPAVCPlayerPool@@XZ ; CNetGame::GetPlayerPool
	mov	DWORD PTR _pPlayerPool$[ebp], eax

; 130  : 
; 131  : 	bsData.Read(iPlayerID);

	lea	eax, DWORD PTR _iPlayerID$[ebp]
	push	eax
	lea	ecx, DWORD PTR _bsData$[ebp]
	call	??$Read@H@BitStream@RakNet@@QAE_NAAH@Z	; RakNet::BitStream::Read<int>

; 132  : 	bsData.Read(uiSkin);

	lea	eax, DWORD PTR _uiSkin$[ebp]
	push	eax
	lea	ecx, DWORD PTR _bsData$[ebp]
	call	??$Read@I@BitStream@RakNet@@QAE_NAAI@Z	; RakNet::BitStream::Read<unsigned int>

; 133  : 
; 134  : 	if (iPlayerID == pPlayerPool->GetLocalPlayerID()) {

	mov	ecx, DWORD PTR _pPlayerPool$[ebp]
	call	?GetLocalPlayerID@CPlayerPool@@QAEEXZ	; CPlayerPool::GetLocalPlayerID
	movzx	eax, al
	cmp	DWORD PTR _iPlayerID$[ebp], eax
	jne	SHORT $LN3@ScrSetPlay

; 135  : 		pPlayerPool->GetLocalPlayer()->GetPlayerPed()->SetModelIndex(uiSkin);

	mov	eax, DWORD PTR _uiSkin$[ebp]
	push	eax
	mov	ecx, DWORD PTR _pPlayerPool$[ebp]
	call	?GetLocalPlayer@CPlayerPool@@QAEPAVCLocalPlayer@@XZ ; CPlayerPool::GetLocalPlayer
	mov	ecx, eax
	call	?GetPlayerPed@CLocalPlayer@@QAEPAVCPlayerPed@@XZ ; CLocalPlayer::GetPlayerPed
	mov	ecx, eax
	call	?SetModelIndex@CPlayerPed@@QAEXI@Z	; CPlayerPed::SetModelIndex

; 136  : 	}
; 137  : 	else {

	jmp	SHORT $LN2@ScrSetPlay
$LN3@ScrSetPlay:

; 138  : 		if(pPlayerPool->GetSlotState(iPlayerID) && pPlayerPool->GetAt(iPlayerID)->GetPlayerPed()) {

	movzx	eax, BYTE PTR _iPlayerID$[ebp]
	push	eax
	mov	ecx, DWORD PTR _pPlayerPool$[ebp]
	call	?GetSlotState@CPlayerPool@@QAEHE@Z	; CPlayerPool::GetSlotState
	test	eax, eax
	je	SHORT $LN2@ScrSetPlay
	movzx	eax, BYTE PTR _iPlayerID$[ebp]
	push	eax
	mov	ecx, DWORD PTR _pPlayerPool$[ebp]
	call	?GetAt@CPlayerPool@@QAEPAVCRemotePlayer@@E@Z ; CPlayerPool::GetAt
	mov	ecx, eax
	call	?GetPlayerPed@CRemotePlayer@@QAEPAVCPlayerPed@@XZ ; CRemotePlayer::GetPlayerPed
	test	eax, eax
	je	SHORT $LN2@ScrSetPlay

; 139  : 			pPlayerPool->GetAt(iPlayerID)->GetPlayerPed()->SetModelIndex(uiSkin);

	mov	eax, DWORD PTR _uiSkin$[ebp]
	push	eax
	movzx	ecx, BYTE PTR _iPlayerID$[ebp]
	push	ecx
	mov	ecx, DWORD PTR _pPlayerPool$[ebp]
	call	?GetAt@CPlayerPool@@QAEPAVCRemotePlayer@@E@Z ; CPlayerPool::GetAt
	mov	ecx, eax
	call	?GetPlayerPed@CRemotePlayer@@QAEPAVCPlayerPed@@XZ ; CRemotePlayer::GetPlayerPed
	mov	ecx, eax
	call	?SetModelIndex@CPlayerPed@@QAEXI@Z	; CPlayerPed::SetModelIndex
$LN2@ScrSetPlay:

; 140  : 		}
; 141  : 	}
; 142  : }

	mov	DWORD PTR __$EHRec$[ebp+8], -1
	lea	ecx, DWORD PTR _bsData$[ebp]
	call	??1BitStream@RakNet@@QAE@XZ		; RakNet::BitStream::~BitStream
	push	edx
	mov	ecx, ebp
	push	eax
	lea	edx, DWORD PTR $LN13@ScrSetPlay
	call	@_RTC_CheckStackVars@8
	pop	eax
	pop	edx
	mov	ecx, DWORD PTR __$EHRec$[ebp]
	mov	DWORD PTR fs:0, ecx
	pop	ecx
	pop	edi
	pop	esi
	pop	ebx
	mov	ecx, DWORD PTR __$ArrayPad$[ebp]
	xor	ecx, ebp
	call	@__security_check_cookie@4
	add	esp, 568				; 00000238H
	cmp	ebp, esp
	call	__RTC_CheckEsp
	mov	esp, ebp
	pop	ebp
	ret	0
	npad	2
$LN13@ScrSetPlay:
	DD	4
	DD	$LN12@ScrSetPlay
$LN12@ScrSetPlay:
	DD	-52					; ffffffccH
	DD	6
	DD	$LN7@ScrSetPlay
	DD	-64					; ffffffc0H
	DD	4
	DD	$LN8@ScrSetPlay
	DD	-76					; ffffffb4H
	DD	4
	DD	$LN9@ScrSetPlay
	DD	-360					; fffffe98H
	DD	273					; 00000111H
	DD	$LN10@ScrSetPlay
$LN10@ScrSetPlay:
	DB	98					; 00000062H
	DB	115					; 00000073H
	DB	68					; 00000044H
	DB	97					; 00000061H
	DB	116					; 00000074H
	DB	97					; 00000061H
	DB	0
$LN9@ScrSetPlay:
	DB	117					; 00000075H
	DB	105					; 00000069H
	DB	83					; 00000053H
	DB	107					; 0000006bH
	DB	105					; 00000069H
	DB	110					; 0000006eH
	DB	0
$LN8@ScrSetPlay:
	DB	105					; 00000069H
	DB	80					; 00000050H
	DB	108					; 0000006cH
	DB	97					; 00000061H
	DB	121					; 00000079H
	DB	101					; 00000065H
	DB	114					; 00000072H
	DB	73					; 00000049H
	DB	68					; 00000044H
	DB	0
$LN7@ScrSetPlay:
	DB	115					; 00000073H
	DB	101					; 00000065H
	DB	110					; 0000006eH
	DB	100					; 00000064H
	DB	101					; 00000065H
	DB	114					; 00000072H
	DB	0
_TEXT	ENDS
;	COMDAT text$x
text$x	SEGMENT
__unwindfunclet$?ScrSetPlayerSkin@@YAXPAURPCParameters@@@Z$0:
	lea	ecx, DWORD PTR _bsData$[ebp]
	jmp	??1BitStream@RakNet@@QAE@XZ		; RakNet::BitStream::~BitStream
__ehhandler$?ScrSetPlayerSkin@@YAXPAURPCParameters@@@Z:
	mov	edx, DWORD PTR [esp+8]
	lea	eax, DWORD PTR [edx+12]
	mov	ecx, DWORD PTR [edx-572]
	xor	ecx, eax
	call	@__security_check_cookie@4
	mov	ecx, DWORD PTR [edx-4]
	xor	ecx, eax
	call	@__security_check_cookie@4
	mov	eax, OFFSET __ehfuncinfo$?ScrSetPlayerSkin@@YAXPAURPCParameters@@@Z
	jmp	___CxxFrameHandler3
text$x	ENDS
?ScrSetPlayerSkin@@YAXPAURPCParameters@@@Z ENDP		; ScrSetPlayerSkin
; Function compile flags: /Odtp /RTCsu /ZI
; File z:\sampsrc\02xu1\saco\net\scriptrpc.cpp
;	COMDAT ?ScrSetPlayerName@@YAXPAURPCParameters@@@Z
_TEXT	SEGMENT
$T2 = -624						; size = 4
_pPlayerPool$ = -420					; size = 4
_bsData$ = -408						; size = 273
_byteSuccess$ = -121					; size = 1
_szNewName$ = -112					; size = 25
_byteNickLen$ = -73					; size = 1
_bytePlayerID$ = -61					; size = 1
_sender$ = -52						; size = 6
_iBitLength$ = -36					; size = 4
_Data$ = -24						; size = 4
__$ArrayPad$ = -16					; size = 4
__$EHRec$ = -12						; size = 12
_rpcParams$ = 8						; size = 4
?ScrSetPlayerName@@YAXPAURPCParameters@@@Z PROC		; ScrSetPlayerName, COMDAT

; 87   : {

	push	ebp
	mov	ebp, esp
	push	-1
	push	__ehhandler$?ScrSetPlayerName@@YAXPAURPCParameters@@@Z
	mov	eax, DWORD PTR fs:0
	push	eax
	sub	esp, 616				; 00000268H
	push	ebx
	push	esi
	push	edi
	lea	edi, DWORD PTR [ebp-628]
	mov	ecx, 154				; 0000009aH
	mov	eax, -858993460				; ccccccccH
	rep stosd
	mov	eax, DWORD PTR ___security_cookie
	xor	eax, ebp
	mov	DWORD PTR __$ArrayPad$[ebp], eax
	push	eax
	lea	eax, DWORD PTR __$EHRec$[ebp]
	mov	DWORD PTR fs:0, eax

; 88   : 	PCHAR Data = reinterpret_cast<PCHAR>(rpcParams->input);

	mov	eax, DWORD PTR _rpcParams$[ebp]
	mov	ecx, DWORD PTR [eax]
	mov	DWORD PTR _Data$[ebp], ecx

; 89   : 	int iBitLength = rpcParams->numberOfBitsOfData;

	mov	eax, DWORD PTR _rpcParams$[ebp]
	mov	ecx, DWORD PTR [eax+4]
	mov	DWORD PTR _iBitLength$[ebp], ecx

; 90   : 	PlayerID sender = rpcParams->sender;

	mov	eax, DWORD PTR _rpcParams$[ebp]
	add	eax, 8
	mov	ecx, DWORD PTR [eax]
	mov	DWORD PTR _sender$[ebp], ecx
	mov	dx, WORD PTR [eax+4]
	mov	WORD PTR _sender$[ebp+4], dx

; 91   : 
; 92   : 	BYTE bytePlayerID;
; 93   : 	BYTE byteNickLen;
; 94   : 	char szNewName[MAX_PLAYER_NAME+1];
; 95   : 	BYTE byteSuccess;
; 96   : 
; 97   : 	RakNet::BitStream bsData(Data,(iBitLength/8)+1,false);

	push	0
	mov	eax, DWORD PTR _iBitLength$[ebp]
	cdq
	and	edx, 7
	add	eax, edx
	sar	eax, 3
	add	eax, 1
	push	eax
	mov	eax, DWORD PTR _Data$[ebp]
	push	eax
	lea	ecx, DWORD PTR _bsData$[ebp]
	call	??0BitStream@RakNet@@QAE@PADI_N@Z	; RakNet::BitStream::BitStream
	mov	DWORD PTR __$EHRec$[ebp+8], 0

; 98   : 
; 99   : 	CPlayerPool *pPlayerPool = pNetGame->GetPlayerPool();

	mov	ecx, DWORD PTR ?pNetGame@@3PAVCNetGame@@A ; pNetGame
	call	?GetPlayerPool@CNetGame@@QAEPAVCPlayerPool@@XZ ; CNetGame::GetPlayerPool
	mov	DWORD PTR _pPlayerPool$[ebp], eax

; 100  : 
; 101  : 	bsData.Read(bytePlayerID);

	lea	eax, DWORD PTR _bytePlayerID$[ebp]
	push	eax
	lea	ecx, DWORD PTR _bsData$[ebp]
	call	??$Read@E@BitStream@RakNet@@QAE_NAAE@Z	; RakNet::BitStream::Read<unsigned char>

; 102  : 	bsData.Read(byteNickLen);

	lea	eax, DWORD PTR _byteNickLen$[ebp]
	push	eax
	lea	ecx, DWORD PTR _bsData$[ebp]
	call	??$Read@E@BitStream@RakNet@@QAE_NAAE@Z	; RakNet::BitStream::Read<unsigned char>

; 103  : 
; 104  : 	if(byteNickLen > MAX_PLAYER_NAME) return;

	movzx	eax, BYTE PTR _byteNickLen$[ebp]
	cmp	eax, 24					; 00000018H
	jle	SHORT $LN3@ScrSetPlay
	mov	DWORD PTR __$EHRec$[ebp+8], -1
	lea	ecx, DWORD PTR _bsData$[ebp]
	call	??1BitStream@RakNet@@QAE@XZ		; RakNet::BitStream::~BitStream
	jmp	$LN5@ScrSetPlay
$LN3@ScrSetPlay:

; 105  : 
; 106  : 	bsData.Read(szNewName, byteNickLen);

	movzx	eax, BYTE PTR _byteNickLen$[ebp]
	push	eax
	lea	ecx, DWORD PTR _szNewName$[ebp]
	push	ecx
	lea	ecx, DWORD PTR _bsData$[ebp]
	call	?Read@BitStream@RakNet@@QAE_NPADH@Z	; RakNet::BitStream::Read

; 107  : 	bsData.Read(byteSuccess);

	lea	eax, DWORD PTR _byteSuccess$[ebp]
	push	eax
	lea	ecx, DWORD PTR _bsData$[ebp]
	call	??$Read@E@BitStream@RakNet@@QAE_NAAE@Z	; RakNet::BitStream::Read<unsigned char>

; 108  : 
; 109  : 	szNewName[byteNickLen] = '\0';

	movzx	eax, BYTE PTR _byteNickLen$[ebp]
	mov	DWORD PTR $T2[ebp], eax
	cmp	DWORD PTR $T2[ebp], 25			; 00000019H
	jae	SHORT $LN6@ScrSetPlay
	jmp	SHORT $LN7@ScrSetPlay
$LN6@ScrSetPlay:
	call	___report_rangecheckfailure
$LN7@ScrSetPlay:
	mov	ecx, DWORD PTR $T2[ebp]
	mov	BYTE PTR _szNewName$[ebp+ecx], 0

; 110  : 
; 111  : 	if (byteSuccess == 1) pPlayerPool->SetPlayerName(bytePlayerID, szNewName);

	movzx	eax, BYTE PTR _byteSuccess$[ebp]
	cmp	eax, 1
	jne	SHORT $LN2@ScrSetPlay
	lea	eax, DWORD PTR _szNewName$[ebp]
	push	eax
	movzx	ecx, BYTE PTR _bytePlayerID$[ebp]
	push	ecx
	mov	ecx, DWORD PTR _pPlayerPool$[ebp]
	call	?SetPlayerName@CPlayerPool@@QAEXEPAD@Z	; CPlayerPool::SetPlayerName
$LN2@ScrSetPlay:

; 112  : 	
; 113  : 	// Extra addition which we need to do if this is the local player;
; 114  : 	if( pPlayerPool->GetLocalPlayerID() == bytePlayerID )

	mov	ecx, DWORD PTR _pPlayerPool$[ebp]
	call	?GetLocalPlayerID@CPlayerPool@@QAEEXZ	; CPlayerPool::GetLocalPlayerID
	movzx	eax, al
	movzx	ecx, BYTE PTR _bytePlayerID$[ebp]
	cmp	eax, ecx
	jne	SHORT $LN1@ScrSetPlay

; 115  : 		pPlayerPool->SetLocalPlayerName( szNewName );

	lea	eax, DWORD PTR _szNewName$[ebp]
	push	eax
	mov	ecx, DWORD PTR _pPlayerPool$[ebp]
	call	?SetLocalPlayerName@CPlayerPool@@QAEXPAD@Z ; CPlayerPool::SetLocalPlayerName
$LN1@ScrSetPlay:

; 116  : }

	mov	DWORD PTR __$EHRec$[ebp+8], -1
	lea	ecx, DWORD PTR _bsData$[ebp]
	call	??1BitStream@RakNet@@QAE@XZ		; RakNet::BitStream::~BitStream
$LN5@ScrSetPlay:
	push	edx
	mov	ecx, ebp
	push	eax
	lea	edx, DWORD PTR $LN17@ScrSetPlay
	call	@_RTC_CheckStackVars@8
	pop	eax
	pop	edx
	mov	ecx, DWORD PTR __$EHRec$[ebp]
	mov	DWORD PTR fs:0, ecx
	pop	ecx
	pop	edi
	pop	esi
	pop	ebx
	mov	ecx, DWORD PTR __$ArrayPad$[ebp]
	xor	ecx, ebp
	call	@__security_check_cookie@4
	add	esp, 628				; 00000274H
	cmp	ebp, esp
	call	__RTC_CheckEsp
	mov	esp, ebp
	pop	ebp
	ret	0
	npad	3
$LN17@ScrSetPlay:
	DD	6
	DD	$LN16@ScrSetPlay
$LN16@ScrSetPlay:
	DD	-52					; ffffffccH
	DD	6
	DD	$LN9@ScrSetPlay
	DD	-61					; ffffffc3H
	DD	1
	DD	$LN10@ScrSetPlay
	DD	-73					; ffffffb7H
	DD	1
	DD	$LN11@ScrSetPlay
	DD	-112					; ffffff90H
	DD	25					; 00000019H
	DD	$LN12@ScrSetPlay
	DD	-121					; ffffff87H
	DD	1
	DD	$LN13@ScrSetPlay
	DD	-408					; fffffe68H
	DD	273					; 00000111H
	DD	$LN14@ScrSetPlay
$LN14@ScrSetPlay:
	DB	98					; 00000062H
	DB	115					; 00000073H
	DB	68					; 00000044H
	DB	97					; 00000061H
	DB	116					; 00000074H
	DB	97					; 00000061H
	DB	0
$LN13@ScrSetPlay:
	DB	98					; 00000062H
	DB	121					; 00000079H
	DB	116					; 00000074H
	DB	101					; 00000065H
	DB	83					; 00000053H
	DB	117					; 00000075H
	DB	99					; 00000063H
	DB	99					; 00000063H
	DB	101					; 00000065H
	DB	115					; 00000073H
	DB	115					; 00000073H
	DB	0
$LN12@ScrSetPlay:
	DB	115					; 00000073H
	DB	122					; 0000007aH
	DB	78					; 0000004eH
	DB	101					; 00000065H
	DB	119					; 00000077H
	DB	78					; 0000004eH
	DB	97					; 00000061H
	DB	109					; 0000006dH
	DB	101					; 00000065H
	DB	0
$LN11@ScrSetPlay:
	DB	98					; 00000062H
	DB	121					; 00000079H
	DB	116					; 00000074H
	DB	101					; 00000065H
	DB	78					; 0000004eH
	DB	105					; 00000069H
	DB	99					; 00000063H
	DB	107					; 0000006bH
	DB	76					; 0000004cH
	DB	101					; 00000065H
	DB	110					; 0000006eH
	DB	0
$LN10@ScrSetPlay:
	DB	98					; 00000062H
	DB	121					; 00000079H
	DB	116					; 00000074H
	DB	101					; 00000065H
	DB	80					; 00000050H
	DB	108					; 0000006cH
	DB	97					; 00000061H
	DB	121					; 00000079H
	DB	101					; 00000065H
	DB	114					; 00000072H
	DB	73					; 00000049H
	DB	68					; 00000044H
	DB	0
$LN9@ScrSetPlay:
	DB	115					; 00000073H
	DB	101					; 00000065H
	DB	110					; 0000006eH
	DB	100					; 00000064H
	DB	101					; 00000065H
	DB	114					; 00000072H
	DB	0
_TEXT	ENDS
;	COMDAT text$x
text$x	SEGMENT
__unwindfunclet$?ScrSetPlayerName@@YAXPAURPCParameters@@@Z$0:
	lea	ecx, DWORD PTR _bsData$[ebp]
	jmp	??1BitStream@RakNet@@QAE@XZ		; RakNet::BitStream::~BitStream
__ehhandler$?ScrSetPlayerName@@YAXPAURPCParameters@@@Z:
	mov	edx, DWORD PTR [esp+8]
	lea	eax, DWORD PTR [edx+12]
	mov	ecx, DWORD PTR [edx-632]
	xor	ecx, eax
	call	@__security_check_cookie@4
	mov	ecx, DWORD PTR [edx-4]
	xor	ecx, eax
	call	@__security_check_cookie@4
	mov	eax, OFFSET __ehfuncinfo$?ScrSetPlayerName@@YAXPAURPCParameters@@@Z
	jmp	___CxxFrameHandler3
text$x	ENDS
?ScrSetPlayerName@@YAXPAURPCParameters@@@Z ENDP		; ScrSetPlayerName
; Function compile flags: /Odtp /RTCsu /ZI
; File z:\sampsrc\02xu1\raknet\bitstream.h
;	COMDAT ??$Read@E@BitStream@RakNet@@QAE_NAAE@Z
_TEXT	SEGMENT
_this$ = -8						; size = 4
_var$ = 8						; size = 4
??$Read@E@BitStream@RakNet@@QAE_NAAE@Z PROC		; RakNet::BitStream::Read<unsigned char>, COMDAT
; _this$ = ecx

; 987  : 	{

	push	ebp
	mov	ebp, esp
	sub	esp, 204				; 000000ccH
	push	ebx
	push	esi
	push	edi
	push	ecx
	lea	edi, DWORD PTR [ebp-204]
	mov	ecx, 51					; 00000033H
	mov	eax, -858993460				; ccccccccH
	rep stosd
	pop	ecx
	mov	DWORD PTR _this$[ebp], ecx

; 988  : #ifdef _MSC_VER
; 989  : #pragma warning(disable:4127)   // conditional expression is constant
; 990  : #endif
; 991  : 		if (sizeof(var)==1)

	mov	eax, 1
	test	eax, eax
	je	SHORT $LN2@Read

; 992  : 			return ReadBits( ( unsigned char* ) &var, sizeof(templateType) * 8, true );

	push	1
	push	8
	mov	eax, DWORD PTR _var$[ebp]
	push	eax
	mov	ecx, DWORD PTR _this$[ebp]
	call	?ReadBits@BitStream@RakNet@@QAE_NPAEH_N@Z ; RakNet::BitStream::ReadBits
	jmp	SHORT $LN3@Read

; 993  : 		else

	jmp	SHORT $LN3@Read
$LN2@Read:

; 994  : 		{
; 995  : #ifndef __BITSTREAM_NATIVE_END
; 996  : #ifdef _MSC_VER
; 997  : #pragma warning(disable:4244)   // '=' : conversion from 'unsigned long' to 'unsigned short', possible loss of data
; 998  : #endif
; 999  : 			if (DoEndianSwap())
; 1000 : 			{
; 1001 : 				unsigned char output[sizeof(templateType)];
; 1002 : 				if (ReadBits( ( unsigned char* ) output, sizeof(templateType) * 8, true ))
; 1003 : 				{
; 1004 : 					ReverseBytes(output, (unsigned char*)&var, sizeof(templateType));
; 1005 : 					return true;
; 1006 : 				}
; 1007 : 				return false;
; 1008 : 			}
; 1009 : 			else
; 1010 : #endif
; 1011 : 				return ReadBits( ( unsigned char* ) & var, sizeof(templateType) * 8, true );

	push	1
	push	8
	mov	eax, DWORD PTR _var$[ebp]
	push	eax
	mov	ecx, DWORD PTR _this$[ebp]
	call	?ReadBits@BitStream@RakNet@@QAE_NPAEH_N@Z ; RakNet::BitStream::ReadBits
$LN3@Read:

; 1012 : 		}
; 1013 : 	}

	pop	edi
	pop	esi
	pop	ebx
	add	esp, 204				; 000000ccH
	cmp	ebp, esp
	call	__RTC_CheckEsp
	mov	esp, ebp
	pop	ebp
	ret	4
??$Read@E@BitStream@RakNet@@QAE_NAAE@Z ENDP		; RakNet::BitStream::Read<unsigned char>
_TEXT	ENDS
; Function compile flags: /Odtp /RTCsu /ZI
; File z:\sampsrc\02xu1\saco\net\scriptrpc.cpp
;	COMDAT ?ScrSetPlayerTeam@@YAXPAURPCParameters@@@Z
_TEXT	SEGMENT
_pPlayer$2 = -384					; size = 4
_pPlayerPool$ = -372					; size = 4
_bsData$ = -360						; size = 273
_byteTeam$ = -73					; size = 1
_bytePlayerID$ = -61					; size = 1
_sender$ = -52						; size = 6
_iBitLength$ = -36					; size = 4
_Data$ = -24						; size = 4
__$ArrayPad$ = -16					; size = 4
__$EHRec$ = -12						; size = 12
_rpcParams$ = 8						; size = 4
?ScrSetPlayerTeam@@YAXPAURPCParameters@@@Z PROC		; ScrSetPlayerTeam, COMDAT

; 61   : {

	push	ebp
	mov	ebp, esp
	push	-1
	push	__ehhandler$?ScrSetPlayerTeam@@YAXPAURPCParameters@@@Z
	mov	eax, DWORD PTR fs:0
	push	eax
	sub	esp, 568				; 00000238H
	push	ebx
	push	esi
	push	edi
	lea	edi, DWORD PTR [ebp-580]
	mov	ecx, 142				; 0000008eH
	mov	eax, -858993460				; ccccccccH
	rep stosd
	mov	eax, DWORD PTR ___security_cookie
	xor	eax, ebp
	mov	DWORD PTR __$ArrayPad$[ebp], eax
	push	eax
	lea	eax, DWORD PTR __$EHRec$[ebp]
	mov	DWORD PTR fs:0, eax

; 62   : 	PCHAR Data = reinterpret_cast<PCHAR>(rpcParams->input);

	mov	eax, DWORD PTR _rpcParams$[ebp]
	mov	ecx, DWORD PTR [eax]
	mov	DWORD PTR _Data$[ebp], ecx

; 63   : 	int iBitLength = rpcParams->numberOfBitsOfData;

	mov	eax, DWORD PTR _rpcParams$[ebp]
	mov	ecx, DWORD PTR [eax+4]
	mov	DWORD PTR _iBitLength$[ebp], ecx

; 64   : 	PlayerID sender = rpcParams->sender;

	mov	eax, DWORD PTR _rpcParams$[ebp]
	add	eax, 8
	mov	ecx, DWORD PTR [eax]
	mov	DWORD PTR _sender$[ebp], ecx
	mov	dx, WORD PTR [eax+4]
	mov	WORD PTR _sender$[ebp+4], dx

; 65   : 
; 66   : 	BYTE bytePlayerID;
; 67   : 	BYTE byteTeam;
; 68   : 
; 69   : 	RakNet::BitStream bsData(Data,(iBitLength/8)+1,false);

	push	0
	mov	eax, DWORD PTR _iBitLength$[ebp]
	cdq
	and	edx, 7
	add	eax, edx
	sar	eax, 3
	add	eax, 1
	push	eax
	mov	eax, DWORD PTR _Data$[ebp]
	push	eax
	lea	ecx, DWORD PTR _bsData$[ebp]
	call	??0BitStream@RakNet@@QAE@PADI_N@Z	; RakNet::BitStream::BitStream
	mov	DWORD PTR __$EHRec$[ebp+8], 0

; 70   : 
; 71   : 	CPlayerPool *pPlayerPool = pNetGame->GetPlayerPool();

	mov	ecx, DWORD PTR ?pNetGame@@3PAVCNetGame@@A ; pNetGame
	call	?GetPlayerPool@CNetGame@@QAEPAVCPlayerPool@@XZ ; CNetGame::GetPlayerPool
	mov	DWORD PTR _pPlayerPool$[ebp], eax

; 72   : 
; 73   : 	bsData.Read(bytePlayerID);

	lea	eax, DWORD PTR _bytePlayerID$[ebp]
	push	eax
	lea	ecx, DWORD PTR _bsData$[ebp]
	call	??$Read@E@BitStream@RakNet@@QAE_NAAE@Z	; RakNet::BitStream::Read<unsigned char>

; 74   : 	bsData.Read(byteTeam);

	lea	eax, DWORD PTR _byteTeam$[ebp]
	push	eax
	lea	ecx, DWORD PTR _bsData$[ebp]
	call	??$Read@E@BitStream@RakNet@@QAE_NAAE@Z	; RakNet::BitStream::Read<unsigned char>

; 75   : 	
; 76   : 	if (bytePlayerID == pPlayerPool->GetLocalPlayerID()) {

	movzx	esi, BYTE PTR _bytePlayerID$[ebp]
	mov	ecx, DWORD PTR _pPlayerPool$[ebp]
	call	?GetLocalPlayerID@CPlayerPool@@QAEEXZ	; CPlayerPool::GetLocalPlayerID
	movzx	eax, al
	cmp	esi, eax
	jne	SHORT $LN3@ScrSetPlay

; 77   : 		pPlayerPool->GetLocalPlayer()->SetTeam(byteTeam);

	movzx	eax, BYTE PTR _byteTeam$[ebp]
	push	eax
	mov	ecx, DWORD PTR _pPlayerPool$[ebp]
	call	?GetLocalPlayer@CPlayerPool@@QAEPAVCLocalPlayer@@XZ ; CPlayerPool::GetLocalPlayer
	mov	ecx, eax
	call	?SetTeam@CLocalPlayer@@QAEXE@Z		; CLocalPlayer::SetTeam

; 78   : 	} else {

	jmp	SHORT $LN2@ScrSetPlay
$LN3@ScrSetPlay:

; 79   : 		CRemotePlayer *pPlayer = pPlayerPool->GetAt(bytePlayerID);

	movzx	eax, BYTE PTR _bytePlayerID$[ebp]
	push	eax
	mov	ecx, DWORD PTR _pPlayerPool$[ebp]
	call	?GetAt@CPlayerPool@@QAEPAVCRemotePlayer@@E@Z ; CPlayerPool::GetAt
	mov	DWORD PTR _pPlayer$2[ebp], eax

; 80   : 		if(pPlayer) pPlayer->SetTeam(byteTeam);

	cmp	DWORD PTR _pPlayer$2[ebp], 0
	je	SHORT $LN2@ScrSetPlay
	movzx	eax, BYTE PTR _byteTeam$[ebp]
	push	eax
	mov	ecx, DWORD PTR _pPlayer$2[ebp]
	call	?SetTeam@CRemotePlayer@@QAEXE@Z		; CRemotePlayer::SetTeam
$LN2@ScrSetPlay:

; 81   : 	}
; 82   : }

	mov	DWORD PTR __$EHRec$[ebp+8], -1
	lea	ecx, DWORD PTR _bsData$[ebp]
	call	??1BitStream@RakNet@@QAE@XZ		; RakNet::BitStream::~BitStream
	push	edx
	mov	ecx, ebp
	push	eax
	lea	edx, DWORD PTR $LN13@ScrSetPlay
	call	@_RTC_CheckStackVars@8
	pop	eax
	pop	edx
	mov	ecx, DWORD PTR __$EHRec$[ebp]
	mov	DWORD PTR fs:0, ecx
	pop	ecx
	pop	edi
	pop	esi
	pop	ebx
	mov	ecx, DWORD PTR __$ArrayPad$[ebp]
	xor	ecx, ebp
	call	@__security_check_cookie@4
	add	esp, 580				; 00000244H
	cmp	ebp, esp
	call	__RTC_CheckEsp
	mov	esp, ebp
	pop	ebp
	ret	0
	npad	3
$LN13@ScrSetPlay:
	DD	4
	DD	$LN12@ScrSetPlay
$LN12@ScrSetPlay:
	DD	-52					; ffffffccH
	DD	6
	DD	$LN7@ScrSetPlay
	DD	-61					; ffffffc3H
	DD	1
	DD	$LN8@ScrSetPlay
	DD	-73					; ffffffb7H
	DD	1
	DD	$LN9@ScrSetPlay
	DD	-360					; fffffe98H
	DD	273					; 00000111H
	DD	$LN10@ScrSetPlay
$LN10@ScrSetPlay:
	DB	98					; 00000062H
	DB	115					; 00000073H
	DB	68					; 00000044H
	DB	97					; 00000061H
	DB	116					; 00000074H
	DB	97					; 00000061H
	DB	0
$LN9@ScrSetPlay:
	DB	98					; 00000062H
	DB	121					; 00000079H
	DB	116					; 00000074H
	DB	101					; 00000065H
	DB	84					; 00000054H
	DB	101					; 00000065H
	DB	97					; 00000061H
	DB	109					; 0000006dH
	DB	0
$LN8@ScrSetPlay:
	DB	98					; 00000062H
	DB	121					; 00000079H
	DB	116					; 00000074H
	DB	101					; 00000065H
	DB	80					; 00000050H
	DB	108					; 0000006cH
	DB	97					; 00000061H
	DB	121					; 00000079H
	DB	101					; 00000065H
	DB	114					; 00000072H
	DB	73					; 00000049H
	DB	68					; 00000044H
	DB	0
$LN7@ScrSetPlay:
	DB	115					; 00000073H
	DB	101					; 00000065H
	DB	110					; 0000006eH
	DB	100					; 00000064H
	DB	101					; 00000065H
	DB	114					; 00000072H
	DB	0
_TEXT	ENDS
;	COMDAT text$x
text$x	SEGMENT
__unwindfunclet$?ScrSetPlayerTeam@@YAXPAURPCParameters@@@Z$0:
	lea	ecx, DWORD PTR _bsData$[ebp]
	jmp	??1BitStream@RakNet@@QAE@XZ		; RakNet::BitStream::~BitStream
__ehhandler$?ScrSetPlayerTeam@@YAXPAURPCParameters@@@Z:
	mov	edx, DWORD PTR [esp+8]
	lea	eax, DWORD PTR [edx+12]
	mov	ecx, DWORD PTR [edx-584]
	xor	ecx, eax
	call	@__security_check_cookie@4
	mov	ecx, DWORD PTR [edx-4]
	xor	ecx, eax
	call	@__security_check_cookie@4
	mov	eax, OFFSET __ehfuncinfo$?ScrSetPlayerTeam@@YAXPAURPCParameters@@@Z
	jmp	___CxxFrameHandler3
text$x	ENDS
?ScrSetPlayerTeam@@YAXPAURPCParameters@@@Z ENDP		; ScrSetPlayerTeam
; Function compile flags: /Odtp /RTCsu /ZI
; File z:\sampsrc\02xu1\saco\net\scriptrpc.cpp
;	COMDAT ?ScrSetSpawnInfo@@YAXPAURPCParameters@@@Z
_TEXT	SEGMENT
_pPlayerPool$ = -404					; size = 4
_bsData$ = -392						; size = 273
_SpawnInfo$ = -108					; size = 45
_sender$ = -52						; size = 6
_iBitLength$ = -36					; size = 4
_Data$ = -24						; size = 4
__$ArrayPad$ = -16					; size = 4
__$EHRec$ = -12						; size = 12
_rpcParams$ = 8						; size = 4
?ScrSetSpawnInfo@@YAXPAURPCParameters@@@Z PROC		; ScrSetSpawnInfo, COMDAT

; 25   : {

	push	ebp
	mov	ebp, esp
	push	-1
	push	__ehhandler$?ScrSetSpawnInfo@@YAXPAURPCParameters@@@Z
	mov	eax, DWORD PTR fs:0
	push	eax
	sub	esp, 588				; 0000024cH
	push	ebx
	push	esi
	push	edi
	lea	edi, DWORD PTR [ebp-600]
	mov	ecx, 147				; 00000093H
	mov	eax, -858993460				; ccccccccH
	rep stosd
	mov	eax, DWORD PTR ___security_cookie
	xor	eax, ebp
	mov	DWORD PTR __$ArrayPad$[ebp], eax
	push	eax
	lea	eax, DWORD PTR __$EHRec$[ebp]
	mov	DWORD PTR fs:0, eax

; 26   : 	PCHAR Data = reinterpret_cast<PCHAR>(rpcParams->input);

	mov	eax, DWORD PTR _rpcParams$[ebp]
	mov	ecx, DWORD PTR [eax]
	mov	DWORD PTR _Data$[ebp], ecx

; 27   : 	int iBitLength = rpcParams->numberOfBitsOfData;

	mov	eax, DWORD PTR _rpcParams$[ebp]
	mov	ecx, DWORD PTR [eax+4]
	mov	DWORD PTR _iBitLength$[ebp], ecx

; 28   : 	PlayerID sender = rpcParams->sender;

	mov	eax, DWORD PTR _rpcParams$[ebp]
	add	eax, 8
	mov	ecx, DWORD PTR [eax]
	mov	DWORD PTR _sender$[ebp], ecx
	mov	dx, WORD PTR [eax+4]
	mov	WORD PTR _sender$[ebp+4], dx

; 29   : 
; 30   : 	PLAYER_SPAWN_INFO SpawnInfo;
; 31   : 
; 32   : 	RakNet::BitStream bsData(Data,(iBitLength/8)+1,false);

	push	0
	mov	eax, DWORD PTR _iBitLength$[ebp]
	cdq
	and	edx, 7
	add	eax, edx
	sar	eax, 3
	add	eax, 1
	push	eax
	mov	eax, DWORD PTR _Data$[ebp]
	push	eax
	lea	ecx, DWORD PTR _bsData$[ebp]
	call	??0BitStream@RakNet@@QAE@PADI_N@Z	; RakNet::BitStream::BitStream
	mov	DWORD PTR __$EHRec$[ebp+8], 0

; 33   : 
; 34   : 	CPlayerPool *pPlayerPool = pNetGame->GetPlayerPool();

	mov	ecx, DWORD PTR ?pNetGame@@3PAVCNetGame@@A ; pNetGame
	call	?GetPlayerPool@CNetGame@@QAEPAVCPlayerPool@@XZ ; CNetGame::GetPlayerPool
	mov	DWORD PTR _pPlayerPool$[ebp], eax

; 35   : 
; 36   : 	bsData.Read((PCHAR)&SpawnInfo, sizeof(PLAYER_SPAWN_INFO));

	push	45					; 0000002dH
	lea	eax, DWORD PTR _SpawnInfo$[ebp]
	push	eax
	lea	ecx, DWORD PTR _bsData$[ebp]
	call	?Read@BitStream@RakNet@@QAE_NPADH@Z	; RakNet::BitStream::Read

; 37   : 
; 38   : 	/*
; 39   : 	pChatWindow->AddDebugMessage("Got Spawn Info: %i %i %f %f %f %f %i %i %i %i %i %i",
; 40   : 								SpawnInfo.byteTeam,
; 41   : 								SpawnInfo.iSkin,
; 42   : 								SpawnInfo.vecPos.X,
; 43   : 								SpawnInfo.vecPos.Y,
; 44   : 								SpawnInfo.vecPos.Z,
; 45   : 								SpawnInfo.fRotation,
; 46   : 								SpawnInfo.iSpawnWeapons[0],
; 47   : 								SpawnInfo.iSpawnWeaponsAmmo[0],
; 48   : 								SpawnInfo.iSpawnWeapons[1],
; 49   : 								SpawnInfo.iSpawnWeaponsAmmo[1],
; 50   : 								SpawnInfo.iSpawnWeapons[2],
; 51   : 								SpawnInfo.iSpawnWeaponsAmmo[2]);*/
; 52   : 
; 53   : 	pPlayerPool->GetLocalPlayer()->SetSpawnInfo(&SpawnInfo);

	lea	eax, DWORD PTR _SpawnInfo$[ebp]
	push	eax
	mov	ecx, DWORD PTR _pPlayerPool$[ebp]
	call	?GetLocalPlayer@CPlayerPool@@QAEPAVCLocalPlayer@@XZ ; CPlayerPool::GetLocalPlayer
	mov	ecx, eax
	call	?SetSpawnInfo@CLocalPlayer@@QAEXPAU_PLAYER_SPAWN_INFO@@@Z ; CLocalPlayer::SetSpawnInfo

; 54   : 
; 55   : 	//pPlayerPool->GetAt(bytePlayerID)->SetTeam(byteTeam);
; 56   : }

	mov	DWORD PTR __$EHRec$[ebp+8], -1
	lea	ecx, DWORD PTR _bsData$[ebp]
	call	??1BitStream@RakNet@@QAE@XZ		; RakNet::BitStream::~BitStream
	push	edx
	mov	ecx, ebp
	push	eax
	lea	edx, DWORD PTR $LN9@ScrSetSpaw
	call	@_RTC_CheckStackVars@8
	pop	eax
	pop	edx
	mov	ecx, DWORD PTR __$EHRec$[ebp]
	mov	DWORD PTR fs:0, ecx
	pop	ecx
	pop	edi
	pop	esi
	pop	ebx
	mov	ecx, DWORD PTR __$ArrayPad$[ebp]
	xor	ecx, ebp
	call	@__security_check_cookie@4
	add	esp, 600				; 00000258H
	cmp	ebp, esp
	call	__RTC_CheckEsp
	mov	esp, ebp
	pop	ebp
	ret	0
$LN9@ScrSetSpaw:
	DD	3
	DD	$LN8@ScrSetSpaw
$LN8@ScrSetSpaw:
	DD	-52					; ffffffccH
	DD	6
	DD	$LN4@ScrSetSpaw
	DD	-108					; ffffff94H
	DD	45					; 0000002dH
	DD	$LN5@ScrSetSpaw
	DD	-392					; fffffe78H
	DD	273					; 00000111H
	DD	$LN6@ScrSetSpaw
$LN6@ScrSetSpaw:
	DB	98					; 00000062H
	DB	115					; 00000073H
	DB	68					; 00000044H
	DB	97					; 00000061H
	DB	116					; 00000074H
	DB	97					; 00000061H
	DB	0
$LN5@ScrSetSpaw:
	DB	83					; 00000053H
	DB	112					; 00000070H
	DB	97					; 00000061H
	DB	119					; 00000077H
	DB	110					; 0000006eH
	DB	73					; 00000049H
	DB	110					; 0000006eH
	DB	102					; 00000066H
	DB	111					; 0000006fH
	DB	0
$LN4@ScrSetSpaw:
	DB	115					; 00000073H
	DB	101					; 00000065H
	DB	110					; 0000006eH
	DB	100					; 00000064H
	DB	101					; 00000065H
	DB	114					; 00000072H
	DB	0
_TEXT	ENDS
;	COMDAT text$x
text$x	SEGMENT
__unwindfunclet$?ScrSetSpawnInfo@@YAXPAURPCParameters@@@Z$0:
	lea	ecx, DWORD PTR _bsData$[ebp]
	jmp	??1BitStream@RakNet@@QAE@XZ		; RakNet::BitStream::~BitStream
__ehhandler$?ScrSetSpawnInfo@@YAXPAURPCParameters@@@Z:
	mov	edx, DWORD PTR [esp+8]
	lea	eax, DWORD PTR [edx+12]
	mov	ecx, DWORD PTR [edx-604]
	xor	ecx, eax
	call	@__security_check_cookie@4
	mov	ecx, DWORD PTR [edx-4]
	xor	ecx, eax
	call	@__security_check_cookie@4
	mov	eax, OFFSET __ehfuncinfo$?ScrSetSpawnInfo@@YAXPAURPCParameters@@@Z
	jmp	___CxxFrameHandler3
text$x	ENDS
?ScrSetSpawnInfo@@YAXPAURPCParameters@@@Z ENDP		; ScrSetSpawnInfo
; Function compile flags: /Odtp /RTCsu /ZI
; File z:\sampsrc\02xu1\saco\net\scriptrpc.cpp
;	COMDAT ?UnRegisterScriptRPCs@@YAXPAVRakClientInterface@@@Z
_TEXT	SEGMENT
_pRakClient$ = 8					; size = 4
?UnRegisterScriptRPCs@@YAXPAVRakClientInterface@@@Z PROC ; UnRegisterScriptRPCs, COMDAT

; 1683 : {

	push	ebp
	mov	ebp, esp
	sub	esp, 192				; 000000c0H
	push	ebx
	push	esi
	push	edi
	lea	edi, DWORD PTR [ebp-192]
	mov	ecx, 48					; 00000030H
	mov	eax, -858993460				; ccccccccH
	rep stosd

; 1684 : 	UNREGISTER_STATIC_RPC(pRakClient, ScrSetSpawnInfo); // 32

	mov	esi, esp
	push	OFFSET ??_C@_02GBFBMEMD@bg?$AA@
	mov	eax, DWORD PTR _pRakClient$[ebp]
	mov	edx, DWORD PTR [eax]
	mov	ecx, DWORD PTR _pRakClient$[ebp]
	mov	eax, DWORD PTR [edx+96]
	call	eax
	cmp	esi, esp
	call	__RTC_CheckEsp

; 1685 : 	UNREGISTER_STATIC_RPC(pRakClient, ScrSetPlayerTeam);

	mov	esi, esp
	push	OFFSET ??_C@_02OGMJNIAM@bh?$AA@
	mov	eax, DWORD PTR _pRakClient$[ebp]
	mov	edx, DWORD PTR [eax]
	mov	ecx, DWORD PTR _pRakClient$[ebp]
	mov	eax, DWORD PTR [edx+96]
	call	eax
	cmp	esi, esp
	call	__RTC_CheckEsp

; 1686 : 	UNREGISTER_STATIC_RPC(pRakClient, ScrSetPlayerName);

	mov	esi, esp
	push	OFFSET ??_C@_02NEPPLKIO@bj?$AA@
	mov	eax, DWORD PTR _pRakClient$[ebp]
	mov	edx, DWORD PTR [eax]
	mov	ecx, DWORD PTR _pRakClient$[ebp]
	mov	eax, DWORD PTR [edx+96]
	call	eax
	cmp	esi, esp
	call	__RTC_CheckEsp

; 1687 : 	UNREGISTER_STATIC_RPC(pRakClient, ScrSetPlayerSkin);

	mov	esi, esp
	push	OFFSET ??_C@_02PPNCOJEN@bi?$AA@
	mov	eax, DWORD PTR _pRakClient$[ebp]
	mov	edx, DWORD PTR [eax]
	mov	ecx, DWORD PTR _pRakClient$[ebp]
	mov	eax, DWORD PTR [edx+96]
	call	eax
	cmp	esi, esp
	call	__RTC_CheckEsp

; 1688 : 	UNREGISTER_STATIC_RPC(pRakClient, ScrSetPlayerPos);

	mov	esi, esp
	push	OFFSET ??_C@_02MNOEILMP@bk?$AA@
	mov	eax, DWORD PTR _pRakClient$[ebp]
	mov	edx, DWORD PTR [eax]
	mov	ecx, DWORD PTR _pRakClient$[ebp]
	mov	eax, DWORD PTR [edx+96]
	call	eax
	cmp	esi, esp
	call	__RTC_CheckEsp

; 1689 : 	UNREGISTER_STATIC_RPC(pRakClient, ScrSetPlayerPosFindZ);

	mov	esi, esp
	push	OFFSET ??_C@_02ICKFBNAI@bl?$AA@
	mov	eax, DWORD PTR _pRakClient$[ebp]
	mov	edx, DWORD PTR [eax]
	mov	ecx, DWORD PTR _pRakClient$[ebp]
	mov	eax, DWORD PTR [edx+96]
	call	eax
	cmp	esi, esp
	call	__RTC_CheckEsp

; 1690 : 	UNREGISTER_STATIC_RPC(pRakClient, ScrSetPlayerHealth);

	mov	esi, esp
	push	OFFSET ??_C@_02JLLOCMEJ@bm?$AA@
	mov	eax, DWORD PTR _pRakClient$[ebp]
	mov	edx, DWORD PTR [eax]
	mov	ecx, DWORD PTR _pRakClient$[ebp]
	mov	eax, DWORD PTR [edx+96]
	call	eax
	cmp	esi, esp
	call	__RTC_CheckEsp

; 1691 : 	UNREGISTER_STATIC_RPC(pRakClient, ScrPutPlayerInVehicle);

	mov	esi, esp
	push	OFFSET ??_C@_02LAJDHPIK@bn?$AA@
	mov	eax, DWORD PTR _pRakClient$[ebp]
	mov	edx, DWORD PTR [eax]
	mov	ecx, DWORD PTR _pRakClient$[ebp]
	mov	eax, DWORD PTR [edx+96]
	call	eax
	cmp	esi, esp
	call	__RTC_CheckEsp

; 1692 : 	UNREGISTER_STATIC_RPC(pRakClient, ScrRemovePlayerFromVehicle);

	mov	esi, esp
	push	OFFSET ??_C@_02KJIIEOML@bo?$AA@
	mov	eax, DWORD PTR _pRakClient$[ebp]
	mov	edx, DWORD PTR [eax]
	mov	ecx, DWORD PTR _pRakClient$[ebp]
	mov	eax, DWORD PTR [edx+96]
	call	eax
	cmp	esi, esp
	call	__RTC_CheckEsp

; 1693 : 	UNREGISTER_STATIC_RPC(pRakClient, ScrSetPlayerColor);

	mov	esi, esp
	push	OFFSET ??_C@_02GENCEAFF@bp?$AA@
	mov	eax, DWORD PTR _pRakClient$[ebp]
	mov	edx, DWORD PTR [eax]
	mov	ecx, DWORD PTR _pRakClient$[ebp]
	mov	eax, DWORD PTR [edx+96]
	call	eax
	cmp	esi, esp
	call	__RTC_CheckEsp

; 1694 : 	UNREGISTER_STATIC_RPC(pRakClient, ScrDisplayGameText);

	mov	esi, esp
	push	OFFSET ??_C@_02HNMJHBBE@bq?$AA@
	mov	eax, DWORD PTR _pRakClient$[ebp]
	mov	edx, DWORD PTR [eax]
	mov	ecx, DWORD PTR _pRakClient$[ebp]
	mov	eax, DWORD PTR [edx+96]
	call	eax
	cmp	esi, esp
	call	__RTC_CheckEsp

; 1695 : 	UNREGISTER_STATIC_RPC(pRakClient, ScrSetInterior);

	mov	esi, esp
	push	OFFSET ??_C@_02FGOECCNH@br?$AA@
	mov	eax, DWORD PTR _pRakClient$[ebp]
	mov	edx, DWORD PTR [eax]
	mov	ecx, DWORD PTR _pRakClient$[ebp]
	mov	eax, DWORD PTR [edx+96]
	call	eax
	cmp	esi, esp
	call	__RTC_CheckEsp

; 1696 : 	UNREGISTER_STATIC_RPC(pRakClient, ScrSetCameraPos);

	mov	esi, esp
	push	OFFSET ??_C@_02EPPPBDJG@bs?$AA@
	mov	eax, DWORD PTR _pRakClient$[ebp]
	mov	edx, DWORD PTR [eax]
	mov	ecx, DWORD PTR _pRakClient$[ebp]
	mov	eax, DWORD PTR [edx+96]
	call	eax
	cmp	esi, esp
	call	__RTC_CheckEsp

; 1697 : 	UNREGISTER_STATIC_RPC(pRakClient, ScrSetCameraLookAt);

	mov	esi, esp
	push	OFFSET ??_C@_02LOIFFB@bt?$AA@
	mov	eax, DWORD PTR _pRakClient$[ebp]
	mov	edx, DWORD PTR [eax]
	mov	ecx, DWORD PTR _pRakClient$[ebp]
	mov	eax, DWORD PTR [edx+96]
	call	eax
	cmp	esi, esp
	call	__RTC_CheckEsp

; 1698 : 	UNREGISTER_STATIC_RPC(pRakClient, ScrSetVehiclePos);

	mov	esi, esp
	push	OFFSET ??_C@_02BJKFLEBA@bu?$AA@
	mov	eax, DWORD PTR _pRakClient$[ebp]
	mov	edx, DWORD PTR [eax]
	mov	ecx, DWORD PTR _pRakClient$[ebp]
	mov	eax, DWORD PTR [edx+96]
	call	eax
	cmp	esi, esp
	call	__RTC_CheckEsp

; 1699 : 	UNREGISTER_STATIC_RPC(pRakClient, ScrSetVehicleZAngle);

	mov	esi, esp
	push	OFFSET ??_C@_02DCIIOHND@bv?$AA@
	mov	eax, DWORD PTR _pRakClient$[ebp]
	mov	edx, DWORD PTR [eax]
	mov	ecx, DWORD PTR _pRakClient$[ebp]
	mov	eax, DWORD PTR [edx+96]
	call	eax
	cmp	esi, esp
	call	__RTC_CheckEsp

; 1700 : 	UNREGISTER_STATIC_RPC(pRakClient, ScrVehicleParams);

	mov	esi, esp
	push	OFFSET ??_C@_02CLJDNGJC@bw?$AA@
	mov	eax, DWORD PTR _pRakClient$[ebp]
	mov	edx, DWORD PTR [eax]
	mov	ecx, DWORD PTR _pRakClient$[ebp]
	mov	eax, DWORD PTR [edx+96]
	call	eax
	cmp	esi, esp
	call	__RTC_CheckEsp

; 1701 : 	UNREGISTER_STATIC_RPC(pRakClient, ScrSetCameraBehindPlayer);

	mov	esi, esp
	push	OFFSET ??_C@_02KMALMKFN@bx?$AA@
	mov	eax, DWORD PTR _pRakClient$[ebp]
	mov	edx, DWORD PTR [eax]
	mov	ecx, DWORD PTR _pRakClient$[ebp]
	mov	eax, DWORD PTR [edx+96]
	call	eax
	cmp	esi, esp
	call	__RTC_CheckEsp

; 1702 : 	UNREGISTER_STATIC_RPC(pRakClient, ScrTogglePlayerControllable); // 50

	mov	esi, esp
	push	OFFSET ??_C@_02LFBAPLBM@by?$AA@
	mov	eax, DWORD PTR _pRakClient$[ebp]
	mov	edx, DWORD PTR [eax]
	mov	ecx, DWORD PTR _pRakClient$[ebp]
	mov	eax, DWORD PTR [edx+96]
	call	eax
	cmp	esi, esp
	call	__RTC_CheckEsp

; 1703 : 	UNREGISTER_STATIC_RPC(pRakClient, ScrPlaySound);

	mov	esi, esp
	push	OFFSET ??_C@_02JODNKINP@bz?$AA@
	mov	eax, DWORD PTR _pRakClient$[ebp]
	mov	edx, DWORD PTR [eax]
	mov	ecx, DWORD PTR _pRakClient$[ebp]
	mov	eax, DWORD PTR [edx+96]
	call	eax
	cmp	esi, esp
	call	__RTC_CheckEsp

; 1704 : 	UNREGISTER_STATIC_RPC(pRakClient, ScrSetWorldBounds);

	mov	esi, esp
	push	OFFSET ??_C@_02DGMJAJHC@ca?$AA@
	mov	eax, DWORD PTR _pRakClient$[ebp]
	mov	edx, DWORD PTR [eax]
	mov	ecx, DWORD PTR _pRakClient$[ebp]
	mov	eax, DWORD PTR [edx+96]
	call	eax
	cmp	esi, esp
	call	__RTC_CheckEsp

; 1705 : 	UNREGISTER_STATIC_RPC(pRakClient, ScrHaveSomeMoney);

	mov	esi, esp
	push	OFFSET ??_C@_02BNOEFKLB@cb?$AA@
	mov	eax, DWORD PTR _pRakClient$[ebp]
	mov	edx, DWORD PTR [eax]
	mov	ecx, DWORD PTR _pRakClient$[ebp]
	mov	eax, DWORD PTR [edx+96]
	call	eax
	cmp	esi, esp
	call	__RTC_CheckEsp

; 1706 : 	UNREGISTER_STATIC_RPC(pRakClient, ScrSetPlayerFacingAngle);

	mov	esi, esp
	push	OFFSET ??_C@_02EPPGLPA@cc?$AA@
	mov	eax, DWORD PTR _pRakClient$[ebp]
	mov	edx, DWORD PTR [eax]
	mov	ecx, DWORD PTR _pRakClient$[ebp]
	mov	eax, DWORD PTR [edx+96]
	call	eax
	cmp	esi, esp
	call	__RTC_CheckEsp

; 1707 : 	UNREGISTER_STATIC_RPC(pRakClient, ScrResetMoney);

	mov	esi, esp
	push	OFFSET ??_C@_02ELLOPNDH@cd?$AA@
	mov	eax, DWORD PTR _pRakClient$[ebp]
	mov	edx, DWORD PTR [eax]
	mov	ecx, DWORD PTR _pRakClient$[ebp]
	mov	eax, DWORD PTR [edx+96]
	call	eax
	cmp	esi, esp
	call	__RTC_CheckEsp

; 1708 : 	UNREGISTER_STATIC_RPC(pRakClient, ScrResetPlayerWeapons);

	mov	esi, esp
	push	OFFSET ??_C@_02FCKFMMHG@ce?$AA@
	mov	eax, DWORD PTR _pRakClient$[ebp]
	mov	edx, DWORD PTR [eax]
	mov	ecx, DWORD PTR _pRakClient$[ebp]
	mov	eax, DWORD PTR [edx+96]
	call	eax
	cmp	esi, esp
	call	__RTC_CheckEsp

; 1709 : 	UNREGISTER_STATIC_RPC(pRakClient, ScrGivePlayerWeapon);

	mov	esi, esp
	push	OFFSET ??_C@_02HJIIJPLF@cf?$AA@
	mov	eax, DWORD PTR _pRakClient$[ebp]
	mov	edx, DWORD PTR [eax]
	mov	ecx, DWORD PTR _pRakClient$[ebp]
	mov	eax, DWORD PTR [edx+96]
	call	eax
	cmp	esi, esp
	call	__RTC_CheckEsp

; 1710 : 	UNREGISTER_STATIC_RPC(pRakClient, ScrRespawnVehicle); // 58

	mov	esi, esp
	push	OFFSET ??_C@_02GAJDKOPE@cg?$AA@
	mov	eax, DWORD PTR _pRakClient$[ebp]
	mov	edx, DWORD PTR [eax]
	mov	ecx, DWORD PTR _pRakClient$[ebp]
	mov	eax, DWORD PTR [edx+96]
	call	eax
	cmp	esi, esp
	call	__RTC_CheckEsp

; 1711 : 	UNREGISTER_STATIC_RPC(pRakClient, ScrLinkVehicle);

	mov	esi, esp
	push	OFFSET ??_C@_02OHALLCDL@ch?$AA@
	mov	eax, DWORD PTR _pRakClient$[ebp]
	mov	edx, DWORD PTR [eax]
	mov	ecx, DWORD PTR _pRakClient$[ebp]
	mov	eax, DWORD PTR [edx+96]
	call	eax
	cmp	esi, esp
	call	__RTC_CheckEsp

; 1712 : 	UNREGISTER_STATIC_RPC(pRakClient, ScrDeathMessage);

	mov	esi, esp
	push	OFFSET ??_C@_02NFDNNALJ@cj?$AA@
	mov	eax, DWORD PTR _pRakClient$[ebp]
	mov	edx, DWORD PTR [eax]
	mov	ecx, DWORD PTR _pRakClient$[ebp]
	mov	eax, DWORD PTR [edx+96]
	call	eax
	cmp	esi, esp
	call	__RTC_CheckEsp

; 1713 : 	//UNREGISTER_STATIC_RPC(pRakClient, ScrSetPlayerMarker);
; 1714 : 	UNREGISTER_STATIC_RPC(pRakClient, ScrSetMapIcon);

	mov	esi, esp
	push	OFFSET ??_C@_02MMCGOBPI@ck?$AA@
	mov	eax, DWORD PTR _pRakClient$[ebp]
	mov	edx, DWORD PTR [eax]
	mov	ecx, DWORD PTR _pRakClient$[ebp]
	mov	eax, DWORD PTR [edx+96]
	call	eax
	cmp	esi, esp
	call	__RTC_CheckEsp

; 1715 : 	UNREGISTER_STATIC_RPC(pRakClient, ScrDisableMapIcon);

	mov	esi, esp
	push	OFFSET ??_C@_02IDGHHHDP@cl?$AA@
	mov	eax, DWORD PTR _pRakClient$[ebp]
	mov	edx, DWORD PTR [eax]
	mov	ecx, DWORD PTR _pRakClient$[ebp]
	mov	eax, DWORD PTR [edx+96]
	call	eax
	cmp	esi, esp
	call	__RTC_CheckEsp

; 1716 : 	UNREGISTER_STATIC_RPC(pRakClient, ScrSetWeaponAmmo);

	mov	esi, esp
	push	OFFSET ??_C@_02JKHMEGHO@cm?$AA@
	mov	eax, DWORD PTR _pRakClient$[ebp]
	mov	edx, DWORD PTR [eax]
	mov	ecx, DWORD PTR _pRakClient$[ebp]
	mov	eax, DWORD PTR [edx+96]
	call	eax
	cmp	esi, esp
	call	__RTC_CheckEsp

; 1717 : 	UNREGISTER_STATIC_RPC(pRakClient, ScrSetGravity);

	mov	esi, esp
	push	OFFSET ??_C@_02LBFBBFLN@cn?$AA@
	mov	eax, DWORD PTR _pRakClient$[ebp]
	mov	edx, DWORD PTR [eax]
	mov	ecx, DWORD PTR _pRakClient$[ebp]
	mov	eax, DWORD PTR [edx+96]
	call	eax
	cmp	esi, esp
	call	__RTC_CheckEsp

; 1718 : 	UNREGISTER_STATIC_RPC(pRakClient, ScrSetVehicleHealth);

	mov	esi, esp
	push	OFFSET ??_C@_02KIEKCEPM@co?$AA@
	mov	eax, DWORD PTR _pRakClient$[ebp]
	mov	edx, DWORD PTR [eax]
	mov	ecx, DWORD PTR _pRakClient$[ebp]
	mov	eax, DWORD PTR [edx+96]
	call	eax
	cmp	esi, esp
	call	__RTC_CheckEsp

; 1719 : 	UNREGISTER_STATIC_RPC(pRakClient, ScrAttachTrailerToVehicle);

	mov	esi, esp
	push	OFFSET ??_C@_02GFBACKGC@cp?$AA@
	mov	eax, DWORD PTR _pRakClient$[ebp]
	mov	edx, DWORD PTR [eax]
	mov	ecx, DWORD PTR _pRakClient$[ebp]
	mov	eax, DWORD PTR [edx+96]
	call	eax
	cmp	esi, esp
	call	__RTC_CheckEsp

; 1720 : 	UNREGISTER_STATIC_RPC(pRakClient, ScrDetachTrailerFromVehicle);

	mov	esi, esp
	push	OFFSET ??_C@_02HMALBLCD@cq?$AA@
	mov	eax, DWORD PTR _pRakClient$[ebp]
	mov	edx, DWORD PTR [eax]
	mov	ecx, DWORD PTR _pRakClient$[ebp]
	mov	eax, DWORD PTR [edx+96]
	call	eax
	cmp	esi, esp
	call	__RTC_CheckEsp

; 1721 : 	UNREGISTER_STATIC_RPC(pRakClient, ScrCreateObject);

	mov	esi, esp
	push	OFFSET ??_C@_02FHCGEIOA@cr?$AA@
	mov	eax, DWORD PTR _pRakClient$[ebp]
	mov	edx, DWORD PTR [eax]
	mov	ecx, DWORD PTR _pRakClient$[ebp]
	mov	eax, DWORD PTR [edx+96]
	call	eax
	cmp	esi, esp
	call	__RTC_CheckEsp

; 1722 : 	UNREGISTER_STATIC_RPC(pRakClient, ScrSetObjectPos);

	mov	esi, esp
	push	OFFSET ??_C@_02EODNHJKB@cs?$AA@
	mov	eax, DWORD PTR _pRakClient$[ebp]
	mov	edx, DWORD PTR [eax]
	mov	ecx, DWORD PTR _pRakClient$[ebp]
	mov	eax, DWORD PTR [edx+96]
	call	eax
	cmp	esi, esp
	call	__RTC_CheckEsp

; 1723 : 	UNREGISTER_STATIC_RPC(pRakClient, ScrSetObjectRotation);

	mov	esi, esp
	push	OFFSET ??_C@_02BHMOPGG@ct?$AA@
	mov	eax, DWORD PTR _pRakClient$[ebp]
	mov	edx, DWORD PTR [eax]
	mov	ecx, DWORD PTR _pRakClient$[ebp]
	mov	eax, DWORD PTR [edx+96]
	call	eax
	cmp	esi, esp
	call	__RTC_CheckEsp

; 1724 : 	UNREGISTER_STATIC_RPC(pRakClient, ScrDestroyObject); // Possible problem source

	mov	esi, esp
	push	OFFSET ??_C@_02BIGHNOCH@cu?$AA@
	mov	eax, DWORD PTR _pRakClient$[ebp]
	mov	edx, DWORD PTR [eax]
	mov	ecx, DWORD PTR _pRakClient$[ebp]
	mov	eax, DWORD PTR [edx+96]
	call	eax
	cmp	esi, esp
	call	__RTC_CheckEsp

; 1725 : 	UNREGISTER_STATIC_RPC(pRakClient, ScrSetPlayerVirtualWorld);

	mov	esi, esp
	push	OFFSET ??_C@_02DDEKINOE@cv?$AA@
	mov	eax, DWORD PTR _pRakClient$[ebp]
	mov	edx, DWORD PTR [eax]
	mov	ecx, DWORD PTR _pRakClient$[ebp]
	mov	eax, DWORD PTR [edx+96]
	call	eax
	cmp	esi, esp
	call	__RTC_CheckEsp

; 1726 : 	UNREGISTER_STATIC_RPC(pRakClient, ScrSetVehicleVirtualWorld);

	mov	esi, esp
	push	OFFSET ??_C@_02CKFBLMKF@cw?$AA@
	mov	eax, DWORD PTR _pRakClient$[ebp]
	mov	edx, DWORD PTR [eax]
	mov	ecx, DWORD PTR _pRakClient$[ebp]
	mov	eax, DWORD PTR [edx+96]
	call	eax
	cmp	esi, esp
	call	__RTC_CheckEsp

; 1727 : 	UNREGISTER_STATIC_RPC(pRakClient, ScrCreateExplosion);

	mov	esi, esp
	push	OFFSET ??_C@_02KNMJKAGK@cx?$AA@
	mov	eax, DWORD PTR _pRakClient$[ebp]
	mov	edx, DWORD PTR [eax]
	mov	ecx, DWORD PTR _pRakClient$[ebp]
	mov	eax, DWORD PTR [edx+96]
	call	eax
	cmp	esi, esp
	call	__RTC_CheckEsp

; 1728 : 	UNREGISTER_STATIC_RPC(pRakClient, ScrShowNameTag);

	mov	esi, esp
	push	OFFSET ??_C@_02LENCJBCL@cy?$AA@
	mov	eax, DWORD PTR _pRakClient$[ebp]
	mov	edx, DWORD PTR [eax]
	mov	ecx, DWORD PTR _pRakClient$[ebp]
	mov	eax, DWORD PTR [edx+96]
	call	eax
	cmp	esi, esp
	call	__RTC_CheckEsp

; 1729 : 	UNREGISTER_STATIC_RPC(pRakClient, ScrMoveObject);

	mov	esi, esp
	push	OFFSET ??_C@_02JPPPMCOI@cz?$AA@
	mov	eax, DWORD PTR _pRakClient$[ebp]
	mov	edx, DWORD PTR [eax]
	mov	ecx, DWORD PTR _pRakClient$[ebp]
	mov	eax, DWORD PTR [edx+96]
	call	eax
	cmp	esi, esp
	call	__RTC_CheckEsp

; 1730 : 	UNREGISTER_STATIC_RPC(pRakClient, ScrStopObject);

	mov	esi, esp
	push	OFFSET ??_C@_02DDIGBPPH@da?$AA@
	mov	eax, DWORD PTR _pRakClient$[ebp]
	mov	edx, DWORD PTR [eax]
	mov	ecx, DWORD PTR _pRakClient$[ebp]
	mov	eax, DWORD PTR [edx+96]
	call	eax
	cmp	esi, esp
	call	__RTC_CheckEsp

; 1731 : 	UNREGISTER_STATIC_RPC(pRakClient, ScrNumberPlate);

	mov	esi, esp
	push	OFFSET ??_C@_02BIKLEMDE@db?$AA@
	mov	eax, DWORD PTR _pRakClient$[ebp]
	mov	edx, DWORD PTR [eax]
	mov	ecx, DWORD PTR _pRakClient$[ebp]
	mov	eax, DWORD PTR [edx+96]
	call	eax
	cmp	esi, esp
	call	__RTC_CheckEsp

; 1732 : 	UNREGISTER_STATIC_RPC(pRakClient, ScrTogglePlayerSpectating);

	mov	esi, esp
	push	OFFSET ??_C@_02BLAHNHF@dc?$AA@
	mov	eax, DWORD PTR _pRakClient$[ebp]
	mov	edx, DWORD PTR [eax]
	mov	ecx, DWORD PTR _pRakClient$[ebp]
	mov	eax, DWORD PTR [edx+96]
	call	eax
	cmp	esi, esp
	call	__RTC_CheckEsp

; 1733 : 	UNREGISTER_STATIC_RPC(pRakClient, ScrSetPlayerSpectating);

	mov	esi, esp
	push	OFFSET ??_C@_02EOPBOLLC@dd?$AA@
	mov	eax, DWORD PTR _pRakClient$[ebp]
	mov	edx, DWORD PTR [eax]
	mov	ecx, DWORD PTR _pRakClient$[ebp]
	mov	eax, DWORD PTR [edx+96]
	call	eax
	cmp	esi, esp
	call	__RTC_CheckEsp

; 1734 : 	UNREGISTER_STATIC_RPC(pRakClient, ScrPlayerSpectatePlayer);

	mov	esi, esp
	push	OFFSET ??_C@_02FHOKNKPD@de?$AA@
	mov	eax, DWORD PTR _pRakClient$[ebp]
	mov	edx, DWORD PTR [eax]
	mov	ecx, DWORD PTR _pRakClient$[ebp]
	mov	eax, DWORD PTR [edx+96]
	call	eax
	cmp	esi, esp
	call	__RTC_CheckEsp

; 1735 : 	UNREGISTER_STATIC_RPC(pRakClient, ScrPlayerSpectateVehicle);

	mov	esi, esp
	push	OFFSET ??_C@_02HMMHIJDA@df?$AA@
	mov	eax, DWORD PTR _pRakClient$[ebp]
	mov	edx, DWORD PTR [eax]
	mov	ecx, DWORD PTR _pRakClient$[ebp]
	mov	eax, DWORD PTR [edx+96]
	call	eax
	cmp	esi, esp
	call	__RTC_CheckEsp

; 1736 : 	UNREGISTER_STATIC_RPC(pRakClient, ScrRemoveComponent);

	mov	esi, esp
	push	OFFSET ??_C@_02GFNMLIHB@dg?$AA@
	mov	eax, DWORD PTR _pRakClient$[ebp]
	mov	edx, DWORD PTR [eax]
	mov	ecx, DWORD PTR _pRakClient$[ebp]
	mov	eax, DWORD PTR [edx+96]
	call	eax
	cmp	esi, esp
	call	__RTC_CheckEsp

; 1737 : 	UNREGISTER_STATIC_RPC(pRakClient, ScrForceSpawnSelection);

	mov	esi, esp
	push	OFFSET ??_C@_02OCEEKELO@dh?$AA@
	mov	eax, DWORD PTR _pRakClient$[ebp]
	mov	edx, DWORD PTR [eax]
	mov	ecx, DWORD PTR _pRakClient$[ebp]
	mov	eax, DWORD PTR [edx+96]
	call	eax
	cmp	esi, esp
	call	__RTC_CheckEsp

; 1738 : 	UNREGISTER_STATIC_RPC(pRakClient, ScrAttachObjectToPlayer);

	mov	esi, esp
	push	OFFSET ??_C@_02EDDPJOD@dt?$AA@
	mov	eax, DWORD PTR _pRakClient$[ebp]
	mov	edx, DWORD PTR [eax]
	mov	ecx, DWORD PTR _pRakClient$[ebp]
	mov	eax, DWORD PTR [edx+96]
	call	eax
	cmp	esi, esp
	call	__RTC_CheckEsp

; 1739 : 	UNREGISTER_STATIC_RPC(pRakClient, ScrInitMenu);

	mov	esi, esp
	push	OFFSET ??_C@_02BNCIMIKC@du?$AA@
	mov	eax, DWORD PTR _pRakClient$[ebp]
	mov	edx, DWORD PTR [eax]
	mov	ecx, DWORD PTR _pRakClient$[ebp]
	mov	eax, DWORD PTR [edx+96]
	call	eax
	cmp	esi, esp
	call	__RTC_CheckEsp

; 1740 : 	UNREGISTER_STATIC_RPC(pRakClient, ScrShowMenu);

	mov	esi, esp
	push	OFFSET ??_C@_02DGAFJLGB@dv?$AA@
	mov	eax, DWORD PTR _pRakClient$[ebp]
	mov	edx, DWORD PTR [eax]
	mov	ecx, DWORD PTR _pRakClient$[ebp]
	mov	eax, DWORD PTR [edx+96]
	call	eax
	cmp	esi, esp
	call	__RTC_CheckEsp

; 1741 : 	UNREGISTER_STATIC_RPC(pRakClient, ScrHideMenu);

	mov	esi, esp
	push	OFFSET ??_C@_02CPBOKKCA@dw?$AA@
	mov	eax, DWORD PTR _pRakClient$[ebp]
	mov	edx, DWORD PTR [eax]
	mov	ecx, DWORD PTR _pRakClient$[ebp]
	mov	eax, DWORD PTR [edx+96]
	call	eax
	cmp	esi, esp
	call	__RTC_CheckEsp

; 1742 : 	UNREGISTER_STATIC_RPC(pRakClient, ScrSetPlayerWantedLevel);

	mov	esi, esp
	push	OFFSET ??_C@_02JKLANEGN@dz?$AA@
	mov	eax, DWORD PTR _pRakClient$[ebp]
	mov	edx, DWORD PTR [eax]
	mov	ecx, DWORD PTR _pRakClient$[ebp]
	mov	eax, DWORD PTR [edx+96]
	call	eax
	cmp	esi, esp
	call	__RTC_CheckEsp

; 1743 : 	UNREGISTER_STATIC_RPC(pRakClient, ScrShowTextDraw);

	mov	esi, esp
	push	OFFSET ??_C@_02DCEEHFMA@ea?$AA@
	mov	eax, DWORD PTR _pRakClient$[ebp]
	mov	edx, DWORD PTR [eax]
	mov	ecx, DWORD PTR _pRakClient$[ebp]
	mov	eax, DWORD PTR [edx+96]
	call	eax
	cmp	esi, esp
	call	__RTC_CheckEsp

; 1744 : 	UNREGISTER_STATIC_RPC(pRakClient, ScrHideTextDraw);

	mov	esi, esp
	push	OFFSET ??_C@_02BJGJCGAD@eb?$AA@
	mov	eax, DWORD PTR _pRakClient$[ebp]
	mov	edx, DWORD PTR [eax]
	mov	ecx, DWORD PTR _pRakClient$[ebp]
	mov	eax, DWORD PTR [edx+96]
	call	eax
	cmp	esi, esp
	call	__RTC_CheckEsp

; 1745 : 	UNREGISTER_STATIC_RPC(pRakClient, ScrEditTextDraw);

	mov	esi, esp
	push	OFFSET ??_C@_02FGCILAME@ee?$AA@
	mov	eax, DWORD PTR _pRakClient$[ebp]
	mov	edx, DWORD PTR [eax]
	mov	ecx, DWORD PTR _pRakClient$[ebp]
	mov	eax, DWORD PTR [edx+96]
	call	eax
	cmp	esi, esp
	call	__RTC_CheckEsp

; 1746 : 	UNREGISTER_STATIC_RPC(pRakClient, ScrAddGangZone);

	mov	esi, esp
	push	OFFSET ??_C@_02HNAFODAH@ef?$AA@
	mov	eax, DWORD PTR _pRakClient$[ebp]
	mov	edx, DWORD PTR [eax]
	mov	ecx, DWORD PTR _pRakClient$[ebp]
	mov	eax, DWORD PTR [edx+96]
	call	eax
	cmp	esi, esp
	call	__RTC_CheckEsp

; 1747 : 	UNREGISTER_STATIC_RPC(pRakClient, ScrRemoveGangZone);

	mov	esi, esp
	push	OFFSET ??_C@_02GEBONCEG@eg?$AA@
	mov	eax, DWORD PTR _pRakClient$[ebp]
	mov	edx, DWORD PTR [eax]
	mov	ecx, DWORD PTR _pRakClient$[ebp]
	mov	eax, DWORD PTR [edx+96]
	call	eax
	cmp	esi, esp
	call	__RTC_CheckEsp

; 1748 : 	UNREGISTER_STATIC_RPC(pRakClient, ScrFlashGangZone);

	mov	esi, esp
	push	OFFSET ??_C@_02ODIGMOIJ@eh?$AA@
	mov	eax, DWORD PTR _pRakClient$[ebp]
	mov	edx, DWORD PTR [eax]
	mov	ecx, DWORD PTR _pRakClient$[ebp]
	mov	eax, DWORD PTR [edx+96]
	call	eax
	cmp	esi, esp
	call	__RTC_CheckEsp

; 1749 : 	UNREGISTER_STATIC_RPC(pRakClient, ScrStopFlashGangZone);

	mov	esi, esp
	push	OFFSET ??_C@_02PKJNPPMI@ei?$AA@
	mov	eax, DWORD PTR _pRakClient$[ebp]
	mov	edx, DWORD PTR [eax]
	mov	ecx, DWORD PTR _pRakClient$[ebp]
	mov	eax, DWORD PTR [edx+96]
	call	eax
	cmp	esi, esp
	call	__RTC_CheckEsp

; 1750 : 	UNREGISTER_STATIC_RPC(pRakClient, ScrApplyAnimation);

	mov	esi, esp
	push	OFFSET ??_C@_02KMMHFIEO@eo?$AA@
	mov	eax, DWORD PTR _pRakClient$[ebp]
	mov	edx, DWORD PTR [eax]
	mov	ecx, DWORD PTR _pRakClient$[ebp]
	mov	eax, DWORD PTR [edx+96]
	call	eax
	cmp	esi, esp
	call	__RTC_CheckEsp

; 1751 : 	UNREGISTER_STATIC_RPC(pRakClient, ScrClearAnimations);

	mov	esi, esp
	push	OFFSET ??_C@_02HIIGGHJB@eq?$AA@
	mov	eax, DWORD PTR _pRakClient$[ebp]
	mov	edx, DWORD PTR [eax]
	mov	ecx, DWORD PTR _pRakClient$[ebp]
	mov	eax, DWORD PTR [edx+96]
	call	eax
	cmp	esi, esp
	call	__RTC_CheckEsp

; 1752 : 	UNREGISTER_STATIC_RPC(pRakClient, ScrSetSpecialAction);

	mov	esi, esp
	push	OFFSET ??_C@_02GBJNFGNA@ep?$AA@
	mov	eax, DWORD PTR _pRakClient$[ebp]
	mov	edx, DWORD PTR [eax]
	mov	ecx, DWORD PTR _pRakClient$[ebp]
	mov	eax, DWORD PTR [edx+96]
	call	eax
	cmp	esi, esp
	call	__RTC_CheckEsp

; 1753 : 	UNREGISTER_STATIC_RPC(pRakClient, ScrEnableStuntBonus);

	mov	esi, esp
	push	OFFSET ??_C@_02HCBHEC@ec?$AA@
	mov	eax, DWORD PTR _pRakClient$[ebp]
	mov	edx, DWORD PTR [eax]
	mov	ecx, DWORD PTR _pRakClient$[ebp]
	mov	eax, DWORD PTR [edx+96]
	call	eax
	cmp	esi, esp
	call	__RTC_CheckEsp

; 1754 : }

	pop	edi
	pop	esi
	pop	ebx
	add	esp, 192				; 000000c0H
	cmp	ebp, esp
	call	__RTC_CheckEsp
	mov	esp, ebp
	pop	ebp
	ret	0
?UnRegisterScriptRPCs@@YAXPAVRakClientInterface@@@Z ENDP ; UnRegisterScriptRPCs
_TEXT	ENDS
; Function compile flags: /Odtp /RTCsu /ZI
; File z:\sampsrc\02xu1\saco\net\scriptrpc.cpp
;	COMDAT ?RegisterScriptRPCs@@YAXPAVRakClientInterface@@@Z
_TEXT	SEGMENT
_pRakClient$ = 8					; size = 4
?RegisterScriptRPCs@@YAXPAVRakClientInterface@@@Z PROC	; RegisterScriptRPCs, COMDAT

; 1606 : {

	push	ebp
	mov	ebp, esp
	sub	esp, 192				; 000000c0H
	push	ebx
	push	esi
	push	edi
	lea	edi, DWORD PTR [ebp-192]
	mov	ecx, 48					; 00000030H
	mov	eax, -858993460				; ccccccccH
	rep stosd

; 1607 : 	REGISTER_STATIC_RPC(pRakClient, ScrSetSpawnInfo);

	mov	esi, esp
	push	OFFSET ?ScrSetSpawnInfo@@YAXPAURPCParameters@@@Z ; ScrSetSpawnInfo
	push	OFFSET ??_C@_02GBFBMEMD@bg?$AA@
	mov	eax, DWORD PTR _pRakClient$[ebp]
	mov	edx, DWORD PTR [eax]
	mov	ecx, DWORD PTR _pRakClient$[ebp]
	mov	eax, DWORD PTR [edx+88]
	call	eax
	cmp	esi, esp
	call	__RTC_CheckEsp

; 1608 : 	REGISTER_STATIC_RPC(pRakClient, ScrSetPlayerTeam);

	mov	esi, esp
	push	OFFSET ?ScrSetPlayerTeam@@YAXPAURPCParameters@@@Z ; ScrSetPlayerTeam
	push	OFFSET ??_C@_02OGMJNIAM@bh?$AA@
	mov	eax, DWORD PTR _pRakClient$[ebp]
	mov	edx, DWORD PTR [eax]
	mov	ecx, DWORD PTR _pRakClient$[ebp]
	mov	eax, DWORD PTR [edx+88]
	call	eax
	cmp	esi, esp
	call	__RTC_CheckEsp

; 1609 : 	REGISTER_STATIC_RPC(pRakClient, ScrSetPlayerSkin);

	mov	esi, esp
	push	OFFSET ?ScrSetPlayerSkin@@YAXPAURPCParameters@@@Z ; ScrSetPlayerSkin
	push	OFFSET ??_C@_02PPNCOJEN@bi?$AA@
	mov	eax, DWORD PTR _pRakClient$[ebp]
	mov	edx, DWORD PTR [eax]
	mov	ecx, DWORD PTR _pRakClient$[ebp]
	mov	eax, DWORD PTR [edx+88]
	call	eax
	cmp	esi, esp
	call	__RTC_CheckEsp

; 1610 : 	REGISTER_STATIC_RPC(pRakClient, ScrSetPlayerName);

	mov	esi, esp
	push	OFFSET ?ScrSetPlayerName@@YAXPAURPCParameters@@@Z ; ScrSetPlayerName
	push	OFFSET ??_C@_02NEPPLKIO@bj?$AA@
	mov	eax, DWORD PTR _pRakClient$[ebp]
	mov	edx, DWORD PTR [eax]
	mov	ecx, DWORD PTR _pRakClient$[ebp]
	mov	eax, DWORD PTR [edx+88]
	call	eax
	cmp	esi, esp
	call	__RTC_CheckEsp

; 1611 : 	REGISTER_STATIC_RPC(pRakClient, ScrSetPlayerPos);

	mov	esi, esp
	push	OFFSET ?ScrSetPlayerPos@@YAXPAURPCParameters@@@Z ; ScrSetPlayerPos
	push	OFFSET ??_C@_02MNOEILMP@bk?$AA@
	mov	eax, DWORD PTR _pRakClient$[ebp]
	mov	edx, DWORD PTR [eax]
	mov	ecx, DWORD PTR _pRakClient$[ebp]
	mov	eax, DWORD PTR [edx+88]
	call	eax
	cmp	esi, esp
	call	__RTC_CheckEsp

; 1612 : 	REGISTER_STATIC_RPC(pRakClient, ScrSetPlayerPosFindZ);

	mov	esi, esp
	push	OFFSET ?ScrSetPlayerPosFindZ@@YAXPAURPCParameters@@@Z ; ScrSetPlayerPosFindZ
	push	OFFSET ??_C@_02ICKFBNAI@bl?$AA@
	mov	eax, DWORD PTR _pRakClient$[ebp]
	mov	edx, DWORD PTR [eax]
	mov	ecx, DWORD PTR _pRakClient$[ebp]
	mov	eax, DWORD PTR [edx+88]
	call	eax
	cmp	esi, esp
	call	__RTC_CheckEsp

; 1613 : 	REGISTER_STATIC_RPC(pRakClient, ScrSetPlayerHealth);

	mov	esi, esp
	push	OFFSET ?ScrSetPlayerHealth@@YAXPAURPCParameters@@@Z ; ScrSetPlayerHealth
	push	OFFSET ??_C@_02JLLOCMEJ@bm?$AA@
	mov	eax, DWORD PTR _pRakClient$[ebp]
	mov	edx, DWORD PTR [eax]
	mov	ecx, DWORD PTR _pRakClient$[ebp]
	mov	eax, DWORD PTR [edx+88]
	call	eax
	cmp	esi, esp
	call	__RTC_CheckEsp

; 1614 : 	REGISTER_STATIC_RPC(pRakClient, ScrPutPlayerInVehicle);

	mov	esi, esp
	push	OFFSET ?ScrPutPlayerInVehicle@@YAXPAURPCParameters@@@Z ; ScrPutPlayerInVehicle
	push	OFFSET ??_C@_02LAJDHPIK@bn?$AA@
	mov	eax, DWORD PTR _pRakClient$[ebp]
	mov	edx, DWORD PTR [eax]
	mov	ecx, DWORD PTR _pRakClient$[ebp]
	mov	eax, DWORD PTR [edx+88]
	call	eax
	cmp	esi, esp
	call	__RTC_CheckEsp

; 1615 : 	REGISTER_STATIC_RPC(pRakClient, ScrRemovePlayerFromVehicle);

	mov	esi, esp
	push	OFFSET ?ScrRemovePlayerFromVehicle@@YAXPAURPCParameters@@@Z ; ScrRemovePlayerFromVehicle
	push	OFFSET ??_C@_02KJIIEOML@bo?$AA@
	mov	eax, DWORD PTR _pRakClient$[ebp]
	mov	edx, DWORD PTR [eax]
	mov	ecx, DWORD PTR _pRakClient$[ebp]
	mov	eax, DWORD PTR [edx+88]
	call	eax
	cmp	esi, esp
	call	__RTC_CheckEsp

; 1616 : 	REGISTER_STATIC_RPC(pRakClient, ScrSetPlayerColor);

	mov	esi, esp
	push	OFFSET ?ScrSetPlayerColor@@YAXPAURPCParameters@@@Z ; ScrSetPlayerColor
	push	OFFSET ??_C@_02GENCEAFF@bp?$AA@
	mov	eax, DWORD PTR _pRakClient$[ebp]
	mov	edx, DWORD PTR [eax]
	mov	ecx, DWORD PTR _pRakClient$[ebp]
	mov	eax, DWORD PTR [edx+88]
	call	eax
	cmp	esi, esp
	call	__RTC_CheckEsp

; 1617 : 	REGISTER_STATIC_RPC(pRakClient, ScrDisplayGameText);

	mov	esi, esp
	push	OFFSET ?ScrDisplayGameText@@YAXPAURPCParameters@@@Z ; ScrDisplayGameText
	push	OFFSET ??_C@_02HNMJHBBE@bq?$AA@
	mov	eax, DWORD PTR _pRakClient$[ebp]
	mov	edx, DWORD PTR [eax]
	mov	ecx, DWORD PTR _pRakClient$[ebp]
	mov	eax, DWORD PTR [edx+88]
	call	eax
	cmp	esi, esp
	call	__RTC_CheckEsp

; 1618 : 	REGISTER_STATIC_RPC(pRakClient, ScrSetInterior);

	mov	esi, esp
	push	OFFSET ?ScrSetInterior@@YAXPAURPCParameters@@@Z ; ScrSetInterior
	push	OFFSET ??_C@_02FGOECCNH@br?$AA@
	mov	eax, DWORD PTR _pRakClient$[ebp]
	mov	edx, DWORD PTR [eax]
	mov	ecx, DWORD PTR _pRakClient$[ebp]
	mov	eax, DWORD PTR [edx+88]
	call	eax
	cmp	esi, esp
	call	__RTC_CheckEsp

; 1619 : 	REGISTER_STATIC_RPC(pRakClient, ScrSetCameraPos);

	mov	esi, esp
	push	OFFSET ?ScrSetCameraPos@@YAXPAURPCParameters@@@Z ; ScrSetCameraPos
	push	OFFSET ??_C@_02EPPPBDJG@bs?$AA@
	mov	eax, DWORD PTR _pRakClient$[ebp]
	mov	edx, DWORD PTR [eax]
	mov	ecx, DWORD PTR _pRakClient$[ebp]
	mov	eax, DWORD PTR [edx+88]
	call	eax
	cmp	esi, esp
	call	__RTC_CheckEsp

; 1620 : 	REGISTER_STATIC_RPC(pRakClient, ScrSetCameraLookAt);

	mov	esi, esp
	push	OFFSET ?ScrSetCameraLookAt@@YAXPAURPCParameters@@@Z ; ScrSetCameraLookAt
	push	OFFSET ??_C@_02LOIFFB@bt?$AA@
	mov	eax, DWORD PTR _pRakClient$[ebp]
	mov	edx, DWORD PTR [eax]
	mov	ecx, DWORD PTR _pRakClient$[ebp]
	mov	eax, DWORD PTR [edx+88]
	call	eax
	cmp	esi, esp
	call	__RTC_CheckEsp

; 1621 : 	REGISTER_STATIC_RPC(pRakClient, ScrSetVehiclePos);

	mov	esi, esp
	push	OFFSET ?ScrSetVehiclePos@@YAXPAURPCParameters@@@Z ; ScrSetVehiclePos
	push	OFFSET ??_C@_02BJKFLEBA@bu?$AA@
	mov	eax, DWORD PTR _pRakClient$[ebp]
	mov	edx, DWORD PTR [eax]
	mov	ecx, DWORD PTR _pRakClient$[ebp]
	mov	eax, DWORD PTR [edx+88]
	call	eax
	cmp	esi, esp
	call	__RTC_CheckEsp

; 1622 : 	REGISTER_STATIC_RPC(pRakClient, ScrSetVehicleZAngle);

	mov	esi, esp
	push	OFFSET ?ScrSetVehicleZAngle@@YAXPAURPCParameters@@@Z ; ScrSetVehicleZAngle
	push	OFFSET ??_C@_02DCIIOHND@bv?$AA@
	mov	eax, DWORD PTR _pRakClient$[ebp]
	mov	edx, DWORD PTR [eax]
	mov	ecx, DWORD PTR _pRakClient$[ebp]
	mov	eax, DWORD PTR [edx+88]
	call	eax
	cmp	esi, esp
	call	__RTC_CheckEsp

; 1623 : 	REGISTER_STATIC_RPC(pRakClient, ScrVehicleParams);

	mov	esi, esp
	push	OFFSET ?ScrVehicleParams@@YAXPAURPCParameters@@@Z ; ScrVehicleParams
	push	OFFSET ??_C@_02CLJDNGJC@bw?$AA@
	mov	eax, DWORD PTR _pRakClient$[ebp]
	mov	edx, DWORD PTR [eax]
	mov	ecx, DWORD PTR _pRakClient$[ebp]
	mov	eax, DWORD PTR [edx+88]
	call	eax
	cmp	esi, esp
	call	__RTC_CheckEsp

; 1624 : 	REGISTER_STATIC_RPC(pRakClient, ScrSetCameraBehindPlayer);

	mov	esi, esp
	push	OFFSET ?ScrSetCameraBehindPlayer@@YAXPAURPCParameters@@@Z ; ScrSetCameraBehindPlayer
	push	OFFSET ??_C@_02KMALMKFN@bx?$AA@
	mov	eax, DWORD PTR _pRakClient$[ebp]
	mov	edx, DWORD PTR [eax]
	mov	ecx, DWORD PTR _pRakClient$[ebp]
	mov	eax, DWORD PTR [edx+88]
	call	eax
	cmp	esi, esp
	call	__RTC_CheckEsp

; 1625 : 	REGISTER_STATIC_RPC(pRakClient, ScrTogglePlayerControllable);

	mov	esi, esp
	push	OFFSET ?ScrTogglePlayerControllable@@YAXPAURPCParameters@@@Z ; ScrTogglePlayerControllable
	push	OFFSET ??_C@_02LFBAPLBM@by?$AA@
	mov	eax, DWORD PTR _pRakClient$[ebp]
	mov	edx, DWORD PTR [eax]
	mov	ecx, DWORD PTR _pRakClient$[ebp]
	mov	eax, DWORD PTR [edx+88]
	call	eax
	cmp	esi, esp
	call	__RTC_CheckEsp

; 1626 : 	REGISTER_STATIC_RPC(pRakClient, ScrPlaySound);

	mov	esi, esp
	push	OFFSET ?ScrPlaySound@@YAXPAURPCParameters@@@Z ; ScrPlaySound
	push	OFFSET ??_C@_02JODNKINP@bz?$AA@
	mov	eax, DWORD PTR _pRakClient$[ebp]
	mov	edx, DWORD PTR [eax]
	mov	ecx, DWORD PTR _pRakClient$[ebp]
	mov	eax, DWORD PTR [edx+88]
	call	eax
	cmp	esi, esp
	call	__RTC_CheckEsp

; 1627 : 	REGISTER_STATIC_RPC(pRakClient, ScrSetWorldBounds);

	mov	esi, esp
	push	OFFSET ?ScrSetWorldBounds@@YAXPAURPCParameters@@@Z ; ScrSetWorldBounds
	push	OFFSET ??_C@_02DGMJAJHC@ca?$AA@
	mov	eax, DWORD PTR _pRakClient$[ebp]
	mov	edx, DWORD PTR [eax]
	mov	ecx, DWORD PTR _pRakClient$[ebp]
	mov	eax, DWORD PTR [edx+88]
	call	eax
	cmp	esi, esp
	call	__RTC_CheckEsp

; 1628 : 	REGISTER_STATIC_RPC(pRakClient, ScrHaveSomeMoney);

	mov	esi, esp
	push	OFFSET ?ScrHaveSomeMoney@@YAXPAURPCParameters@@@Z ; ScrHaveSomeMoney
	push	OFFSET ??_C@_02BNOEFKLB@cb?$AA@
	mov	eax, DWORD PTR _pRakClient$[ebp]
	mov	edx, DWORD PTR [eax]
	mov	ecx, DWORD PTR _pRakClient$[ebp]
	mov	eax, DWORD PTR [edx+88]
	call	eax
	cmp	esi, esp
	call	__RTC_CheckEsp

; 1629 : 	REGISTER_STATIC_RPC(pRakClient, ScrSetPlayerFacingAngle);

	mov	esi, esp
	push	OFFSET ?ScrSetPlayerFacingAngle@@YAXPAURPCParameters@@@Z ; ScrSetPlayerFacingAngle
	push	OFFSET ??_C@_02EPPGLPA@cc?$AA@
	mov	eax, DWORD PTR _pRakClient$[ebp]
	mov	edx, DWORD PTR [eax]
	mov	ecx, DWORD PTR _pRakClient$[ebp]
	mov	eax, DWORD PTR [edx+88]
	call	eax
	cmp	esi, esp
	call	__RTC_CheckEsp

; 1630 : 	REGISTER_STATIC_RPC(pRakClient, ScrResetMoney);

	mov	esi, esp
	push	OFFSET ?ScrResetMoney@@YAXPAURPCParameters@@@Z ; ScrResetMoney
	push	OFFSET ??_C@_02ELLOPNDH@cd?$AA@
	mov	eax, DWORD PTR _pRakClient$[ebp]
	mov	edx, DWORD PTR [eax]
	mov	ecx, DWORD PTR _pRakClient$[ebp]
	mov	eax, DWORD PTR [edx+88]
	call	eax
	cmp	esi, esp
	call	__RTC_CheckEsp

; 1631 : 	REGISTER_STATIC_RPC(pRakClient, ScrResetPlayerWeapons);

	mov	esi, esp
	push	OFFSET ?ScrResetPlayerWeapons@@YAXPAURPCParameters@@@Z ; ScrResetPlayerWeapons
	push	OFFSET ??_C@_02FCKFMMHG@ce?$AA@
	mov	eax, DWORD PTR _pRakClient$[ebp]
	mov	edx, DWORD PTR [eax]
	mov	ecx, DWORD PTR _pRakClient$[ebp]
	mov	eax, DWORD PTR [edx+88]
	call	eax
	cmp	esi, esp
	call	__RTC_CheckEsp

; 1632 : 	REGISTER_STATIC_RPC(pRakClient, ScrGivePlayerWeapon);

	mov	esi, esp
	push	OFFSET ?ScrGivePlayerWeapon@@YAXPAURPCParameters@@@Z ; ScrGivePlayerWeapon
	push	OFFSET ??_C@_02HJIIJPLF@cf?$AA@
	mov	eax, DWORD PTR _pRakClient$[ebp]
	mov	edx, DWORD PTR [eax]
	mov	ecx, DWORD PTR _pRakClient$[ebp]
	mov	eax, DWORD PTR [edx+88]
	call	eax
	cmp	esi, esp
	call	__RTC_CheckEsp

; 1633 : 	REGISTER_STATIC_RPC(pRakClient, ScrRespawnVehicle);

	mov	esi, esp
	push	OFFSET ?ScrRespawnVehicle@@YAXPAURPCParameters@@@Z ; ScrRespawnVehicle
	push	OFFSET ??_C@_02GAJDKOPE@cg?$AA@
	mov	eax, DWORD PTR _pRakClient$[ebp]
	mov	edx, DWORD PTR [eax]
	mov	ecx, DWORD PTR _pRakClient$[ebp]
	mov	eax, DWORD PTR [edx+88]
	call	eax
	cmp	esi, esp
	call	__RTC_CheckEsp

; 1634 : 	REGISTER_STATIC_RPC(pRakClient, ScrLinkVehicle);

	mov	esi, esp
	push	OFFSET ?ScrLinkVehicle@@YAXPAURPCParameters@@@Z ; ScrLinkVehicle
	push	OFFSET ??_C@_02OHALLCDL@ch?$AA@
	mov	eax, DWORD PTR _pRakClient$[ebp]
	mov	edx, DWORD PTR [eax]
	mov	ecx, DWORD PTR _pRakClient$[ebp]
	mov	eax, DWORD PTR [edx+88]
	call	eax
	cmp	esi, esp
	call	__RTC_CheckEsp

; 1635 : 	REGISTER_STATIC_RPC(pRakClient, ScrSetPlayerArmour);

	mov	esi, esp
	push	OFFSET ?ScrSetPlayerArmour@@YAXPAURPCParameters@@@Z ; ScrSetPlayerArmour
	push	OFFSET ??_C@_02POBAIDHK@ci?$AA@
	mov	eax, DWORD PTR _pRakClient$[ebp]
	mov	edx, DWORD PTR [eax]
	mov	ecx, DWORD PTR _pRakClient$[ebp]
	mov	eax, DWORD PTR [edx+88]
	call	eax
	cmp	esi, esp
	call	__RTC_CheckEsp

; 1636 : 	REGISTER_STATIC_RPC(pRakClient, ScrDeathMessage);

	mov	esi, esp
	push	OFFSET ?ScrDeathMessage@@YAXPAURPCParameters@@@Z ; ScrDeathMessage
	push	OFFSET ??_C@_02NFDNNALJ@cj?$AA@
	mov	eax, DWORD PTR _pRakClient$[ebp]
	mov	edx, DWORD PTR [eax]
	mov	ecx, DWORD PTR _pRakClient$[ebp]
	mov	eax, DWORD PTR [edx+88]
	call	eax
	cmp	esi, esp
	call	__RTC_CheckEsp

; 1637 : 	//REGISTER_STATIC_RPC(pRakClient, ScrSetPlayerMarker);
; 1638 : 	REGISTER_STATIC_RPC(pRakClient, ScrSetMapIcon);

	mov	esi, esp
	push	OFFSET ?ScrSetMapIcon@@YAXPAURPCParameters@@@Z ; ScrSetMapIcon
	push	OFFSET ??_C@_02MMCGOBPI@ck?$AA@
	mov	eax, DWORD PTR _pRakClient$[ebp]
	mov	edx, DWORD PTR [eax]
	mov	ecx, DWORD PTR _pRakClient$[ebp]
	mov	eax, DWORD PTR [edx+88]
	call	eax
	cmp	esi, esp
	call	__RTC_CheckEsp

; 1639 : 	REGISTER_STATIC_RPC(pRakClient, ScrDisableMapIcon);

	mov	esi, esp
	push	OFFSET ?ScrDisableMapIcon@@YAXPAURPCParameters@@@Z ; ScrDisableMapIcon
	push	OFFSET ??_C@_02IDGHHHDP@cl?$AA@
	mov	eax, DWORD PTR _pRakClient$[ebp]
	mov	edx, DWORD PTR [eax]
	mov	ecx, DWORD PTR _pRakClient$[ebp]
	mov	eax, DWORD PTR [edx+88]
	call	eax
	cmp	esi, esp
	call	__RTC_CheckEsp

; 1640 : 	REGISTER_STATIC_RPC(pRakClient, ScrSetWeaponAmmo);

	mov	esi, esp
	push	OFFSET ?ScrSetWeaponAmmo@@YAXPAURPCParameters@@@Z ; ScrSetWeaponAmmo
	push	OFFSET ??_C@_02JKHMEGHO@cm?$AA@
	mov	eax, DWORD PTR _pRakClient$[ebp]
	mov	edx, DWORD PTR [eax]
	mov	ecx, DWORD PTR _pRakClient$[ebp]
	mov	eax, DWORD PTR [edx+88]
	call	eax
	cmp	esi, esp
	call	__RTC_CheckEsp

; 1641 : 	REGISTER_STATIC_RPC(pRakClient, ScrSetGravity);

	mov	esi, esp
	push	OFFSET ?ScrSetGravity@@YAXPAURPCParameters@@@Z ; ScrSetGravity
	push	OFFSET ??_C@_02LBFBBFLN@cn?$AA@
	mov	eax, DWORD PTR _pRakClient$[ebp]
	mov	edx, DWORD PTR [eax]
	mov	ecx, DWORD PTR _pRakClient$[ebp]
	mov	eax, DWORD PTR [edx+88]
	call	eax
	cmp	esi, esp
	call	__RTC_CheckEsp

; 1642 : 	REGISTER_STATIC_RPC(pRakClient, ScrSetVehicleHealth);

	mov	esi, esp
	push	OFFSET ?ScrSetVehicleHealth@@YAXPAURPCParameters@@@Z ; ScrSetVehicleHealth
	push	OFFSET ??_C@_02KIEKCEPM@co?$AA@
	mov	eax, DWORD PTR _pRakClient$[ebp]
	mov	edx, DWORD PTR [eax]
	mov	ecx, DWORD PTR _pRakClient$[ebp]
	mov	eax, DWORD PTR [edx+88]
	call	eax
	cmp	esi, esp
	call	__RTC_CheckEsp

; 1643 : 	REGISTER_STATIC_RPC(pRakClient, ScrAttachTrailerToVehicle);

	mov	esi, esp
	push	OFFSET ?ScrAttachTrailerToVehicle@@YAXPAURPCParameters@@@Z ; ScrAttachTrailerToVehicle
	push	OFFSET ??_C@_02GFBACKGC@cp?$AA@
	mov	eax, DWORD PTR _pRakClient$[ebp]
	mov	edx, DWORD PTR [eax]
	mov	ecx, DWORD PTR _pRakClient$[ebp]
	mov	eax, DWORD PTR [edx+88]
	call	eax
	cmp	esi, esp
	call	__RTC_CheckEsp

; 1644 : 	REGISTER_STATIC_RPC(pRakClient, ScrDetachTrailerFromVehicle);

	mov	esi, esp
	push	OFFSET ?ScrDetachTrailerFromVehicle@@YAXPAURPCParameters@@@Z ; ScrDetachTrailerFromVehicle
	push	OFFSET ??_C@_02HMALBLCD@cq?$AA@
	mov	eax, DWORD PTR _pRakClient$[ebp]
	mov	edx, DWORD PTR [eax]
	mov	ecx, DWORD PTR _pRakClient$[ebp]
	mov	eax, DWORD PTR [edx+88]
	call	eax
	cmp	esi, esp
	call	__RTC_CheckEsp

; 1645 : 	REGISTER_STATIC_RPC(pRakClient, ScrCreateObject);

	mov	esi, esp
	push	OFFSET ?ScrCreateObject@@YAXPAURPCParameters@@@Z ; ScrCreateObject
	push	OFFSET ??_C@_02FHCGEIOA@cr?$AA@
	mov	eax, DWORD PTR _pRakClient$[ebp]
	mov	edx, DWORD PTR [eax]
	mov	ecx, DWORD PTR _pRakClient$[ebp]
	mov	eax, DWORD PTR [edx+88]
	call	eax
	cmp	esi, esp
	call	__RTC_CheckEsp

; 1646 : 	REGISTER_STATIC_RPC(pRakClient, ScrSetObjectPos);

	mov	esi, esp
	push	OFFSET ?ScrSetObjectPos@@YAXPAURPCParameters@@@Z ; ScrSetObjectPos
	push	OFFSET ??_C@_02EODNHJKB@cs?$AA@
	mov	eax, DWORD PTR _pRakClient$[ebp]
	mov	edx, DWORD PTR [eax]
	mov	ecx, DWORD PTR _pRakClient$[ebp]
	mov	eax, DWORD PTR [edx+88]
	call	eax
	cmp	esi, esp
	call	__RTC_CheckEsp

; 1647 : 	REGISTER_STATIC_RPC(pRakClient, ScrSetObjectRotation);

	mov	esi, esp
	push	OFFSET ?ScrSetObjectRotation@@YAXPAURPCParameters@@@Z ; ScrSetObjectRotation
	push	OFFSET ??_C@_02BHMOPGG@ct?$AA@
	mov	eax, DWORD PTR _pRakClient$[ebp]
	mov	edx, DWORD PTR [eax]
	mov	ecx, DWORD PTR _pRakClient$[ebp]
	mov	eax, DWORD PTR [edx+88]
	call	eax
	cmp	esi, esp
	call	__RTC_CheckEsp

; 1648 : 	REGISTER_STATIC_RPC(pRakClient, ScrDestroyObject);

	mov	esi, esp
	push	OFFSET ?ScrDestroyObject@@YAXPAURPCParameters@@@Z ; ScrDestroyObject
	push	OFFSET ??_C@_02BIGHNOCH@cu?$AA@
	mov	eax, DWORD PTR _pRakClient$[ebp]
	mov	edx, DWORD PTR [eax]
	mov	ecx, DWORD PTR _pRakClient$[ebp]
	mov	eax, DWORD PTR [edx+88]
	call	eax
	cmp	esi, esp
	call	__RTC_CheckEsp

; 1649 : 	REGISTER_STATIC_RPC(pRakClient, ScrSetPlayerVirtualWorld);

	mov	esi, esp
	push	OFFSET ?ScrSetPlayerVirtualWorld@@YAXPAURPCParameters@@@Z ; ScrSetPlayerVirtualWorld
	push	OFFSET ??_C@_02DDEKINOE@cv?$AA@
	mov	eax, DWORD PTR _pRakClient$[ebp]
	mov	edx, DWORD PTR [eax]
	mov	ecx, DWORD PTR _pRakClient$[ebp]
	mov	eax, DWORD PTR [edx+88]
	call	eax
	cmp	esi, esp
	call	__RTC_CheckEsp

; 1650 : 	REGISTER_STATIC_RPC(pRakClient, ScrSetVehicleVirtualWorld);

	mov	esi, esp
	push	OFFSET ?ScrSetVehicleVirtualWorld@@YAXPAURPCParameters@@@Z ; ScrSetVehicleVirtualWorld
	push	OFFSET ??_C@_02CKFBLMKF@cw?$AA@
	mov	eax, DWORD PTR _pRakClient$[ebp]
	mov	edx, DWORD PTR [eax]
	mov	ecx, DWORD PTR _pRakClient$[ebp]
	mov	eax, DWORD PTR [edx+88]
	call	eax
	cmp	esi, esp
	call	__RTC_CheckEsp

; 1651 : 	REGISTER_STATIC_RPC(pRakClient, ScrCreateExplosion);

	mov	esi, esp
	push	OFFSET ?ScrCreateExplosion@@YAXPAURPCParameters@@@Z ; ScrCreateExplosion
	push	OFFSET ??_C@_02KNMJKAGK@cx?$AA@
	mov	eax, DWORD PTR _pRakClient$[ebp]
	mov	edx, DWORD PTR [eax]
	mov	ecx, DWORD PTR _pRakClient$[ebp]
	mov	eax, DWORD PTR [edx+88]
	call	eax
	cmp	esi, esp
	call	__RTC_CheckEsp

; 1652 : 	REGISTER_STATIC_RPC(pRakClient, ScrShowNameTag);

	mov	esi, esp
	push	OFFSET ?ScrShowNameTag@@YAXPAURPCParameters@@@Z ; ScrShowNameTag
	push	OFFSET ??_C@_02LENCJBCL@cy?$AA@
	mov	eax, DWORD PTR _pRakClient$[ebp]
	mov	edx, DWORD PTR [eax]
	mov	ecx, DWORD PTR _pRakClient$[ebp]
	mov	eax, DWORD PTR [edx+88]
	call	eax
	cmp	esi, esp
	call	__RTC_CheckEsp

; 1653 : 	REGISTER_STATIC_RPC(pRakClient, ScrMoveObject);

	mov	esi, esp
	push	OFFSET ?ScrMoveObject@@YAXPAURPCParameters@@@Z ; ScrMoveObject
	push	OFFSET ??_C@_02JPPPMCOI@cz?$AA@
	mov	eax, DWORD PTR _pRakClient$[ebp]
	mov	edx, DWORD PTR [eax]
	mov	ecx, DWORD PTR _pRakClient$[ebp]
	mov	eax, DWORD PTR [edx+88]
	call	eax
	cmp	esi, esp
	call	__RTC_CheckEsp

; 1654 : 	REGISTER_STATIC_RPC(pRakClient, ScrStopObject);

	mov	esi, esp
	push	OFFSET ?ScrStopObject@@YAXPAURPCParameters@@@Z ; ScrStopObject
	push	OFFSET ??_C@_02DDIGBPPH@da?$AA@
	mov	eax, DWORD PTR _pRakClient$[ebp]
	mov	edx, DWORD PTR [eax]
	mov	ecx, DWORD PTR _pRakClient$[ebp]
	mov	eax, DWORD PTR [edx+88]
	call	eax
	cmp	esi, esp
	call	__RTC_CheckEsp

; 1655 : 	REGISTER_STATIC_RPC(pRakClient, ScrNumberPlate);

	mov	esi, esp
	push	OFFSET ?ScrNumberPlate@@YAXPAURPCParameters@@@Z ; ScrNumberPlate
	push	OFFSET ??_C@_02BIKLEMDE@db?$AA@
	mov	eax, DWORD PTR _pRakClient$[ebp]
	mov	edx, DWORD PTR [eax]
	mov	ecx, DWORD PTR _pRakClient$[ebp]
	mov	eax, DWORD PTR [edx+88]
	call	eax
	cmp	esi, esp
	call	__RTC_CheckEsp

; 1656 : 	REGISTER_STATIC_RPC(pRakClient, ScrTogglePlayerSpectating);

	mov	esi, esp
	push	OFFSET ?ScrTogglePlayerSpectating@@YAXPAURPCParameters@@@Z ; ScrTogglePlayerSpectating
	push	OFFSET ??_C@_02BLAHNHF@dc?$AA@
	mov	eax, DWORD PTR _pRakClient$[ebp]
	mov	edx, DWORD PTR [eax]
	mov	ecx, DWORD PTR _pRakClient$[ebp]
	mov	eax, DWORD PTR [edx+88]
	call	eax
	cmp	esi, esp
	call	__RTC_CheckEsp

; 1657 : 	REGISTER_STATIC_RPC(pRakClient, ScrSetPlayerSpectating);

	mov	esi, esp
	push	OFFSET ?ScrSetPlayerSpectating@@YAXPAURPCParameters@@@Z ; ScrSetPlayerSpectating
	push	OFFSET ??_C@_02EOPBOLLC@dd?$AA@
	mov	eax, DWORD PTR _pRakClient$[ebp]
	mov	edx, DWORD PTR [eax]
	mov	ecx, DWORD PTR _pRakClient$[ebp]
	mov	eax, DWORD PTR [edx+88]
	call	eax
	cmp	esi, esp
	call	__RTC_CheckEsp

; 1658 : 	REGISTER_STATIC_RPC(pRakClient, ScrPlayerSpectatePlayer);

	mov	esi, esp
	push	OFFSET ?ScrPlayerSpectatePlayer@@YAXPAURPCParameters@@@Z ; ScrPlayerSpectatePlayer
	push	OFFSET ??_C@_02FHOKNKPD@de?$AA@
	mov	eax, DWORD PTR _pRakClient$[ebp]
	mov	edx, DWORD PTR [eax]
	mov	ecx, DWORD PTR _pRakClient$[ebp]
	mov	eax, DWORD PTR [edx+88]
	call	eax
	cmp	esi, esp
	call	__RTC_CheckEsp

; 1659 : 	REGISTER_STATIC_RPC(pRakClient, ScrPlayerSpectateVehicle);

	mov	esi, esp
	push	OFFSET ?ScrPlayerSpectateVehicle@@YAXPAURPCParameters@@@Z ; ScrPlayerSpectateVehicle
	push	OFFSET ??_C@_02HMMHIJDA@df?$AA@
	mov	eax, DWORD PTR _pRakClient$[ebp]
	mov	edx, DWORD PTR [eax]
	mov	ecx, DWORD PTR _pRakClient$[ebp]
	mov	eax, DWORD PTR [edx+88]
	call	eax
	cmp	esi, esp
	call	__RTC_CheckEsp

; 1660 : 	REGISTER_STATIC_RPC(pRakClient, ScrRemoveComponent);

	mov	esi, esp
	push	OFFSET ?ScrRemoveComponent@@YAXPAURPCParameters@@@Z ; ScrRemoveComponent
	push	OFFSET ??_C@_02GFNMLIHB@dg?$AA@
	mov	eax, DWORD PTR _pRakClient$[ebp]
	mov	edx, DWORD PTR [eax]
	mov	ecx, DWORD PTR _pRakClient$[ebp]
	mov	eax, DWORD PTR [edx+88]
	call	eax
	cmp	esi, esp
	call	__RTC_CheckEsp

; 1661 : 	REGISTER_STATIC_RPC(pRakClient, ScrForceSpawnSelection);

	mov	esi, esp
	push	OFFSET ?ScrForceSpawnSelection@@YAXPAURPCParameters@@@Z ; ScrForceSpawnSelection
	push	OFFSET ??_C@_02OCEEKELO@dh?$AA@
	mov	eax, DWORD PTR _pRakClient$[ebp]
	mov	edx, DWORD PTR [eax]
	mov	ecx, DWORD PTR _pRakClient$[ebp]
	mov	eax, DWORD PTR [edx+88]
	call	eax
	cmp	esi, esp
	call	__RTC_CheckEsp

; 1662 : 	REGISTER_STATIC_RPC(pRakClient, ScrAttachObjectToPlayer);

	mov	esi, esp
	push	OFFSET ?ScrAttachObjectToPlayer@@YAXPAURPCParameters@@@Z ; ScrAttachObjectToPlayer
	push	OFFSET ??_C@_02EDDPJOD@dt?$AA@
	mov	eax, DWORD PTR _pRakClient$[ebp]
	mov	edx, DWORD PTR [eax]
	mov	ecx, DWORD PTR _pRakClient$[ebp]
	mov	eax, DWORD PTR [edx+88]
	call	eax
	cmp	esi, esp
	call	__RTC_CheckEsp

; 1663 : 	REGISTER_STATIC_RPC(pRakClient, ScrInitMenu);

	mov	esi, esp
	push	OFFSET ?ScrInitMenu@@YAXPAURPCParameters@@@Z ; ScrInitMenu
	push	OFFSET ??_C@_02BNCIMIKC@du?$AA@
	mov	eax, DWORD PTR _pRakClient$[ebp]
	mov	edx, DWORD PTR [eax]
	mov	ecx, DWORD PTR _pRakClient$[ebp]
	mov	eax, DWORD PTR [edx+88]
	call	eax
	cmp	esi, esp
	call	__RTC_CheckEsp

; 1664 : 	REGISTER_STATIC_RPC(pRakClient, ScrShowMenu);

	mov	esi, esp
	push	OFFSET ?ScrShowMenu@@YAXPAURPCParameters@@@Z ; ScrShowMenu
	push	OFFSET ??_C@_02DGAFJLGB@dv?$AA@
	mov	eax, DWORD PTR _pRakClient$[ebp]
	mov	edx, DWORD PTR [eax]
	mov	ecx, DWORD PTR _pRakClient$[ebp]
	mov	eax, DWORD PTR [edx+88]
	call	eax
	cmp	esi, esp
	call	__RTC_CheckEsp

; 1665 : 	REGISTER_STATIC_RPC(pRakClient, ScrHideMenu);

	mov	esi, esp
	push	OFFSET ?ScrHideMenu@@YAXPAURPCParameters@@@Z ; ScrHideMenu
	push	OFFSET ??_C@_02CPBOKKCA@dw?$AA@
	mov	eax, DWORD PTR _pRakClient$[ebp]
	mov	edx, DWORD PTR [eax]
	mov	ecx, DWORD PTR _pRakClient$[ebp]
	mov	eax, DWORD PTR [edx+88]
	call	eax
	cmp	esi, esp
	call	__RTC_CheckEsp

; 1666 : 	REGISTER_STATIC_RPC(pRakClient, ScrSetPlayerWantedLevel);

	mov	esi, esp
	push	OFFSET ?ScrSetPlayerWantedLevel@@YAXPAURPCParameters@@@Z ; ScrSetPlayerWantedLevel
	push	OFFSET ??_C@_02JKLANEGN@dz?$AA@
	mov	eax, DWORD PTR _pRakClient$[ebp]
	mov	edx, DWORD PTR [eax]
	mov	ecx, DWORD PTR _pRakClient$[ebp]
	mov	eax, DWORD PTR [edx+88]
	call	eax
	cmp	esi, esp
	call	__RTC_CheckEsp

; 1667 : 	REGISTER_STATIC_RPC(pRakClient, ScrShowTextDraw);

	mov	esi, esp
	push	OFFSET ?ScrShowTextDraw@@YAXPAURPCParameters@@@Z ; ScrShowTextDraw
	push	OFFSET ??_C@_02DCEEHFMA@ea?$AA@
	mov	eax, DWORD PTR _pRakClient$[ebp]
	mov	edx, DWORD PTR [eax]
	mov	ecx, DWORD PTR _pRakClient$[ebp]
	mov	eax, DWORD PTR [edx+88]
	call	eax
	cmp	esi, esp
	call	__RTC_CheckEsp

; 1668 : 	REGISTER_STATIC_RPC(pRakClient, ScrHideTextDraw);

	mov	esi, esp
	push	OFFSET ?ScrHideTextDraw@@YAXPAURPCParameters@@@Z ; ScrHideTextDraw
	push	OFFSET ??_C@_02BJGJCGAD@eb?$AA@
	mov	eax, DWORD PTR _pRakClient$[ebp]
	mov	edx, DWORD PTR [eax]
	mov	ecx, DWORD PTR _pRakClient$[ebp]
	mov	eax, DWORD PTR [edx+88]
	call	eax
	cmp	esi, esp
	call	__RTC_CheckEsp

; 1669 : 	REGISTER_STATIC_RPC(pRakClient, ScrEditTextDraw);

	mov	esi, esp
	push	OFFSET ?ScrEditTextDraw@@YAXPAURPCParameters@@@Z ; ScrEditTextDraw
	push	OFFSET ??_C@_02FGCILAME@ee?$AA@
	mov	eax, DWORD PTR _pRakClient$[ebp]
	mov	edx, DWORD PTR [eax]
	mov	ecx, DWORD PTR _pRakClient$[ebp]
	mov	eax, DWORD PTR [edx+88]
	call	eax
	cmp	esi, esp
	call	__RTC_CheckEsp

; 1670 : 	REGISTER_STATIC_RPC(pRakClient, ScrAddGangZone);

	mov	esi, esp
	push	OFFSET ?ScrAddGangZone@@YAXPAURPCParameters@@@Z ; ScrAddGangZone
	push	OFFSET ??_C@_02HNAFODAH@ef?$AA@
	mov	eax, DWORD PTR _pRakClient$[ebp]
	mov	edx, DWORD PTR [eax]
	mov	ecx, DWORD PTR _pRakClient$[ebp]
	mov	eax, DWORD PTR [edx+88]
	call	eax
	cmp	esi, esp
	call	__RTC_CheckEsp

; 1671 : 	REGISTER_STATIC_RPC(pRakClient, ScrRemoveGangZone);

	mov	esi, esp
	push	OFFSET ?ScrRemoveGangZone@@YAXPAURPCParameters@@@Z ; ScrRemoveGangZone
	push	OFFSET ??_C@_02GEBONCEG@eg?$AA@
	mov	eax, DWORD PTR _pRakClient$[ebp]
	mov	edx, DWORD PTR [eax]
	mov	ecx, DWORD PTR _pRakClient$[ebp]
	mov	eax, DWORD PTR [edx+88]
	call	eax
	cmp	esi, esp
	call	__RTC_CheckEsp

; 1672 : 	REGISTER_STATIC_RPC(pRakClient, ScrFlashGangZone);

	mov	esi, esp
	push	OFFSET ?ScrFlashGangZone@@YAXPAURPCParameters@@@Z ; ScrFlashGangZone
	push	OFFSET ??_C@_02ODIGMOIJ@eh?$AA@
	mov	eax, DWORD PTR _pRakClient$[ebp]
	mov	edx, DWORD PTR [eax]
	mov	ecx, DWORD PTR _pRakClient$[ebp]
	mov	eax, DWORD PTR [edx+88]
	call	eax
	cmp	esi, esp
	call	__RTC_CheckEsp

; 1673 : 	REGISTER_STATIC_RPC(pRakClient, ScrStopFlashGangZone);

	mov	esi, esp
	push	OFFSET ?ScrStopFlashGangZone@@YAXPAURPCParameters@@@Z ; ScrStopFlashGangZone
	push	OFFSET ??_C@_02PKJNPPMI@ei?$AA@
	mov	eax, DWORD PTR _pRakClient$[ebp]
	mov	edx, DWORD PTR [eax]
	mov	ecx, DWORD PTR _pRakClient$[ebp]
	mov	eax, DWORD PTR [edx+88]
	call	eax
	cmp	esi, esp
	call	__RTC_CheckEsp

; 1674 : 	REGISTER_STATIC_RPC(pRakClient, ScrApplyAnimation);

	mov	esi, esp
	push	OFFSET ?ScrApplyAnimation@@YAXPAURPCParameters@@@Z ; ScrApplyAnimation
	push	OFFSET ??_C@_02KMMHFIEO@eo?$AA@
	mov	eax, DWORD PTR _pRakClient$[ebp]
	mov	edx, DWORD PTR [eax]
	mov	ecx, DWORD PTR _pRakClient$[ebp]
	mov	eax, DWORD PTR [edx+88]
	call	eax
	cmp	esi, esp
	call	__RTC_CheckEsp

; 1675 : 	REGISTER_STATIC_RPC(pRakClient, ScrClearAnimations);

	mov	esi, esp
	push	OFFSET ?ScrClearAnimations@@YAXPAURPCParameters@@@Z ; ScrClearAnimations
	push	OFFSET ??_C@_02HIIGGHJB@eq?$AA@
	mov	eax, DWORD PTR _pRakClient$[ebp]
	mov	edx, DWORD PTR [eax]
	mov	ecx, DWORD PTR _pRakClient$[ebp]
	mov	eax, DWORD PTR [edx+88]
	call	eax
	cmp	esi, esp
	call	__RTC_CheckEsp

; 1676 : 	REGISTER_STATIC_RPC(pRakClient, ScrSetSpecialAction);

	mov	esi, esp
	push	OFFSET ?ScrSetSpecialAction@@YAXPAURPCParameters@@@Z ; ScrSetSpecialAction
	push	OFFSET ??_C@_02GBJNFGNA@ep?$AA@
	mov	eax, DWORD PTR _pRakClient$[ebp]
	mov	edx, DWORD PTR [eax]
	mov	ecx, DWORD PTR _pRakClient$[ebp]
	mov	eax, DWORD PTR [edx+88]
	call	eax
	cmp	esi, esp
	call	__RTC_CheckEsp

; 1677 : 	REGISTER_STATIC_RPC(pRakClient, ScrEnableStuntBonus);

	mov	esi, esp
	push	OFFSET ?ScrEnableStuntBonus@@YAXPAURPCParameters@@@Z ; ScrEnableStuntBonus
	push	OFFSET ??_C@_02HCBHEC@ec?$AA@
	mov	eax, DWORD PTR _pRakClient$[ebp]
	mov	edx, DWORD PTR [eax]
	mov	ecx, DWORD PTR _pRakClient$[ebp]
	mov	eax, DWORD PTR [edx+88]
	call	eax
	cmp	esi, esp
	call	__RTC_CheckEsp

; 1678 : }

	pop	edi
	pop	esi
	pop	ebx
	add	esp, 192				; 000000c0H
	cmp	ebp, esp
	call	__RTC_CheckEsp
	mov	esp, ebp
	pop	ebp
	ret	0
?RegisterScriptRPCs@@YAXPAVRakClientInterface@@@Z ENDP	; RegisterScriptRPCs
_TEXT	ENDS
; Function compile flags: /Odtp /RTCsu /ZI
; File z:\sampsrc\02xu1\saco\net\netgame.h
;	COMDAT ?GetGangZonePool@CNetGame@@QAEPAVCGangZonePool@@XZ
_TEXT	SEGMENT
_this$ = -8						; size = 4
?GetGangZonePool@CNetGame@@QAEPAVCGangZonePool@@XZ PROC	; CNetGame::GetGangZonePool, COMDAT
; _this$ = ecx

; 102  : 	CGangZonePool * GetGangZonePool() { return m_pGangZonePool; };

	push	ebp
	mov	ebp, esp
	sub	esp, 204				; 000000ccH
	push	ebx
	push	esi
	push	edi
	push	ecx
	lea	edi, DWORD PTR [ebp-204]
	mov	ecx, 51					; 00000033H
	mov	eax, -858993460				; ccccccccH
	rep stosd
	pop	ecx
	mov	DWORD PTR _this$[ebp], ecx
	mov	eax, DWORD PTR _this$[ebp]
	mov	eax, DWORD PTR [eax+12]
	pop	edi
	pop	esi
	pop	ebx
	mov	esp, ebp
	pop	ebp
	ret	0
?GetGangZonePool@CNetGame@@QAEPAVCGangZonePool@@XZ ENDP	; CNetGame::GetGangZonePool
_TEXT	ENDS
; Function compile flags: /Odtp /RTCsu /ZI
; File z:\sampsrc\02xu1\saco\net\netgame.h
;	COMDAT ?GetTextDrawPool@CNetGame@@QAEPAVCTextDrawPool@@XZ
_TEXT	SEGMENT
_this$ = -8						; size = 4
?GetTextDrawPool@CNetGame@@QAEPAVCTextDrawPool@@XZ PROC	; CNetGame::GetTextDrawPool, COMDAT
; _this$ = ecx

; 101  : 	CTextDrawPool * GetTextDrawPool() { return m_pTextDrawPool; };

	push	ebp
	mov	ebp, esp
	sub	esp, 204				; 000000ccH
	push	ebx
	push	esi
	push	edi
	push	ecx
	lea	edi, DWORD PTR [ebp-204]
	mov	ecx, 51					; 00000033H
	mov	eax, -858993460				; ccccccccH
	rep stosd
	pop	ecx
	mov	DWORD PTR _this$[ebp], ecx
	mov	eax, DWORD PTR _this$[ebp]
	mov	eax, DWORD PTR [eax+8]
	pop	edi
	pop	esi
	pop	ebx
	mov	esp, ebp
	pop	ebp
	ret	0
?GetTextDrawPool@CNetGame@@QAEPAVCTextDrawPool@@XZ ENDP	; CNetGame::GetTextDrawPool
_TEXT	ENDS
; Function compile flags: /Odtp /RTCsu /ZI
; File z:\sampsrc\02xu1\saco\net\netgame.h
;	COMDAT ?GetMenuPool@CNetGame@@QAEPAVCMenuPool@@XZ
_TEXT	SEGMENT
_this$ = -8						; size = 4
?GetMenuPool@CNetGame@@QAEPAVCMenuPool@@XZ PROC		; CNetGame::GetMenuPool, COMDAT
; _this$ = ecx

; 100  : 	CMenuPool * GetMenuPool() { return m_pMenuPool; };

	push	ebp
	mov	ebp, esp
	sub	esp, 204				; 000000ccH
	push	ebx
	push	esi
	push	edi
	push	ecx
	lea	edi, DWORD PTR [ebp-204]
	mov	ecx, 51					; 00000033H
	mov	eax, -858993460				; ccccccccH
	rep stosd
	pop	ecx
	mov	DWORD PTR _this$[ebp], ecx
	mov	eax, DWORD PTR _this$[ebp]
	mov	eax, DWORD PTR [eax+4]
	pop	edi
	pop	esi
	pop	ebx
	mov	esp, ebp
	pop	ebp
	ret	0
?GetMenuPool@CNetGame@@QAEPAVCMenuPool@@XZ ENDP		; CNetGame::GetMenuPool
_TEXT	ENDS
; Function compile flags: /Odtp /RTCsu /ZI
; File z:\sampsrc\02xu1\saco\net\netgame.h
;	COMDAT ?GetObjectPool@CNetGame@@QAEPAVCObjectPool@@XZ
_TEXT	SEGMENT
_this$ = -8						; size = 4
?GetObjectPool@CNetGame@@QAEPAVCObjectPool@@XZ PROC	; CNetGame::GetObjectPool, COMDAT
; _this$ = ecx

; 99   : 	CObjectPool	* GetObjectPool() { return m_pObjectPool; };

	push	ebp
	mov	ebp, esp
	sub	esp, 204				; 000000ccH
	push	ebx
	push	esi
	push	edi
	push	ecx
	lea	edi, DWORD PTR [ebp-204]
	mov	ecx, 51					; 00000033H
	mov	eax, -858993460				; ccccccccH
	rep stosd
	pop	ecx
	mov	DWORD PTR _this$[ebp], ecx
	mov	eax, DWORD PTR _this$[ebp]
	mov	eax, DWORD PTR [eax]
	pop	edi
	pop	esi
	pop	ebx
	mov	esp, ebp
	pop	ebp
	ret	0
?GetObjectPool@CNetGame@@QAEPAVCObjectPool@@XZ ENDP	; CNetGame::GetObjectPool
_TEXT	ENDS
; Function compile flags: /Odtp /RTCsu /ZI
; File z:\sampsrc\02xu1\saco\net\netgame.h
;	COMDAT ?GetVehiclePool@CNetGame@@QAEPAVCVehiclePool@@XZ
_TEXT	SEGMENT
_this$ = -8						; size = 4
?GetVehiclePool@CNetGame@@QAEPAVCVehiclePool@@XZ PROC	; CNetGame::GetVehiclePool, COMDAT
; _this$ = ecx

; 97   : 	CVehiclePool * GetVehiclePool() { return m_pVehiclePool; };

	push	ebp
	mov	ebp, esp
	sub	esp, 204				; 000000ccH
	push	ebx
	push	esi
	push	edi
	push	ecx
	lea	edi, DWORD PTR [ebp-204]
	mov	ecx, 51					; 00000033H
	mov	eax, -858993460				; ccccccccH
	rep stosd
	pop	ecx
	mov	DWORD PTR _this$[ebp], ecx
	mov	eax, DWORD PTR _this$[ebp]
	mov	eax, DWORD PTR [eax+24]
	pop	edi
	pop	esi
	pop	ebx
	mov	esp, ebp
	pop	ebp
	ret	0
?GetVehiclePool@CNetGame@@QAEPAVCVehiclePool@@XZ ENDP	; CNetGame::GetVehiclePool
_TEXT	ENDS
; Function compile flags: /Odtp /RTCsu /ZI
; File z:\sampsrc\02xu1\saco\net\netgame.h
;	COMDAT ?GetPlayerPool@CNetGame@@QAEPAVCPlayerPool@@XZ
_TEXT	SEGMENT
_this$ = -8						; size = 4
?GetPlayerPool@CNetGame@@QAEPAVCPlayerPool@@XZ PROC	; CNetGame::GetPlayerPool, COMDAT
; _this$ = ecx

; 96   : 	CPlayerPool * GetPlayerPool() { return m_pPlayerPool; };

	push	ebp
	mov	ebp, esp
	sub	esp, 204				; 000000ccH
	push	ebx
	push	esi
	push	edi
	push	ecx
	lea	edi, DWORD PTR [ebp-204]
	mov	ecx, 51					; 00000033H
	mov	eax, -858993460				; ccccccccH
	rep stosd
	pop	ecx
	mov	DWORD PTR _this$[ebp], ecx
	mov	eax, DWORD PTR _this$[ebp]
	mov	eax, DWORD PTR [eax+16]
	pop	edi
	pop	esi
	pop	ebx
	mov	esp, ebp
	pop	ebp
	ret	0
?GetPlayerPool@CNetGame@@QAEPAVCPlayerPool@@XZ ENDP	; CNetGame::GetPlayerPool
_TEXT	ENDS
; Function compile flags: /Odtp /RTCsu /ZI
; File z:\sampsrc\02xu1\saco\net\textdrawpool.h
;	COMDAT ?GetAt@CTextDrawPool@@QAEPAVCTextDraw@@G@Z
_TEXT	SEGMENT
_this$ = -8						; size = 4
_wText$ = 8						; size = 2
?GetAt@CTextDrawPool@@QAEPAVCTextDraw@@G@Z PROC		; CTextDrawPool::GetAt, COMDAT
; _this$ = ecx

; 29   : 	CTextDraw * GetAt(WORD wText) {

	push	ebp
	mov	ebp, esp
	sub	esp, 204				; 000000ccH
	push	ebx
	push	esi
	push	edi
	push	ecx
	lea	edi, DWORD PTR [ebp-204]
	mov	ecx, 51					; 00000033H
	mov	eax, -858993460				; ccccccccH
	rep stosd
	pop	ecx
	mov	DWORD PTR _this$[ebp], ecx

; 30   : 		if (wText >= MAX_TEXT_DRAWS) return NULL;

	movzx	eax, WORD PTR _wText$[ebp]
	cmp	eax, 1024				; 00000400H
	jl	SHORT $LN2@GetAt
	xor	eax, eax
	jmp	SHORT $LN3@GetAt
$LN2@GetAt:

; 31   : 		if (!m_bSlotState[wText]) return NULL;

	movzx	eax, WORD PTR _wText$[ebp]
	mov	ecx, DWORD PTR _this$[ebp]
	cmp	DWORD PTR [ecx+eax*4+4096], 0
	jne	SHORT $LN1@GetAt
	xor	eax, eax
	jmp	SHORT $LN3@GetAt
$LN1@GetAt:

; 32   : 		return m_pTextDraw[wText];

	movzx	eax, WORD PTR _wText$[ebp]
	mov	ecx, DWORD PTR _this$[ebp]
	mov	eax, DWORD PTR [ecx+eax*4]
$LN3@GetAt:

; 33   : 	};

	pop	edi
	pop	esi
	pop	ebx
	mov	esp, ebp
	pop	ebp
	ret	4
?GetAt@CTextDrawPool@@QAEPAVCTextDraw@@G@Z ENDP		; CTextDrawPool::GetAt
_TEXT	ENDS
; Function compile flags: /Odtp /RTCsu /ZI
; File z:\sampsrc\02xu1\saco\net\menupool.h
;	COMDAT ?GetSlotState@CMenuPool@@QAEHE@Z
_TEXT	SEGMENT
_this$ = -8						; size = 4
_byteMenuID$ = 8					; size = 1
?GetSlotState@CMenuPool@@QAEHE@Z PROC			; CMenuPool::GetSlotState, COMDAT
; _this$ = ecx

; 40   : 	{

	push	ebp
	mov	ebp, esp
	sub	esp, 204				; 000000ccH
	push	ebx
	push	esi
	push	edi
	push	ecx
	lea	edi, DWORD PTR [ebp-204]
	mov	ecx, 51					; 00000033H
	mov	eax, -858993460				; ccccccccH
	rep stosd
	pop	ecx
	mov	DWORD PTR _this$[ebp], ecx

; 41   : 		if(byteMenuID > MAX_MENUS) { return FALSE; }

	movzx	eax, BYTE PTR _byteMenuID$[ebp]
	cmp	eax, 128				; 00000080H
	jle	SHORT $LN1@GetSlotSta
	xor	eax, eax
	jmp	SHORT $LN2@GetSlotSta
$LN1@GetSlotSta:

; 42   : 		return m_bMenuSlotState[byteMenuID];

	movzx	eax, BYTE PTR _byteMenuID$[ebp]
	mov	ecx, DWORD PTR _this$[ebp]
	mov	eax, DWORD PTR [ecx+eax*4+512]
$LN2@GetSlotSta:

; 43   : 	};

	pop	edi
	pop	esi
	pop	ebx
	mov	esp, ebp
	pop	ebp
	ret	4
?GetSlotState@CMenuPool@@QAEHE@Z ENDP			; CMenuPool::GetSlotState
_TEXT	ENDS
; Function compile flags: /Odtp /RTCsu /ZI
; File z:\sampsrc\02xu1\saco\net\objectpool.h
;	COMDAT ?GetAt@CObjectPool@@QAEPAVCObject@@E@Z
_TEXT	SEGMENT
_this$ = -8						; size = 4
_byteObjectID$ = 8					; size = 1
?GetAt@CObjectPool@@QAEPAVCObject@@E@Z PROC		; CObjectPool::GetAt, COMDAT
; _this$ = ecx

; 31   : 	CObject* GetAt(BYTE byteObjectID) {

	push	ebp
	mov	ebp, esp
	sub	esp, 204				; 000000ccH
	push	ebx
	push	esi
	push	edi
	push	ecx
	lea	edi, DWORD PTR [ebp-204]
	mov	ecx, 51					; 00000033H
	mov	eax, -858993460				; ccccccccH
	rep stosd
	pop	ecx
	mov	DWORD PTR _this$[ebp], ecx

; 32   : 		if(byteObjectID> MAX_OBJECTS || !m_bObjectSlotState[byteObjectID]) { return NULL; }

	movzx	eax, BYTE PTR _byteObjectID$[ebp]
	cmp	eax, 255				; 000000ffH
	jg	SHORT $LN1@GetAt
	movzx	eax, BYTE PTR _byteObjectID$[ebp]
	mov	ecx, DWORD PTR _this$[ebp]
	cmp	DWORD PTR [ecx+eax*4], 0
	jne	SHORT $LN2@GetAt
$LN1@GetAt:
	xor	eax, eax
	jmp	SHORT $LN3@GetAt
$LN2@GetAt:

; 33   : 		return m_pObjects[byteObjectID];

	movzx	eax, BYTE PTR _byteObjectID$[ebp]
	mov	ecx, DWORD PTR _this$[ebp]
	mov	eax, DWORD PTR [ecx+eax*4+1020]
$LN3@GetAt:

; 34   : 	};

	pop	edi
	pop	esi
	pop	ebx
	mov	esp, ebp
	pop	ebp
	ret	4
?GetAt@CObjectPool@@QAEPAVCObject@@E@Z ENDP		; CObjectPool::GetAt
_TEXT	ENDS
; Function compile flags: /Odtp /RTCsu /ZI
; File z:\sampsrc\02xu1\saco\net\vehiclepool.h
;	COMDAT ?SetVehicleVirtualWorld@CVehiclePool@@QAEXGE@Z
_TEXT	SEGMENT
_this$ = -8						; size = 4
_VehicleID$ = 8						; size = 2
_byteVirtualWorld$ = 12					; size = 1
?SetVehicleVirtualWorld@CVehiclePool@@QAEXGE@Z PROC	; CVehiclePool::SetVehicleVirtualWorld, COMDAT
; _this$ = ecx

; 88   : 	void SetVehicleVirtualWorld(VEHICLEID VehicleID, BYTE byteVirtualWorld) {

	push	ebp
	mov	ebp, esp
	sub	esp, 204				; 000000ccH
	push	ebx
	push	esi
	push	edi
	push	ecx
	lea	edi, DWORD PTR [ebp-204]
	mov	ecx, 51					; 00000033H
	mov	eax, -858993460				; ccccccccH
	rep stosd
	pop	ecx
	mov	DWORD PTR _this$[ebp], ecx

; 89   : 		if (VehicleID >= MAX_VEHICLES) return;

	movzx	eax, WORD PTR _VehicleID$[ebp]
	cmp	eax, 702				; 000002beH
	jl	SHORT $LN1@SetVehicle
	jmp	SHORT $LN2@SetVehicle
$LN1@SetVehicle:

; 90   : 		m_byteVirtualWorld[VehicleID] = byteVirtualWorld;

	movzx	eax, WORD PTR _VehicleID$[ebp]
	mov	ecx, DWORD PTR _this$[ebp]
	mov	dl, BYTE PTR _byteVirtualWorld$[ebp]
	mov	BYTE PTR [ecx+eax+44928], dl
$LN2@SetVehicle:

; 91   : 	};

	pop	edi
	pop	esi
	pop	ebx
	mov	esp, ebp
	pop	ebp
	ret	8
?SetVehicleVirtualWorld@CVehiclePool@@QAEXGE@Z ENDP	; CVehiclePool::SetVehicleVirtualWorld
_TEXT	ENDS
; Function compile flags: /Odtp /RTCsu /ZI
; File z:\sampsrc\02xu1\saco\net\vehiclepool.h
;	COMDAT ?GetSlotState@CVehiclePool@@QAEHG@Z
_TEXT	SEGMENT
_this$ = -8						; size = 4
_VehicleID$ = 8						; size = 2
?GetSlotState@CVehiclePool@@QAEHG@Z PROC		; CVehiclePool::GetSlotState, COMDAT
; _this$ = ecx

; 64   : 	BOOL GetSlotState(VEHICLEID VehicleID) {

	push	ebp
	mov	ebp, esp
	sub	esp, 204				; 000000ccH
	push	ebx
	push	esi
	push	edi
	push	ecx
	lea	edi, DWORD PTR [ebp-204]
	mov	ecx, 51					; 00000033H
	mov	eax, -858993460				; ccccccccH
	rep stosd
	pop	ecx
	mov	DWORD PTR _this$[ebp], ecx

; 65   : 		if(VehicleID >= MAX_VEHICLES) { return FALSE; }

	movzx	eax, WORD PTR _VehicleID$[ebp]
	cmp	eax, 702				; 000002beH
	jl	SHORT $LN1@GetSlotSta
	xor	eax, eax
	jmp	SHORT $LN2@GetSlotSta
$LN1@GetSlotSta:

; 66   : 		return m_bVehicleSlotState[VehicleID];

	movzx	eax, WORD PTR _VehicleID$[ebp]
	mov	ecx, DWORD PTR _this$[ebp]
	mov	eax, DWORD PTR [ecx+eax*4]
$LN2@GetSlotSta:

; 67   : 	};

	pop	edi
	pop	esi
	pop	ebx
	mov	esp, ebp
	pop	ebp
	ret	4
?GetSlotState@CVehiclePool@@QAEHG@Z ENDP		; CVehiclePool::GetSlotState
_TEXT	ENDS
; Function compile flags: /Odtp /RTCsu /ZI
; File z:\sampsrc\02xu1\saco\net\vehiclepool.h
;	COMDAT ?GetAt@CVehiclePool@@QAEPAVCVehicle@@G@Z
_TEXT	SEGMENT
_this$ = -8						; size = 4
_VehicleID$ = 8						; size = 2
?GetAt@CVehiclePool@@QAEPAVCVehicle@@G@Z PROC		; CVehiclePool::GetAt, COMDAT
; _this$ = ecx

; 58   : 	CVehicle* GetAt(VEHICLEID VehicleID) {

	push	ebp
	mov	ebp, esp
	sub	esp, 204				; 000000ccH
	push	ebx
	push	esi
	push	edi
	push	ecx
	lea	edi, DWORD PTR [ebp-204]
	mov	ecx, 51					; 00000033H
	mov	eax, -858993460				; ccccccccH
	rep stosd
	pop	ecx
	mov	DWORD PTR _this$[ebp], ecx

; 59   : 		if(VehicleID >= MAX_VEHICLES || !m_bVehicleSlotState[VehicleID]) { return NULL; }

	movzx	eax, WORD PTR _VehicleID$[ebp]
	cmp	eax, 702				; 000002beH
	jge	SHORT $LN1@GetAt
	movzx	eax, WORD PTR _VehicleID$[ebp]
	mov	ecx, DWORD PTR _this$[ebp]
	cmp	DWORD PTR [ecx+eax*4], 0
	jne	SHORT $LN2@GetAt
$LN1@GetAt:
	xor	eax, eax
	jmp	SHORT $LN3@GetAt
$LN2@GetAt:

; 60   : 		return m_pVehicles[VehicleID];

	movzx	eax, WORD PTR _VehicleID$[ebp]
	mov	ecx, DWORD PTR _this$[ebp]
	mov	eax, DWORD PTR [ecx+eax*4+2808]
$LN3@GetAt:

; 61   : 	};

	pop	edi
	pop	esi
	pop	ebx
	mov	esp, ebp
	pop	ebp
	ret	4
?GetAt@CVehiclePool@@QAEPAVCVehicle@@G@Z ENDP		; CVehiclePool::GetAt
_TEXT	ENDS
; Function compile flags: /Odtp /RTCsu /ZI
; File z:\sampsrc\02xu1\saco\net\playerpool.h
;	COMDAT ?GetLocalPlayerID@CPlayerPool@@QAEEXZ
_TEXT	SEGMENT
_this$ = -8						; size = 4
?GetLocalPlayerID@CPlayerPool@@QAEEXZ PROC		; CPlayerPool::GetLocalPlayerID, COMDAT
; _this$ = ecx

; 68   : 	BYTE GetLocalPlayerID() { return m_byteLocalPlayerID; };

	push	ebp
	mov	ebp, esp
	sub	esp, 204				; 000000ccH
	push	ebx
	push	esi
	push	edi
	push	ecx
	lea	edi, DWORD PTR [ebp-204]
	mov	ecx, 51					; 00000033H
	mov	eax, -858993460				; ccccccccH
	rep stosd
	pop	ecx
	mov	DWORD PTR _this$[ebp], ecx
	mov	eax, DWORD PTR _this$[ebp]
	mov	al, BYTE PTR [eax+4]
	pop	edi
	pop	esi
	pop	ebx
	mov	esp, ebp
	pop	ebp
	ret	0
?GetLocalPlayerID@CPlayerPool@@QAEEXZ ENDP		; CPlayerPool::GetLocalPlayerID
_TEXT	ENDS
; Function compile flags: /Odtp /RTCsu /ZI
; File z:\sampsrc\02xu1\saco\net\playerpool.h
;	COMDAT ?GetSlotState@CPlayerPool@@QAEHE@Z
_TEXT	SEGMENT
_this$ = -8						; size = 4
_bytePlayerID$ = 8					; size = 1
?GetSlotState@CPlayerPool@@QAEHE@Z PROC			; CPlayerPool::GetSlotState, COMDAT
; _this$ = ecx

; 58   : 	BOOL GetSlotState(BYTE bytePlayerID) {

	push	ebp
	mov	ebp, esp
	sub	esp, 204				; 000000ccH
	push	ebx
	push	esi
	push	edi
	push	ecx
	lea	edi, DWORD PTR [ebp-204]
	mov	ecx, 51					; 00000033H
	mov	eax, -858993460				; ccccccccH
	rep stosd
	pop	ecx
	mov	DWORD PTR _this$[ebp], ecx

; 59   : 		if(bytePlayerID > MAX_PLAYERS) { return FALSE; }

	movzx	eax, BYTE PTR _bytePlayerID$[ebp]
	cmp	eax, 204				; 000000ccH
	jle	SHORT $LN1@GetSlotSta
	xor	eax, eax
	jmp	SHORT $LN2@GetSlotSta
$LN1@GetSlotSta:

; 60   : 		return m_bPlayerSlotState[bytePlayerID];

	movzx	eax, BYTE PTR _bytePlayerID$[ebp]
	mov	ecx, DWORD PTR _this$[ebp]
	mov	eax, DWORD PTR [ecx+eax*4+13]
$LN2@GetSlotSta:

; 61   : 	};

	pop	edi
	pop	esi
	pop	ebx
	mov	esp, ebp
	pop	ebp
	ret	4
?GetSlotState@CPlayerPool@@QAEHE@Z ENDP			; CPlayerPool::GetSlotState
_TEXT	ENDS
; Function compile flags: /Odtp /RTCsu /ZI
; File z:\sampsrc\02xu1\saco\net\playerpool.h
;	COMDAT ?GetAt@CPlayerPool@@QAEPAVCRemotePlayer@@E@Z
_TEXT	SEGMENT
_this$ = -8						; size = 4
_bytePlayerID$ = 8					; size = 1
?GetAt@CPlayerPool@@QAEPAVCRemotePlayer@@E@Z PROC	; CPlayerPool::GetAt, COMDAT
; _this$ = ecx

; 52   : 	CRemotePlayer* GetAt(BYTE bytePlayerID) {

	push	ebp
	mov	ebp, esp
	sub	esp, 204				; 000000ccH
	push	ebx
	push	esi
	push	edi
	push	ecx
	lea	edi, DWORD PTR [ebp-204]
	mov	ecx, 51					; 00000033H
	mov	eax, -858993460				; ccccccccH
	rep stosd
	pop	ecx
	mov	DWORD PTR _this$[ebp], ecx

; 53   : 		if(bytePlayerID > MAX_PLAYERS) { return NULL; }

	movzx	eax, BYTE PTR _bytePlayerID$[ebp]
	cmp	eax, 204				; 000000ccH
	jle	SHORT $LN1@GetAt
	xor	eax, eax
	jmp	SHORT $LN2@GetAt
$LN1@GetAt:

; 54   : 		return m_pPlayers[bytePlayerID];

	movzx	eax, BYTE PTR _bytePlayerID$[ebp]
	mov	ecx, DWORD PTR _this$[ebp]
	mov	eax, DWORD PTR [ecx+eax*4+829]
$LN2@GetAt:

; 55   : 	};

	pop	edi
	pop	esi
	pop	ebx
	mov	esp, ebp
	pop	ebp
	ret	4
?GetAt@CPlayerPool@@QAEPAVCRemotePlayer@@E@Z ENDP	; CPlayerPool::GetAt
_TEXT	ENDS
; Function compile flags: /Odtp /RTCsu /ZI
; File z:\sampsrc\02xu1\saco\net\playerpool.h
;	COMDAT ?GetLocalPlayer@CPlayerPool@@QAEPAVCLocalPlayer@@XZ
_TEXT	SEGMENT
_this$ = -8						; size = 4
?GetLocalPlayer@CPlayerPool@@QAEPAVCLocalPlayer@@XZ PROC ; CPlayerPool::GetLocalPlayer, COMDAT
; _this$ = ecx

; 46   : 	CLocalPlayer * GetLocalPlayer() { return m_pLocalPlayer; };

	push	ebp
	mov	ebp, esp
	sub	esp, 204				; 000000ccH
	push	ebx
	push	esi
	push	edi
	push	ecx
	lea	edi, DWORD PTR [ebp-204]
	mov	ecx, 51					; 00000033H
	mov	eax, -858993460				; ccccccccH
	rep stosd
	pop	ecx
	mov	DWORD PTR _this$[ebp], ecx
	mov	eax, DWORD PTR _this$[ebp]
	mov	eax, DWORD PTR [eax]
	pop	edi
	pop	esi
	pop	ebx
	mov	esp, ebp
	pop	ebp
	ret	0
?GetLocalPlayer@CPlayerPool@@QAEPAVCLocalPlayer@@XZ ENDP ; CPlayerPool::GetLocalPlayer
_TEXT	ENDS
; Function compile flags: /Odtp /RTCsu /ZI
; File z:\sampsrc\02xu1\saco\net\playerpool.h
;	COMDAT ?SetPlayerName@CPlayerPool@@QAEXEPAD@Z
_TEXT	SEGMENT
_this$ = -8						; size = 4
_bytePlayerID$ = 8					; size = 1
_szName$ = 12						; size = 4
?SetPlayerName@CPlayerPool@@QAEXEPAD@Z PROC		; CPlayerPool::SetPlayerName, COMDAT
; _this$ = ecx

; 42   : 	void SetPlayerName(BYTE bytePlayerID, PCHAR szName) {

	push	ebp
	mov	ebp, esp
	sub	esp, 204				; 000000ccH
	push	ebx
	push	esi
	push	edi
	push	ecx
	lea	edi, DWORD PTR [ebp-204]
	mov	ecx, 51					; 00000033H
	mov	eax, -858993460				; ccccccccH
	rep stosd
	pop	ecx
	mov	DWORD PTR _this$[ebp], ecx

; 43   : 		strcpy(m_szPlayerNames[bytePlayerID], szName);

	mov	eax, DWORD PTR _szName$[ebp]
	push	eax
	movzx	ecx, BYTE PTR _bytePlayerID$[ebp]
	imul	edx, ecx, 25
	mov	eax, DWORD PTR _this$[ebp]
	lea	ecx, DWORD PTR [eax+edx+4093]
	push	ecx
	call	_strcpy
	add	esp, 8

; 44   : 	}

	pop	edi
	pop	esi
	pop	ebx
	add	esp, 204				; 000000ccH
	cmp	ebp, esp
	call	__RTC_CheckEsp
	mov	esp, ebp
	pop	ebp
	ret	8
?SetPlayerName@CPlayerPool@@QAEXEPAD@Z ENDP		; CPlayerPool::SetPlayerName
_TEXT	ENDS
; Function compile flags: /Odtp /RTCsu /ZI
; File z:\sampsrc\02xu1\saco\net\playerpool.h
;	COMDAT ?GetPlayerName@CPlayerPool@@QAEPADE@Z
_TEXT	SEGMENT
_this$ = -8						; size = 4
_bytePlayerID$ = 8					; size = 1
?GetPlayerName@CPlayerPool@@QAEPADE@Z PROC		; CPlayerPool::GetPlayerName, COMDAT
; _this$ = ecx

; 41   : 	PCHAR GetPlayerName(BYTE bytePlayerID) { return m_szPlayerNames[bytePlayerID]; };

	push	ebp
	mov	ebp, esp
	sub	esp, 204				; 000000ccH
	push	ebx
	push	esi
	push	edi
	push	ecx
	lea	edi, DWORD PTR [ebp-204]
	mov	ecx, 51					; 00000033H
	mov	eax, -858993460				; ccccccccH
	rep stosd
	pop	ecx
	mov	DWORD PTR _this$[ebp], ecx
	movzx	eax, BYTE PTR _bytePlayerID$[ebp]
	imul	ecx, eax, 25
	mov	edx, DWORD PTR _this$[ebp]
	lea	eax, DWORD PTR [edx+ecx+4093]
	pop	edi
	pop	esi
	pop	ebx
	mov	esp, ebp
	pop	ebp
	ret	4
?GetPlayerName@CPlayerPool@@QAEPADE@Z ENDP		; CPlayerPool::GetPlayerName
_TEXT	ENDS
; Function compile flags: /Odtp /RTCsu /ZI
; File z:\sampsrc\02xu1\saco\net\playerpool.h
;	COMDAT ?GetLocalPlayerName@CPlayerPool@@QAEPADXZ
_TEXT	SEGMENT
_this$ = -8						; size = 4
?GetLocalPlayerName@CPlayerPool@@QAEPADXZ PROC		; CPlayerPool::GetLocalPlayerName, COMDAT
; _this$ = ecx

; 40   : 	PCHAR GetLocalPlayerName() { return m_szLocalPlayerName; };

	push	ebp
	mov	ebp, esp
	sub	esp, 204				; 000000ccH
	push	ebx
	push	esi
	push	edi
	push	ecx
	lea	edi, DWORD PTR [ebp-204]
	mov	ecx, 51					; 00000033H
	mov	eax, -858993460				; ccccccccH
	rep stosd
	pop	ecx
	mov	DWORD PTR _this$[ebp], ecx
	mov	eax, DWORD PTR _this$[ebp]
	add	eax, 9193				; 000023e9H
	pop	edi
	pop	esi
	pop	ebx
	mov	esp, ebp
	pop	ebp
	ret	0
?GetLocalPlayerName@CPlayerPool@@QAEPADXZ ENDP		; CPlayerPool::GetLocalPlayerName
_TEXT	ENDS
; Function compile flags: /Odtp /RTCsu /ZI
; File z:\sampsrc\02xu1\saco\net\playerpool.h
;	COMDAT ?SetLocalPlayerName@CPlayerPool@@QAEXPAD@Z
_TEXT	SEGMENT
_this$ = -8						; size = 4
_szName$ = 8						; size = 4
?SetLocalPlayerName@CPlayerPool@@QAEXPAD@Z PROC		; CPlayerPool::SetLocalPlayerName, COMDAT
; _this$ = ecx

; 39   : 	void SetLocalPlayerName(PCHAR szName) { strcpy(m_szLocalPlayerName,szName); };

	push	ebp
	mov	ebp, esp
	sub	esp, 204				; 000000ccH
	push	ebx
	push	esi
	push	edi
	push	ecx
	lea	edi, DWORD PTR [ebp-204]
	mov	ecx, 51					; 00000033H
	mov	eax, -858993460				; ccccccccH
	rep stosd
	pop	ecx
	mov	DWORD PTR _this$[ebp], ecx
	mov	eax, DWORD PTR _szName$[ebp]
	push	eax
	mov	ecx, DWORD PTR _this$[ebp]
	add	ecx, 9193				; 000023e9H
	push	ecx
	call	_strcpy
	add	esp, 8
	pop	edi
	pop	esi
	pop	ebx
	add	esp, 204				; 000000ccH
	cmp	ebp, esp
	call	__RTC_CheckEsp
	mov	esp, ebp
	pop	ebp
	ret	4
?SetLocalPlayerName@CPlayerPool@@QAEXPAD@Z ENDP		; CPlayerPool::SetLocalPlayerName
_TEXT	ENDS
; Function compile flags: /Odtp /RTCsu /ZI
; File z:\sampsrc\02xu1\saco\net\remoteplayer.h
;	COMDAT ?SetState@CRemotePlayer@@QAEXE@Z
_TEXT	SEGMENT
_this$ = -8						; size = 4
_byteState$ = 8						; size = 1
?SetState@CRemotePlayer@@QAEXE@Z PROC			; CRemotePlayer::SetState, COMDAT
; _this$ = ecx

; 155  : 	void SetState(BYTE byteState) {	

	push	ebp
	mov	ebp, esp
	sub	esp, 204				; 000000ccH
	push	ebx
	push	esi
	push	edi
	push	ecx
	lea	edi, DWORD PTR [ebp-204]
	mov	ecx, 51					; 00000033H
	mov	eax, -858993460				; ccccccccH
	rep stosd
	pop	ecx
	mov	DWORD PTR _this$[ebp], ecx

; 156  : 		if(byteState != m_byteState) {

	movzx	eax, BYTE PTR _byteState$[ebp]
	mov	ecx, DWORD PTR _this$[ebp]
	movzx	edx, BYTE PTR [ecx+315]
	cmp	eax, edx
	je	SHORT $LN2@SetState

; 157  : 			StateChange(byteState,m_byteState);

	mov	eax, DWORD PTR _this$[ebp]
	movzx	ecx, BYTE PTR [eax+315]
	push	ecx
	movzx	edx, BYTE PTR _byteState$[ebp]
	push	edx
	mov	ecx, DWORD PTR _this$[ebp]
	call	?StateChange@CRemotePlayer@@QAEXEE@Z	; CRemotePlayer::StateChange

; 158  : 			m_byteState = byteState;	

	mov	eax, DWORD PTR _this$[ebp]
	mov	cl, BYTE PTR _byteState$[ebp]
	mov	BYTE PTR [eax+315], cl
$LN2@SetState:

; 159  : 		}
; 160  : 	};

	pop	edi
	pop	esi
	pop	ebx
	add	esp, 204				; 000000ccH
	cmp	ebp, esp
	call	__RTC_CheckEsp
	mov	esp, ebp
	pop	ebp
	ret	4
?SetState@CRemotePlayer@@QAEXE@Z ENDP			; CRemotePlayer::SetState
_TEXT	ENDS
; Function compile flags: /Odtp /RTCsu /ZI
; File z:\sampsrc\02xu1\saco\net\remoteplayer.h
;	COMDAT ?ShowNameTag@CRemotePlayer@@QAEXE@Z
_TEXT	SEGMENT
_this$ = -8						; size = 4
_byteShow$ = 8						; size = 1
?ShowNameTag@CRemotePlayer@@QAEXE@Z PROC		; CRemotePlayer::ShowNameTag, COMDAT
; _this$ = ecx

; 151  : 	void ShowNameTag(BYTE byteShow) { if (byteShow) m_bShowNameTag = TRUE; else m_bShowNameTag = FALSE; };

	push	ebp
	mov	ebp, esp
	sub	esp, 204				; 000000ccH
	push	ebx
	push	esi
	push	edi
	push	ecx
	lea	edi, DWORD PTR [ebp-204]
	mov	ecx, 51					; 00000033H
	mov	eax, -858993460				; ccccccccH
	rep stosd
	pop	ecx
	mov	DWORD PTR _this$[ebp], ecx
	movzx	eax, BYTE PTR _byteShow$[ebp]
	test	eax, eax
	je	SHORT $LN2@ShowNameTa
	mov	eax, DWORD PTR _this$[ebp]
	mov	DWORD PTR [eax+332], 1
	jmp	SHORT $LN3@ShowNameTa
$LN2@ShowNameTa:
	mov	eax, DWORD PTR _this$[ebp]
	mov	DWORD PTR [eax+332], 0
$LN3@ShowNameTa:
	pop	edi
	pop	esi
	pop	ebx
	mov	esp, ebp
	pop	ebp
	ret	4
?ShowNameTag@CRemotePlayer@@QAEXE@Z ENDP		; CRemotePlayer::ShowNameTag
_TEXT	ENDS
; Function compile flags: /Odtp /RTCsu /ZI
; File z:\sampsrc\02xu1\saco\net\remoteplayer.h
;	COMDAT ?SetTeam@CRemotePlayer@@QAEXE@Z
_TEXT	SEGMENT
_this$ = -8						; size = 4
_byteTeam$ = 8						; size = 1
?SetTeam@CRemotePlayer@@QAEXE@Z PROC			; CRemotePlayer::SetTeam, COMDAT
; _this$ = ecx

; 150  : 	void SetTeam(BYTE byteTeam) { m_byteTeam = byteTeam; };

	push	ebp
	mov	ebp, esp
	sub	esp, 204				; 000000ccH
	push	ebx
	push	esi
	push	edi
	push	ecx
	lea	edi, DWORD PTR [ebp-204]
	mov	ecx, 51					; 00000033H
	mov	eax, -858993460				; ccccccccH
	rep stosd
	pop	ecx
	mov	DWORD PTR _this$[ebp], ecx
	mov	eax, DWORD PTR _this$[ebp]
	mov	cl, BYTE PTR _byteTeam$[ebp]
	mov	BYTE PTR [eax+319], cl
	pop	edi
	pop	esi
	pop	ebx
	mov	esp, ebp
	pop	ebp
	ret	4
?SetTeam@CRemotePlayer@@QAEXE@Z ENDP			; CRemotePlayer::SetTeam
_TEXT	ENDS
; Function compile flags: /Odtp /RTCsu /ZI
; File z:\sampsrc\02xu1\saco\net\remoteplayer.h
;	COMDAT ?SetVirtualWorld@CRemotePlayer@@QAEXE@Z
_TEXT	SEGMENT
_this$ = -8						; size = 4
_byteWorld$ = 8						; size = 1
?SetVirtualWorld@CRemotePlayer@@QAEXE@Z PROC		; CRemotePlayer::SetVirtualWorld, COMDAT
; _this$ = ecx

; 147  : 	void SetVirtualWorld(BYTE byteWorld) { m_byteVirtualWorld = byteWorld; };

	push	ebp
	mov	ebp, esp
	sub	esp, 204				; 000000ccH
	push	ebx
	push	esi
	push	edi
	push	ecx
	lea	edi, DWORD PTR [ebp-204]
	mov	ecx, 51					; 00000033H
	mov	eax, -858993460				; ccccccccH
	rep stosd
	pop	ecx
	mov	DWORD PTR _this$[ebp], ecx
	mov	eax, DWORD PTR _this$[ebp]
	mov	cl, BYTE PTR _byteWorld$[ebp]
	mov	BYTE PTR [eax+356], cl
	pop	edi
	pop	esi
	pop	ebx
	mov	esp, ebp
	pop	ebp
	ret	4
?SetVirtualWorld@CRemotePlayer@@QAEXE@Z ENDP		; CRemotePlayer::SetVirtualWorld
_TEXT	ENDS
; Function compile flags: /Odtp /RTCsu /ZI
; File z:\sampsrc\02xu1\saco\net\remoteplayer.h
;	COMDAT ?GetPlayerPed@CRemotePlayer@@QAEPAVCPlayerPed@@XZ
_TEXT	SEGMENT
_this$ = -8						; size = 4
?GetPlayerPed@CRemotePlayer@@QAEPAVCPlayerPed@@XZ PROC	; CRemotePlayer::GetPlayerPed, COMDAT
; _this$ = ecx

; 102  : 	CPlayerPed * GetPlayerPed() { return m_pPlayerPed; };

	push	ebp
	mov	ebp, esp
	sub	esp, 204				; 000000ccH
	push	ebx
	push	esi
	push	edi
	push	ecx
	lea	edi, DWORD PTR [ebp-204]
	mov	ecx, 51					; 00000033H
	mov	eax, -858993460				; ccccccccH
	rep stosd
	pop	ecx
	mov	DWORD PTR _this$[ebp], ecx
	mov	eax, DWORD PTR _this$[ebp]
	mov	eax, DWORD PTR [eax]
	pop	edi
	pop	esi
	pop	ebx
	mov	esp, ebp
	pop	ebp
	ret	0
?GetPlayerPed@CRemotePlayer@@QAEPAVCPlayerPed@@XZ ENDP	; CRemotePlayer::GetPlayerPed
_TEXT	ENDS
; Function compile flags: /Odtp /RTCsu /ZI
; File z:\sampsrc\02xu1\saco\net\localplayer.h
;	COMDAT ?SetTeam@CLocalPlayer@@QAEXE@Z
_TEXT	SEGMENT
_this$ = -8						; size = 4
_byteTeam$ = 8						; size = 1
?SetTeam@CLocalPlayer@@QAEXE@Z PROC			; CLocalPlayer::SetTeam, COMDAT
; _this$ = ecx

; 258  : 	void SetTeam(BYTE byteTeam) { m_byteTeam = byteTeam; };

	push	ebp
	mov	ebp, esp
	sub	esp, 204				; 000000ccH
	push	ebx
	push	esi
	push	edi
	push	ecx
	lea	edi, DWORD PTR [ebp-204]
	mov	ecx, 51					; 00000033H
	mov	eax, -858993460				; ccccccccH
	rep stosd
	pop	ecx
	mov	DWORD PTR _this$[ebp], ecx
	mov	eax, DWORD PTR _this$[ebp]
	mov	cl, BYTE PTR _byteTeam$[ebp]
	mov	BYTE PTR [eax+190], cl
	pop	edi
	pop	esi
	pop	ebx
	mov	esp, ebp
	pop	ebp
	ret	4
?SetTeam@CLocalPlayer@@QAEXE@Z ENDP			; CLocalPlayer::SetTeam
_TEXT	ENDS
; Function compile flags: /Odtp /RTCsu /ZI
; File z:\sampsrc\02xu1\saco\net\localplayer.h
;	COMDAT ?ReturnToClassSelection@CLocalPlayer@@QAEXXZ
_TEXT	SEGMENT
_this$ = -8						; size = 4
?ReturnToClassSelection@CLocalPlayer@@QAEXXZ PROC	; CLocalPlayer::ReturnToClassSelection, COMDAT
; _this$ = ecx

; 255  : 	void ReturnToClassSelection() { m_bWantsAnotherClass = TRUE; };

	push	ebp
	mov	ebp, esp
	sub	esp, 204				; 000000ccH
	push	ebx
	push	esi
	push	edi
	push	ecx
	lea	edi, DWORD PTR [ebp-204]
	mov	ecx, 51					; 00000033H
	mov	eax, -858993460				; ccccccccH
	rep stosd
	pop	ecx
	mov	DWORD PTR _this$[ebp], ecx
	mov	eax, DWORD PTR _this$[ebp]
	mov	DWORD PTR [eax+12], 1
	pop	edi
	pop	esi
	pop	ebx
	mov	esp, ebp
	pop	ebp
	ret	0
?ReturnToClassSelection@CLocalPlayer@@QAEXXZ ENDP	; CLocalPlayer::ReturnToClassSelection
_TEXT	ENDS
; Function compile flags: /Odtp /RTCsu /ZI
; File z:\sampsrc\02xu1\saco\net\localplayer.h
;	COMDAT ?SetVirtualWorld@CLocalPlayer@@QAEXE@Z
_TEXT	SEGMENT
_this$ = -8						; size = 4
_byteWorld$ = 8						; size = 1
?SetVirtualWorld@CLocalPlayer@@QAEXE@Z PROC		; CLocalPlayer::SetVirtualWorld, COMDAT
; _this$ = ecx

; 247  : 	void SetVirtualWorld(BYTE byteWorld) { m_byteVirtualWorld = byteWorld; };

	push	ebp
	mov	ebp, esp
	sub	esp, 204				; 000000ccH
	push	ebx
	push	esi
	push	edi
	push	ecx
	lea	edi, DWORD PTR [ebp-204]
	mov	ecx, 51					; 00000033H
	mov	eax, -858993460				; ccccccccH
	rep stosd
	pop	ecx
	mov	DWORD PTR _this$[ebp], ecx
	mov	eax, DWORD PTR _this$[ebp]
	mov	cl, BYTE PTR _byteWorld$[ebp]
	mov	BYTE PTR [eax+24], cl
	pop	edi
	pop	esi
	pop	ebx
	mov	esp, ebp
	pop	ebp
	ret	4
?SetVirtualWorld@CLocalPlayer@@QAEXE@Z ENDP		; CLocalPlayer::SetVirtualWorld
_TEXT	ENDS
; Function compile flags: /Odtp /RTCsu /ZI
; File z:\sampsrc\02xu1\saco\net\localplayer.h
;	COMDAT ?GetPlayerPed@CLocalPlayer@@QAEPAVCPlayerPed@@XZ
_TEXT	SEGMENT
_this$ = -8						; size = 4
?GetPlayerPed@CLocalPlayer@@QAEPAVCPlayerPed@@XZ PROC	; CLocalPlayer::GetPlayerPed, COMDAT
; _this$ = ecx

; 223  : 	CPlayerPed * GetPlayerPed() { return m_pPlayerPed; };

	push	ebp
	mov	ebp, esp
	sub	esp, 204				; 000000ccH
	push	ebx
	push	esi
	push	edi
	push	ecx
	lea	edi, DWORD PTR [ebp-204]
	mov	ecx, 51					; 00000033H
	mov	eax, -858993460				; ccccccccH
	rep stosd
	pop	ecx
	mov	DWORD PTR _this$[ebp], ecx
	mov	eax, DWORD PTR _this$[ebp]
	mov	eax, DWORD PTR [eax]
	pop	edi
	pop	esi
	pop	ebx
	mov	esp, ebp
	pop	ebp
	ret	0
?GetPlayerPed@CLocalPlayer@@QAEPAVCPlayerPed@@XZ ENDP	; CLocalPlayer::GetPlayerPed
_TEXT	ENDS
; Function compile flags: /Odtp /RTCsu /ZI
; File z:\sampsrc\02xu1\raknet\bitstream.h
;	COMDAT ??$Read@K@BitStream@RakNet@@QAE_NAAK@Z
_TEXT	SEGMENT
_this$ = -8						; size = 4
_var$ = 8						; size = 4
??$Read@K@BitStream@RakNet@@QAE_NAAK@Z PROC		; RakNet::BitStream::Read<unsigned long>, COMDAT
; _this$ = ecx

; 987  : 	{

	push	ebp
	mov	ebp, esp
	sub	esp, 204				; 000000ccH
	push	ebx
	push	esi
	push	edi
	push	ecx
	lea	edi, DWORD PTR [ebp-204]
	mov	ecx, 51					; 00000033H
	mov	eax, -858993460				; ccccccccH
	rep stosd
	pop	ecx
	mov	DWORD PTR _this$[ebp], ecx

; 988  : #ifdef _MSC_VER
; 989  : #pragma warning(disable:4127)   // conditional expression is constant
; 990  : #endif
; 991  : 		if (sizeof(var)==1)

	xor	eax, eax
	je	SHORT $LN2@Read

; 992  : 			return ReadBits( ( unsigned char* ) &var, sizeof(templateType) * 8, true );

	push	1
	push	32					; 00000020H
	mov	eax, DWORD PTR _var$[ebp]
	push	eax
	mov	ecx, DWORD PTR _this$[ebp]
	call	?ReadBits@BitStream@RakNet@@QAE_NPAEH_N@Z ; RakNet::BitStream::ReadBits
	jmp	SHORT $LN3@Read

; 993  : 		else

	jmp	SHORT $LN3@Read
$LN2@Read:

; 994  : 		{
; 995  : #ifndef __BITSTREAM_NATIVE_END
; 996  : #ifdef _MSC_VER
; 997  : #pragma warning(disable:4244)   // '=' : conversion from 'unsigned long' to 'unsigned short', possible loss of data
; 998  : #endif
; 999  : 			if (DoEndianSwap())
; 1000 : 			{
; 1001 : 				unsigned char output[sizeof(templateType)];
; 1002 : 				if (ReadBits( ( unsigned char* ) output, sizeof(templateType) * 8, true ))
; 1003 : 				{
; 1004 : 					ReverseBytes(output, (unsigned char*)&var, sizeof(templateType));
; 1005 : 					return true;
; 1006 : 				}
; 1007 : 				return false;
; 1008 : 			}
; 1009 : 			else
; 1010 : #endif
; 1011 : 				return ReadBits( ( unsigned char* ) & var, sizeof(templateType) * 8, true );

	push	1
	push	32					; 00000020H
	mov	eax, DWORD PTR _var$[ebp]
	push	eax
	mov	ecx, DWORD PTR _this$[ebp]
	call	?ReadBits@BitStream@RakNet@@QAE_NPAEH_N@Z ; RakNet::BitStream::ReadBits
$LN3@Read:

; 1012 : 		}
; 1013 : 	}

	pop	edi
	pop	esi
	pop	ebx
	add	esp, 204				; 000000ccH
	cmp	ebp, esp
	call	__RTC_CheckEsp
	mov	esp, ebp
	pop	ebp
	ret	4
??$Read@K@BitStream@RakNet@@QAE_NAAK@Z ENDP		; RakNet::BitStream::Read<unsigned long>
_TEXT	ENDS
; Function compile flags: /Odtp /RTCsu /ZI
; File z:\sampsrc\02xu1\raknet\bitstream.h
;	COMDAT ??$Read@G@BitStream@RakNet@@QAE_NAAG@Z
_TEXT	SEGMENT
_this$ = -8						; size = 4
_var$ = 8						; size = 4
??$Read@G@BitStream@RakNet@@QAE_NAAG@Z PROC		; RakNet::BitStream::Read<unsigned short>, COMDAT
; _this$ = ecx

; 987  : 	{

	push	ebp
	mov	ebp, esp
	sub	esp, 204				; 000000ccH
	push	ebx
	push	esi
	push	edi
	push	ecx
	lea	edi, DWORD PTR [ebp-204]
	mov	ecx, 51					; 00000033H
	mov	eax, -858993460				; ccccccccH
	rep stosd
	pop	ecx
	mov	DWORD PTR _this$[ebp], ecx

; 988  : #ifdef _MSC_VER
; 989  : #pragma warning(disable:4127)   // conditional expression is constant
; 990  : #endif
; 991  : 		if (sizeof(var)==1)

	xor	eax, eax
	je	SHORT $LN2@Read

; 992  : 			return ReadBits( ( unsigned char* ) &var, sizeof(templateType) * 8, true );

	push	1
	push	16					; 00000010H
	mov	eax, DWORD PTR _var$[ebp]
	push	eax
	mov	ecx, DWORD PTR _this$[ebp]
	call	?ReadBits@BitStream@RakNet@@QAE_NPAEH_N@Z ; RakNet::BitStream::ReadBits
	jmp	SHORT $LN3@Read

; 993  : 		else

	jmp	SHORT $LN3@Read
$LN2@Read:

; 994  : 		{
; 995  : #ifndef __BITSTREAM_NATIVE_END
; 996  : #ifdef _MSC_VER
; 997  : #pragma warning(disable:4244)   // '=' : conversion from 'unsigned long' to 'unsigned short', possible loss of data
; 998  : #endif
; 999  : 			if (DoEndianSwap())
; 1000 : 			{
; 1001 : 				unsigned char output[sizeof(templateType)];
; 1002 : 				if (ReadBits( ( unsigned char* ) output, sizeof(templateType) * 8, true ))
; 1003 : 				{
; 1004 : 					ReverseBytes(output, (unsigned char*)&var, sizeof(templateType));
; 1005 : 					return true;
; 1006 : 				}
; 1007 : 				return false;
; 1008 : 			}
; 1009 : 			else
; 1010 : #endif
; 1011 : 				return ReadBits( ( unsigned char* ) & var, sizeof(templateType) * 8, true );

	push	1
	push	16					; 00000010H
	mov	eax, DWORD PTR _var$[ebp]
	push	eax
	mov	ecx, DWORD PTR _this$[ebp]
	call	?ReadBits@BitStream@RakNet@@QAE_NPAEH_N@Z ; RakNet::BitStream::ReadBits
$LN3@Read:

; 1012 : 		}
; 1013 : 	}

	pop	edi
	pop	esi
	pop	ebx
	add	esp, 204				; 000000ccH
	cmp	ebp, esp
	call	__RTC_CheckEsp
	mov	esp, ebp
	pop	ebp
	ret	4
??$Read@G@BitStream@RakNet@@QAE_NAAG@Z ENDP		; RakNet::BitStream::Read<unsigned short>
_TEXT	ENDS
; Function compile flags: /Odtp /RTCsu /ZI
; File z:\sampsrc\02xu1\raknet\bitstream.h
;	COMDAT ??$Read@I@BitStream@RakNet@@QAE_NAAI@Z
_TEXT	SEGMENT
_this$ = -8						; size = 4
_var$ = 8						; size = 4
??$Read@I@BitStream@RakNet@@QAE_NAAI@Z PROC		; RakNet::BitStream::Read<unsigned int>, COMDAT
; _this$ = ecx

; 987  : 	{

	push	ebp
	mov	ebp, esp
	sub	esp, 204				; 000000ccH
	push	ebx
	push	esi
	push	edi
	push	ecx
	lea	edi, DWORD PTR [ebp-204]
	mov	ecx, 51					; 00000033H
	mov	eax, -858993460				; ccccccccH
	rep stosd
	pop	ecx
	mov	DWORD PTR _this$[ebp], ecx

; 988  : #ifdef _MSC_VER
; 989  : #pragma warning(disable:4127)   // conditional expression is constant
; 990  : #endif
; 991  : 		if (sizeof(var)==1)

	xor	eax, eax
	je	SHORT $LN2@Read

; 992  : 			return ReadBits( ( unsigned char* ) &var, sizeof(templateType) * 8, true );

	push	1
	push	32					; 00000020H
	mov	eax, DWORD PTR _var$[ebp]
	push	eax
	mov	ecx, DWORD PTR _this$[ebp]
	call	?ReadBits@BitStream@RakNet@@QAE_NPAEH_N@Z ; RakNet::BitStream::ReadBits
	jmp	SHORT $LN3@Read

; 993  : 		else

	jmp	SHORT $LN3@Read
$LN2@Read:

; 994  : 		{
; 995  : #ifndef __BITSTREAM_NATIVE_END
; 996  : #ifdef _MSC_VER
; 997  : #pragma warning(disable:4244)   // '=' : conversion from 'unsigned long' to 'unsigned short', possible loss of data
; 998  : #endif
; 999  : 			if (DoEndianSwap())
; 1000 : 			{
; 1001 : 				unsigned char output[sizeof(templateType)];
; 1002 : 				if (ReadBits( ( unsigned char* ) output, sizeof(templateType) * 8, true ))
; 1003 : 				{
; 1004 : 					ReverseBytes(output, (unsigned char*)&var, sizeof(templateType));
; 1005 : 					return true;
; 1006 : 				}
; 1007 : 				return false;
; 1008 : 			}
; 1009 : 			else
; 1010 : #endif
; 1011 : 				return ReadBits( ( unsigned char* ) & var, sizeof(templateType) * 8, true );

	push	1
	push	32					; 00000020H
	mov	eax, DWORD PTR _var$[ebp]
	push	eax
	mov	ecx, DWORD PTR _this$[ebp]
	call	?ReadBits@BitStream@RakNet@@QAE_NPAEH_N@Z ; RakNet::BitStream::ReadBits
$LN3@Read:

; 1012 : 		}
; 1013 : 	}

	pop	edi
	pop	esi
	pop	ebx
	add	esp, 204				; 000000ccH
	cmp	ebp, esp
	call	__RTC_CheckEsp
	mov	esp, ebp
	pop	ebp
	ret	4
??$Read@I@BitStream@RakNet@@QAE_NAAI@Z ENDP		; RakNet::BitStream::Read<unsigned int>
_TEXT	ENDS
; Function compile flags: /Odtp /RTCsu /ZI
; File z:\sampsrc\02xu1\raknet\bitstream.h
;	COMDAT ??$Read@_N@BitStream@RakNet@@QAE_NAA_N@Z
_TEXT	SEGMENT
tv82 = -208						; size = 4
_this$ = -8						; size = 4
_var$ = 8						; size = 4
??$Read@_N@BitStream@RakNet@@QAE_NAA_N@Z PROC		; RakNet::BitStream::Read<bool>, COMDAT
; _this$ = ecx

; 1019 : 	{

	push	ebp
	mov	ebp, esp
	sub	esp, 208				; 000000d0H
	push	ebx
	push	esi
	push	edi
	push	ecx
	lea	edi, DWORD PTR [ebp-208]
	mov	ecx, 52					; 00000034H
	mov	eax, -858993460				; ccccccccH
	rep stosd
	pop	ecx
	mov	DWORD PTR _this$[ebp], ecx

; 1020 : 		if ( readOffset + 1 > numberOfBitsUsed )

	mov	eax, DWORD PTR _this$[ebp]
	mov	ecx, DWORD PTR [eax+8]
	add	ecx, 1
	mov	edx, DWORD PTR _this$[ebp]
	cmp	ecx, DWORD PTR [edx]
	jle	SHORT $LN3@Read

; 1021 : 			return false;

	xor	al, al
	jmp	SHORT $LN4@Read
$LN3@Read:

; 1022 : 
; 1023 : 		if ( data[ readOffset >> 3 ] & ( 0x80 >> ( readOffset++ % 8 ) ) )   // Is it faster to just write it out here?

	mov	eax, DWORD PTR _this$[ebp]
	mov	ecx, DWORD PTR [eax+8]
	sar	ecx, 3
	mov	edx, DWORD PTR _this$[ebp]
	mov	eax, DWORD PTR [edx+12]
	movzx	edx, BYTE PTR [eax+ecx]
	mov	eax, DWORD PTR _this$[ebp]
	mov	ecx, DWORD PTR [eax+8]
	and	ecx, -2147483641			; 80000007H
	jns	SHORT $LN6@Read
	dec	ecx
	or	ecx, -8					; fffffff8H
	inc	ecx
$LN6@Read:
	mov	eax, 128				; 00000080H
	sar	eax, cl
	and	edx, eax
	mov	DWORD PTR tv82[ebp], edx
	mov	ecx, DWORD PTR _this$[ebp]
	mov	edx, DWORD PTR [ecx+8]
	add	edx, 1
	mov	eax, DWORD PTR _this$[ebp]
	mov	DWORD PTR [eax+8], edx
	cmp	DWORD PTR tv82[ebp], 0
	je	SHORT $LN2@Read

; 1024 : 			var = true;

	mov	eax, DWORD PTR _var$[ebp]
	mov	BYTE PTR [eax], 1

; 1025 : 		else

	jmp	SHORT $LN1@Read
$LN2@Read:

; 1026 : 			var = false;

	mov	eax, DWORD PTR _var$[ebp]
	mov	BYTE PTR [eax], 0
$LN1@Read:

; 1027 : 
; 1028 : 		return true;

	mov	al, 1
$LN4@Read:

; 1029 : 	}

	pop	edi
	pop	esi
	pop	ebx
	mov	esp, ebp
	pop	ebp
	ret	4
??$Read@_N@BitStream@RakNet@@QAE_NAA_N@Z ENDP		; RakNet::BitStream::Read<bool>
_TEXT	ENDS
; Function compile flags: /Odtp /RTCsu /ZI
; File z:\sampsrc\02xu1\saco\game\game.h
;	COMDAT ?FindPlayerPed@CGame@@QAEPAVCPlayerPed@@XZ
_TEXT	SEGMENT
tv74 = -244						; size = 4
$T2 = -236						; size = 4
$T3 = -224						; size = 4
_this$ = -20						; size = 4
__$EHRec$ = -12						; size = 12
?FindPlayerPed@CGame@@QAEPAVCPlayerPed@@XZ PROC		; CGame::FindPlayerPed, COMDAT
; _this$ = ecx

; 142  : 	CPlayerPed  *FindPlayerPed() {

	push	ebp
	mov	ebp, esp
	push	-1
	push	__ehhandler$?FindPlayerPed@CGame@@QAEPAVCPlayerPed@@XZ
	mov	eax, DWORD PTR fs:0
	push	eax
	sub	esp, 232				; 000000e8H
	push	ebx
	push	esi
	push	edi
	push	ecx
	lea	edi, DWORD PTR [ebp-244]
	mov	ecx, 58					; 0000003aH
	mov	eax, -858993460				; ccccccccH
	rep stosd
	pop	ecx
	mov	eax, DWORD PTR ___security_cookie
	xor	eax, ebp
	push	eax
	lea	eax, DWORD PTR __$EHRec$[ebp]
	mov	DWORD PTR fs:0, eax
	mov	DWORD PTR _this$[ebp], ecx

; 143  : 		if(m_pGamePlayer==NULL)	m_pGamePlayer = new CPlayerPed();

	mov	eax, DWORD PTR _this$[ebp]
	cmp	DWORD PTR [eax+4], 0
	jne	SHORT $LN1@FindPlayer
	push	70					; 00000046H
	call	??2@YAPAXI@Z				; operator new
	add	esp, 4
	mov	DWORD PTR $T3[ebp], eax
	mov	DWORD PTR __$EHRec$[ebp+8], 0
	cmp	DWORD PTR $T3[ebp], 0
	je	SHORT $LN4@FindPlayer
	mov	ecx, DWORD PTR $T3[ebp]
	call	??0CPlayerPed@@QAE@XZ			; CPlayerPed::CPlayerPed
	mov	DWORD PTR tv74[ebp], eax
	jmp	SHORT $LN5@FindPlayer
$LN4@FindPlayer:
	mov	DWORD PTR tv74[ebp], 0
$LN5@FindPlayer:
	mov	eax, DWORD PTR tv74[ebp]
	mov	DWORD PTR $T2[ebp], eax
	mov	DWORD PTR __$EHRec$[ebp+8], -1
	mov	ecx, DWORD PTR _this$[ebp]
	mov	edx, DWORD PTR $T2[ebp]
	mov	DWORD PTR [ecx+4], edx
$LN1@FindPlayer:

; 144  : 		return m_pGamePlayer;

	mov	eax, DWORD PTR _this$[ebp]
	mov	eax, DWORD PTR [eax+4]

; 145  : 	};

	mov	ecx, DWORD PTR __$EHRec$[ebp]
	mov	DWORD PTR fs:0, ecx
	pop	ecx
	pop	edi
	pop	esi
	pop	ebx
	add	esp, 244				; 000000f4H
	cmp	ebp, esp
	call	__RTC_CheckEsp
	mov	esp, ebp
	pop	ebp
	ret	0
_TEXT	ENDS
;	COMDAT text$x
text$x	SEGMENT
__unwindfunclet$?FindPlayerPed@CGame@@QAEPAVCPlayerPed@@XZ$0:
	mov	eax, DWORD PTR $T3[ebp]
	push	eax
	call	??3@YAXPAX@Z				; operator delete
	pop	ecx
	ret	0
__ehhandler$?FindPlayerPed@CGame@@QAEPAVCPlayerPed@@XZ:
	mov	edx, DWORD PTR [esp+8]
	lea	eax, DWORD PTR [edx+12]
	mov	ecx, DWORD PTR [edx-248]
	xor	ecx, eax
	call	@__security_check_cookie@4
	mov	eax, OFFSET __ehfuncinfo$?FindPlayerPed@CGame@@QAEPAVCPlayerPed@@XZ
	jmp	___CxxFrameHandler3
text$x	ENDS
?FindPlayerPed@CGame@@QAEPAVCPlayerPed@@XZ ENDP		; CGame::FindPlayerPed
; Function compile flags: /Odtp /RTCsu /ZI
; File z:\sampsrc\02xu1\saco\game\game.h
;	COMDAT ?GetCamera@CGame@@QAEPAVCCamera@@XZ
_TEXT	SEGMENT
_this$ = -8						; size = 4
?GetCamera@CGame@@QAEPAVCCamera@@XZ PROC		; CGame::GetCamera, COMDAT
; _this$ = ecx

; 135  : 	CCamera     *GetCamera() {	return m_pGameCamera; };

	push	ebp
	mov	ebp, esp
	sub	esp, 204				; 000000ccH
	push	ebx
	push	esi
	push	edi
	push	ecx
	lea	edi, DWORD PTR [ebp-204]
	mov	ecx, 51					; 00000033H
	mov	eax, -858993460				; ccccccccH
	rep stosd
	pop	ecx
	mov	DWORD PTR _this$[ebp], ecx
	mov	eax, DWORD PTR _this$[ebp]
	mov	eax, DWORD PTR [eax]
	pop	edi
	pop	esi
	pop	ebx
	mov	esp, ebp
	pop	ebp
	ret	0
?GetCamera@CGame@@QAEPAVCCamera@@XZ ENDP		; CGame::GetCamera
_TEXT	ENDS
END
