; Listing generated by Microsoft (R) Optimizing Compiler Version 18.00.31101.0 

	TITLE	Z:\sampsrc\02Xu1\saco\archive\Signer.cpp
	.686P
	.XMM
	include listing.inc
	.model	flat

INCLUDELIB LIBCMTD
INCLUDELIB OLDNAMES

PUBLIC	??0CSigner@@QAE@XZ				; CSigner::CSigner
PUBLIC	??1CSigner@@QAE@XZ				; CSigner::~CSigner
PUBLIC	?SetSignature@CSigner@@QAEXKPAE@Z		; CSigner::SetSignature
PUBLIC	?VerifySignature@CSigner@@QAEHPAVCHasher@@PAVCKeyPair@@@Z ; CSigner::VerifySignature
EXTRN	??2@YAPAXI@Z:PROC				; operator new
EXTRN	??3@YAXPAX@Z:PROC				; operator delete
EXTRN	_memcpy:PROC
EXTRN	?GetContainer@CHasher@@QAEKXZ:PROC		; CHasher::GetContainer
EXTRN	?GetContainer@CKeyPair@@QAEKXZ:PROC		; CKeyPair::GetContainer
EXTRN	?xCryptCallVerifySignature@@YGHKPAEKKPBDK@Z:PROC ; xCryptCallVerifySignature
EXTRN	__RTC_CheckEsp:PROC
EXTRN	__RTC_InitBase:PROC
EXTRN	__RTC_Shutdown:PROC
;	COMDAT rtc$TMZ
rtc$TMZ	SEGMENT
__RTC_Shutdown.rtc$TMZ DD FLAT:__RTC_Shutdown
rtc$TMZ	ENDS
;	COMDAT rtc$IMZ
rtc$IMZ	SEGMENT
__RTC_InitBase.rtc$IMZ DD FLAT:__RTC_InitBase
rtc$IMZ	ENDS
; Function compile flags: /Odtp /RTCsu /ZI
; File z:\sampsrc\02xu1\saco\archive\signer.cpp
;	COMDAT ?VerifySignature@CSigner@@QAEHPAVCHasher@@PAVCKeyPair@@@Z
_TEXT	SEGMENT
_bVerify$ = -44						; size = 4
_hCryptKey$ = -32					; size = 4
_hCryptHash$ = -20					; size = 4
_this$ = -8						; size = 4
_pHasher$ = 8						; size = 4
_pKeyPair$ = 12						; size = 4
?VerifySignature@CSigner@@QAEHPAVCHasher@@PAVCKeyPair@@@Z PROC ; CSigner::VerifySignature, COMDAT
; _this$ = ecx

; 76   : {

	push	ebp
	mov	ebp, esp
	sub	esp, 240				; 000000f0H
	push	ebx
	push	esi
	push	edi
	push	ecx
	lea	edi, DWORD PTR [ebp-240]
	mov	ecx, 60					; 0000003cH
	mov	eax, -858993460				; ccccccccH
	rep stosd
	pop	ecx
	mov	DWORD PTR _this$[ebp], ecx

; 77   : 	HCRYPTHASH hCryptHash = pHasher->GetContainer();

	mov	ecx, DWORD PTR _pHasher$[ebp]
	call	?GetContainer@CHasher@@QAEKXZ		; CHasher::GetContainer
	mov	DWORD PTR _hCryptHash$[ebp], eax

; 78   : 	HCRYPTKEY hCryptKey = pKeyPair->GetContainer();

	mov	ecx, DWORD PTR _pKeyPair$[ebp]
	call	?GetContainer@CKeyPair@@QAEKXZ		; CKeyPair::GetContainer
	mov	DWORD PTR _hCryptKey$[ebp], eax

; 79   : 	BOOL bVerify;
; 80   : 
; 81   : 	bVerify = CRYPT(VerifySignature)(hCryptHash, m_pbSignature, m_dwLength, hCryptKey, NULL, CRYPT_NOHASHOID);

	push	1
	push	0
	mov	eax, DWORD PTR _hCryptKey$[ebp]
	push	eax
	mov	ecx, DWORD PTR _this$[ebp]
	mov	edx, DWORD PTR [ecx+4]
	push	edx
	mov	eax, DWORD PTR _this$[ebp]
	mov	ecx, DWORD PTR [eax]
	push	ecx
	mov	edx, DWORD PTR _hCryptHash$[ebp]
	push	edx
	call	?xCryptCallVerifySignature@@YGHKPAEKKPBDK@Z ; xCryptCallVerifySignature
	mov	DWORD PTR _bVerify$[ebp], eax

; 82   : 
; 83   : 	return bVerify;

	mov	eax, DWORD PTR _bVerify$[ebp]

; 84   : }

	pop	edi
	pop	esi
	pop	ebx
	add	esp, 240				; 000000f0H
	cmp	ebp, esp
	call	__RTC_CheckEsp
	mov	esp, ebp
	pop	ebp
	ret	8
?VerifySignature@CSigner@@QAEHPAVCHasher@@PAVCKeyPair@@@Z ENDP ; CSigner::VerifySignature
_TEXT	ENDS
; Function compile flags: /Odtp /RTCsu /ZI
; File z:\sampsrc\02xu1\saco\archive\signer.cpp
;	COMDAT ?SetSignature@CSigner@@QAEXKPAE@Z
_TEXT	SEGMENT
$T1 = -224						; size = 4
$T2 = -212						; size = 4
_this$ = -8						; size = 4
_dwLength$ = 8						; size = 4
_pbSignature$ = 12					; size = 4
?SetSignature@CSigner@@QAEXKPAE@Z PROC			; CSigner::SetSignature, COMDAT
; _this$ = ecx

; 64   : {

	push	ebp
	mov	ebp, esp
	sub	esp, 228				; 000000e4H
	push	ebx
	push	esi
	push	edi
	push	ecx
	lea	edi, DWORD PTR [ebp-228]
	mov	ecx, 57					; 00000039H
	mov	eax, -858993460				; ccccccccH
	rep stosd
	pop	ecx
	mov	DWORD PTR _this$[ebp], ecx

; 65   : 	if (m_pbSignature != NULL)

	mov	eax, DWORD PTR _this$[ebp]
	cmp	DWORD PTR [eax], 0
	je	SHORT $LN1@SetSignatu

; 66   : 		delete[] m_pbSignature;

	mov	eax, DWORD PTR _this$[ebp]
	mov	ecx, DWORD PTR [eax]
	mov	DWORD PTR $T1[ebp], ecx
	mov	edx, DWORD PTR $T1[ebp]
	push	edx
	call	??3@YAXPAX@Z				; operator delete
	add	esp, 4
$LN1@SetSignatu:

; 67   : 
; 68   : 	m_dwLength = dwLength;

	mov	eax, DWORD PTR _this$[ebp]
	mov	ecx, DWORD PTR _dwLength$[ebp]
	mov	DWORD PTR [eax+4], ecx

; 69   : 	m_pbSignature = new BYTE[dwLength];

	mov	eax, DWORD PTR _dwLength$[ebp]
	push	eax
	call	??2@YAPAXI@Z				; operator new
	add	esp, 4
	mov	DWORD PTR $T2[ebp], eax
	mov	ecx, DWORD PTR _this$[ebp]
	mov	edx, DWORD PTR $T2[ebp]
	mov	DWORD PTR [ecx], edx

; 70   : 	memcpy(m_pbSignature, pbSignature, m_dwLength);

	mov	eax, DWORD PTR _this$[ebp]
	mov	ecx, DWORD PTR [eax+4]
	push	ecx
	mov	edx, DWORD PTR _pbSignature$[ebp]
	push	edx
	mov	eax, DWORD PTR _this$[ebp]
	mov	ecx, DWORD PTR [eax]
	push	ecx
	call	_memcpy
	add	esp, 12					; 0000000cH

; 71   : }

	pop	edi
	pop	esi
	pop	ebx
	add	esp, 228				; 000000e4H
	cmp	ebp, esp
	call	__RTC_CheckEsp
	mov	esp, ebp
	pop	ebp
	ret	8
?SetSignature@CSigner@@QAEXKPAE@Z ENDP			; CSigner::SetSignature
_TEXT	ENDS
; Function compile flags: /Odtp /RTCsu /ZI
; File z:\sampsrc\02xu1\saco\archive\signer.cpp
;	COMDAT ??1CSigner@@QAE@XZ
_TEXT	SEGMENT
$T1 = -212						; size = 4
_this$ = -8						; size = 4
??1CSigner@@QAE@XZ PROC					; CSigner::~CSigner, COMDAT
; _this$ = ecx

; 22   : {

	push	ebp
	mov	ebp, esp
	sub	esp, 216				; 000000d8H
	push	ebx
	push	esi
	push	edi
	push	ecx
	lea	edi, DWORD PTR [ebp-216]
	mov	ecx, 54					; 00000036H
	mov	eax, -858993460				; ccccccccH
	rep stosd
	pop	ecx
	mov	DWORD PTR _this$[ebp], ecx

; 23   : 	if (m_pbSignature != NULL)

	mov	eax, DWORD PTR _this$[ebp]
	cmp	DWORD PTR [eax], 0
	je	SHORT $LN2@CSigner

; 24   : 		delete[] m_pbSignature;

	mov	eax, DWORD PTR _this$[ebp]
	mov	ecx, DWORD PTR [eax]
	mov	DWORD PTR $T1[ebp], ecx
	mov	edx, DWORD PTR $T1[ebp]
	push	edx
	call	??3@YAXPAX@Z				; operator delete
	add	esp, 4
$LN2@CSigner:

; 25   : }

	pop	edi
	pop	esi
	pop	ebx
	add	esp, 216				; 000000d8H
	cmp	ebp, esp
	call	__RTC_CheckEsp
	mov	esp, ebp
	pop	ebp
	ret	0
??1CSigner@@QAE@XZ ENDP					; CSigner::~CSigner
_TEXT	ENDS
; Function compile flags: /Odtp /RTCsu /ZI
; File z:\sampsrc\02xu1\saco\archive\signer.cpp
;	COMDAT ??0CSigner@@QAE@XZ
_TEXT	SEGMENT
_this$ = -8						; size = 4
??0CSigner@@QAE@XZ PROC					; CSigner::CSigner, COMDAT
; _this$ = ecx

; 14   : {

	push	ebp
	mov	ebp, esp
	sub	esp, 204				; 000000ccH
	push	ebx
	push	esi
	push	edi
	push	ecx
	lea	edi, DWORD PTR [ebp-204]
	mov	ecx, 51					; 00000033H
	mov	eax, -858993460				; ccccccccH
	rep stosd
	pop	ecx
	mov	DWORD PTR _this$[ebp], ecx

; 15   : 	m_dwLength = 0;

	mov	eax, DWORD PTR _this$[ebp]
	mov	DWORD PTR [eax+4], 0

; 16   : 	m_pbSignature = NULL;

	mov	eax, DWORD PTR _this$[ebp]
	mov	DWORD PTR [eax], 0

; 17   : }

	mov	eax, DWORD PTR _this$[ebp]
	pop	edi
	pop	esi
	pop	ebx
	mov	esp, ebp
	pop	ebp
	ret	0
??0CSigner@@QAE@XZ ENDP					; CSigner::CSigner
_TEXT	ENDS
END
